ARM GAS  /var/folders/ng/s8655sgx1ys_4lf9jzm2w6n00000gn/T//cciXXOfZ.s 			page 1


   1              		.syntax unified
   2              		.cpu cortex-m4
   3              		.eabi_attribute 27, 3
   4              		.fpu fpv4-sp-d16
   5              		.eabi_attribute 20, 1
   6              		.eabi_attribute 21, 1
   7              		.eabi_attribute 23, 3
   8              		.eabi_attribute 24, 1
   9              		.eabi_attribute 25, 1
  10              		.eabi_attribute 26, 1
  11              		.eabi_attribute 30, 2
  12              		.eabi_attribute 34, 1
  13              		.eabi_attribute 18, 4
  14              		.thumb
  15              		.file	"adc.c"
  16              		.text
  17              	.Ltext0:
  18              		.cfi_sections	.debug_frame
  19              		.section	.text.adcInit,"ax",%progbits
  20              		.align	2
  21              		.p2align 4,,15
  22              		.global	adcInit
  23              		.thumb
  24              		.thumb_func
  25              		.type	adcInit, %function
  26              	adcInit:
  27              	.LFB118:
  28              		.file 1 "../AithonLibrary/ChibiOS/os/hal/src/adc.c"
  29              		.loc 1 68 0
  30              		.cfi_startproc
  31              		@ args = 0, pretend = 0, frame = 0
  32              		@ frame_needed = 0, uses_anonymous_args = 0
  33              		@ link register save eliminated.
  34              		.loc 1 71 0
  35              		.loc 1 70 0
  36 0000 FFF7FEBF 		b	adc_lld_init
  37              	.LVL0:
  38              		.cfi_endproc
  39              	.LFE118:
  40              		.size	adcInit, .-adcInit
  41 0004 AFF30080 		.section	.text.adcObjectInit,"ax",%progbits
  41      AFF30080 
  41      AFF30080 
  42              		.align	2
  43              		.p2align 4,,15
  44              		.global	adcObjectInit
  45              		.thumb
  46              		.thumb_func
  47              		.type	adcObjectInit, %function
  48              	adcObjectInit:
  49              	.LFB119:
  50              		.loc 1 80 0
  51              		.cfi_startproc
  52              		@ args = 0, pretend = 0, frame = 0
  53              		@ frame_needed = 0, uses_anonymous_args = 0
  54              		@ link register save eliminated.
  55              	.LVL1:
ARM GAS  /var/folders/ng/s8655sgx1ys_4lf9jzm2w6n00000gn/T//cciXXOfZ.s 			page 2


  56              		.loc 1 83 0
  57 0000 0023     		movs	r3, #0
  58              		.loc 1 82 0
  59 0002 0122     		movs	r2, #1
  60 0004 0270     		strb	r2, [r0, #0]
  61              		.loc 1 83 0
  62 0006 4360     		str	r3, [r0, #4]
  63              		.loc 1 84 0
  64 0008 8360     		str	r3, [r0, #8]
  65              		.loc 1 85 0
  66 000a C360     		str	r3, [r0, #12]
  67              		.loc 1 86 0
  68 000c 0361     		str	r3, [r0, #16]
  69              		.loc 1 88 0
  70 000e 4361     		str	r3, [r0, #20]
  71 0010 7047     		bx	lr
  72              		.cfi_endproc
  73              	.LFE119:
  74              		.size	adcObjectInit, .-adcObjectInit
  75 0012 00BFAFF3 		.section	.text.adcStart,"ax",%progbits
  75      0080AFF3 
  75      0080AFF3 
  75      0080
  76              		.align	2
  77              		.p2align 4,,15
  78              		.global	adcStart
  79              		.thumb
  80              		.thumb_func
  81              		.type	adcStart, %function
  82              	adcStart:
  83              	.LFB120:
  84              		.loc 1 111 0
  85              		.cfi_startproc
  86              		@ args = 0, pretend = 0, frame = 0
  87              		@ frame_needed = 0, uses_anonymous_args = 0
  88              	.LVL2:
  89 0000 10B5     		push	{r4, lr}
  90              	.LCFI0:
  91              		.cfi_def_cfa_offset 8
  92              		.cfi_offset 4, -8
  93              		.cfi_offset 14, -4
  94              	.LBB10:
  95              		.loc 1 115 0
  96 0002 2023     		movs	r3, #32
  97              	.LVL3:
  98              	.LBE10:
  99              		.loc 1 111 0
 100 0004 0446     		mov	r4, r0
 101              	.LBB11:
 102              		.loc 1 115 0
 103              	@ 115 "../AithonLibrary/ChibiOS/os/hal/src/adc.c" 1
 104 0006 83F31188 		msr     BASEPRI, r3
 105              	@ 0 "" 2
 106              	.LVL4:
 107              		.thumb
 108              	.LBE11:
 109              		.loc 1 118 0
ARM GAS  /var/folders/ng/s8655sgx1ys_4lf9jzm2w6n00000gn/T//cciXXOfZ.s 			page 3


 110 000a 4160     		str	r1, [r0, #4]
 111              		.loc 1 119 0
 112 000c FFF7FEFF 		bl	adc_lld_start
 113              	.LVL5:
 114              		.loc 1 120 0
 115 0010 0223     		movs	r3, #2
 116 0012 2370     		strb	r3, [r4, #0]
 117              	.LBB12:
 118              		.loc 1 121 0
 119 0014 0023     		movs	r3, #0
 120              	.LVL6:
 121              	@ 121 "../AithonLibrary/ChibiOS/os/hal/src/adc.c" 1
 122 0016 83F31188 		msr     BASEPRI, r3
 123              	@ 0 "" 2
 124              	.LVL7:
 125              		.thumb
 126 001a 10BD     		pop	{r4, pc}
 127              	.LBE12:
 128              		.cfi_endproc
 129              	.LFE120:
 130              		.size	adcStart, .-adcStart
 131 001c AFF30080 		.section	.text.adcStop,"ax",%progbits
 132              		.align	2
 133              		.p2align 4,,15
 134              		.global	adcStop
 135              		.thumb
 136              		.thumb_func
 137              		.type	adcStop, %function
 138              	adcStop:
 139              	.LFB121:
 140              		.loc 1 131 0
 141              		.cfi_startproc
 142              		@ args = 0, pretend = 0, frame = 0
 143              		@ frame_needed = 0, uses_anonymous_args = 0
 144              	.LVL8:
 145 0000 10B5     		push	{r4, lr}
 146              	.LCFI1:
 147              		.cfi_def_cfa_offset 8
 148              		.cfi_offset 4, -8
 149              		.cfi_offset 14, -4
 150              	.LBB13:
 151              		.loc 1 135 0
 152 0002 2023     		movs	r3, #32
 153              	.LVL9:
 154              	.LBE13:
 155              		.loc 1 131 0
 156 0004 0446     		mov	r4, r0
 157              	.LBB14:
 158              		.loc 1 135 0
 159              	@ 135 "../AithonLibrary/ChibiOS/os/hal/src/adc.c" 1
 160 0006 83F31188 		msr     BASEPRI, r3
 161              	@ 0 "" 2
 162              	.LVL10:
 163              		.thumb
 164              	.LBE14:
 165              		.loc 1 138 0
 166 000a FFF7FEFF 		bl	adc_lld_stop
ARM GAS  /var/folders/ng/s8655sgx1ys_4lf9jzm2w6n00000gn/T//cciXXOfZ.s 			page 4


 167              	.LVL11:
 168              		.loc 1 139 0
 169 000e 0123     		movs	r3, #1
 170 0010 2370     		strb	r3, [r4, #0]
 171              	.LBB15:
 172              		.loc 1 140 0
 173 0012 0023     		movs	r3, #0
 174              	.LVL12:
 175              	@ 140 "../AithonLibrary/ChibiOS/os/hal/src/adc.c" 1
 176 0014 83F31188 		msr     BASEPRI, r3
 177              	@ 0 "" 2
 178              	.LVL13:
 179              		.thumb
 180 0018 10BD     		pop	{r4, pc}
 181              	.LBE15:
 182              		.cfi_endproc
 183              	.LFE121:
 184              		.size	adcStop, .-adcStop
 185 001a 00BFAFF3 		.section	.text.adcStartConversion,"ax",%progbits
 185      0080
 186              		.align	2
 187              		.p2align 4,,15
 188              		.global	adcStartConversion
 189              		.thumb
 190              		.thumb_func
 191              		.type	adcStartConversion, %function
 192              	adcStartConversion:
 193              	.LFB122:
 194              		.loc 1 162 0
 195              		.cfi_startproc
 196              		@ args = 0, pretend = 0, frame = 0
 197              		@ frame_needed = 0, uses_anonymous_args = 0
 198              	.LVL14:
 199 0000 38B5     		push	{r3, r4, r5, lr}
 200              	.LCFI2:
 201              		.cfi_def_cfa_offset 16
 202              		.cfi_offset 3, -16
 203              		.cfi_offset 4, -12
 204              		.cfi_offset 5, -8
 205              		.cfi_offset 14, -4
 206              		.loc 1 162 0
 207 0002 1D46     		mov	r5, r3
 208 0004 0446     		mov	r4, r0
 209              	.LBB16:
 210              		.loc 1 164 0
 211 0006 2023     		movs	r3, #32
 212              	.LVL15:
 213              	@ 164 "../AithonLibrary/ChibiOS/os/hal/src/adc.c" 1
 214 0008 83F31188 		msr     BASEPRI, r3
 215              	@ 0 "" 2
 216              	.LVL16:
 217              		.thumb
 218              	.LBE16:
 219              	.LBB17:
 220              	.LBB18:
 221              		.loc 1 204 0
 222 000c 0323     		movs	r3, #3
ARM GAS  /var/folders/ng/s8655sgx1ys_4lf9jzm2w6n00000gn/T//cciXXOfZ.s 			page 5


 223              	.LVL17:
 224 000e 0370     		strb	r3, [r0, #0]
 225              		.loc 1 201 0
 226 0010 8260     		str	r2, [r0, #8]
 227              		.loc 1 202 0
 228 0012 C560     		str	r5, [r0, #12]
 229              		.loc 1 203 0
 230 0014 0161     		str	r1, [r0, #16]
 231              		.loc 1 205 0
 232 0016 FFF7FEFF 		bl	adc_lld_start_conversion
 233              	.LVL18:
 234              	.LBE18:
 235              	.LBE17:
 236              	.LBB19:
 237              		.loc 1 166 0
 238 001a 0023     		movs	r3, #0
 239              	.LVL19:
 240              	@ 166 "../AithonLibrary/ChibiOS/os/hal/src/adc.c" 1
 241 001c 83F31188 		msr     BASEPRI, r3
 242              	@ 0 "" 2
 243              	.LVL20:
 244              		.thumb
 245 0020 38BD     		pop	{r3, r4, r5, pc}
 246              	.LBE19:
 247              		.cfi_endproc
 248              	.LFE122:
 249              		.size	adcStartConversion, .-adcStartConversion
 250 0022 00BFAFF3 		.section	.text.adcStartConversionI,"ax",%progbits
 250      0080AFF3 
 250      0080AFF3 
 250      0080
 251              		.align	2
 252              		.p2align 4,,15
 253              		.global	adcStartConversionI
 254              		.thumb
 255              		.thumb_func
 256              		.type	adcStartConversionI, %function
 257              	adcStartConversionI:
 258              	.LFB123:
 259              		.loc 1 190 0
 260              		.cfi_startproc
 261              		@ args = 0, pretend = 0, frame = 0
 262              		@ frame_needed = 0, uses_anonymous_args = 0
 263              		@ link register save eliminated.
 264              	.LVL21:
 265 0000 10B4     		push	{r4}
 266              	.LCFI3:
 267              		.cfi_def_cfa_offset 4
 268              		.cfi_offset 4, -4
 269              		.loc 1 202 0
 270 0002 C360     		str	r3, [r0, #12]
 271              		.loc 1 190 0
 272 0004 0446     		mov	r4, r0
 273              		.loc 1 204 0
 274 0006 0323     		movs	r3, #3
 275              	.LVL22:
 276              		.loc 1 201 0
ARM GAS  /var/folders/ng/s8655sgx1ys_4lf9jzm2w6n00000gn/T//cciXXOfZ.s 			page 6


 277 0008 8260     		str	r2, [r0, #8]
 278              		.loc 1 203 0
 279 000a 0161     		str	r1, [r0, #16]
 280              		.loc 1 204 0
 281 000c 0370     		strb	r3, [r0, #0]
 282              		.loc 1 206 0
 283 000e 10BC     		pop	{r4}
 284              		.loc 1 205 0
 285 0010 FFF7FEBF 		b	adc_lld_start_conversion
 286              	.LVL23:
 287              		.cfi_endproc
 288              	.LFE123:
 289              		.size	adcStartConversionI, .-adcStartConversionI
 290 0014 AFF30080 		.section	.text.adcStopConversion,"ax",%progbits
 290      AFF30080 
 290      AFF30080 
 291              		.align	2
 292              		.p2align 4,,15
 293              		.global	adcStopConversion
 294              		.thumb
 295              		.thumb_func
 296              		.type	adcStopConversion, %function
 297              	adcStopConversion:
 298              	.LFB124:
 299              		.loc 1 218 0
 300              		.cfi_startproc
 301              		@ args = 0, pretend = 0, frame = 0
 302              		@ frame_needed = 0, uses_anonymous_args = 0
 303              	.LVL24:
 304 0000 10B5     		push	{r4, lr}
 305              	.LCFI4:
 306              		.cfi_def_cfa_offset 8
 307              		.cfi_offset 4, -8
 308              		.cfi_offset 14, -4
 309              	.LBB20:
 310              		.loc 1 222 0
 311 0002 2023     		movs	r3, #32
 312              	.LVL25:
 313              	.LBE20:
 314              		.loc 1 218 0
 315 0004 0446     		mov	r4, r0
 316              	.LBB21:
 317              		.loc 1 222 0
 318              	@ 222 "../AithonLibrary/ChibiOS/os/hal/src/adc.c" 1
 319 0006 83F31188 		msr     BASEPRI, r3
 320              	@ 0 "" 2
 321              	.LVL26:
 322              		.thumb
 323              	.LBE21:
 324              		.loc 1 226 0
 325 000a 0378     		ldrb	r3, [r0, #0]	@ zero_extendqisi2
 326              	.LVL27:
 327 000c 022B     		cmp	r3, #2
 328 000e 0CD0     		beq	.L9
 329              		.loc 1 227 0
 330 0010 FFF7FEFF 		bl	adc_lld_stop_conversion
 331              	.LVL28:
ARM GAS  /var/folders/ng/s8655sgx1ys_4lf9jzm2w6n00000gn/T//cciXXOfZ.s 			page 7


 332              		.loc 1 230 0
 333 0014 6069     		ldr	r0, [r4, #20]
 334              		.loc 1 228 0
 335 0016 0021     		movs	r1, #0
 336              		.loc 1 229 0
 337 0018 0222     		movs	r2, #2
 338              		.loc 1 228 0
 339 001a 2161     		str	r1, [r4, #16]
 340              		.loc 1 229 0
 341 001c 2270     		strb	r2, [r4, #0]
 342              		.loc 1 230 0
 343 001e 20B1     		cbz	r0, .L9
 344              	.LVL29:
 345              	.LBB22:
 346              		.loc 1 230 0 is_stmt 0 discriminator 1
 347 0020 6161     		str	r1, [r4, #20]
 348 0022 6FF00101 		mvn	r1, #1
 349 0026 FFF7FEFF 		bl	chSchWakeupS
 350              	.LVL30:
 351              	.L9:
 352              	.LBE22:
 353              	.LBB23:
 354              		.loc 1 232 0 is_stmt 1
 355 002a 0023     		movs	r3, #0
 356              	.LVL31:
 357              	@ 232 "../AithonLibrary/ChibiOS/os/hal/src/adc.c" 1
 358 002c 83F31188 		msr     BASEPRI, r3
 359              	@ 0 "" 2
 360              	.LVL32:
 361              		.thumb
 362 0030 10BD     		pop	{r4, pc}
 363              	.LBE23:
 364              		.cfi_endproc
 365              	.LFE124:
 366              		.size	adcStopConversion, .-adcStopConversion
 367 0032 00BFAFF3 		.section	.text.adcStopConversionI,"ax",%progbits
 367      0080AFF3 
 367      0080AFF3 
 367      0080
 368              		.align	2
 369              		.p2align 4,,15
 370              		.global	adcStopConversionI
 371              		.thumb
 372              		.thumb_func
 373              		.type	adcStopConversionI, %function
 374              	adcStopConversionI:
 375              	.LFB125:
 376              		.loc 1 245 0
 377              		.cfi_startproc
 378              		@ args = 0, pretend = 0, frame = 0
 379              		@ frame_needed = 0, uses_anonymous_args = 0
 380              	.LVL33:
 381              		.loc 1 254 0
 382 0000 0378     		ldrb	r3, [r0, #0]	@ zero_extendqisi2
 383 0002 022B     		cmp	r3, #2
 384              		.loc 1 245 0
 385 0004 10B5     		push	{r4, lr}
ARM GAS  /var/folders/ng/s8655sgx1ys_4lf9jzm2w6n00000gn/T//cciXXOfZ.s 			page 8


 386              	.LCFI5:
 387              		.cfi_def_cfa_offset 8
 388              		.cfi_offset 4, -8
 389              		.cfi_offset 14, -4
 390              		.loc 1 245 0
 391 0006 0446     		mov	r4, r0
 392              		.loc 1 254 0
 393 0008 10D0     		beq	.L15
 394              		.loc 1 255 0
 395 000a FFF7FEFF 		bl	adc_lld_stop_conversion
 396              	.LVL34:
 397              		.loc 1 258 0
 398 000e 6369     		ldr	r3, [r4, #20]
 399              		.loc 1 256 0
 400 0010 0022     		movs	r2, #0
 401              		.loc 1 257 0
 402 0012 0221     		movs	r1, #2
 403              		.loc 1 256 0
 404 0014 2261     		str	r2, [r4, #16]
 405              		.loc 1 257 0
 406 0016 2170     		strb	r1, [r4, #0]
 407              		.loc 1 258 0
 408 0018 43B1     		cbz	r3, .L15
 409              	.LVL35:
 410              	.LBB24:
 411              		.loc 1 258 0 is_stmt 0 discriminator 1
 412 001a 6261     		str	r2, [r4, #20]
 413 001c 1846     		mov	r0, r3
 414 001e 6FF00102 		mvn	r2, #1
 415 0022 5A62     		str	r2, [r3, #36]
 416              	.LBE24:
 417              		.loc 1 260 0 is_stmt 1 discriminator 1
 418 0024 BDE81040 		pop	{r4, lr}
 419              	.LBB25:
 420              		.loc 1 258 0 discriminator 1
 421 0028 FFF7FEBF 		b	chSchReadyI
 422              	.LVL36:
 423              	.L15:
 424 002c 10BD     		pop	{r4, pc}
 425              	.LBE25:
 426              		.cfi_endproc
 427              	.LFE125:
 428              		.size	adcStopConversionI, .-adcStopConversionI
 429 002e 00BF     		.section	.text.adcConvert,"ax",%progbits
 430              		.align	2
 431              		.p2align 4,,15
 432              		.global	adcConvert
 433              		.thumb
 434              		.thumb_func
 435              		.type	adcConvert, %function
 436              	adcConvert:
 437              	.LFB126:
 438              		.loc 1 289 0
 439              		.cfi_startproc
 440              		@ args = 0, pretend = 0, frame = 0
 441              		@ frame_needed = 0, uses_anonymous_args = 0
 442              	.LVL37:
ARM GAS  /var/folders/ng/s8655sgx1ys_4lf9jzm2w6n00000gn/T//cciXXOfZ.s 			page 9


 443 0000 70B5     		push	{r4, r5, r6, lr}
 444              	.LCFI6:
 445              		.cfi_def_cfa_offset 16
 446              		.cfi_offset 4, -16
 447              		.cfi_offset 5, -12
 448              		.cfi_offset 6, -8
 449              		.cfi_offset 14, -4
 450              		.loc 1 289 0
 451 0002 1E46     		mov	r6, r3
 452 0004 0446     		mov	r4, r0
 453              	.LBB26:
 454              		.loc 1 292 0
 455 0006 2023     		movs	r3, #32
 456              	.LVL38:
 457              	@ 292 "../AithonLibrary/ChibiOS/os/hal/src/adc.c" 1
 458 0008 83F31188 		msr     BASEPRI, r3
 459              	@ 0 "" 2
 460              	.LVL39:
 461              		.thumb
 462              	.LBE26:
 463              		.loc 1 295 0
 464 000c 40F20005 		movw	r5, #:lower16:rlist
 465              	.LBB27:
 466              	.LBB28:
 467              		.loc 1 204 0
 468 0010 0323     		movs	r3, #3
 469              	.LVL40:
 470              	.LBE28:
 471              	.LBE27:
 472              		.loc 1 295 0
 473 0012 C0F20005 		movt	r5, #:upper16:rlist
 474              	.LBB30:
 475              	.LBB29:
 476              		.loc 1 201 0
 477 0016 8260     		str	r2, [r0, #8]
 478              		.loc 1 204 0
 479 0018 0370     		strb	r3, [r0, #0]
 480              		.loc 1 202 0
 481 001a C660     		str	r6, [r0, #12]
 482              		.loc 1 203 0
 483 001c 0161     		str	r1, [r0, #16]
 484              		.loc 1 205 0
 485 001e FFF7FEFF 		bl	adc_lld_start_conversion
 486              	.LVL41:
 487              	.LBE29:
 488              	.LBE30:
 489              		.loc 1 295 0
 490 0022 A969     		ldr	r1, [r5, #24]
 491              		.loc 1 296 0
 492 0024 0220     		movs	r0, #2
 493              		.loc 1 295 0
 494 0026 6161     		str	r1, [r4, #20]
 495              		.loc 1 296 0
 496 0028 FFF7FEFF 		bl	chSchGoSleepS
 497              	.LVL42:
 498              		.loc 1 297 0
 499 002c AA69     		ldr	r2, [r5, #24]
ARM GAS  /var/folders/ng/s8655sgx1ys_4lf9jzm2w6n00000gn/T//cciXXOfZ.s 			page 10


 500              	.LBB31:
 501              		.loc 1 298 0
 502 002e 0023     		movs	r3, #0
 503              	.LVL43:
 504              	.LBE31:
 505              		.loc 1 297 0
 506 0030 506A     		ldr	r0, [r2, #36]
 507              	.LVL44:
 508              	.LBB32:
 509              		.loc 1 298 0
 510              	@ 298 "../AithonLibrary/ChibiOS/os/hal/src/adc.c" 1
 511 0032 83F31188 		msr     BASEPRI, r3
 512              	@ 0 "" 2
 513              	.LVL45:
 514              		.thumb
 515              	.LBE32:
 516              		.loc 1 300 0
 517 0036 70BD     		pop	{r4, r5, r6, pc}
 518              		.cfi_endproc
 519              	.LFE126:
 520              		.size	adcConvert, .-adcConvert
 521 0038 AFF30080 		.text
 521      AFF30080 
 522              	.Letext0:
 523              		.file 2 "/Users/jseng/gccarm/bin/../lib/gcc/arm-none-eabi/4.7.4/include/stddef.h"
 524              		.file 3 "/Users/jseng/gccarm/bin/../lib/gcc/arm-none-eabi/4.7.4/../../../../arm-none-eabi/include/
 525              		.file 4 "../AithonLibrary/ChibiOS/os/ports/GCC/ARMCMx/chtypes.h"
 526              		.file 5 "../AithonLibrary/ChibiOS/os/kernel/include/chlists.h"
 527              		.file 6 "../AithonLibrary/ChibiOS/os/kernel/include/chthreads.h"
 528              		.file 7 "../AithonLibrary/ChibiOS/os/ports/GCC/ARMCMx/chcore_v7m.h"
 529              		.file 8 "../AithonLibrary/ChibiOS/os/kernel/include/chschd.h"
 530              		.file 9 "../AithonLibrary/ChibiOS/os/kernel/include/chmtx.h"
 531              		.file 10 "../AithonLibrary/ChibiOS/os/hal/platforms/STM32F4xx/stm32f4xx.h"
 532              		.file 11 "../AithonLibrary/ChibiOS/os/hal/platforms/STM32F4xx/stm32_dma.h"
 533              		.file 12 "../AithonLibrary/ChibiOS/os/hal/include/adc.h"
 534              		.file 13 "../AithonLibrary/ChibiOS/os/hal/platforms/STM32F4xx/adc_lld.h"
 535              		.file 14 "../AithonLibrary/ChibiOS/os/ports/common/ARMCMx/CMSIS/include/core_cm4.h"