ARM GAS  /var/folders/ng/s8655sgx1ys_4lf9jzm2w6n00000gn/T//ccMebcKK.s 			page 1


   1              		.syntax unified
   2              		.cpu cortex-m4
   3              		.eabi_attribute 27, 3
   4              		.fpu fpv4-sp-d16
   5              		.eabi_attribute 20, 1
   6              		.eabi_attribute 21, 1
   7              		.eabi_attribute 23, 3
   8              		.eabi_attribute 24, 1
   9              		.eabi_attribute 25, 1
  10              		.eabi_attribute 26, 1
  11              		.eabi_attribute 30, 2
  12              		.eabi_attribute 34, 1
  13              		.eabi_attribute 18, 4
  14              		.thumb
  15              		.file	"adc_lld.c"
  16              		.text
  17              	.Ltext0:
  18              		.cfi_sections	.debug_frame
  19              		.section	.text.adc_lld_init,"ax",%progbits
  20              		.align	2
  21              		.p2align 4,,15
  22              		.global	adc_lld_init
  23              		.thumb
  24              		.thumb_func
  25              		.type	adc_lld_init, %function
  26              	adc_lld_init:
  27              	.LFB120:
  28              		.file 1 "../AithonLibrary/ChibiOS/os/hal/platforms/STM32F4xx/adc_lld.c"
  29              		.loc 1 171 0
  30              		.cfi_startproc
  31              		@ args = 0, pretend = 0, frame = 0
  32              		@ frame_needed = 0, uses_anonymous_args = 0
  33 0000 F8B5     		push	{r3, r4, r5, r6, r7, lr}
  34              	.LCFI0:
  35              		.cfi_def_cfa_offset 24
  36              		.cfi_offset 3, -24
  37              		.cfi_offset 4, -20
  38              		.cfi_offset 5, -16
  39              		.cfi_offset 6, -12
  40              		.cfi_offset 7, -8
  41              		.cfi_offset 14, -4
  42              		.loc 1 175 0
  43 0002 40F20006 		movw	r6, #:lower16:.LANCHOR0
  44 0006 C0F20006 		movt	r6, #:upper16:.LANCHOR0
  45 000a 3046     		mov	r0, r6
  46              		.loc 1 188 0
  47 000c 40F20005 		movw	r5, #:lower16:.LANCHOR1
  48              		.loc 1 175 0
  49 0010 FFF7FEFF 		bl	adcObjectInit
  50              	.LVL0:
  51              		.loc 1 188 0
  52 0014 C0F20005 		movt	r5, #:upper16:.LANCHOR1
  53              		.loc 1 177 0
  54 0018 1A4F     		ldr	r7, .L2
  55              		.loc 1 176 0
  56 001a 4FF40052 		mov	r2, #8192
  57              		.loc 1 178 0
ARM GAS  /var/folders/ng/s8655sgx1ys_4lf9jzm2w6n00000gn/T//ccMebcKK.s 			page 2


  58 001e 42F61643 		movw	r3, #11286
  59              		.loc 1 176 0
  60 0022 C4F20102 		movt	r2, 16385
  61              		.loc 1 178 0
  62 0026 C0F20203 		movt	r3, 2
  63              		.loc 1 188 0
  64 002a 2846     		mov	r0, r5
  65              		.loc 1 201 0
  66 002c 40F20004 		movw	r4, #:lower16:.LANCHOR2
  67 0030 C0F20004 		movt	r4, #:upper16:.LANCHOR2
  68              		.loc 1 176 0
  69 0034 B261     		str	r2, [r6, #24]
  70              		.loc 1 177 0
  71 0036 F761     		str	r7, [r6, #28]
  72              		.loc 1 178 0
  73 0038 3362     		str	r3, [r6, #32]
  74              		.loc 1 188 0
  75 003a FFF7FEFF 		bl	adcObjectInit
  76              	.LVL1:
  77              		.loc 1 189 0
  78 003e 4FF40452 		mov	r2, #8448
  79              		.loc 1 191 0
  80 0042 42F61643 		movw	r3, #11286
  81              		.loc 1 190 0
  82 0046 A7F11801 		sub	r1, r7, #24
  83              		.loc 1 189 0
  84 004a C4F20102 		movt	r2, 16385
  85              		.loc 1 191 0
  86 004e C0F20223 		movt	r3, 514
  87              		.loc 1 201 0
  88 0052 2046     		mov	r0, r4
  89              		.loc 1 189 0
  90 0054 AA61     		str	r2, [r5, #24]
  91              		.loc 1 190 0
  92 0056 E961     		str	r1, [r5, #28]
  93              		.loc 1 191 0
  94 0058 2B62     		str	r3, [r5, #32]
  95              		.loc 1 201 0
  96 005a FFF7FEFF 		bl	adcObjectInit
  97              	.LVL2:
  98              		.loc 1 202 0
  99 005e 4FF40852 		mov	r2, #8704
 100              		.loc 1 204 0
 101 0062 42F61643 		movw	r3, #11286
 102              		.loc 1 202 0
 103 0066 C4F20102 		movt	r2, 16385
 104              		.loc 1 203 0
 105 006a 243F     		subs	r7, r7, #36
 106              		.loc 1 204 0
 107 006c C0F20243 		movt	r3, 1026
 108              		.loc 1 214 0
 109 0070 1220     		movs	r0, #18
 110 0072 6021     		movs	r1, #96
 111              		.loc 1 202 0
 112 0074 A261     		str	r2, [r4, #24]
 113              		.loc 1 203 0
 114 0076 E761     		str	r7, [r4, #28]
ARM GAS  /var/folders/ng/s8655sgx1ys_4lf9jzm2w6n00000gn/T//ccMebcKK.s 			page 3


 115              		.loc 1 204 0
 116 0078 2362     		str	r3, [r4, #32]
 117              		.loc 1 215 0
 118 007a BDE8F840 		pop	{r3, r4, r5, r6, r7, lr}
 119              		.loc 1 214 0
 120 007e FFF7FEBF 		b	nvicEnableVector
 121              	.LVL3:
 122              	.L3:
 123 0082 00BF     		.align	2
 124              	.L2:
 125 0084 90000000 		.word	_stm32_dma_streams+144
 126              		.cfi_endproc
 127              	.LFE120:
 128              		.size	adc_lld_init, .-adc_lld_init
 129 0088 AFF30080 		.section	.text.adc_lld_start,"ax",%progbits
 129      AFF30080 
 130              		.align	2
 131              		.p2align 4,,15
 132              		.global	adc_lld_start
 133              		.thumb
 134              		.thumb_func
 135              		.type	adc_lld_start, %function
 136              	adc_lld_start:
 137              	.LFB121:
 138              		.loc 1 224 0
 139              		.cfi_startproc
 140              		@ args = 0, pretend = 0, frame = 0
 141              		@ frame_needed = 0, uses_anonymous_args = 0
 142              	.LVL4:
 143              		.loc 1 227 0
 144 0000 0378     		ldrb	r3, [r0, #0]	@ zero_extendqisi2
 145 0002 012B     		cmp	r3, #1
 146              		.loc 1 224 0
 147 0004 10B5     		push	{r4, lr}
 148              	.LCFI1:
 149              		.cfi_def_cfa_offset 8
 150              		.cfi_offset 4, -8
 151              		.cfi_offset 14, -4
 152              		.loc 1 224 0
 153 0006 0446     		mov	r4, r0
 154              		.loc 1 227 0
 155 0008 00D0     		beq	.L10
 156 000a 10BD     		pop	{r4, pc}
 157              	.L10:
 158              		.loc 1 229 0
 159 000c 2D48     		ldr	r0, .L14
 160              	.LVL5:
 161 000e 8442     		cmp	r4, r0
 162 0010 16D0     		beq	.L11
 163              		.loc 1 242 0
 164 0012 2D49     		ldr	r1, .L14+4
 165 0014 8C42     		cmp	r4, r1
 166 0016 29D0     		beq	.L12
 167              		.loc 1 255 0
 168 0018 2C4A     		ldr	r2, .L14+8
 169 001a 9442     		cmp	r4, r2
 170 001c 3CD0     		beq	.L13
ARM GAS  /var/folders/ng/s8655sgx1ys_4lf9jzm2w6n00000gn/T//ccMebcKK.s 			page 4


 171              	.L7:
 172              		.loc 1 269 0
 173 001e 4FF40C52 		mov	r2, #8960
 174 0022 C4F20102 		movt	r2, 16385
 175              		.loc 1 274 0
 176 0026 A369     		ldr	r3, [r4, #24]
 177              		.loc 1 269 0
 178 0028 5168     		ldr	r1, [r2, #4]
 179 002a 01F44000 		and	r0, r1, #12582912
 180 002e 40F48030 		orr	r0, r0, #65536
 181 0032 5060     		str	r0, [r2, #4]
 182              		.loc 1 274 0
 183 0034 0021     		movs	r1, #0
 184              		.loc 1 276 0
 185 0036 0122     		movs	r2, #1
 186              		.loc 1 274 0
 187 0038 5960     		str	r1, [r3, #4]
 188              		.loc 1 275 0
 189 003a 9960     		str	r1, [r3, #8]
 190              		.loc 1 276 0
 191 003c 9A60     		str	r2, [r3, #8]
 192 003e 10BD     		pop	{r4, pc}
 193              	.L11:
 194              	.LBB2:
 195              		.loc 1 231 0
 196 0040 234A     		ldr	r2, .L14+12
 197 0042 E069     		ldr	r0, [r4, #28]
 198 0044 0621     		movs	r1, #6
 199 0046 2346     		mov	r3, r4
 200 0048 FFF7FEFF 		bl	dmaStreamAllocate
 201              	.LVL6:
 202              		.loc 1 236 0
 203 004c E069     		ldr	r0, [r4, #28]
 204 004e 42F24C02 		movw	r2, #8268
 205 0052 0168     		ldr	r1, [r0, #0]
 206              		.loc 1 237 0
 207 0054 4FF46053 		mov	r3, #14336
 208 0058 C4F20203 		movt	r3, 16386
 209              		.loc 1 236 0
 210 005c C4F20102 		movt	r2, 16385
 211 0060 8A60     		str	r2, [r1, #8]
 212              		.loc 1 237 0
 213 0062 586C     		ldr	r0, [r3, #68]
 214 0064 40F48072 		orr	r2, r0, #256
 215 0068 5A64     		str	r2, [r3, #68]
 216 006a D8E7     		b	.L7
 217              	.L12:
 218              	.LBE2:
 219              	.LBB3:
 220              		.loc 1 244 0
 221 006c 184A     		ldr	r2, .L14+12
 222 006e E069     		ldr	r0, [r4, #28]
 223 0070 0621     		movs	r1, #6
 224 0072 2346     		mov	r3, r4
 225 0074 FFF7FEFF 		bl	dmaStreamAllocate
 226              	.LVL7:
 227              		.loc 1 249 0
ARM GAS  /var/folders/ng/s8655sgx1ys_4lf9jzm2w6n00000gn/T//ccMebcKK.s 			page 5


 228 0078 E169     		ldr	r1, [r4, #28]
 229 007a 42F24C12 		movw	r2, #8524
 230 007e 0868     		ldr	r0, [r1, #0]
 231              		.loc 1 250 0
 232 0080 4FF46053 		mov	r3, #14336
 233 0084 C4F20203 		movt	r3, 16386
 234              		.loc 1 249 0
 235 0088 C4F20102 		movt	r2, 16385
 236 008c 8260     		str	r2, [r0, #8]
 237              		.loc 1 250 0
 238 008e 596C     		ldr	r1, [r3, #68]
 239 0090 41F40072 		orr	r2, r1, #512
 240 0094 5A64     		str	r2, [r3, #68]
 241 0096 C2E7     		b	.L7
 242              	.L13:
 243              	.LBE3:
 244              	.LBB4:
 245              		.loc 1 257 0
 246 0098 0D4A     		ldr	r2, .L14+12
 247 009a E069     		ldr	r0, [r4, #28]
 248 009c 0621     		movs	r1, #6
 249 009e 2346     		mov	r3, r4
 250 00a0 FFF7FEFF 		bl	dmaStreamAllocate
 251              	.LVL8:
 252              		.loc 1 262 0
 253 00a4 E369     		ldr	r3, [r4, #28]
 254 00a6 42F24C20 		movw	r0, #8780
 255 00aa 1968     		ldr	r1, [r3, #0]
 256              		.loc 1 263 0
 257 00ac 4FF46053 		mov	r3, #14336
 258 00b0 C4F20203 		movt	r3, 16386
 259              		.loc 1 262 0
 260 00b4 C4F20100 		movt	r0, 16385
 261 00b8 8860     		str	r0, [r1, #8]
 262              		.loc 1 263 0
 263 00ba 5A6C     		ldr	r2, [r3, #68]
 264 00bc 42F48060 		orr	r0, r2, #1024
 265 00c0 5864     		str	r0, [r3, #68]
 266 00c2 ACE7     		b	.L7
 267              	.L15:
 268              		.align	2
 269              	.L14:
 270 00c4 00000000 		.word	.LANCHOR0
 271 00c8 00000000 		.word	.LANCHOR1
 272 00cc 00000000 		.word	.LANCHOR2
 273 00d0 00000000 		.word	adc_lld_serve_rx_interrupt
 274              	.LBE4:
 275              		.cfi_endproc
 276              	.LFE121:
 277              		.size	adc_lld_start, .-adc_lld_start
 278 00d4 AFF30080 		.section	.text.adc_lld_stop,"ax",%progbits
 278      AFF30080 
 278      AFF30080 
 279              		.align	2
 280              		.p2align 4,,15
 281              		.global	adc_lld_stop
 282              		.thumb
ARM GAS  /var/folders/ng/s8655sgx1ys_4lf9jzm2w6n00000gn/T//ccMebcKK.s 			page 6


 283              		.thumb_func
 284              		.type	adc_lld_stop, %function
 285              	adc_lld_stop:
 286              	.LFB122:
 287              		.loc 1 287 0
 288              		.cfi_startproc
 289              		@ args = 0, pretend = 0, frame = 0
 290              		@ frame_needed = 0, uses_anonymous_args = 0
 291              	.LVL9:
 292              		.loc 1 290 0
 293 0000 0378     		ldrb	r3, [r0, #0]	@ zero_extendqisi2
 294 0002 022B     		cmp	r3, #2
 295              		.loc 1 287 0
 296 0004 10B5     		push	{r4, lr}
 297              	.LCFI2:
 298              		.cfi_def_cfa_offset 8
 299              		.cfi_offset 4, -8
 300              		.cfi_offset 14, -4
 301              		.loc 1 287 0
 302 0006 0446     		mov	r4, r0
 303              		.loc 1 290 0
 304 0008 00D0     		beq	.L22
 305              	.LVL10:
 306              	.L16:
 307 000a 10BD     		pop	{r4, pc}
 308              	.LVL11:
 309              	.L22:
 310              		.loc 1 291 0
 311 000c C069     		ldr	r0, [r0, #28]
 312              	.LVL12:
 313 000e FFF7FEFF 		bl	dmaStreamRelease
 314              	.LVL13:
 315              		.loc 1 296 0
 316 0012 1449     		ldr	r1, .L25
 317              		.loc 1 292 0
 318 0014 A069     		ldr	r0, [r4, #24]
 319 0016 0022     		movs	r2, #0
 320              		.loc 1 296 0
 321 0018 8C42     		cmp	r4, r1
 322              		.loc 1 292 0
 323 001a 4260     		str	r2, [r0, #4]
 324              		.loc 1 293 0
 325 001c 8260     		str	r2, [r0, #8]
 326              		.loc 1 296 0
 327 001e 17D0     		beq	.L23
 328              		.loc 1 301 0
 329 0020 114B     		ldr	r3, .L25+4
 330 0022 9C42     		cmp	r4, r3
 331 0024 0BD0     		beq	.L24
 332              		.loc 1 306 0
 333 0026 1148     		ldr	r0, .L25+8
 334 0028 8442     		cmp	r4, r0
 335 002a EED1     		bne	.L16
 336              		.loc 1 307 0
 337 002c 4FF46051 		mov	r1, #14336
 338 0030 C4F20201 		movt	r1, 16386
 339 0034 4A6C     		ldr	r2, [r1, #68]
ARM GAS  /var/folders/ng/s8655sgx1ys_4lf9jzm2w6n00000gn/T//ccMebcKK.s 			page 7


 340 0036 22F48063 		bic	r3, r2, #1024
 341 003a 4B64     		str	r3, [r1, #68]
 342 003c E5E7     		b	.L16
 343              	.L24:
 344              		.loc 1 302 0
 345 003e 4FF46050 		mov	r0, #14336
 346 0042 C4F20200 		movt	r0, 16386
 347 0046 416C     		ldr	r1, [r0, #68]
 348 0048 21F40072 		bic	r2, r1, #512
 349 004c 4264     		str	r2, [r0, #68]
 350 004e 10BD     		pop	{r4, pc}
 351              	.L23:
 352              		.loc 1 297 0
 353 0050 4FF46053 		mov	r3, #14336
 354 0054 C4F20203 		movt	r3, 16386
 355 0058 586C     		ldr	r0, [r3, #68]
 356 005a 20F48071 		bic	r1, r0, #256
 357 005e 5964     		str	r1, [r3, #68]
 358 0060 10BD     		pop	{r4, pc}
 359              	.L26:
 360 0062 00BF     		.align	2
 361              	.L25:
 362 0064 00000000 		.word	.LANCHOR0
 363 0068 00000000 		.word	.LANCHOR1
 364 006c 00000000 		.word	.LANCHOR2
 365              		.cfi_endproc
 366              	.LFE122:
 367              		.size	adc_lld_stop, .-adc_lld_stop
 368              		.section	.text.adc_lld_start_conversion,"ax",%progbits
 369              		.align	2
 370              		.p2align 4,,15
 371              		.global	adc_lld_start_conversion
 372              		.thumb
 373              		.thumb_func
 374              		.type	adc_lld_start_conversion, %function
 375              	adc_lld_start_conversion:
 376              	.LFB123:
 377              		.loc 1 319 0
 378              		.cfi_startproc
 379              		@ args = 0, pretend = 0, frame = 0
 380              		@ frame_needed = 0, uses_anonymous_args = 0
 381              		@ link register save eliminated.
 382              	.LVL14:
 383              		.loc 1 321 0
 384 0000 0369     		ldr	r3, [r0, #16]
 385              	.LVL15:
 386              		.loc 1 324 0
 387 0002 026A     		ldr	r2, [r0, #32]
 388              	.LVL16:
 389              		.loc 1 325 0
 390 0004 1978     		ldrb	r1, [r3, #0]	@ zero_extendqisi2
 391              		.loc 1 319 0
 392 0006 2DE9F003 		push	{r4, r5, r6, r7, r8, r9}
 393              	.LCFI3:
 394              		.cfi_def_cfa_offset 24
 395              		.cfi_offset 4, -24
 396              		.cfi_offset 5, -20
ARM GAS  /var/folders/ng/s8655sgx1ys_4lf9jzm2w6n00000gn/T//ccMebcKK.s 			page 8


 397              		.cfi_offset 6, -16
 398              		.cfi_offset 7, -12
 399              		.cfi_offset 8, -8
 400              		.cfi_offset 9, -4
 401              		.loc 1 327 0
 402 000a C468     		ldr	r4, [r0, #12]
 403              		.loc 1 325 0
 404 000c 29B1     		cbz	r1, .L29
 405              	.LVL17:
 406              		.loc 1 327 0
 407 000e 012C     		cmp	r4, #1
 408              		.loc 1 326 0
 409 0010 94BF     		ite	ls
 410 0012 42F48072 		orrls	r2, r2, #256
 411              	.LVL18:
 412              		.loc 1 330 0
 413 0016 42F48472 		orrhi	r2, r2, #264
 414              	.LVL19:
 415              	.L29:
 416              		.loc 1 333 0
 417 001a C569     		ldr	r5, [r0, #28]
 418              		.loc 1 334 0
 419 001c 5E88     		ldrh	r6, [r3, #2]
 420              		.loc 1 333 0
 421 001e 2968     		ldr	r1, [r5, #0]
 422 0020 8768     		ldr	r7, [r0, #8]
 423              		.loc 1 349 0
 424 0022 D3F80CC0 		ldr	ip, [r3, #12]
 425              		.loc 1 333 0
 426 0026 CF60     		str	r7, [r1, #12]
 427              		.loc 1 334 0
 428 0028 06FB04F4 		mul	r4, r6, r4
 429 002c 4C60     		str	r4, [r1, #4]
 430              		.loc 1 336 0
 431 002e 0A60     		str	r2, [r1, #0]
 432              		.loc 1 337 0
 433 0030 D1F80090 		ldr	r9, [r1, #0]
 434              		.loc 1 341 0
 435 0034 D3F81480 		ldr	r8, [r3, #20]
 436              		.loc 1 342 0
 437 0038 9F69     		ldr	r7, [r3, #24]
 438              		.loc 1 343 0
 439 003a DE69     		ldr	r6, [r3, #28]
 440              		.loc 1 344 0
 441 003c 1D6A     		ldr	r5, [r3, #32]
 442              		.loc 1 345 0
 443 003e 5C6A     		ldr	r4, [r3, #36]
 444              		.loc 1 350 0
 445 0040 1B69     		ldr	r3, [r3, #16]
 446              	.LVL20:
 447              		.loc 1 340 0
 448 0042 8269     		ldr	r2, [r0, #24]
 449              	.LVL21:
 450              		.loc 1 337 0
 451 0044 49F00109 		orr	r9, r9, #1
 452 0048 C1F80090 		str	r9, [r1, #0]
 453              		.loc 1 349 0
ARM GAS  /var/folders/ng/s8655sgx1ys_4lf9jzm2w6n00000gn/T//ccMebcKK.s 			page 9


 454 004c 4CF08060 		orr	r0, ip, #67108864
 455              	.LVL22:
 456              		.loc 1 340 0
 457 0050 0021     		movs	r1, #0
 458              	.LVL23:
 459              		.loc 1 350 0
 460 0052 13F0804F 		tst	r3, #1073741824
 461              		.loc 1 352 0
 462 0056 43F44073 		orr	r3, r3, #768
 463              		.loc 1 349 0
 464 005a 40F48070 		orr	r0, r0, #256
 465              		.loc 1 352 0
 466 005e 14BF     		ite	ne
 467 0060 43F00303 		orrne	r3, r3, #3
 468              		.loc 1 355 0
 469 0064 43F00103 		orreq	r3, r3, #1
 470              		.loc 1 340 0
 471 0068 1160     		str	r1, [r2, #0]
 472              		.loc 1 341 0
 473 006a C2F80C80 		str	r8, [r2, #12]
 474              		.loc 1 342 0
 475 006e 1761     		str	r7, [r2, #16]
 476              		.loc 1 343 0
 477 0070 D662     		str	r6, [r2, #44]
 478              		.loc 1 344 0
 479 0072 1563     		str	r5, [r2, #48]
 480              		.loc 1 345 0
 481 0074 5463     		str	r4, [r2, #52]
 482              		.loc 1 349 0
 483 0076 5060     		str	r0, [r2, #4]
 484              		.loc 1 354 0
 485 0078 9360     		str	r3, [r2, #8]
 486              		.loc 1 356 0
 487 007a BDE8F003 		pop	{r4, r5, r6, r7, r8, r9}
 488 007e 7047     		bx	lr
 489              		.cfi_endproc
 490              	.LFE123:
 491              		.size	adc_lld_start_conversion, .-adc_lld_start_conversion
 492              		.section	.text.adc_lld_stop_conversion,"ax",%progbits
 493              		.align	2
 494              		.p2align 4,,15
 495              		.global	adc_lld_stop_conversion
 496              		.thumb
 497              		.thumb_func
 498              		.type	adc_lld_stop_conversion, %function
 499              	adc_lld_stop_conversion:
 500              	.LFB124:
 501              		.loc 1 365 0
 502              		.cfi_startproc
 503              		@ args = 0, pretend = 0, frame = 0
 504              		@ frame_needed = 0, uses_anonymous_args = 0
 505              		@ link register save eliminated.
 506              	.LVL24:
 507              		.loc 1 367 0
 508 0000 C169     		ldr	r1, [r0, #28]
 509 0002 0A68     		ldr	r2, [r1, #0]
 510 0004 1368     		ldr	r3, [r2, #0]
ARM GAS  /var/folders/ng/s8655sgx1ys_4lf9jzm2w6n00000gn/T//ccMebcKK.s 			page 10


 511              		.loc 1 365 0
 512 0006 10B4     		push	{r4}
 513              	.LCFI4:
 514              		.cfi_def_cfa_offset 4
 515              		.cfi_offset 4, -4
 516              		.loc 1 367 0
 517 0008 23F01F04 		bic	r4, r3, #31
 518 000c 1460     		str	r4, [r2, #0]
 519              	.L34:
 520              		.loc 1 367 0 is_stmt 0 discriminator 1
 521 000e 1368     		ldr	r3, [r2, #0]
 522 0010 13F00103 		ands	r3, r3, #1
 523 0014 FBD1     		bne	.L34
 524              		.loc 1 367 0 discriminator 2
 525 0016 0C7A     		ldrb	r4, [r1, #8]	@ zero_extendqisi2
 526              		.loc 1 368 0 is_stmt 1 discriminator 2
 527 0018 8269     		ldr	r2, [r0, #24]
 528              		.loc 1 367 0 discriminator 2
 529 001a 4968     		ldr	r1, [r1, #4]
 530 001c 3D20     		movs	r0, #61
 531              	.LVL25:
 532 001e 00FA04F0 		lsl	r0, r0, r4
 533 0022 0860     		str	r0, [r1, #0]
 534              		.loc 1 368 0 discriminator 2
 535 0024 5360     		str	r3, [r2, #4]
 536              		.loc 1 369 0 discriminator 2
 537 0026 9360     		str	r3, [r2, #8]
 538              		.loc 1 370 0 discriminator 2
 539 0028 0123     		movs	r3, #1
 540 002a 9360     		str	r3, [r2, #8]
 541              		.loc 1 371 0 discriminator 2
 542 002c 10BC     		pop	{r4}
 543 002e 7047     		bx	lr
 544              		.cfi_endproc
 545              	.LFE124:
 546              		.size	adc_lld_stop_conversion, .-adc_lld_stop_conversion
 547              		.section	.text.adc_lld_serve_rx_interrupt,"ax",%progbits
 548              		.align	2
 549              		.p2align 4,,15
 550              		.thumb
 551              		.thumb_func
 552              		.type	adc_lld_serve_rx_interrupt, %function
 553              	adc_lld_serve_rx_interrupt:
 554              	.LFB118:
 555              		.loc 1 76 0
 556              		.cfi_startproc
 557              		@ args = 0, pretend = 0, frame = 0
 558              		@ frame_needed = 0, uses_anonymous_args = 0
 559              	.LVL26:
 560              		.loc 1 79 0
 561 0000 11F00C0F 		tst	r1, #12
 562              		.loc 1 76 0
 563 0004 38B5     		push	{r3, r4, r5, lr}
 564              	.LCFI5:
 565              		.cfi_def_cfa_offset 16
 566              		.cfi_offset 3, -16
 567              		.cfi_offset 4, -12
ARM GAS  /var/folders/ng/s8655sgx1ys_4lf9jzm2w6n00000gn/T//ccMebcKK.s 			page 11


 568              		.cfi_offset 5, -8
 569              		.cfi_offset 14, -4
 570              		.loc 1 76 0
 571 0006 0446     		mov	r4, r0
 572              		.loc 1 79 0
 573 0008 1DD1     		bne	.L67
 574              		.loc 1 87 0
 575 000a 0369     		ldr	r3, [r0, #16]
 576 000c D3B1     		cbz	r3, .L36
 577              		.loc 1 88 0
 578 000e 8A06     		lsls	r2, r1, #26
 579 0010 10D5     		bpl	.L43
 580              		.loc 1 90 0
 581 0012 1D78     		ldrb	r5, [r3, #0]	@ zero_extendqisi2
 582 0014 002D     		cmp	r5, #0
 583 0016 3BD0     		beq	.L44
 584              		.loc 1 90 0 is_stmt 0 discriminator 1
 585 0018 5D68     		ldr	r5, [r3, #4]
 586 001a 9DB1     		cbz	r5, .L36
 587              		.loc 1 90 0 discriminator 3
 588 001c C268     		ldr	r2, [r0, #12]
 589 001e 012A     		cmp	r2, #1
 590 0020 33D9     		bls	.L45
 591              	.LBB5:
 592              		.loc 1 90 0 discriminator 4
 593 0022 5988     		ldrh	r1, [r3, #2]
 594              	.LVL27:
 595 0024 8368     		ldr	r3, [r0, #8]
 596 0026 5208     		lsrs	r2, r2, #1
 597              	.LVL28:
 598 0028 01FB02F1 		mul	r1, r1, r2
 599 002c 03EB4101 		add	r1, r3, r1, lsl #1
 600 0030 A847     		blx	r5
 601              	.LVL29:
 602 0032 38BD     		pop	{r3, r4, r5, pc}
 603              	.LVL30:
 604              	.L43:
 605              	.LBE5:
 606              		.loc 1 92 0 is_stmt 1
 607 0034 CA06     		lsls	r2, r1, #27
 608 0036 05D5     		bpl	.L36
 609              		.loc 1 94 0
 610 0038 5B68     		ldr	r3, [r3, #4]
 611 003a 1BB1     		cbz	r3, .L36
 612              		.loc 1 94 0 is_stmt 0 discriminator 1
 613 003c C268     		ldr	r2, [r0, #12]
 614 003e 8168     		ldr	r1, [r0, #8]
 615              	.LVL31:
 616 0040 5208     		lsrs	r2, r2, #1
 617 0042 9847     		blx	r3
 618              	.LVL32:
 619              	.L36:
 620 0044 38BD     		pop	{r3, r4, r5, pc}
 621              	.LVL33:
 622              	.L67:
 623              		.loc 1 82 0 is_stmt 1
 624 0046 FFF7FEFF 		bl	adc_lld_stop_conversion
ARM GAS  /var/folders/ng/s8655sgx1ys_4lf9jzm2w6n00000gn/T//ccMebcKK.s 			page 12


 625              	.LVL34:
 626 004a 2069     		ldr	r0, [r4, #16]
 627 004c 8368     		ldr	r3, [r0, #8]
 628 004e 3BB1     		cbz	r3, .L39
 629              		.loc 1 82 0 is_stmt 0 discriminator 1
 630 0050 0522     		movs	r2, #5
 631 0052 0021     		movs	r1, #0
 632 0054 2270     		strb	r2, [r4, #0]
 633 0056 2046     		mov	r0, r4
 634 0058 9847     		blx	r3
 635              	.LVL35:
 636 005a 2178     		ldrb	r1, [r4, #0]	@ zero_extendqisi2
 637 005c 0529     		cmp	r1, #5
 638 005e 11D0     		beq	.L68
 639              	.L39:
 640              		.loc 1 82 0 discriminator 2
 641 0060 0022     		movs	r2, #0
 642 0062 2261     		str	r2, [r4, #16]
 643              	.LBB6:
 644 0064 2023     		movs	r3, #32
 645              	.LVL36:
 646              	@ 82 "../AithonLibrary/ChibiOS/os/hal/platforms/STM32F4xx/adc_lld.c" 1
 647 0066 83F31188 		msr     BASEPRI, r3
 648              	@ 0 "" 2
 649              	.LVL37:
 650              		.thumb
 651              	.LBE6:
 652 006a 6369     		ldr	r3, [r4, #20]
 653              	.LVL38:
 654 006c 33B1     		cbz	r3, .L48
 655              	.LVL39:
 656              	.LBB7:
 657              		.loc 1 82 0 discriminator 4
 658 006e 4FF0FF31 		mov	r1, #-1
 659 0072 6261     		str	r2, [r4, #20]
 660 0074 1846     		mov	r0, r3
 661 0076 5962     		str	r1, [r3, #36]
 662 0078 FFF7FEFF 		bl	chSchReadyI
 663              	.LVL40:
 664              	.L48:
 665              	.LBE7:
 666              	.LBB8:
 667              		.loc 1 90 0 is_stmt 1 discriminator 11
 668 007c 0023     		movs	r3, #0
 669              	.LVL41:
 670              	@ 90 "../AithonLibrary/ChibiOS/os/hal/platforms/STM32F4xx/adc_lld.c" 1
 671 007e 83F31188 		msr     BASEPRI, r3
 672              	@ 0 "" 2
 673              	.LVL42:
 674              		.thumb
 675 0082 38BD     		pop	{r3, r4, r5, pc}
 676              	.LVL43:
 677              	.L68:
 678              	.LBE8:
 679              		.loc 1 82 0 discriminator 3
 680 0084 0220     		movs	r0, #2
 681 0086 2070     		strb	r0, [r4, #0]
ARM GAS  /var/folders/ng/s8655sgx1ys_4lf9jzm2w6n00000gn/T//ccMebcKK.s 			page 13


 682 0088 EAE7     		b	.L39
 683              	.LVL44:
 684              	.L45:
 685              		.loc 1 90 0 discriminator 5
 686 008a 8168     		ldr	r1, [r0, #8]
 687              	.LVL45:
 688 008c A847     		blx	r5
 689              	.LVL46:
 690 008e 38BD     		pop	{r3, r4, r5, pc}
 691              	.LVL47:
 692              	.L44:
 693              		.loc 1 90 0 is_stmt 0 discriminator 2
 694 0090 FFF7FEFF 		bl	adc_lld_stop_conversion
 695              	.LVL48:
 696 0094 2069     		ldr	r0, [r4, #16]
 697 0096 4368     		ldr	r3, [r0, #4]
 698 0098 CBB1     		cbz	r3, .L46
 699              		.loc 1 90 0 discriminator 6
 700 009a 0422     		movs	r2, #4
 701 009c 2270     		strb	r2, [r4, #0]
 702 009e 2046     		mov	r0, r4
 703 00a0 A168     		ldr	r1, [r4, #8]
 704 00a2 E268     		ldr	r2, [r4, #12]
 705 00a4 9847     		blx	r3
 706              	.LVL49:
 707 00a6 2078     		ldrb	r0, [r4, #0]	@ zero_extendqisi2
 708 00a8 0428     		cmp	r0, #4
 709 00aa 0CD0     		beq	.L69
 710              	.L47:
 711              	.LBB9:
 712              		.loc 1 90 0 discriminator 9
 713 00ac 2023     		movs	r3, #32
 714              	@ 90 "../AithonLibrary/ChibiOS/os/hal/platforms/STM32F4xx/adc_lld.c" 1
 715 00ae 83F31188 		msr     BASEPRI, r3
 716              	@ 0 "" 2
 717              	.LVL50:
 718              		.thumb
 719              	.LBE9:
 720 00b2 6169     		ldr	r1, [r4, #20]
 721 00b4 0029     		cmp	r1, #0
 722 00b6 E1D0     		beq	.L48
 723              	.LVL51:
 724              	.LBB10:
 725              		.loc 1 90 0 discriminator 10
 726 00b8 0022     		movs	r2, #0
 727 00ba 6261     		str	r2, [r4, #20]
 728 00bc 0846     		mov	r0, r1
 729 00be 4A62     		str	r2, [r1, #36]
 730 00c0 FFF7FEFF 		bl	chSchReadyI
 731              	.LVL52:
 732 00c4 DAE7     		b	.L48
 733              	.L69:
 734              	.LBE10:
 735              		.loc 1 90 0 discriminator 8
 736 00c6 0223     		movs	r3, #2
 737 00c8 2370     		strb	r3, [r4, #0]
 738 00ca 2561     		str	r5, [r4, #16]
ARM GAS  /var/folders/ng/s8655sgx1ys_4lf9jzm2w6n00000gn/T//ccMebcKK.s 			page 14


 739 00cc EEE7     		b	.L47
 740              	.L46:
 741              		.loc 1 90 0 discriminator 7
 742 00ce 0221     		movs	r1, #2
 743 00d0 2170     		strb	r1, [r4, #0]
 744 00d2 2361     		str	r3, [r4, #16]
 745 00d4 EAE7     		b	.L47
 746              		.cfi_endproc
 747              	.LFE118:
 748              		.size	adc_lld_serve_rx_interrupt, .-adc_lld_serve_rx_interrupt
 749 00d6 00BFAFF3 		.section	.text.Vector88,"ax",%progbits
 749      0080AFF3 
 749      0080
 750              		.align	2
 751              		.p2align 4,,15
 752              		.global	Vector88
 753              		.thumb
 754              		.thumb_func
 755              		.type	Vector88, %function
 756              	Vector88:
 757              	.LFB119:
 758              		.loc 1 111 0 is_stmt 1
 759              		.cfi_startproc
 760              		@ args = 0, pretend = 0, frame = 0
 761              		@ frame_needed = 0, uses_anonymous_args = 0
 762              		.loc 1 117 0
 763 0000 4FF40053 		mov	r3, #8192
 764 0004 C4F20103 		movt	r3, 16385
 765              		.loc 1 118 0
 766 0008 0021     		movs	r1, #0
 767              		.loc 1 117 0
 768 000a 1A68     		ldr	r2, [r3, #0]
 769              	.LVL53:
 770              		.loc 1 111 0
 771 000c 10B5     		push	{r4, lr}
 772              	.LCFI6:
 773              		.cfi_def_cfa_offset 8
 774              		.cfi_offset 4, -8
 775              		.cfi_offset 14, -4
 776              		.loc 1 118 0
 777 000e 1960     		str	r1, [r3, #0]
 778              		.loc 1 121 0
 779 0010 9306     		lsls	r3, r2, #26
 780 0012 05D5     		bpl	.L71
 781              		.loc 1 121 0 is_stmt 0 discriminator 1
 782 0014 4B4C     		ldr	r4, .L127
 783 0016 E069     		ldr	r0, [r4, #28]
 784 0018 0368     		ldr	r3, [r0, #0]
 785 001a 5A68     		ldr	r2, [r3, #4]
 786              	.LVL54:
 787 001c 002A     		cmp	r2, #0
 788 001e 64D1     		bne	.L122
 789              	.LVL55:
 790              	.L71:
 791              		.loc 1 131 0 is_stmt 1
 792 0020 4FF40450 		mov	r0, #8448
 793 0024 C4F20100 		movt	r0, 16385
ARM GAS  /var/folders/ng/s8655sgx1ys_4lf9jzm2w6n00000gn/T//ccMebcKK.s 			page 15


 794              		.loc 1 132 0
 795 0028 0023     		movs	r3, #0
 796              	.LVL56:
 797              		.loc 1 131 0
 798 002a 0268     		ldr	r2, [r0, #0]
 799              	.LVL57:
 800              		.loc 1 132 0
 801 002c 0360     		str	r3, [r0, #0]
 802              		.loc 1 135 0
 803 002e 9006     		lsls	r0, r2, #26
 804 0030 05D5     		bpl	.L76
 805              		.loc 1 135 0 is_stmt 0 discriminator 1
 806 0032 454C     		ldr	r4, .L127+4
 807 0034 E169     		ldr	r1, [r4, #28]
 808 0036 0868     		ldr	r0, [r1, #0]
 809 0038 4268     		ldr	r2, [r0, #4]
 810              	.LVL58:
 811 003a 002A     		cmp	r2, #0
 812 003c 32D1     		bne	.L123
 813              	.LVL59:
 814              	.L76:
 815              		.loc 1 145 0 is_stmt 1
 816 003e 4FF40850 		mov	r0, #8704
 817 0042 C4F20100 		movt	r0, 16385
 818              		.loc 1 146 0
 819 0046 0023     		movs	r3, #0
 820              	.LVL60:
 821              		.loc 1 145 0
 822 0048 0268     		ldr	r2, [r0, #0]
 823              	.LVL61:
 824              		.loc 1 146 0
 825 004a 0360     		str	r3, [r0, #0]
 826              		.loc 1 149 0
 827 004c 9106     		lsls	r1, r2, #26
 828 004e 25D5     		bpl	.L81
 829              		.loc 1 149 0 is_stmt 0 discriminator 1
 830 0050 3E4C     		ldr	r4, .L127+8
 831 0052 E169     		ldr	r1, [r4, #28]
 832 0054 0868     		ldr	r0, [r1, #0]
 833 0056 4268     		ldr	r2, [r0, #4]
 834              	.LVL62:
 835 0058 02B3     		cbz	r2, .L81
 836              		.loc 1 152 0 is_stmt 1
 837 005a 2369     		ldr	r3, [r4, #16]
 838 005c F3B1     		cbz	r3, .L81
 839              		.loc 1 153 0
 840 005e 2046     		mov	r0, r4
 841 0060 FFF7FEFF 		bl	adc_lld_stop_conversion
 842              	.LVL63:
 843 0064 2169     		ldr	r1, [r4, #16]
 844 0066 8B68     		ldr	r3, [r1, #8]
 845 0068 3BB1     		cbz	r3, .L83
 846              		.loc 1 153 0 is_stmt 0 discriminator 1
 847 006a 0520     		movs	r0, #5
 848 006c 2070     		strb	r0, [r4, #0]
 849 006e 0121     		movs	r1, #1
 850 0070 2046     		mov	r0, r4
ARM GAS  /var/folders/ng/s8655sgx1ys_4lf9jzm2w6n00000gn/T//ccMebcKK.s 			page 16


 851 0072 9847     		blx	r3
 852              	.LVL64:
 853 0074 2278     		ldrb	r2, [r4, #0]	@ zero_extendqisi2
 854 0076 052A     		cmp	r2, #5
 855 0078 5AD0     		beq	.L124
 856              	.L83:
 857              		.loc 1 153 0 discriminator 2
 858 007a 0022     		movs	r2, #0
 859 007c 2261     		str	r2, [r4, #16]
 860              	.LBB11:
 861 007e 2023     		movs	r3, #32
 862              	.LVL65:
 863              	@ 153 "../AithonLibrary/ChibiOS/os/hal/platforms/STM32F4xx/adc_lld.c" 1
 864 0080 83F31188 		msr     BASEPRI, r3
 865              	@ 0 "" 2
 866              	.LVL66:
 867              		.thumb
 868              	.LBE11:
 869 0084 6069     		ldr	r0, [r4, #20]
 870 0086 30B1     		cbz	r0, .L85
 871              	.LVL67:
 872              	.LBB12:
 873              		.loc 1 153 0 discriminator 4
 874 0088 4FF0FF33 		mov	r3, #-1
 875              	.LVL68:
 876 008c 2F49     		ldr	r1, .L127+8
 877 008e 4362     		str	r3, [r0, #36]
 878 0090 4A61     		str	r2, [r1, #20]
 879 0092 FFF7FEFF 		bl	chSchReadyI
 880              	.LVL69:
 881              	.L85:
 882              	.LBE12:
 883              	.LBB13:
 884              		.loc 1 153 0 discriminator 5
 885 0096 0023     		movs	r3, #0
 886              	.LVL70:
 887              	@ 153 "../AithonLibrary/ChibiOS/os/hal/platforms/STM32F4xx/adc_lld.c" 1
 888 0098 83F31188 		msr     BASEPRI, r3
 889              	@ 0 "" 2
 890              	.LVL71:
 891              		.thumb
 892              	.L81:
 893              	.LBE13:
 894              		.loc 1 159 0 is_stmt 1
 895 009c BDE81040 		pop	{r4, lr}
 896              		.loc 1 158 0
 897 00a0 FFF7FEBF 		b	_port_irq_epilogue
 898              	.LVL72:
 899              	.L123:
 900              		.loc 1 138 0
 901 00a4 2369     		ldr	r3, [r4, #16]
 902 00a6 002B     		cmp	r3, #0
 903 00a8 C9D0     		beq	.L76
 904              		.loc 1 139 0
 905 00aa 2046     		mov	r0, r4
 906 00ac FFF7FEFF 		bl	adc_lld_stop_conversion
 907              	.LVL73:
ARM GAS  /var/folders/ng/s8655sgx1ys_4lf9jzm2w6n00000gn/T//ccMebcKK.s 			page 17


 908 00b0 2169     		ldr	r1, [r4, #16]
 909 00b2 8B68     		ldr	r3, [r1, #8]
 910 00b4 3BB1     		cbz	r3, .L78
 911              		.loc 1 139 0 is_stmt 0 discriminator 1
 912 00b6 0520     		movs	r0, #5
 913 00b8 2070     		strb	r0, [r4, #0]
 914 00ba 0121     		movs	r1, #1
 915 00bc 2046     		mov	r0, r4
 916 00be 9847     		blx	r3
 917              	.LVL74:
 918 00c0 2278     		ldrb	r2, [r4, #0]	@ zero_extendqisi2
 919 00c2 052A     		cmp	r2, #5
 920 00c4 3AD0     		beq	.L125
 921              	.L78:
 922              		.loc 1 139 0 discriminator 2
 923 00c6 0022     		movs	r2, #0
 924 00c8 2261     		str	r2, [r4, #16]
 925              	.LBB14:
 926 00ca 2023     		movs	r3, #32
 927              	.LVL75:
 928              	@ 139 "../AithonLibrary/ChibiOS/os/hal/platforms/STM32F4xx/adc_lld.c" 1
 929 00cc 83F31188 		msr     BASEPRI, r3
 930              	@ 0 "" 2
 931              	.LVL76:
 932              		.thumb
 933              	.LBE14:
 934 00d0 6069     		ldr	r0, [r4, #20]
 935 00d2 30B1     		cbz	r0, .L80
 936              	.LVL77:
 937              	.LBB15:
 938              		.loc 1 139 0 discriminator 4
 939 00d4 4FF0FF33 		mov	r3, #-1
 940              	.LVL78:
 941 00d8 1B49     		ldr	r1, .L127+4
 942 00da 4362     		str	r3, [r0, #36]
 943 00dc 4A61     		str	r2, [r1, #20]
 944 00de FFF7FEFF 		bl	chSchReadyI
 945              	.LVL79:
 946              	.L80:
 947              	.LBE15:
 948              	.LBB16:
 949              		.loc 1 139 0 discriminator 5
 950 00e2 0023     		movs	r3, #0
 951              	.LVL80:
 952              	@ 139 "../AithonLibrary/ChibiOS/os/hal/platforms/STM32F4xx/adc_lld.c" 1
 953 00e4 83F31188 		msr     BASEPRI, r3
 954              	@ 0 "" 2
 955              	.LVL81:
 956              		.thumb
 957 00e8 A9E7     		b	.L76
 958              	.LVL82:
 959              	.L122:
 960              	.LBE16:
 961              		.loc 1 124 0 is_stmt 1
 962 00ea 2169     		ldr	r1, [r4, #16]
 963 00ec 0029     		cmp	r1, #0
 964 00ee 97D0     		beq	.L71
ARM GAS  /var/folders/ng/s8655sgx1ys_4lf9jzm2w6n00000gn/T//ccMebcKK.s 			page 18


 965              		.loc 1 125 0
 966 00f0 2046     		mov	r0, r4
 967 00f2 FFF7FEFF 		bl	adc_lld_stop_conversion
 968              	.LVL83:
 969 00f6 2069     		ldr	r0, [r4, #16]
 970 00f8 8368     		ldr	r3, [r0, #8]
 971 00fa 3BB1     		cbz	r3, .L73
 972              		.loc 1 125 0 is_stmt 0 discriminator 1
 973 00fc 0522     		movs	r2, #5
 974 00fe 0121     		movs	r1, #1
 975 0100 2270     		strb	r2, [r4, #0]
 976 0102 2046     		mov	r0, r4
 977 0104 9847     		blx	r3
 978              	.LVL84:
 979 0106 2178     		ldrb	r1, [r4, #0]	@ zero_extendqisi2
 980 0108 0529     		cmp	r1, #5
 981 010a 14D0     		beq	.L126
 982              	.L73:
 983              		.loc 1 125 0 discriminator 2
 984 010c 0022     		movs	r2, #0
 985 010e 2261     		str	r2, [r4, #16]
 986              	.LBB17:
 987 0110 2023     		movs	r3, #32
 988              	.LVL85:
 989              	@ 125 "../AithonLibrary/ChibiOS/os/hal/platforms/STM32F4xx/adc_lld.c" 1
 990 0112 83F31188 		msr     BASEPRI, r3
 991              	@ 0 "" 2
 992              	.LVL86:
 993              		.thumb
 994              	.LBE17:
 995 0116 6069     		ldr	r0, [r4, #20]
 996 0118 30B1     		cbz	r0, .L75
 997              	.LVL87:
 998              	.LBB18:
 999              		.loc 1 125 0 discriminator 4
 1000 011a 4FF0FF33 		mov	r3, #-1
 1001              	.LVL88:
 1002 011e 0949     		ldr	r1, .L127
 1003 0120 4362     		str	r3, [r0, #36]
 1004 0122 4A61     		str	r2, [r1, #20]
 1005 0124 FFF7FEFF 		bl	chSchReadyI
 1006              	.LVL89:
 1007              	.L75:
 1008              	.LBE18:
 1009              	.LBB19:
 1010              		.loc 1 125 0 discriminator 5
 1011 0128 0023     		movs	r3, #0
 1012              	.LVL90:
 1013              	@ 125 "../AithonLibrary/ChibiOS/os/hal/platforms/STM32F4xx/adc_lld.c" 1
 1014 012a 83F31188 		msr     BASEPRI, r3
 1015              	@ 0 "" 2
 1016              	.LVL91:
 1017              		.thumb
 1018 012e 77E7     		b	.L71
 1019              	.LVL92:
 1020              	.L124:
 1021              	.LBE19:
ARM GAS  /var/folders/ng/s8655sgx1ys_4lf9jzm2w6n00000gn/T//ccMebcKK.s 			page 19


 1022              		.loc 1 153 0 is_stmt 1 discriminator 3
 1023 0130 0221     		movs	r1, #2
 1024 0132 2170     		strb	r1, [r4, #0]
 1025 0134 A1E7     		b	.L83
 1026              	.L126:
 1027              		.loc 1 125 0 discriminator 3
 1028 0136 0220     		movs	r0, #2
 1029 0138 2070     		strb	r0, [r4, #0]
 1030 013a E7E7     		b	.L73
 1031              	.L125:
 1032              		.loc 1 139 0 discriminator 3
 1033 013c 0221     		movs	r1, #2
 1034 013e 2170     		strb	r1, [r4, #0]
 1035 0140 C1E7     		b	.L78
 1036              	.L128:
 1037 0142 00BF     		.align	2
 1038              	.L127:
 1039 0144 00000000 		.word	.LANCHOR0
 1040 0148 00000000 		.word	.LANCHOR1
 1041 014c 00000000 		.word	.LANCHOR2
 1042              		.cfi_endproc
 1043              	.LFE119:
 1044              		.size	Vector88, .-Vector88
 1045              		.section	.text.adcSTM32EnableTSVREFE,"ax",%progbits
 1046              		.align	2
 1047              		.p2align 4,,15
 1048              		.global	adcSTM32EnableTSVREFE
 1049              		.thumb
 1050              		.thumb_func
 1051              		.type	adcSTM32EnableTSVREFE, %function
 1052              	adcSTM32EnableTSVREFE:
 1053              	.LFB125:
 1054              		.loc 1 379 0
 1055              		.cfi_startproc
 1056              		@ args = 0, pretend = 0, frame = 0
 1057              		@ frame_needed = 0, uses_anonymous_args = 0
 1058              		@ link register save eliminated.
 1059              		.loc 1 381 0
 1060 0000 4FF40C53 		mov	r3, #8960
 1061 0004 C4F20103 		movt	r3, 16385
 1062 0008 5A68     		ldr	r2, [r3, #4]
 1063 000a 42F40000 		orr	r0, r2, #8388608
 1064 000e 5860     		str	r0, [r3, #4]
 1065 0010 7047     		bx	lr
 1066              		.cfi_endproc
 1067              	.LFE125:
 1068              		.size	adcSTM32EnableTSVREFE, .-adcSTM32EnableTSVREFE
 1069 0012 00BFAFF3 		.section	.text.adcSTM32DisableTSVREFE,"ax",%progbits
 1069      0080AFF3 
 1069      0080AFF3 
 1069      0080
 1070              		.align	2
 1071              		.p2align 4,,15
 1072              		.global	adcSTM32DisableTSVREFE
 1073              		.thumb
 1074              		.thumb_func
 1075              		.type	adcSTM32DisableTSVREFE, %function
ARM GAS  /var/folders/ng/s8655sgx1ys_4lf9jzm2w6n00000gn/T//ccMebcKK.s 			page 20


 1076              	adcSTM32DisableTSVREFE:
 1077              	.LFB126:
 1078              		.loc 1 390 0
 1079              		.cfi_startproc
 1080              		@ args = 0, pretend = 0, frame = 0
 1081              		@ frame_needed = 0, uses_anonymous_args = 0
 1082              		@ link register save eliminated.
 1083              		.loc 1 392 0
 1084 0000 4FF40C53 		mov	r3, #8960
 1085 0004 C4F20103 		movt	r3, 16385
 1086 0008 5A68     		ldr	r2, [r3, #4]
 1087 000a 22F40000 		bic	r0, r2, #8388608
 1088 000e 5860     		str	r0, [r3, #4]
 1089 0010 7047     		bx	lr
 1090              		.cfi_endproc
 1091              	.LFE126:
 1092              		.size	adcSTM32DisableTSVREFE, .-adcSTM32DisableTSVREFE
 1093 0012 00BFAFF3 		.section	.text.adcSTM32EnableVBATE,"ax",%progbits
 1093      0080AFF3 
 1093      0080AFF3 
 1093      0080
 1094              		.align	2
 1095              		.p2align 4,,15
 1096              		.global	adcSTM32EnableVBATE
 1097              		.thumb
 1098              		.thumb_func
 1099              		.type	adcSTM32EnableVBATE, %function
 1100              	adcSTM32EnableVBATE:
 1101              	.LFB127:
 1102              		.loc 1 401 0
 1103              		.cfi_startproc
 1104              		@ args = 0, pretend = 0, frame = 0
 1105              		@ frame_needed = 0, uses_anonymous_args = 0
 1106              		@ link register save eliminated.
 1107              		.loc 1 403 0
 1108 0000 4FF40C53 		mov	r3, #8960
 1109 0004 C4F20103 		movt	r3, 16385
 1110 0008 5A68     		ldr	r2, [r3, #4]
 1111 000a 42F48000 		orr	r0, r2, #4194304
 1112 000e 5860     		str	r0, [r3, #4]
 1113 0010 7047     		bx	lr
 1114              		.cfi_endproc
 1115              	.LFE127:
 1116              		.size	adcSTM32EnableVBATE, .-adcSTM32EnableVBATE
 1117 0012 00BFAFF3 		.section	.text.adcSTM32DisableVBATE,"ax",%progbits
 1117      0080AFF3 
 1117      0080AFF3 
 1117      0080
 1118              		.align	2
 1119              		.p2align 4,,15
 1120              		.global	adcSTM32DisableVBATE
 1121              		.thumb
 1122              		.thumb_func
 1123              		.type	adcSTM32DisableVBATE, %function
 1124              	adcSTM32DisableVBATE:
 1125              	.LFB128:
 1126              		.loc 1 412 0
ARM GAS  /var/folders/ng/s8655sgx1ys_4lf9jzm2w6n00000gn/T//ccMebcKK.s 			page 21


 1127              		.cfi_startproc
 1128              		@ args = 0, pretend = 0, frame = 0
 1129              		@ frame_needed = 0, uses_anonymous_args = 0
 1130              		@ link register save eliminated.
 1131              		.loc 1 414 0
 1132 0000 4FF40C53 		mov	r3, #8960
 1133 0004 C4F20103 		movt	r3, 16385
 1134 0008 5A68     		ldr	r2, [r3, #4]
 1135 000a 22F48000 		bic	r0, r2, #4194304
 1136 000e 5860     		str	r0, [r3, #4]
 1137 0010 7047     		bx	lr
 1138              		.cfi_endproc
 1139              	.LFE128:
 1140              		.size	adcSTM32DisableVBATE, .-adcSTM32DisableVBATE
 1141              		.global	ADCD3
 1142              		.global	ADCD2
 1143              		.global	ADCD1
 1144 0012 00BFAFF3 		.section	.bss.ADCD1,"aw",%nobits
 1144      0080AFF3 
 1144      0080AFF3 
 1144      0080
 1145              		.align	2
 1146              		.set	.LANCHOR0,. + 0
 1147              		.type	ADCD1, %object
 1148              		.size	ADCD1, 36
 1149              	ADCD1:
 1150 0000 00000000 		.space	36
 1150      00000000 
 1150      00000000 
 1150      00000000 
 1150      00000000 
 1151              		.section	.bss.ADCD2,"aw",%nobits
 1152              		.align	2
 1153              		.set	.LANCHOR1,. + 0
 1154              		.type	ADCD2, %object
 1155              		.size	ADCD2, 36
 1156              	ADCD2:
 1157 0000 00000000 		.space	36
 1157      00000000 
 1157      00000000 
 1157      00000000 
 1157      00000000 
 1158              		.section	.bss.ADCD3,"aw",%nobits
 1159              		.align	2
 1160              		.set	.LANCHOR2,. + 0
 1161              		.type	ADCD3, %object
 1162              		.size	ADCD3, 36
 1163              	ADCD3:
 1164 0000 00000000 		.space	36
 1164      00000000 
 1164      00000000 
 1164      00000000 
 1164      00000000 
 1165              		.text
 1166              	.Letext0:
 1167              		.file 2 "/Users/jseng/gccarm/bin/../lib/gcc/arm-none-eabi/4.7.4/include/stddef.h"
 1168              		.file 3 "/Users/jseng/gccarm/bin/../lib/gcc/arm-none-eabi/4.7.4/../../../../arm-none-eabi/include/
ARM GAS  /var/folders/ng/s8655sgx1ys_4lf9jzm2w6n00000gn/T//ccMebcKK.s 			page 22


 1169              		.file 4 "../AithonLibrary/ChibiOS/os/ports/GCC/ARMCMx/chtypes.h"
 1170              		.file 5 "../AithonLibrary/ChibiOS/os/kernel/include/chlists.h"
 1171              		.file 6 "../AithonLibrary/ChibiOS/os/kernel/include/chthreads.h"
 1172              		.file 7 "../AithonLibrary/ChibiOS/os/ports/GCC/ARMCMx/chcore_v7m.h"
 1173              		.file 8 "../AithonLibrary/ChibiOS/os/kernel/include/chmtx.h"
 1174              		.file 9 "../AithonLibrary/ChibiOS/os/hal/platforms/STM32F4xx/stm32f4xx.h"
 1175              		.file 10 "../AithonLibrary/ChibiOS/os/hal/platforms/STM32F4xx/stm32_dma.h"
 1176              		.file 11 "../AithonLibrary/ChibiOS/os/hal/include/adc.h"
 1177              		.file 12 "../AithonLibrary/ChibiOS/os/hal/platforms/STM32F4xx/adc_lld.h"
 1178              		.file 13 "../AithonLibrary/ChibiOS/os/ports/common/ARMCMx/CMSIS/include/core_cm4.h"
 1179              		.file 14 "../AithonLibrary/ChibiOS/os/ports/common/ARMCMx/nvic.h"
 1180              		.file 15 "../AithonLibrary/ChibiOS/os/kernel/include/chschd.h"