ARM GAS  /var/folders/ng/s8655sgx1ys_4lf9jzm2w6n00000gn/T//cc82Awlt.s 			page 1


   1              		.syntax unified
   2              		.cpu cortex-m4
   3              		.eabi_attribute 27, 3
   4              		.fpu fpv4-sp-d16
   5              		.eabi_attribute 20, 1
   6              		.eabi_attribute 21, 1
   7              		.eabi_attribute 23, 3
   8              		.eabi_attribute 24, 1
   9              		.eabi_attribute 25, 1
  10              		.eabi_attribute 26, 1
  11              		.eabi_attribute 30, 2
  12              		.eabi_attribute 34, 1
  13              		.eabi_attribute 18, 4
  14              		.thumb
  15              		.file	"board.c"
  16              		.text
  17              	.Ltext0:
  18              		.cfi_sections	.debug_frame
  19              		.section	.text.mmc_lld_is_card_inserted,"ax",%progbits
  20              		.align	2
  21              		.p2align 4,,15
  22              		.global	mmc_lld_is_card_inserted
  23              		.thumb
  24              		.thumb_func
  25              		.type	mmc_lld_is_card_inserted, %function
  26              	mmc_lld_is_card_inserted:
  27              	.LFB118:
  28              		.file 1 "../AithonLibrary/Board_v01/board.c"
  29              		.loc 1 71 0
  30              		.cfi_startproc
  31              		@ args = 0, pretend = 0, frame = 0
  32              		@ frame_needed = 0, uses_anonymous_args = 0
  33              		@ link register save eliminated.
  34              	.LVL0:
  35              		.loc 1 74 0
  36 0000 0120     		movs	r0, #1
  37              	.LVL1:
  38 0002 7047     		bx	lr
  39              		.cfi_endproc
  40              	.LFE118:
  41              		.size	mmc_lld_is_card_inserted, .-mmc_lld_is_card_inserted
  42 0004 AFF30080 		.section	.text.mmc_lld_is_write_protected,"ax",%progbits
  42      AFF30080 
  42      AFF30080 
  43              		.align	2
  44              		.p2align 4,,15
  45              		.global	mmc_lld_is_write_protected
  46              		.thumb
  47              		.thumb_func
  48              		.type	mmc_lld_is_write_protected, %function
  49              	mmc_lld_is_write_protected:
  50              	.LFB119:
  51              		.loc 1 79 0
  52              		.cfi_startproc
  53              		@ args = 0, pretend = 0, frame = 0
  54              		@ frame_needed = 0, uses_anonymous_args = 0
  55              		@ link register save eliminated.
ARM GAS  /var/folders/ng/s8655sgx1ys_4lf9jzm2w6n00000gn/T//cc82Awlt.s 			page 2


  56              	.LVL2:
  57              		.loc 1 82 0
  58 0000 0020     		movs	r0, #0
  59              	.LVL3:
  60 0002 7047     		bx	lr
  61              		.cfi_endproc
  62              	.LFE119:
  63              		.size	mmc_lld_is_write_protected, .-mmc_lld_is_write_protected
  64 0004 AFF30080 		.section	.text.__early_init,"ax",%progbits
  64      AFF30080 
  64      AFF30080 
  65              		.align	2
  66              		.p2align 4,,15
  67              		.global	__early_init
  68              		.thumb
  69              		.thumb_func
  70              		.type	__early_init, %function
  71              	__early_init:
  72              	.LFB120:
  73              		.loc 1 90 0
  74              		.cfi_startproc
  75              		@ args = 0, pretend = 0, frame = 0
  76              		@ frame_needed = 0, uses_anonymous_args = 0
  77              		@ link register save eliminated.
  78              		.loc 1 93 0
  79              		.loc 1 92 0
  80 0000 FFF7FEBF 		b	stm32_clock_init
  81              	.LVL4:
  82              		.cfi_endproc
  83              	.LFE120:
  84              		.size	__early_init, .-__early_init
  85 0004 AFF30080 		.section	.text.boardInit,"ax",%progbits
  85      AFF30080 
  85      AFF30080 
  86              		.align	2
  87              		.p2align 4,,15
  88              		.global	boardInit
  89              		.thumb
  90              		.thumb_func
  91              		.type	boardInit, %function
  92              	boardInit:
  93              	.LFB121:
  94              		.loc 1 98 0
  95              		.cfi_startproc
  96              		@ args = 0, pretend = 0, frame = 0
  97              		@ frame_needed = 0, uses_anonymous_args = 0
  98              		@ link register save eliminated.
  99 0000 7047     		bx	lr
 100              		.cfi_endproc
 101              	.LFE121:
 102              		.size	boardInit, .-boardInit
 103              		.global	pal_default_config
 104 0002 00BFAFF3 		.section	.rodata.pal_default_config,"a",%progbits
 104      0080AFF3 
 104      0080AFF3 
 104      0080
 105              		.align	2
ARM GAS  /var/folders/ng/s8655sgx1ys_4lf9jzm2w6n00000gn/T//cc82Awlt.s 			page 3


 106              		.type	pal_default_config, %object
 107              		.size	pal_default_config, 252
 108              	pal_default_config:
 109 0000 FFAA91AA 		.word	-1433294081
 110 0004 00000000 		.word	0
 111 0008 FFFFFFFF 		.word	-1
 112 000c 00020424 		.word	604242432
 113 0010 FFFFFFFF 		.word	-1
 114 0014 00005055 		.word	1431306240
 115 0018 00A00A50 		.word	1342873600
 116 001c 0FA0AAA4 		.word	-1532321777
 117 0020 00030000 		.word	768
 118 0024 FFFFFFFF 		.word	-1
 119 0028 00000001 		.word	16777216
 120 002c FFFFFFFF 		.word	-1
 121 0030 00000077 		.word	1996488704
 122 0034 447700AA 		.word	-1442810044
 123 0038 FFAFAA02 		.word	44740607
 124 003c 00000000 		.word	0
 125 0040 FFFFFF03 		.word	67108863
 126 0044 00000000 		.word	0
 127 0048 FFFFFFFF 		.word	-1
 128 004c 00000033 		.word	855638016
 129 0050 33660600 		.word	419379
 130 0054 152900AA 		.word	-1442830059
 131 0058 00000000 		.word	0
 132 005c FFFFFFFF 		.word	-1
 133 0060 00005500 		.word	5570560
 134 0064 FFFFFFFF 		.word	-1
 135 0068 00007007 		.word	124780544
 136 006c 00002222 		.word	572653568
 137 0070 00409941 		.word	1100562432
 138 0074 00000000 		.word	0
 139 0078 FFFFFFFF 		.word	-1
 140 007c 00000000 		.word	0
 141 0080 FFFFFFFF 		.word	-1
 142 0084 00000000 		.word	0
 143 0088 10100000 		.word	4112
 144 008c 00000000 		.word	0
 145 0090 00000000 		.word	0
 146 0094 00000000 		.word	0
 147 0098 00000000 		.word	0
 148 009c 00000000 		.word	0
 149 00a0 00000000 		.word	0
 150 00a4 00000000 		.word	0
 151 00a8 00000000 		.word	0
 152 00ac 00000000 		.word	0
 153 00b0 00000000 		.word	0
 154 00b4 00000000 		.word	0
 155 00b8 00000000 		.word	0
 156 00bc 00000000 		.word	0
 157 00c0 00000000 		.word	0
 158 00c4 00000000 		.word	0
 159 00c8 00000000 		.word	0
 160 00cc FFFFFFFF 		.word	-1
 161 00d0 00000000 		.word	0
 162 00d4 FFFFFFFF 		.word	-1
ARM GAS  /var/folders/ng/s8655sgx1ys_4lf9jzm2w6n00000gn/T//cc82Awlt.s 			page 4


 163 00d8 00000000 		.word	0
 164 00dc 00000000 		.word	0
 165 00e0 00000000 		.word	0
 166 00e4 00000000 		.word	0
 167 00e8 00000000 		.word	0
 168 00ec 00000000 		.word	0
 169 00f0 00000000 		.word	0
 170 00f4 00000000 		.word	0
 171 00f8 00000000 		.word	0
 172              		.text
 173              	.Letext0:
 174              		.file 2 "/Users/jseng/gccarm/bin/../lib/gcc/arm-none-eabi/4.7.4/../../../../arm-none-eabi/include/
 175              		.file 3 "../AithonLibrary/ChibiOS/os/ports/GCC/ARMCMx/chtypes.h"
 176              		.file 4 "../AithonLibrary/ChibiOS/os/kernel/include/chlists.h"
 177              		.file 5 "../AithonLibrary/ChibiOS/os/kernel/include/chthreads.h"
 178              		.file 6 "../AithonLibrary/ChibiOS/os/ports/GCC/ARMCMx/chcore_v7m.h"
 179              		.file 7 "../AithonLibrary/ChibiOS/os/kernel/include/chmtx.h"
 180              		.file 8 "../AithonLibrary/ChibiOS/os/hal/platforms/STM32F4xx/stm32f4xx.h"
 181              		.file 9 "../AithonLibrary/ChibiOS/os/hal/platforms/STM32F4xx/stm32_dma.h"
 182              		.file 10 "../AithonLibrary/ChibiOS/os/hal/include/io_block.h"
 183              		.file 11 "../AithonLibrary/ChibiOS/os/hal/platforms/STM32/GPIOv2/pal_lld.h"
 184              		.file 12 "../AithonLibrary/ChibiOS/os/hal/include/spi.h"
 185              		.file 13 "../AithonLibrary/ChibiOS/os/hal/platforms/STM32/SPIv1/spi_lld.h"
 186              		.file 14 "../AithonLibrary/ChibiOS/os/hal/include/mmc_spi.h"
 187              		.file 15 "../AithonLibrary/ChibiOS/os/ports/common/ARMCMx/CMSIS/include/core_cm4.h"
 188              		.file 16 "../AithonLibrary/ChibiOS/os/hal/platforms/STM32F4xx/hal_lld.h"
 189              		.section	.debug_info,"",%progbits
 190              	.Ldebug_info0:
 191 0000 720D0000 		.4byte	0xd72
 192 0004 0200     		.2byte	0x2
 193 0006 00000000 		.4byte	.Ldebug_abbrev0
 194 000a 04       		.byte	0x4
 195 000b 01       		.uleb128 0x1
 196 000c 68010000 		.4byte	.LASF165
 197 0010 01       		.byte	0x1
 198 0011 90020000 		.4byte	.LASF166
 199 0015 29020000 		.4byte	.LASF167
 200 0019 00000000 		.4byte	.Ldebug_ranges0+0
 201 001d 00000000 		.4byte	0
 202 0021 00000000 		.4byte	0
 203 0025 00000000 		.4byte	.Ldebug_line0
 204 0029 02       		.uleb128 0x2
 205 002a 04       		.byte	0x4
 206 002b 05       		.byte	0x5
 207 002c 696E7400 		.ascii	"int\000"
 208 0030 03       		.uleb128 0x3
 209 0031 04       		.byte	0x4
 210 0032 07       		.byte	0x7
 211 0033 B3020000 		.4byte	.LASF0
 212 0037 03       		.uleb128 0x3
 213 0038 01       		.byte	0x1
 214 0039 06       		.byte	0x6
 215 003a 16010000 		.4byte	.LASF1
 216 003e 04       		.uleb128 0x4
 217 003f 38060000 		.4byte	.LASF4
 218 0043 02       		.byte	0x2
 219 0044 2A       		.byte	0x2a
ARM GAS  /var/folders/ng/s8655sgx1ys_4lf9jzm2w6n00000gn/T//cc82Awlt.s 			page 5


 220 0045 49000000 		.4byte	0x49
 221 0049 03       		.uleb128 0x3
 222 004a 01       		.byte	0x1
 223 004b 08       		.byte	0x8
 224 004c 7C040000 		.4byte	.LASF2
 225 0050 03       		.uleb128 0x3
 226 0051 02       		.byte	0x2
 227 0052 05       		.byte	0x5
 228 0053 AC040000 		.4byte	.LASF3
 229 0057 04       		.uleb128 0x4
 230 0058 C0020000 		.4byte	.LASF5
 231 005c 02       		.byte	0x2
 232 005d 36       		.byte	0x36
 233 005e 62000000 		.4byte	0x62
 234 0062 03       		.uleb128 0x3
 235 0063 02       		.byte	0x2
 236 0064 07       		.byte	0x7
 237 0065 FC020000 		.4byte	.LASF6
 238 0069 04       		.uleb128 0x4
 239 006a 74040000 		.4byte	.LASF7
 240 006e 02       		.byte	0x2
 241 006f 4F       		.byte	0x4f
 242 0070 74000000 		.4byte	0x74
 243 0074 03       		.uleb128 0x3
 244 0075 04       		.byte	0x4
 245 0076 05       		.byte	0x5
 246 0077 B7010000 		.4byte	.LASF8
 247 007b 04       		.uleb128 0x4
 248 007c 33050000 		.4byte	.LASF9
 249 0080 02       		.byte	0x2
 250 0081 50       		.byte	0x50
 251 0082 86000000 		.4byte	0x86
 252 0086 03       		.uleb128 0x3
 253 0087 04       		.byte	0x4
 254 0088 07       		.byte	0x7
 255 0089 3C050000 		.4byte	.LASF10
 256 008d 03       		.uleb128 0x3
 257 008e 08       		.byte	0x8
 258 008f 05       		.byte	0x5
 259 0090 08010000 		.4byte	.LASF11
 260 0094 03       		.uleb128 0x3
 261 0095 08       		.byte	0x8
 262 0096 07       		.byte	0x7
 263 0097 9C000000 		.4byte	.LASF12
 264 009b 04       		.uleb128 0x4
 265 009c 33010000 		.4byte	.LASF13
 266 00a0 03       		.byte	0x3
 267 00a1 2B       		.byte	0x2b
 268 00a2 A6000000 		.4byte	0xa6
 269 00a6 03       		.uleb128 0x3
 270 00a7 01       		.byte	0x1
 271 00a8 02       		.byte	0x2
 272 00a9 6E040000 		.4byte	.LASF14
 273 00ad 04       		.uleb128 0x4
 274 00ae 4C030000 		.4byte	.LASF15
 275 00b2 03       		.byte	0x3
 276 00b3 2C       		.byte	0x2c
ARM GAS  /var/folders/ng/s8655sgx1ys_4lf9jzm2w6n00000gn/T//cc82Awlt.s 			page 6


 277 00b4 3E000000 		.4byte	0x3e
 278 00b8 04       		.uleb128 0x4
 279 00b9 C7010000 		.4byte	.LASF16
 280 00bd 03       		.byte	0x3
 281 00be 2D       		.byte	0x2d
 282 00bf 3E000000 		.4byte	0x3e
 283 00c3 04       		.uleb128 0x4
 284 00c4 29000000 		.4byte	.LASF17
 285 00c8 03       		.byte	0x3
 286 00c9 2E       		.byte	0x2e
 287 00ca 3E000000 		.4byte	0x3e
 288 00ce 04       		.uleb128 0x4
 289 00cf 53010000 		.4byte	.LASF18
 290 00d3 03       		.byte	0x3
 291 00d4 2F       		.byte	0x2f
 292 00d5 3E000000 		.4byte	0x3e
 293 00d9 04       		.uleb128 0x4
 294 00da 60040000 		.4byte	.LASF19
 295 00de 03       		.byte	0x3
 296 00df 30       		.byte	0x30
 297 00e0 7B000000 		.4byte	0x7b
 298 00e4 04       		.uleb128 0x4
 299 00e5 37030000 		.4byte	.LASF20
 300 00e9 03       		.byte	0x3
 301 00ea 31       		.byte	0x31
 302 00eb 69000000 		.4byte	0x69
 303 00ef 04       		.uleb128 0x4
 304 00f0 65030000 		.4byte	.LASF21
 305 00f4 03       		.byte	0x3
 306 00f5 33       		.byte	0x33
 307 00f6 7B000000 		.4byte	0x7b
 308 00fa 04       		.uleb128 0x4
 309 00fb A1050000 		.4byte	.LASF22
 310 00ff 03       		.byte	0x3
 311 0100 35       		.byte	0x35
 312 0101 7B000000 		.4byte	0x7b
 313 0105 04       		.uleb128 0x4
 314 0106 27060000 		.4byte	.LASF23
 315 010a 04       		.byte	0x4
 316 010b 2A       		.byte	0x2a
 317 010c 10010000 		.4byte	0x110
 318 0110 05       		.uleb128 0x5
 319 0111 27060000 		.4byte	.LASF23
 320 0115 48       		.byte	0x48
 321 0116 05       		.byte	0x5
 322 0117 5E       		.byte	0x5e
 323 0118 35020000 		.4byte	0x235
 324 011c 06       		.uleb128 0x6
 325 011d FB040000 		.4byte	.LASF24
 326 0121 05       		.byte	0x5
 327 0122 5F       		.byte	0x5f
 328 0123 5A020000 		.4byte	0x25a
 329 0127 02       		.byte	0x2
 330 0128 23       		.byte	0x23
 331 0129 00       		.uleb128 0
 332 012a 06       		.uleb128 0x6
 333 012b 3B040000 		.4byte	.LASF25
ARM GAS  /var/folders/ng/s8655sgx1ys_4lf9jzm2w6n00000gn/T//cc82Awlt.s 			page 7


 334 012f 05       		.byte	0x5
 335 0130 61       		.byte	0x61
 336 0131 5A020000 		.4byte	0x25a
 337 0135 02       		.byte	0x2
 338 0136 23       		.byte	0x23
 339 0137 04       		.uleb128 0x4
 340 0138 06       		.uleb128 0x6
 341 0139 FB000000 		.4byte	.LASF26
 342 013d 05       		.byte	0x5
 343 013e 63       		.byte	0x63
 344 013f D9000000 		.4byte	0xd9
 345 0143 02       		.byte	0x2
 346 0144 23       		.byte	0x23
 347 0145 08       		.uleb128 0x8
 348 0146 06       		.uleb128 0x6
 349 0147 9C060000 		.4byte	.LASF27
 350 014b 05       		.byte	0x5
 351 014c 64       		.byte	0x64
 352 014d 18040000 		.4byte	0x418
 353 0151 02       		.byte	0x2
 354 0152 23       		.byte	0x23
 355 0153 0C       		.uleb128 0xc
 356 0154 06       		.uleb128 0x6
 357 0155 EB010000 		.4byte	.LASF28
 358 0159 05       		.byte	0x5
 359 015a 66       		.byte	0x66
 360 015b 5A020000 		.4byte	0x25a
 361 015f 02       		.byte	0x2
 362 0160 23       		.byte	0x23
 363 0161 10       		.uleb128 0x10
 364 0162 06       		.uleb128 0x6
 365 0163 A5030000 		.4byte	.LASF29
 366 0167 05       		.byte	0x5
 367 0168 67       		.byte	0x67
 368 0169 5A020000 		.4byte	0x25a
 369 016d 02       		.byte	0x2
 370 016e 23       		.byte	0x23
 371 016f 14       		.uleb128 0x14
 372 0170 06       		.uleb128 0x6
 373 0171 52060000 		.4byte	.LASF30
 374 0175 05       		.byte	0x5
 375 0176 6E       		.byte	0x6e
 376 0177 C9040000 		.4byte	0x4c9
 377 017b 02       		.byte	0x2
 378 017c 23       		.byte	0x23
 379 017d 18       		.uleb128 0x18
 380 017e 06       		.uleb128 0x6
 381 017f B6040000 		.4byte	.LASF31
 382 0183 05       		.byte	0x5
 383 0184 79       		.byte	0x79
 384 0185 B8000000 		.4byte	0xb8
 385 0189 02       		.byte	0x2
 386 018a 23       		.byte	0x23
 387 018b 1C       		.uleb128 0x1c
 388 018c 06       		.uleb128 0x6
 389 018d 02050000 		.4byte	.LASF32
 390 0191 05       		.byte	0x5
ARM GAS  /var/folders/ng/s8655sgx1ys_4lf9jzm2w6n00000gn/T//cc82Awlt.s 			page 8


 391 0192 7D       		.byte	0x7d
 392 0193 AD000000 		.4byte	0xad
 393 0197 02       		.byte	0x2
 394 0198 23       		.byte	0x23
 395 0199 1D       		.uleb128 0x1d
 396 019a 06       		.uleb128 0x6
 397 019b 15060000 		.4byte	.LASF33
 398 019f 05       		.byte	0x5
 399 01a0 82       		.byte	0x82
 400 01a1 C3000000 		.4byte	0xc3
 401 01a5 02       		.byte	0x2
 402 01a6 23       		.byte	0x23
 403 01a7 1E       		.uleb128 0x1e
 404 01a8 06       		.uleb128 0x6
 405 01a9 CA040000 		.4byte	.LASF34
 406 01ad 05       		.byte	0x5
 407 01ae 88       		.byte	0x88
 408 01af CE000000 		.4byte	0xce
 409 01b3 02       		.byte	0x2
 410 01b4 23       		.byte	0x23
 411 01b5 1F       		.uleb128 0x1f
 412 01b6 06       		.uleb128 0x6
 413 01b7 C9020000 		.4byte	.LASF35
 414 01bb 05       		.byte	0x5
 415 01bc 8F       		.byte	0x8f
 416 01bd 47040000 		.4byte	0x447
 417 01c1 02       		.byte	0x2
 418 01c2 23       		.byte	0x23
 419 01c3 20       		.uleb128 0x20
 420 01c4 07       		.uleb128 0x7
 421 01c5 705F7500 		.ascii	"p_u\000"
 422 01c9 05       		.byte	0x5
 423 01ca B4       		.byte	0xb4
 424 01cb 94040000 		.4byte	0x494
 425 01cf 02       		.byte	0x2
 426 01d0 23       		.byte	0x23
 427 01d1 24       		.uleb128 0x24
 428 01d2 06       		.uleb128 0x6
 429 01d3 A2060000 		.4byte	.LASF36
 430 01d7 05       		.byte	0x5
 431 01d8 B9       		.byte	0xb9
 432 01d9 82020000 		.4byte	0x282
 433 01dd 02       		.byte	0x2
 434 01de 23       		.byte	0x23
 435 01df 28       		.uleb128 0x28
 436 01e0 06       		.uleb128 0x6
 437 01e1 D0020000 		.4byte	.LASF37
 438 01e5 05       		.byte	0x5
 439 01e6 BF       		.byte	0xbf
 440 01e7 60020000 		.4byte	0x260
 441 01eb 02       		.byte	0x2
 442 01ec 23       		.byte	0x23
 443 01ed 2C       		.uleb128 0x2c
 444 01ee 06       		.uleb128 0x6
 445 01ef 6A060000 		.4byte	.LASF38
 446 01f3 05       		.byte	0x5
 447 01f4 C3       		.byte	0xc3
ARM GAS  /var/folders/ng/s8655sgx1ys_4lf9jzm2w6n00000gn/T//cc82Awlt.s 			page 9


 448 01f5 E4000000 		.4byte	0xe4
 449 01f9 02       		.byte	0x2
 450 01fa 23       		.byte	0x23
 451 01fb 34       		.uleb128 0x34
 452 01fc 06       		.uleb128 0x6
 453 01fd 19050000 		.4byte	.LASF39
 454 0201 05       		.byte	0x5
 455 0202 C9       		.byte	0xc9
 456 0203 EF000000 		.4byte	0xef
 457 0207 02       		.byte	0x2
 458 0208 23       		.byte	0x23
 459 0209 38       		.uleb128 0x38
 460 020a 06       		.uleb128 0x6
 461 020b A2040000 		.4byte	.LASF40
 462 020f 05       		.byte	0x5
 463 0210 D0       		.byte	0xd0
 464 0211 DB040000 		.4byte	0x4db
 465 0215 02       		.byte	0x2
 466 0216 23       		.byte	0x23
 467 0217 3C       		.uleb128 0x3c
 468 0218 06       		.uleb128 0x6
 469 0219 AB050000 		.4byte	.LASF41
 470 021d 05       		.byte	0x5
 471 021e D4       		.byte	0xd4
 472 021f D9000000 		.4byte	0xd9
 473 0223 02       		.byte	0x2
 474 0224 23       		.byte	0x23
 475 0225 40       		.uleb128 0x40
 476 0226 06       		.uleb128 0x6
 477 0227 46020000 		.4byte	.LASF42
 478 022b 05       		.byte	0x5
 479 022c DA       		.byte	0xda
 480 022d 98020000 		.4byte	0x298
 481 0231 02       		.byte	0x2
 482 0232 23       		.byte	0x23
 483 0233 44       		.uleb128 0x44
 484 0234 00       		.byte	0
 485 0235 08       		.uleb128 0x8
 486 0236 08       		.byte	0x8
 487 0237 04       		.byte	0x4
 488 0238 61       		.byte	0x61
 489 0239 5A020000 		.4byte	0x25a
 490 023d 06       		.uleb128 0x6
 491 023e FB040000 		.4byte	.LASF24
 492 0242 04       		.byte	0x4
 493 0243 62       		.byte	0x62
 494 0244 5A020000 		.4byte	0x25a
 495 0248 02       		.byte	0x2
 496 0249 23       		.byte	0x23
 497 024a 00       		.uleb128 0
 498 024b 06       		.uleb128 0x6
 499 024c 3B040000 		.4byte	.LASF25
 500 0250 04       		.byte	0x4
 501 0251 64       		.byte	0x64
 502 0252 5A020000 		.4byte	0x25a
 503 0256 02       		.byte	0x2
 504 0257 23       		.byte	0x23
ARM GAS  /var/folders/ng/s8655sgx1ys_4lf9jzm2w6n00000gn/T//cc82Awlt.s 			page 10


 505 0258 04       		.uleb128 0x4
 506 0259 00       		.byte	0
 507 025a 09       		.uleb128 0x9
 508 025b 04       		.byte	0x4
 509 025c 05010000 		.4byte	0x105
 510 0260 04       		.uleb128 0x4
 511 0261 C3030000 		.4byte	.LASF43
 512 0265 04       		.byte	0x4
 513 0266 66       		.byte	0x66
 514 0267 35020000 		.4byte	0x235
 515 026b 08       		.uleb128 0x8
 516 026c 04       		.byte	0x4
 517 026d 04       		.byte	0x4
 518 026e 6B       		.byte	0x6b
 519 026f 82020000 		.4byte	0x282
 520 0273 06       		.uleb128 0x6
 521 0274 FB040000 		.4byte	.LASF24
 522 0278 04       		.byte	0x4
 523 0279 6D       		.byte	0x6d
 524 027a 5A020000 		.4byte	0x25a
 525 027e 02       		.byte	0x2
 526 027f 23       		.byte	0x23
 527 0280 00       		.uleb128 0
 528 0281 00       		.byte	0
 529 0282 04       		.uleb128 0x4
 530 0283 59030000 		.4byte	.LASF44
 531 0287 04       		.byte	0x4
 532 0288 70       		.byte	0x70
 533 0289 6B020000 		.4byte	0x26b
 534 028d 04       		.uleb128 0x4
 535 028e 4E020000 		.4byte	.LASF45
 536 0292 06       		.byte	0x6
 537 0293 E5       		.byte	0xe5
 538 0294 98020000 		.4byte	0x298
 539 0298 0A       		.uleb128 0xa
 540 0299 04       		.byte	0x4
 541 029a 0B       		.uleb128 0xb
 542 029b E8050000 		.4byte	.LASF46
 543 029f 64       		.byte	0x64
 544 02a0 06       		.byte	0x6
 545 02a1 0C01     		.2byte	0x10c
 546 02a3 18040000 		.4byte	0x418
 547 02a7 0C       		.uleb128 0xc
 548 02a8 73313600 		.ascii	"s16\000"
 549 02ac 06       		.byte	0x6
 550 02ad 0E01     		.2byte	0x10e
 551 02af 8D020000 		.4byte	0x28d
 552 02b3 02       		.byte	0x2
 553 02b4 23       		.byte	0x23
 554 02b5 00       		.uleb128 0
 555 02b6 0C       		.uleb128 0xc
 556 02b7 73313700 		.ascii	"s17\000"
 557 02bb 06       		.byte	0x6
 558 02bc 0F01     		.2byte	0x10f
 559 02be 8D020000 		.4byte	0x28d
 560 02c2 02       		.byte	0x2
 561 02c3 23       		.byte	0x23
ARM GAS  /var/folders/ng/s8655sgx1ys_4lf9jzm2w6n00000gn/T//cc82Awlt.s 			page 11


 562 02c4 04       		.uleb128 0x4
 563 02c5 0C       		.uleb128 0xc
 564 02c6 73313800 		.ascii	"s18\000"
 565 02ca 06       		.byte	0x6
 566 02cb 1001     		.2byte	0x110
 567 02cd 8D020000 		.4byte	0x28d
 568 02d1 02       		.byte	0x2
 569 02d2 23       		.byte	0x23
 570 02d3 08       		.uleb128 0x8
 571 02d4 0C       		.uleb128 0xc
 572 02d5 73313900 		.ascii	"s19\000"
 573 02d9 06       		.byte	0x6
 574 02da 1101     		.2byte	0x111
 575 02dc 8D020000 		.4byte	0x28d
 576 02e0 02       		.byte	0x2
 577 02e1 23       		.byte	0x23
 578 02e2 0C       		.uleb128 0xc
 579 02e3 0C       		.uleb128 0xc
 580 02e4 73323000 		.ascii	"s20\000"
 581 02e8 06       		.byte	0x6
 582 02e9 1201     		.2byte	0x112
 583 02eb 8D020000 		.4byte	0x28d
 584 02ef 02       		.byte	0x2
 585 02f0 23       		.byte	0x23
 586 02f1 10       		.uleb128 0x10
 587 02f2 0C       		.uleb128 0xc
 588 02f3 73323100 		.ascii	"s21\000"
 589 02f7 06       		.byte	0x6
 590 02f8 1301     		.2byte	0x113
 591 02fa 8D020000 		.4byte	0x28d
 592 02fe 02       		.byte	0x2
 593 02ff 23       		.byte	0x23
 594 0300 14       		.uleb128 0x14
 595 0301 0C       		.uleb128 0xc
 596 0302 73323200 		.ascii	"s22\000"
 597 0306 06       		.byte	0x6
 598 0307 1401     		.2byte	0x114
 599 0309 8D020000 		.4byte	0x28d
 600 030d 02       		.byte	0x2
 601 030e 23       		.byte	0x23
 602 030f 18       		.uleb128 0x18
 603 0310 0C       		.uleb128 0xc
 604 0311 73323300 		.ascii	"s23\000"
 605 0315 06       		.byte	0x6
 606 0316 1501     		.2byte	0x115
 607 0318 8D020000 		.4byte	0x28d
 608 031c 02       		.byte	0x2
 609 031d 23       		.byte	0x23
 610 031e 1C       		.uleb128 0x1c
 611 031f 0C       		.uleb128 0xc
 612 0320 73323400 		.ascii	"s24\000"
 613 0324 06       		.byte	0x6
 614 0325 1601     		.2byte	0x116
 615 0327 8D020000 		.4byte	0x28d
 616 032b 02       		.byte	0x2
 617 032c 23       		.byte	0x23
 618 032d 20       		.uleb128 0x20
ARM GAS  /var/folders/ng/s8655sgx1ys_4lf9jzm2w6n00000gn/T//cc82Awlt.s 			page 12


 619 032e 0C       		.uleb128 0xc
 620 032f 73323500 		.ascii	"s25\000"
 621 0333 06       		.byte	0x6
 622 0334 1701     		.2byte	0x117
 623 0336 8D020000 		.4byte	0x28d
 624 033a 02       		.byte	0x2
 625 033b 23       		.byte	0x23
 626 033c 24       		.uleb128 0x24
 627 033d 0C       		.uleb128 0xc
 628 033e 73323600 		.ascii	"s26\000"
 629 0342 06       		.byte	0x6
 630 0343 1801     		.2byte	0x118
 631 0345 8D020000 		.4byte	0x28d
 632 0349 02       		.byte	0x2
 633 034a 23       		.byte	0x23
 634 034b 28       		.uleb128 0x28
 635 034c 0C       		.uleb128 0xc
 636 034d 73323700 		.ascii	"s27\000"
 637 0351 06       		.byte	0x6
 638 0352 1901     		.2byte	0x119
 639 0354 8D020000 		.4byte	0x28d
 640 0358 02       		.byte	0x2
 641 0359 23       		.byte	0x23
 642 035a 2C       		.uleb128 0x2c
 643 035b 0C       		.uleb128 0xc
 644 035c 73323800 		.ascii	"s28\000"
 645 0360 06       		.byte	0x6
 646 0361 1A01     		.2byte	0x11a
 647 0363 8D020000 		.4byte	0x28d
 648 0367 02       		.byte	0x2
 649 0368 23       		.byte	0x23
 650 0369 30       		.uleb128 0x30
 651 036a 0C       		.uleb128 0xc
 652 036b 73323900 		.ascii	"s29\000"
 653 036f 06       		.byte	0x6
 654 0370 1B01     		.2byte	0x11b
 655 0372 8D020000 		.4byte	0x28d
 656 0376 02       		.byte	0x2
 657 0377 23       		.byte	0x23
 658 0378 34       		.uleb128 0x34
 659 0379 0C       		.uleb128 0xc
 660 037a 73333000 		.ascii	"s30\000"
 661 037e 06       		.byte	0x6
 662 037f 1C01     		.2byte	0x11c
 663 0381 8D020000 		.4byte	0x28d
 664 0385 02       		.byte	0x2
 665 0386 23       		.byte	0x23
 666 0387 38       		.uleb128 0x38
 667 0388 0C       		.uleb128 0xc
 668 0389 73333100 		.ascii	"s31\000"
 669 038d 06       		.byte	0x6
 670 038e 1D01     		.2byte	0x11d
 671 0390 8D020000 		.4byte	0x28d
 672 0394 02       		.byte	0x2
 673 0395 23       		.byte	0x23
 674 0396 3C       		.uleb128 0x3c
 675 0397 0C       		.uleb128 0xc
ARM GAS  /var/folders/ng/s8655sgx1ys_4lf9jzm2w6n00000gn/T//cc82Awlt.s 			page 13


 676 0398 723400   		.ascii	"r4\000"
 677 039b 06       		.byte	0x6
 678 039c 1F01     		.2byte	0x11f
 679 039e 8D020000 		.4byte	0x28d
 680 03a2 02       		.byte	0x2
 681 03a3 23       		.byte	0x23
 682 03a4 40       		.uleb128 0x40
 683 03a5 0C       		.uleb128 0xc
 684 03a6 723500   		.ascii	"r5\000"
 685 03a9 06       		.byte	0x6
 686 03aa 2001     		.2byte	0x120
 687 03ac 8D020000 		.4byte	0x28d
 688 03b0 02       		.byte	0x2
 689 03b1 23       		.byte	0x23
 690 03b2 44       		.uleb128 0x44
 691 03b3 0C       		.uleb128 0xc
 692 03b4 723600   		.ascii	"r6\000"
 693 03b7 06       		.byte	0x6
 694 03b8 2101     		.2byte	0x121
 695 03ba 8D020000 		.4byte	0x28d
 696 03be 02       		.byte	0x2
 697 03bf 23       		.byte	0x23
 698 03c0 48       		.uleb128 0x48
 699 03c1 0C       		.uleb128 0xc
 700 03c2 723700   		.ascii	"r7\000"
 701 03c5 06       		.byte	0x6
 702 03c6 2201     		.2byte	0x122
 703 03c8 8D020000 		.4byte	0x28d
 704 03cc 02       		.byte	0x2
 705 03cd 23       		.byte	0x23
 706 03ce 4C       		.uleb128 0x4c
 707 03cf 0C       		.uleb128 0xc
 708 03d0 723800   		.ascii	"r8\000"
 709 03d3 06       		.byte	0x6
 710 03d4 2301     		.2byte	0x123
 711 03d6 8D020000 		.4byte	0x28d
 712 03da 02       		.byte	0x2
 713 03db 23       		.byte	0x23
 714 03dc 50       		.uleb128 0x50
 715 03dd 0C       		.uleb128 0xc
 716 03de 723900   		.ascii	"r9\000"
 717 03e1 06       		.byte	0x6
 718 03e2 2401     		.2byte	0x124
 719 03e4 8D020000 		.4byte	0x28d
 720 03e8 02       		.byte	0x2
 721 03e9 23       		.byte	0x23
 722 03ea 54       		.uleb128 0x54
 723 03eb 0C       		.uleb128 0xc
 724 03ec 72313000 		.ascii	"r10\000"
 725 03f0 06       		.byte	0x6
 726 03f1 2501     		.2byte	0x125
 727 03f3 8D020000 		.4byte	0x28d
 728 03f7 02       		.byte	0x2
 729 03f8 23       		.byte	0x23
 730 03f9 58       		.uleb128 0x58
 731 03fa 0C       		.uleb128 0xc
 732 03fb 72313100 		.ascii	"r11\000"
ARM GAS  /var/folders/ng/s8655sgx1ys_4lf9jzm2w6n00000gn/T//cc82Awlt.s 			page 14


 733 03ff 06       		.byte	0x6
 734 0400 2601     		.2byte	0x126
 735 0402 8D020000 		.4byte	0x28d
 736 0406 02       		.byte	0x2
 737 0407 23       		.byte	0x23
 738 0408 5C       		.uleb128 0x5c
 739 0409 0C       		.uleb128 0xc
 740 040a 6C7200   		.ascii	"lr\000"
 741 040d 06       		.byte	0x6
 742 040e 2701     		.2byte	0x127
 743 0410 8D020000 		.4byte	0x28d
 744 0414 02       		.byte	0x2
 745 0415 23       		.byte	0x23
 746 0416 60       		.uleb128 0x60
 747 0417 00       		.byte	0
 748 0418 0B       		.uleb128 0xb
 749 0419 E0050000 		.4byte	.LASF47
 750 041d 04       		.byte	0x4
 751 041e 06       		.byte	0x6
 752 041f 3101     		.2byte	0x131
 753 0421 35040000 		.4byte	0x435
 754 0425 0C       		.uleb128 0xc
 755 0426 72313300 		.ascii	"r13\000"
 756 042a 06       		.byte	0x6
 757 042b 3201     		.2byte	0x132
 758 042d 35040000 		.4byte	0x435
 759 0431 02       		.byte	0x2
 760 0432 23       		.byte	0x23
 761 0433 00       		.uleb128 0
 762 0434 00       		.byte	0
 763 0435 09       		.uleb128 0x9
 764 0436 04       		.byte	0x4
 765 0437 9A020000 		.4byte	0x29a
 766 043b 0D       		.uleb128 0xd
 767 043c 7B000000 		.4byte	0x7b
 768 0440 03       		.uleb128 0x3
 769 0441 04       		.byte	0x4
 770 0442 07       		.byte	0x7
 771 0443 90030000 		.4byte	.LASF48
 772 0447 0D       		.uleb128 0xd
 773 0448 FA000000 		.4byte	0xfa
 774 044c 05       		.uleb128 0x5
 775 044d 9F030000 		.4byte	.LASF49
 776 0451 10       		.byte	0x10
 777 0452 07       		.byte	0x7
 778 0453 2C       		.byte	0x2c
 779 0454 83040000 		.4byte	0x483
 780 0458 06       		.uleb128 0x6
 781 0459 3A010000 		.4byte	.LASF50
 782 045d 07       		.byte	0x7
 783 045e 2D       		.byte	0x2d
 784 045f 60020000 		.4byte	0x260
 785 0463 02       		.byte	0x2
 786 0464 23       		.byte	0x23
 787 0465 00       		.uleb128 0
 788 0466 06       		.uleb128 0x6
 789 0467 81060000 		.4byte	.LASF51
ARM GAS  /var/folders/ng/s8655sgx1ys_4lf9jzm2w6n00000gn/T//cc82Awlt.s 			page 15


 790 046b 07       		.byte	0x7
 791 046c 2F       		.byte	0x2f
 792 046d 5A020000 		.4byte	0x25a
 793 0471 02       		.byte	0x2
 794 0472 23       		.byte	0x23
 795 0473 08       		.uleb128 0x8
 796 0474 06       		.uleb128 0x6
 797 0475 9A050000 		.4byte	.LASF52
 798 0479 07       		.byte	0x7
 799 047a 31       		.byte	0x31
 800 047b 83040000 		.4byte	0x483
 801 047f 02       		.byte	0x2
 802 0480 23       		.byte	0x23
 803 0481 0C       		.uleb128 0xc
 804 0482 00       		.byte	0
 805 0483 09       		.uleb128 0x9
 806 0484 04       		.byte	0x4
 807 0485 4C040000 		.4byte	0x44c
 808 0489 04       		.uleb128 0x4
 809 048a 9F030000 		.4byte	.LASF49
 810 048e 07       		.byte	0x7
 811 048f 33       		.byte	0x33
 812 0490 4C040000 		.4byte	0x44c
 813 0494 0E       		.uleb128 0xe
 814 0495 04       		.byte	0x4
 815 0496 05       		.byte	0x5
 816 0497 96       		.byte	0x96
 817 0498 C9040000 		.4byte	0x4c9
 818 049c 0F       		.uleb128 0xf
 819 049d 45000000 		.4byte	.LASF53
 820 04a1 05       		.byte	0x5
 821 04a2 9D       		.byte	0x9d
 822 04a3 E4000000 		.4byte	0xe4
 823 04a7 0F       		.uleb128 0xf
 824 04a8 C9000000 		.4byte	.LASF54
 825 04ac 05       		.byte	0x5
 826 04ad A4       		.byte	0xa4
 827 04ae E4000000 		.4byte	0xe4
 828 04b2 0F       		.uleb128 0xf
 829 04b3 4B060000 		.4byte	.LASF55
 830 04b7 05       		.byte	0x5
 831 04b8 AB       		.byte	0xab
 832 04b9 98020000 		.4byte	0x298
 833 04bd 0F       		.uleb128 0xf
 834 04be F4040000 		.4byte	.LASF56
 835 04c2 05       		.byte	0x5
 836 04c3 B2       		.byte	0xb2
 837 04c4 EF000000 		.4byte	0xef
 838 04c8 00       		.byte	0
 839 04c9 09       		.uleb128 0x9
 840 04ca 04       		.byte	0x4
 841 04cb CF040000 		.4byte	0x4cf
 842 04cf 10       		.uleb128 0x10
 843 04d0 D4040000 		.4byte	0x4d4
 844 04d4 03       		.uleb128 0x3
 845 04d5 01       		.byte	0x1
 846 04d6 08       		.byte	0x8
ARM GAS  /var/folders/ng/s8655sgx1ys_4lf9jzm2w6n00000gn/T//cc82Awlt.s 			page 16


 847 04d7 5F050000 		.4byte	.LASF57
 848 04db 09       		.uleb128 0x9
 849 04dc 04       		.byte	0x4
 850 04dd 89040000 		.4byte	0x489
 851 04e1 09       		.uleb128 0x9
 852 04e2 04       		.byte	0x4
 853 04e3 3E000000 		.4byte	0x3e
 854 04e7 09       		.uleb128 0x9
 855 04e8 04       		.byte	0x4
 856 04e9 ED040000 		.4byte	0x4ed
 857 04ed 10       		.uleb128 0x10
 858 04ee 3E000000 		.4byte	0x3e
 859 04f2 11       		.uleb128 0x11
 860 04f3 7B000000 		.4byte	0x7b
 861 04f7 02050000 		.4byte	0x502
 862 04fb 12       		.uleb128 0x12
 863 04fc 40040000 		.4byte	0x440
 864 0500 03       		.byte	0x3
 865 0501 00       		.byte	0
 866 0502 0D       		.uleb128 0xd
 867 0503 57000000 		.4byte	0x57
 868 0507 0D       		.uleb128 0xd
 869 0508 69000000 		.4byte	0x69
 870 050c 13       		.uleb128 0x13
 871 050d 18       		.byte	0x18
 872 050e 08       		.byte	0x8
 873 050f B102     		.2byte	0x2b1
 874 0511 6F050000 		.4byte	0x56f
 875 0515 0C       		.uleb128 0xc
 876 0516 435200   		.ascii	"CR\000"
 877 0519 08       		.byte	0x8
 878 051a B302     		.2byte	0x2b3
 879 051c 3B040000 		.4byte	0x43b
 880 0520 02       		.byte	0x2
 881 0521 23       		.byte	0x23
 882 0522 00       		.uleb128 0
 883 0523 14       		.uleb128 0x14
 884 0524 BD050000 		.4byte	.LASF58
 885 0528 08       		.byte	0x8
 886 0529 B402     		.2byte	0x2b4
 887 052b 3B040000 		.4byte	0x43b
 888 052f 02       		.byte	0x2
 889 0530 23       		.byte	0x23
 890 0531 04       		.uleb128 0x4
 891 0532 0C       		.uleb128 0xc
 892 0533 50415200 		.ascii	"PAR\000"
 893 0537 08       		.byte	0x8
 894 0538 B502     		.2byte	0x2b5
 895 053a 3B040000 		.4byte	0x43b
 896 053e 02       		.byte	0x2
 897 053f 23       		.byte	0x23
 898 0540 08       		.uleb128 0x8
 899 0541 14       		.uleb128 0x14
 900 0542 31000000 		.4byte	.LASF59
 901 0546 08       		.byte	0x8
 902 0547 B602     		.2byte	0x2b6
 903 0549 3B040000 		.4byte	0x43b
ARM GAS  /var/folders/ng/s8655sgx1ys_4lf9jzm2w6n00000gn/T//cc82Awlt.s 			page 17


 904 054d 02       		.byte	0x2
 905 054e 23       		.byte	0x23
 906 054f 0C       		.uleb128 0xc
 907 0550 14       		.uleb128 0x14
 908 0551 FB050000 		.4byte	.LASF60
 909 0555 08       		.byte	0x8
 910 0556 B702     		.2byte	0x2b7
 911 0558 3B040000 		.4byte	0x43b
 912 055c 02       		.byte	0x2
 913 055d 23       		.byte	0x23
 914 055e 10       		.uleb128 0x10
 915 055f 0C       		.uleb128 0xc
 916 0560 46435200 		.ascii	"FCR\000"
 917 0564 08       		.byte	0x8
 918 0565 B802     		.2byte	0x2b8
 919 0567 3B040000 		.4byte	0x43b
 920 056b 02       		.byte	0x2
 921 056c 23       		.byte	0x23
 922 056d 14       		.uleb128 0x14
 923 056e 00       		.byte	0
 924 056f 15       		.uleb128 0x15
 925 0570 C2050000 		.4byte	.LASF61
 926 0574 08       		.byte	0x8
 927 0575 B902     		.2byte	0x2b9
 928 0577 0C050000 		.4byte	0x50c
 929 057b 13       		.uleb128 0x13
 930 057c 24       		.byte	0x24
 931 057d 08       		.byte	0x8
 932 057e E304     		.2byte	0x4e3
 933 0580 91060000 		.4byte	0x691
 934 0584 0C       		.uleb128 0xc
 935 0585 43523100 		.ascii	"CR1\000"
 936 0589 08       		.byte	0x8
 937 058a E504     		.2byte	0x4e5
 938 058c 02050000 		.4byte	0x502
 939 0590 02       		.byte	0x2
 940 0591 23       		.byte	0x23
 941 0592 00       		.uleb128 0
 942 0593 14       		.uleb128 0x14
 943 0594 09040000 		.4byte	.LASF62
 944 0598 08       		.byte	0x8
 945 0599 E604     		.2byte	0x4e6
 946 059b 57000000 		.4byte	0x57
 947 059f 02       		.byte	0x2
 948 05a0 23       		.byte	0x23
 949 05a1 02       		.uleb128 0x2
 950 05a2 0C       		.uleb128 0xc
 951 05a3 43523200 		.ascii	"CR2\000"
 952 05a7 08       		.byte	0x8
 953 05a8 E704     		.2byte	0x4e7
 954 05aa 02050000 		.4byte	0x502
 955 05ae 02       		.byte	0x2
 956 05af 23       		.byte	0x23
 957 05b0 04       		.uleb128 0x4
 958 05b1 14       		.uleb128 0x14
 959 05b2 13040000 		.4byte	.LASF63
 960 05b6 08       		.byte	0x8
ARM GAS  /var/folders/ng/s8655sgx1ys_4lf9jzm2w6n00000gn/T//cc82Awlt.s 			page 18


 961 05b7 E804     		.2byte	0x4e8
 962 05b9 57000000 		.4byte	0x57
 963 05bd 02       		.byte	0x2
 964 05be 23       		.byte	0x23
 965 05bf 06       		.uleb128 0x6
 966 05c0 0C       		.uleb128 0xc
 967 05c1 535200   		.ascii	"SR\000"
 968 05c4 08       		.byte	0x8
 969 05c5 E904     		.2byte	0x4e9
 970 05c7 02050000 		.4byte	0x502
 971 05cb 02       		.byte	0x2
 972 05cc 23       		.byte	0x23
 973 05cd 08       		.uleb128 0x8
 974 05ce 14       		.uleb128 0x14
 975 05cf 1D040000 		.4byte	.LASF64
 976 05d3 08       		.byte	0x8
 977 05d4 EA04     		.2byte	0x4ea
 978 05d6 57000000 		.4byte	0x57
 979 05da 02       		.byte	0x2
 980 05db 23       		.byte	0x23
 981 05dc 0A       		.uleb128 0xa
 982 05dd 0C       		.uleb128 0xc
 983 05de 445200   		.ascii	"DR\000"
 984 05e1 08       		.byte	0x8
 985 05e2 EB04     		.2byte	0x4eb
 986 05e4 02050000 		.4byte	0x502
 987 05e8 02       		.byte	0x2
 988 05e9 23       		.byte	0x23
 989 05ea 0C       		.uleb128 0xc
 990 05eb 14       		.uleb128 0x14
 991 05ec 27040000 		.4byte	.LASF65
 992 05f0 08       		.byte	0x8
 993 05f1 EC04     		.2byte	0x4ec
 994 05f3 57000000 		.4byte	0x57
 995 05f7 02       		.byte	0x2
 996 05f8 23       		.byte	0x23
 997 05f9 0E       		.uleb128 0xe
 998 05fa 14       		.uleb128 0x14
 999 05fb B3000000 		.4byte	.LASF66
 1000 05ff 08       		.byte	0x8
 1001 0600 ED04     		.2byte	0x4ed
 1002 0602 02050000 		.4byte	0x502
 1003 0606 02       		.byte	0x2
 1004 0607 23       		.byte	0x23
 1005 0608 10       		.uleb128 0x10
 1006 0609 14       		.uleb128 0x14
 1007 060a 31040000 		.4byte	.LASF67
 1008 060e 08       		.byte	0x8
 1009 060f EE04     		.2byte	0x4ee
 1010 0611 57000000 		.4byte	0x57
 1011 0615 02       		.byte	0x2
 1012 0616 23       		.byte	0x23
 1013 0617 12       		.uleb128 0x12
 1014 0618 14       		.uleb128 0x14
 1015 0619 36000000 		.4byte	.LASF68
 1016 061d 08       		.byte	0x8
 1017 061e EF04     		.2byte	0x4ef
ARM GAS  /var/folders/ng/s8655sgx1ys_4lf9jzm2w6n00000gn/T//cc82Awlt.s 			page 19


 1018 0620 02050000 		.4byte	0x502
 1019 0624 02       		.byte	0x2
 1020 0625 23       		.byte	0x23
 1021 0626 14       		.uleb128 0x14
 1022 0627 14       		.uleb128 0x14
 1023 0628 29050000 		.4byte	.LASF69
 1024 062c 08       		.byte	0x8
 1025 062d F004     		.2byte	0x4f0
 1026 062f 57000000 		.4byte	0x57
 1027 0633 02       		.byte	0x2
 1028 0634 23       		.byte	0x23
 1029 0635 16       		.uleb128 0x16
 1030 0636 14       		.uleb128 0x14
 1031 0637 02040000 		.4byte	.LASF70
 1032 063b 08       		.byte	0x8
 1033 063c F104     		.2byte	0x4f1
 1034 063e 02050000 		.4byte	0x502
 1035 0642 02       		.byte	0x2
 1036 0643 23       		.byte	0x23
 1037 0644 18       		.uleb128 0x18
 1038 0645 14       		.uleb128 0x14
 1039 0646 42040000 		.4byte	.LASF71
 1040 064a 08       		.byte	0x8
 1041 064b F204     		.2byte	0x4f2
 1042 064d 57000000 		.4byte	0x57
 1043 0651 02       		.byte	0x2
 1044 0652 23       		.byte	0x23
 1045 0653 1A       		.uleb128 0x1a
 1046 0654 14       		.uleb128 0x14
 1047 0655 2B010000 		.4byte	.LASF72
 1048 0659 08       		.byte	0x8
 1049 065a F304     		.2byte	0x4f3
 1050 065c 02050000 		.4byte	0x502
 1051 0660 02       		.byte	0x2
 1052 0661 23       		.byte	0x23
 1053 0662 1C       		.uleb128 0x1c
 1054 0663 14       		.uleb128 0x14
 1055 0664 4C040000 		.4byte	.LASF73
 1056 0668 08       		.byte	0x8
 1057 0669 F404     		.2byte	0x4f4
 1058 066b 57000000 		.4byte	0x57
 1059 066f 02       		.byte	0x2
 1060 0670 23       		.byte	0x23
 1061 0671 1E       		.uleb128 0x1e
 1062 0672 14       		.uleb128 0x14
 1063 0673 8A030000 		.4byte	.LASF74
 1064 0677 08       		.byte	0x8
 1065 0678 F504     		.2byte	0x4f5
 1066 067a 02050000 		.4byte	0x502
 1067 067e 02       		.byte	0x2
 1068 067f 23       		.byte	0x23
 1069 0680 20       		.uleb128 0x20
 1070 0681 14       		.uleb128 0x14
 1071 0682 56040000 		.4byte	.LASF75
 1072 0686 08       		.byte	0x8
 1073 0687 F604     		.2byte	0x4f6
 1074 0689 57000000 		.4byte	0x57
ARM GAS  /var/folders/ng/s8655sgx1ys_4lf9jzm2w6n00000gn/T//cc82Awlt.s 			page 20


 1075 068d 02       		.byte	0x2
 1076 068e 23       		.byte	0x23
 1077 068f 22       		.uleb128 0x22
 1078 0690 00       		.byte	0
 1079 0691 15       		.uleb128 0x15
 1080 0692 4E050000 		.4byte	.LASF76
 1081 0696 08       		.byte	0x8
 1082 0697 F704     		.2byte	0x4f7
 1083 0699 7B050000 		.4byte	0x57b
 1084 069d 08       		.uleb128 0x8
 1085 069e 0C       		.byte	0xc
 1086 069f 09       		.byte	0x9
 1087 06a0 DA       		.byte	0xda
 1088 06a1 EC060000 		.4byte	0x6ec
 1089 06a5 06       		.uleb128 0x6
 1090 06a6 88000000 		.4byte	.LASF77
 1091 06aa 09       		.byte	0x9
 1092 06ab DB       		.byte	0xdb
 1093 06ac EC060000 		.4byte	0x6ec
 1094 06b0 02       		.byte	0x2
 1095 06b1 23       		.byte	0x23
 1096 06b2 00       		.uleb128 0
 1097 06b3 06       		.uleb128 0x6
 1098 06b4 24050000 		.4byte	.LASF78
 1099 06b8 09       		.byte	0x9
 1100 06b9 DC       		.byte	0xdc
 1101 06ba F2060000 		.4byte	0x6f2
 1102 06be 02       		.byte	0x2
 1103 06bf 23       		.byte	0x23
 1104 06c0 04       		.uleb128 0x4
 1105 06c1 06       		.uleb128 0x6
 1106 06c2 E8020000 		.4byte	.LASF79
 1107 06c6 09       		.byte	0x9
 1108 06c7 DD       		.byte	0xdd
 1109 06c8 3E000000 		.4byte	0x3e
 1110 06cc 02       		.byte	0x2
 1111 06cd 23       		.byte	0x23
 1112 06ce 08       		.uleb128 0x8
 1113 06cf 06       		.uleb128 0x6
 1114 06d0 57020000 		.4byte	.LASF80
 1115 06d4 09       		.byte	0x9
 1116 06d5 DF       		.byte	0xdf
 1117 06d6 3E000000 		.4byte	0x3e
 1118 06da 02       		.byte	0x2
 1119 06db 23       		.byte	0x23
 1120 06dc 09       		.uleb128 0x9
 1121 06dd 06       		.uleb128 0x6
 1122 06de 70060000 		.4byte	.LASF81
 1123 06e2 09       		.byte	0x9
 1124 06e3 E0       		.byte	0xe0
 1125 06e4 3E000000 		.4byte	0x3e
 1126 06e8 02       		.byte	0x2
 1127 06e9 23       		.byte	0x23
 1128 06ea 0A       		.uleb128 0xa
 1129 06eb 00       		.byte	0
 1130 06ec 09       		.uleb128 0x9
 1131 06ed 04       		.byte	0x4
ARM GAS  /var/folders/ng/s8655sgx1ys_4lf9jzm2w6n00000gn/T//cc82Awlt.s 			page 21


 1132 06ee 6F050000 		.4byte	0x56f
 1133 06f2 09       		.uleb128 0x9
 1134 06f3 04       		.byte	0x4
 1135 06f4 3B040000 		.4byte	0x43b
 1136 06f8 04       		.uleb128 0x4
 1137 06f9 8A040000 		.4byte	.LASF82
 1138 06fd 09       		.byte	0x9
 1139 06fe E1       		.byte	0xe1
 1140 06ff 9D060000 		.4byte	0x69d
 1141 0703 16       		.uleb128 0x16
 1142 0704 01       		.byte	0x1
 1143 0705 0A       		.byte	0xa
 1144 0706 33       		.byte	0x33
 1145 0707 42070000 		.4byte	0x742
 1146 070b 17       		.uleb128 0x17
 1147 070c 5D010000 		.4byte	.LASF83
 1148 0710 00       		.sleb128 0
 1149 0711 17       		.uleb128 0x17
 1150 0712 20020000 		.4byte	.LASF84
 1151 0716 01       		.sleb128 1
 1152 0717 17       		.uleb128 0x17
 1153 0718 16030000 		.4byte	.LASF85
 1154 071c 02       		.sleb128 2
 1155 071d 17       		.uleb128 0x17
 1156 071e 3D030000 		.4byte	.LASF86
 1157 0722 03       		.sleb128 3
 1158 0723 17       		.uleb128 0x17
 1159 0724 71050000 		.4byte	.LASF87
 1160 0728 04       		.sleb128 4
 1161 0729 17       		.uleb128 0x17
 1162 072a B9030000 		.4byte	.LASF88
 1163 072e 05       		.sleb128 5
 1164 072f 17       		.uleb128 0x17
 1165 0730 7E030000 		.4byte	.LASF89
 1166 0734 06       		.sleb128 6
 1167 0735 17       		.uleb128 0x17
 1168 0736 BE040000 		.4byte	.LASF90
 1169 073a 07       		.sleb128 7
 1170 073b 17       		.uleb128 0x17
 1171 073c AD030000 		.4byte	.LASF91
 1172 0740 08       		.sleb128 8
 1173 0741 00       		.byte	0
 1174 0742 04       		.uleb128 0x4
 1175 0743 F0000000 		.4byte	.LASF92
 1176 0747 0A       		.byte	0xa
 1177 0748 3D       		.byte	0x3d
 1178 0749 03070000 		.4byte	0x703
 1179 074d 08       		.uleb128 0x8
 1180 074e 08       		.byte	0x8
 1181 074f 0A       		.byte	0xa
 1182 0750 42       		.byte	0x42
 1183 0751 72070000 		.4byte	0x772
 1184 0755 06       		.uleb128 0x6
 1185 0756 6F020000 		.4byte	.LASF93
 1186 075a 0A       		.byte	0xa
 1187 075b 43       		.byte	0x43
 1188 075c 7B000000 		.4byte	0x7b
ARM GAS  /var/folders/ng/s8655sgx1ys_4lf9jzm2w6n00000gn/T//cc82Awlt.s 			page 22


 1189 0760 02       		.byte	0x2
 1190 0761 23       		.byte	0x23
 1191 0762 00       		.uleb128 0
 1192 0763 06       		.uleb128 0x6
 1193 0764 3D000000 		.4byte	.LASF94
 1194 0768 0A       		.byte	0xa
 1195 0769 44       		.byte	0x44
 1196 076a 7B000000 		.4byte	0x7b
 1197 076e 02       		.byte	0x2
 1198 076f 23       		.byte	0x23
 1199 0770 04       		.uleb128 0x4
 1200 0771 00       		.byte	0
 1201 0772 04       		.uleb128 0x4
 1202 0773 00000000 		.4byte	.LASF95
 1203 0777 0A       		.byte	0xa
 1204 0778 45       		.byte	0x45
 1205 0779 4D070000 		.4byte	0x74d
 1206 077d 18       		.uleb128 0x18
 1207 077e 01       		.byte	0x1
 1208 077f 9B000000 		.4byte	0x9b
 1209 0783 8D070000 		.4byte	0x78d
 1210 0787 19       		.uleb128 0x19
 1211 0788 98020000 		.4byte	0x298
 1212 078c 00       		.byte	0
 1213 078d 09       		.uleb128 0x9
 1214 078e 04       		.byte	0x4
 1215 078f 7D070000 		.4byte	0x77d
 1216 0793 18       		.uleb128 0x18
 1217 0794 01       		.byte	0x1
 1218 0795 9B000000 		.4byte	0x9b
 1219 0799 B2070000 		.4byte	0x7b2
 1220 079d 19       		.uleb128 0x19
 1221 079e 98020000 		.4byte	0x298
 1222 07a2 19       		.uleb128 0x19
 1223 07a3 7B000000 		.4byte	0x7b
 1224 07a7 19       		.uleb128 0x19
 1225 07a8 E1040000 		.4byte	0x4e1
 1226 07ac 19       		.uleb128 0x19
 1227 07ad 7B000000 		.4byte	0x7b
 1228 07b1 00       		.byte	0
 1229 07b2 09       		.uleb128 0x9
 1230 07b3 04       		.byte	0x4
 1231 07b4 93070000 		.4byte	0x793
 1232 07b8 18       		.uleb128 0x18
 1233 07b9 01       		.byte	0x1
 1234 07ba 9B000000 		.4byte	0x9b
 1235 07be D7070000 		.4byte	0x7d7
 1236 07c2 19       		.uleb128 0x19
 1237 07c3 98020000 		.4byte	0x298
 1238 07c7 19       		.uleb128 0x19
 1239 07c8 7B000000 		.4byte	0x7b
 1240 07cc 19       		.uleb128 0x19
 1241 07cd E7040000 		.4byte	0x4e7
 1242 07d1 19       		.uleb128 0x19
 1243 07d2 7B000000 		.4byte	0x7b
 1244 07d6 00       		.byte	0
 1245 07d7 09       		.uleb128 0x9
ARM GAS  /var/folders/ng/s8655sgx1ys_4lf9jzm2w6n00000gn/T//cc82Awlt.s 			page 23


 1246 07d8 04       		.byte	0x4
 1247 07d9 B8070000 		.4byte	0x7b8
 1248 07dd 18       		.uleb128 0x18
 1249 07de 01       		.byte	0x1
 1250 07df 9B000000 		.4byte	0x9b
 1251 07e3 F2070000 		.4byte	0x7f2
 1252 07e7 19       		.uleb128 0x19
 1253 07e8 98020000 		.4byte	0x298
 1254 07ec 19       		.uleb128 0x19
 1255 07ed F2070000 		.4byte	0x7f2
 1256 07f1 00       		.byte	0
 1257 07f2 09       		.uleb128 0x9
 1258 07f3 04       		.byte	0x4
 1259 07f4 72070000 		.4byte	0x772
 1260 07f8 09       		.uleb128 0x9
 1261 07f9 04       		.byte	0x4
 1262 07fa DD070000 		.4byte	0x7dd
 1263 07fe 08       		.uleb128 0x8
 1264 07ff 04       		.byte	0x4
 1265 0800 0B       		.byte	0xb
 1266 0801 96       		.byte	0x96
 1267 0802 23080000 		.4byte	0x823
 1268 0806 07       		.uleb128 0x7
 1269 0807 73657400 		.ascii	"set\000"
 1270 080b 0B       		.byte	0xb
 1271 080c 97       		.byte	0x97
 1272 080d 57000000 		.4byte	0x57
 1273 0811 02       		.byte	0x2
 1274 0812 23       		.byte	0x23
 1275 0813 00       		.uleb128 0
 1276 0814 06       		.uleb128 0x6
 1277 0815 99030000 		.4byte	.LASF96
 1278 0819 0B       		.byte	0xb
 1279 081a 98       		.byte	0x98
 1280 081b 57000000 		.4byte	0x57
 1281 081f 02       		.byte	0x2
 1282 0820 23       		.byte	0x23
 1283 0821 02       		.uleb128 0x2
 1284 0822 00       		.byte	0
 1285 0823 0E       		.uleb128 0xe
 1286 0824 04       		.byte	0x4
 1287 0825 0B       		.byte	0xb
 1288 0826 94       		.byte	0x94
 1289 0827 3E080000 		.4byte	0x83e
 1290 082b 1A       		.uleb128 0x1a
 1291 082c 5700     		.ascii	"W\000"
 1292 082e 0B       		.byte	0xb
 1293 082f 95       		.byte	0x95
 1294 0830 7B000000 		.4byte	0x7b
 1295 0834 1A       		.uleb128 0x1a
 1296 0835 4800     		.ascii	"H\000"
 1297 0837 0B       		.byte	0xb
 1298 0838 99       		.byte	0x99
 1299 0839 FE070000 		.4byte	0x7fe
 1300 083d 00       		.byte	0
 1301 083e 08       		.uleb128 0x8
 1302 083f 28       		.byte	0x28
ARM GAS  /var/folders/ng/s8655sgx1ys_4lf9jzm2w6n00000gn/T//cc82Awlt.s 			page 24


 1303 0840 0B       		.byte	0xb
 1304 0841 8C       		.byte	0x8c
 1305 0842 D3080000 		.4byte	0x8d3
 1306 0846 06       		.uleb128 0x6
 1307 0847 96000000 		.4byte	.LASF97
 1308 084b 0B       		.byte	0xb
 1309 084c 8E       		.byte	0x8e
 1310 084d 3B040000 		.4byte	0x43b
 1311 0851 02       		.byte	0x2
 1312 0852 23       		.byte	0x23
 1313 0853 00       		.uleb128 0
 1314 0854 06       		.uleb128 0x6
 1315 0855 59000000 		.4byte	.LASF98
 1316 0859 0B       		.byte	0xb
 1317 085a 8F       		.byte	0x8f
 1318 085b 3B040000 		.4byte	0x43b
 1319 085f 02       		.byte	0x2
 1320 0860 23       		.byte	0x23
 1321 0861 04       		.uleb128 0x4
 1322 0862 06       		.uleb128 0x6
 1323 0863 DA030000 		.4byte	.LASF99
 1324 0867 0B       		.byte	0xb
 1325 0868 90       		.byte	0x90
 1326 0869 3B040000 		.4byte	0x43b
 1327 086d 02       		.byte	0x2
 1328 086e 23       		.byte	0x23
 1329 086f 08       		.uleb128 0x8
 1330 0870 06       		.uleb128 0x6
 1331 0871 C3000000 		.4byte	.LASF100
 1332 0875 0B       		.byte	0xb
 1333 0876 91       		.byte	0x91
 1334 0877 3B040000 		.4byte	0x43b
 1335 087b 02       		.byte	0x2
 1336 087c 23       		.byte	0x23
 1337 087d 0C       		.uleb128 0xc
 1338 087e 07       		.uleb128 0x7
 1339 087f 49445200 		.ascii	"IDR\000"
 1340 0883 0B       		.byte	0xb
 1341 0884 92       		.byte	0x92
 1342 0885 3B040000 		.4byte	0x43b
 1343 0889 02       		.byte	0x2
 1344 088a 23       		.byte	0x23
 1345 088b 10       		.uleb128 0x10
 1346 088c 07       		.uleb128 0x7
 1347 088d 4F445200 		.ascii	"ODR\000"
 1348 0891 0B       		.byte	0xb
 1349 0892 93       		.byte	0x93
 1350 0893 3B040000 		.4byte	0x43b
 1351 0897 02       		.byte	0x2
 1352 0898 23       		.byte	0x23
 1353 0899 14       		.uleb128 0x14
 1354 089a 06       		.uleb128 0x6
 1355 089b 1C060000 		.4byte	.LASF101
 1356 089f 0B       		.byte	0xb
 1357 08a0 9A       		.byte	0x9a
 1358 08a1 D3080000 		.4byte	0x8d3
 1359 08a5 02       		.byte	0x2
ARM GAS  /var/folders/ng/s8655sgx1ys_4lf9jzm2w6n00000gn/T//cc82Awlt.s 			page 25


 1360 08a6 23       		.byte	0x23
 1361 08a7 18       		.uleb128 0x18
 1362 08a8 06       		.uleb128 0x6
 1363 08a9 E3020000 		.4byte	.LASF102
 1364 08ad 0B       		.byte	0xb
 1365 08ae 9B       		.byte	0x9b
 1366 08af 3B040000 		.4byte	0x43b
 1367 08b3 02       		.byte	0x2
 1368 08b4 23       		.byte	0x23
 1369 08b5 1C       		.uleb128 0x1c
 1370 08b6 06       		.uleb128 0x6
 1371 08b7 FD030000 		.4byte	.LASF103
 1372 08bb 0B       		.byte	0xb
 1373 08bc 9C       		.byte	0x9c
 1374 08bd 3B040000 		.4byte	0x43b
 1375 08c1 02       		.byte	0x2
 1376 08c2 23       		.byte	0x23
 1377 08c3 20       		.uleb128 0x20
 1378 08c4 06       		.uleb128 0x6
 1379 08c5 EE030000 		.4byte	.LASF104
 1380 08c9 0B       		.byte	0xb
 1381 08ca 9D       		.byte	0x9d
 1382 08cb 3B040000 		.4byte	0x43b
 1383 08cf 02       		.byte	0x2
 1384 08d0 23       		.byte	0x23
 1385 08d1 24       		.uleb128 0x24
 1386 08d2 00       		.byte	0
 1387 08d3 0D       		.uleb128 0xd
 1388 08d4 23080000 		.4byte	0x823
 1389 08d8 04       		.uleb128 0x4
 1390 08d9 04020000 		.4byte	.LASF105
 1391 08dd 0B       		.byte	0xb
 1392 08de 9E       		.byte	0x9e
 1393 08df 3E080000 		.4byte	0x83e
 1394 08e3 08       		.uleb128 0x8
 1395 08e4 1C       		.byte	0x1c
 1396 08e5 0B       		.byte	0xb
 1397 08e6 A3       		.byte	0xa3
 1398 08e7 4E090000 		.4byte	0x94e
 1399 08eb 06       		.uleb128 0x6
 1400 08ec 4D010000 		.4byte	.LASF106
 1401 08f0 0B       		.byte	0xb
 1402 08f1 A5       		.byte	0xa5
 1403 08f2 7B000000 		.4byte	0x7b
 1404 08f6 02       		.byte	0x2
 1405 08f7 23       		.byte	0x23
 1406 08f8 00       		.uleb128 0
 1407 08f9 06       		.uleb128 0x6
 1408 08fa 78000000 		.4byte	.LASF107
 1409 08fe 0B       		.byte	0xb
 1410 08ff A7       		.byte	0xa7
 1411 0900 7B000000 		.4byte	0x7b
 1412 0904 02       		.byte	0x2
 1413 0905 23       		.byte	0x23
 1414 0906 04       		.uleb128 0x4
 1415 0907 06       		.uleb128 0x6
 1416 0908 DB020000 		.4byte	.LASF108
ARM GAS  /var/folders/ng/s8655sgx1ys_4lf9jzm2w6n00000gn/T//cc82Awlt.s 			page 26


 1417 090c 0B       		.byte	0xb
 1418 090d A9       		.byte	0xa9
 1419 090e 7B000000 		.4byte	0x7b
 1420 0912 02       		.byte	0x2
 1421 0913 23       		.byte	0x23
 1422 0914 08       		.uleb128 0x8
 1423 0915 06       		.uleb128 0x6
 1424 0916 40060000 		.4byte	.LASF109
 1425 091a 0B       		.byte	0xb
 1426 091b AB       		.byte	0xab
 1427 091c 7B000000 		.4byte	0x7b
 1428 0920 02       		.byte	0x2
 1429 0921 23       		.byte	0x23
 1430 0922 0C       		.uleb128 0xc
 1431 0923 07       		.uleb128 0x7
 1432 0924 6F647200 		.ascii	"odr\000"
 1433 0928 0B       		.byte	0xb
 1434 0929 AD       		.byte	0xad
 1435 092a 7B000000 		.4byte	0x7b
 1436 092e 02       		.byte	0x2
 1437 092f 23       		.byte	0x23
 1438 0930 10       		.uleb128 0x10
 1439 0931 06       		.uleb128 0x6
 1440 0932 9D040000 		.4byte	.LASF110
 1441 0936 0B       		.byte	0xb
 1442 0937 AF       		.byte	0xaf
 1443 0938 7B000000 		.4byte	0x7b
 1444 093c 02       		.byte	0x2
 1445 093d 23       		.byte	0x23
 1446 093e 14       		.uleb128 0x14
 1447 093f 06       		.uleb128 0x6
 1448 0940 E2030000 		.4byte	.LASF111
 1449 0944 0B       		.byte	0xb
 1450 0945 B1       		.byte	0xb1
 1451 0946 7B000000 		.4byte	0x7b
 1452 094a 02       		.byte	0x2
 1453 094b 23       		.byte	0x23
 1454 094c 18       		.uleb128 0x18
 1455 094d 00       		.byte	0
 1456 094e 04       		.uleb128 0x4
 1457 094f 16000000 		.4byte	.LASF112
 1458 0953 0B       		.byte	0xb
 1459 0954 B2       		.byte	0xb2
 1460 0955 E3080000 		.4byte	0x8e3
 1461 0959 08       		.uleb128 0x8
 1462 095a FC       		.byte	0xfc
 1463 095b 0B       		.byte	0xb
 1464 095c BB       		.byte	0xbb
 1465 095d E4090000 		.4byte	0x9e4
 1466 0961 06       		.uleb128 0x6
 1467 0962 ED040000 		.4byte	.LASF113
 1468 0966 0B       		.byte	0xb
 1469 0967 BE       		.byte	0xbe
 1470 0968 4E090000 		.4byte	0x94e
 1471 096c 02       		.byte	0x2
 1472 096d 23       		.byte	0x23
 1473 096e 00       		.uleb128 0
ARM GAS  /var/folders/ng/s8655sgx1ys_4lf9jzm2w6n00000gn/T//cc82Awlt.s 			page 27


 1474 096f 06       		.uleb128 0x6
 1475 0970 89020000 		.4byte	.LASF114
 1476 0974 0B       		.byte	0xb
 1477 0975 C2       		.byte	0xc2
 1478 0976 4E090000 		.4byte	0x94e
 1479 097a 02       		.byte	0x2
 1480 097b 23       		.byte	0x23
 1481 097c 1C       		.uleb128 0x1c
 1482 097d 06       		.uleb128 0x6
 1483 097e 59060000 		.4byte	.LASF115
 1484 0982 0B       		.byte	0xb
 1485 0983 C6       		.byte	0xc6
 1486 0984 4E090000 		.4byte	0x94e
 1487 0988 02       		.byte	0x2
 1488 0989 23       		.byte	0x23
 1489 098a 38       		.uleb128 0x38
 1490 098b 06       		.uleb128 0x6
 1491 098c E7030000 		.4byte	.LASF116
 1492 0990 0B       		.byte	0xb
 1493 0991 CA       		.byte	0xca
 1494 0992 4E090000 		.4byte	0x94e
 1495 0996 02       		.byte	0x2
 1496 0997 23       		.byte	0x23
 1497 0998 54       		.uleb128 0x54
 1498 0999 06       		.uleb128 0x6
 1499 099a C0010000 		.4byte	.LASF117
 1500 099e 0B       		.byte	0xb
 1501 099f CE       		.byte	0xce
 1502 09a0 4E090000 		.4byte	0x94e
 1503 09a4 02       		.byte	0x2
 1504 09a5 23       		.byte	0x23
 1505 09a6 70       		.uleb128 0x70
 1506 09a7 06       		.uleb128 0x6
 1507 09a8 0F030000 		.4byte	.LASF118
 1508 09ac 0B       		.byte	0xb
 1509 09ad D2       		.byte	0xd2
 1510 09ae 4E090000 		.4byte	0x94e
 1511 09b2 03       		.byte	0x3
 1512 09b3 23       		.byte	0x23
 1513 09b4 8C01     		.uleb128 0x8c
 1514 09b6 06       		.uleb128 0x6
 1515 09b7 71030000 		.4byte	.LASF119
 1516 09bb 0B       		.byte	0xb
 1517 09bc D6       		.byte	0xd6
 1518 09bd 4E090000 		.4byte	0x94e
 1519 09c1 03       		.byte	0x3
 1520 09c2 23       		.byte	0x23
 1521 09c3 A801     		.uleb128 0xa8
 1522 09c5 06       		.uleb128 0x6
 1523 09c6 8F000000 		.4byte	.LASF120
 1524 09ca 0B       		.byte	0xb
 1525 09cb DA       		.byte	0xda
 1526 09cc 4E090000 		.4byte	0x94e
 1527 09d0 03       		.byte	0x3
 1528 09d1 23       		.byte	0x23
 1529 09d2 C401     		.uleb128 0xc4
 1530 09d4 06       		.uleb128 0x6
ARM GAS  /var/folders/ng/s8655sgx1ys_4lf9jzm2w6n00000gn/T//cc82Awlt.s 			page 28


 1531 09d5 0A050000 		.4byte	.LASF121
 1532 09d9 0B       		.byte	0xb
 1533 09da DE       		.byte	0xde
 1534 09db 4E090000 		.4byte	0x94e
 1535 09df 03       		.byte	0x3
 1536 09e0 23       		.byte	0x23
 1537 09e1 E001     		.uleb128 0xe0
 1538 09e3 00       		.byte	0
 1539 09e4 04       		.uleb128 0x4
 1540 09e5 77060000 		.4byte	.LASF122
 1541 09e9 0B       		.byte	0xb
 1542 09ea E0       		.byte	0xe0
 1543 09eb 59090000 		.4byte	0x959
 1544 09ef 04       		.uleb128 0x4
 1545 09f0 D5050000 		.4byte	.LASF123
 1546 09f4 0B       		.byte	0xb
 1547 09f5 FD       		.byte	0xfd
 1548 09f6 FA090000 		.4byte	0x9fa
 1549 09fa 09       		.uleb128 0x9
 1550 09fb 04       		.byte	0x4
 1551 09fc D8080000 		.4byte	0x8d8
 1552 0a00 09       		.uleb128 0x9
 1553 0a01 04       		.byte	0x4
 1554 0a02 060A0000 		.4byte	0xa06
 1555 0a06 10       		.uleb128 0x10
 1556 0a07 F8060000 		.4byte	0x6f8
 1557 0a0b 16       		.uleb128 0x16
 1558 0a0c 01       		.byte	0x1
 1559 0a0d 0C       		.byte	0xc
 1560 0a0e 55       		.byte	0x55
 1561 0a0f 320A0000 		.4byte	0xa32
 1562 0a13 17       		.uleb128 0x17
 1563 0a14 00060000 		.4byte	.LASF124
 1564 0a18 00       		.sleb128 0
 1565 0a19 17       		.uleb128 0x17
 1566 0a1a 22010000 		.4byte	.LASF125
 1567 0a1e 01       		.sleb128 1
 1568 0a1f 17       		.uleb128 0x17
 1569 0a20 B9000000 		.4byte	.LASF126
 1570 0a24 02       		.sleb128 2
 1571 0a25 17       		.uleb128 0x17
 1572 0a26 60000000 		.4byte	.LASF127
 1573 0a2a 03       		.sleb128 3
 1574 0a2b 17       		.uleb128 0x17
 1575 0a2c 64050000 		.4byte	.LASF128
 1576 0a30 04       		.sleb128 4
 1577 0a31 00       		.byte	0
 1578 0a32 04       		.uleb128 0x4
 1579 0a33 8F050000 		.4byte	.LASF129
 1580 0a37 0C       		.byte	0xc
 1581 0a38 5B       		.byte	0x5b
 1582 0a39 0B0A0000 		.4byte	0xa0b
 1583 0a3d 15       		.uleb128 0x15
 1584 0a3e D2000000 		.4byte	.LASF130
 1585 0a42 0D       		.byte	0xd
 1586 0a43 E701     		.2byte	0x1e7
 1587 0a45 490A0000 		.4byte	0xa49
ARM GAS  /var/folders/ng/s8655sgx1ys_4lf9jzm2w6n00000gn/T//cc82Awlt.s 			page 29


 1588 0a49 0B       		.uleb128 0xb
 1589 0a4a D2000000 		.4byte	.LASF130
 1590 0a4e 30       		.byte	0x30
 1591 0a4f 0D       		.byte	0xd
 1592 0a50 0B02     		.2byte	0x20b
 1593 0a52 DE0A0000 		.4byte	0xade
 1594 0a56 14       		.uleb128 0x14
 1595 0a57 B1010000 		.4byte	.LASF131
 1596 0a5b 0D       		.byte	0xd
 1597 0a5c 0F02     		.2byte	0x20f
 1598 0a5e 320A0000 		.4byte	0xa32
 1599 0a62 02       		.byte	0x2
 1600 0a63 23       		.byte	0x23
 1601 0a64 00       		.uleb128 0
 1602 0a65 14       		.uleb128 0x14
 1603 0a66 83050000 		.4byte	.LASF132
 1604 0a6a 0D       		.byte	0xd
 1605 0a6b 1302     		.2byte	0x213
 1606 0a6d 540B0000 		.4byte	0xb54
 1607 0a71 02       		.byte	0x2
 1608 0a72 23       		.byte	0x23
 1609 0a73 04       		.uleb128 0x4
 1610 0a74 14       		.uleb128 0x14
 1611 0a75 B6050000 		.4byte	.LASF133
 1612 0a79 0D       		.byte	0xd
 1613 0a7a 1802     		.2byte	0x218
 1614 0a7c 5A020000 		.4byte	0x25a
 1615 0a80 02       		.byte	0x2
 1616 0a81 23       		.byte	0x23
 1617 0a82 08       		.uleb128 0x8
 1618 0a83 14       		.uleb128 0x14
 1619 0a84 68040000 		.4byte	.LASF134
 1620 0a88 0D       		.byte	0xd
 1621 0a89 1F02     		.2byte	0x21f
 1622 0a8b 89040000 		.4byte	0x489
 1623 0a8f 02       		.byte	0x2
 1624 0a90 23       		.byte	0x23
 1625 0a91 0C       		.uleb128 0xc
 1626 0a92 0C       		.uleb128 0xc
 1627 0a93 73706900 		.ascii	"spi\000"
 1628 0a97 0D       		.byte	0xd
 1629 0a98 2B02     		.2byte	0x22b
 1630 0a9a 5F0B0000 		.4byte	0xb5f
 1631 0a9e 02       		.byte	0x2
 1632 0a9f 23       		.byte	0x23
 1633 0aa0 1C       		.uleb128 0x1c
 1634 0aa1 14       		.uleb128 0x14
 1635 0aa2 10000000 		.4byte	.LASF135
 1636 0aa6 0D       		.byte	0xd
 1637 0aa7 2F02     		.2byte	0x22f
 1638 0aa9 000A0000 		.4byte	0xa00
 1639 0aad 02       		.byte	0x2
 1640 0aae 23       		.byte	0x23
 1641 0aaf 20       		.uleb128 0x20
 1642 0ab0 14       		.uleb128 0x14
 1643 0ab1 1A020000 		.4byte	.LASF136
 1644 0ab5 0D       		.byte	0xd
ARM GAS  /var/folders/ng/s8655sgx1ys_4lf9jzm2w6n00000gn/T//cc82Awlt.s 			page 30


 1645 0ab6 3302     		.2byte	0x233
 1646 0ab8 000A0000 		.4byte	0xa00
 1647 0abc 02       		.byte	0x2
 1648 0abd 23       		.byte	0x23
 1649 0abe 24       		.uleb128 0x24
 1650 0abf 14       		.uleb128 0x14
 1651 0ac0 FA010000 		.4byte	.LASF137
 1652 0ac4 0D       		.byte	0xd
 1653 0ac5 3702     		.2byte	0x237
 1654 0ac7 7B000000 		.4byte	0x7b
 1655 0acb 02       		.byte	0x2
 1656 0acc 23       		.byte	0x23
 1657 0acd 28       		.uleb128 0x28
 1658 0ace 14       		.uleb128 0x14
 1659 0acf D0030000 		.4byte	.LASF138
 1660 0ad3 0D       		.byte	0xd
 1661 0ad4 3B02     		.2byte	0x23b
 1662 0ad6 7B000000 		.4byte	0x7b
 1663 0ada 02       		.byte	0x2
 1664 0adb 23       		.byte	0x23
 1665 0adc 2C       		.uleb128 0x2c
 1666 0add 00       		.byte	0
 1667 0ade 15       		.uleb128 0x15
 1668 0adf 61020000 		.4byte	.LASF139
 1669 0ae3 0D       		.byte	0xd
 1670 0ae4 EF01     		.2byte	0x1ef
 1671 0ae6 EA0A0000 		.4byte	0xaea
 1672 0aea 09       		.uleb128 0x9
 1673 0aeb 04       		.byte	0x4
 1674 0aec F00A0000 		.4byte	0xaf0
 1675 0af0 1B       		.uleb128 0x1b
 1676 0af1 01       		.byte	0x1
 1677 0af2 FC0A0000 		.4byte	0xafc
 1678 0af6 19       		.uleb128 0x19
 1679 0af7 FC0A0000 		.4byte	0xafc
 1680 0afb 00       		.byte	0
 1681 0afc 09       		.uleb128 0x9
 1682 0afd 04       		.byte	0x4
 1683 0afe 3D0A0000 		.4byte	0xa3d
 1684 0b02 13       		.uleb128 0x13
 1685 0b03 0C       		.byte	0xc
 1686 0b04 0D       		.byte	0xd
 1687 0b05 F401     		.2byte	0x1f4
 1688 0b07 480B0000 		.4byte	0xb48
 1689 0b0b 14       		.uleb128 0x14
 1690 0b0c F3010000 		.4byte	.LASF140
 1691 0b10 0D       		.byte	0xd
 1692 0b11 F801     		.2byte	0x1f8
 1693 0b13 DE0A0000 		.4byte	0xade
 1694 0b17 02       		.byte	0x2
 1695 0b18 23       		.byte	0x23
 1696 0b19 00       		.uleb128 0
 1697 0b1a 14       		.uleb128 0x14
 1698 0b1b DC000000 		.4byte	.LASF141
 1699 0b1f 0D       		.byte	0xd
 1700 0b20 FD01     		.2byte	0x1fd
 1701 0b22 EF090000 		.4byte	0x9ef
ARM GAS  /var/folders/ng/s8655sgx1ys_4lf9jzm2w6n00000gn/T//cc82Awlt.s 			page 31


 1702 0b26 02       		.byte	0x2
 1703 0b27 23       		.byte	0x23
 1704 0b28 04       		.uleb128 0x4
 1705 0b29 14       		.uleb128 0x14
 1706 0b2a 02010000 		.4byte	.LASF142
 1707 0b2e 0D       		.byte	0xd
 1708 0b2f 0102     		.2byte	0x201
 1709 0b31 57000000 		.4byte	0x57
 1710 0b35 02       		.byte	0x2
 1711 0b36 23       		.byte	0x23
 1712 0b37 08       		.uleb128 0x8
 1713 0b38 0C       		.uleb128 0xc
 1714 0b39 63723100 		.ascii	"cr1\000"
 1715 0b3d 0D       		.byte	0xd
 1716 0b3e 0502     		.2byte	0x205
 1717 0b40 57000000 		.4byte	0x57
 1718 0b44 02       		.byte	0x2
 1719 0b45 23       		.byte	0x23
 1720 0b46 0A       		.uleb128 0xa
 1721 0b47 00       		.byte	0
 1722 0b48 15       		.uleb128 0x15
 1723 0b49 60060000 		.4byte	.LASF143
 1724 0b4d 0D       		.byte	0xd
 1725 0b4e 0602     		.2byte	0x206
 1726 0b50 020B0000 		.4byte	0xb02
 1727 0b54 09       		.uleb128 0x9
 1728 0b55 04       		.byte	0x4
 1729 0b56 5A0B0000 		.4byte	0xb5a
 1730 0b5a 10       		.uleb128 0x10
 1731 0b5b 480B0000 		.4byte	0xb48
 1732 0b5f 09       		.uleb128 0x9
 1733 0b60 04       		.byte	0x4
 1734 0b61 91060000 		.4byte	0x691
 1735 0b65 08       		.uleb128 0x8
 1736 0b66 0C       		.byte	0xc
 1737 0b67 0E       		.byte	0xe
 1738 0b68 56       		.byte	0x56
 1739 0b69 980B0000 		.4byte	0xb98
 1740 0b6d 06       		.uleb128 0x6
 1741 0b6e 54030000 		.4byte	.LASF144
 1742 0b72 0E       		.byte	0xe
 1743 0b73 5A       		.byte	0x5a
 1744 0b74 FC0A0000 		.4byte	0xafc
 1745 0b78 02       		.byte	0x2
 1746 0b79 23       		.byte	0x23
 1747 0b7a 00       		.uleb128 0
 1748 0b7b 06       		.uleb128 0x6
 1749 0b7c 21030000 		.4byte	.LASF145
 1750 0b80 0E       		.byte	0xe
 1751 0b81 5E       		.byte	0x5e
 1752 0b82 540B0000 		.4byte	0xb54
 1753 0b86 02       		.byte	0x2
 1754 0b87 23       		.byte	0x23
 1755 0b88 04       		.uleb128 0x4
 1756 0b89 06       		.uleb128 0x6
 1757 0b8a 21060000 		.4byte	.LASF146
 1758 0b8e 0E       		.byte	0xe
ARM GAS  /var/folders/ng/s8655sgx1ys_4lf9jzm2w6n00000gn/T//cc82Awlt.s 			page 32


 1759 0b8f 62       		.byte	0x62
 1760 0b90 540B0000 		.4byte	0xb54
 1761 0b94 02       		.byte	0x2
 1762 0b95 23       		.byte	0x23
 1763 0b96 08       		.uleb128 0x8
 1764 0b97 00       		.byte	0
 1765 0b98 04       		.uleb128 0x4
 1766 0b99 F3030000 		.4byte	.LASF147
 1767 0b9d 0E       		.byte	0xe
 1768 0b9e 63       		.byte	0x63
 1769 0b9f 650B0000 		.4byte	0xb65
 1770 0ba3 05       		.uleb128 0x5
 1771 0ba4 6B000000 		.4byte	.LASF148
 1772 0ba8 20       		.byte	0x20
 1773 0ba9 0E       		.byte	0xe
 1774 0baa 70       		.byte	0x70
 1775 0bab 200C0000 		.4byte	0xc20
 1776 0baf 06       		.uleb128 0x6
 1777 0bb0 EF050000 		.4byte	.LASF149
 1778 0bb4 0E       		.byte	0xe
 1779 0bb5 71       		.byte	0x71
 1780 0bb6 8D070000 		.4byte	0x78d
 1781 0bba 02       		.byte	0x2
 1782 0bbb 23       		.byte	0x23
 1783 0bbc 00       		.uleb128 0
 1784 0bbd 06       		.uleb128 0x6
 1785 0bbe 4C000000 		.4byte	.LASF150
 1786 0bc2 0E       		.byte	0xe
 1787 0bc3 71       		.byte	0x71
 1788 0bc4 8D070000 		.4byte	0x78d
 1789 0bc8 02       		.byte	0x2
 1790 0bc9 23       		.byte	0x23
 1791 0bca 04       		.uleb128 0x4
 1792 0bcb 06       		.uleb128 0x6
 1793 0bcc 11050000 		.4byte	.LASF151
 1794 0bd0 0E       		.byte	0xe
 1795 0bd1 71       		.byte	0x71
 1796 0bd2 8D070000 		.4byte	0x78d
 1797 0bd6 02       		.byte	0x2
 1798 0bd7 23       		.byte	0x23
 1799 0bd8 08       		.uleb128 0x8
 1800 0bd9 06       		.uleb128 0x6
 1801 0bda 42010000 		.4byte	.LASF152
 1802 0bde 0E       		.byte	0xe
 1803 0bdf 71       		.byte	0x71
 1804 0be0 8D070000 		.4byte	0x78d
 1805 0be4 02       		.byte	0x2
 1806 0be5 23       		.byte	0x23
 1807 0be6 0C       		.uleb128 0xc
 1808 0be7 06       		.uleb128 0x6
 1809 0be8 5A050000 		.4byte	.LASF153
 1810 0bec 0E       		.byte	0xe
 1811 0bed 71       		.byte	0x71
 1812 0bee B2070000 		.4byte	0x7b2
 1813 0bf2 02       		.byte	0x2
 1814 0bf3 23       		.byte	0x23
 1815 0bf4 10       		.uleb128 0x10
ARM GAS  /var/folders/ng/s8655sgx1ys_4lf9jzm2w6n00000gn/T//cc82Awlt.s 			page 33


 1816 0bf5 06       		.uleb128 0x6
 1817 0bf6 78030000 		.4byte	.LASF154
 1818 0bfa 0E       		.byte	0xe
 1819 0bfb 71       		.byte	0x71
 1820 0bfc D7070000 		.4byte	0x7d7
 1821 0c00 02       		.byte	0x2
 1822 0c01 23       		.byte	0x23
 1823 0c02 14       		.uleb128 0x14
 1824 0c03 06       		.uleb128 0x6
 1825 0c04 46060000 		.4byte	.LASF155
 1826 0c08 0E       		.byte	0xe
 1827 0c09 71       		.byte	0x71
 1828 0c0a 8D070000 		.4byte	0x78d
 1829 0c0e 02       		.byte	0x2
 1830 0c0f 23       		.byte	0x23
 1831 0c10 18       		.uleb128 0x18
 1832 0c11 06       		.uleb128 0x6
 1833 0c12 11020000 		.4byte	.LASF156
 1834 0c16 0E       		.byte	0xe
 1835 0c17 71       		.byte	0x71
 1836 0c18 F8070000 		.4byte	0x7f8
 1837 0c1c 02       		.byte	0x2
 1838 0c1d 23       		.byte	0x23
 1839 0c1e 1C       		.uleb128 0x1c
 1840 0c1f 00       		.byte	0
 1841 0c20 08       		.uleb128 0x8
 1842 0c21 34       		.byte	0x34
 1843 0c22 0E       		.byte	0xe
 1844 0c23 79       		.byte	0x79
 1845 0c24 8B0C0000 		.4byte	0xc8b
 1846 0c28 07       		.uleb128 0x7
 1847 0c29 766D7400 		.ascii	"vmt\000"
 1848 0c2d 0E       		.byte	0xe
 1849 0c2e 7D       		.byte	0x7d
 1850 0c2f 8B0C0000 		.4byte	0xc8b
 1851 0c33 02       		.byte	0x2
 1852 0c34 23       		.byte	0x23
 1853 0c35 00       		.uleb128 0
 1854 0c36 06       		.uleb128 0x6
 1855 0c37 B1010000 		.4byte	.LASF131
 1856 0c3b 0E       		.byte	0xe
 1857 0c3c 7E       		.byte	0x7e
 1858 0c3d 42070000 		.4byte	0x742
 1859 0c41 02       		.byte	0x2
 1860 0c42 23       		.byte	0x23
 1861 0c43 04       		.uleb128 0x4
 1862 0c44 07       		.uleb128 0x7
 1863 0c45 63696400 		.ascii	"cid\000"
 1864 0c49 0E       		.byte	0xe
 1865 0c4a 7E       		.byte	0x7e
 1866 0c4b F2040000 		.4byte	0x4f2
 1867 0c4f 02       		.byte	0x2
 1868 0c50 23       		.byte	0x23
 1869 0c51 08       		.uleb128 0x8
 1870 0c52 07       		.uleb128 0x7
 1871 0c53 63736400 		.ascii	"csd\000"
 1872 0c57 0E       		.byte	0xe
ARM GAS  /var/folders/ng/s8655sgx1ys_4lf9jzm2w6n00000gn/T//cc82Awlt.s 			page 34


 1873 0c58 7E       		.byte	0x7e
 1874 0c59 F2040000 		.4byte	0x4f2
 1875 0c5d 02       		.byte	0x2
 1876 0c5e 23       		.byte	0x23
 1877 0c5f 18       		.uleb128 0x18
 1878 0c60 06       		.uleb128 0x6
 1879 0c61 7F000000 		.4byte	.LASF157
 1880 0c65 0E       		.byte	0xe
 1881 0c66 7E       		.byte	0x7e
 1882 0c67 7B000000 		.4byte	0x7b
 1883 0c6b 02       		.byte	0x2
 1884 0c6c 23       		.byte	0x23
 1885 0c6d 28       		.uleb128 0x28
 1886 0c6e 06       		.uleb128 0x6
 1887 0c6f 83050000 		.4byte	.LASF132
 1888 0c73 0E       		.byte	0xe
 1889 0c74 82       		.byte	0x82
 1890 0c75 960C0000 		.4byte	0xc96
 1891 0c79 02       		.byte	0x2
 1892 0c7a 23       		.byte	0x23
 1893 0c7b 2C       		.uleb128 0x2c
 1894 0c7c 06       		.uleb128 0x6
 1895 0c7d 27030000 		.4byte	.LASF158
 1896 0c81 0E       		.byte	0xe
 1897 0c82 86       		.byte	0x86
 1898 0c83 9B000000 		.4byte	0x9b
 1899 0c87 02       		.byte	0x2
 1900 0c88 23       		.byte	0x23
 1901 0c89 30       		.uleb128 0x30
 1902 0c8a 00       		.byte	0
 1903 0c8b 09       		.uleb128 0x9
 1904 0c8c 04       		.byte	0x4
 1905 0c8d 910C0000 		.4byte	0xc91
 1906 0c91 10       		.uleb128 0x10
 1907 0c92 A30B0000 		.4byte	0xba3
 1908 0c96 09       		.uleb128 0x9
 1909 0c97 04       		.byte	0x4
 1910 0c98 9C0C0000 		.4byte	0xc9c
 1911 0c9c 10       		.uleb128 0x10
 1912 0c9d 980B0000 		.4byte	0xb98
 1913 0ca1 04       		.uleb128 0x4
 1914 0ca2 0B060000 		.4byte	.LASF159
 1915 0ca6 0E       		.byte	0xe
 1916 0ca7 87       		.byte	0x87
 1917 0ca8 200C0000 		.4byte	0xc20
 1918 0cac 1C       		.uleb128 0x1c
 1919 0cad 01       		.byte	0x1
 1920 0cae D4040000 		.4byte	.LASF160
 1921 0cb2 01       		.byte	0x1
 1922 0cb3 47       		.byte	0x47
 1923 0cb4 01       		.byte	0x1
 1924 0cb5 9B000000 		.4byte	0x9b
 1925 0cb9 00000000 		.4byte	.LFB118
 1926 0cbd 04000000 		.4byte	.LFE118
 1927 0cc1 02       		.byte	0x2
 1928 0cc2 7D       		.byte	0x7d
 1929 0cc3 00       		.sleb128 0
ARM GAS  /var/folders/ng/s8655sgx1ys_4lf9jzm2w6n00000gn/T//cc82Awlt.s 			page 35


 1930 0cc4 01       		.byte	0x1
 1931 0cc5 D90C0000 		.4byte	0xcd9
 1932 0cc9 1D       		.uleb128 0x1d
 1933 0cca 8A050000 		.4byte	.LASF162
 1934 0cce 01       		.byte	0x1
 1935 0ccf 47       		.byte	0x47
 1936 0cd0 D90C0000 		.4byte	0xcd9
 1937 0cd4 00000000 		.4byte	.LLST0
 1938 0cd8 00       		.byte	0
 1939 0cd9 09       		.uleb128 0x9
 1940 0cda 04       		.byte	0x4
 1941 0cdb A10C0000 		.4byte	0xca1
 1942 0cdf 1C       		.uleb128 0x1c
 1943 0ce0 01       		.byte	0x1
 1944 0ce1 D0010000 		.4byte	.LASF161
 1945 0ce5 01       		.byte	0x1
 1946 0ce6 4F       		.byte	0x4f
 1947 0ce7 01       		.byte	0x1
 1948 0ce8 9B000000 		.4byte	0x9b
 1949 0cec 00000000 		.4byte	.LFB119
 1950 0cf0 04000000 		.4byte	.LFE119
 1951 0cf4 02       		.byte	0x2
 1952 0cf5 7D       		.byte	0x7d
 1953 0cf6 00       		.sleb128 0
 1954 0cf7 01       		.byte	0x1
 1955 0cf8 0C0D0000 		.4byte	0xd0c
 1956 0cfc 1D       		.uleb128 0x1d
 1957 0cfd 8A050000 		.4byte	.LASF162
 1958 0d01 01       		.byte	0x1
 1959 0d02 4F       		.byte	0x4f
 1960 0d03 D90C0000 		.4byte	0xcd9
 1961 0d07 21000000 		.4byte	.LLST1
 1962 0d0b 00       		.byte	0
 1963 0d0c 1E       		.uleb128 0x1e
 1964 0d0d 01       		.byte	0x1
 1965 0d0e EF020000 		.4byte	.LASF168
 1966 0d12 01       		.byte	0x1
 1967 0d13 5A       		.byte	0x5a
 1968 0d14 01       		.byte	0x1
 1969 0d15 00000000 		.4byte	.LFB120
 1970 0d19 04000000 		.4byte	.LFE120
 1971 0d1d 02       		.byte	0x2
 1972 0d1e 7D       		.byte	0x7d
 1973 0d1f 00       		.sleb128 0
 1974 0d20 01       		.byte	0x1
 1975 0d21 300D0000 		.4byte	0xd30
 1976 0d25 1F       		.uleb128 0x1f
 1977 0d26 04000000 		.4byte	.LVL4
 1978 0d2a 01       		.byte	0x1
 1979 0d2b 6A0D0000 		.4byte	0xd6a
 1980 0d2f 00       		.byte	0
 1981 0d30 20       		.uleb128 0x20
 1982 0d31 01       		.byte	0x1
 1983 0d32 2E060000 		.4byte	.LASF169
 1984 0d36 01       		.byte	0x1
 1985 0d37 62       		.byte	0x62
 1986 0d38 01       		.byte	0x1
ARM GAS  /var/folders/ng/s8655sgx1ys_4lf9jzm2w6n00000gn/T//cc82Awlt.s 			page 36


 1987 0d39 00000000 		.4byte	.LFB121
 1988 0d3d 02000000 		.4byte	.LFE121
 1989 0d41 02       		.byte	0x2
 1990 0d42 7D       		.byte	0x7d
 1991 0d43 00       		.sleb128 0
 1992 0d44 01       		.byte	0x1
 1993 0d45 21       		.uleb128 0x21
 1994 0d46 E3000000 		.4byte	.LASF163
 1995 0d4a 0F       		.byte	0xf
 1996 0d4b 9806     		.2byte	0x698
 1997 0d4d 07050000 		.4byte	0x507
 1998 0d51 01       		.byte	0x1
 1999 0d52 01       		.byte	0x1
 2000 0d53 22       		.uleb128 0x22
 2001 0d54 89060000 		.4byte	.LASF164
 2002 0d58 01       		.byte	0x1
 2003 0d59 25       		.byte	0x25
 2004 0d5a 650D0000 		.4byte	0xd65
 2005 0d5e 01       		.byte	0x1
 2006 0d5f 05       		.byte	0x5
 2007 0d60 03       		.byte	0x3
 2008 0d61 00000000 		.4byte	pal_default_config
 2009 0d65 10       		.uleb128 0x10
 2010 0d66 E4090000 		.4byte	0x9e4
 2011 0d6a 23       		.uleb128 0x23
 2012 0d6b 01       		.byte	0x1
 2013 0d6c 78020000 		.4byte	.LASF170
 2014 0d70 10       		.byte	0x10
 2015 0d71 CE06     		.2byte	0x6ce
 2016 0d73 01       		.byte	0x1
 2017 0d74 01       		.byte	0x1
 2018 0d75 00       		.byte	0
 2019              		.section	.debug_abbrev,"",%progbits
 2020              	.Ldebug_abbrev0:
 2021 0000 01       		.uleb128 0x1
 2022 0001 11       		.uleb128 0x11
 2023 0002 01       		.byte	0x1
 2024 0003 25       		.uleb128 0x25
 2025 0004 0E       		.uleb128 0xe
 2026 0005 13       		.uleb128 0x13
 2027 0006 0B       		.uleb128 0xb
 2028 0007 03       		.uleb128 0x3
 2029 0008 0E       		.uleb128 0xe
 2030 0009 1B       		.uleb128 0x1b
 2031 000a 0E       		.uleb128 0xe
 2032 000b 55       		.uleb128 0x55
 2033 000c 06       		.uleb128 0x6
 2034 000d 11       		.uleb128 0x11
 2035 000e 01       		.uleb128 0x1
 2036 000f 52       		.uleb128 0x52
 2037 0010 01       		.uleb128 0x1
 2038 0011 10       		.uleb128 0x10
 2039 0012 06       		.uleb128 0x6
 2040 0013 00       		.byte	0
 2041 0014 00       		.byte	0
 2042 0015 02       		.uleb128 0x2
 2043 0016 24       		.uleb128 0x24
ARM GAS  /var/folders/ng/s8655sgx1ys_4lf9jzm2w6n00000gn/T//cc82Awlt.s 			page 37


 2044 0017 00       		.byte	0
 2045 0018 0B       		.uleb128 0xb
 2046 0019 0B       		.uleb128 0xb
 2047 001a 3E       		.uleb128 0x3e
 2048 001b 0B       		.uleb128 0xb
 2049 001c 03       		.uleb128 0x3
 2050 001d 08       		.uleb128 0x8
 2051 001e 00       		.byte	0
 2052 001f 00       		.byte	0
 2053 0020 03       		.uleb128 0x3
 2054 0021 24       		.uleb128 0x24
 2055 0022 00       		.byte	0
 2056 0023 0B       		.uleb128 0xb
 2057 0024 0B       		.uleb128 0xb
 2058 0025 3E       		.uleb128 0x3e
 2059 0026 0B       		.uleb128 0xb
 2060 0027 03       		.uleb128 0x3
 2061 0028 0E       		.uleb128 0xe
 2062 0029 00       		.byte	0
 2063 002a 00       		.byte	0
 2064 002b 04       		.uleb128 0x4
 2065 002c 16       		.uleb128 0x16
 2066 002d 00       		.byte	0
 2067 002e 03       		.uleb128 0x3
 2068 002f 0E       		.uleb128 0xe
 2069 0030 3A       		.uleb128 0x3a
 2070 0031 0B       		.uleb128 0xb
 2071 0032 3B       		.uleb128 0x3b
 2072 0033 0B       		.uleb128 0xb
 2073 0034 49       		.uleb128 0x49
 2074 0035 13       		.uleb128 0x13
 2075 0036 00       		.byte	0
 2076 0037 00       		.byte	0
 2077 0038 05       		.uleb128 0x5
 2078 0039 13       		.uleb128 0x13
 2079 003a 01       		.byte	0x1
 2080 003b 03       		.uleb128 0x3
 2081 003c 0E       		.uleb128 0xe
 2082 003d 0B       		.uleb128 0xb
 2083 003e 0B       		.uleb128 0xb
 2084 003f 3A       		.uleb128 0x3a
 2085 0040 0B       		.uleb128 0xb
 2086 0041 3B       		.uleb128 0x3b
 2087 0042 0B       		.uleb128 0xb
 2088 0043 01       		.uleb128 0x1
 2089 0044 13       		.uleb128 0x13
 2090 0045 00       		.byte	0
 2091 0046 00       		.byte	0
 2092 0047 06       		.uleb128 0x6
 2093 0048 0D       		.uleb128 0xd
 2094 0049 00       		.byte	0
 2095 004a 03       		.uleb128 0x3
 2096 004b 0E       		.uleb128 0xe
 2097 004c 3A       		.uleb128 0x3a
 2098 004d 0B       		.uleb128 0xb
 2099 004e 3B       		.uleb128 0x3b
 2100 004f 0B       		.uleb128 0xb
ARM GAS  /var/folders/ng/s8655sgx1ys_4lf9jzm2w6n00000gn/T//cc82Awlt.s 			page 38


 2101 0050 49       		.uleb128 0x49
 2102 0051 13       		.uleb128 0x13
 2103 0052 38       		.uleb128 0x38
 2104 0053 0A       		.uleb128 0xa
 2105 0054 00       		.byte	0
 2106 0055 00       		.byte	0
 2107 0056 07       		.uleb128 0x7
 2108 0057 0D       		.uleb128 0xd
 2109 0058 00       		.byte	0
 2110 0059 03       		.uleb128 0x3
 2111 005a 08       		.uleb128 0x8
 2112 005b 3A       		.uleb128 0x3a
 2113 005c 0B       		.uleb128 0xb
 2114 005d 3B       		.uleb128 0x3b
 2115 005e 0B       		.uleb128 0xb
 2116 005f 49       		.uleb128 0x49
 2117 0060 13       		.uleb128 0x13
 2118 0061 38       		.uleb128 0x38
 2119 0062 0A       		.uleb128 0xa
 2120 0063 00       		.byte	0
 2121 0064 00       		.byte	0
 2122 0065 08       		.uleb128 0x8
 2123 0066 13       		.uleb128 0x13
 2124 0067 01       		.byte	0x1
 2125 0068 0B       		.uleb128 0xb
 2126 0069 0B       		.uleb128 0xb
 2127 006a 3A       		.uleb128 0x3a
 2128 006b 0B       		.uleb128 0xb
 2129 006c 3B       		.uleb128 0x3b
 2130 006d 0B       		.uleb128 0xb
 2131 006e 01       		.uleb128 0x1
 2132 006f 13       		.uleb128 0x13
 2133 0070 00       		.byte	0
 2134 0071 00       		.byte	0
 2135 0072 09       		.uleb128 0x9
 2136 0073 0F       		.uleb128 0xf
 2137 0074 00       		.byte	0
 2138 0075 0B       		.uleb128 0xb
 2139 0076 0B       		.uleb128 0xb
 2140 0077 49       		.uleb128 0x49
 2141 0078 13       		.uleb128 0x13
 2142 0079 00       		.byte	0
 2143 007a 00       		.byte	0
 2144 007b 0A       		.uleb128 0xa
 2145 007c 0F       		.uleb128 0xf
 2146 007d 00       		.byte	0
 2147 007e 0B       		.uleb128 0xb
 2148 007f 0B       		.uleb128 0xb
 2149 0080 00       		.byte	0
 2150 0081 00       		.byte	0
 2151 0082 0B       		.uleb128 0xb
 2152 0083 13       		.uleb128 0x13
 2153 0084 01       		.byte	0x1
 2154 0085 03       		.uleb128 0x3
 2155 0086 0E       		.uleb128 0xe
 2156 0087 0B       		.uleb128 0xb
 2157 0088 0B       		.uleb128 0xb
ARM GAS  /var/folders/ng/s8655sgx1ys_4lf9jzm2w6n00000gn/T//cc82Awlt.s 			page 39


 2158 0089 3A       		.uleb128 0x3a
 2159 008a 0B       		.uleb128 0xb
 2160 008b 3B       		.uleb128 0x3b
 2161 008c 05       		.uleb128 0x5
 2162 008d 01       		.uleb128 0x1
 2163 008e 13       		.uleb128 0x13
 2164 008f 00       		.byte	0
 2165 0090 00       		.byte	0
 2166 0091 0C       		.uleb128 0xc
 2167 0092 0D       		.uleb128 0xd
 2168 0093 00       		.byte	0
 2169 0094 03       		.uleb128 0x3
 2170 0095 08       		.uleb128 0x8
 2171 0096 3A       		.uleb128 0x3a
 2172 0097 0B       		.uleb128 0xb
 2173 0098 3B       		.uleb128 0x3b
 2174 0099 05       		.uleb128 0x5
 2175 009a 49       		.uleb128 0x49
 2176 009b 13       		.uleb128 0x13
 2177 009c 38       		.uleb128 0x38
 2178 009d 0A       		.uleb128 0xa
 2179 009e 00       		.byte	0
 2180 009f 00       		.byte	0
 2181 00a0 0D       		.uleb128 0xd
 2182 00a1 35       		.uleb128 0x35
 2183 00a2 00       		.byte	0
 2184 00a3 49       		.uleb128 0x49
 2185 00a4 13       		.uleb128 0x13
 2186 00a5 00       		.byte	0
 2187 00a6 00       		.byte	0
 2188 00a7 0E       		.uleb128 0xe
 2189 00a8 17       		.uleb128 0x17
 2190 00a9 01       		.byte	0x1
 2191 00aa 0B       		.uleb128 0xb
 2192 00ab 0B       		.uleb128 0xb
 2193 00ac 3A       		.uleb128 0x3a
 2194 00ad 0B       		.uleb128 0xb
 2195 00ae 3B       		.uleb128 0x3b
 2196 00af 0B       		.uleb128 0xb
 2197 00b0 01       		.uleb128 0x1
 2198 00b1 13       		.uleb128 0x13
 2199 00b2 00       		.byte	0
 2200 00b3 00       		.byte	0
 2201 00b4 0F       		.uleb128 0xf
 2202 00b5 0D       		.uleb128 0xd
 2203 00b6 00       		.byte	0
 2204 00b7 03       		.uleb128 0x3
 2205 00b8 0E       		.uleb128 0xe
 2206 00b9 3A       		.uleb128 0x3a
 2207 00ba 0B       		.uleb128 0xb
 2208 00bb 3B       		.uleb128 0x3b
 2209 00bc 0B       		.uleb128 0xb
 2210 00bd 49       		.uleb128 0x49
 2211 00be 13       		.uleb128 0x13
 2212 00bf 00       		.byte	0
 2213 00c0 00       		.byte	0
 2214 00c1 10       		.uleb128 0x10
ARM GAS  /var/folders/ng/s8655sgx1ys_4lf9jzm2w6n00000gn/T//cc82Awlt.s 			page 40


 2215 00c2 26       		.uleb128 0x26
 2216 00c3 00       		.byte	0
 2217 00c4 49       		.uleb128 0x49
 2218 00c5 13       		.uleb128 0x13
 2219 00c6 00       		.byte	0
 2220 00c7 00       		.byte	0
 2221 00c8 11       		.uleb128 0x11
 2222 00c9 01       		.uleb128 0x1
 2223 00ca 01       		.byte	0x1
 2224 00cb 49       		.uleb128 0x49
 2225 00cc 13       		.uleb128 0x13
 2226 00cd 01       		.uleb128 0x1
 2227 00ce 13       		.uleb128 0x13
 2228 00cf 00       		.byte	0
 2229 00d0 00       		.byte	0
 2230 00d1 12       		.uleb128 0x12
 2231 00d2 21       		.uleb128 0x21
 2232 00d3 00       		.byte	0
 2233 00d4 49       		.uleb128 0x49
 2234 00d5 13       		.uleb128 0x13
 2235 00d6 2F       		.uleb128 0x2f
 2236 00d7 0B       		.uleb128 0xb
 2237 00d8 00       		.byte	0
 2238 00d9 00       		.byte	0
 2239 00da 13       		.uleb128 0x13
 2240 00db 13       		.uleb128 0x13
 2241 00dc 01       		.byte	0x1
 2242 00dd 0B       		.uleb128 0xb
 2243 00de 0B       		.uleb128 0xb
 2244 00df 3A       		.uleb128 0x3a
 2245 00e0 0B       		.uleb128 0xb
 2246 00e1 3B       		.uleb128 0x3b
 2247 00e2 05       		.uleb128 0x5
 2248 00e3 01       		.uleb128 0x1
 2249 00e4 13       		.uleb128 0x13
 2250 00e5 00       		.byte	0
 2251 00e6 00       		.byte	0
 2252 00e7 14       		.uleb128 0x14
 2253 00e8 0D       		.uleb128 0xd
 2254 00e9 00       		.byte	0
 2255 00ea 03       		.uleb128 0x3
 2256 00eb 0E       		.uleb128 0xe
 2257 00ec 3A       		.uleb128 0x3a
 2258 00ed 0B       		.uleb128 0xb
 2259 00ee 3B       		.uleb128 0x3b
 2260 00ef 05       		.uleb128 0x5
 2261 00f0 49       		.uleb128 0x49
 2262 00f1 13       		.uleb128 0x13
 2263 00f2 38       		.uleb128 0x38
 2264 00f3 0A       		.uleb128 0xa
 2265 00f4 00       		.byte	0
 2266 00f5 00       		.byte	0
 2267 00f6 15       		.uleb128 0x15
 2268 00f7 16       		.uleb128 0x16
 2269 00f8 00       		.byte	0
 2270 00f9 03       		.uleb128 0x3
 2271 00fa 0E       		.uleb128 0xe
ARM GAS  /var/folders/ng/s8655sgx1ys_4lf9jzm2w6n00000gn/T//cc82Awlt.s 			page 41


 2272 00fb 3A       		.uleb128 0x3a
 2273 00fc 0B       		.uleb128 0xb
 2274 00fd 3B       		.uleb128 0x3b
 2275 00fe 05       		.uleb128 0x5
 2276 00ff 49       		.uleb128 0x49
 2277 0100 13       		.uleb128 0x13
 2278 0101 00       		.byte	0
 2279 0102 00       		.byte	0
 2280 0103 16       		.uleb128 0x16
 2281 0104 04       		.uleb128 0x4
 2282 0105 01       		.byte	0x1
 2283 0106 0B       		.uleb128 0xb
 2284 0107 0B       		.uleb128 0xb
 2285 0108 3A       		.uleb128 0x3a
 2286 0109 0B       		.uleb128 0xb
 2287 010a 3B       		.uleb128 0x3b
 2288 010b 0B       		.uleb128 0xb
 2289 010c 01       		.uleb128 0x1
 2290 010d 13       		.uleb128 0x13
 2291 010e 00       		.byte	0
 2292 010f 00       		.byte	0
 2293 0110 17       		.uleb128 0x17
 2294 0111 28       		.uleb128 0x28
 2295 0112 00       		.byte	0
 2296 0113 03       		.uleb128 0x3
 2297 0114 0E       		.uleb128 0xe
 2298 0115 1C       		.uleb128 0x1c
 2299 0116 0D       		.uleb128 0xd
 2300 0117 00       		.byte	0
 2301 0118 00       		.byte	0
 2302 0119 18       		.uleb128 0x18
 2303 011a 15       		.uleb128 0x15
 2304 011b 01       		.byte	0x1
 2305 011c 27       		.uleb128 0x27
 2306 011d 0C       		.uleb128 0xc
 2307 011e 49       		.uleb128 0x49
 2308 011f 13       		.uleb128 0x13
 2309 0120 01       		.uleb128 0x1
 2310 0121 13       		.uleb128 0x13
 2311 0122 00       		.byte	0
 2312 0123 00       		.byte	0
 2313 0124 19       		.uleb128 0x19
 2314 0125 05       		.uleb128 0x5
 2315 0126 00       		.byte	0
 2316 0127 49       		.uleb128 0x49
 2317 0128 13       		.uleb128 0x13
 2318 0129 00       		.byte	0
 2319 012a 00       		.byte	0
 2320 012b 1A       		.uleb128 0x1a
 2321 012c 0D       		.uleb128 0xd
 2322 012d 00       		.byte	0
 2323 012e 03       		.uleb128 0x3
 2324 012f 08       		.uleb128 0x8
 2325 0130 3A       		.uleb128 0x3a
 2326 0131 0B       		.uleb128 0xb
 2327 0132 3B       		.uleb128 0x3b
 2328 0133 0B       		.uleb128 0xb
ARM GAS  /var/folders/ng/s8655sgx1ys_4lf9jzm2w6n00000gn/T//cc82Awlt.s 			page 42


 2329 0134 49       		.uleb128 0x49
 2330 0135 13       		.uleb128 0x13
 2331 0136 00       		.byte	0
 2332 0137 00       		.byte	0
 2333 0138 1B       		.uleb128 0x1b
 2334 0139 15       		.uleb128 0x15
 2335 013a 01       		.byte	0x1
 2336 013b 27       		.uleb128 0x27
 2337 013c 0C       		.uleb128 0xc
 2338 013d 01       		.uleb128 0x1
 2339 013e 13       		.uleb128 0x13
 2340 013f 00       		.byte	0
 2341 0140 00       		.byte	0
 2342 0141 1C       		.uleb128 0x1c
 2343 0142 2E       		.uleb128 0x2e
 2344 0143 01       		.byte	0x1
 2345 0144 3F       		.uleb128 0x3f
 2346 0145 0C       		.uleb128 0xc
 2347 0146 03       		.uleb128 0x3
 2348 0147 0E       		.uleb128 0xe
 2349 0148 3A       		.uleb128 0x3a
 2350 0149 0B       		.uleb128 0xb
 2351 014a 3B       		.uleb128 0x3b
 2352 014b 0B       		.uleb128 0xb
 2353 014c 27       		.uleb128 0x27
 2354 014d 0C       		.uleb128 0xc
 2355 014e 49       		.uleb128 0x49
 2356 014f 13       		.uleb128 0x13
 2357 0150 11       		.uleb128 0x11
 2358 0151 01       		.uleb128 0x1
 2359 0152 12       		.uleb128 0x12
 2360 0153 01       		.uleb128 0x1
 2361 0154 40       		.uleb128 0x40
 2362 0155 0A       		.uleb128 0xa
 2363 0156 9742     		.uleb128 0x2117
 2364 0158 0C       		.uleb128 0xc
 2365 0159 01       		.uleb128 0x1
 2366 015a 13       		.uleb128 0x13
 2367 015b 00       		.byte	0
 2368 015c 00       		.byte	0
 2369 015d 1D       		.uleb128 0x1d
 2370 015e 05       		.uleb128 0x5
 2371 015f 00       		.byte	0
 2372 0160 03       		.uleb128 0x3
 2373 0161 0E       		.uleb128 0xe
 2374 0162 3A       		.uleb128 0x3a
 2375 0163 0B       		.uleb128 0xb
 2376 0164 3B       		.uleb128 0x3b
 2377 0165 0B       		.uleb128 0xb
 2378 0166 49       		.uleb128 0x49
 2379 0167 13       		.uleb128 0x13
 2380 0168 02       		.uleb128 0x2
 2381 0169 06       		.uleb128 0x6
 2382 016a 00       		.byte	0
 2383 016b 00       		.byte	0
 2384 016c 1E       		.uleb128 0x1e
 2385 016d 2E       		.uleb128 0x2e
ARM GAS  /var/folders/ng/s8655sgx1ys_4lf9jzm2w6n00000gn/T//cc82Awlt.s 			page 43


 2386 016e 01       		.byte	0x1
 2387 016f 3F       		.uleb128 0x3f
 2388 0170 0C       		.uleb128 0xc
 2389 0171 03       		.uleb128 0x3
 2390 0172 0E       		.uleb128 0xe
 2391 0173 3A       		.uleb128 0x3a
 2392 0174 0B       		.uleb128 0xb
 2393 0175 3B       		.uleb128 0x3b
 2394 0176 0B       		.uleb128 0xb
 2395 0177 27       		.uleb128 0x27
 2396 0178 0C       		.uleb128 0xc
 2397 0179 11       		.uleb128 0x11
 2398 017a 01       		.uleb128 0x1
 2399 017b 12       		.uleb128 0x12
 2400 017c 01       		.uleb128 0x1
 2401 017d 40       		.uleb128 0x40
 2402 017e 0A       		.uleb128 0xa
 2403 017f 9742     		.uleb128 0x2117
 2404 0181 0C       		.uleb128 0xc
 2405 0182 01       		.uleb128 0x1
 2406 0183 13       		.uleb128 0x13
 2407 0184 00       		.byte	0
 2408 0185 00       		.byte	0
 2409 0186 1F       		.uleb128 0x1f
 2410 0187 898201   		.uleb128 0x4109
 2411 018a 00       		.byte	0
 2412 018b 11       		.uleb128 0x11
 2413 018c 01       		.uleb128 0x1
 2414 018d 9542     		.uleb128 0x2115
 2415 018f 0C       		.uleb128 0xc
 2416 0190 31       		.uleb128 0x31
 2417 0191 13       		.uleb128 0x13
 2418 0192 00       		.byte	0
 2419 0193 00       		.byte	0
 2420 0194 20       		.uleb128 0x20
 2421 0195 2E       		.uleb128 0x2e
 2422 0196 00       		.byte	0
 2423 0197 3F       		.uleb128 0x3f
 2424 0198 0C       		.uleb128 0xc
 2425 0199 03       		.uleb128 0x3
 2426 019a 0E       		.uleb128 0xe
 2427 019b 3A       		.uleb128 0x3a
 2428 019c 0B       		.uleb128 0xb
 2429 019d 3B       		.uleb128 0x3b
 2430 019e 0B       		.uleb128 0xb
 2431 019f 27       		.uleb128 0x27
 2432 01a0 0C       		.uleb128 0xc
 2433 01a1 11       		.uleb128 0x11
 2434 01a2 01       		.uleb128 0x1
 2435 01a3 12       		.uleb128 0x12
 2436 01a4 01       		.uleb128 0x1
 2437 01a5 40       		.uleb128 0x40
 2438 01a6 0A       		.uleb128 0xa
 2439 01a7 9742     		.uleb128 0x2117
 2440 01a9 0C       		.uleb128 0xc
 2441 01aa 00       		.byte	0
 2442 01ab 00       		.byte	0
ARM GAS  /var/folders/ng/s8655sgx1ys_4lf9jzm2w6n00000gn/T//cc82Awlt.s 			page 44


 2443 01ac 21       		.uleb128 0x21
 2444 01ad 34       		.uleb128 0x34
 2445 01ae 00       		.byte	0
 2446 01af 03       		.uleb128 0x3
 2447 01b0 0E       		.uleb128 0xe
 2448 01b1 3A       		.uleb128 0x3a
 2449 01b2 0B       		.uleb128 0xb
 2450 01b3 3B       		.uleb128 0x3b
 2451 01b4 05       		.uleb128 0x5
 2452 01b5 49       		.uleb128 0x49
 2453 01b6 13       		.uleb128 0x13
 2454 01b7 3F       		.uleb128 0x3f
 2455 01b8 0C       		.uleb128 0xc
 2456 01b9 3C       		.uleb128 0x3c
 2457 01ba 0C       		.uleb128 0xc
 2458 01bb 00       		.byte	0
 2459 01bc 00       		.byte	0
 2460 01bd 22       		.uleb128 0x22
 2461 01be 34       		.uleb128 0x34
 2462 01bf 00       		.byte	0
 2463 01c0 03       		.uleb128 0x3
 2464 01c1 0E       		.uleb128 0xe
 2465 01c2 3A       		.uleb128 0x3a
 2466 01c3 0B       		.uleb128 0xb
 2467 01c4 3B       		.uleb128 0x3b
 2468 01c5 0B       		.uleb128 0xb
 2469 01c6 49       		.uleb128 0x49
 2470 01c7 13       		.uleb128 0x13
 2471 01c8 3F       		.uleb128 0x3f
 2472 01c9 0C       		.uleb128 0xc
 2473 01ca 02       		.uleb128 0x2
 2474 01cb 0A       		.uleb128 0xa
 2475 01cc 00       		.byte	0
 2476 01cd 00       		.byte	0
 2477 01ce 23       		.uleb128 0x23
 2478 01cf 2E       		.uleb128 0x2e
 2479 01d0 00       		.byte	0
 2480 01d1 3F       		.uleb128 0x3f
 2481 01d2 0C       		.uleb128 0xc
 2482 01d3 03       		.uleb128 0x3
 2483 01d4 0E       		.uleb128 0xe
 2484 01d5 3A       		.uleb128 0x3a
 2485 01d6 0B       		.uleb128 0xb
 2486 01d7 3B       		.uleb128 0x3b
 2487 01d8 05       		.uleb128 0x5
 2488 01d9 27       		.uleb128 0x27
 2489 01da 0C       		.uleb128 0xc
 2490 01db 3C       		.uleb128 0x3c
 2491 01dc 0C       		.uleb128 0xc
 2492 01dd 00       		.byte	0
 2493 01de 00       		.byte	0
 2494 01df 00       		.byte	0
 2495              		.section	.debug_loc,"",%progbits
 2496              	.Ldebug_loc0:
 2497              	.LLST0:
 2498 0000 00000000 		.4byte	.LVL0
 2499 0004 02000000 		.4byte	.LVL1
ARM GAS  /var/folders/ng/s8655sgx1ys_4lf9jzm2w6n00000gn/T//cc82Awlt.s 			page 45


 2500 0008 0100     		.2byte	0x1
 2501 000a 50       		.byte	0x50
 2502 000b 02000000 		.4byte	.LVL1
 2503 000f 04000000 		.4byte	.LFE118
 2504 0013 0400     		.2byte	0x4
 2505 0015 F3       		.byte	0xf3
 2506 0016 01       		.uleb128 0x1
 2507 0017 50       		.byte	0x50
 2508 0018 9F       		.byte	0x9f
 2509 0019 00000000 		.4byte	0
 2510 001d 00000000 		.4byte	0
 2511              	.LLST1:
 2512 0021 00000000 		.4byte	.LVL2
 2513 0025 02000000 		.4byte	.LVL3
 2514 0029 0100     		.2byte	0x1
 2515 002b 50       		.byte	0x50
 2516 002c 02000000 		.4byte	.LVL3
 2517 0030 04000000 		.4byte	.LFE119
 2518 0034 0400     		.2byte	0x4
 2519 0036 F3       		.byte	0xf3
 2520 0037 01       		.uleb128 0x1
 2521 0038 50       		.byte	0x50
 2522 0039 9F       		.byte	0x9f
 2523 003a 00000000 		.4byte	0
 2524 003e 00000000 		.4byte	0
 2525              		.section	.debug_aranges,"",%progbits
 2526 0000 34000000 		.4byte	0x34
 2527 0004 0200     		.2byte	0x2
 2528 0006 00000000 		.4byte	.Ldebug_info0
 2529 000a 04       		.byte	0x4
 2530 000b 00       		.byte	0
 2531 000c 0000     		.2byte	0
 2532 000e 0000     		.2byte	0
 2533 0010 00000000 		.4byte	.LFB118
 2534 0014 04000000 		.4byte	.LFE118-.LFB118
 2535 0018 00000000 		.4byte	.LFB119
 2536 001c 04000000 		.4byte	.LFE119-.LFB119
 2537 0020 00000000 		.4byte	.LFB120
 2538 0024 04000000 		.4byte	.LFE120-.LFB120
 2539 0028 00000000 		.4byte	.LFB121
 2540 002c 02000000 		.4byte	.LFE121-.LFB121
 2541 0030 00000000 		.4byte	0
 2542 0034 00000000 		.4byte	0
 2543              		.section	.debug_ranges,"",%progbits
 2544              	.Ldebug_ranges0:
 2545 0000 00000000 		.4byte	.LFB118
 2546 0004 04000000 		.4byte	.LFE118
 2547 0008 00000000 		.4byte	.LFB119
 2548 000c 04000000 		.4byte	.LFE119
 2549 0010 00000000 		.4byte	.LFB120
 2550 0014 04000000 		.4byte	.LFE120
 2551 0018 00000000 		.4byte	.LFB121
 2552 001c 02000000 		.4byte	.LFE121
 2553 0020 00000000 		.4byte	0
 2554 0024 00000000 		.4byte	0
 2555              		.section	.debug_line,"",%progbits
 2556              	.Ldebug_line0:
ARM GAS  /var/folders/ng/s8655sgx1ys_4lf9jzm2w6n00000gn/T//cc82Awlt.s 			page 46


 2557 0000 02030000 		.section	.debug_str,"MS",%progbits,1
 2557      0200B802 
 2557      00000201 
 2557      FB0E0D00 
 2557      01010101 
 2558              	.LASF95:
 2559 0000 426C6F63 		.ascii	"BlockDeviceInfo\000"
 2559      6B446576 
 2559      69636549 
 2559      6E666F00 
 2560              	.LASF135:
 2561 0010 646D6172 		.ascii	"dmarx\000"
 2561      7800
 2562              	.LASF112:
 2563 0016 73746D33 		.ascii	"stm32_gpio_setup_t\000"
 2563      325F6770 
 2563      696F5F73 
 2563      65747570 
 2563      5F7400
 2564              	.LASF17:
 2565 0029 74726566 		.ascii	"trefs_t\000"
 2565      735F7400 
 2566              	.LASF59:
 2567 0031 4D304152 		.ascii	"M0AR\000"
 2567      00
 2568              	.LASF68:
 2569 0036 52584352 		.ascii	"RXCRCR\000"
 2569      435200
 2570              	.LASF94:
 2571 003d 626C6B5F 		.ascii	"blk_num\000"
 2571      6E756D00 
 2572              	.LASF53:
 2573 0045 7264796D 		.ascii	"rdymsg\000"
 2573      736700
 2574              	.LASF150:
 2575 004c 69735F70 		.ascii	"is_protected\000"
 2575      726F7465 
 2575      63746564 
 2575      00
 2576              	.LASF98:
 2577 0059 4F545950 		.ascii	"OTYPER\000"
 2577      455200
 2578              	.LASF127:
 2579 0060 5350495F 		.ascii	"SPI_ACTIVE\000"
 2579      41435449 
 2579      564500
 2580              	.LASF148:
 2581 006b 4D4D4344 		.ascii	"MMCDriverVMT\000"
 2581      72697665 
 2581      72564D54 
 2581      00
 2582              	.LASF107:
 2583 0078 6F747970 		.ascii	"otyper\000"
 2583      657200
 2584              	.LASF157:
 2585 007f 63617061 		.ascii	"capacity\000"
 2585      63697479 
ARM GAS  /var/folders/ng/s8655sgx1ys_4lf9jzm2w6n00000gn/T//cc82Awlt.s 			page 47


 2585      00
 2586              	.LASF77:
 2587 0088 73747265 		.ascii	"stream\000"
 2587      616D00
 2588              	.LASF120:
 2589 008f 50484461 		.ascii	"PHData\000"
 2589      746100
 2590              	.LASF97:
 2591 0096 4D4F4445 		.ascii	"MODER\000"
 2591      5200
 2592              	.LASF12:
 2593 009c 6C6F6E67 		.ascii	"long long unsigned int\000"
 2593      206C6F6E 
 2593      6720756E 
 2593      7369676E 
 2593      65642069 
 2594              	.LASF66:
 2595 00b3 43524350 		.ascii	"CRCPR\000"
 2595      5200
 2596              	.LASF126:
 2597 00b9 5350495F 		.ascii	"SPI_READY\000"
 2597      52454144 
 2597      5900
 2598              	.LASF100:
 2599 00c3 50555044 		.ascii	"PUPDR\000"
 2599      5200
 2600              	.LASF54:
 2601 00c9 65786974 		.ascii	"exitcode\000"
 2601      636F6465 
 2601      00
 2602              	.LASF130:
 2603 00d2 53504944 		.ascii	"SPIDriver\000"
 2603      72697665 
 2603      7200
 2604              	.LASF141:
 2605 00dc 7373706F 		.ascii	"ssport\000"
 2605      727400
 2606              	.LASF163:
 2607 00e3 49544D5F 		.ascii	"ITM_RxBuffer\000"
 2607      52784275 
 2607      66666572 
 2607      00
 2608              	.LASF92:
 2609 00f0 626C6B73 		.ascii	"blkstate_t\000"
 2609      74617465 
 2609      5F7400
 2610              	.LASF26:
 2611 00fb 705F7072 		.ascii	"p_prio\000"
 2611      696F00
 2612              	.LASF142:
 2613 0102 73737061 		.ascii	"sspad\000"
 2613      6400
 2614              	.LASF11:
 2615 0108 6C6F6E67 		.ascii	"long long int\000"
 2615      206C6F6E 
 2615      6720696E 
 2615      7400
ARM GAS  /var/folders/ng/s8655sgx1ys_4lf9jzm2w6n00000gn/T//cc82Awlt.s 			page 48


 2616              	.LASF1:
 2617 0116 7369676E 		.ascii	"signed char\000"
 2617      65642063 
 2617      68617200 
 2618              	.LASF125:
 2619 0122 5350495F 		.ascii	"SPI_STOP\000"
 2619      53544F50 
 2619      00
 2620              	.LASF72:
 2621 012b 49325343 		.ascii	"I2SCFGR\000"
 2621      46475200 
 2622              	.LASF13:
 2623 0133 626F6F6C 		.ascii	"bool_t\000"
 2623      5F7400
 2624              	.LASF50:
 2625 013a 6D5F7175 		.ascii	"m_queue\000"
 2625      65756500 
 2626              	.LASF152:
 2627 0142 64697363 		.ascii	"disconnect\000"
 2627      6F6E6E65 
 2627      637400
 2628              	.LASF106:
 2629 014d 6D6F6465 		.ascii	"moder\000"
 2629      7200
 2630              	.LASF18:
 2631 0153 74736C69 		.ascii	"tslices_t\000"
 2631      6365735F 
 2631      7400
 2632              	.LASF83:
 2633 015d 424C4B5F 		.ascii	"BLK_UNINIT\000"
 2633      554E494E 
 2633      495400
 2634              	.LASF165:
 2635 0168 474E5520 		.ascii	"GNU C 4.7.4 20130913 (release) [ARM/embedded-4_7-br"
 2635      4320342E 
 2635      372E3420 
 2635      32303133 
 2635      30393133 
 2636 019b 616E6368 		.ascii	"anch revision 202601]\000"
 2636      20726576 
 2636      6973696F 
 2636      6E203230 
 2636      32363031 
 2637              	.LASF131:
 2638 01b1 73746174 		.ascii	"state\000"
 2638      6500
 2639              	.LASF8:
 2640 01b7 6C6F6E67 		.ascii	"long int\000"
 2640      20696E74 
 2640      00
 2641              	.LASF117:
 2642 01c0 50454461 		.ascii	"PEData\000"
 2642      746100
 2643              	.LASF16:
 2644 01c7 74737461 		.ascii	"tstate_t\000"
 2644      74655F74 
 2644      00
ARM GAS  /var/folders/ng/s8655sgx1ys_4lf9jzm2w6n00000gn/T//cc82Awlt.s 			page 49


 2645              	.LASF161:
 2646 01d0 6D6D635F 		.ascii	"mmc_lld_is_write_protected\000"
 2646      6C6C645F 
 2646      69735F77 
 2646      72697465 
 2646      5F70726F 
 2647              	.LASF28:
 2648 01eb 705F6E65 		.ascii	"p_newer\000"
 2648      77657200 
 2649              	.LASF140:
 2650 01f3 656E645F 		.ascii	"end_cb\000"
 2650      636200
 2651              	.LASF137:
 2652 01fa 7278646D 		.ascii	"rxdmamode\000"
 2652      616D6F64 
 2652      6500
 2653              	.LASF105:
 2654 0204 4750494F 		.ascii	"GPIO_TypeDef\000"
 2654      5F547970 
 2654      65446566 
 2654      00
 2655              	.LASF156:
 2656 0211 6765745F 		.ascii	"get_info\000"
 2656      696E666F 
 2656      00
 2657              	.LASF136:
 2658 021a 646D6174 		.ascii	"dmatx\000"
 2658      7800
 2659              	.LASF84:
 2660 0220 424C4B5F 		.ascii	"BLK_STOP\000"
 2660      53544F50 
 2660      00
 2661              	.LASF167:
 2662 0229 2F557365 		.ascii	"/Users/jseng/aithon/DemoMode\000"
 2662      72732F6A 
 2662      73656E67 
 2662      2F616974 
 2662      686F6E2F 
 2663              	.LASF42:
 2664 0246 705F6D70 		.ascii	"p_mpool\000"
 2664      6F6F6C00 
 2665              	.LASF45:
 2666 024e 72656761 		.ascii	"regarm_t\000"
 2666      726D5F74 
 2666      00
 2667              	.LASF80:
 2668 0257 73656C66 		.ascii	"selfindex\000"
 2668      696E6465 
 2668      7800
 2669              	.LASF139:
 2670 0261 73706963 		.ascii	"spicallback_t\000"
 2670      616C6C62 
 2670      61636B5F 
 2670      7400
 2671              	.LASF93:
 2672 026f 626C6B5F 		.ascii	"blk_size\000"
 2672      73697A65 
ARM GAS  /var/folders/ng/s8655sgx1ys_4lf9jzm2w6n00000gn/T//cc82Awlt.s 			page 50


 2672      00
 2673              	.LASF170:
 2674 0278 73746D33 		.ascii	"stm32_clock_init\000"
 2674      325F636C 
 2674      6F636B5F 
 2674      696E6974 
 2674      00
 2675              	.LASF114:
 2676 0289 50424461 		.ascii	"PBData\000"
 2676      746100
 2677              	.LASF166:
 2678 0290 2E2E2F41 		.ascii	"../AithonLibrary/Board_v01/board.c\000"
 2678      6974686F 
 2678      6E4C6962 
 2678      72617279 
 2678      2F426F61 
 2679              	.LASF0:
 2680 02b3 756E7369 		.ascii	"unsigned int\000"
 2680      676E6564 
 2680      20696E74 
 2680      00
 2681              	.LASF5:
 2682 02c0 75696E74 		.ascii	"uint16_t\000"
 2682      31365F74 
 2682      00
 2683              	.LASF35:
 2684 02c9 705F7469 		.ascii	"p_time\000"
 2684      6D6500
 2685              	.LASF37:
 2686 02d0 705F6D73 		.ascii	"p_msgqueue\000"
 2686      67717565 
 2686      756500
 2687              	.LASF108:
 2688 02db 6F737065 		.ascii	"ospeedr\000"
 2688      65647200 
 2689              	.LASF102:
 2690 02e3 4C434B52 		.ascii	"LCKR\000"
 2690      00
 2691              	.LASF79:
 2692 02e8 69736869 		.ascii	"ishift\000"
 2692      667400
 2693              	.LASF168:
 2694 02ef 5F5F6561 		.ascii	"__early_init\000"
 2694      726C795F 
 2694      696E6974 
 2694      00
 2695              	.LASF6:
 2696 02fc 73686F72 		.ascii	"short unsigned int\000"
 2696      7420756E 
 2696      7369676E 
 2696      65642069 
 2696      6E7400
 2697              	.LASF118:
 2698 030f 50464461 		.ascii	"PFData\000"
 2698      746100
 2699              	.LASF85:
 2700 0316 424C4B5F 		.ascii	"BLK_ACTIVE\000"
ARM GAS  /var/folders/ng/s8655sgx1ys_4lf9jzm2w6n00000gn/T//cc82Awlt.s 			page 51


 2700      41435449 
 2700      564500
 2701              	.LASF145:
 2702 0321 6C736366 		.ascii	"lscfg\000"
 2702      6700
 2703              	.LASF158:
 2704 0327 626C6F63 		.ascii	"block_addresses\000"
 2704      6B5F6164 
 2704      64726573 
 2704      73657300 
 2705              	.LASF20:
 2706 0337 6D73675F 		.ascii	"msg_t\000"
 2706      7400
 2707              	.LASF86:
 2708 033d 424C4B5F 		.ascii	"BLK_CONNECTING\000"
 2708      434F4E4E 
 2708      45435449 
 2708      4E4700
 2709              	.LASF15:
 2710 034c 746D6F64 		.ascii	"tmode_t\000"
 2710      655F7400 
 2711              	.LASF144:
 2712 0354 73706970 		.ascii	"spip\000"
 2712      00
 2713              	.LASF44:
 2714 0359 54687265 		.ascii	"ThreadsList\000"
 2714      6164734C 
 2714      69737400 
 2715              	.LASF21:
 2716 0365 6576656E 		.ascii	"eventmask_t\000"
 2716      746D6173 
 2716      6B5F7400 
 2717              	.LASF119:
 2718 0371 50474461 		.ascii	"PGData\000"
 2718      746100
 2719              	.LASF154:
 2720 0378 77726974 		.ascii	"write\000"
 2720      6500
 2721              	.LASF89:
 2722 037e 424C4B5F 		.ascii	"BLK_READING\000"
 2722      52454144 
 2722      494E4700 
 2723              	.LASF74:
 2724 038a 49325350 		.ascii	"I2SPR\000"
 2724      5200
 2725              	.LASF48:
 2726 0390 73697A65 		.ascii	"sizetype\000"
 2726      74797065 
 2726      00
 2727              	.LASF96:
 2728 0399 636C6561 		.ascii	"clear\000"
 2728      7200
 2729              	.LASF49:
 2730 039f 4D757465 		.ascii	"Mutex\000"
 2730      7800
 2731              	.LASF29:
 2732 03a5 705F6F6C 		.ascii	"p_older\000"
ARM GAS  /var/folders/ng/s8655sgx1ys_4lf9jzm2w6n00000gn/T//cc82Awlt.s 			page 52


 2732      64657200 
 2733              	.LASF91:
 2734 03ad 424C4B5F 		.ascii	"BLK_SYNCING\000"
 2734      53594E43 
 2734      494E4700 
 2735              	.LASF88:
 2736 03b9 424C4B5F 		.ascii	"BLK_READY\000"
 2736      52454144 
 2736      5900
 2737              	.LASF43:
 2738 03c3 54687265 		.ascii	"ThreadsQueue\000"
 2738      61647351 
 2738      75657565 
 2738      00
 2739              	.LASF138:
 2740 03d0 7478646D 		.ascii	"txdmamode\000"
 2740      616D6F64 
 2740      6500
 2741              	.LASF99:
 2742 03da 4F535045 		.ascii	"OSPEEDR\000"
 2742      45445200 
 2743              	.LASF111:
 2744 03e2 61667268 		.ascii	"afrh\000"
 2744      00
 2745              	.LASF116:
 2746 03e7 50444461 		.ascii	"PDData\000"
 2746      746100
 2747              	.LASF104:
 2748 03ee 41465248 		.ascii	"AFRH\000"
 2748      00
 2749              	.LASF147:
 2750 03f3 4D4D4343 		.ascii	"MMCConfig\000"
 2750      6F6E6669 
 2750      6700
 2751              	.LASF103:
 2752 03fd 4146524C 		.ascii	"AFRL\000"
 2752      00
 2753              	.LASF70:
 2754 0402 54584352 		.ascii	"TXCRCR\000"
 2754      435200
 2755              	.LASF62:
 2756 0409 52455345 		.ascii	"RESERVED0\000"
 2756      52564544 
 2756      3000
 2757              	.LASF63:
 2758 0413 52455345 		.ascii	"RESERVED1\000"
 2758      52564544 
 2758      3100
 2759              	.LASF64:
 2760 041d 52455345 		.ascii	"RESERVED2\000"
 2760      52564544 
 2760      3200
 2761              	.LASF65:
 2762 0427 52455345 		.ascii	"RESERVED3\000"
 2762      52564544 
 2762      3300
 2763              	.LASF67:
ARM GAS  /var/folders/ng/s8655sgx1ys_4lf9jzm2w6n00000gn/T//cc82Awlt.s 			page 53


 2764 0431 52455345 		.ascii	"RESERVED4\000"
 2764      52564544 
 2764      3400
 2765              	.LASF25:
 2766 043b 705F7072 		.ascii	"p_prev\000"
 2766      657600
 2767              	.LASF71:
 2768 0442 52455345 		.ascii	"RESERVED6\000"
 2768      52564544 
 2768      3600
 2769              	.LASF73:
 2770 044c 52455345 		.ascii	"RESERVED7\000"
 2770      52564544 
 2770      3700
 2771              	.LASF75:
 2772 0456 52455345 		.ascii	"RESERVED8\000"
 2772      52564544 
 2772      3800
 2773              	.LASF19:
 2774 0460 74707269 		.ascii	"tprio_t\000"
 2774      6F5F7400 
 2775              	.LASF134:
 2776 0468 6D757465 		.ascii	"mutex\000"
 2776      7800
 2777              	.LASF14:
 2778 046e 5F426F6F 		.ascii	"_Bool\000"
 2778      6C00
 2779              	.LASF7:
 2780 0474 696E7433 		.ascii	"int32_t\000"
 2780      325F7400 
 2781              	.LASF2:
 2782 047c 756E7369 		.ascii	"unsigned char\000"
 2782      676E6564 
 2782      20636861 
 2782      7200
 2783              	.LASF82:
 2784 048a 73746D33 		.ascii	"stm32_dma_stream_t\000"
 2784      325F646D 
 2784      615F7374 
 2784      7265616D 
 2784      5F7400
 2785              	.LASF110:
 2786 049d 6166726C 		.ascii	"afrl\000"
 2786      00
 2787              	.LASF40:
 2788 04a2 705F6D74 		.ascii	"p_mtxlist\000"
 2788      786C6973 
 2788      7400
 2789              	.LASF3:
 2790 04ac 73686F72 		.ascii	"short int\000"
 2790      7420696E 
 2790      7400
 2791              	.LASF31:
 2792 04b6 705F7374 		.ascii	"p_state\000"
 2792      61746500 
 2793              	.LASF90:
 2794 04be 424C4B5F 		.ascii	"BLK_WRITING\000"
ARM GAS  /var/folders/ng/s8655sgx1ys_4lf9jzm2w6n00000gn/T//cc82Awlt.s 			page 54


 2794      57524954 
 2794      494E4700 
 2795              	.LASF34:
 2796 04ca 705F7072 		.ascii	"p_preempt\000"
 2796      65656D70 
 2796      7400
 2797              	.LASF160:
 2798 04d4 6D6D635F 		.ascii	"mmc_lld_is_card_inserted\000"
 2798      6C6C645F 
 2798      69735F63 
 2798      6172645F 
 2798      696E7365 
 2799              	.LASF113:
 2800 04ed 50414461 		.ascii	"PAData\000"
 2800      746100
 2801              	.LASF56:
 2802 04f4 65776D61 		.ascii	"ewmask\000"
 2802      736B00
 2803              	.LASF24:
 2804 04fb 705F6E65 		.ascii	"p_next\000"
 2804      787400
 2805              	.LASF32:
 2806 0502 705F666C 		.ascii	"p_flags\000"
 2806      61677300 
 2807              	.LASF121:
 2808 050a 50494461 		.ascii	"PIData\000"
 2808      746100
 2809              	.LASF151:
 2810 0511 636F6E6E 		.ascii	"connect\000"
 2810      65637400 
 2811              	.LASF39:
 2812 0519 705F6570 		.ascii	"p_epending\000"
 2812      656E6469 
 2812      6E6700
 2813              	.LASF78:
 2814 0524 69666372 		.ascii	"ifcr\000"
 2814      00
 2815              	.LASF69:
 2816 0529 52455345 		.ascii	"RESERVED5\000"
 2816      52564544 
 2816      3500
 2817              	.LASF9:
 2818 0533 75696E74 		.ascii	"uint32_t\000"
 2818      33325F74 
 2818      00
 2819              	.LASF10:
 2820 053c 6C6F6E67 		.ascii	"long unsigned int\000"
 2820      20756E73 
 2820      69676E65 
 2820      6420696E 
 2820      7400
 2821              	.LASF76:
 2822 054e 5350495F 		.ascii	"SPI_TypeDef\000"
 2822      54797065 
 2822      44656600 
 2823              	.LASF153:
 2824 055a 72656164 		.ascii	"read\000"
ARM GAS  /var/folders/ng/s8655sgx1ys_4lf9jzm2w6n00000gn/T//cc82Awlt.s 			page 55


 2824      00
 2825              	.LASF57:
 2826 055f 63686172 		.ascii	"char\000"
 2826      00
 2827              	.LASF128:
 2828 0564 5350495F 		.ascii	"SPI_COMPLETE\000"
 2828      434F4D50 
 2828      4C455445 
 2828      00
 2829              	.LASF87:
 2830 0571 424C4B5F 		.ascii	"BLK_DISCONNECTING\000"
 2830      44495343 
 2830      4F4E4E45 
 2830      4354494E 
 2830      4700
 2831              	.LASF132:
 2832 0583 636F6E66 		.ascii	"config\000"
 2832      696700
 2833              	.LASF162:
 2834 058a 73646370 		.ascii	"sdcp\000"
 2834      00
 2835              	.LASF129:
 2836 058f 73706973 		.ascii	"spistate_t\000"
 2836      74617465 
 2836      5F7400
 2837              	.LASF52:
 2838 059a 6D5F6E65 		.ascii	"m_next\000"
 2838      787400
 2839              	.LASF22:
 2840 05a1 73797374 		.ascii	"systime_t\000"
 2840      696D655F 
 2840      7400
 2841              	.LASF41:
 2842 05ab 705F7265 		.ascii	"p_realprio\000"
 2842      616C7072 
 2842      696F00
 2843              	.LASF133:
 2844 05b6 74687265 		.ascii	"thread\000"
 2844      616400
 2845              	.LASF58:
 2846 05bd 4E445452 		.ascii	"NDTR\000"
 2846      00
 2847              	.LASF61:
 2848 05c2 444D415F 		.ascii	"DMA_Stream_TypeDef\000"
 2848      53747265 
 2848      616D5F54 
 2848      79706544 
 2848      656600
 2849              	.LASF123:
 2850 05d5 696F706F 		.ascii	"ioportid_t\000"
 2850      72746964 
 2850      5F7400
 2851              	.LASF47:
 2852 05e0 636F6E74 		.ascii	"context\000"
 2852      65787400 
 2853              	.LASF46:
 2854 05e8 696E7463 		.ascii	"intctx\000"
ARM GAS  /var/folders/ng/s8655sgx1ys_4lf9jzm2w6n00000gn/T//cc82Awlt.s 			page 56


 2854      747800
 2855              	.LASF149:
 2856 05ef 69735F69 		.ascii	"is_inserted\000"
 2856      6E736572 
 2856      74656400 
 2857              	.LASF60:
 2858 05fb 4D314152 		.ascii	"M1AR\000"
 2858      00
 2859              	.LASF124:
 2860 0600 5350495F 		.ascii	"SPI_UNINIT\000"
 2860      554E494E 
 2860      495400
 2861              	.LASF159:
 2862 060b 4D4D4344 		.ascii	"MMCDriver\000"
 2862      72697665 
 2862      7200
 2863              	.LASF33:
 2864 0615 705F7265 		.ascii	"p_refs\000"
 2864      667300
 2865              	.LASF101:
 2866 061c 42535252 		.ascii	"BSRR\000"
 2866      00
 2867              	.LASF146:
 2868 0621 68736366 		.ascii	"hscfg\000"
 2868      6700
 2869              	.LASF23:
 2870 0627 54687265 		.ascii	"Thread\000"
 2870      616400
 2871              	.LASF169:
 2872 062e 626F6172 		.ascii	"boardInit\000"
 2872      64496E69 
 2872      7400
 2873              	.LASF4:
 2874 0638 75696E74 		.ascii	"uint8_t\000"
 2874      385F7400 
 2875              	.LASF109:
 2876 0640 70757064 		.ascii	"pupdr\000"
 2876      7200
 2877              	.LASF155:
 2878 0646 73796E63 		.ascii	"sync\000"
 2878      00
 2879              	.LASF55:
 2880 064b 77746F62 		.ascii	"wtobjp\000"
 2880      6A7000
 2881              	.LASF30:
 2882 0652 705F6E61 		.ascii	"p_name\000"
 2882      6D6500
 2883              	.LASF115:
 2884 0659 50434461 		.ascii	"PCData\000"
 2884      746100
 2885              	.LASF143:
 2886 0660 53504943 		.ascii	"SPIConfig\000"
 2886      6F6E6669 
 2886      6700
 2887              	.LASF38:
 2888 066a 705F6D73 		.ascii	"p_msg\000"
 2888      6700
ARM GAS  /var/folders/ng/s8655sgx1ys_4lf9jzm2w6n00000gn/T//cc82Awlt.s 			page 57


 2889              	.LASF81:
 2890 0670 76656374 		.ascii	"vector\000"
 2890      6F7200
 2891              	.LASF122:
 2892 0677 50414C43 		.ascii	"PALConfig\000"
 2892      6F6E6669 
 2892      6700
 2893              	.LASF51:
 2894 0681 6D5F6F77 		.ascii	"m_owner\000"
 2894      6E657200 
 2895              	.LASF164:
 2896 0689 70616C5F 		.ascii	"pal_default_config\000"
 2896      64656661 
 2896      756C745F 
 2896      636F6E66 
 2896      696700
 2897              	.LASF27:
 2898 069c 705F6374 		.ascii	"p_ctx\000"
 2898      7800
 2899              	.LASF36:
 2900 06a2 705F7761 		.ascii	"p_waiting\000"
 2900      6974696E 
 2900      6700
 2901              		.ident	"GCC: (GNU Tools for ARM Embedded Processors) 4.7.4 20130913 (release) [ARM/embedded-4_7-br
ARM GAS  /var/folders/ng/s8655sgx1ys_4lf9jzm2w6n00000gn/T//cc82Awlt.s 			page 58


DEFINED SYMBOLS
                            *ABS*:0000000000000000 board.c
/var/folders/ng/s8655sgx1ys_4lf9jzm2w6n00000gn/T//cc82Awlt.s:20     .text.mmc_lld_is_card_inserted:0000000000000000 $t
/var/folders/ng/s8655sgx1ys_4lf9jzm2w6n00000gn/T//cc82Awlt.s:26     .text.mmc_lld_is_card_inserted:0000000000000000 mmc_lld_is_card_inserted
/var/folders/ng/s8655sgx1ys_4lf9jzm2w6n00000gn/T//cc82Awlt.s:43     .text.mmc_lld_is_write_protected:0000000000000000 $t
/var/folders/ng/s8655sgx1ys_4lf9jzm2w6n00000gn/T//cc82Awlt.s:49     .text.mmc_lld_is_write_protected:0000000000000000 mmc_lld_is_write_protected
/var/folders/ng/s8655sgx1ys_4lf9jzm2w6n00000gn/T//cc82Awlt.s:65     .text.__early_init:0000000000000000 $t
/var/folders/ng/s8655sgx1ys_4lf9jzm2w6n00000gn/T//cc82Awlt.s:71     .text.__early_init:0000000000000000 __early_init
/var/folders/ng/s8655sgx1ys_4lf9jzm2w6n00000gn/T//cc82Awlt.s:86     .text.boardInit:0000000000000000 $t
/var/folders/ng/s8655sgx1ys_4lf9jzm2w6n00000gn/T//cc82Awlt.s:92     .text.boardInit:0000000000000000 boardInit
/var/folders/ng/s8655sgx1ys_4lf9jzm2w6n00000gn/T//cc82Awlt.s:108    .rodata.pal_default_config:0000000000000000 pal_default_config
/var/folders/ng/s8655sgx1ys_4lf9jzm2w6n00000gn/T//cc82Awlt.s:105    .rodata.pal_default_config:0000000000000000 $d
                     .debug_frame:0000000000000010 $d

UNDEFINED SYMBOLS
stm32_clock_init
