ARM GAS  /var/folders/ng/s8655sgx1ys_4lf9jzm2w6n00000gn/T//cc82Awlt.s 			page 1


   1              		.syntax unified
   2              		.cpu cortex-m4
   3              		.eabi_attribute 27, 3
   4              		.fpu fpv4-sp-d16
   5              		.eabi_attribute 20, 1
   6              		.eabi_attribute 21, 1
   7              		.eabi_attribute 23, 3
   8              		.eabi_attribute 24, 1
   9              		.eabi_attribute 25, 1
  10              		.eabi_attribute 26, 1
  11              		.eabi_attribute 30, 2
  12              		.eabi_attribute 34, 1
  13              		.eabi_attribute 18, 4
  14              		.thumb
  15              		.file	"board.c"
  16              		.text
  17              	.Ltext0:
  18              		.cfi_sections	.debug_frame
  19              		.section	.text.mmc_lld_is_card_inserted,"ax",%progbits
  20              		.align	2
  21              		.p2align 4,,15
  22              		.global	mmc_lld_is_card_inserted
  23              		.thumb
  24              		.thumb_func
  25              		.type	mmc_lld_is_card_inserted, %function
  26              	mmc_lld_is_card_inserted:
  27              	.LFB118:
  28              		.file 1 "../AithonLibrary/Board_v01/board.c"
  29              		.loc 1 71 0
  30              		.cfi_startproc
  31              		@ args = 0, pretend = 0, frame = 0
  32              		@ frame_needed = 0, uses_anonymous_args = 0
  33              		@ link register save eliminated.
  34              	.LVL0:
  35              		.loc 1 74 0
  36 0000 0120     		movs	r0, #1
  37              	.LVL1:
  38 0002 7047     		bx	lr
  39              		.cfi_endproc
  40              	.LFE118:
  41              		.size	mmc_lld_is_card_inserted, .-mmc_lld_is_card_inserted
  42 0004 AFF30080 		.section	.text.mmc_lld_is_write_protected,"ax",%progbits
  42      AFF30080 
  42      AFF30080 
  43              		.align	2
  44              		.p2align 4,,15
  45              		.global	mmc_lld_is_write_protected
  46              		.thumb
  47              		.thumb_func
  48              		.type	mmc_lld_is_write_protected, %function
  49              	mmc_lld_is_write_protected:
  50              	.LFB119:
  51              		.loc 1 79 0
  52              		.cfi_startproc
  53              		@ args = 0, pretend = 0, frame = 0
  54              		@ frame_needed = 0, uses_anonymous_args = 0
  55              		@ link register save eliminated.
ARM GAS  /var/folders/ng/s8655sgx1ys_4lf9jzm2w6n00000gn/T//cc82Awlt.s 			page 2


  56              	.LVL2:
  57              		.loc 1 82 0
  58 0000 0020     		movs	r0, #0
  59              	.LVL3:
  60 0002 7047     		bx	lr
  61              		.cfi_endproc
  62              	.LFE119:
  63              		.size	mmc_lld_is_write_protected, .-mmc_lld_is_write_protected
  64 0004 AFF30080 		.section	.text.__early_init,"ax",%progbits
  64      AFF30080 
  64      AFF30080 
  65              		.align	2
  66              		.p2align 4,,15
  67              		.global	__early_init
  68              		.thumb
  69              		.thumb_func
  70              		.type	__early_init, %function
  71              	__early_init:
  72              	.LFB120:
  73              		.loc 1 90 0
  74              		.cfi_startproc
  75              		@ args = 0, pretend = 0, frame = 0
  76              		@ frame_needed = 0, uses_anonymous_args = 0
  77              		@ link register save eliminated.
  78              		.loc 1 93 0
  79              		.loc 1 92 0
  80 0000 FFF7FEBF 		b	stm32_clock_init
  81              	.LVL4:
  82              		.cfi_endproc
  83              	.LFE120:
  84              		.size	__early_init, .-__early_init
  85 0004 AFF30080 		.section	.text.boardInit,"ax",%progbits
  85      AFF30080 
  85      AFF30080 
  86              		.align	2
  87              		.p2align 4,,15
  88              		.global	boardInit
  89              		.thumb
  90              		.thumb_func
  91              		.type	boardInit, %function
  92              	boardInit:
  93              	.LFB121:
  94              		.loc 1 98 0
  95              		.cfi_startproc
  96              		@ args = 0, pretend = 0, frame = 0
  97              		@ frame_needed = 0, uses_anonymous_args = 0
  98              		@ link register save eliminated.
  99 0000 7047     		bx	lr
 100              		.cfi_endproc
 101              	.LFE121:
 102              		.size	boardInit, .-boardInit
 103              		.global	pal_default_config
 104 0002 00BFAFF3 		.section	.rodata.pal_default_config,"a",%progbits
 104      0080AFF3 
 104      0080AFF3 
 104      0080
 105              		.align	2
ARM GAS  /var/folders/ng/s8655sgx1ys_4lf9jzm2w6n00000gn/T//cc82Awlt.s 			page 3


 106              		.type	pal_default_config, %object
 107              		.size	pal_default_config, 252
 108              	pal_default_config:
 109 0000 FFAA91AA 		.word	-1433294081
 110 0004 00000000 		.word	0
 111 0008 FFFFFFFF 		.word	-1
 112 000c 00020424 		.word	604242432
 113 0010 FFFFFFFF 		.word	-1
 114 0014 00005055 		.word	1431306240
 115 0018 00A00A50 		.word	1342873600
 116 001c 0FA0AAA4 		.word	-1532321777
 117 0020 00030000 		.word	768
 118 0024 FFFFFFFF 		.word	-1
 119 0028 00000001 		.word	16777216
 120 002c FFFFFFFF 		.word	-1
 121 0030 00000077 		.word	1996488704
 122 0034 447700AA 		.word	-1442810044
 123 0038 FFAFAA02 		.word	44740607
 124 003c 00000000 		.word	0
 125 0040 FFFFFF03 		.word	67108863
 126 0044 00000000 		.word	0
 127 0048 FFFFFFFF 		.word	-1
 128 004c 00000033 		.word	855638016
 129 0050 33660600 		.word	419379
 130 0054 152900AA 		.word	-1442830059
 131 0058 00000000 		.word	0
 132 005c FFFFFFFF 		.word	-1
 133 0060 00005500 		.word	5570560
 134 0064 FFFFFFFF 		.word	-1
 135 0068 00007007 		.word	124780544
 136 006c 00002222 		.word	572653568
 137 0070 00409941 		.word	1100562432
 138 0074 00000000 		.word	0
 139 0078 FFFFFFFF 		.word	-1
 140 007c 00000000 		.word	0
 141 0080 FFFFFFFF 		.word	-1
 142 0084 00000000 		.word	0
 143 0088 10100000 		.word	4112
 144 008c 00000000 		.word	0
 145 0090 00000000 		.word	0
 146 0094 00000000 		.word	0
 147 0098 00000000 		.word	0
 148 009c 00000000 		.word	0
 149 00a0 00000000 		.word	0
 150 00a4 00000000 		.word	0
 151 00a8 00000000 		.word	0
 152 00ac 00000000 		.word	0
 153 00b0 00000000 		.word	0
 154 00b4 00000000 		.word	0
 155 00b8 00000000 		.word	0
 156 00bc 00000000 		.word	0
 157 00c0 00000000 		.word	0
 158 00c4 00000000 		.word	0
 159 00c8 00000000 		.word	0
 160 00cc FFFFFFFF 		.word	-1
 161 00d0 00000000 		.word	0
 162 00d4 FFFFFFFF 		.word	-1
ARM GAS  /var/folders/ng/s8655sgx1ys_4lf9jzm2w6n00000gn/T//cc82Awlt.s 			page 4


 163 00d8 00000000 		.word	0
 164 00dc 00000000 		.word	0
 165 00e0 00000000 		.word	0
 166 00e4 00000000 		.word	0
 167 00e8 00000000 		.word	0
 168 00ec 00000000 		.word	0
 169 00f0 00000000 		.word	0
 170 00f4 00000000 		.word	0
 171 00f8 00000000 		.word	0
 172              		.text
 173              	.Letext0:
 174              		.file 2 "/Users/jseng/gccarm/bin/../lib/gcc/arm-none-eabi/4.7.4/../../../../arm-none-eabi/include/
 175              		.file 3 "../AithonLibrary/ChibiOS/os/ports/GCC/ARMCMx/chtypes.h"
 176              		.file 4 "../AithonLibrary/ChibiOS/os/kernel/include/chlists.h"
 177              		.file 5 "../AithonLibrary/ChibiOS/os/kernel/include/chthreads.h"
 178              		.file 6 "../AithonLibrary/ChibiOS/os/ports/GCC/ARMCMx/chcore_v7m.h"
 179              		.file 7 "../AithonLibrary/ChibiOS/os/kernel/include/chmtx.h"
 180              		.file 8 "../AithonLibrary/ChibiOS/os/hal/platforms/STM32F4xx/stm32f4xx.h"
 181              		.file 9 "../AithonLibrary/ChibiOS/os/hal/platforms/STM32F4xx/stm32_dma.h"
 182              		.file 10 "../AithonLibrary/ChibiOS/os/hal/include/io_block.h"
 183              		.file 11 "../AithonLibrary/ChibiOS/os/hal/platforms/STM32/GPIOv2/pal_lld.h"
 184              		.file 12 "../AithonLibrary/ChibiOS/os/hal/include/spi.h"
 185              		.file 13 "../AithonLibrary/ChibiOS/os/hal/platforms/STM32/SPIv1/spi_lld.h"
 186              		.file 14 "../AithonLibrary/ChibiOS/os/hal/include/mmc_spi.h"
 187              		.file 15 "../AithonLibrary/ChibiOS/os/ports/common/ARMCMx/CMSIS/include/core_cm4.h"
 188              		.file 16 "../AithonLibrary/ChibiOS/os/hal/platforms/STM32F4xx/hal_lld.h"