ARM GAS  /var/folders/ng/s8655sgx1ys_4lf9jzm2w6n00000gn/T//ccSWNafm.s 			page 1


   1              		.syntax unified
   2              		.cpu cortex-m4
   3              		.eabi_attribute 27, 3
   4              		.fpu fpv4-sp-d16
   5              		.eabi_attribute 20, 1
   6              		.eabi_attribute 21, 1
   7              		.eabi_attribute 23, 3
   8              		.eabi_attribute 24, 1
   9              		.eabi_attribute 25, 1
  10              		.eabi_attribute 26, 1
  11              		.eabi_attribute 30, 2
  12              		.eabi_attribute 34, 1
  13              		.eabi_attribute 18, 4
  14              		.thumb
  15              		.file	"digital.c"
  16              		.text
  17              	.Ltext0:
  18              		.cfi_sections	.debug_frame
  19              		.section	.text.digital_mode,"ax",%progbits
  20              		.align	2
  21              		.p2align 4,,15
  22              		.global	digital_mode
  23              		.thumb
  24              		.thumb_func
  25              		.type	digital_mode, %function
  26              	digital_mode:
  27              	.LFB119:
  28              		.file 1 "../AithonLibrary/digital.c"
  29              		.loc 1 62 0
  30              		.cfi_startproc
  31              		@ args = 0, pretend = 0, frame = 0
  32              		@ frame_needed = 0, uses_anonymous_args = 0
  33              		@ link register save eliminated.
  34              	.LVL0:
  35              		.loc 1 63 0
  36 0000 40F20003 		movw	r3, #:lower16:.LANCHOR1
  37 0004 C0F20003 		movt	r3, #:upper16:.LANCHOR1
  38 0008 40F20002 		movw	r2, #:lower16:.LANCHOR0
  39 000c C0F20002 		movt	r2, #:upper16:.LANCHOR0
  40 0010 53F82030 		ldr	r3, [r3, r0, lsl #2]
  41 0014 52F82000 		ldr	r0, [r2, r0, lsl #2]
  42              	.LVL1:
  43              		.loc 1 62 0
  44 0018 0A46     		mov	r2, r1
  45              		.loc 1 63 0
  46 001a 0121     		movs	r1, #1
  47              	.LVL2:
  48 001c 01FA03F1 		lsl	r1, r1, r3
  49              		.loc 1 64 0
  50              		.loc 1 63 0
  51 0020 FFF7FEBF 		b	_pal_lld_setgroupmode
  52              	.LVL3:
  53              		.cfi_endproc
  54              	.LFE119:
  55              		.size	digital_mode, .-digital_mode
  56 0024 AFF30080 		.section	.text.digital_get,"ax",%progbits
  56      AFF30080 
ARM GAS  /var/folders/ng/s8655sgx1ys_4lf9jzm2w6n00000gn/T//ccSWNafm.s 			page 2


  56      AFF30080 
  57              		.align	2
  58              		.p2align 4,,15
  59              		.global	digital_get
  60              		.thumb
  61              		.thumb_func
  62              		.type	digital_get, %function
  63              	digital_get:
  64              	.LFB120:
  65              		.loc 1 77 0
  66              		.cfi_startproc
  67              		@ args = 0, pretend = 0, frame = 0
  68              		@ frame_needed = 0, uses_anonymous_args = 0
  69              		@ link register save eliminated.
  70              	.LVL4:
  71              		.loc 1 78 0
  72 0000 40F20003 		movw	r3, #:lower16:.LANCHOR0
  73 0004 C0F20003 		movt	r3, #:upper16:.LANCHOR0
  74 0008 40F20002 		movw	r2, #:lower16:.LANCHOR1
  75 000c 53F82010 		ldr	r1, [r3, r0, lsl #2]
  76 0010 C0F20002 		movt	r2, #:upper16:.LANCHOR1
  77 0014 0969     		ldr	r1, [r1, #16]
  78 0016 52F82000 		ldr	r0, [r2, r0, lsl #2]
  79              	.LVL5:
  80 001a 21FA00F3 		lsr	r3, r1, r0
  81              		.loc 1 79 0
  82 001e 03F00100 		and	r0, r3, #1
  83 0022 7047     		bx	lr
  84              		.cfi_endproc
  85              	.LFE120:
  86              		.size	digital_get, .-digital_get
  87 0024 AFF30080 		.section	.text.digital_set,"ax",%progbits
  87      AFF30080 
  87      AFF30080 
  88              		.align	2
  89              		.p2align 4,,15
  90              		.global	digital_set
  91              		.thumb
  92              		.thumb_func
  93              		.type	digital_set, %function
  94              	digital_set:
  95              	.LFB121:
  96              		.loc 1 91 0
  97              		.cfi_startproc
  98              		@ args = 0, pretend = 0, frame = 0
  99              		@ frame_needed = 0, uses_anonymous_args = 0
 100              		@ link register save eliminated.
 101              	.LVL6:
 102              		.loc 1 92 0
 103 0000 40F20003 		movw	r3, #:lower16:.LANCHOR1
 104 0004 C0F20003 		movt	r3, #:upper16:.LANCHOR1
 105 0008 40F20002 		movw	r2, #:lower16:.LANCHOR0
 106 000c 53F82030 		ldr	r3, [r3, r0, lsl #2]
 107 0010 01F00101 		and	r1, r1, #1
 108              	.LVL7:
 109 0014 C0F20002 		movt	r2, #:upper16:.LANCHOR0
 110              		.loc 1 91 0
ARM GAS  /var/folders/ng/s8655sgx1ys_4lf9jzm2w6n00000gn/T//ccSWNafm.s 			page 3


 111 0018 30B4     		push	{r4, r5}
 112              	.LCFI0:
 113              		.cfi_def_cfa_offset 8
 114              		.cfi_offset 4, -8
 115              		.cfi_offset 5, -4
 116              		.loc 1 92 0
 117 001a 81F00105 		eor	r5, r1, #1
 118 001e 03F11004 		add	r4, r3, #16
 119 0022 52F82020 		ldr	r2, [r2, r0, lsl #2]
 120 0026 01FA03F1 		lsl	r1, r1, r3
 121 002a 05FA04F0 		lsl	r0, r5, r4
 122              	.LVL8:
 123 002e 40EA0103 		orr	r3, r0, r1
 124 0032 9361     		str	r3, [r2, #24]
 125              		.loc 1 93 0
 126 0034 30BC     		pop	{r4, r5}
 127 0036 7047     		bx	lr
 128              		.cfi_endproc
 129              	.LFE121:
 130              		.size	digital_set, .-digital_set
 131 0038 AFF30080 		.section	.text.digital_toggle,"ax",%progbits
 131      AFF30080 
 132              		.align	2
 133              		.p2align 4,,15
 134              		.global	digital_toggle
 135              		.thumb
 136              		.thumb_func
 137              		.type	digital_toggle, %function
 138              	digital_toggle:
 139              	.LFB122:
 140              		.loc 1 104 0
 141              		.cfi_startproc
 142              		@ args = 0, pretend = 0, frame = 0
 143              		@ frame_needed = 0, uses_anonymous_args = 0
 144              		@ link register save eliminated.
 145              	.LVL9:
 146              		.loc 1 105 0
 147 0000 40F20003 		movw	r3, #:lower16:.LANCHOR0
 148 0004 C0F20003 		movt	r3, #:upper16:.LANCHOR0
 149 0008 40F20002 		movw	r2, #:lower16:.LANCHOR1
 150 000c C0F20002 		movt	r2, #:upper16:.LANCHOR1
 151 0010 53F82030 		ldr	r3, [r3, r0, lsl #2]
 152 0014 52F82020 		ldr	r2, [r2, r0, lsl #2]
 153 0018 5969     		ldr	r1, [r3, #20]
 154 001a 0120     		movs	r0, #1
 155              	.LVL10:
 156 001c 00FA02F2 		lsl	r2, r0, r2
 157 0020 4A40     		eors	r2, r2, r1
 158 0022 5A61     		str	r2, [r3, #20]
 159 0024 7047     		bx	lr
 160              		.cfi_endproc
 161              	.LFE122:
 162              		.size	digital_toggle, .-digital_toggle
 163              		.global	_pads
 164              		.global	_ports
 165 0026 00BFAFF3 		.section	.data._pads,"aw",%progbits
 165      0080AFF3 
ARM GAS  /var/folders/ng/s8655sgx1ys_4lf9jzm2w6n00000gn/T//ccSWNafm.s 			page 4


 165      0080
 166              		.align	2
 167              		.set	.LANCHOR1,. + 0
 168              		.type	_pads, %object
 169              		.size	_pads, 68
 170              	_pads:
 171 0000 0F000000 		.word	15
 172 0004 0E000000 		.word	14
 173 0008 0D000000 		.word	13
 174 000c 06000000 		.word	6
 175 0010 05000000 		.word	5
 176 0014 04000000 		.word	4
 177 0018 03000000 		.word	3
 178 001c 02000000 		.word	2
 179 0020 01000000 		.word	1
 180 0024 00000000 		.word	0
 181 0028 05000000 		.word	5
 182 002c 04000000 		.word	4
 183 0030 03000000 		.word	3
 184 0034 07000000 		.word	7
 185 0038 03000000 		.word	3
 186 003c 0D000000 		.word	13
 187 0040 0E000000 		.word	14
 188              		.section	.data._ports,"aw",%progbits
 189              		.align	2
 190              		.set	.LANCHOR0,. + 0
 191              		.type	_ports, %object
 192              		.size	_ports, 68
 193              	_ports:
 194 0000 00080240 		.word	1073874944
 195 0004 00080240 		.word	1073874944
 196 0008 00080240 		.word	1073874944
 197 000c 00100240 		.word	1073876992
 198 0010 00100240 		.word	1073876992
 199 0014 00100240 		.word	1073876992
 200 0018 00100240 		.word	1073876992
 201 001c 00100240 		.word	1073876992
 202 0020 00100240 		.word	1073876992
 203 0024 00100240 		.word	1073876992
 204 0028 00040240 		.word	1073873920
 205 002c 00040240 		.word	1073873920
 206 0030 00040240 		.word	1073873920
 207 0034 000C0240 		.word	1073875968
 208 0038 000C0240 		.word	1073875968
 209 003c 00100240 		.word	1073876992
 210 0040 00100240 		.word	1073876992
 211              		.text
 212              	.Letext0:
 213              		.file 2 "/Users/jseng/gccarm/bin/../lib/gcc/arm-none-eabi/4.7.4/../../../../arm-none-eabi/include/
 214              		.file 3 "../AithonLibrary/ChibiOS/os/hal/platforms/STM32/GPIOv2/pal_lld.h"
 215              		.file 4 "../AithonLibrary/Aithon.h"
 216              		.file 5 "../AithonLibrary/ChibiOS/os/ports/common/ARMCMx/CMSIS/include/core_cm4.h"