ARM GAS  /var/folders/ng/s8655sgx1ys_4lf9jzm2w6n00000gn/T//cc3YYM13.s 			page 1


   1              		.syntax unified
   2              		.cpu cortex-m4
   3              		.eabi_attribute 27, 3
   4              		.fpu fpv4-sp-d16
   5              		.eabi_attribute 20, 1
   6              		.eabi_attribute 21, 1
   7              		.eabi_attribute 23, 3
   8              		.eabi_attribute 24, 1
   9              		.eabi_attribute 25, 1
  10              		.eabi_attribute 26, 1
  11              		.eabi_attribute 30, 2
  12              		.eabi_attribute 34, 1
  13              		.eabi_attribute 18, 4
  14              		.thumb
  15              		.file	"ee.c"
  16              		.text
  17              	.Ltext0:
  18              		.cfi_sections	.debug_frame
  19              		.section	.text._getReadPage,"ax",%progbits
  20              		.align	2
  21              		.p2align 4,,15
  22              		.global	_getReadPage
  23              		.thumb
  24              		.thumb_func
  25              		.type	_getReadPage, %function
  26              	_getReadPage:
  27              	.LFB119:
  28              		.file 1 "../AithonLibrary/ee.c"
  29              		.loc 1 85 0
  30              		.cfi_startproc
  31              		@ args = 0, pretend = 0, frame = 0
  32              		@ frame_needed = 0, uses_anonymous_args = 0
  33              		@ link register save eliminated.
  34              		.loc 1 86 0
  35 0000 0448     		ldr	r0, .L7
  36 0002 C389     		ldrh	r3, [r0, #14]
  37 0004 23B1     		cbz	r3, .L2
  38              	.LBB30:
  39              	.LBB31:
  40              		.loc 1 88 0
  41 0006 C18B     		ldrh	r1, [r0, #30]
  42              		.loc 1 89 0
  43 0008 1030     		adds	r0, r0, #16
  44 000a 0029     		cmp	r1, #0
  45 000c 18BF     		it	ne
  46 000e 0020     		movne	r0, #0
  47              	.L2:
  48              	.LBE31:
  49              	.LBE30:
  50              		.loc 1 92 0
  51 0010 7047     		bx	lr
  52              	.L8:
  53 0012 00BF     		.align	2
  54              	.L7:
  55 0014 00000000 		.word	.LANCHOR0
  56              		.cfi_endproc
  57              	.LFE119:
ARM GAS  /var/folders/ng/s8655sgx1ys_4lf9jzm2w6n00000gn/T//cc3YYM13.s 			page 2


  58              		.size	_getReadPage, .-_getReadPage
  59 0018 AFF30080 		.section	.text._getWritePage,"ax",%progbits
  59      AFF30080 
  60              		.align	2
  61              		.p2align 4,,15
  62              		.global	_getWritePage
  63              		.thumb
  64              		.thumb_func
  65              		.type	_getWritePage, %function
  66              	_getWritePage:
  67              	.LFB120:
  68              		.loc 1 95 0
  69              		.cfi_startproc
  70              		@ args = 0, pretend = 0, frame = 0
  71              		@ frame_needed = 0, uses_anonymous_args = 0
  72              		@ link register save eliminated.
  73              		.loc 1 96 0
  74 0000 0C4B     		ldr	r3, .L15
  75 0002 DA8B     		ldrh	r2, [r3, #30]
  76 0004 4AB9     		cbnz	r2, .L10
  77              		.loc 1 97 0
  78 0006 D889     		ldrh	r0, [r3, #14]
  79 0008 03F11001 		add	r1, r3, #16
  80 000c 4EF6EE62 		movw	r2, #61166
  81 0010 9042     		cmp	r0, r2
  82 0012 14BF     		ite	ne
  83 0014 0846     		movne	r0, r1
  84 0016 1846     		moveq	r0, r3
  85 0018 7047     		bx	lr
  86              	.L10:
  87              		.loc 1 98 0
  88 001a D989     		ldrh	r1, [r3, #14]
  89 001c 41B9     		cbnz	r1, .L13
  90              		.loc 1 99 0
  91 001e 03F11001 		add	r1, r3, #16
  92 0022 4EF6EE60 		movw	r0, #61166
  93 0026 8242     		cmp	r2, r0
  94 0028 14BF     		ite	ne
  95 002a 1846     		movne	r0, r3
  96 002c 0846     		moveq	r0, r1
  97 002e 7047     		bx	lr
  98              	.L13:
  99              		.loc 1 101 0
 100 0030 0020     		movs	r0, #0
 101              		.loc 1 102 0
 102 0032 7047     		bx	lr
 103              	.L16:
 104              		.align	2
 105              	.L15:
 106 0034 00000000 		.word	.LANCHOR0
 107              		.cfi_endproc
 108              	.LFE120:
 109              		.size	_getWritePage, .-_getWritePage
 110 0038 AFF30080 		.section	.text._verifyAndWrite,"ax",%progbits
 110      AFF30080 
 111              		.align	2
 112              		.p2align 4,,15
ARM GAS  /var/folders/ng/s8655sgx1ys_4lf9jzm2w6n00000gn/T//cc3YYM13.s 			page 3


 113              		.global	_verifyAndWrite
 114              		.thumb
 115              		.thumb_func
 116              		.type	_verifyAndWrite, %function
 117              	_verifyAndWrite:
 118              	.LFB121:
 119              		.loc 1 105 0
 120              		.cfi_startproc
 121              		@ args = 0, pretend = 0, frame = 0
 122              		@ frame_needed = 0, uses_anonymous_args = 0
 123              	.LVL0:
 124              	.LBB32:
 125              	.LBB33:
 126              		.loc 1 96 0
 127 0000 384B     		ldr	r3, .L54
 128 0002 DA8B     		ldrh	r2, [r3, #30]
 129              	.LBE33:
 130              	.LBE32:
 131              		.loc 1 105 0
 132 0004 2DE9F041 		push	{r4, r5, r6, r7, r8, lr}
 133              	.LCFI0:
 134              		.cfi_def_cfa_offset 24
 135              		.cfi_offset 4, -24
 136              		.cfi_offset 5, -20
 137              		.cfi_offset 6, -16
 138              		.cfi_offset 7, -12
 139              		.cfi_offset 8, -8
 140              		.cfi_offset 14, -4
 141              		.loc 1 105 0
 142 0008 8046     		mov	r8, r0
 143              	.LBB37:
 144              	.LBB34:
 145              		.loc 1 96 0
 146 000a 002A     		cmp	r2, #0
 147 000c 32D1     		bne	.L18
 148              		.loc 1 97 0
 149 000e DE89     		ldrh	r6, [r3, #14]
 150 0010 03F11000 		add	r0, r3, #16
 151              	.LVL1:
 152 0014 4EF6EE62 		movw	r2, #61166
 153 0018 9642     		cmp	r6, r2
 154 001a 0CBF     		ite	eq
 155 001c 1F46     		moveq	r7, r3
 156 001e 0746     		movne	r7, r0
 157              	.L20:
 158              	.LBE34:
 159              	.LBE37:
 160              		.loc 1 115 0
 161 0020 314E     		ldr	r6, .L54+4
 162 0022 3368     		ldr	r3, [r6, #0]
 163 0024 002B     		cmp	r3, #0
 164 0026 2BD1     		bne	.L49
 165              		.loc 1 118 0
 166 0028 7A68     		ldr	r2, [r7, #4]
 167 002a BD68     		ldr	r5, [r7, #8]
 168 002c 131D     		adds	r3, r2, #4
 169 002e AB42     		cmp	r3, r5
ARM GAS  /var/folders/ng/s8655sgx1ys_4lf9jzm2w6n00000gn/T//cc3YYM13.s 			page 4


 170 0030 3360     		str	r3, [r6, #0]
 171 0032 2AD2     		bcs	.L23
 172              		.loc 1 120 0
 173 0034 5468     		ldr	r4, [r2, #4]
 174 0036 601C     		adds	r0, r4, #1
 175 0038 27D0     		beq	.L23
 176 003a 02F10803 		add	r3, r2, #8
 177 003e E81A     		subs	r0, r5, r3
 178 0040 C41C     		adds	r4, r0, #3
 179 0042 6007     		lsls	r0, r4, #29
 180 0044 12D5     		bpl	.L24
 181              		.loc 1 118 0
 182 0046 AB42     		cmp	r3, r5
 183 0048 1ED2     		bcs	.L48
 184              		.loc 1 120 0
 185 004a 1868     		ldr	r0, [r3, #0]
 186 004c 0C32     		adds	r2, r2, #12
 187 004e 0130     		adds	r0, r0, #1
 188 0050 1AD0     		beq	.L48
 189 0052 1346     		mov	r3, r2
 190              		.loc 1 118 0
 191 0054 AB42     		cmp	r3, r5
 192              		.loc 1 120 0
 193 0056 1A46     		mov	r2, r3
 194              		.loc 1 118 0
 195 0058 16D2     		bcs	.L48
 196              	.L25:
 197              		.loc 1 120 0
 198 005a 52F8044B 		ldr	r4, [r2], #4
 199 005e 0134     		adds	r4, r4, #1
 200 0060 12D0     		beq	.L48
 201 0062 1068     		ldr	r0, [r2, #0]
 202 0064 1346     		mov	r3, r2
 203 0066 421C     		adds	r2, r0, #1
 204 0068 0ED0     		beq	.L48
 205 006a 0433     		adds	r3, r3, #4
 206              	.L24:
 207              		.loc 1 118 0
 208 006c AB42     		cmp	r3, r5
 209              		.loc 1 120 0
 210 006e 1A46     		mov	r2, r3
 211              		.loc 1 118 0
 212 0070 F3D3     		bcc	.L25
 213 0072 09E0     		b	.L48
 214              	.LVL2:
 215              	.L18:
 216              	.LBB38:
 217              	.LBB35:
 218              		.loc 1 98 0
 219 0074 D889     		ldrh	r0, [r3, #14]
 220              	.LVL3:
 221 0076 78B1     		cbz	r0, .L50
 222              		.loc 1 109 0
 223 0078 AB24     		movs	r4, #171
 224              	.LVL4:
 225              	.L35:
 226              	.LBE35:
ARM GAS  /var/folders/ng/s8655sgx1ys_4lf9jzm2w6n00000gn/T//cc3YYM13.s 			page 5


 227              	.LBE38:
 228              		.loc 1 146 0
 229 007a 2046     		mov	r0, r4
 230 007c BDE8F081 		pop	{r4, r5, r6, r7, r8, pc}
 231              	.LVL5:
 232              	.L49:
 233              		.loc 1 127 0
 234 0080 7C68     		ldr	r4, [r7, #4]
 235 0082 A342     		cmp	r3, r4
 236 0084 11D2     		bcs	.L51
 237              	.L26:
 238              		.loc 1 131 0
 239 0086 231D     		adds	r3, r4, #4
 240              	.L48:
 241 0088 3360     		str	r3, [r6, #0]
 242              	.L23:
 243              		.loc 1 135 0
 244 008a 1A68     		ldr	r2, [r3, #0]
 245 008c 0132     		adds	r2, r2, #1
 246 008e 10D0     		beq	.L52
 247              		.loc 1 145 0
 248 0090 EF24     		movs	r4, #239
 249              		.loc 1 146 0
 250 0092 2046     		mov	r0, r4
 251 0094 BDE8F081 		pop	{r4, r5, r6, r7, r8, pc}
 252              	.L50:
 253              	.LBB39:
 254              	.LBB36:
 255              		.loc 1 99 0
 256 0098 03F11004 		add	r4, r3, #16
 257 009c 4EF6EE67 		movw	r7, #61166
 258 00a0 BA42     		cmp	r2, r7
 259 00a2 14BF     		ite	ne
 260 00a4 1F46     		movne	r7, r3
 261 00a6 2746     		moveq	r7, r4
 262 00a8 BAE7     		b	.L20
 263              	.L51:
 264              	.LBE36:
 265              	.LBE39:
 266              		.loc 1 127 0 discriminator 1
 267 00aa B868     		ldr	r0, [r7, #8]
 268 00ac 8342     		cmp	r3, r0
 269 00ae ECD3     		bcc	.L23
 270 00b0 E9E7     		b	.L26
 271              	.L52:
 272              	.LBB40:
 273              		.loc 1 137 0
 274 00b2 1846     		mov	r0, r3
 275 00b4 FFF7FEFF 		bl	FLASH_ProgramHalfWord
 276              	.LVL6:
 277 00b8 0828     		cmp	r0, #8
 278 00ba 0446     		mov	r4, r0
 279              	.LVL7:
 280 00bc DDD1     		bne	.L35
 281              	.LBE40:
 282              	.LBB41:
 283              		.loc 1 138 0
ARM GAS  /var/folders/ng/s8655sgx1ys_4lf9jzm2w6n00000gn/T//cc3YYM13.s 			page 6


 284 00be 3168     		ldr	r1, [r6, #0]
 285 00c0 094D     		ldr	r5, .L54+4
 286 00c2 881C     		adds	r0, r1, #2
 287              	.LVL8:
 288 00c4 4146     		mov	r1, r8
 289 00c6 FFF7FEFF 		bl	FLASH_ProgramHalfWord
 290              	.LVL9:
 291 00ca 0828     		cmp	r0, #8
 292 00cc 01D0     		beq	.L53
 293 00ce 0446     		mov	r4, r0
 294              	.LVL10:
 295 00d0 D3E7     		b	.L35
 296              	.LVL11:
 297              	.L53:
 298              	.LBE41:
 299              		.loc 1 139 0
 300 00d2 2868     		ldr	r0, [r5, #0]
 301              	.LVL12:
 302 00d4 7B68     		ldr	r3, [r7, #4]
 303 00d6 054A     		ldr	r2, .L54+8
 304 00d8 C11A     		subs	r1, r0, r3
 305              		.loc 1 140 0
 306 00da 0430     		adds	r0, r0, #4
 307              		.loc 1 139 0
 308 00dc 22F81810 		strh	r1, [r2, r8, lsl #1]	@ movhi
 309              		.loc 1 140 0
 310 00e0 2860     		str	r0, [r5, #0]
 311              		.loc 1 141 0
 312 00e2 CAE7     		b	.L35
 313              	.L55:
 314              		.align	2
 315              	.L54:
 316 00e4 00000000 		.word	.LANCHOR0
 317 00e8 00000000 		.word	.LANCHOR1
 318 00ec 00000000 		.word	.LANCHOR2
 319              		.cfi_endproc
 320              	.LFE121:
 321              		.size	_verifyAndWrite, .-_verifyAndWrite
 322              		.section	.text._read,"ax",%progbits
 323              		.align	2
 324              		.p2align 4,,15
 325              		.global	_read
 326              		.thumb
 327              		.thumb_func
 328              		.type	_read, %function
 329              	_read:
 330              	.LFB124:
 331              		.loc 1 270 0
 332              		.cfi_startproc
 333              		@ args = 0, pretend = 0, frame = 0
 334              		@ frame_needed = 0, uses_anonymous_args = 0
 335              	.LVL13:
 336 0000 70B5     		push	{r4, r5, r6, lr}
 337              	.LCFI1:
 338              		.cfi_def_cfa_offset 16
 339              		.cfi_offset 4, -16
 340              		.cfi_offset 5, -12
ARM GAS  /var/folders/ng/s8655sgx1ys_4lf9jzm2w6n00000gn/T//cc3YYM13.s 			page 7


 341              		.cfi_offset 6, -8
 342              		.cfi_offset 14, -4
 343              		.loc 1 270 0
 344 0002 0446     		mov	r4, r0
 345 0004 0D46     		mov	r5, r1
 346              		.loc 1 273 0
 347 0006 FFF7FEFF 		bl	_getReadPage
 348              	.LVL14:
 349 000a 0028     		cmp	r0, #0
 350 000c 37D0     		beq	.L64
 351              		.loc 1 278 0
 352 000e 1D4E     		ldr	r6, .L78
 353              		.loc 1 277 0
 354 0010 8268     		ldr	r2, [r0, #8]
 355              	.LVL15:
 356              		.loc 1 278 0
 357 0012 36F81430 		ldrh	r3, [r6, r4, lsl #1]
 358              		.loc 1 280 0
 359 0016 4168     		ldr	r1, [r0, #4]
 360              		.loc 1 278 0
 361 0018 0BBB     		cbnz	r3, .L58
 362              		.loc 1 277 0
 363 001a 531E     		subs	r3, r2, #1
 364              	.LVL16:
 365 001c 881C     		adds	r0, r1, #2
 366              	.LVL17:
 367              	.L59:
 368              		.loc 1 282 0 discriminator 1
 369 001e 8342     		cmp	r3, r0
 370 0020 1BD9     		bls	.L65
 371              		.loc 1 284 0
 372 0022 1A88     		ldrh	r2, [r3, #0]
 373 0024 92B2     		uxth	r2, r2
 374 0026 A242     		cmp	r2, r4
 375 0028 1CD0     		beq	.L60
 376 002a C243     		mvns	r2, r0
 377 002c D218     		adds	r2, r2, r3
 378 002e 5207     		lsls	r2, r2, #29
 379 0030 10D5     		bpl	.L66
 380              		.loc 1 282 0
 381 0032 043B     		subs	r3, r3, #4
 382              	.LVL18:
 383 0034 8342     		cmp	r3, r0
 384 0036 10D9     		bls	.L65
 385              		.loc 1 284 0
 386 0038 1A88     		ldrh	r2, [r3, #0]
 387 003a 92B2     		uxth	r2, r2
 388 003c A242     		cmp	r2, r4
 389 003e 09D1     		bne	.L66
 390 0040 10E0     		b	.L60
 391              	.L63:
 392 0042 1A88     		ldrh	r2, [r3, #0]
 393 0044 92B2     		uxth	r2, r2
 394 0046 A242     		cmp	r2, r4
 395 0048 0CD0     		beq	.L60
 396 004a 33F8042D 		ldrh	r2, [r3, #-4]!
 397              	.LVL19:
ARM GAS  /var/folders/ng/s8655sgx1ys_4lf9jzm2w6n00000gn/T//cc3YYM13.s 			page 8


 398 004e 92B2     		uxth	r2, r2
 399 0050 A242     		cmp	r2, r4
 400 0052 07D0     		beq	.L60
 401              	.LVL20:
 402              	.L66:
 403              		.loc 1 282 0
 404 0054 043B     		subs	r3, r3, #4
 405              	.LVL21:
 406 0056 8342     		cmp	r3, r0
 407 0058 F3D8     		bhi	.L63
 408              	.L65:
 409              		.loc 1 292 0
 410 005a 0120     		movs	r0, #1
 411              		.loc 1 293 0
 412 005c 70BD     		pop	{r4, r5, r6, pc}
 413              	.LVL22:
 414              	.L58:
 415              		.loc 1 280 0
 416 005e 881C     		adds	r0, r1, #2
 417              	.LVL23:
 418 0060 1B18     		adds	r3, r3, r0
 419              	.LVL24:
 420 0062 DCE7     		b	.L59
 421              	.LVL25:
 422              	.L60:
 423              		.loc 1 286 0
 424 0064 4FF6FE70 		movw	r0, #65534
 425 0068 CFF6FF70 		movt	r0, 65535
 426 006c 411A     		subs	r1, r0, r1
 427 006e CA18     		adds	r2, r1, r3
 428 0070 26F81420 		strh	r2, [r6, r4, lsl #1]	@ movhi
 429              		.loc 1 287 0
 430 0074 33F8023C 		ldrh	r3, [r3, #-2]
 431              		.loc 1 288 0
 432 0078 0020     		movs	r0, #0
 433              		.loc 1 287 0
 434 007a 2B80     		strh	r3, [r5, #0]	@ movhi
 435              		.loc 1 288 0
 436 007c 70BD     		pop	{r4, r5, r6, pc}
 437              	.LVL26:
 438              	.L64:
 439              		.loc 1 274 0
 440 007e AB20     		movs	r0, #171
 441              	.LVL27:
 442 0080 70BD     		pop	{r4, r5, r6, pc}
 443              	.L79:
 444 0082 00BF     		.align	2
 445              	.L78:
 446 0084 00000000 		.word	.LANCHOR2
 447              		.cfi_endproc
 448              	.LFE124:
 449              		.size	_read, .-_read
 450 0088 AFF30080 		.section	.text._ee_init,"ax",%progbits
 450      AFF30080 
 451              		.align	2
 452              		.p2align 4,,15
 453              		.global	_ee_init
ARM GAS  /var/folders/ng/s8655sgx1ys_4lf9jzm2w6n00000gn/T//cc3YYM13.s 			page 9


 454              		.thumb
 455              		.thumb_func
 456              		.type	_ee_init, %function
 457              	_ee_init:
 458              	.LFB123:
 459              		.loc 1 195 0
 460              		.cfi_startproc
 461              		@ args = 0, pretend = 0, frame = 8
 462              		@ frame_needed = 0, uses_anonymous_args = 0
 463 0000 2DE9F043 		push	{r4, r5, r6, r7, r8, r9, lr}
 464              	.LCFI2:
 465              		.cfi_def_cfa_offset 28
 466              		.cfi_offset 4, -28
 467              		.cfi_offset 5, -24
 468              		.cfi_offset 6, -20
 469              		.cfi_offset 7, -16
 470              		.cfi_offset 8, -12
 471              		.cfi_offset 9, -8
 472              		.cfi_offset 14, -4
 473 0004 83B0     		sub	sp, sp, #12
 474              	.LCFI3:
 475              		.cfi_def_cfa_offset 40
 476              		.loc 1 196 0
 477 0006 FFF7FEFF 		bl	FLASH_Unlock
 478              	.LVL28:
 479              		.loc 1 198 0
 480 000a 7048     		ldr	r0, .L130
 481 000c 704B     		ldr	r3, .L130+4
 482 000e 4568     		ldr	r5, [r0, #4]
 483              		.loc 1 199 0
 484 0010 D0F814E0 		ldr	lr, [r0, #20]
 485              		.loc 1 198 0
 486 0014 2E88     		ldrh	r6, [r5, #0]
 487 0016 B6B2     		uxth	r6, r6
 488 0018 C681     		strh	r6, [r0, #14]	@ movhi
 489              		.loc 1 199 0
 490 001a BEF80070 		ldrh	r7, [lr, #0]
 491 001e BFB2     		uxth	r7, r7
 492 0020 C783     		strh	r7, [r0, #30]	@ movhi
 493              	.LVL29:
 494              		.loc 1 194 0
 495 0022 03F50874 		add	r4, r3, #544
 496              		.loc 1 203 0
 497 0026 0021     		movs	r1, #0
 498              	.LVL30:
 499              	.L81:
 500 0028 9A1C     		adds	r2, r3, #2
 501              		.loc 1 203 0 is_stmt 0 discriminator 2
 502 002a 5980     		strh	r1, [r3, #2]	@ movhi
 503 002c 0433     		adds	r3, r3, #4
 504              		.loc 1 202 0 is_stmt 1 discriminator 2
 505 002e A342     		cmp	r3, r4
 506              		.loc 1 203 0 discriminator 2
 507 0030 5180     		strh	r1, [r2, #2]	@ movhi
 508              		.loc 1 202 0 discriminator 2
 509 0032 F9D1     		bne	.L81
 510              		.loc 1 205 0
ARM GAS  /var/folders/ng/s8655sgx1ys_4lf9jzm2w6n00000gn/T//cc3YYM13.s 			page 10


 511 0034 4FF6FF74 		movw	r4, #65535
 512 0038 A642     		cmp	r6, r4
 513 003a 04D0     		beq	.L82
 514              		.loc 1 205 0 is_stmt 0 discriminator 1
 515 003c 4EF6EE61 		movw	r1, #61166
 516 0040 8E42     		cmp	r6, r1
 517 0042 00D0     		beq	.L82
 518 0044 46B9     		cbnz	r6, .L83
 519              	.L82:
 520              		.loc 1 205 0 discriminator 2
 521 0046 4FF6FF72 		movw	r2, #65535
 522 004a 9742     		cmp	r7, r2
 523 004c 10D0     		beq	.L84
 524              		.loc 1 205 0 discriminator 1
 525 004e 4EF6EE63 		movw	r3, #61166
 526 0052 9F42     		cmp	r7, r3
 527 0054 0CD0     		beq	.L84
 528 0056 5FB1     		cbz	r7, .L84
 529              	.L83:
 530              	.LBB42:
 531              		.loc 1 208 0 is_stmt 1
 532 0058 0221     		movs	r1, #2
 533 005a 8089     		ldrh	r0, [r0, #12]
 534 005c 5B4D     		ldr	r5, .L130
 535 005e FFF7FEFF 		bl	FLASH_EraseSector
 536              	.LVL31:
 537 0062 0828     		cmp	r0, #8
 538 0064 0446     		mov	r4, r0
 539              	.LVL32:
 540 0066 50D0     		beq	.L124
 541              	.LVL33:
 542              	.L86:
 543              	.LBE42:
 544              		.loc 1 267 0
 545 0068 2046     		mov	r0, r4
 546 006a 03B0     		add	sp, sp, #12
 547 006c BDE8F083 		pop	{r4, r5, r6, r7, r8, r9, pc}
 548              	.LVL34:
 549              	.L84:
 550              		.loc 1 205 0 discriminator 2
 551 0070 BE42     		cmp	r6, r7
 552 0072 F1D0     		beq	.L83
 553              		.loc 1 210 0
 554 0074 4FF6FF74 		movw	r4, #65535
 555 0078 A642     		cmp	r6, r4
 556 007a 00F08380 		beq	.L125
 557              		.loc 1 220 0
 558 007e A742     		cmp	r7, r4
 559 0080 68D0     		beq	.L126
 560              	.LBB43:
 561              		.loc 1 234 0
 562 0082 4EF6EE60 		movw	r0, #61166
 563 0086 8642     		cmp	r6, r0
 564 0088 5ED0     		beq	.L127
 565              		.loc 1 242 0
 566 008a DFF84081 		ldr	r8, .L130
 567              		.loc 1 241 0
ARM GAS  /var/folders/ng/s8655sgx1ys_4lf9jzm2w6n00000gn/T//cc3YYM13.s 			page 11


 568 008e 08F11009 		add	r9, r8, #16
 569              	.L91:
 570              	.LVL35:
 571 0092 0024     		movs	r4, #0
 572              		.loc 1 247 0
 573 0094 4FF6FF76 		movw	r6, #65535
 574 0098 16E0     		b	.L95
 575              	.LVL36:
 576              	.L111:
 577              		.loc 1 253 0
 578 009a 32B2     		sxth	r2, r6
 579 009c 9442     		cmp	r4, r2
 580 009e 0FD0     		beq	.L112
 581              	.LVL37:
 582              	.LBB44:
 583              	.LBB45:
 584              	.LBB46:
 585              		.loc 1 332 0
 586 00a0 E0B2     		uxtb	r0, r4
 587 00a2 0DF10601 		add	r1, sp, #6
 588              	.LVL38:
 589 00a6 FFF7FEFF 		bl	_read
 590              	.LVL39:
 591              	.LBE46:
 592              	.LBE45:
 593              		.loc 1 258 0
 594 00aa 0128     		cmp	r0, #1
 595 00ac 06D0     		beq	.L113
 596              	.LBB48:
 597              		.loc 1 259 0
 598 00ae 3846     		mov	r0, r7
 599 00b0 BDF80610 		ldrh	r1, [sp, #6]
 600 00b4 FFF7FEFF 		bl	_verifyAndWrite
 601              	.LVL40:
 602 00b8 0828     		cmp	r0, #8
 603 00ba 2ED1     		bne	.L104
 604              	.LVL41:
 605              	.L113:
 606 00bc D8F80450 		ldr	r5, [r8, #4]
 607              	.LVL42:
 608              	.L112:
 609 00c0 0134     		adds	r4, r4, #1
 610              	.LBE48:
 611              	.LBE44:
 612              		.loc 1 248 0
 613 00c2 B4F5887F 		cmp	r4, #272
 614 00c6 2AD0     		beq	.L128
 615              	.LVL43:
 616              	.L95:
 617              		.loc 1 250 0
 618 00c8 E988     		ldrh	r1, [r5, #6]
 619 00ca A7B2     		uxth	r7, r4
 620 00cc 8AB2     		uxth	r2, r1
 621 00ce BA42     		cmp	r2, r7
 622              		.loc 1 251 0
 623 00d0 08BF     		it	eq
 624 00d2 BEB2     		uxtheq	r6, r7
ARM GAS  /var/folders/ng/s8655sgx1ys_4lf9jzm2w6n00000gn/T//cc3YYM13.s 			page 12


 625              	.LVL44:
 626              		.loc 1 253 0
 627 00d4 33B2     		sxth	r3, r6
 628 00d6 9C42     		cmp	r4, r3
 629 00d8 0FD0     		beq	.L93
 630              	.LVL45:
 631              	.LBB51:
 632              	.LBB49:
 633              	.LBB47:
 634              		.loc 1 332 0
 635 00da E0B2     		uxtb	r0, r4
 636 00dc 0DF10601 		add	r1, sp, #6
 637              	.LVL46:
 638 00e0 FFF7FEFF 		bl	_read
 639              	.LVL47:
 640              	.LBE47:
 641              	.LBE49:
 642              		.loc 1 258 0
 643 00e4 0128     		cmp	r0, #1
 644 00e6 06D0     		beq	.L94
 645              	.LBB50:
 646              		.loc 1 259 0
 647 00e8 3846     		mov	r0, r7
 648 00ea BDF80610 		ldrh	r1, [sp, #6]
 649 00ee FFF7FEFF 		bl	_verifyAndWrite
 650              	.LVL48:
 651 00f2 0828     		cmp	r0, #8
 652 00f4 11D1     		bne	.L104
 653              	.LVL49:
 654              	.L94:
 655 00f6 D8F80450 		ldr	r5, [r8, #4]
 656              	.LVL50:
 657              	.L93:
 658              	.LBE50:
 659              	.LBE51:
 660              		.loc 1 250 0
 661 00fa E888     		ldrh	r0, [r5, #6]
 662 00fc 0134     		adds	r4, r4, #1
 663 00fe A7B2     		uxth	r7, r4
 664 0100 81B2     		uxth	r1, r0
 665 0102 B942     		cmp	r1, r7
 666 0104 C9D1     		bne	.L111
 667              		.loc 1 251 0
 668 0106 BEB2     		uxth	r6, r7
 669              	.LVL51:
 670 0108 C7E7     		b	.L111
 671              	.LVL52:
 672              	.L124:
 673              	.LBE43:
 674              	.LBB57:
 675              		.loc 1 208 0 discriminator 2
 676 010a FF26     		movs	r6, #255
 677              	.LBE57:
 678              	.LBB58:
 679 010c 0021     		movs	r1, #0
 680 010e 6868     		ldr	r0, [r5, #4]
 681              	.LVL53:
ARM GAS  /var/folders/ng/s8655sgx1ys_4lf9jzm2w6n00000gn/T//cc3YYM13.s 			page 13


 682              	.LBE58:
 683              	.LBB59:
 684 0110 EE81     		strh	r6, [r5, #14]	@ movhi
 685              	.LBE59:
 686              	.LBB60:
 687 0112 FFF7FEFF 		bl	FLASH_ProgramHalfWord
 688              	.LVL54:
 689 0116 0828     		cmp	r0, #8
 690 0118 44D0     		beq	.L129
 691              	.LVL55:
 692              	.L104:
 693              	.LBE60:
 694              	.LBB61:
 695              	.LBB52:
 696              		.loc 1 263 0
 697 011a 0446     		mov	r4, r0
 698 011c A4E7     		b	.L86
 699              	.LVL56:
 700              	.L128:
 701              	.LBE52:
 702              	.LBB53:
 703              		.loc 1 262 0
 704 011e 0021     		movs	r1, #0
 705 0120 2846     		mov	r0, r5
 706 0122 FFF7FEFF 		bl	FLASH_ProgramHalfWord
 707              	.LVL57:
 708 0126 0828     		cmp	r0, #8
 709 0128 F7D1     		bne	.L104
 710              		.loc 1 262 0 is_stmt 0 discriminator 2
 711 012a 0023     		movs	r3, #0
 712              	.LBE53:
 713              	.LBB54:
 714              		.loc 1 263 0 is_stmt 1 discriminator 2
 715 012c 0221     		movs	r1, #2
 716 012e B9F80C00 		ldrh	r0, [r9, #12]
 717              	.LVL58:
 718              	.LBE54:
 719              	.LBB55:
 720              		.loc 1 262 0 discriminator 2
 721 0132 A8F80E30 		strh	r3, [r8, #14]	@ movhi
 722              	.LBE55:
 723              	.LBB56:
 724              		.loc 1 263 0 discriminator 2
 725 0136 FFF7FEFF 		bl	FLASH_EraseSector
 726              	.LVL59:
 727 013a 0828     		cmp	r0, #8
 728 013c EDD1     		bne	.L104
 729 013e FF21     		movs	r1, #255
 730 0140 A9F80E10 		strh	r1, [r9, #14]	@ movhi
 731              		.loc 1 266 0 discriminator 2
 732 0144 0446     		mov	r4, r0
 733 0146 8FE7     		b	.L86
 734              	.LVL60:
 735              	.L127:
 736              	.LBE56:
 737              		.loc 1 237 0
 738 0148 DFF88880 		ldr	r8, .L130+8
ARM GAS  /var/folders/ng/s8655sgx1ys_4lf9jzm2w6n00000gn/T//cc3YYM13.s 			page 14


 739              		.loc 1 234 0
 740 014c 7546     		mov	r5, lr
 741              		.loc 1 236 0
 742 014e A8F11009 		sub	r9, r8, #16
 743 0152 9EE7     		b	.L91
 744              	.L126:
 745              	.LBE61:
 746              	.LBB62:
 747              		.loc 1 223 0
 748 0154 0221     		movs	r1, #2
 749 0156 808B     		ldrh	r0, [r0, #28]
 750 0158 1C4D     		ldr	r5, .L130
 751 015a FFF7FEFF 		bl	FLASH_EraseSector
 752              	.LVL61:
 753 015e 0828     		cmp	r0, #8
 754 0160 DBD1     		bne	.L104
 755              	.LBE62:
 756              		.loc 1 225 0 discriminator 2
 757 0162 E889     		ldrh	r0, [r5, #14]
 758              	.LVL62:
 759 0164 4EF6EE64 		movw	r4, #61166
 760              	.LBB63:
 761              		.loc 1 223 0 discriminator 2
 762 0168 FF22     		movs	r2, #255
 763              	.LBE63:
 764              		.loc 1 225 0 discriminator 2
 765 016a A042     		cmp	r0, r4
 766              	.LBB64:
 767              		.loc 1 223 0 discriminator 2
 768 016c EA83     		strh	r2, [r5, #30]	@ movhi
 769              	.LBE64:
 770              		.loc 1 225 0 discriminator 2
 771 016e 17D1     		bne	.L90
 772              	.LBB65:
 773              		.loc 1 227 0
 774 0170 0021     		movs	r1, #0
 775 0172 6868     		ldr	r0, [r5, #4]
 776 0174 FFF7FEFF 		bl	FLASH_ProgramHalfWord
 777              	.LVL63:
 778 0178 0828     		cmp	r0, #8
 779 017a CED1     		bne	.L104
 780              		.loc 1 227 0 is_stmt 0 discriminator 2
 781 017c 0023     		movs	r3, #0
 782 017e EB81     		strh	r3, [r5, #14]	@ movhi
 783              		.loc 1 266 0 is_stmt 1 discriminator 2
 784 0180 0446     		mov	r4, r0
 785 0182 71E7     		b	.L86
 786              	.LVL64:
 787              	.L125:
 788              	.LBE65:
 789              	.LBB66:
 790              		.loc 1 213 0
 791 0184 0221     		movs	r1, #2
 792 0186 8089     		ldrh	r0, [r0, #12]
 793 0188 104D     		ldr	r5, .L130
 794 018a FFF7FEFF 		bl	FLASH_EraseSector
 795              	.LVL65:
ARM GAS  /var/folders/ng/s8655sgx1ys_4lf9jzm2w6n00000gn/T//cc3YYM13.s 			page 15


 796 018e 0828     		cmp	r0, #8
 797 0190 C3D1     		bne	.L104
 798              	.LBE66:
 799              		.loc 1 215 0 discriminator 2
 800 0192 E98B     		ldrh	r1, [r5, #30]
 801 0194 4EF6EE62 		movw	r2, #61166
 802              	.LBB67:
 803              		.loc 1 213 0 discriminator 2
 804 0198 FF20     		movs	r0, #255
 805              	.LVL66:
 806              	.LBE67:
 807              		.loc 1 215 0 discriminator 2
 808 019a 9142     		cmp	r1, r2
 809              	.LBB68:
 810              		.loc 1 213 0 discriminator 2
 811 019c E881     		strh	r0, [r5, #14]	@ movhi
 812              	.LBE68:
 813              		.loc 1 215 0 discriminator 2
 814 019e 0BD0     		beq	.L88
 815              	.L90:
 816              	.LBB69:
 817              		.loc 1 266 0
 818 01a0 0824     		movs	r4, #8
 819 01a2 61E7     		b	.L86
 820              	.LVL67:
 821              	.L129:
 822              	.LBE69:
 823              	.LBB70:
 824              		.loc 1 208 0 discriminator 4
 825 01a4 0023     		movs	r3, #0
 826              	.LBE70:
 827              	.LBB71:
 828 01a6 0221     		movs	r1, #2
 829 01a8 A88B     		ldrh	r0, [r5, #28]
 830              	.LVL68:
 831              	.LBE71:
 832              	.LBB72:
 833 01aa EB81     		strh	r3, [r5, #14]	@ movhi
 834              	.LBE72:
 835              	.LBB73:
 836 01ac FFF7FEFF 		bl	FLASH_EraseSector
 837              	.LVL69:
 838 01b0 0828     		cmp	r0, #8
 839 01b2 B2D1     		bne	.L104
 840              		.loc 1 208 0 is_stmt 0 discriminator 6
 841 01b4 EE83     		strh	r6, [r5, #30]	@ movhi
 842              	.LBE73:
 843 01b6 57E7     		b	.L86
 844              	.LVL70:
 845              	.L88:
 846              	.LBB74:
 847              		.loc 1 217 0 is_stmt 1
 848 01b8 0021     		movs	r1, #0
 849 01ba 6869     		ldr	r0, [r5, #20]
 850 01bc FFF7FEFF 		bl	FLASH_ProgramHalfWord
 851              	.LVL71:
 852 01c0 0828     		cmp	r0, #8
ARM GAS  /var/folders/ng/s8655sgx1ys_4lf9jzm2w6n00000gn/T//cc3YYM13.s 			page 16


 853 01c2 AAD1     		bne	.L104
 854              		.loc 1 217 0 is_stmt 0 discriminator 2
 855 01c4 0024     		movs	r4, #0
 856 01c6 EC83     		strh	r4, [r5, #30]	@ movhi
 857              		.loc 1 266 0 is_stmt 1 discriminator 2
 858 01c8 0446     		mov	r4, r0
 859 01ca 4DE7     		b	.L86
 860              	.L131:
 861              		.align	2
 862              	.L130:
 863 01cc 00000000 		.word	.LANCHOR0
 864 01d0 FEFFFFFF 		.word	.LANCHOR2-2
 865 01d4 10000000 		.word	.LANCHOR0+16
 866              	.LBE74:
 867              		.cfi_endproc
 868              	.LFE123:
 869              		.size	_ee_init, .-_ee_init
 870 01d8 AFF30080 		.section	.text._pageTransfer,"ax",%progbits
 870      AFF30080 
 871              		.align	2
 872              		.p2align 4,,15
 873              		.global	_pageTransfer
 874              		.thumb
 875              		.thumb_func
 876              		.type	_pageTransfer, %function
 877              	_pageTransfer:
 878              	.LFB122:
 879              		.loc 1 149 0
 880              		.cfi_startproc
 881              		@ args = 0, pretend = 0, frame = 8
 882              		@ frame_needed = 0, uses_anonymous_args = 0
 883              	.LVL72:
 884 0000 2DE9F043 		push	{r4, r5, r6, r7, r8, r9, lr}
 885              	.LCFI4:
 886              		.cfi_def_cfa_offset 28
 887              		.cfi_offset 4, -28
 888              		.cfi_offset 5, -24
 889              		.cfi_offset 6, -20
 890              		.cfi_offset 7, -16
 891              		.cfi_offset 8, -12
 892              		.cfi_offset 9, -8
 893              		.cfi_offset 14, -4
 894 0004 384B     		ldr	r3, .L162
 895 0006 83B0     		sub	sp, sp, #12
 896              	.LCFI5:
 897              		.cfi_def_cfa_offset 40
 898              		.loc 1 149 0
 899 0008 0646     		mov	r6, r0
 900 000a 8846     		mov	r8, r1
 901              	.LBB75:
 902              		.loc 1 148 0
 903 000c 03F50875 		add	r5, r3, #544
 904              	.LBE75:
 905              		.loc 1 152 0
 906 0010 0024     		movs	r4, #0
 907              	.LVL73:
 908              	.L133:
ARM GAS  /var/folders/ng/s8655sgx1ys_4lf9jzm2w6n00000gn/T//cc3YYM13.s 			page 17


 909 0012 9A1C     		adds	r2, r3, #2
 910              		.loc 1 152 0 is_stmt 0 discriminator 2
 911 0014 5C80     		strh	r4, [r3, #2]	@ movhi
 912 0016 0433     		adds	r3, r3, #4
 913              		.loc 1 151 0 is_stmt 1 discriminator 2
 914 0018 AB42     		cmp	r3, r5
 915              		.loc 1 152 0 discriminator 2
 916 001a 5480     		strh	r4, [r2, #2]	@ movhi
 917              		.loc 1 151 0 discriminator 2
 918 001c F9D1     		bne	.L133
 919              		.loc 1 156 0
 920 001e FFF7FEFF 		bl	_getReadPage
 921              	.LVL74:
 922 0022 0746     		mov	r7, r0
 923 0024 B0B1     		cbz	r0, .L139
 924              		.loc 1 160 0
 925 0026 314D     		ldr	r5, .L162+4
 926 0028 90F80090 		ldrb	r9, [r0, #0]	@ zero_extendqisi2
 927 002c 2A46     		mov	r2, r5
 928              	.LBB76:
 929              		.loc 1 163 0
 930 002e 4EF6EE61 		movw	r1, #61166
 931              	.LBE76:
 932              		.loc 1 160 0
 933 0032 12F8100B 		ldrb	r0, [r2], #16	@ zero_extendqisi2
 934              	.LVL75:
 935 0036 8145     		cmp	r9, r0
 936 0038 14BF     		ite	ne
 937 003a A946     		movne	r9, r5
 938 003c 9146     		moveq	r9, r2
 939              	.LVL76:
 940              	.LBB77:
 941              		.loc 1 163 0
 942 003e D9F80400 		ldr	r0, [r9, #4]
 943 0042 FFF7FEFF 		bl	FLASH_ProgramHalfWord
 944              	.LVL77:
 945 0046 0828     		cmp	r0, #8
 946 0048 0546     		mov	r5, r0
 947              	.LVL78:
 948 004a 05D0     		beq	.L160
 949              	.LVL79:
 950              	.L134:
 951              	.LBE77:
 952              		.loc 1 192 0
 953 004c 2846     		mov	r0, r5
 954 004e 03B0     		add	sp, sp, #12
 955 0050 BDE8F083 		pop	{r4, r5, r6, r7, r8, r9, pc}
 956              	.LVL80:
 957              	.L139:
 958              		.loc 1 157 0
 959 0054 AB25     		movs	r5, #171
 960 0056 F9E7     		b	.L134
 961              	.LVL81:
 962              	.L160:
 963              	.LBB78:
 964              		.loc 1 163 0 discriminator 2
 965 0058 4EF6EE61 		movw	r1, #61166
ARM GAS  /var/folders/ng/s8655sgx1ys_4lf9jzm2w6n00000gn/T//cc3YYM13.s 			page 18


 966 005c A9F80E10 		strh	r1, [r9, #14]	@ movhi
 967              	.LBE78:
 968              	.LBB79:
 969              		.loc 1 166 0 discriminator 2
 970 0060 3046     		mov	r0, r6
 971              	.LVL82:
 972 0062 4146     		mov	r1, r8
 973 0064 FFF7FEFF 		bl	_verifyAndWrite
 974              	.LVL83:
 975 0068 0828     		cmp	r0, #8
 976 006a 01D0     		beq	.L161
 977              	.LVL84:
 978              	.L143:
 979              	.LBE79:
 980              	.LBB80:
 981              		.loc 1 189 0
 982 006c 0546     		mov	r5, r0
 983              	.LVL85:
 984 006e EDE7     		b	.L134
 985              	.LVL86:
 986              	.L161:
 987              	.LBE80:
 988              	.LBB81:
 989              		.loc 1 166 0
 990 0070 0024     		movs	r4, #0
 991              	.LVL87:
 992              	.L138:
 993              	.LBE81:
 994              		.loc 1 173 0
 995 0072 B442     		cmp	r4, r6
 996              	.LBB82:
 997              	.LBB83:
 998              	.LBB84:
 999              		.loc 1 332 0
 1000 0074 0DF10601 		add	r1, sp, #6
 1001              	.LVL88:
 1002 0078 E0B2     		uxtb	r0, r4
 1003              	.LBE84:
 1004              	.LBE83:
 1005              	.LBE82:
 1006              		.loc 1 173 0
 1007 007a 0AD0     		beq	.L136
 1008              	.LBB95:
 1009              	.LBB88:
 1010              	.LBB85:
 1011              		.loc 1 332 0
 1012 007c FFF7FEFF 		bl	_read
 1013              	.LVL89:
 1014              	.LBE85:
 1015              	.LBE88:
 1016              		.loc 1 177 0
 1017 0080 0128     		cmp	r0, #1
 1018              	.LBB89:
 1019              		.loc 1 180 0
 1020 0082 2046     		mov	r0, r4
 1021              	.LBE89:
 1022              		.loc 1 177 0
ARM GAS  /var/folders/ng/s8655sgx1ys_4lf9jzm2w6n00000gn/T//cc3YYM13.s 			page 19


 1023 0084 05D0     		beq	.L136
 1024              	.LBB90:
 1025              		.loc 1 180 0
 1026 0086 BDF80610 		ldrh	r1, [sp, #6]
 1027 008a FFF7FEFF 		bl	_verifyAndWrite
 1028              	.LVL90:
 1029 008e 0828     		cmp	r0, #8
 1030 0090 ECD1     		bne	.L143
 1031              	.LVL91:
 1032              	.L136:
 1033              	.LBE90:
 1034              	.LBE95:
 1035              		.loc 1 170 0
 1036 0092 0134     		adds	r4, r4, #1
 1037 0094 A4B2     		uxth	r4, r4
 1038              	.LVL92:
 1039              		.loc 1 173 0
 1040 0096 B442     		cmp	r4, r6
 1041              	.LBB96:
 1042              	.LBB91:
 1043              	.LBB86:
 1044              		.loc 1 332 0
 1045 0098 0DF10601 		add	r1, sp, #6
 1046              	.LVL93:
 1047 009c E0B2     		uxtb	r0, r4
 1048              	.LBE86:
 1049              	.LBE91:
 1050              	.LBE96:
 1051              		.loc 1 173 0
 1052 009e 0AD0     		beq	.L150
 1053              	.LBB97:
 1054              	.LBB92:
 1055              	.LBB87:
 1056              		.loc 1 332 0
 1057 00a0 FFF7FEFF 		bl	_read
 1058              	.LVL94:
 1059              	.LBE87:
 1060              	.LBE92:
 1061              		.loc 1 177 0
 1062 00a4 0128     		cmp	r0, #1
 1063              	.LBB93:
 1064              		.loc 1 180 0
 1065 00a6 2046     		mov	r0, r4
 1066              	.LBE93:
 1067              		.loc 1 177 0
 1068 00a8 05D0     		beq	.L150
 1069              	.LBB94:
 1070              		.loc 1 180 0
 1071 00aa BDF80610 		ldrh	r1, [sp, #6]
 1072 00ae FFF7FEFF 		bl	_verifyAndWrite
 1073              	.LVL95:
 1074 00b2 0828     		cmp	r0, #8
 1075 00b4 DAD1     		bne	.L143
 1076              	.LVL96:
 1077              	.L150:
 1078              	.LBE94:
 1079              	.LBE97:
ARM GAS  /var/folders/ng/s8655sgx1ys_4lf9jzm2w6n00000gn/T//cc3YYM13.s 			page 20


 1080              		.loc 1 170 0
 1081 00b6 631C     		adds	r3, r4, #1
 1082 00b8 9CB2     		uxth	r4, r3
 1083              	.LVL97:
 1084 00ba B4F5887F 		cmp	r4, #272
 1085 00be D8D1     		bne	.L138
 1086              	.LBB98:
 1087              		.loc 1 186 0
 1088 00c0 0221     		movs	r1, #2
 1089 00c2 B889     		ldrh	r0, [r7, #12]
 1090 00c4 FFF7FEFF 		bl	FLASH_EraseSector
 1091              	.LVL98:
 1092 00c8 0828     		cmp	r0, #8
 1093 00ca CFD1     		bne	.L143
 1094              		.loc 1 186 0 is_stmt 0 discriminator 2
 1095 00cc FF22     		movs	r2, #255
 1096              	.LBE98:
 1097              	.LBB99:
 1098              		.loc 1 189 0 is_stmt 1 discriminator 2
 1099 00ce 0021     		movs	r1, #0
 1100              	.LBE99:
 1101              	.LBB100:
 1102              		.loc 1 186 0 discriminator 2
 1103 00d0 FA81     		strh	r2, [r7, #14]	@ movhi
 1104              	.LBE100:
 1105              	.LBB101:
 1106              		.loc 1 189 0 discriminator 2
 1107 00d2 D9F80400 		ldr	r0, [r9, #4]
 1108              	.LVL99:
 1109 00d6 FFF7FEFF 		bl	FLASH_ProgramHalfWord
 1110              	.LVL100:
 1111 00da 0828     		cmp	r0, #8
 1112 00dc C6D1     		bne	.L143
 1113 00de 0020     		movs	r0, #0
 1114              	.LVL101:
 1115 00e0 A9F80E00 		strh	r0, [r9, #14]	@ movhi
 1116              	.LBE101:
 1117              		.loc 1 191 0 discriminator 2
 1118 00e4 B2E7     		b	.L134
 1119              	.L163:
 1120 00e6 00BF     		.align	2
 1121              	.L162:
 1122 00e8 FEFFFFFF 		.word	.LANCHOR2-2
 1123 00ec 00000000 		.word	.LANCHOR0
 1124              		.cfi_endproc
 1125              	.LFE122:
 1126              		.size	_pageTransfer, .-_pageTransfer
 1127              		.section	.text._write,"ax",%progbits
 1128              		.align	2
 1129              		.p2align 4,,15
 1130              		.global	_write
 1131              		.thumb
 1132              		.thumb_func
 1133              		.type	_write, %function
 1134              	_write:
 1135              	.LFB125:
 1136              		.loc 1 296 0
ARM GAS  /var/folders/ng/s8655sgx1ys_4lf9jzm2w6n00000gn/T//cc3YYM13.s 			page 21


 1137              		.cfi_startproc
 1138              		@ args = 0, pretend = 0, frame = 0
 1139              		@ frame_needed = 0, uses_anonymous_args = 0
 1140              	.LVL102:
 1141 0000 38B5     		push	{r3, r4, r5, lr}
 1142              	.LCFI6:
 1143              		.cfi_def_cfa_offset 16
 1144              		.cfi_offset 3, -16
 1145              		.cfi_offset 4, -12
 1146              		.cfi_offset 5, -8
 1147              		.cfi_offset 14, -4
 1148              		.loc 1 296 0
 1149 0002 0546     		mov	r5, r0
 1150 0004 0C46     		mov	r4, r1
 1151              		.loc 1 298 0
 1152 0006 FFF7FEFF 		bl	_verifyAndWrite
 1153              	.LVL103:
 1154              		.loc 1 301 0
 1155 000a EF28     		cmp	r0, #239
 1156 000c 00D0     		beq	.L166
 1157              	.LVL104:
 1158              		.loc 1 308 0
 1159 000e 38BD     		pop	{r3, r4, r5, pc}
 1160              	.LVL105:
 1161              	.L166:
 1162              		.loc 1 304 0
 1163 0010 2846     		mov	r0, r5
 1164              	.LVL106:
 1165 0012 2146     		mov	r1, r4
 1166              		.loc 1 308 0
 1167 0014 BDE83840 		pop	{r3, r4, r5, lr}
 1168              		.loc 1 304 0
 1169 0018 FFF7FEBF 		b	_pageTransfer
 1170              	.LVL107:
 1171              		.cfi_endproc
 1172              	.LFE125:
 1173              		.size	_write, .-_write
 1174 001c AFF30080 		.section	.text._ee_getReserved,"ax",%progbits
 1175              		.align	2
 1176              		.p2align 4,,15
 1177              		.global	_ee_getReserved
 1178              		.thumb
 1179              		.thumb_func
 1180              		.type	_ee_getReserved, %function
 1181              	_ee_getReserved:
 1182              	.LFB126:
 1183              		.loc 1 319 0
 1184              		.cfi_startproc
 1185              		@ args = 0, pretend = 0, frame = 0
 1186              		@ frame_needed = 0, uses_anonymous_args = 0
 1187              		@ link register save eliminated.
 1188              	.LVL108:
 1189              		.loc 1 320 0
 1190 0000 00F58070 		add	r0, r0, #256
 1191              	.LVL109:
 1192              		.loc 1 321 0
 1193              		.loc 1 320 0
ARM GAS  /var/folders/ng/s8655sgx1ys_4lf9jzm2w6n00000gn/T//cc3YYM13.s 			page 22


 1194 0004 FFF7FEBF 		b	_read
 1195              	.LVL110:
 1196              		.cfi_endproc
 1197              	.LFE126:
 1198              		.size	_ee_getReserved, .-_ee_getReserved
 1199 0008 AFF30080 		.section	.text._ee_putReserved,"ax",%progbits
 1199      AFF30080 
 1200              		.align	2
 1201              		.p2align 4,,15
 1202              		.global	_ee_putReserved
 1203              		.thumb
 1204              		.thumb_func
 1205              		.type	_ee_putReserved, %function
 1206              	_ee_putReserved:
 1207              	.LFB127:
 1208              		.loc 1 323 0
 1209              		.cfi_startproc
 1210              		@ args = 0, pretend = 0, frame = 0
 1211              		@ frame_needed = 0, uses_anonymous_args = 0
 1212              		@ link register save eliminated.
 1213              	.LVL111:
 1214              		.loc 1 324 0
 1215 0000 00F58070 		add	r0, r0, #256
 1216              	.LVL112:
 1217              		.loc 1 325 0
 1218              		.loc 1 324 0
 1219 0004 FFF7FEBF 		b	_write
 1220              	.LVL113:
 1221              		.cfi_endproc
 1222              	.LFE127:
 1223              		.size	_ee_putReserved, .-_ee_putReserved
 1224 0008 AFF30080 		.section	.text.ee_get,"ax",%progbits
 1224      AFF30080 
 1225              		.align	2
 1226              		.p2align 4,,15
 1227              		.global	ee_get
 1228              		.thumb
 1229              		.thumb_func
 1230              		.type	ee_get, %function
 1231              	ee_get:
 1232              	.LFB128:
 1233              		.loc 1 331 0
 1234              		.cfi_startproc
 1235              		@ args = 0, pretend = 0, frame = 0
 1236              		@ frame_needed = 0, uses_anonymous_args = 0
 1237              		@ link register save eliminated.
 1238              	.LVL114:
 1239              		.loc 1 333 0
 1240              		.loc 1 332 0
 1241 0000 FFF7FEBF 		b	_read
 1242              	.LVL115:
 1243              		.cfi_endproc
 1244              	.LFE128:
 1245              		.size	ee_get, .-ee_get
 1246 0004 AFF30080 		.section	.text.ee_put,"ax",%progbits
 1246      AFF30080 
 1246      AFF30080 
ARM GAS  /var/folders/ng/s8655sgx1ys_4lf9jzm2w6n00000gn/T//cc3YYM13.s 			page 23


 1247              		.align	2
 1248              		.p2align 4,,15
 1249              		.global	ee_put
 1250              		.thumb
 1251              		.thumb_func
 1252              		.type	ee_put, %function
 1253              	ee_put:
 1254              	.LFB129:
 1255              		.loc 1 336 0
 1256              		.cfi_startproc
 1257              		@ args = 0, pretend = 0, frame = 0
 1258              		@ frame_needed = 0, uses_anonymous_args = 0
 1259              		@ link register save eliminated.
 1260              	.LVL116:
 1261              		.loc 1 338 0
 1262              		.loc 1 337 0
 1263 0000 FFF7FEBF 		b	_write
 1264              	.LVL117:
 1265              		.cfi_endproc
 1266              	.LFE129:
 1267              		.size	ee_put, .-ee_put
 1268              		.global	_addrMap
 1269              		.global	_pages
 1270 0004 AFF30080 		.section	.data._pages,"aw",%progbits
 1270      AFF30080 
 1270      AFF30080 
 1271              		.align	2
 1272              		.set	.LANCHOR0,. + 0
 1273              		.type	_pages, %object
 1274              		.size	_pages, 32
 1275              	_pages:
 1276 0000 00       		.byte	0
 1277 0001 000000   		.space	3
 1278 0004 00800008 		.word	134250496
 1279 0008 FFBF0008 		.word	134266879
 1280 000c 1000     		.short	16
 1281 000e AAAA     		.short	-21846
 1282 0010 01       		.byte	1
 1283 0011 000000   		.space	3
 1284 0014 00C00008 		.word	134266880
 1285 0018 FFFF0008 		.word	134283263
 1286 001c 1800     		.short	24
 1287 001e AAAA     		.short	-21846
 1288              		.section	.bss._addrMap,"aw",%nobits
 1289              		.align	2
 1290              		.set	.LANCHOR2,. + 0
 1291              		.type	_addrMap, %object
 1292              		.size	_addrMap, 544
 1293              	_addrMap:
 1294 0000 00000000 		.space	544
 1294      00000000 
 1294      00000000 
 1294      00000000 
 1294      00000000 
 1295              		.section	.bss.nextWriteAddr.8374,"aw",%nobits
 1296              		.align	2
 1297              		.set	.LANCHOR1,. + 0
ARM GAS  /var/folders/ng/s8655sgx1ys_4lf9jzm2w6n00000gn/T//cc3YYM13.s 			page 24


 1298              		.type	nextWriteAddr.8374, %object
 1299              		.size	nextWriteAddr.8374, 4
 1300              	nextWriteAddr.8374:
 1301 0000 00000000 		.space	4
 1302              		.text
 1303              	.Letext0:
 1304              		.file 2 "/Users/jseng/gccarm/bin/../lib/gcc/arm-none-eabi/4.7.4/../../../../arm-none-eabi/include/
 1305              		.file 3 "../AithonLibrary/stm_flash.h"
 1306              		.file 4 "../AithonLibrary/ChibiOS/os/ports/common/ARMCMx/CMSIS/include/core_cm4.h"