ARM GAS  /var/folders/ng/s8655sgx1ys_4lf9jzm2w6n00000gn/T//cc3YYM13.s 			page 1


   1              		.syntax unified
   2              		.cpu cortex-m4
   3              		.eabi_attribute 27, 3
   4              		.fpu fpv4-sp-d16
   5              		.eabi_attribute 20, 1
   6              		.eabi_attribute 21, 1
   7              		.eabi_attribute 23, 3
   8              		.eabi_attribute 24, 1
   9              		.eabi_attribute 25, 1
  10              		.eabi_attribute 26, 1
  11              		.eabi_attribute 30, 2
  12              		.eabi_attribute 34, 1
  13              		.eabi_attribute 18, 4
  14              		.thumb
  15              		.file	"ee.c"
  16              		.text
  17              	.Ltext0:
  18              		.cfi_sections	.debug_frame
  19              		.section	.text._getReadPage,"ax",%progbits
  20              		.align	2
  21              		.p2align 4,,15
  22              		.global	_getReadPage
  23              		.thumb
  24              		.thumb_func
  25              		.type	_getReadPage, %function
  26              	_getReadPage:
  27              	.LFB119:
  28              		.file 1 "../AithonLibrary/ee.c"
  29              		.loc 1 85 0
  30              		.cfi_startproc
  31              		@ args = 0, pretend = 0, frame = 0
  32              		@ frame_needed = 0, uses_anonymous_args = 0
  33              		@ link register save eliminated.
  34              		.loc 1 86 0
  35 0000 0448     		ldr	r0, .L7
  36 0002 C389     		ldrh	r3, [r0, #14]
  37 0004 23B1     		cbz	r3, .L2
  38              	.LBB30:
  39              	.LBB31:
  40              		.loc 1 88 0
  41 0006 C18B     		ldrh	r1, [r0, #30]
  42              		.loc 1 89 0
  43 0008 1030     		adds	r0, r0, #16
  44 000a 0029     		cmp	r1, #0
  45 000c 18BF     		it	ne
  46 000e 0020     		movne	r0, #0
  47              	.L2:
  48              	.LBE31:
  49              	.LBE30:
  50              		.loc 1 92 0
  51 0010 7047     		bx	lr
  52              	.L8:
  53 0012 00BF     		.align	2
  54              	.L7:
  55 0014 00000000 		.word	.LANCHOR0
  56              		.cfi_endproc
  57              	.LFE119:
ARM GAS  /var/folders/ng/s8655sgx1ys_4lf9jzm2w6n00000gn/T//cc3YYM13.s 			page 2


  58              		.size	_getReadPage, .-_getReadPage
  59 0018 AFF30080 		.section	.text._getWritePage,"ax",%progbits
  59      AFF30080 
  60              		.align	2
  61              		.p2align 4,,15
  62              		.global	_getWritePage
  63              		.thumb
  64              		.thumb_func
  65              		.type	_getWritePage, %function
  66              	_getWritePage:
  67              	.LFB120:
  68              		.loc 1 95 0
  69              		.cfi_startproc
  70              		@ args = 0, pretend = 0, frame = 0
  71              		@ frame_needed = 0, uses_anonymous_args = 0
  72              		@ link register save eliminated.
  73              		.loc 1 96 0
  74 0000 0C4B     		ldr	r3, .L15
  75 0002 DA8B     		ldrh	r2, [r3, #30]
  76 0004 4AB9     		cbnz	r2, .L10
  77              		.loc 1 97 0
  78 0006 D889     		ldrh	r0, [r3, #14]
  79 0008 03F11001 		add	r1, r3, #16
  80 000c 4EF6EE62 		movw	r2, #61166
  81 0010 9042     		cmp	r0, r2
  82 0012 14BF     		ite	ne
  83 0014 0846     		movne	r0, r1
  84 0016 1846     		moveq	r0, r3
  85 0018 7047     		bx	lr
  86              	.L10:
  87              		.loc 1 98 0
  88 001a D989     		ldrh	r1, [r3, #14]
  89 001c 41B9     		cbnz	r1, .L13
  90              		.loc 1 99 0
  91 001e 03F11001 		add	r1, r3, #16
  92 0022 4EF6EE60 		movw	r0, #61166
  93 0026 8242     		cmp	r2, r0
  94 0028 14BF     		ite	ne
  95 002a 1846     		movne	r0, r3
  96 002c 0846     		moveq	r0, r1
  97 002e 7047     		bx	lr
  98              	.L13:
  99              		.loc 1 101 0
 100 0030 0020     		movs	r0, #0
 101              		.loc 1 102 0
 102 0032 7047     		bx	lr
 103              	.L16:
 104              		.align	2
 105              	.L15:
 106 0034 00000000 		.word	.LANCHOR0
 107              		.cfi_endproc
 108              	.LFE120:
 109              		.size	_getWritePage, .-_getWritePage
 110 0038 AFF30080 		.section	.text._verifyAndWrite,"ax",%progbits
 110      AFF30080 
 111              		.align	2
 112              		.p2align 4,,15
ARM GAS  /var/folders/ng/s8655sgx1ys_4lf9jzm2w6n00000gn/T//cc3YYM13.s 			page 3


 113              		.global	_verifyAndWrite
 114              		.thumb
 115              		.thumb_func
 116              		.type	_verifyAndWrite, %function
 117              	_verifyAndWrite:
 118              	.LFB121:
 119              		.loc 1 105 0
 120              		.cfi_startproc
 121              		@ args = 0, pretend = 0, frame = 0
 122              		@ frame_needed = 0, uses_anonymous_args = 0
 123              	.LVL0:
 124              	.LBB32:
 125              	.LBB33:
 126              		.loc 1 96 0
 127 0000 384B     		ldr	r3, .L54
 128 0002 DA8B     		ldrh	r2, [r3, #30]
 129              	.LBE33:
 130              	.LBE32:
 131              		.loc 1 105 0
 132 0004 2DE9F041 		push	{r4, r5, r6, r7, r8, lr}
 133              	.LCFI0:
 134              		.cfi_def_cfa_offset 24
 135              		.cfi_offset 4, -24
 136              		.cfi_offset 5, -20
 137              		.cfi_offset 6, -16
 138              		.cfi_offset 7, -12
 139              		.cfi_offset 8, -8
 140              		.cfi_offset 14, -4
 141              		.loc 1 105 0
 142 0008 8046     		mov	r8, r0
 143              	.LBB37:
 144              	.LBB34:
 145              		.loc 1 96 0
 146 000a 002A     		cmp	r2, #0
 147 000c 32D1     		bne	.L18
 148              		.loc 1 97 0
 149 000e DE89     		ldrh	r6, [r3, #14]
 150 0010 03F11000 		add	r0, r3, #16
 151              	.LVL1:
 152 0014 4EF6EE62 		movw	r2, #61166
 153 0018 9642     		cmp	r6, r2
 154 001a 0CBF     		ite	eq
 155 001c 1F46     		moveq	r7, r3
 156 001e 0746     		movne	r7, r0
 157              	.L20:
 158              	.LBE34:
 159              	.LBE37:
 160              		.loc 1 115 0
 161 0020 314E     		ldr	r6, .L54+4
 162 0022 3368     		ldr	r3, [r6, #0]
 163 0024 002B     		cmp	r3, #0
 164 0026 2BD1     		bne	.L49
 165              		.loc 1 118 0
 166 0028 7A68     		ldr	r2, [r7, #4]
 167 002a BD68     		ldr	r5, [r7, #8]
 168 002c 131D     		adds	r3, r2, #4
 169 002e AB42     		cmp	r3, r5
ARM GAS  /var/folders/ng/s8655sgx1ys_4lf9jzm2w6n00000gn/T//cc3YYM13.s 			page 4


 170 0030 3360     		str	r3, [r6, #0]
 171 0032 2AD2     		bcs	.L23
 172              		.loc 1 120 0
 173 0034 5468     		ldr	r4, [r2, #4]
 174 0036 601C     		adds	r0, r4, #1
 175 0038 27D0     		beq	.L23
 176 003a 02F10803 		add	r3, r2, #8
 177 003e E81A     		subs	r0, r5, r3
 178 0040 C41C     		adds	r4, r0, #3
 179 0042 6007     		lsls	r0, r4, #29
 180 0044 12D5     		bpl	.L24
 181              		.loc 1 118 0
 182 0046 AB42     		cmp	r3, r5
 183 0048 1ED2     		bcs	.L48
 184              		.loc 1 120 0
 185 004a 1868     		ldr	r0, [r3, #0]
 186 004c 0C32     		adds	r2, r2, #12
 187 004e 0130     		adds	r0, r0, #1
 188 0050 1AD0     		beq	.L48
 189 0052 1346     		mov	r3, r2
 190              		.loc 1 118 0
 191 0054 AB42     		cmp	r3, r5
 192              		.loc 1 120 0
 193 0056 1A46     		mov	r2, r3
 194              		.loc 1 118 0
 195 0058 16D2     		bcs	.L48
 196              	.L25:
 197              		.loc 1 120 0
 198 005a 52F8044B 		ldr	r4, [r2], #4
 199 005e 0134     		adds	r4, r4, #1
 200 0060 12D0     		beq	.L48
 201 0062 1068     		ldr	r0, [r2, #0]
 202 0064 1346     		mov	r3, r2
 203 0066 421C     		adds	r2, r0, #1
 204 0068 0ED0     		beq	.L48
 205 006a 0433     		adds	r3, r3, #4
 206              	.L24:
 207              		.loc 1 118 0
 208 006c AB42     		cmp	r3, r5
 209              		.loc 1 120 0
 210 006e 1A46     		mov	r2, r3
 211              		.loc 1 118 0
 212 0070 F3D3     		bcc	.L25
 213 0072 09E0     		b	.L48
 214              	.LVL2:
 215              	.L18:
 216              	.LBB38:
 217              	.LBB35:
 218              		.loc 1 98 0
 219 0074 D889     		ldrh	r0, [r3, #14]
 220              	.LVL3:
 221 0076 78B1     		cbz	r0, .L50
 222              		.loc 1 109 0
 223 0078 AB24     		movs	r4, #171
 224              	.LVL4:
 225              	.L35:
 226              	.LBE35:
ARM GAS  /var/folders/ng/s8655sgx1ys_4lf9jzm2w6n00000gn/T//cc3YYM13.s 			page 5


 227              	.LBE38:
 228              		.loc 1 146 0
 229 007a 2046     		mov	r0, r4
 230 007c BDE8F081 		pop	{r4, r5, r6, r7, r8, pc}
 231              	.LVL5:
 232              	.L49:
 233              		.loc 1 127 0
 234 0080 7C68     		ldr	r4, [r7, #4]
 235 0082 A342     		cmp	r3, r4
 236 0084 11D2     		bcs	.L51
 237              	.L26:
 238              		.loc 1 131 0
 239 0086 231D     		adds	r3, r4, #4
 240              	.L48:
 241 0088 3360     		str	r3, [r6, #0]
 242              	.L23:
 243              		.loc 1 135 0
 244 008a 1A68     		ldr	r2, [r3, #0]
 245 008c 0132     		adds	r2, r2, #1
 246 008e 10D0     		beq	.L52
 247              		.loc 1 145 0
 248 0090 EF24     		movs	r4, #239
 249              		.loc 1 146 0
 250 0092 2046     		mov	r0, r4
 251 0094 BDE8F081 		pop	{r4, r5, r6, r7, r8, pc}
 252              	.L50:
 253              	.LBB39:
 254              	.LBB36:
 255              		.loc 1 99 0
 256 0098 03F11004 		add	r4, r3, #16
 257 009c 4EF6EE67 		movw	r7, #61166
 258 00a0 BA42     		cmp	r2, r7
 259 00a2 14BF     		ite	ne
 260 00a4 1F46     		movne	r7, r3
 261 00a6 2746     		moveq	r7, r4
 262 00a8 BAE7     		b	.L20
 263              	.L51:
 264              	.LBE36:
 265              	.LBE39:
 266              		.loc 1 127 0 discriminator 1
 267 00aa B868     		ldr	r0, [r7, #8]
 268 00ac 8342     		cmp	r3, r0
 269 00ae ECD3     		bcc	.L23
 270 00b0 E9E7     		b	.L26
 271              	.L52:
 272              	.LBB40:
 273              		.loc 1 137 0
 274 00b2 1846     		mov	r0, r3
 275 00b4 FFF7FEFF 		bl	FLASH_ProgramHalfWord
 276              	.LVL6:
 277 00b8 0828     		cmp	r0, #8
 278 00ba 0446     		mov	r4, r0
 279              	.LVL7:
 280 00bc DDD1     		bne	.L35
 281              	.LBE40:
 282              	.LBB41:
 283              		.loc 1 138 0
ARM GAS  /var/folders/ng/s8655sgx1ys_4lf9jzm2w6n00000gn/T//cc3YYM13.s 			page 6


 284 00be 3168     		ldr	r1, [r6, #0]
 285 00c0 094D     		ldr	r5, .L54+4
 286 00c2 881C     		adds	r0, r1, #2
 287              	.LVL8:
 288 00c4 4146     		mov	r1, r8
 289 00c6 FFF7FEFF 		bl	FLASH_ProgramHalfWord
 290              	.LVL9:
 291 00ca 0828     		cmp	r0, #8
 292 00cc 01D0     		beq	.L53
 293 00ce 0446     		mov	r4, r0
 294              	.LVL10:
 295 00d0 D3E7     		b	.L35
 296              	.LVL11:
 297              	.L53:
 298              	.LBE41:
 299              		.loc 1 139 0
 300 00d2 2868     		ldr	r0, [r5, #0]
 301              	.LVL12:
 302 00d4 7B68     		ldr	r3, [r7, #4]
 303 00d6 054A     		ldr	r2, .L54+8
 304 00d8 C11A     		subs	r1, r0, r3
 305              		.loc 1 140 0
 306 00da 0430     		adds	r0, r0, #4
 307              		.loc 1 139 0
 308 00dc 22F81810 		strh	r1, [r2, r8, lsl #1]	@ movhi
 309              		.loc 1 140 0
 310 00e0 2860     		str	r0, [r5, #0]
 311              		.loc 1 141 0
 312 00e2 CAE7     		b	.L35
 313              	.L55:
 314              		.align	2
 315              	.L54:
 316 00e4 00000000 		.word	.LANCHOR0
 317 00e8 00000000 		.word	.LANCHOR1
 318 00ec 00000000 		.word	.LANCHOR2
 319              		.cfi_endproc
 320              	.LFE121:
 321              		.size	_verifyAndWrite, .-_verifyAndWrite
 322              		.section	.text._read,"ax",%progbits
 323              		.align	2
 324              		.p2align 4,,15
 325              		.global	_read
 326              		.thumb
 327              		.thumb_func
 328              		.type	_read, %function
 329              	_read:
 330              	.LFB124:
 331              		.loc 1 270 0
 332              		.cfi_startproc
 333              		@ args = 0, pretend = 0, frame = 0
 334              		@ frame_needed = 0, uses_anonymous_args = 0
 335              	.LVL13:
 336 0000 70B5     		push	{r4, r5, r6, lr}
 337              	.LCFI1:
 338              		.cfi_def_cfa_offset 16
 339              		.cfi_offset 4, -16
 340              		.cfi_offset 5, -12
ARM GAS  /var/folders/ng/s8655sgx1ys_4lf9jzm2w6n00000gn/T//cc3YYM13.s 			page 7


 341              		.cfi_offset 6, -8
 342              		.cfi_offset 14, -4
 343              		.loc 1 270 0
 344 0002 0446     		mov	r4, r0
 345 0004 0D46     		mov	r5, r1
 346              		.loc 1 273 0
 347 0006 FFF7FEFF 		bl	_getReadPage
 348              	.LVL14:
 349 000a 0028     		cmp	r0, #0
 350 000c 37D0     		beq	.L64
 351              		.loc 1 278 0
 352 000e 1D4E     		ldr	r6, .L78
 353              		.loc 1 277 0
 354 0010 8268     		ldr	r2, [r0, #8]
 355              	.LVL15:
 356              		.loc 1 278 0
 357 0012 36F81430 		ldrh	r3, [r6, r4, lsl #1]
 358              		.loc 1 280 0
 359 0016 4168     		ldr	r1, [r0, #4]
 360              		.loc 1 278 0
 361 0018 0BBB     		cbnz	r3, .L58
 362              		.loc 1 277 0
 363 001a 531E     		subs	r3, r2, #1
 364              	.LVL16:
 365 001c 881C     		adds	r0, r1, #2
 366              	.LVL17:
 367              	.L59:
 368              		.loc 1 282 0 discriminator 1
 369 001e 8342     		cmp	r3, r0
 370 0020 1BD9     		bls	.L65
 371              		.loc 1 284 0
 372 0022 1A88     		ldrh	r2, [r3, #0]
 373 0024 92B2     		uxth	r2, r2
 374 0026 A242     		cmp	r2, r4
 375 0028 1CD0     		beq	.L60
 376 002a C243     		mvns	r2, r0
 377 002c D218     		adds	r2, r2, r3
 378 002e 5207     		lsls	r2, r2, #29
 379 0030 10D5     		bpl	.L66
 380              		.loc 1 282 0
 381 0032 043B     		subs	r3, r3, #4
 382              	.LVL18:
 383 0034 8342     		cmp	r3, r0
 384 0036 10D9     		bls	.L65
 385              		.loc 1 284 0
 386 0038 1A88     		ldrh	r2, [r3, #0]
 387 003a 92B2     		uxth	r2, r2
 388 003c A242     		cmp	r2, r4
 389 003e 09D1     		bne	.L66
 390 0040 10E0     		b	.L60
 391              	.L63:
 392 0042 1A88     		ldrh	r2, [r3, #0]
 393 0044 92B2     		uxth	r2, r2
 394 0046 A242     		cmp	r2, r4
 395 0048 0CD0     		beq	.L60
 396 004a 33F8042D 		ldrh	r2, [r3, #-4]!
 397              	.LVL19:
ARM GAS  /var/folders/ng/s8655sgx1ys_4lf9jzm2w6n00000gn/T//cc3YYM13.s 			page 8


 398 004e 92B2     		uxth	r2, r2
 399 0050 A242     		cmp	r2, r4
 400 0052 07D0     		beq	.L60
 401              	.LVL20:
 402              	.L66:
 403              		.loc 1 282 0
 404 0054 043B     		subs	r3, r3, #4
 405              	.LVL21:
 406 0056 8342     		cmp	r3, r0
 407 0058 F3D8     		bhi	.L63
 408              	.L65:
 409              		.loc 1 292 0
 410 005a 0120     		movs	r0, #1
 411              		.loc 1 293 0
 412 005c 70BD     		pop	{r4, r5, r6, pc}
 413              	.LVL22:
 414              	.L58:
 415              		.loc 1 280 0
 416 005e 881C     		adds	r0, r1, #2
 417              	.LVL23:
 418 0060 1B18     		adds	r3, r3, r0
 419              	.LVL24:
 420 0062 DCE7     		b	.L59
 421              	.LVL25:
 422              	.L60:
 423              		.loc 1 286 0
 424 0064 4FF6FE70 		movw	r0, #65534
 425 0068 CFF6FF70 		movt	r0, 65535
 426 006c 411A     		subs	r1, r0, r1
 427 006e CA18     		adds	r2, r1, r3
 428 0070 26F81420 		strh	r2, [r6, r4, lsl #1]	@ movhi
 429              		.loc 1 287 0
 430 0074 33F8023C 		ldrh	r3, [r3, #-2]
 431              		.loc 1 288 0
 432 0078 0020     		movs	r0, #0
 433              		.loc 1 287 0
 434 007a 2B80     		strh	r3, [r5, #0]	@ movhi
 435              		.loc 1 288 0
 436 007c 70BD     		pop	{r4, r5, r6, pc}
 437              	.LVL26:
 438              	.L64:
 439              		.loc 1 274 0
 440 007e AB20     		movs	r0, #171
 441              	.LVL27:
 442 0080 70BD     		pop	{r4, r5, r6, pc}
 443              	.L79:
 444 0082 00BF     		.align	2
 445              	.L78:
 446 0084 00000000 		.word	.LANCHOR2
 447              		.cfi_endproc
 448              	.LFE124:
 449              		.size	_read, .-_read
 450 0088 AFF30080 		.section	.text._ee_init,"ax",%progbits
 450      AFF30080 
 451              		.align	2
 452              		.p2align 4,,15
 453              		.global	_ee_init
ARM GAS  /var/folders/ng/s8655sgx1ys_4lf9jzm2w6n00000gn/T//cc3YYM13.s 			page 9


 454              		.thumb
 455              		.thumb_func
 456              		.type	_ee_init, %function
 457              	_ee_init:
 458              	.LFB123:
 459              		.loc 1 195 0
 460              		.cfi_startproc
 461              		@ args = 0, pretend = 0, frame = 8
 462              		@ frame_needed = 0, uses_anonymous_args = 0
 463 0000 2DE9F043 		push	{r4, r5, r6, r7, r8, r9, lr}
 464              	.LCFI2:
 465              		.cfi_def_cfa_offset 28
 466              		.cfi_offset 4, -28
 467              		.cfi_offset 5, -24
 468              		.cfi_offset 6, -20
 469              		.cfi_offset 7, -16
 470              		.cfi_offset 8, -12
 471              		.cfi_offset 9, -8
 472              		.cfi_offset 14, -4
 473 0004 83B0     		sub	sp, sp, #12
 474              	.LCFI3:
 475              		.cfi_def_cfa_offset 40
 476              		.loc 1 196 0
 477 0006 FFF7FEFF 		bl	FLASH_Unlock
 478              	.LVL28:
 479              		.loc 1 198 0
 480 000a 7048     		ldr	r0, .L130
 481 000c 704B     		ldr	r3, .L130+4
 482 000e 4568     		ldr	r5, [r0, #4]
 483              		.loc 1 199 0
 484 0010 D0F814E0 		ldr	lr, [r0, #20]
 485              		.loc 1 198 0
 486 0014 2E88     		ldrh	r6, [r5, #0]
 487 0016 B6B2     		uxth	r6, r6
 488 0018 C681     		strh	r6, [r0, #14]	@ movhi
 489              		.loc 1 199 0
 490 001a BEF80070 		ldrh	r7, [lr, #0]
 491 001e BFB2     		uxth	r7, r7
 492 0020 C783     		strh	r7, [r0, #30]	@ movhi
 493              	.LVL29:
 494              		.loc 1 194 0
 495 0022 03F50874 		add	r4, r3, #544
 496              		.loc 1 203 0
 497 0026 0021     		movs	r1, #0
 498              	.LVL30:
 499              	.L81:
 500 0028 9A1C     		adds	r2, r3, #2
 501              		.loc 1 203 0 is_stmt 0 discriminator 2
 502 002a 5980     		strh	r1, [r3, #2]	@ movhi
 503 002c 0433     		adds	r3, r3, #4
 504              		.loc 1 202 0 is_stmt 1 discriminator 2
 505 002e A342     		cmp	r3, r4
 506              		.loc 1 203 0 discriminator 2
 507 0030 5180     		strh	r1, [r2, #2]	@ movhi
 508              		.loc 1 202 0 discriminator 2
 509 0032 F9D1     		bne	.L81
 510              		.loc 1 205 0
ARM GAS  /var/folders/ng/s8655sgx1ys_4lf9jzm2w6n00000gn/T//cc3YYM13.s 			page 10


 511 0034 4FF6FF74 		movw	r4, #65535
 512 0038 A642     		cmp	r6, r4
 513 003a 04D0     		beq	.L82
 514              		.loc 1 205 0 is_stmt 0 discriminator 1
 515 003c 4EF6EE61 		movw	r1, #61166
 516 0040 8E42     		cmp	r6, r1
 517 0042 00D0     		beq	.L82
 518 0044 46B9     		cbnz	r6, .L83
 519              	.L82:
 520              		.loc 1 205 0 discriminator 2
 521 0046 4FF6FF72 		movw	r2, #65535
 522 004a 9742     		cmp	r7, r2
 523 004c 10D0     		beq	.L84
 524              		.loc 1 205 0 discriminator 1
 525 004e 4EF6EE63 		movw	r3, #61166
 526 0052 9F42     		cmp	r7, r3
 527 0054 0CD0     		beq	.L84
 528 0056 5FB1     		cbz	r7, .L84
 529              	.L83:
 530              	.LBB42:
 531              		.loc 1 208 0 is_stmt 1
 532 0058 0221     		movs	r1, #2
 533 005a 8089     		ldrh	r0, [r0, #12]
 534 005c 5B4D     		ldr	r5, .L130
 535 005e FFF7FEFF 		bl	FLASH_EraseSector
 536              	.LVL31:
 537 0062 0828     		cmp	r0, #8
 538 0064 0446     		mov	r4, r0
 539              	.LVL32:
 540 0066 50D0     		beq	.L124
 541              	.LVL33:
 542              	.L86:
 543              	.LBE42:
 544              		.loc 1 267 0
 545 0068 2046     		mov	r0, r4
 546 006a 03B0     		add	sp, sp, #12
 547 006c BDE8F083 		pop	{r4, r5, r6, r7, r8, r9, pc}
 548              	.LVL34:
 549              	.L84:
 550              		.loc 1 205 0 discriminator 2
 551 0070 BE42     		cmp	r6, r7
 552 0072 F1D0     		beq	.L83
 553              		.loc 1 210 0
 554 0074 4FF6FF74 		movw	r4, #65535
 555 0078 A642     		cmp	r6, r4
 556 007a 00F08380 		beq	.L125
 557              		.loc 1 220 0
 558 007e A742     		cmp	r7, r4
 559 0080 68D0     		beq	.L126
 560              	.LBB43:
 561              		.loc 1 234 0
 562 0082 4EF6EE60 		movw	r0, #61166
 563 0086 8642     		cmp	r6, r0
 564 0088 5ED0     		beq	.L127
 565              		.loc 1 242 0
 566 008a DFF84081 		ldr	r8, .L130
 567              		.loc 1 241 0
ARM GAS  /var/folders/ng/s8655sgx1ys_4lf9jzm2w6n00000gn/T//cc3YYM13.s 			page 11


 568 008e 08F11009 		add	r9, r8, #16
 569              	.L91:
 570              	.LVL35:
 571 0092 0024     		movs	r4, #0
 572              		.loc 1 247 0
 573 0094 4FF6FF76 		movw	r6, #65535
 574 0098 16E0     		b	.L95
 575              	.LVL36:
 576              	.L111:
 577              		.loc 1 253 0
 578 009a 32B2     		sxth	r2, r6
 579 009c 9442     		cmp	r4, r2
 580 009e 0FD0     		beq	.L112
 581              	.LVL37:
 582              	.LBB44:
 583              	.LBB45:
 584              	.LBB46:
 585              		.loc 1 332 0
 586 00a0 E0B2     		uxtb	r0, r4
 587 00a2 0DF10601 		add	r1, sp, #6
 588              	.LVL38:
 589 00a6 FFF7FEFF 		bl	_read
 590              	.LVL39:
 591              	.LBE46:
 592              	.LBE45:
 593              		.loc 1 258 0
 594 00aa 0128     		cmp	r0, #1
 595 00ac 06D0     		beq	.L113
 596              	.LBB48:
 597              		.loc 1 259 0
 598 00ae 3846     		mov	r0, r7
 599 00b0 BDF80610 		ldrh	r1, [sp, #6]
 600 00b4 FFF7FEFF 		bl	_verifyAndWrite
 601              	.LVL40:
 602 00b8 0828     		cmp	r0, #8
 603 00ba 2ED1     		bne	.L104
 604              	.LVL41:
 605              	.L113:
 606 00bc D8F80450 		ldr	r5, [r8, #4]
 607              	.LVL42:
 608              	.L112:
 609 00c0 0134     		adds	r4, r4, #1
 610              	.LBE48:
 611              	.LBE44:
 612              		.loc 1 248 0
 613 00c2 B4F5887F 		cmp	r4, #272
 614 00c6 2AD0     		beq	.L128
 615              	.LVL43:
 616              	.L95:
 617              		.loc 1 250 0
 618 00c8 E988     		ldrh	r1, [r5, #6]
 619 00ca A7B2     		uxth	r7, r4
 620 00cc 8AB2     		uxth	r2, r1
 621 00ce BA42     		cmp	r2, r7
 622              		.loc 1 251 0
 623 00d0 08BF     		it	eq
 624 00d2 BEB2     		uxtheq	r6, r7
ARM GAS  /var/folders/ng/s8655sgx1ys_4lf9jzm2w6n00000gn/T//cc3YYM13.s 			page 12


 625              	.LVL44:
 626              		.loc 1 253 0
 627 00d4 33B2     		sxth	r3, r6
 628 00d6 9C42     		cmp	r4, r3
 629 00d8 0FD0     		beq	.L93
 630              	.LVL45:
 631              	.LBB51:
 632              	.LBB49:
 633              	.LBB47:
 634              		.loc 1 332 0
 635 00da E0B2     		uxtb	r0, r4
 636 00dc 0DF10601 		add	r1, sp, #6
 637              	.LVL46:
 638 00e0 FFF7FEFF 		bl	_read
 639              	.LVL47:
 640              	.LBE47:
 641              	.LBE49:
 642              		.loc 1 258 0
 643 00e4 0128     		cmp	r0, #1
 644 00e6 06D0     		beq	.L94
 645              	.LBB50:
 646              		.loc 1 259 0
 647 00e8 3846     		mov	r0, r7
 648 00ea BDF80610 		ldrh	r1, [sp, #6]
 649 00ee FFF7FEFF 		bl	_verifyAndWrite
 650              	.LVL48:
 651 00f2 0828     		cmp	r0, #8
 652 00f4 11D1     		bne	.L104
 653              	.LVL49:
 654              	.L94:
 655 00f6 D8F80450 		ldr	r5, [r8, #4]
 656              	.LVL50:
 657              	.L93:
 658              	.LBE50:
 659              	.LBE51:
 660              		.loc 1 250 0
 661 00fa E888     		ldrh	r0, [r5, #6]
 662 00fc 0134     		adds	r4, r4, #1
 663 00fe A7B2     		uxth	r7, r4
 664 0100 81B2     		uxth	r1, r0
 665 0102 B942     		cmp	r1, r7
 666 0104 C9D1     		bne	.L111
 667              		.loc 1 251 0
 668 0106 BEB2     		uxth	r6, r7
 669              	.LVL51:
 670 0108 C7E7     		b	.L111
 671              	.LVL52:
 672              	.L124:
 673              	.LBE43:
 674              	.LBB57:
 675              		.loc 1 208 0 discriminator 2
 676 010a FF26     		movs	r6, #255
 677              	.LBE57:
 678              	.LBB58:
 679 010c 0021     		movs	r1, #0
 680 010e 6868     		ldr	r0, [r5, #4]
 681              	.LVL53:
ARM GAS  /var/folders/ng/s8655sgx1ys_4lf9jzm2w6n00000gn/T//cc3YYM13.s 			page 13


 682              	.LBE58:
 683              	.LBB59:
 684 0110 EE81     		strh	r6, [r5, #14]	@ movhi
 685              	.LBE59:
 686              	.LBB60:
 687 0112 FFF7FEFF 		bl	FLASH_ProgramHalfWord
 688              	.LVL54:
 689 0116 0828     		cmp	r0, #8
 690 0118 44D0     		beq	.L129
 691              	.LVL55:
 692              	.L104:
 693              	.LBE60:
 694              	.LBB61:
 695              	.LBB52:
 696              		.loc 1 263 0
 697 011a 0446     		mov	r4, r0
 698 011c A4E7     		b	.L86
 699              	.LVL56:
 700              	.L128:
 701              	.LBE52:
 702              	.LBB53:
 703              		.loc 1 262 0
 704 011e 0021     		movs	r1, #0
 705 0120 2846     		mov	r0, r5
 706 0122 FFF7FEFF 		bl	FLASH_ProgramHalfWord
 707              	.LVL57:
 708 0126 0828     		cmp	r0, #8
 709 0128 F7D1     		bne	.L104
 710              		.loc 1 262 0 is_stmt 0 discriminator 2
 711 012a 0023     		movs	r3, #0
 712              	.LBE53:
 713              	.LBB54:
 714              		.loc 1 263 0 is_stmt 1 discriminator 2
 715 012c 0221     		movs	r1, #2
 716 012e B9F80C00 		ldrh	r0, [r9, #12]
 717              	.LVL58:
 718              	.LBE54:
 719              	.LBB55:
 720              		.loc 1 262 0 discriminator 2
 721 0132 A8F80E30 		strh	r3, [r8, #14]	@ movhi
 722              	.LBE55:
 723              	.LBB56:
 724              		.loc 1 263 0 discriminator 2
 725 0136 FFF7FEFF 		bl	FLASH_EraseSector
 726              	.LVL59:
 727 013a 0828     		cmp	r0, #8
 728 013c EDD1     		bne	.L104
 729 013e FF21     		movs	r1, #255
 730 0140 A9F80E10 		strh	r1, [r9, #14]	@ movhi
 731              		.loc 1 266 0 discriminator 2
 732 0144 0446     		mov	r4, r0
 733 0146 8FE7     		b	.L86
 734              	.LVL60:
 735              	.L127:
 736              	.LBE56:
 737              		.loc 1 237 0
 738 0148 DFF88880 		ldr	r8, .L130+8
ARM GAS  /var/folders/ng/s8655sgx1ys_4lf9jzm2w6n00000gn/T//cc3YYM13.s 			page 14


 739              		.loc 1 234 0
 740 014c 7546     		mov	r5, lr
 741              		.loc 1 236 0
 742 014e A8F11009 		sub	r9, r8, #16
 743 0152 9EE7     		b	.L91
 744              	.L126:
 745              	.LBE61:
 746              	.LBB62:
 747              		.loc 1 223 0
 748 0154 0221     		movs	r1, #2
 749 0156 808B     		ldrh	r0, [r0, #28]
 750 0158 1C4D     		ldr	r5, .L130
 751 015a FFF7FEFF 		bl	FLASH_EraseSector
 752              	.LVL61:
 753 015e 0828     		cmp	r0, #8
 754 0160 DBD1     		bne	.L104
 755              	.LBE62:
 756              		.loc 1 225 0 discriminator 2
 757 0162 E889     		ldrh	r0, [r5, #14]
 758              	.LVL62:
 759 0164 4EF6EE64 		movw	r4, #61166
 760              	.LBB63:
 761              		.loc 1 223 0 discriminator 2
 762 0168 FF22     		movs	r2, #255
 763              	.LBE63:
 764              		.loc 1 225 0 discriminator 2
 765 016a A042     		cmp	r0, r4
 766              	.LBB64:
 767              		.loc 1 223 0 discriminator 2
 768 016c EA83     		strh	r2, [r5, #30]	@ movhi
 769              	.LBE64:
 770              		.loc 1 225 0 discriminator 2
 771 016e 17D1     		bne	.L90
 772              	.LBB65:
 773              		.loc 1 227 0
 774 0170 0021     		movs	r1, #0
 775 0172 6868     		ldr	r0, [r5, #4]
 776 0174 FFF7FEFF 		bl	FLASH_ProgramHalfWord
 777              	.LVL63:
 778 0178 0828     		cmp	r0, #8
 779 017a CED1     		bne	.L104
 780              		.loc 1 227 0 is_stmt 0 discriminator 2
 781 017c 0023     		movs	r3, #0
 782 017e EB81     		strh	r3, [r5, #14]	@ movhi
 783              		.loc 1 266 0 is_stmt 1 discriminator 2
 784 0180 0446     		mov	r4, r0
 785 0182 71E7     		b	.L86
 786              	.LVL64:
 787              	.L125:
 788              	.LBE65:
 789              	.LBB66:
 790              		.loc 1 213 0
 791 0184 0221     		movs	r1, #2
 792 0186 8089     		ldrh	r0, [r0, #12]
 793 0188 104D     		ldr	r5, .L130
 794 018a FFF7FEFF 		bl	FLASH_EraseSector
 795              	.LVL65:
ARM GAS  /var/folders/ng/s8655sgx1ys_4lf9jzm2w6n00000gn/T//cc3YYM13.s 			page 15


 796 018e 0828     		cmp	r0, #8
 797 0190 C3D1     		bne	.L104
 798              	.LBE66:
 799              		.loc 1 215 0 discriminator 2
 800 0192 E98B     		ldrh	r1, [r5, #30]
 801 0194 4EF6EE62 		movw	r2, #61166
 802              	.LBB67:
 803              		.loc 1 213 0 discriminator 2
 804 0198 FF20     		movs	r0, #255
 805              	.LVL66:
 806              	.LBE67:
 807              		.loc 1 215 0 discriminator 2
 808 019a 9142     		cmp	r1, r2
 809              	.LBB68:
 810              		.loc 1 213 0 discriminator 2
 811 019c E881     		strh	r0, [r5, #14]	@ movhi
 812              	.LBE68:
 813              		.loc 1 215 0 discriminator 2
 814 019e 0BD0     		beq	.L88
 815              	.L90:
 816              	.LBB69:
 817              		.loc 1 266 0
 818 01a0 0824     		movs	r4, #8
 819 01a2 61E7     		b	.L86
 820              	.LVL67:
 821              	.L129:
 822              	.LBE69:
 823              	.LBB70:
 824              		.loc 1 208 0 discriminator 4
 825 01a4 0023     		movs	r3, #0
 826              	.LBE70:
 827              	.LBB71:
 828 01a6 0221     		movs	r1, #2
 829 01a8 A88B     		ldrh	r0, [r5, #28]
 830              	.LVL68:
 831              	.LBE71:
 832              	.LBB72:
 833 01aa EB81     		strh	r3, [r5, #14]	@ movhi
 834              	.LBE72:
 835              	.LBB73:
 836 01ac FFF7FEFF 		bl	FLASH_EraseSector
 837              	.LVL69:
 838 01b0 0828     		cmp	r0, #8
 839 01b2 B2D1     		bne	.L104
 840              		.loc 1 208 0 is_stmt 0 discriminator 6
 841 01b4 EE83     		strh	r6, [r5, #30]	@ movhi
 842              	.LBE73:
 843 01b6 57E7     		b	.L86
 844              	.LVL70:
 845              	.L88:
 846              	.LBB74:
 847              		.loc 1 217 0 is_stmt 1
 848 01b8 0021     		movs	r1, #0
 849 01ba 6869     		ldr	r0, [r5, #20]
 850 01bc FFF7FEFF 		bl	FLASH_ProgramHalfWord
 851              	.LVL71:
 852 01c0 0828     		cmp	r0, #8
ARM GAS  /var/folders/ng/s8655sgx1ys_4lf9jzm2w6n00000gn/T//cc3YYM13.s 			page 16


 853 01c2 AAD1     		bne	.L104
 854              		.loc 1 217 0 is_stmt 0 discriminator 2
 855 01c4 0024     		movs	r4, #0
 856 01c6 EC83     		strh	r4, [r5, #30]	@ movhi
 857              		.loc 1 266 0 is_stmt 1 discriminator 2
 858 01c8 0446     		mov	r4, r0
 859 01ca 4DE7     		b	.L86
 860              	.L131:
 861              		.align	2
 862              	.L130:
 863 01cc 00000000 		.word	.LANCHOR0
 864 01d0 FEFFFFFF 		.word	.LANCHOR2-2
 865 01d4 10000000 		.word	.LANCHOR0+16
 866              	.LBE74:
 867              		.cfi_endproc
 868              	.LFE123:
 869              		.size	_ee_init, .-_ee_init
 870 01d8 AFF30080 		.section	.text._pageTransfer,"ax",%progbits
 870      AFF30080 
 871              		.align	2
 872              		.p2align 4,,15
 873              		.global	_pageTransfer
 874              		.thumb
 875              		.thumb_func
 876              		.type	_pageTransfer, %function
 877              	_pageTransfer:
 878              	.LFB122:
 879              		.loc 1 149 0
 880              		.cfi_startproc
 881              		@ args = 0, pretend = 0, frame = 8
 882              		@ frame_needed = 0, uses_anonymous_args = 0
 883              	.LVL72:
 884 0000 2DE9F043 		push	{r4, r5, r6, r7, r8, r9, lr}
 885              	.LCFI4:
 886              		.cfi_def_cfa_offset 28
 887              		.cfi_offset 4, -28
 888              		.cfi_offset 5, -24
 889              		.cfi_offset 6, -20
 890              		.cfi_offset 7, -16
 891              		.cfi_offset 8, -12
 892              		.cfi_offset 9, -8
 893              		.cfi_offset 14, -4
 894 0004 384B     		ldr	r3, .L162
 895 0006 83B0     		sub	sp, sp, #12
 896              	.LCFI5:
 897              		.cfi_def_cfa_offset 40
 898              		.loc 1 149 0
 899 0008 0646     		mov	r6, r0
 900 000a 8846     		mov	r8, r1
 901              	.LBB75:
 902              		.loc 1 148 0
 903 000c 03F50875 		add	r5, r3, #544
 904              	.LBE75:
 905              		.loc 1 152 0
 906 0010 0024     		movs	r4, #0
 907              	.LVL73:
 908              	.L133:
ARM GAS  /var/folders/ng/s8655sgx1ys_4lf9jzm2w6n00000gn/T//cc3YYM13.s 			page 17


 909 0012 9A1C     		adds	r2, r3, #2
 910              		.loc 1 152 0 is_stmt 0 discriminator 2
 911 0014 5C80     		strh	r4, [r3, #2]	@ movhi
 912 0016 0433     		adds	r3, r3, #4
 913              		.loc 1 151 0 is_stmt 1 discriminator 2
 914 0018 AB42     		cmp	r3, r5
 915              		.loc 1 152 0 discriminator 2
 916 001a 5480     		strh	r4, [r2, #2]	@ movhi
 917              		.loc 1 151 0 discriminator 2
 918 001c F9D1     		bne	.L133
 919              		.loc 1 156 0
 920 001e FFF7FEFF 		bl	_getReadPage
 921              	.LVL74:
 922 0022 0746     		mov	r7, r0
 923 0024 B0B1     		cbz	r0, .L139
 924              		.loc 1 160 0
 925 0026 314D     		ldr	r5, .L162+4
 926 0028 90F80090 		ldrb	r9, [r0, #0]	@ zero_extendqisi2
 927 002c 2A46     		mov	r2, r5
 928              	.LBB76:
 929              		.loc 1 163 0
 930 002e 4EF6EE61 		movw	r1, #61166
 931              	.LBE76:
 932              		.loc 1 160 0
 933 0032 12F8100B 		ldrb	r0, [r2], #16	@ zero_extendqisi2
 934              	.LVL75:
 935 0036 8145     		cmp	r9, r0
 936 0038 14BF     		ite	ne
 937 003a A946     		movne	r9, r5
 938 003c 9146     		moveq	r9, r2
 939              	.LVL76:
 940              	.LBB77:
 941              		.loc 1 163 0
 942 003e D9F80400 		ldr	r0, [r9, #4]
 943 0042 FFF7FEFF 		bl	FLASH_ProgramHalfWord
 944              	.LVL77:
 945 0046 0828     		cmp	r0, #8
 946 0048 0546     		mov	r5, r0
 947              	.LVL78:
 948 004a 05D0     		beq	.L160
 949              	.LVL79:
 950              	.L134:
 951              	.LBE77:
 952              		.loc 1 192 0
 953 004c 2846     		mov	r0, r5
 954 004e 03B0     		add	sp, sp, #12
 955 0050 BDE8F083 		pop	{r4, r5, r6, r7, r8, r9, pc}
 956              	.LVL80:
 957              	.L139:
 958              		.loc 1 157 0
 959 0054 AB25     		movs	r5, #171
 960 0056 F9E7     		b	.L134
 961              	.LVL81:
 962              	.L160:
 963              	.LBB78:
 964              		.loc 1 163 0 discriminator 2
 965 0058 4EF6EE61 		movw	r1, #61166
ARM GAS  /var/folders/ng/s8655sgx1ys_4lf9jzm2w6n00000gn/T//cc3YYM13.s 			page 18


 966 005c A9F80E10 		strh	r1, [r9, #14]	@ movhi
 967              	.LBE78:
 968              	.LBB79:
 969              		.loc 1 166 0 discriminator 2
 970 0060 3046     		mov	r0, r6
 971              	.LVL82:
 972 0062 4146     		mov	r1, r8
 973 0064 FFF7FEFF 		bl	_verifyAndWrite
 974              	.LVL83:
 975 0068 0828     		cmp	r0, #8
 976 006a 01D0     		beq	.L161
 977              	.LVL84:
 978              	.L143:
 979              	.LBE79:
 980              	.LBB80:
 981              		.loc 1 189 0
 982 006c 0546     		mov	r5, r0
 983              	.LVL85:
 984 006e EDE7     		b	.L134
 985              	.LVL86:
 986              	.L161:
 987              	.LBE80:
 988              	.LBB81:
 989              		.loc 1 166 0
 990 0070 0024     		movs	r4, #0
 991              	.LVL87:
 992              	.L138:
 993              	.LBE81:
 994              		.loc 1 173 0
 995 0072 B442     		cmp	r4, r6
 996              	.LBB82:
 997              	.LBB83:
 998              	.LBB84:
 999              		.loc 1 332 0
 1000 0074 0DF10601 		add	r1, sp, #6
 1001              	.LVL88:
 1002 0078 E0B2     		uxtb	r0, r4
 1003              	.LBE84:
 1004              	.LBE83:
 1005              	.LBE82:
 1006              		.loc 1 173 0
 1007 007a 0AD0     		beq	.L136
 1008              	.LBB95:
 1009              	.LBB88:
 1010              	.LBB85:
 1011              		.loc 1 332 0
 1012 007c FFF7FEFF 		bl	_read
 1013              	.LVL89:
 1014              	.LBE85:
 1015              	.LBE88:
 1016              		.loc 1 177 0
 1017 0080 0128     		cmp	r0, #1
 1018              	.LBB89:
 1019              		.loc 1 180 0
 1020 0082 2046     		mov	r0, r4
 1021              	.LBE89:
 1022              		.loc 1 177 0
ARM GAS  /var/folders/ng/s8655sgx1ys_4lf9jzm2w6n00000gn/T//cc3YYM13.s 			page 19


 1023 0084 05D0     		beq	.L136
 1024              	.LBB90:
 1025              		.loc 1 180 0
 1026 0086 BDF80610 		ldrh	r1, [sp, #6]
 1027 008a FFF7FEFF 		bl	_verifyAndWrite
 1028              	.LVL90:
 1029 008e 0828     		cmp	r0, #8
 1030 0090 ECD1     		bne	.L143
 1031              	.LVL91:
 1032              	.L136:
 1033              	.LBE90:
 1034              	.LBE95:
 1035              		.loc 1 170 0
 1036 0092 0134     		adds	r4, r4, #1
 1037 0094 A4B2     		uxth	r4, r4
 1038              	.LVL92:
 1039              		.loc 1 173 0
 1040 0096 B442     		cmp	r4, r6
 1041              	.LBB96:
 1042              	.LBB91:
 1043              	.LBB86:
 1044              		.loc 1 332 0
 1045 0098 0DF10601 		add	r1, sp, #6
 1046              	.LVL93:
 1047 009c E0B2     		uxtb	r0, r4
 1048              	.LBE86:
 1049              	.LBE91:
 1050              	.LBE96:
 1051              		.loc 1 173 0
 1052 009e 0AD0     		beq	.L150
 1053              	.LBB97:
 1054              	.LBB92:
 1055              	.LBB87:
 1056              		.loc 1 332 0
 1057 00a0 FFF7FEFF 		bl	_read
 1058              	.LVL94:
 1059              	.LBE87:
 1060              	.LBE92:
 1061              		.loc 1 177 0
 1062 00a4 0128     		cmp	r0, #1
 1063              	.LBB93:
 1064              		.loc 1 180 0
 1065 00a6 2046     		mov	r0, r4
 1066              	.LBE93:
 1067              		.loc 1 177 0
 1068 00a8 05D0     		beq	.L150
 1069              	.LBB94:
 1070              		.loc 1 180 0
 1071 00aa BDF80610 		ldrh	r1, [sp, #6]
 1072 00ae FFF7FEFF 		bl	_verifyAndWrite
 1073              	.LVL95:
 1074 00b2 0828     		cmp	r0, #8
 1075 00b4 DAD1     		bne	.L143
 1076              	.LVL96:
 1077              	.L150:
 1078              	.LBE94:
 1079              	.LBE97:
ARM GAS  /var/folders/ng/s8655sgx1ys_4lf9jzm2w6n00000gn/T//cc3YYM13.s 			page 20


 1080              		.loc 1 170 0
 1081 00b6 631C     		adds	r3, r4, #1
 1082 00b8 9CB2     		uxth	r4, r3
 1083              	.LVL97:
 1084 00ba B4F5887F 		cmp	r4, #272
 1085 00be D8D1     		bne	.L138
 1086              	.LBB98:
 1087              		.loc 1 186 0
 1088 00c0 0221     		movs	r1, #2
 1089 00c2 B889     		ldrh	r0, [r7, #12]
 1090 00c4 FFF7FEFF 		bl	FLASH_EraseSector
 1091              	.LVL98:
 1092 00c8 0828     		cmp	r0, #8
 1093 00ca CFD1     		bne	.L143
 1094              		.loc 1 186 0 is_stmt 0 discriminator 2
 1095 00cc FF22     		movs	r2, #255
 1096              	.LBE98:
 1097              	.LBB99:
 1098              		.loc 1 189 0 is_stmt 1 discriminator 2
 1099 00ce 0021     		movs	r1, #0
 1100              	.LBE99:
 1101              	.LBB100:
 1102              		.loc 1 186 0 discriminator 2
 1103 00d0 FA81     		strh	r2, [r7, #14]	@ movhi
 1104              	.LBE100:
 1105              	.LBB101:
 1106              		.loc 1 189 0 discriminator 2
 1107 00d2 D9F80400 		ldr	r0, [r9, #4]
 1108              	.LVL99:
 1109 00d6 FFF7FEFF 		bl	FLASH_ProgramHalfWord
 1110              	.LVL100:
 1111 00da 0828     		cmp	r0, #8
 1112 00dc C6D1     		bne	.L143
 1113 00de 0020     		movs	r0, #0
 1114              	.LVL101:
 1115 00e0 A9F80E00 		strh	r0, [r9, #14]	@ movhi
 1116              	.LBE101:
 1117              		.loc 1 191 0 discriminator 2
 1118 00e4 B2E7     		b	.L134
 1119              	.L163:
 1120 00e6 00BF     		.align	2
 1121              	.L162:
 1122 00e8 FEFFFFFF 		.word	.LANCHOR2-2
 1123 00ec 00000000 		.word	.LANCHOR0
 1124              		.cfi_endproc
 1125              	.LFE122:
 1126              		.size	_pageTransfer, .-_pageTransfer
 1127              		.section	.text._write,"ax",%progbits
 1128              		.align	2
 1129              		.p2align 4,,15
 1130              		.global	_write
 1131              		.thumb
 1132              		.thumb_func
 1133              		.type	_write, %function
 1134              	_write:
 1135              	.LFB125:
 1136              		.loc 1 296 0
ARM GAS  /var/folders/ng/s8655sgx1ys_4lf9jzm2w6n00000gn/T//cc3YYM13.s 			page 21


 1137              		.cfi_startproc
 1138              		@ args = 0, pretend = 0, frame = 0
 1139              		@ frame_needed = 0, uses_anonymous_args = 0
 1140              	.LVL102:
 1141 0000 38B5     		push	{r3, r4, r5, lr}
 1142              	.LCFI6:
 1143              		.cfi_def_cfa_offset 16
 1144              		.cfi_offset 3, -16
 1145              		.cfi_offset 4, -12
 1146              		.cfi_offset 5, -8
 1147              		.cfi_offset 14, -4
 1148              		.loc 1 296 0
 1149 0002 0546     		mov	r5, r0
 1150 0004 0C46     		mov	r4, r1
 1151              		.loc 1 298 0
 1152 0006 FFF7FEFF 		bl	_verifyAndWrite
 1153              	.LVL103:
 1154              		.loc 1 301 0
 1155 000a EF28     		cmp	r0, #239
 1156 000c 00D0     		beq	.L166
 1157              	.LVL104:
 1158              		.loc 1 308 0
 1159 000e 38BD     		pop	{r3, r4, r5, pc}
 1160              	.LVL105:
 1161              	.L166:
 1162              		.loc 1 304 0
 1163 0010 2846     		mov	r0, r5
 1164              	.LVL106:
 1165 0012 2146     		mov	r1, r4
 1166              		.loc 1 308 0
 1167 0014 BDE83840 		pop	{r3, r4, r5, lr}
 1168              		.loc 1 304 0
 1169 0018 FFF7FEBF 		b	_pageTransfer
 1170              	.LVL107:
 1171              		.cfi_endproc
 1172              	.LFE125:
 1173              		.size	_write, .-_write
 1174 001c AFF30080 		.section	.text._ee_getReserved,"ax",%progbits
 1175              		.align	2
 1176              		.p2align 4,,15
 1177              		.global	_ee_getReserved
 1178              		.thumb
 1179              		.thumb_func
 1180              		.type	_ee_getReserved, %function
 1181              	_ee_getReserved:
 1182              	.LFB126:
 1183              		.loc 1 319 0
 1184              		.cfi_startproc
 1185              		@ args = 0, pretend = 0, frame = 0
 1186              		@ frame_needed = 0, uses_anonymous_args = 0
 1187              		@ link register save eliminated.
 1188              	.LVL108:
 1189              		.loc 1 320 0
 1190 0000 00F58070 		add	r0, r0, #256
 1191              	.LVL109:
 1192              		.loc 1 321 0
 1193              		.loc 1 320 0
ARM GAS  /var/folders/ng/s8655sgx1ys_4lf9jzm2w6n00000gn/T//cc3YYM13.s 			page 22


 1194 0004 FFF7FEBF 		b	_read
 1195              	.LVL110:
 1196              		.cfi_endproc
 1197              	.LFE126:
 1198              		.size	_ee_getReserved, .-_ee_getReserved
 1199 0008 AFF30080 		.section	.text._ee_putReserved,"ax",%progbits
 1199      AFF30080 
 1200              		.align	2
 1201              		.p2align 4,,15
 1202              		.global	_ee_putReserved
 1203              		.thumb
 1204              		.thumb_func
 1205              		.type	_ee_putReserved, %function
 1206              	_ee_putReserved:
 1207              	.LFB127:
 1208              		.loc 1 323 0
 1209              		.cfi_startproc
 1210              		@ args = 0, pretend = 0, frame = 0
 1211              		@ frame_needed = 0, uses_anonymous_args = 0
 1212              		@ link register save eliminated.
 1213              	.LVL111:
 1214              		.loc 1 324 0
 1215 0000 00F58070 		add	r0, r0, #256
 1216              	.LVL112:
 1217              		.loc 1 325 0
 1218              		.loc 1 324 0
 1219 0004 FFF7FEBF 		b	_write
 1220              	.LVL113:
 1221              		.cfi_endproc
 1222              	.LFE127:
 1223              		.size	_ee_putReserved, .-_ee_putReserved
 1224 0008 AFF30080 		.section	.text.ee_get,"ax",%progbits
 1224      AFF30080 
 1225              		.align	2
 1226              		.p2align 4,,15
 1227              		.global	ee_get
 1228              		.thumb
 1229              		.thumb_func
 1230              		.type	ee_get, %function
 1231              	ee_get:
 1232              	.LFB128:
 1233              		.loc 1 331 0
 1234              		.cfi_startproc
 1235              		@ args = 0, pretend = 0, frame = 0
 1236              		@ frame_needed = 0, uses_anonymous_args = 0
 1237              		@ link register save eliminated.
 1238              	.LVL114:
 1239              		.loc 1 333 0
 1240              		.loc 1 332 0
 1241 0000 FFF7FEBF 		b	_read
 1242              	.LVL115:
 1243              		.cfi_endproc
 1244              	.LFE128:
 1245              		.size	ee_get, .-ee_get
 1246 0004 AFF30080 		.section	.text.ee_put,"ax",%progbits
 1246      AFF30080 
 1246      AFF30080 
ARM GAS  /var/folders/ng/s8655sgx1ys_4lf9jzm2w6n00000gn/T//cc3YYM13.s 			page 23


 1247              		.align	2
 1248              		.p2align 4,,15
 1249              		.global	ee_put
 1250              		.thumb
 1251              		.thumb_func
 1252              		.type	ee_put, %function
 1253              	ee_put:
 1254              	.LFB129:
 1255              		.loc 1 336 0
 1256              		.cfi_startproc
 1257              		@ args = 0, pretend = 0, frame = 0
 1258              		@ frame_needed = 0, uses_anonymous_args = 0
 1259              		@ link register save eliminated.
 1260              	.LVL116:
 1261              		.loc 1 338 0
 1262              		.loc 1 337 0
 1263 0000 FFF7FEBF 		b	_write
 1264              	.LVL117:
 1265              		.cfi_endproc
 1266              	.LFE129:
 1267              		.size	ee_put, .-ee_put
 1268              		.global	_addrMap
 1269              		.global	_pages
 1270 0004 AFF30080 		.section	.data._pages,"aw",%progbits
 1270      AFF30080 
 1270      AFF30080 
 1271              		.align	2
 1272              		.set	.LANCHOR0,. + 0
 1273              		.type	_pages, %object
 1274              		.size	_pages, 32
 1275              	_pages:
 1276 0000 00       		.byte	0
 1277 0001 000000   		.space	3
 1278 0004 00800008 		.word	134250496
 1279 0008 FFBF0008 		.word	134266879
 1280 000c 1000     		.short	16
 1281 000e AAAA     		.short	-21846
 1282 0010 01       		.byte	1
 1283 0011 000000   		.space	3
 1284 0014 00C00008 		.word	134266880
 1285 0018 FFFF0008 		.word	134283263
 1286 001c 1800     		.short	24
 1287 001e AAAA     		.short	-21846
 1288              		.section	.bss._addrMap,"aw",%nobits
 1289              		.align	2
 1290              		.set	.LANCHOR2,. + 0
 1291              		.type	_addrMap, %object
 1292              		.size	_addrMap, 544
 1293              	_addrMap:
 1294 0000 00000000 		.space	544
 1294      00000000 
 1294      00000000 
 1294      00000000 
 1294      00000000 
 1295              		.section	.bss.nextWriteAddr.8374,"aw",%nobits
 1296              		.align	2
 1297              		.set	.LANCHOR1,. + 0
ARM GAS  /var/folders/ng/s8655sgx1ys_4lf9jzm2w6n00000gn/T//cc3YYM13.s 			page 24


 1298              		.type	nextWriteAddr.8374, %object
 1299              		.size	nextWriteAddr.8374, 4
 1300              	nextWriteAddr.8374:
 1301 0000 00000000 		.space	4
 1302              		.text
 1303              	.Letext0:
 1304              		.file 2 "/Users/jseng/gccarm/bin/../lib/gcc/arm-none-eabi/4.7.4/../../../../arm-none-eabi/include/
 1305              		.file 3 "../AithonLibrary/stm_flash.h"
 1306              		.file 4 "../AithonLibrary/ChibiOS/os/ports/common/ARMCMx/CMSIS/include/core_cm4.h"
 1307              		.section	.debug_info,"",%progbits
 1308              	.Ldebug_info0:
 1309 0000 A7090000 		.4byte	0x9a7
 1310 0004 0200     		.2byte	0x2
 1311 0006 00000000 		.4byte	.Ldebug_abbrev0
 1312 000a 04       		.byte	0x4
 1313 000b 01       		.uleb128 0x1
 1314 000c 01020000 		.4byte	.LASF59
 1315 0010 01       		.byte	0x1
 1316 0011 9F020000 		.4byte	.LASF60
 1317 0015 A5000000 		.4byte	.LASF61
 1318 0019 68020000 		.4byte	.Ldebug_ranges0+0x268
 1319 001d 00000000 		.4byte	0
 1320 0021 00000000 		.4byte	0
 1321 0025 00000000 		.4byte	.Ldebug_line0
 1322 0029 02       		.uleb128 0x2
 1323 002a 04       		.byte	0x4
 1324 002b 05       		.byte	0x5
 1325 002c 696E7400 		.ascii	"int\000"
 1326 0030 03       		.uleb128 0x3
 1327 0031 04       		.byte	0x4
 1328 0032 07       		.byte	0x7
 1329 0033 73010000 		.4byte	.LASF0
 1330 0037 03       		.uleb128 0x3
 1331 0038 01       		.byte	0x1
 1332 0039 06       		.byte	0x6
 1333 003a 3E010000 		.4byte	.LASF1
 1334 003e 04       		.uleb128 0x4
 1335 003f 89000000 		.4byte	.LASF3
 1336 0043 02       		.byte	0x2
 1337 0044 2A       		.byte	0x2a
 1338 0045 49000000 		.4byte	0x49
 1339 0049 03       		.uleb128 0x3
 1340 004a 01       		.byte	0x1
 1341 004b 08       		.byte	0x8
 1342 004c 2A010000 		.4byte	.LASF2
 1343 0050 04       		.uleb128 0x4
 1344 0051 EE010000 		.4byte	.LASF4
 1345 0055 02       		.byte	0x2
 1346 0056 35       		.byte	0x35
 1347 0057 5B000000 		.4byte	0x5b
 1348 005b 03       		.uleb128 0x3
 1349 005c 02       		.byte	0x2
 1350 005d 05       		.byte	0x5
 1351 005e 0E000000 		.4byte	.LASF5
 1352 0062 04       		.uleb128 0x4
 1353 0063 8F010000 		.4byte	.LASF6
 1354 0067 02       		.byte	0x2
ARM GAS  /var/folders/ng/s8655sgx1ys_4lf9jzm2w6n00000gn/T//cc3YYM13.s 			page 25


 1355 0068 36       		.byte	0x36
 1356 0069 6D000000 		.4byte	0x6d
 1357 006d 03       		.uleb128 0x3
 1358 006e 02       		.byte	0x2
 1359 006f 07       		.byte	0x7
 1360 0070 A5010000 		.4byte	.LASF7
 1361 0074 04       		.uleb128 0x4
 1362 0075 E1010000 		.4byte	.LASF8
 1363 0079 02       		.byte	0x2
 1364 007a 4F       		.byte	0x4f
 1365 007b 7F000000 		.4byte	0x7f
 1366 007f 03       		.uleb128 0x3
 1367 0080 04       		.byte	0x4
 1368 0081 05       		.byte	0x5
 1369 0082 DE000000 		.4byte	.LASF9
 1370 0086 04       		.uleb128 0x4
 1371 0087 6A010000 		.4byte	.LASF10
 1372 008b 02       		.byte	0x2
 1373 008c 50       		.byte	0x50
 1374 008d 91000000 		.4byte	0x91
 1375 0091 03       		.uleb128 0x3
 1376 0092 04       		.byte	0x4
 1377 0093 07       		.byte	0x7
 1378 0094 53020000 		.4byte	.LASF11
 1379 0098 03       		.uleb128 0x3
 1380 0099 08       		.byte	0x8
 1381 009a 05       		.byte	0x5
 1382 009b CB000000 		.4byte	.LASF12
 1383 009f 03       		.uleb128 0x3
 1384 00a0 08       		.byte	0x8
 1385 00a1 07       		.byte	0x7
 1386 00a2 53010000 		.4byte	.LASF13
 1387 00a6 03       		.uleb128 0x3
 1388 00a7 01       		.byte	0x1
 1389 00a8 02       		.byte	0x2
 1390 00a9 F6010000 		.4byte	.LASF14
 1391 00ad 03       		.uleb128 0x3
 1392 00ae 04       		.byte	0x4
 1393 00af 07       		.byte	0x7
 1394 00b0 2A000000 		.4byte	.LASF15
 1395 00b4 03       		.uleb128 0x3
 1396 00b5 01       		.byte	0x1
 1397 00b6 08       		.byte	0x8
 1398 00b7 DC010000 		.4byte	.LASF16
 1399 00bb 05       		.uleb128 0x5
 1400 00bc 74000000 		.4byte	0x74
 1401 00c0 06       		.uleb128 0x6
 1402 00c1 01       		.byte	0x1
 1403 00c2 03       		.byte	0x3
 1404 00c3 2F       		.byte	0x2f
 1405 00c4 F9000000 		.4byte	0xf9
 1406 00c8 07       		.uleb128 0x7
 1407 00c9 73020000 		.4byte	.LASF17
 1408 00cd 01       		.sleb128 1
 1409 00ce 07       		.uleb128 0x7
 1410 00cf 03030000 		.4byte	.LASF18
 1411 00d3 02       		.sleb128 2
ARM GAS  /var/folders/ng/s8655sgx1ys_4lf9jzm2w6n00000gn/T//cc3YYM13.s 			page 26


 1412 00d4 07       		.uleb128 0x7
 1413 00d5 F3020000 		.4byte	.LASF19
 1414 00d9 03       		.sleb128 3
 1415 00da 07       		.uleb128 0x7
 1416 00db B5020000 		.4byte	.LASF20
 1417 00df 04       		.sleb128 4
 1418 00e0 07       		.uleb128 0x7
 1419 00e1 6C000000 		.4byte	.LASF21
 1420 00e5 05       		.sleb128 5
 1421 00e6 07       		.uleb128 0x7
 1422 00e7 8B020000 		.4byte	.LASF22
 1423 00eb 06       		.sleb128 6
 1424 00ec 07       		.uleb128 0x7
 1425 00ed 00010000 		.4byte	.LASF23
 1426 00f1 07       		.sleb128 7
 1427 00f2 07       		.uleb128 0x7
 1428 00f3 80010000 		.4byte	.LASF24
 1429 00f7 08       		.sleb128 8
 1430 00f8 00       		.byte	0
 1431 00f9 04       		.uleb128 0x4
 1432 00fa 91000000 		.4byte	.LASF25
 1433 00fe 03       		.byte	0x3
 1434 00ff 38       		.byte	0x38
 1435 0100 C0000000 		.4byte	0xc0
 1436 0104 08       		.uleb128 0x8
 1437 0105 10       		.byte	0x10
 1438 0106 01       		.byte	0x1
 1439 0107 18       		.byte	0x18
 1440 0108 53010000 		.4byte	0x153
 1441 010c 09       		.uleb128 0x9
 1442 010d 00000000 		.4byte	.LASF26
 1443 0111 01       		.byte	0x1
 1444 0112 19       		.byte	0x19
 1445 0113 3E000000 		.4byte	0x3e
 1446 0117 02       		.byte	0x2
 1447 0118 23       		.byte	0x23
 1448 0119 00       		.uleb128 0
 1449 011a 09       		.uleb128 0x9
 1450 011b 9F010000 		.4byte	.LASF27
 1451 011f 01       		.byte	0x1
 1452 0120 1A       		.byte	0x1a
 1453 0121 86000000 		.4byte	0x86
 1454 0125 02       		.byte	0x2
 1455 0126 23       		.byte	0x23
 1456 0127 04       		.uleb128 0x4
 1457 0128 0A       		.uleb128 0xa
 1458 0129 656E6400 		.ascii	"end\000"
 1459 012d 01       		.byte	0x1
 1460 012e 1B       		.byte	0x1b
 1461 012f 86000000 		.4byte	0x86
 1462 0133 02       		.byte	0x2
 1463 0134 23       		.byte	0x23
 1464 0135 08       		.uleb128 0x8
 1465 0136 09       		.uleb128 0x9
 1466 0137 9E000000 		.4byte	.LASF28
 1467 013b 01       		.byte	0x1
 1468 013c 1C       		.byte	0x1c
ARM GAS  /var/folders/ng/s8655sgx1ys_4lf9jzm2w6n00000gn/T//cc3YYM13.s 			page 27


 1469 013d 62000000 		.4byte	0x62
 1470 0141 02       		.byte	0x2
 1471 0142 23       		.byte	0x23
 1472 0143 0C       		.uleb128 0xc
 1473 0144 09       		.uleb128 0x9
 1474 0145 08000000 		.4byte	.LASF29
 1475 0149 01       		.byte	0x1
 1476 014a 1D       		.byte	0x1d
 1477 014b 62000000 		.4byte	0x62
 1478 014f 02       		.byte	0x2
 1479 0150 23       		.byte	0x23
 1480 0151 0E       		.uleb128 0xe
 1481 0152 00       		.byte	0
 1482 0153 04       		.uleb128 0x4
 1483 0154 E7000000 		.4byte	.LASF30
 1484 0158 01       		.byte	0x1
 1485 0159 1E       		.byte	0x1e
 1486 015a 04010000 		.4byte	0x104
 1487 015e 0B       		.uleb128 0xb
 1488 015f 01       		.byte	0x1
 1489 0160 B8010000 		.4byte	.LASF31
 1490 0164 01       		.byte	0x1
 1491 0165 54       		.byte	0x54
 1492 0166 01       		.byte	0x1
 1493 0167 6C010000 		.4byte	0x16c
 1494 016b 01       		.byte	0x1
 1495 016c 0C       		.uleb128 0xc
 1496 016d 04       		.byte	0x4
 1497 016e 53010000 		.4byte	0x153
 1498 0172 0B       		.uleb128 0xb
 1499 0173 01       		.byte	0x1
 1500 0174 47000000 		.4byte	.LASF32
 1501 0178 01       		.byte	0x1
 1502 0179 5E       		.byte	0x5e
 1503 017a 01       		.byte	0x1
 1504 017b 6C010000 		.4byte	0x16c
 1505 017f 01       		.byte	0x1
 1506 0180 0D       		.uleb128 0xd
 1507 0181 01       		.byte	0x1
 1508 0182 65000000 		.4byte	.LASF56
 1509 0186 01       		.byte	0x1
 1510 0187 4A01     		.2byte	0x14a
 1511 0189 01       		.byte	0x1
 1512 018a 62000000 		.4byte	0x62
 1513 018e 01       		.byte	0x1
 1514 018f AC010000 		.4byte	0x1ac
 1515 0193 0E       		.uleb128 0xe
 1516 0194 4A010000 		.4byte	.LASF33
 1517 0198 01       		.byte	0x1
 1518 0199 4A01     		.2byte	0x14a
 1519 019b 3E000000 		.4byte	0x3e
 1520 019f 0E       		.uleb128 0xe
 1521 01a0 FC010000 		.4byte	.LASF34
 1522 01a4 01       		.byte	0x1
 1523 01a5 4A01     		.2byte	0x14a
 1524 01a7 AC010000 		.4byte	0x1ac
 1525 01ab 00       		.byte	0
ARM GAS  /var/folders/ng/s8655sgx1ys_4lf9jzm2w6n00000gn/T//cc3YYM13.s 			page 28


 1526 01ac 0C       		.uleb128 0xc
 1527 01ad 04       		.byte	0x4
 1528 01ae 62000000 		.4byte	0x62
 1529 01b2 0F       		.uleb128 0xf
 1530 01b3 5E010000 		.4byte	0x15e
 1531 01b7 00000000 		.4byte	.LFB119
 1532 01bb 18000000 		.4byte	.LFE119
 1533 01bf 02       		.byte	0x2
 1534 01c0 7D       		.byte	0x7d
 1535 01c1 00       		.sleb128 0
 1536 01c2 01       		.byte	0x1
 1537 01c3 D7010000 		.4byte	0x1d7
 1538 01c7 10       		.uleb128 0x10
 1539 01c8 5E010000 		.4byte	0x15e
 1540 01cc 06000000 		.4byte	.LBB30
 1541 01d0 10000000 		.4byte	.LBE30
 1542 01d4 01       		.byte	0x1
 1543 01d5 54       		.byte	0x54
 1544 01d6 00       		.byte	0
 1545 01d7 11       		.uleb128 0x11
 1546 01d8 72010000 		.4byte	0x172
 1547 01dc 00000000 		.4byte	.LFB120
 1548 01e0 38000000 		.4byte	.LFE120
 1549 01e4 02       		.byte	0x2
 1550 01e5 7D       		.byte	0x7d
 1551 01e6 00       		.sleb128 0
 1552 01e7 01       		.byte	0x1
 1553 01e8 12       		.uleb128 0x12
 1554 01e9 01       		.byte	0x1
 1555 01ea E3020000 		.4byte	.LASF40
 1556 01ee 01       		.byte	0x1
 1557 01ef 68       		.byte	0x68
 1558 01f0 01       		.byte	0x1
 1559 01f1 62000000 		.4byte	0x62
 1560 01f5 00000000 		.4byte	.LFB121
 1561 01f9 F0000000 		.4byte	.LFE121
 1562 01fd 00000000 		.4byte	.LLST0
 1563 0201 01       		.byte	0x1
 1564 0202 A1020000 		.4byte	0x2a1
 1565 0206 13       		.uleb128 0x13
 1566 0207 33000000 		.4byte	.LASF35
 1567 020b 01       		.byte	0x1
 1568 020c 68       		.byte	0x68
 1569 020d 62000000 		.4byte	0x62
 1570 0211 20000000 		.4byte	.LLST1
 1571 0215 13       		.uleb128 0x13
 1572 0216 1D010000 		.4byte	.LASF36
 1573 021a 01       		.byte	0x1
 1574 021b 68       		.byte	0x68
 1575 021c 62000000 		.4byte	0x62
 1576 0220 5A000000 		.4byte	.LLST2
 1577 0224 14       		.uleb128 0x14
 1578 0225 D9000000 		.4byte	.LASF37
 1579 0229 01       		.byte	0x1
 1580 022a 6B       		.byte	0x6b
 1581 022b 6C010000 		.4byte	0x16c
 1582 022f 01       		.byte	0x1
ARM GAS  /var/folders/ng/s8655sgx1ys_4lf9jzm2w6n00000gn/T//cc3YYM13.s 			page 29


 1583 0230 57       		.byte	0x57
 1584 0231 14       		.uleb128 0x14
 1585 0232 65020000 		.4byte	.LASF38
 1586 0236 01       		.byte	0x1
 1587 0237 71       		.byte	0x71
 1588 0238 86000000 		.4byte	0x86
 1589 023c 05       		.byte	0x5
 1590 023d 03       		.byte	0x3
 1591 023e 00000000 		.4byte	nextWriteAddr.8374
 1592 0242 15       		.uleb128 0x15
 1593 0243 72010000 		.4byte	0x172
 1594 0247 00000000 		.4byte	.LBB32
 1595 024b 00000000 		.4byte	.Ldebug_ranges0+0
 1596 024f 01       		.byte	0x1
 1597 0250 6C       		.byte	0x6c
 1598 0251 16       		.uleb128 0x16
 1599 0252 B2000000 		.4byte	.LBB40
 1600 0256 BE000000 		.4byte	.LBE40
 1601 025a 77020000 		.4byte	0x277
 1602 025e 17       		.uleb128 0x17
 1603 025f 5C000000 		.4byte	.LASF39
 1604 0263 01       		.byte	0x1
 1605 0264 89       		.byte	0x89
 1606 0265 62000000 		.4byte	0x62
 1607 0269 94000000 		.4byte	.LLST3
 1608 026d 18       		.uleb128 0x18
 1609 026e B8000000 		.4byte	.LVL6
 1610 0272 66090000 		.4byte	0x966
 1611 0276 00       		.byte	0
 1612 0277 19       		.uleb128 0x19
 1613 0278 BE000000 		.4byte	.LBB41
 1614 027c D2000000 		.4byte	.LBE41
 1615 0280 17       		.uleb128 0x17
 1616 0281 5C000000 		.4byte	.LASF39
 1617 0285 01       		.byte	0x1
 1618 0286 8A       		.byte	0x8a
 1619 0287 62000000 		.4byte	0x62
 1620 028b BD000000 		.4byte	.LLST4
 1621 028f 1A       		.uleb128 0x1a
 1622 0290 CA000000 		.4byte	.LVL9
 1623 0294 66090000 		.4byte	0x966
 1624 0298 1B       		.uleb128 0x1b
 1625 0299 01       		.byte	0x1
 1626 029a 51       		.byte	0x51
 1627 029b 02       		.byte	0x2
 1628 029c 78       		.byte	0x78
 1629 029d 00       		.sleb128 0
 1630 029e 00       		.byte	0
 1631 029f 00       		.byte	0
 1632 02a0 00       		.byte	0
 1633 02a1 1C       		.uleb128 0x1c
 1634 02a2 01       		.byte	0x1
 1635 02a3 38010000 		.4byte	.LASF41
 1636 02a7 01       		.byte	0x1
 1637 02a8 0D01     		.2byte	0x10d
 1638 02aa 01       		.byte	0x1
 1639 02ab 62000000 		.4byte	0x62
ARM GAS  /var/folders/ng/s8655sgx1ys_4lf9jzm2w6n00000gn/T//cc3YYM13.s 			page 30


 1640 02af 00000000 		.4byte	.LFB124
 1641 02b3 88000000 		.4byte	.LFE124
 1642 02b7 D0000000 		.4byte	.LLST5
 1643 02bb 01       		.byte	0x1
 1644 02bc 0A030000 		.4byte	0x30a
 1645 02c0 1D       		.uleb128 0x1d
 1646 02c1 4A010000 		.4byte	.LASF33
 1647 02c5 01       		.byte	0x1
 1648 02c6 0D01     		.2byte	0x10d
 1649 02c8 62000000 		.4byte	0x62
 1650 02cc F0000000 		.4byte	.LLST6
 1651 02d0 1D       		.uleb128 0x1d
 1652 02d1 FC010000 		.4byte	.LASF34
 1653 02d5 01       		.byte	0x1
 1654 02d6 0D01     		.2byte	0x10d
 1655 02d8 AC010000 		.4byte	0x1ac
 1656 02dc 11010000 		.4byte	.LLST7
 1657 02e0 1E       		.uleb128 0x1e
 1658 02e1 D9000000 		.4byte	.LASF37
 1659 02e5 01       		.byte	0x1
 1660 02e6 1001     		.2byte	0x110
 1661 02e8 6C010000 		.4byte	0x16c
 1662 02ec 2F010000 		.4byte	.LLST8
 1663 02f0 1E       		.uleb128 0x1e
 1664 02f1 E9010000 		.4byte	.LASF42
 1665 02f5 01       		.byte	0x1
 1666 02f6 1501     		.2byte	0x115
 1667 02f8 86000000 		.4byte	0x86
 1668 02fc 58010000 		.4byte	.LLST9
 1669 0300 18       		.uleb128 0x18
 1670 0301 0A000000 		.4byte	.LVL14
 1671 0305 5E010000 		.4byte	0x15e
 1672 0309 00       		.byte	0
 1673 030a 12       		.uleb128 0x12
 1674 030b 01       		.byte	0x1
 1675 030c 4A020000 		.4byte	.LASF43
 1676 0310 01       		.byte	0x1
 1677 0311 C2       		.byte	0xc2
 1678 0312 01       		.byte	0x1
 1679 0313 62000000 		.4byte	0x62
 1680 0317 00000000 		.4byte	.LFB123
 1681 031b D8010000 		.4byte	.LFE123
 1682 031f A8010000 		.4byte	.LLST10
 1683 0323 01       		.byte	0x1
 1684 0324 A0050000 		.4byte	0x5a0
 1685 0328 1F       		.uleb128 0x1f
 1686 0329 6900     		.ascii	"i\000"
 1687 032b 01       		.byte	0x1
 1688 032c C9       		.byte	0xc9
 1689 032d 29000000 		.4byte	0x29
 1690 0331 D4010000 		.4byte	.LLST11
 1691 0335 20       		.uleb128 0x20
 1692 0336 28000000 		.4byte	.Ldebug_ranges0+0x28
 1693 033a 5D030000 		.4byte	0x35d
 1694 033e 17       		.uleb128 0x17
 1695 033f 5C000000 		.4byte	.LASF39
 1696 0343 01       		.byte	0x1
ARM GAS  /var/folders/ng/s8655sgx1ys_4lf9jzm2w6n00000gn/T//cc3YYM13.s 			page 31


 1697 0344 D0       		.byte	0xd0
 1698 0345 62000000 		.4byte	0x62
 1699 0349 E8010000 		.4byte	.LLST12
 1700 034d 1A       		.uleb128 0x1a
 1701 034e 62000000 		.4byte	.LVL31
 1702 0352 83090000 		.4byte	0x983
 1703 0356 1B       		.uleb128 0x1b
 1704 0357 01       		.byte	0x1
 1705 0358 51       		.byte	0x51
 1706 0359 01       		.byte	0x1
 1707 035a 32       		.byte	0x32
 1708 035b 00       		.byte	0
 1709 035c 00       		.byte	0
 1710 035d 20       		.uleb128 0x20
 1711 035e 48000000 		.4byte	.Ldebug_ranges0+0x48
 1712 0362 A4040000 		.4byte	0x4a4
 1713 0366 17       		.uleb128 0x17
 1714 0367 22010000 		.4byte	.LASF44
 1715 036b 01       		.byte	0x1
 1716 036c E9       		.byte	0xe9
 1717 036d 6C010000 		.4byte	0x16c
 1718 0371 1C020000 		.4byte	.LLST13
 1719 0375 17       		.uleb128 0x17
 1720 0376 3F000000 		.4byte	.LASF45
 1721 037a 01       		.byte	0x1
 1722 037b E9       		.byte	0xe9
 1723 037c 6C010000 		.4byte	0x16c
 1724 0380 3A020000 		.4byte	.LLST14
 1725 0384 1F       		.uleb128 0x1f
 1726 0385 6900     		.ascii	"i\000"
 1727 0387 01       		.byte	0x1
 1728 0388 F6       		.byte	0xf6
 1729 0389 62000000 		.4byte	0x62
 1730 038d 58020000 		.4byte	.LLST15
 1731 0391 1F       		.uleb128 0x1f
 1732 0392 7800     		.ascii	"x\000"
 1733 0394 01       		.byte	0x1
 1734 0395 F7       		.byte	0xf7
 1735 0396 50000000 		.4byte	0x50
 1736 039a 6C020000 		.4byte	.LLST16
 1737 039e 20       		.uleb128 0x20
 1738 039f 60000000 		.4byte	.Ldebug_ranges0+0x60
 1739 03a3 4F040000 		.4byte	0x44f
 1740 03a7 21       		.uleb128 0x21
 1741 03a8 76616C00 		.ascii	"val\000"
 1742 03ac 01       		.byte	0x1
 1743 03ad 0101     		.2byte	0x101
 1744 03af 62000000 		.4byte	0x62
 1745 03b3 AD020000 		.4byte	.LLST17
 1746 03b7 22       		.uleb128 0x22
 1747 03b8 80010000 		.4byte	0x180
 1748 03bc A0000000 		.4byte	.LBB45
 1749 03c0 78000000 		.4byte	.Ldebug_ranges0+0x78
 1750 03c4 01       		.byte	0x1
 1751 03c5 0201     		.2byte	0x102
 1752 03c7 14040000 		.4byte	0x414
 1753 03cb 23       		.uleb128 0x23
ARM GAS  /var/folders/ng/s8655sgx1ys_4lf9jzm2w6n00000gn/T//cc3YYM13.s 			page 32


 1754 03cc 9F010000 		.4byte	0x19f
 1755 03d0 D9020000 		.4byte	.LLST18
 1756 03d4 23       		.uleb128 0x23
 1757 03d5 93010000 		.4byte	0x193
 1758 03d9 2B030000 		.4byte	.LLST19
 1759 03dd 24       		.uleb128 0x24
 1760 03de AA000000 		.4byte	.LVL39
 1761 03e2 A1020000 		.4byte	0x2a1
 1762 03e6 FA030000 		.4byte	0x3fa
 1763 03ea 1B       		.uleb128 0x1b
 1764 03eb 01       		.byte	0x1
 1765 03ec 51       		.byte	0x51
 1766 03ed 02       		.byte	0x2
 1767 03ee 91       		.byte	0x91
 1768 03ef 5E       		.sleb128 -34
 1769 03f0 1B       		.uleb128 0x1b
 1770 03f1 01       		.byte	0x1
 1771 03f2 50       		.byte	0x50
 1772 03f3 05       		.byte	0x5
 1773 03f4 74       		.byte	0x74
 1774 03f5 00       		.sleb128 0
 1775 03f6 08       		.byte	0x8
 1776 03f7 FF       		.byte	0xff
 1777 03f8 1A       		.byte	0x1a
 1778 03f9 00       		.byte	0
 1779 03fa 1A       		.uleb128 0x1a
 1780 03fb E4000000 		.4byte	.LVL47
 1781 03ff A1020000 		.4byte	0x2a1
 1782 0403 1B       		.uleb128 0x1b
 1783 0404 01       		.byte	0x1
 1784 0405 51       		.byte	0x51
 1785 0406 02       		.byte	0x2
 1786 0407 91       		.byte	0x91
 1787 0408 5E       		.sleb128 -34
 1788 0409 1B       		.uleb128 0x1b
 1789 040a 01       		.byte	0x1
 1790 040b 50       		.byte	0x50
 1791 040c 05       		.byte	0x5
 1792 040d 74       		.byte	0x74
 1793 040e 00       		.sleb128 0
 1794 040f 08       		.byte	0x8
 1795 0410 FF       		.byte	0xff
 1796 0411 1A       		.byte	0x1a
 1797 0412 00       		.byte	0
 1798 0413 00       		.byte	0
 1799 0414 25       		.uleb128 0x25
 1800 0415 90000000 		.4byte	.Ldebug_ranges0+0x90
 1801 0419 1E       		.uleb128 0x1e
 1802 041a 5C000000 		.4byte	.LASF39
 1803 041e 01       		.byte	0x1
 1804 041f 0301     		.2byte	0x103
 1805 0421 62000000 		.4byte	0x62
 1806 0425 3E030000 		.4byte	.LLST20
 1807 0429 24       		.uleb128 0x24
 1808 042a B8000000 		.4byte	.LVL40
 1809 042e E8010000 		.4byte	0x1e8
 1810 0432 3D040000 		.4byte	0x43d
ARM GAS  /var/folders/ng/s8655sgx1ys_4lf9jzm2w6n00000gn/T//cc3YYM13.s 			page 33


 1811 0436 1B       		.uleb128 0x1b
 1812 0437 01       		.byte	0x1
 1813 0438 50       		.byte	0x50
 1814 0439 02       		.byte	0x2
 1815 043a 77       		.byte	0x77
 1816 043b 00       		.sleb128 0
 1817 043c 00       		.byte	0
 1818 043d 1A       		.uleb128 0x1a
 1819 043e F2000000 		.4byte	.LVL48
 1820 0442 E8010000 		.4byte	0x1e8
 1821 0446 1B       		.uleb128 0x1b
 1822 0447 01       		.byte	0x1
 1823 0448 50       		.byte	0x50
 1824 0449 02       		.byte	0x2
 1825 044a 77       		.byte	0x77
 1826 044b 00       		.sleb128 0
 1827 044c 00       		.byte	0
 1828 044d 00       		.byte	0
 1829 044e 00       		.byte	0
 1830 044f 20       		.uleb128 0x20
 1831 0450 A8000000 		.4byte	.Ldebug_ranges0+0xa8
 1832 0454 78040000 		.4byte	0x478
 1833 0458 1E       		.uleb128 0x1e
 1834 0459 5C000000 		.4byte	.LASF39
 1835 045d 01       		.byte	0x1
 1836 045e 0701     		.2byte	0x107
 1837 0460 62000000 		.4byte	0x62
 1838 0464 5C030000 		.4byte	.LLST21
 1839 0468 1A       		.uleb128 0x1a
 1840 0469 3A010000 		.4byte	.LVL59
 1841 046d 83090000 		.4byte	0x983
 1842 0471 1B       		.uleb128 0x1b
 1843 0472 01       		.byte	0x1
 1844 0473 51       		.byte	0x51
 1845 0474 01       		.byte	0x1
 1846 0475 32       		.byte	0x32
 1847 0476 00       		.byte	0
 1848 0477 00       		.byte	0
 1849 0478 25       		.uleb128 0x25
 1850 0479 C8000000 		.4byte	.Ldebug_ranges0+0xc8
 1851 047d 1E       		.uleb128 0x1e
 1852 047e 5C000000 		.4byte	.LASF39
 1853 0482 01       		.byte	0x1
 1854 0483 0601     		.2byte	0x106
 1855 0485 62000000 		.4byte	0x62
 1856 0489 6F030000 		.4byte	.LLST22
 1857 048d 1A       		.uleb128 0x1a
 1858 048e 26010000 		.4byte	.LVL57
 1859 0492 66090000 		.4byte	0x966
 1860 0496 1B       		.uleb128 0x1b
 1861 0497 01       		.byte	0x1
 1862 0498 51       		.byte	0x51
 1863 0499 01       		.byte	0x1
 1864 049a 30       		.byte	0x30
 1865 049b 1B       		.uleb128 0x1b
 1866 049c 01       		.byte	0x1
 1867 049d 50       		.byte	0x50
ARM GAS  /var/folders/ng/s8655sgx1ys_4lf9jzm2w6n00000gn/T//cc3YYM13.s 			page 34


 1868 049e 02       		.byte	0x2
 1869 049f 75       		.byte	0x75
 1870 04a0 00       		.sleb128 0
 1871 04a1 00       		.byte	0
 1872 04a2 00       		.byte	0
 1873 04a3 00       		.byte	0
 1874 04a4 20       		.uleb128 0x20
 1875 04a5 E0000000 		.4byte	.Ldebug_ranges0+0xe0
 1876 04a9 CC040000 		.4byte	0x4cc
 1877 04ad 17       		.uleb128 0x17
 1878 04ae 5C000000 		.4byte	.LASF39
 1879 04b2 01       		.byte	0x1
 1880 04b3 D0       		.byte	0xd0
 1881 04b4 62000000 		.4byte	0x62
 1882 04b8 82030000 		.4byte	.LLST23
 1883 04bc 1A       		.uleb128 0x1a
 1884 04bd 16010000 		.4byte	.LVL54
 1885 04c1 66090000 		.4byte	0x966
 1886 04c5 1B       		.uleb128 0x1b
 1887 04c6 01       		.byte	0x1
 1888 04c7 51       		.byte	0x51
 1889 04c8 01       		.byte	0x1
 1890 04c9 30       		.byte	0x30
 1891 04ca 00       		.byte	0
 1892 04cb 00       		.byte	0
 1893 04cc 20       		.uleb128 0x20
 1894 04cd 08010000 		.4byte	.Ldebug_ranges0+0x108
 1895 04d1 F4040000 		.4byte	0x4f4
 1896 04d5 17       		.uleb128 0x17
 1897 04d6 5C000000 		.4byte	.LASF39
 1898 04da 01       		.byte	0x1
 1899 04db DF       		.byte	0xdf
 1900 04dc 62000000 		.4byte	0x62
 1901 04e0 A0030000 		.4byte	.LLST24
 1902 04e4 1A       		.uleb128 0x1a
 1903 04e5 5E010000 		.4byte	.LVL61
 1904 04e9 83090000 		.4byte	0x983
 1905 04ed 1B       		.uleb128 0x1b
 1906 04ee 01       		.byte	0x1
 1907 04ef 51       		.byte	0x51
 1908 04f0 01       		.byte	0x1
 1909 04f1 32       		.byte	0x32
 1910 04f2 00       		.byte	0
 1911 04f3 00       		.byte	0
 1912 04f4 20       		.uleb128 0x20
 1913 04f5 28010000 		.4byte	.Ldebug_ranges0+0x128
 1914 04f9 1C050000 		.4byte	0x51c
 1915 04fd 17       		.uleb128 0x17
 1916 04fe 5C000000 		.4byte	.LASF39
 1917 0502 01       		.byte	0x1
 1918 0503 E3       		.byte	0xe3
 1919 0504 62000000 		.4byte	0x62
 1920 0508 B3030000 		.4byte	.LLST25
 1921 050c 1A       		.uleb128 0x1a
 1922 050d 78010000 		.4byte	.LVL63
 1923 0511 66090000 		.4byte	0x966
 1924 0515 1B       		.uleb128 0x1b
ARM GAS  /var/folders/ng/s8655sgx1ys_4lf9jzm2w6n00000gn/T//cc3YYM13.s 			page 35


 1925 0516 01       		.byte	0x1
 1926 0517 51       		.byte	0x51
 1927 0518 01       		.byte	0x1
 1928 0519 30       		.byte	0x30
 1929 051a 00       		.byte	0
 1930 051b 00       		.byte	0
 1931 051c 20       		.uleb128 0x20
 1932 051d 40010000 		.4byte	.Ldebug_ranges0+0x140
 1933 0521 44050000 		.4byte	0x544
 1934 0525 17       		.uleb128 0x17
 1935 0526 5C000000 		.4byte	.LASF39
 1936 052a 01       		.byte	0x1
 1937 052b D5       		.byte	0xd5
 1938 052c 62000000 		.4byte	0x62
 1939 0530 C6030000 		.4byte	.LLST26
 1940 0534 1A       		.uleb128 0x1a
 1941 0535 8E010000 		.4byte	.LVL65
 1942 0539 83090000 		.4byte	0x983
 1943 053d 1B       		.uleb128 0x1b
 1944 053e 01       		.byte	0x1
 1945 053f 51       		.byte	0x51
 1946 0540 01       		.byte	0x1
 1947 0541 32       		.byte	0x32
 1948 0542 00       		.byte	0
 1949 0543 00       		.byte	0
 1950 0544 20       		.uleb128 0x20
 1951 0545 60010000 		.4byte	.Ldebug_ranges0+0x160
 1952 0549 6C050000 		.4byte	0x56c
 1953 054d 17       		.uleb128 0x17
 1954 054e 5C000000 		.4byte	.LASF39
 1955 0552 01       		.byte	0x1
 1956 0553 D0       		.byte	0xd0
 1957 0554 62000000 		.4byte	0x62
 1958 0558 D9030000 		.4byte	.LLST27
 1959 055c 1A       		.uleb128 0x1a
 1960 055d B0010000 		.4byte	.LVL69
 1961 0561 83090000 		.4byte	0x983
 1962 0565 1B       		.uleb128 0x1b
 1963 0566 01       		.byte	0x1
 1964 0567 51       		.byte	0x51
 1965 0568 01       		.byte	0x1
 1966 0569 32       		.byte	0x32
 1967 056a 00       		.byte	0
 1968 056b 00       		.byte	0
 1969 056c 16       		.uleb128 0x16
 1970 056d B8010000 		.4byte	.LBB74
 1971 0571 D8010000 		.4byte	.LBE74
 1972 0575 96050000 		.4byte	0x596
 1973 0579 14       		.uleb128 0x14
 1974 057a 5C000000 		.4byte	.LASF39
 1975 057e 01       		.byte	0x1
 1976 057f D9       		.byte	0xd9
 1977 0580 62000000 		.4byte	0x62
 1978 0584 01       		.byte	0x1
 1979 0585 50       		.byte	0x50
 1980 0586 1A       		.uleb128 0x1a
 1981 0587 C0010000 		.4byte	.LVL71
ARM GAS  /var/folders/ng/s8655sgx1ys_4lf9jzm2w6n00000gn/T//cc3YYM13.s 			page 36


 1982 058b 66090000 		.4byte	0x966
 1983 058f 1B       		.uleb128 0x1b
 1984 0590 01       		.byte	0x1
 1985 0591 51       		.byte	0x51
 1986 0592 01       		.byte	0x1
 1987 0593 30       		.byte	0x30
 1988 0594 00       		.byte	0
 1989 0595 00       		.byte	0
 1990 0596 18       		.uleb128 0x18
 1991 0597 0A000000 		.4byte	.LVL28
 1992 059b A0090000 		.4byte	0x9a0
 1993 059f 00       		.byte	0
 1994 05a0 12       		.uleb128 0x12
 1995 05a1 01       		.byte	0x1
 1996 05a2 13030000 		.4byte	.LASF46
 1997 05a6 01       		.byte	0x1
 1998 05a7 94       		.byte	0x94
 1999 05a8 01       		.byte	0x1
 2000 05a9 62000000 		.4byte	0x62
 2001 05ad 00000000 		.4byte	.LFB122
 2002 05b1 F0000000 		.4byte	.LFE122
 2003 05b5 EC030000 		.4byte	.LLST28
 2004 05b9 01       		.byte	0x1
 2005 05ba 75070000 		.4byte	0x775
 2006 05be 13       		.uleb128 0x13
 2007 05bf 33000000 		.4byte	.LASF35
 2008 05c3 01       		.byte	0x1
 2009 05c4 94       		.byte	0x94
 2010 05c5 62000000 		.4byte	0x62
 2011 05c9 18040000 		.4byte	.LLST29
 2012 05cd 13       		.uleb128 0x13
 2013 05ce 1D010000 		.4byte	.LASF36
 2014 05d2 01       		.byte	0x1
 2015 05d3 94       		.byte	0x94
 2016 05d4 62000000 		.4byte	0x62
 2017 05d8 39040000 		.4byte	.LLST30
 2018 05dc 1F       		.uleb128 0x1f
 2019 05dd 6B00     		.ascii	"k\000"
 2020 05df 01       		.byte	0x1
 2021 05e0 96       		.byte	0x96
 2022 05e1 29000000 		.4byte	0x29
 2023 05e5 5A040000 		.4byte	.LLST31
 2024 05e9 17       		.uleb128 0x17
 2025 05ea 22010000 		.4byte	.LASF44
 2026 05ee 01       		.byte	0x1
 2027 05ef 9B       		.byte	0x9b
 2028 05f0 6C010000 		.4byte	0x16c
 2029 05f4 6E040000 		.4byte	.LLST32
 2030 05f8 17       		.uleb128 0x17
 2031 05f9 3F000000 		.4byte	.LASF45
 2032 05fd 01       		.byte	0x1
 2033 05fe A0       		.byte	0xa0
 2034 05ff 6C010000 		.4byte	0x16c
 2035 0603 A2040000 		.4byte	.LLST33
 2036 0607 1F       		.uleb128 0x1f
 2037 0608 6900     		.ascii	"i\000"
 2038 060a 01       		.byte	0x1
ARM GAS  /var/folders/ng/s8655sgx1ys_4lf9jzm2w6n00000gn/T//cc3YYM13.s 			page 37


 2039 060b A9       		.byte	0xa9
 2040 060c 62000000 		.4byte	0x62
 2041 0610 C0040000 		.4byte	.LLST34
 2042 0614 20       		.uleb128 0x20
 2043 0615 78010000 		.4byte	.Ldebug_ranges0+0x178
 2044 0619 3C060000 		.4byte	0x63c
 2045 061d 17       		.uleb128 0x17
 2046 061e 5C000000 		.4byte	.LASF39
 2047 0622 01       		.byte	0x1
 2048 0623 BD       		.byte	0xbd
 2049 0624 62000000 		.4byte	0x62
 2050 0628 DE040000 		.4byte	.LLST35
 2051 062c 1A       		.uleb128 0x1a
 2052 062d DA000000 		.4byte	.LVL100
 2053 0631 66090000 		.4byte	0x966
 2054 0635 1B       		.uleb128 0x1b
 2055 0636 01       		.byte	0x1
 2056 0637 51       		.byte	0x51
 2057 0638 01       		.byte	0x1
 2058 0639 30       		.byte	0x30
 2059 063a 00       		.byte	0
 2060 063b 00       		.byte	0
 2061 063c 20       		.uleb128 0x20
 2062 063d A0010000 		.4byte	.Ldebug_ranges0+0x1a0
 2063 0641 66060000 		.4byte	0x666
 2064 0645 17       		.uleb128 0x17
 2065 0646 5C000000 		.4byte	.LASF39
 2066 064a 01       		.byte	0x1
 2067 064b A3       		.byte	0xa3
 2068 064c 62000000 		.4byte	0x62
 2069 0650 F1040000 		.4byte	.LLST36
 2070 0654 1A       		.uleb128 0x1a
 2071 0655 46000000 		.4byte	.LVL77
 2072 0659 66090000 		.4byte	0x966
 2073 065d 1B       		.uleb128 0x1b
 2074 065e 01       		.byte	0x1
 2075 065f 51       		.byte	0x51
 2076 0660 03       		.byte	0x3
 2077 0661 0B       		.byte	0xb
 2078 0662 EEEE     		.2byte	0xeeee
 2079 0664 00       		.byte	0
 2080 0665 00       		.byte	0
 2081 0666 20       		.uleb128 0x20
 2082 0667 C0010000 		.4byte	.Ldebug_ranges0+0x1c0
 2083 066b 95060000 		.4byte	0x695
 2084 066f 17       		.uleb128 0x17
 2085 0670 5C000000 		.4byte	.LASF39
 2086 0674 01       		.byte	0x1
 2087 0675 A6       		.byte	0xa6
 2088 0676 62000000 		.4byte	0x62
 2089 067a 25050000 		.4byte	.LLST37
 2090 067e 1A       		.uleb128 0x1a
 2091 067f 68000000 		.4byte	.LVL83
 2092 0683 E8010000 		.4byte	0x1e8
 2093 0687 1B       		.uleb128 0x1b
 2094 0688 01       		.byte	0x1
 2095 0689 51       		.byte	0x51
ARM GAS  /var/folders/ng/s8655sgx1ys_4lf9jzm2w6n00000gn/T//cc3YYM13.s 			page 38


 2096 068a 02       		.byte	0x2
 2097 068b 78       		.byte	0x78
 2098 068c 00       		.sleb128 0
 2099 068d 1B       		.uleb128 0x1b
 2100 068e 01       		.byte	0x1
 2101 068f 50       		.byte	0x50
 2102 0690 02       		.byte	0x2
 2103 0691 76       		.byte	0x76
 2104 0692 00       		.sleb128 0
 2105 0693 00       		.byte	0
 2106 0694 00       		.byte	0
 2107 0695 20       		.uleb128 0x20
 2108 0696 D8010000 		.4byte	.Ldebug_ranges0+0x1d8
 2109 069a 43070000 		.4byte	0x743
 2110 069e 1F       		.uleb128 0x1f
 2111 069f 76616C00 		.ascii	"val\000"
 2112 06a3 01       		.byte	0x1
 2113 06a4 B0       		.byte	0xb0
 2114 06a5 62000000 		.4byte	0x62
 2115 06a9 43050000 		.4byte	.LLST38
 2116 06ad 26       		.uleb128 0x26
 2117 06ae 80010000 		.4byte	0x180
 2118 06b2 74000000 		.4byte	.LBB83
 2119 06b6 00020000 		.4byte	.Ldebug_ranges0+0x200
 2120 06ba 01       		.byte	0x1
 2121 06bb B1       		.byte	0xb1
 2122 06bc 09070000 		.4byte	0x709
 2123 06c0 23       		.uleb128 0x23
 2124 06c1 9F010000 		.4byte	0x19f
 2125 06c5 6F050000 		.4byte	.LLST39
 2126 06c9 23       		.uleb128 0x23
 2127 06ca 93010000 		.4byte	0x193
 2128 06ce B4050000 		.4byte	.LLST40
 2129 06d2 24       		.uleb128 0x24
 2130 06d3 80000000 		.4byte	.LVL89
 2131 06d7 A1020000 		.4byte	0x2a1
 2132 06db EF060000 		.4byte	0x6ef
 2133 06df 1B       		.uleb128 0x1b
 2134 06e0 01       		.byte	0x1
 2135 06e1 51       		.byte	0x51
 2136 06e2 02       		.byte	0x2
 2137 06e3 91       		.byte	0x91
 2138 06e4 5E       		.sleb128 -34
 2139 06e5 1B       		.uleb128 0x1b
 2140 06e6 01       		.byte	0x1
 2141 06e7 50       		.byte	0x50
 2142 06e8 05       		.byte	0x5
 2143 06e9 74       		.byte	0x74
 2144 06ea 00       		.sleb128 0
 2145 06eb 08       		.byte	0x8
 2146 06ec FF       		.byte	0xff
 2147 06ed 1A       		.byte	0x1a
 2148 06ee 00       		.byte	0
 2149 06ef 1A       		.uleb128 0x1a
 2150 06f0 A4000000 		.4byte	.LVL94
 2151 06f4 A1020000 		.4byte	0x2a1
 2152 06f8 1B       		.uleb128 0x1b
ARM GAS  /var/folders/ng/s8655sgx1ys_4lf9jzm2w6n00000gn/T//cc3YYM13.s 			page 39


 2153 06f9 01       		.byte	0x1
 2154 06fa 51       		.byte	0x51
 2155 06fb 02       		.byte	0x2
 2156 06fc 91       		.byte	0x91
 2157 06fd 5E       		.sleb128 -34
 2158 06fe 1B       		.uleb128 0x1b
 2159 06ff 01       		.byte	0x1
 2160 0700 50       		.byte	0x50
 2161 0701 05       		.byte	0x5
 2162 0702 74       		.byte	0x74
 2163 0703 00       		.sleb128 0
 2164 0704 08       		.byte	0x8
 2165 0705 FF       		.byte	0xff
 2166 0706 1A       		.byte	0x1a
 2167 0707 00       		.byte	0
 2168 0708 00       		.byte	0
 2169 0709 25       		.uleb128 0x25
 2170 070a 28020000 		.4byte	.Ldebug_ranges0+0x228
 2171 070e 17       		.uleb128 0x17
 2172 070f 5C000000 		.4byte	.LASF39
 2173 0713 01       		.byte	0x1
 2174 0714 B4       		.byte	0xb4
 2175 0715 62000000 		.4byte	0x62
 2176 0719 C7050000 		.4byte	.LLST41
 2177 071d 24       		.uleb128 0x24
 2178 071e 8E000000 		.4byte	.LVL90
 2179 0722 E8010000 		.4byte	0x1e8
 2180 0726 31070000 		.4byte	0x731
 2181 072a 1B       		.uleb128 0x1b
 2182 072b 01       		.byte	0x1
 2183 072c 50       		.byte	0x50
 2184 072d 02       		.byte	0x2
 2185 072e 74       		.byte	0x74
 2186 072f 00       		.sleb128 0
 2187 0730 00       		.byte	0
 2188 0731 1A       		.uleb128 0x1a
 2189 0732 B2000000 		.4byte	.LVL95
 2190 0736 E8010000 		.4byte	0x1e8
 2191 073a 1B       		.uleb128 0x1b
 2192 073b 01       		.byte	0x1
 2193 073c 50       		.byte	0x50
 2194 073d 02       		.byte	0x2
 2195 073e 74       		.byte	0x74
 2196 073f 00       		.sleb128 0
 2197 0740 00       		.byte	0
 2198 0741 00       		.byte	0
 2199 0742 00       		.byte	0
 2200 0743 20       		.uleb128 0x20
 2201 0744 50020000 		.4byte	.Ldebug_ranges0+0x250
 2202 0748 6B070000 		.4byte	0x76b
 2203 074c 17       		.uleb128 0x17
 2204 074d 5C000000 		.4byte	.LASF39
 2205 0751 01       		.byte	0x1
 2206 0752 BA       		.byte	0xba
 2207 0753 62000000 		.4byte	0x62
 2208 0757 E5050000 		.4byte	.LLST42
 2209 075b 1A       		.uleb128 0x1a
ARM GAS  /var/folders/ng/s8655sgx1ys_4lf9jzm2w6n00000gn/T//cc3YYM13.s 			page 40


 2210 075c C8000000 		.4byte	.LVL98
 2211 0760 83090000 		.4byte	0x983
 2212 0764 1B       		.uleb128 0x1b
 2213 0765 01       		.byte	0x1
 2214 0766 51       		.byte	0x51
 2215 0767 01       		.byte	0x1
 2216 0768 32       		.byte	0x32
 2217 0769 00       		.byte	0
 2218 076a 00       		.byte	0
 2219 076b 18       		.uleb128 0x18
 2220 076c 22000000 		.4byte	.LVL74
 2221 0770 5E010000 		.4byte	0x15e
 2222 0774 00       		.byte	0
 2223 0775 1C       		.uleb128 0x1c
 2224 0776 01       		.byte	0x1
 2225 0777 55000000 		.4byte	.LASF47
 2226 077b 01       		.byte	0x1
 2227 077c 2701     		.2byte	0x127
 2228 077e 01       		.byte	0x1
 2229 077f 62000000 		.4byte	0x62
 2230 0783 00000000 		.4byte	.LFB125
 2231 0787 1C000000 		.4byte	.LFE125
 2232 078b F8050000 		.4byte	.LLST43
 2233 078f 01       		.byte	0x1
 2234 0790 F6070000 		.4byte	0x7f6
 2235 0794 1D       		.uleb128 0x1d
 2236 0795 4A010000 		.4byte	.LASF33
 2237 0799 01       		.byte	0x1
 2238 079a 2701     		.2byte	0x127
 2239 079c 62000000 		.4byte	0x62
 2240 07a0 18060000 		.4byte	.LLST44
 2241 07a4 1D       		.uleb128 0x1d
 2242 07a5 FC010000 		.4byte	.LASF34
 2243 07a9 01       		.byte	0x1
 2244 07aa 2701     		.2byte	0x127
 2245 07ac 62000000 		.4byte	0x62
 2246 07b0 39060000 		.4byte	.LLST45
 2247 07b4 1E       		.uleb128 0x1e
 2248 07b5 C5010000 		.4byte	.LASF48
 2249 07b9 01       		.byte	0x1
 2250 07ba 2A01     		.2byte	0x12a
 2251 07bc 62000000 		.4byte	0x62
 2252 07c0 5A060000 		.4byte	.LLST46
 2253 07c4 24       		.uleb128 0x24
 2254 07c5 0A000000 		.4byte	.LVL103
 2255 07c9 E8010000 		.4byte	0x1e8
 2256 07cd DE070000 		.4byte	0x7de
 2257 07d1 1B       		.uleb128 0x1b
 2258 07d2 01       		.byte	0x1
 2259 07d3 51       		.byte	0x51
 2260 07d4 02       		.byte	0x2
 2261 07d5 74       		.byte	0x74
 2262 07d6 00       		.sleb128 0
 2263 07d7 1B       		.uleb128 0x1b
 2264 07d8 01       		.byte	0x1
 2265 07d9 50       		.byte	0x50
 2266 07da 02       		.byte	0x2
ARM GAS  /var/folders/ng/s8655sgx1ys_4lf9jzm2w6n00000gn/T//cc3YYM13.s 			page 41


 2267 07db 75       		.byte	0x75
 2268 07dc 00       		.sleb128 0
 2269 07dd 00       		.byte	0
 2270 07de 27       		.uleb128 0x27
 2271 07df 1C000000 		.4byte	.LVL107
 2272 07e3 01       		.byte	0x1
 2273 07e4 A0050000 		.4byte	0x5a0
 2274 07e8 1B       		.uleb128 0x1b
 2275 07e9 01       		.byte	0x1
 2276 07ea 51       		.byte	0x51
 2277 07eb 02       		.byte	0x2
 2278 07ec 74       		.byte	0x74
 2279 07ed 00       		.sleb128 0
 2280 07ee 1B       		.uleb128 0x1b
 2281 07ef 01       		.byte	0x1
 2282 07f0 50       		.byte	0x50
 2283 07f1 02       		.byte	0x2
 2284 07f2 75       		.byte	0x75
 2285 07f3 00       		.sleb128 0
 2286 07f4 00       		.byte	0
 2287 07f5 00       		.byte	0
 2288 07f6 28       		.uleb128 0x28
 2289 07f7 01       		.byte	0x1
 2290 07f8 CC010000 		.4byte	.LASF49
 2291 07fc 01       		.byte	0x1
 2292 07fd 3E01     		.2byte	0x13e
 2293 07ff 01       		.byte	0x1
 2294 0800 62000000 		.4byte	0x62
 2295 0804 00000000 		.4byte	.LFB126
 2296 0808 08000000 		.4byte	.LFE126
 2297 080c 02       		.byte	0x2
 2298 080d 7D       		.byte	0x7d
 2299 080e 00       		.sleb128 0
 2300 080f 01       		.byte	0x1
 2301 0810 47080000 		.4byte	0x847
 2302 0814 1D       		.uleb128 0x1d
 2303 0815 DB020000 		.4byte	.LASF50
 2304 0819 01       		.byte	0x1
 2305 081a 3E01     		.2byte	0x13e
 2306 081c 3E000000 		.4byte	0x3e
 2307 0820 78060000 		.4byte	.LLST47
 2308 0824 1D       		.uleb128 0x1d
 2309 0825 FC010000 		.4byte	.LASF34
 2310 0829 01       		.byte	0x1
 2311 082a 3E01     		.2byte	0x13e
 2312 082c AC010000 		.4byte	0x1ac
 2313 0830 99060000 		.4byte	.LLST48
 2314 0834 27       		.uleb128 0x27
 2315 0835 08000000 		.4byte	.LVL110
 2316 0839 01       		.byte	0x1
 2317 083a A1020000 		.4byte	0x2a1
 2318 083e 1B       		.uleb128 0x1b
 2319 083f 01       		.byte	0x1
 2320 0840 51       		.byte	0x51
 2321 0841 03       		.byte	0x3
 2322 0842 F3       		.byte	0xf3
 2323 0843 01       		.uleb128 0x1
ARM GAS  /var/folders/ng/s8655sgx1ys_4lf9jzm2w6n00000gn/T//cc3YYM13.s 			page 42


 2324 0844 51       		.byte	0x51
 2325 0845 00       		.byte	0
 2326 0846 00       		.byte	0
 2327 0847 28       		.uleb128 0x28
 2328 0848 01       		.byte	0x1
 2329 0849 F0000000 		.4byte	.LASF51
 2330 084d 01       		.byte	0x1
 2331 084e 4201     		.2byte	0x142
 2332 0850 01       		.byte	0x1
 2333 0851 62000000 		.4byte	0x62
 2334 0855 00000000 		.4byte	.LFB127
 2335 0859 08000000 		.4byte	.LFE127
 2336 085d 02       		.byte	0x2
 2337 085e 7D       		.byte	0x7d
 2338 085f 00       		.sleb128 0
 2339 0860 01       		.byte	0x1
 2340 0861 90080000 		.4byte	0x890
 2341 0865 1D       		.uleb128 0x1d
 2342 0866 DB020000 		.4byte	.LASF50
 2343 086a 01       		.byte	0x1
 2344 086b 4201     		.2byte	0x142
 2345 086d 3E000000 		.4byte	0x3e
 2346 0871 BA060000 		.4byte	.LLST49
 2347 0875 1D       		.uleb128 0x1d
 2348 0876 FC010000 		.4byte	.LASF34
 2349 087a 01       		.byte	0x1
 2350 087b 4201     		.2byte	0x142
 2351 087d 62000000 		.4byte	0x62
 2352 0881 DB060000 		.4byte	.LLST50
 2353 0885 29       		.uleb128 0x29
 2354 0886 08000000 		.4byte	.LVL113
 2355 088a 01       		.byte	0x1
 2356 088b 75070000 		.4byte	0x775
 2357 088f 00       		.byte	0
 2358 0890 0F       		.uleb128 0xf
 2359 0891 80010000 		.4byte	0x180
 2360 0895 00000000 		.4byte	.LFB128
 2361 0899 04000000 		.4byte	.LFE128
 2362 089d 02       		.byte	0x2
 2363 089e 7D       		.byte	0x7d
 2364 089f 00       		.sleb128 0
 2365 08a0 01       		.byte	0x1
 2366 08a1 CA080000 		.4byte	0x8ca
 2367 08a5 23       		.uleb128 0x23
 2368 08a6 93010000 		.4byte	0x193
 2369 08aa FC060000 		.4byte	.LLST51
 2370 08ae 23       		.uleb128 0x23
 2371 08af 9F010000 		.4byte	0x19f
 2372 08b3 1D070000 		.4byte	.LLST52
 2373 08b7 27       		.uleb128 0x27
 2374 08b8 04000000 		.4byte	.LVL115
 2375 08bc 01       		.byte	0x1
 2376 08bd A1020000 		.4byte	0x2a1
 2377 08c1 1B       		.uleb128 0x1b
 2378 08c2 01       		.byte	0x1
 2379 08c3 51       		.byte	0x51
 2380 08c4 03       		.byte	0x3
ARM GAS  /var/folders/ng/s8655sgx1ys_4lf9jzm2w6n00000gn/T//cc3YYM13.s 			page 43


 2381 08c5 F3       		.byte	0xf3
 2382 08c6 01       		.uleb128 0x1
 2383 08c7 51       		.byte	0x51
 2384 08c8 00       		.byte	0
 2385 08c9 00       		.byte	0
 2386 08ca 28       		.uleb128 0x28
 2387 08cb 01       		.byte	0x1
 2388 08cc 16010000 		.4byte	.LASF52
 2389 08d0 01       		.byte	0x1
 2390 08d1 4F01     		.2byte	0x14f
 2391 08d3 01       		.byte	0x1
 2392 08d4 62000000 		.4byte	0x62
 2393 08d8 00000000 		.4byte	.LFB129
 2394 08dc 04000000 		.4byte	.LFE129
 2395 08e0 02       		.byte	0x2
 2396 08e1 7D       		.byte	0x7d
 2397 08e2 00       		.sleb128 0
 2398 08e3 01       		.byte	0x1
 2399 08e4 13090000 		.4byte	0x913
 2400 08e8 1D       		.uleb128 0x1d
 2401 08e9 4A010000 		.4byte	.LASF33
 2402 08ed 01       		.byte	0x1
 2403 08ee 4F01     		.2byte	0x14f
 2404 08f0 3E000000 		.4byte	0x3e
 2405 08f4 3E070000 		.4byte	.LLST53
 2406 08f8 1D       		.uleb128 0x1d
 2407 08f9 FC010000 		.4byte	.LASF34
 2408 08fd 01       		.byte	0x1
 2409 08fe 4F01     		.2byte	0x14f
 2410 0900 62000000 		.4byte	0x62
 2411 0904 5F070000 		.4byte	.LLST54
 2412 0908 29       		.uleb128 0x29
 2413 0909 04000000 		.4byte	.LVL117
 2414 090d 01       		.byte	0x1
 2415 090e 75070000 		.4byte	0x775
 2416 0912 00       		.byte	0
 2417 0913 2A       		.uleb128 0x2a
 2418 0914 7E020000 		.4byte	.LASF53
 2419 0918 04       		.byte	0x4
 2420 0919 9806     		.2byte	0x698
 2421 091b BB000000 		.4byte	0xbb
 2422 091f 01       		.byte	0x1
 2423 0920 01       		.byte	0x1
 2424 0921 2B       		.uleb128 0x2b
 2425 0922 53010000 		.4byte	0x153
 2426 0926 31090000 		.4byte	0x931
 2427 092a 2C       		.uleb128 0x2c
 2428 092b AD000000 		.4byte	0xad
 2429 092f 01       		.byte	0x1
 2430 0930 00       		.byte	0
 2431 0931 2D       		.uleb128 0x2d
 2432 0932 98010000 		.4byte	.LASF54
 2433 0936 01       		.byte	0x1
 2434 0937 21       		.byte	0x21
 2435 0938 21090000 		.4byte	0x921
 2436 093c 01       		.byte	0x1
 2437 093d 05       		.byte	0x5
ARM GAS  /var/folders/ng/s8655sgx1ys_4lf9jzm2w6n00000gn/T//cc3YYM13.s 			page 44


 2438 093e 03       		.byte	0x3
 2439 093f 00000000 		.4byte	_pages
 2440 0943 2B       		.uleb128 0x2b
 2441 0944 62000000 		.4byte	0x62
 2442 0948 54090000 		.4byte	0x954
 2443 094c 2E       		.uleb128 0x2e
 2444 094d AD000000 		.4byte	0xad
 2445 0951 0F01     		.2byte	0x10f
 2446 0953 00       		.byte	0
 2447 0954 2D       		.uleb128 0x2d
 2448 0955 C2000000 		.4byte	.LASF55
 2449 0959 01       		.byte	0x1
 2450 095a 27       		.byte	0x27
 2451 095b 43090000 		.4byte	0x943
 2452 095f 01       		.byte	0x1
 2453 0960 05       		.byte	0x5
 2454 0961 03       		.byte	0x3
 2455 0962 00000000 		.4byte	_addrMap
 2456 0966 2F       		.uleb128 0x2f
 2457 0967 01       		.byte	0x1
 2458 0968 C5020000 		.4byte	.LASF57
 2459 096c 03       		.byte	0x3
 2460 096d ED       		.byte	0xed
 2461 096e 01       		.byte	0x1
 2462 096f F9000000 		.4byte	0xf9
 2463 0973 01       		.byte	0x1
 2464 0974 83090000 		.4byte	0x983
 2465 0978 30       		.uleb128 0x30
 2466 0979 86000000 		.4byte	0x86
 2467 097d 30       		.uleb128 0x30
 2468 097e 62000000 		.4byte	0x62
 2469 0982 00       		.byte	0
 2470 0983 2F       		.uleb128 0x2f
 2471 0984 01       		.byte	0x1
 2472 0985 18000000 		.4byte	.LASF58
 2473 0989 03       		.byte	0x3
 2474 098a E7       		.byte	0xe7
 2475 098b 01       		.byte	0x1
 2476 098c F9000000 		.4byte	0xf9
 2477 0990 01       		.byte	0x1
 2478 0991 A0090000 		.4byte	0x9a0
 2479 0995 30       		.uleb128 0x30
 2480 0996 86000000 		.4byte	0x86
 2481 099a 30       		.uleb128 0x30
 2482 099b 3E000000 		.4byte	0x3e
 2483 099f 00       		.byte	0
 2484 09a0 31       		.uleb128 0x31
 2485 09a1 01       		.byte	0x1
 2486 09a2 7C000000 		.4byte	.LASF62
 2487 09a6 03       		.byte	0x3
 2488 09a7 E5       		.byte	0xe5
 2489 09a8 01       		.byte	0x1
 2490 09a9 01       		.byte	0x1
 2491 09aa 00       		.byte	0
 2492              		.section	.debug_abbrev,"",%progbits
 2493              	.Ldebug_abbrev0:
 2494 0000 01       		.uleb128 0x1
ARM GAS  /var/folders/ng/s8655sgx1ys_4lf9jzm2w6n00000gn/T//cc3YYM13.s 			page 45


 2495 0001 11       		.uleb128 0x11
 2496 0002 01       		.byte	0x1
 2497 0003 25       		.uleb128 0x25
 2498 0004 0E       		.uleb128 0xe
 2499 0005 13       		.uleb128 0x13
 2500 0006 0B       		.uleb128 0xb
 2501 0007 03       		.uleb128 0x3
 2502 0008 0E       		.uleb128 0xe
 2503 0009 1B       		.uleb128 0x1b
 2504 000a 0E       		.uleb128 0xe
 2505 000b 55       		.uleb128 0x55
 2506 000c 06       		.uleb128 0x6
 2507 000d 11       		.uleb128 0x11
 2508 000e 01       		.uleb128 0x1
 2509 000f 52       		.uleb128 0x52
 2510 0010 01       		.uleb128 0x1
 2511 0011 10       		.uleb128 0x10
 2512 0012 06       		.uleb128 0x6
 2513 0013 00       		.byte	0
 2514 0014 00       		.byte	0
 2515 0015 02       		.uleb128 0x2
 2516 0016 24       		.uleb128 0x24
 2517 0017 00       		.byte	0
 2518 0018 0B       		.uleb128 0xb
 2519 0019 0B       		.uleb128 0xb
 2520 001a 3E       		.uleb128 0x3e
 2521 001b 0B       		.uleb128 0xb
 2522 001c 03       		.uleb128 0x3
 2523 001d 08       		.uleb128 0x8
 2524 001e 00       		.byte	0
 2525 001f 00       		.byte	0
 2526 0020 03       		.uleb128 0x3
 2527 0021 24       		.uleb128 0x24
 2528 0022 00       		.byte	0
 2529 0023 0B       		.uleb128 0xb
 2530 0024 0B       		.uleb128 0xb
 2531 0025 3E       		.uleb128 0x3e
 2532 0026 0B       		.uleb128 0xb
 2533 0027 03       		.uleb128 0x3
 2534 0028 0E       		.uleb128 0xe
 2535 0029 00       		.byte	0
 2536 002a 00       		.byte	0
 2537 002b 04       		.uleb128 0x4
 2538 002c 16       		.uleb128 0x16
 2539 002d 00       		.byte	0
 2540 002e 03       		.uleb128 0x3
 2541 002f 0E       		.uleb128 0xe
 2542 0030 3A       		.uleb128 0x3a
 2543 0031 0B       		.uleb128 0xb
 2544 0032 3B       		.uleb128 0x3b
 2545 0033 0B       		.uleb128 0xb
 2546 0034 49       		.uleb128 0x49
 2547 0035 13       		.uleb128 0x13
 2548 0036 00       		.byte	0
 2549 0037 00       		.byte	0
 2550 0038 05       		.uleb128 0x5
 2551 0039 35       		.uleb128 0x35
ARM GAS  /var/folders/ng/s8655sgx1ys_4lf9jzm2w6n00000gn/T//cc3YYM13.s 			page 46


 2552 003a 00       		.byte	0
 2553 003b 49       		.uleb128 0x49
 2554 003c 13       		.uleb128 0x13
 2555 003d 00       		.byte	0
 2556 003e 00       		.byte	0
 2557 003f 06       		.uleb128 0x6
 2558 0040 04       		.uleb128 0x4
 2559 0041 01       		.byte	0x1
 2560 0042 0B       		.uleb128 0xb
 2561 0043 0B       		.uleb128 0xb
 2562 0044 3A       		.uleb128 0x3a
 2563 0045 0B       		.uleb128 0xb
 2564 0046 3B       		.uleb128 0x3b
 2565 0047 0B       		.uleb128 0xb
 2566 0048 01       		.uleb128 0x1
 2567 0049 13       		.uleb128 0x13
 2568 004a 00       		.byte	0
 2569 004b 00       		.byte	0
 2570 004c 07       		.uleb128 0x7
 2571 004d 28       		.uleb128 0x28
 2572 004e 00       		.byte	0
 2573 004f 03       		.uleb128 0x3
 2574 0050 0E       		.uleb128 0xe
 2575 0051 1C       		.uleb128 0x1c
 2576 0052 0D       		.uleb128 0xd
 2577 0053 00       		.byte	0
 2578 0054 00       		.byte	0
 2579 0055 08       		.uleb128 0x8
 2580 0056 13       		.uleb128 0x13
 2581 0057 01       		.byte	0x1
 2582 0058 0B       		.uleb128 0xb
 2583 0059 0B       		.uleb128 0xb
 2584 005a 3A       		.uleb128 0x3a
 2585 005b 0B       		.uleb128 0xb
 2586 005c 3B       		.uleb128 0x3b
 2587 005d 0B       		.uleb128 0xb
 2588 005e 01       		.uleb128 0x1
 2589 005f 13       		.uleb128 0x13
 2590 0060 00       		.byte	0
 2591 0061 00       		.byte	0
 2592 0062 09       		.uleb128 0x9
 2593 0063 0D       		.uleb128 0xd
 2594 0064 00       		.byte	0
 2595 0065 03       		.uleb128 0x3
 2596 0066 0E       		.uleb128 0xe
 2597 0067 3A       		.uleb128 0x3a
 2598 0068 0B       		.uleb128 0xb
 2599 0069 3B       		.uleb128 0x3b
 2600 006a 0B       		.uleb128 0xb
 2601 006b 49       		.uleb128 0x49
 2602 006c 13       		.uleb128 0x13
 2603 006d 38       		.uleb128 0x38
 2604 006e 0A       		.uleb128 0xa
 2605 006f 00       		.byte	0
 2606 0070 00       		.byte	0
 2607 0071 0A       		.uleb128 0xa
 2608 0072 0D       		.uleb128 0xd
ARM GAS  /var/folders/ng/s8655sgx1ys_4lf9jzm2w6n00000gn/T//cc3YYM13.s 			page 47


 2609 0073 00       		.byte	0
 2610 0074 03       		.uleb128 0x3
 2611 0075 08       		.uleb128 0x8
 2612 0076 3A       		.uleb128 0x3a
 2613 0077 0B       		.uleb128 0xb
 2614 0078 3B       		.uleb128 0x3b
 2615 0079 0B       		.uleb128 0xb
 2616 007a 49       		.uleb128 0x49
 2617 007b 13       		.uleb128 0x13
 2618 007c 38       		.uleb128 0x38
 2619 007d 0A       		.uleb128 0xa
 2620 007e 00       		.byte	0
 2621 007f 00       		.byte	0
 2622 0080 0B       		.uleb128 0xb
 2623 0081 2E       		.uleb128 0x2e
 2624 0082 00       		.byte	0
 2625 0083 3F       		.uleb128 0x3f
 2626 0084 0C       		.uleb128 0xc
 2627 0085 03       		.uleb128 0x3
 2628 0086 0E       		.uleb128 0xe
 2629 0087 3A       		.uleb128 0x3a
 2630 0088 0B       		.uleb128 0xb
 2631 0089 3B       		.uleb128 0x3b
 2632 008a 0B       		.uleb128 0xb
 2633 008b 27       		.uleb128 0x27
 2634 008c 0C       		.uleb128 0xc
 2635 008d 49       		.uleb128 0x49
 2636 008e 13       		.uleb128 0x13
 2637 008f 20       		.uleb128 0x20
 2638 0090 0B       		.uleb128 0xb
 2639 0091 00       		.byte	0
 2640 0092 00       		.byte	0
 2641 0093 0C       		.uleb128 0xc
 2642 0094 0F       		.uleb128 0xf
 2643 0095 00       		.byte	0
 2644 0096 0B       		.uleb128 0xb
 2645 0097 0B       		.uleb128 0xb
 2646 0098 49       		.uleb128 0x49
 2647 0099 13       		.uleb128 0x13
 2648 009a 00       		.byte	0
 2649 009b 00       		.byte	0
 2650 009c 0D       		.uleb128 0xd
 2651 009d 2E       		.uleb128 0x2e
 2652 009e 01       		.byte	0x1
 2653 009f 3F       		.uleb128 0x3f
 2654 00a0 0C       		.uleb128 0xc
 2655 00a1 03       		.uleb128 0x3
 2656 00a2 0E       		.uleb128 0xe
 2657 00a3 3A       		.uleb128 0x3a
 2658 00a4 0B       		.uleb128 0xb
 2659 00a5 3B       		.uleb128 0x3b
 2660 00a6 05       		.uleb128 0x5
 2661 00a7 27       		.uleb128 0x27
 2662 00a8 0C       		.uleb128 0xc
 2663 00a9 49       		.uleb128 0x49
 2664 00aa 13       		.uleb128 0x13
 2665 00ab 20       		.uleb128 0x20
ARM GAS  /var/folders/ng/s8655sgx1ys_4lf9jzm2w6n00000gn/T//cc3YYM13.s 			page 48


 2666 00ac 0B       		.uleb128 0xb
 2667 00ad 01       		.uleb128 0x1
 2668 00ae 13       		.uleb128 0x13
 2669 00af 00       		.byte	0
 2670 00b0 00       		.byte	0
 2671 00b1 0E       		.uleb128 0xe
 2672 00b2 05       		.uleb128 0x5
 2673 00b3 00       		.byte	0
 2674 00b4 03       		.uleb128 0x3
 2675 00b5 0E       		.uleb128 0xe
 2676 00b6 3A       		.uleb128 0x3a
 2677 00b7 0B       		.uleb128 0xb
 2678 00b8 3B       		.uleb128 0x3b
 2679 00b9 05       		.uleb128 0x5
 2680 00ba 49       		.uleb128 0x49
 2681 00bb 13       		.uleb128 0x13
 2682 00bc 00       		.byte	0
 2683 00bd 00       		.byte	0
 2684 00be 0F       		.uleb128 0xf
 2685 00bf 2E       		.uleb128 0x2e
 2686 00c0 01       		.byte	0x1
 2687 00c1 31       		.uleb128 0x31
 2688 00c2 13       		.uleb128 0x13
 2689 00c3 11       		.uleb128 0x11
 2690 00c4 01       		.uleb128 0x1
 2691 00c5 12       		.uleb128 0x12
 2692 00c6 01       		.uleb128 0x1
 2693 00c7 40       		.uleb128 0x40
 2694 00c8 0A       		.uleb128 0xa
 2695 00c9 9742     		.uleb128 0x2117
 2696 00cb 0C       		.uleb128 0xc
 2697 00cc 01       		.uleb128 0x1
 2698 00cd 13       		.uleb128 0x13
 2699 00ce 00       		.byte	0
 2700 00cf 00       		.byte	0
 2701 00d0 10       		.uleb128 0x10
 2702 00d1 1D       		.uleb128 0x1d
 2703 00d2 00       		.byte	0
 2704 00d3 31       		.uleb128 0x31
 2705 00d4 13       		.uleb128 0x13
 2706 00d5 11       		.uleb128 0x11
 2707 00d6 01       		.uleb128 0x1
 2708 00d7 12       		.uleb128 0x12
 2709 00d8 01       		.uleb128 0x1
 2710 00d9 58       		.uleb128 0x58
 2711 00da 0B       		.uleb128 0xb
 2712 00db 59       		.uleb128 0x59
 2713 00dc 0B       		.uleb128 0xb
 2714 00dd 00       		.byte	0
 2715 00de 00       		.byte	0
 2716 00df 11       		.uleb128 0x11
 2717 00e0 2E       		.uleb128 0x2e
 2718 00e1 00       		.byte	0
 2719 00e2 31       		.uleb128 0x31
 2720 00e3 13       		.uleb128 0x13
 2721 00e4 11       		.uleb128 0x11
 2722 00e5 01       		.uleb128 0x1
ARM GAS  /var/folders/ng/s8655sgx1ys_4lf9jzm2w6n00000gn/T//cc3YYM13.s 			page 49


 2723 00e6 12       		.uleb128 0x12
 2724 00e7 01       		.uleb128 0x1
 2725 00e8 40       		.uleb128 0x40
 2726 00e9 0A       		.uleb128 0xa
 2727 00ea 9742     		.uleb128 0x2117
 2728 00ec 0C       		.uleb128 0xc
 2729 00ed 00       		.byte	0
 2730 00ee 00       		.byte	0
 2731 00ef 12       		.uleb128 0x12
 2732 00f0 2E       		.uleb128 0x2e
 2733 00f1 01       		.byte	0x1
 2734 00f2 3F       		.uleb128 0x3f
 2735 00f3 0C       		.uleb128 0xc
 2736 00f4 03       		.uleb128 0x3
 2737 00f5 0E       		.uleb128 0xe
 2738 00f6 3A       		.uleb128 0x3a
 2739 00f7 0B       		.uleb128 0xb
 2740 00f8 3B       		.uleb128 0x3b
 2741 00f9 0B       		.uleb128 0xb
 2742 00fa 27       		.uleb128 0x27
 2743 00fb 0C       		.uleb128 0xc
 2744 00fc 49       		.uleb128 0x49
 2745 00fd 13       		.uleb128 0x13
 2746 00fe 11       		.uleb128 0x11
 2747 00ff 01       		.uleb128 0x1
 2748 0100 12       		.uleb128 0x12
 2749 0101 01       		.uleb128 0x1
 2750 0102 40       		.uleb128 0x40
 2751 0103 06       		.uleb128 0x6
 2752 0104 9742     		.uleb128 0x2117
 2753 0106 0C       		.uleb128 0xc
 2754 0107 01       		.uleb128 0x1
 2755 0108 13       		.uleb128 0x13
 2756 0109 00       		.byte	0
 2757 010a 00       		.byte	0
 2758 010b 13       		.uleb128 0x13
 2759 010c 05       		.uleb128 0x5
 2760 010d 00       		.byte	0
 2761 010e 03       		.uleb128 0x3
 2762 010f 0E       		.uleb128 0xe
 2763 0110 3A       		.uleb128 0x3a
 2764 0111 0B       		.uleb128 0xb
 2765 0112 3B       		.uleb128 0x3b
 2766 0113 0B       		.uleb128 0xb
 2767 0114 49       		.uleb128 0x49
 2768 0115 13       		.uleb128 0x13
 2769 0116 02       		.uleb128 0x2
 2770 0117 06       		.uleb128 0x6
 2771 0118 00       		.byte	0
 2772 0119 00       		.byte	0
 2773 011a 14       		.uleb128 0x14
 2774 011b 34       		.uleb128 0x34
 2775 011c 00       		.byte	0
 2776 011d 03       		.uleb128 0x3
 2777 011e 0E       		.uleb128 0xe
 2778 011f 3A       		.uleb128 0x3a
 2779 0120 0B       		.uleb128 0xb
ARM GAS  /var/folders/ng/s8655sgx1ys_4lf9jzm2w6n00000gn/T//cc3YYM13.s 			page 50


 2780 0121 3B       		.uleb128 0x3b
 2781 0122 0B       		.uleb128 0xb
 2782 0123 49       		.uleb128 0x49
 2783 0124 13       		.uleb128 0x13
 2784 0125 02       		.uleb128 0x2
 2785 0126 0A       		.uleb128 0xa
 2786 0127 00       		.byte	0
 2787 0128 00       		.byte	0
 2788 0129 15       		.uleb128 0x15
 2789 012a 1D       		.uleb128 0x1d
 2790 012b 00       		.byte	0
 2791 012c 31       		.uleb128 0x31
 2792 012d 13       		.uleb128 0x13
 2793 012e 52       		.uleb128 0x52
 2794 012f 01       		.uleb128 0x1
 2795 0130 55       		.uleb128 0x55
 2796 0131 06       		.uleb128 0x6
 2797 0132 58       		.uleb128 0x58
 2798 0133 0B       		.uleb128 0xb
 2799 0134 59       		.uleb128 0x59
 2800 0135 0B       		.uleb128 0xb
 2801 0136 00       		.byte	0
 2802 0137 00       		.byte	0
 2803 0138 16       		.uleb128 0x16
 2804 0139 0B       		.uleb128 0xb
 2805 013a 01       		.byte	0x1
 2806 013b 11       		.uleb128 0x11
 2807 013c 01       		.uleb128 0x1
 2808 013d 12       		.uleb128 0x12
 2809 013e 01       		.uleb128 0x1
 2810 013f 01       		.uleb128 0x1
 2811 0140 13       		.uleb128 0x13
 2812 0141 00       		.byte	0
 2813 0142 00       		.byte	0
 2814 0143 17       		.uleb128 0x17
 2815 0144 34       		.uleb128 0x34
 2816 0145 00       		.byte	0
 2817 0146 03       		.uleb128 0x3
 2818 0147 0E       		.uleb128 0xe
 2819 0148 3A       		.uleb128 0x3a
 2820 0149 0B       		.uleb128 0xb
 2821 014a 3B       		.uleb128 0x3b
 2822 014b 0B       		.uleb128 0xb
 2823 014c 49       		.uleb128 0x49
 2824 014d 13       		.uleb128 0x13
 2825 014e 02       		.uleb128 0x2
 2826 014f 06       		.uleb128 0x6
 2827 0150 00       		.byte	0
 2828 0151 00       		.byte	0
 2829 0152 18       		.uleb128 0x18
 2830 0153 898201   		.uleb128 0x4109
 2831 0156 00       		.byte	0
 2832 0157 11       		.uleb128 0x11
 2833 0158 01       		.uleb128 0x1
 2834 0159 31       		.uleb128 0x31
 2835 015a 13       		.uleb128 0x13
 2836 015b 00       		.byte	0
ARM GAS  /var/folders/ng/s8655sgx1ys_4lf9jzm2w6n00000gn/T//cc3YYM13.s 			page 51


 2837 015c 00       		.byte	0
 2838 015d 19       		.uleb128 0x19
 2839 015e 0B       		.uleb128 0xb
 2840 015f 01       		.byte	0x1
 2841 0160 11       		.uleb128 0x11
 2842 0161 01       		.uleb128 0x1
 2843 0162 12       		.uleb128 0x12
 2844 0163 01       		.uleb128 0x1
 2845 0164 00       		.byte	0
 2846 0165 00       		.byte	0
 2847 0166 1A       		.uleb128 0x1a
 2848 0167 898201   		.uleb128 0x4109
 2849 016a 01       		.byte	0x1
 2850 016b 11       		.uleb128 0x11
 2851 016c 01       		.uleb128 0x1
 2852 016d 31       		.uleb128 0x31
 2853 016e 13       		.uleb128 0x13
 2854 016f 00       		.byte	0
 2855 0170 00       		.byte	0
 2856 0171 1B       		.uleb128 0x1b
 2857 0172 8A8201   		.uleb128 0x410a
 2858 0175 00       		.byte	0
 2859 0176 02       		.uleb128 0x2
 2860 0177 0A       		.uleb128 0xa
 2861 0178 9142     		.uleb128 0x2111
 2862 017a 0A       		.uleb128 0xa
 2863 017b 00       		.byte	0
 2864 017c 00       		.byte	0
 2865 017d 1C       		.uleb128 0x1c
 2866 017e 2E       		.uleb128 0x2e
 2867 017f 01       		.byte	0x1
 2868 0180 3F       		.uleb128 0x3f
 2869 0181 0C       		.uleb128 0xc
 2870 0182 03       		.uleb128 0x3
 2871 0183 0E       		.uleb128 0xe
 2872 0184 3A       		.uleb128 0x3a
 2873 0185 0B       		.uleb128 0xb
 2874 0186 3B       		.uleb128 0x3b
 2875 0187 05       		.uleb128 0x5
 2876 0188 27       		.uleb128 0x27
 2877 0189 0C       		.uleb128 0xc
 2878 018a 49       		.uleb128 0x49
 2879 018b 13       		.uleb128 0x13
 2880 018c 11       		.uleb128 0x11
 2881 018d 01       		.uleb128 0x1
 2882 018e 12       		.uleb128 0x12
 2883 018f 01       		.uleb128 0x1
 2884 0190 40       		.uleb128 0x40
 2885 0191 06       		.uleb128 0x6
 2886 0192 9742     		.uleb128 0x2117
 2887 0194 0C       		.uleb128 0xc
 2888 0195 01       		.uleb128 0x1
 2889 0196 13       		.uleb128 0x13
 2890 0197 00       		.byte	0
 2891 0198 00       		.byte	0
 2892 0199 1D       		.uleb128 0x1d
 2893 019a 05       		.uleb128 0x5
ARM GAS  /var/folders/ng/s8655sgx1ys_4lf9jzm2w6n00000gn/T//cc3YYM13.s 			page 52


 2894 019b 00       		.byte	0
 2895 019c 03       		.uleb128 0x3
 2896 019d 0E       		.uleb128 0xe
 2897 019e 3A       		.uleb128 0x3a
 2898 019f 0B       		.uleb128 0xb
 2899 01a0 3B       		.uleb128 0x3b
 2900 01a1 05       		.uleb128 0x5
 2901 01a2 49       		.uleb128 0x49
 2902 01a3 13       		.uleb128 0x13
 2903 01a4 02       		.uleb128 0x2
 2904 01a5 06       		.uleb128 0x6
 2905 01a6 00       		.byte	0
 2906 01a7 00       		.byte	0
 2907 01a8 1E       		.uleb128 0x1e
 2908 01a9 34       		.uleb128 0x34
 2909 01aa 00       		.byte	0
 2910 01ab 03       		.uleb128 0x3
 2911 01ac 0E       		.uleb128 0xe
 2912 01ad 3A       		.uleb128 0x3a
 2913 01ae 0B       		.uleb128 0xb
 2914 01af 3B       		.uleb128 0x3b
 2915 01b0 05       		.uleb128 0x5
 2916 01b1 49       		.uleb128 0x49
 2917 01b2 13       		.uleb128 0x13
 2918 01b3 02       		.uleb128 0x2
 2919 01b4 06       		.uleb128 0x6
 2920 01b5 00       		.byte	0
 2921 01b6 00       		.byte	0
 2922 01b7 1F       		.uleb128 0x1f
 2923 01b8 34       		.uleb128 0x34
 2924 01b9 00       		.byte	0
 2925 01ba 03       		.uleb128 0x3
 2926 01bb 08       		.uleb128 0x8
 2927 01bc 3A       		.uleb128 0x3a
 2928 01bd 0B       		.uleb128 0xb
 2929 01be 3B       		.uleb128 0x3b
 2930 01bf 0B       		.uleb128 0xb
 2931 01c0 49       		.uleb128 0x49
 2932 01c1 13       		.uleb128 0x13
 2933 01c2 02       		.uleb128 0x2
 2934 01c3 06       		.uleb128 0x6
 2935 01c4 00       		.byte	0
 2936 01c5 00       		.byte	0
 2937 01c6 20       		.uleb128 0x20
 2938 01c7 0B       		.uleb128 0xb
 2939 01c8 01       		.byte	0x1
 2940 01c9 55       		.uleb128 0x55
 2941 01ca 06       		.uleb128 0x6
 2942 01cb 01       		.uleb128 0x1
 2943 01cc 13       		.uleb128 0x13
 2944 01cd 00       		.byte	0
 2945 01ce 00       		.byte	0
 2946 01cf 21       		.uleb128 0x21
 2947 01d0 34       		.uleb128 0x34
 2948 01d1 00       		.byte	0
 2949 01d2 03       		.uleb128 0x3
 2950 01d3 08       		.uleb128 0x8
ARM GAS  /var/folders/ng/s8655sgx1ys_4lf9jzm2w6n00000gn/T//cc3YYM13.s 			page 53


 2951 01d4 3A       		.uleb128 0x3a
 2952 01d5 0B       		.uleb128 0xb
 2953 01d6 3B       		.uleb128 0x3b
 2954 01d7 05       		.uleb128 0x5
 2955 01d8 49       		.uleb128 0x49
 2956 01d9 13       		.uleb128 0x13
 2957 01da 02       		.uleb128 0x2
 2958 01db 06       		.uleb128 0x6
 2959 01dc 00       		.byte	0
 2960 01dd 00       		.byte	0
 2961 01de 22       		.uleb128 0x22
 2962 01df 1D       		.uleb128 0x1d
 2963 01e0 01       		.byte	0x1
 2964 01e1 31       		.uleb128 0x31
 2965 01e2 13       		.uleb128 0x13
 2966 01e3 52       		.uleb128 0x52
 2967 01e4 01       		.uleb128 0x1
 2968 01e5 55       		.uleb128 0x55
 2969 01e6 06       		.uleb128 0x6
 2970 01e7 58       		.uleb128 0x58
 2971 01e8 0B       		.uleb128 0xb
 2972 01e9 59       		.uleb128 0x59
 2973 01ea 05       		.uleb128 0x5
 2974 01eb 01       		.uleb128 0x1
 2975 01ec 13       		.uleb128 0x13
 2976 01ed 00       		.byte	0
 2977 01ee 00       		.byte	0
 2978 01ef 23       		.uleb128 0x23
 2979 01f0 05       		.uleb128 0x5
 2980 01f1 00       		.byte	0
 2981 01f2 31       		.uleb128 0x31
 2982 01f3 13       		.uleb128 0x13
 2983 01f4 02       		.uleb128 0x2
 2984 01f5 06       		.uleb128 0x6
 2985 01f6 00       		.byte	0
 2986 01f7 00       		.byte	0
 2987 01f8 24       		.uleb128 0x24
 2988 01f9 898201   		.uleb128 0x4109
 2989 01fc 01       		.byte	0x1
 2990 01fd 11       		.uleb128 0x11
 2991 01fe 01       		.uleb128 0x1
 2992 01ff 31       		.uleb128 0x31
 2993 0200 13       		.uleb128 0x13
 2994 0201 01       		.uleb128 0x1
 2995 0202 13       		.uleb128 0x13
 2996 0203 00       		.byte	0
 2997 0204 00       		.byte	0
 2998 0205 25       		.uleb128 0x25
 2999 0206 0B       		.uleb128 0xb
 3000 0207 01       		.byte	0x1
 3001 0208 55       		.uleb128 0x55
 3002 0209 06       		.uleb128 0x6
 3003 020a 00       		.byte	0
 3004 020b 00       		.byte	0
 3005 020c 26       		.uleb128 0x26
 3006 020d 1D       		.uleb128 0x1d
 3007 020e 01       		.byte	0x1
ARM GAS  /var/folders/ng/s8655sgx1ys_4lf9jzm2w6n00000gn/T//cc3YYM13.s 			page 54


 3008 020f 31       		.uleb128 0x31
 3009 0210 13       		.uleb128 0x13
 3010 0211 52       		.uleb128 0x52
 3011 0212 01       		.uleb128 0x1
 3012 0213 55       		.uleb128 0x55
 3013 0214 06       		.uleb128 0x6
 3014 0215 58       		.uleb128 0x58
 3015 0216 0B       		.uleb128 0xb
 3016 0217 59       		.uleb128 0x59
 3017 0218 0B       		.uleb128 0xb
 3018 0219 01       		.uleb128 0x1
 3019 021a 13       		.uleb128 0x13
 3020 021b 00       		.byte	0
 3021 021c 00       		.byte	0
 3022 021d 27       		.uleb128 0x27
 3023 021e 898201   		.uleb128 0x4109
 3024 0221 01       		.byte	0x1
 3025 0222 11       		.uleb128 0x11
 3026 0223 01       		.uleb128 0x1
 3027 0224 9542     		.uleb128 0x2115
 3028 0226 0C       		.uleb128 0xc
 3029 0227 31       		.uleb128 0x31
 3030 0228 13       		.uleb128 0x13
 3031 0229 00       		.byte	0
 3032 022a 00       		.byte	0
 3033 022b 28       		.uleb128 0x28
 3034 022c 2E       		.uleb128 0x2e
 3035 022d 01       		.byte	0x1
 3036 022e 3F       		.uleb128 0x3f
 3037 022f 0C       		.uleb128 0xc
 3038 0230 03       		.uleb128 0x3
 3039 0231 0E       		.uleb128 0xe
 3040 0232 3A       		.uleb128 0x3a
 3041 0233 0B       		.uleb128 0xb
 3042 0234 3B       		.uleb128 0x3b
 3043 0235 05       		.uleb128 0x5
 3044 0236 27       		.uleb128 0x27
 3045 0237 0C       		.uleb128 0xc
 3046 0238 49       		.uleb128 0x49
 3047 0239 13       		.uleb128 0x13
 3048 023a 11       		.uleb128 0x11
 3049 023b 01       		.uleb128 0x1
 3050 023c 12       		.uleb128 0x12
 3051 023d 01       		.uleb128 0x1
 3052 023e 40       		.uleb128 0x40
 3053 023f 0A       		.uleb128 0xa
 3054 0240 9742     		.uleb128 0x2117
 3055 0242 0C       		.uleb128 0xc
 3056 0243 01       		.uleb128 0x1
 3057 0244 13       		.uleb128 0x13
 3058 0245 00       		.byte	0
 3059 0246 00       		.byte	0
 3060 0247 29       		.uleb128 0x29
 3061 0248 898201   		.uleb128 0x4109
 3062 024b 00       		.byte	0
 3063 024c 11       		.uleb128 0x11
 3064 024d 01       		.uleb128 0x1
ARM GAS  /var/folders/ng/s8655sgx1ys_4lf9jzm2w6n00000gn/T//cc3YYM13.s 			page 55


 3065 024e 9542     		.uleb128 0x2115
 3066 0250 0C       		.uleb128 0xc
 3067 0251 31       		.uleb128 0x31
 3068 0252 13       		.uleb128 0x13
 3069 0253 00       		.byte	0
 3070 0254 00       		.byte	0
 3071 0255 2A       		.uleb128 0x2a
 3072 0256 34       		.uleb128 0x34
 3073 0257 00       		.byte	0
 3074 0258 03       		.uleb128 0x3
 3075 0259 0E       		.uleb128 0xe
 3076 025a 3A       		.uleb128 0x3a
 3077 025b 0B       		.uleb128 0xb
 3078 025c 3B       		.uleb128 0x3b
 3079 025d 05       		.uleb128 0x5
 3080 025e 49       		.uleb128 0x49
 3081 025f 13       		.uleb128 0x13
 3082 0260 3F       		.uleb128 0x3f
 3083 0261 0C       		.uleb128 0xc
 3084 0262 3C       		.uleb128 0x3c
 3085 0263 0C       		.uleb128 0xc
 3086 0264 00       		.byte	0
 3087 0265 00       		.byte	0
 3088 0266 2B       		.uleb128 0x2b
 3089 0267 01       		.uleb128 0x1
 3090 0268 01       		.byte	0x1
 3091 0269 49       		.uleb128 0x49
 3092 026a 13       		.uleb128 0x13
 3093 026b 01       		.uleb128 0x1
 3094 026c 13       		.uleb128 0x13
 3095 026d 00       		.byte	0
 3096 026e 00       		.byte	0
 3097 026f 2C       		.uleb128 0x2c
 3098 0270 21       		.uleb128 0x21
 3099 0271 00       		.byte	0
 3100 0272 49       		.uleb128 0x49
 3101 0273 13       		.uleb128 0x13
 3102 0274 2F       		.uleb128 0x2f
 3103 0275 0B       		.uleb128 0xb
 3104 0276 00       		.byte	0
 3105 0277 00       		.byte	0
 3106 0278 2D       		.uleb128 0x2d
 3107 0279 34       		.uleb128 0x34
 3108 027a 00       		.byte	0
 3109 027b 03       		.uleb128 0x3
 3110 027c 0E       		.uleb128 0xe
 3111 027d 3A       		.uleb128 0x3a
 3112 027e 0B       		.uleb128 0xb
 3113 027f 3B       		.uleb128 0x3b
 3114 0280 0B       		.uleb128 0xb
 3115 0281 49       		.uleb128 0x49
 3116 0282 13       		.uleb128 0x13
 3117 0283 3F       		.uleb128 0x3f
 3118 0284 0C       		.uleb128 0xc
 3119 0285 02       		.uleb128 0x2
 3120 0286 0A       		.uleb128 0xa
 3121 0287 00       		.byte	0
ARM GAS  /var/folders/ng/s8655sgx1ys_4lf9jzm2w6n00000gn/T//cc3YYM13.s 			page 56


 3122 0288 00       		.byte	0
 3123 0289 2E       		.uleb128 0x2e
 3124 028a 21       		.uleb128 0x21
 3125 028b 00       		.byte	0
 3126 028c 49       		.uleb128 0x49
 3127 028d 13       		.uleb128 0x13
 3128 028e 2F       		.uleb128 0x2f
 3129 028f 05       		.uleb128 0x5
 3130 0290 00       		.byte	0
 3131 0291 00       		.byte	0
 3132 0292 2F       		.uleb128 0x2f
 3133 0293 2E       		.uleb128 0x2e
 3134 0294 01       		.byte	0x1
 3135 0295 3F       		.uleb128 0x3f
 3136 0296 0C       		.uleb128 0xc
 3137 0297 03       		.uleb128 0x3
 3138 0298 0E       		.uleb128 0xe
 3139 0299 3A       		.uleb128 0x3a
 3140 029a 0B       		.uleb128 0xb
 3141 029b 3B       		.uleb128 0x3b
 3142 029c 0B       		.uleb128 0xb
 3143 029d 27       		.uleb128 0x27
 3144 029e 0C       		.uleb128 0xc
 3145 029f 49       		.uleb128 0x49
 3146 02a0 13       		.uleb128 0x13
 3147 02a1 3C       		.uleb128 0x3c
 3148 02a2 0C       		.uleb128 0xc
 3149 02a3 01       		.uleb128 0x1
 3150 02a4 13       		.uleb128 0x13
 3151 02a5 00       		.byte	0
 3152 02a6 00       		.byte	0
 3153 02a7 30       		.uleb128 0x30
 3154 02a8 05       		.uleb128 0x5
 3155 02a9 00       		.byte	0
 3156 02aa 49       		.uleb128 0x49
 3157 02ab 13       		.uleb128 0x13
 3158 02ac 00       		.byte	0
 3159 02ad 00       		.byte	0
 3160 02ae 31       		.uleb128 0x31
 3161 02af 2E       		.uleb128 0x2e
 3162 02b0 00       		.byte	0
 3163 02b1 3F       		.uleb128 0x3f
 3164 02b2 0C       		.uleb128 0xc
 3165 02b3 03       		.uleb128 0x3
 3166 02b4 0E       		.uleb128 0xe
 3167 02b5 3A       		.uleb128 0x3a
 3168 02b6 0B       		.uleb128 0xb
 3169 02b7 3B       		.uleb128 0x3b
 3170 02b8 0B       		.uleb128 0xb
 3171 02b9 27       		.uleb128 0x27
 3172 02ba 0C       		.uleb128 0xc
 3173 02bb 3C       		.uleb128 0x3c
 3174 02bc 0C       		.uleb128 0xc
 3175 02bd 00       		.byte	0
 3176 02be 00       		.byte	0
 3177 02bf 00       		.byte	0
 3178              		.section	.debug_loc,"",%progbits
ARM GAS  /var/folders/ng/s8655sgx1ys_4lf9jzm2w6n00000gn/T//cc3YYM13.s 			page 57


 3179              	.Ldebug_loc0:
 3180              	.LLST0:
 3181 0000 00000000 		.4byte	.LFB121
 3182 0004 08000000 		.4byte	.LCFI0
 3183 0008 0200     		.2byte	0x2
 3184 000a 7D       		.byte	0x7d
 3185 000b 00       		.sleb128 0
 3186 000c 08000000 		.4byte	.LCFI0
 3187 0010 F0000000 		.4byte	.LFE121
 3188 0014 0200     		.2byte	0x2
 3189 0016 7D       		.byte	0x7d
 3190 0017 18       		.sleb128 24
 3191 0018 00000000 		.4byte	0
 3192 001c 00000000 		.4byte	0
 3193              	.LLST1:
 3194 0020 00000000 		.4byte	.LVL0
 3195 0024 14000000 		.4byte	.LVL1
 3196 0028 0100     		.2byte	0x1
 3197 002a 50       		.byte	0x50
 3198 002b 14000000 		.4byte	.LVL1
 3199 002f 74000000 		.4byte	.LVL2
 3200 0033 0400     		.2byte	0x4
 3201 0035 F3       		.byte	0xf3
 3202 0036 01       		.uleb128 0x1
 3203 0037 50       		.byte	0x50
 3204 0038 9F       		.byte	0x9f
 3205 0039 74000000 		.4byte	.LVL2
 3206 003d 76000000 		.4byte	.LVL3
 3207 0041 0100     		.2byte	0x1
 3208 0043 50       		.byte	0x50
 3209 0044 76000000 		.4byte	.LVL3
 3210 0048 F0000000 		.4byte	.LFE121
 3211 004c 0400     		.2byte	0x4
 3212 004e F3       		.byte	0xf3
 3213 004f 01       		.uleb128 0x1
 3214 0050 50       		.byte	0x50
 3215 0051 9F       		.byte	0x9f
 3216 0052 00000000 		.4byte	0
 3217 0056 00000000 		.4byte	0
 3218              	.LLST2:
 3219 005a 00000000 		.4byte	.LVL0
 3220 005e 7A000000 		.4byte	.LVL4
 3221 0062 0100     		.2byte	0x1
 3222 0064 51       		.byte	0x51
 3223 0065 7A000000 		.4byte	.LVL4
 3224 0069 80000000 		.4byte	.LVL5
 3225 006d 0400     		.2byte	0x4
 3226 006f F3       		.byte	0xf3
 3227 0070 01       		.uleb128 0x1
 3228 0071 51       		.byte	0x51
 3229 0072 9F       		.byte	0x9f
 3230 0073 80000000 		.4byte	.LVL5
 3231 0077 B7000000 		.4byte	.LVL6-1
 3232 007b 0100     		.2byte	0x1
 3233 007d 51       		.byte	0x51
 3234 007e B7000000 		.4byte	.LVL6-1
 3235 0082 F0000000 		.4byte	.LFE121
ARM GAS  /var/folders/ng/s8655sgx1ys_4lf9jzm2w6n00000gn/T//cc3YYM13.s 			page 58


 3236 0086 0400     		.2byte	0x4
 3237 0088 F3       		.byte	0xf3
 3238 0089 01       		.uleb128 0x1
 3239 008a 51       		.byte	0x51
 3240 008b 9F       		.byte	0x9f
 3241 008c 00000000 		.4byte	0
 3242 0090 00000000 		.4byte	0
 3243              	.LLST3:
 3244 0094 BC000000 		.4byte	.LVL7
 3245 0098 C4000000 		.4byte	.LVL8
 3246 009c 0100     		.2byte	0x1
 3247 009e 50       		.byte	0x50
 3248 009f C4000000 		.4byte	.LVL8
 3249 00a3 D0000000 		.4byte	.LVL10
 3250 00a7 0100     		.2byte	0x1
 3251 00a9 54       		.byte	0x54
 3252 00aa D2000000 		.4byte	.LVL11
 3253 00ae F0000000 		.4byte	.LFE121
 3254 00b2 0100     		.2byte	0x1
 3255 00b4 54       		.byte	0x54
 3256 00b5 00000000 		.4byte	0
 3257 00b9 00000000 		.4byte	0
 3258              	.LLST4:
 3259 00bd CA000000 		.4byte	.LVL9
 3260 00c1 D4000000 		.4byte	.LVL12
 3261 00c5 0100     		.2byte	0x1
 3262 00c7 50       		.byte	0x50
 3263 00c8 00000000 		.4byte	0
 3264 00cc 00000000 		.4byte	0
 3265              	.LLST5:
 3266 00d0 00000000 		.4byte	.LFB124
 3267 00d4 02000000 		.4byte	.LCFI1
 3268 00d8 0200     		.2byte	0x2
 3269 00da 7D       		.byte	0x7d
 3270 00db 00       		.sleb128 0
 3271 00dc 02000000 		.4byte	.LCFI1
 3272 00e0 88000000 		.4byte	.LFE124
 3273 00e4 0200     		.2byte	0x2
 3274 00e6 7D       		.byte	0x7d
 3275 00e7 10       		.sleb128 16
 3276 00e8 00000000 		.4byte	0
 3277 00ec 00000000 		.4byte	0
 3278              	.LLST6:
 3279 00f0 00000000 		.4byte	.LVL13
 3280 00f4 09000000 		.4byte	.LVL14-1
 3281 00f8 0100     		.2byte	0x1
 3282 00fa 50       		.byte	0x50
 3283 00fb 09000000 		.4byte	.LVL14-1
 3284 00ff 88000000 		.4byte	.LFE124
 3285 0103 0400     		.2byte	0x4
 3286 0105 F3       		.byte	0xf3
 3287 0106 01       		.uleb128 0x1
 3288 0107 50       		.byte	0x50
 3289 0108 9F       		.byte	0x9f
 3290 0109 00000000 		.4byte	0
 3291 010d 00000000 		.4byte	0
 3292              	.LLST7:
ARM GAS  /var/folders/ng/s8655sgx1ys_4lf9jzm2w6n00000gn/T//cc3YYM13.s 			page 59


 3293 0111 00000000 		.4byte	.LVL13
 3294 0115 09000000 		.4byte	.LVL14-1
 3295 0119 0100     		.2byte	0x1
 3296 011b 51       		.byte	0x51
 3297 011c 09000000 		.4byte	.LVL14-1
 3298 0120 88000000 		.4byte	.LFE124
 3299 0124 0100     		.2byte	0x1
 3300 0126 55       		.byte	0x55
 3301 0127 00000000 		.4byte	0
 3302 012b 00000000 		.4byte	0
 3303              	.LLST8:
 3304 012f 0A000000 		.4byte	.LVL14
 3305 0133 1E000000 		.4byte	.LVL17
 3306 0137 0100     		.2byte	0x1
 3307 0139 50       		.byte	0x50
 3308 013a 5E000000 		.4byte	.LVL22
 3309 013e 60000000 		.4byte	.LVL23
 3310 0142 0100     		.2byte	0x1
 3311 0144 50       		.byte	0x50
 3312 0145 7E000000 		.4byte	.LVL26
 3313 0149 80000000 		.4byte	.LVL27
 3314 014d 0100     		.2byte	0x1
 3315 014f 50       		.byte	0x50
 3316 0150 00000000 		.4byte	0
 3317 0154 00000000 		.4byte	0
 3318              	.LLST9:
 3319 0158 12000000 		.4byte	.LVL15
 3320 015c 1C000000 		.4byte	.LVL16
 3321 0160 0300     		.2byte	0x3
 3322 0162 72       		.byte	0x72
 3323 0163 7F       		.sleb128 -1
 3324 0164 9F       		.byte	0x9f
 3325 0165 1C000000 		.4byte	.LVL16
 3326 0169 4E000000 		.4byte	.LVL19
 3327 016d 0100     		.2byte	0x1
 3328 016f 53       		.byte	0x53
 3329 0170 4E000000 		.4byte	.LVL19
 3330 0174 54000000 		.4byte	.LVL20
 3331 0178 0300     		.2byte	0x3
 3332 017a 73       		.byte	0x73
 3333 017b 04       		.sleb128 4
 3334 017c 9F       		.byte	0x9f
 3335 017d 56000000 		.4byte	.LVL21
 3336 0181 5E000000 		.4byte	.LVL22
 3337 0185 0100     		.2byte	0x1
 3338 0187 53       		.byte	0x53
 3339 0188 5E000000 		.4byte	.LVL22
 3340 018c 62000000 		.4byte	.LVL24
 3341 0190 0300     		.2byte	0x3
 3342 0192 72       		.byte	0x72
 3343 0193 7F       		.sleb128 -1
 3344 0194 9F       		.byte	0x9f
 3345 0195 62000000 		.4byte	.LVL24
 3346 0199 64000000 		.4byte	.LVL25
 3347 019d 0100     		.2byte	0x1
 3348 019f 53       		.byte	0x53
 3349 01a0 00000000 		.4byte	0
ARM GAS  /var/folders/ng/s8655sgx1ys_4lf9jzm2w6n00000gn/T//cc3YYM13.s 			page 60


 3350 01a4 00000000 		.4byte	0
 3351              	.LLST10:
 3352 01a8 00000000 		.4byte	.LFB123
 3353 01ac 04000000 		.4byte	.LCFI2
 3354 01b0 0200     		.2byte	0x2
 3355 01b2 7D       		.byte	0x7d
 3356 01b3 00       		.sleb128 0
 3357 01b4 04000000 		.4byte	.LCFI2
 3358 01b8 06000000 		.4byte	.LCFI3
 3359 01bc 0200     		.2byte	0x2
 3360 01be 7D       		.byte	0x7d
 3361 01bf 1C       		.sleb128 28
 3362 01c0 06000000 		.4byte	.LCFI3
 3363 01c4 D8010000 		.4byte	.LFE123
 3364 01c8 0200     		.2byte	0x2
 3365 01ca 7D       		.byte	0x7d
 3366 01cb 28       		.sleb128 40
 3367 01cc 00000000 		.4byte	0
 3368 01d0 00000000 		.4byte	0
 3369              	.LLST11:
 3370 01d4 22000000 		.4byte	.LVL29
 3371 01d8 28000000 		.4byte	.LVL30
 3372 01dc 0200     		.2byte	0x2
 3373 01de 30       		.byte	0x30
 3374 01df 9F       		.byte	0x9f
 3375 01e0 00000000 		.4byte	0
 3376 01e4 00000000 		.4byte	0
 3377              	.LLST12:
 3378 01e8 66000000 		.4byte	.LVL32
 3379 01ec 68000000 		.4byte	.LVL33
 3380 01f0 0100     		.2byte	0x1
 3381 01f2 50       		.byte	0x50
 3382 01f3 0A010000 		.4byte	.LVL52
 3383 01f7 10010000 		.4byte	.LVL53
 3384 01fb 0100     		.2byte	0x1
 3385 01fd 50       		.byte	0x50
 3386 01fe 10010000 		.4byte	.LVL53
 3387 0202 1A010000 		.4byte	.LVL55
 3388 0206 0100     		.2byte	0x1
 3389 0208 54       		.byte	0x54
 3390 0209 A4010000 		.4byte	.LVL67
 3391 020d B8010000 		.4byte	.LVL70
 3392 0211 0100     		.2byte	0x1
 3393 0213 54       		.byte	0x54
 3394 0214 00000000 		.4byte	0
 3395 0218 00000000 		.4byte	0
 3396              	.LLST13:
 3397 021c 92000000 		.4byte	.LVL35
 3398 0220 0A010000 		.4byte	.LVL52
 3399 0224 0100     		.2byte	0x1
 3400 0226 59       		.byte	0x59
 3401 0227 1E010000 		.4byte	.LVL56
 3402 022b 48010000 		.4byte	.LVL60
 3403 022f 0100     		.2byte	0x1
 3404 0231 59       		.byte	0x59
 3405 0232 00000000 		.4byte	0
 3406 0236 00000000 		.4byte	0
ARM GAS  /var/folders/ng/s8655sgx1ys_4lf9jzm2w6n00000gn/T//cc3YYM13.s 			page 61


 3407              	.LLST14:
 3408 023a 92000000 		.4byte	.LVL35
 3409 023e 0A010000 		.4byte	.LVL52
 3410 0242 0100     		.2byte	0x1
 3411 0244 58       		.byte	0x58
 3412 0245 1E010000 		.4byte	.LVL56
 3413 0249 48010000 		.4byte	.LVL60
 3414 024d 0100     		.2byte	0x1
 3415 024f 58       		.byte	0x58
 3416 0250 00000000 		.4byte	0
 3417 0254 00000000 		.4byte	0
 3418              	.LLST15:
 3419 0258 92000000 		.4byte	.LVL35
 3420 025c 9A000000 		.4byte	.LVL36
 3421 0260 0200     		.2byte	0x2
 3422 0262 30       		.byte	0x30
 3423 0263 9F       		.byte	0x9f
 3424 0264 00000000 		.4byte	0
 3425 0268 00000000 		.4byte	0
 3426              	.LLST16:
 3427 026c 92000000 		.4byte	.LVL35
 3428 0270 9A000000 		.4byte	.LVL36
 3429 0274 0300     		.2byte	0x3
 3430 0276 09       		.byte	0x9
 3431 0277 FF       		.byte	0xff
 3432 0278 9F       		.byte	0x9f
 3433 0279 9A000000 		.4byte	.LVL36
 3434 027d C8000000 		.4byte	.LVL43
 3435 0281 0100     		.2byte	0x1
 3436 0283 56       		.byte	0x56
 3437 0284 D4000000 		.4byte	.LVL44
 3438 0288 08010000 		.4byte	.LVL51
 3439 028c 0100     		.2byte	0x1
 3440 028e 56       		.byte	0x56
 3441 028f 08010000 		.4byte	.LVL51
 3442 0293 0A010000 		.4byte	.LVL52
 3443 0297 0100     		.2byte	0x1
 3444 0299 57       		.byte	0x57
 3445 029a 1E010000 		.4byte	.LVL56
 3446 029e 48010000 		.4byte	.LVL60
 3447 02a2 0100     		.2byte	0x1
 3448 02a4 56       		.byte	0x56
 3449 02a5 00000000 		.4byte	0
 3450 02a9 00000000 		.4byte	0
 3451              	.LLST17:
 3452 02ad 68000000 		.4byte	.LVL33
 3453 02b1 70000000 		.4byte	.LVL34
 3454 02b5 0200     		.2byte	0x2
 3455 02b7 91       		.byte	0x91
 3456 02b8 5E       		.sleb128 -34
 3457 02b9 9A000000 		.4byte	.LVL36
 3458 02bd 0A010000 		.4byte	.LVL52
 3459 02c1 0200     		.2byte	0x2
 3460 02c3 91       		.byte	0x91
 3461 02c4 5E       		.sleb128 -34
 3462 02c5 1A010000 		.4byte	.LVL55
 3463 02c9 48010000 		.4byte	.LVL60
ARM GAS  /var/folders/ng/s8655sgx1ys_4lf9jzm2w6n00000gn/T//cc3YYM13.s 			page 62


 3464 02cd 0200     		.2byte	0x2
 3465 02cf 91       		.byte	0x91
 3466 02d0 5E       		.sleb128 -34
 3467 02d1 00000000 		.4byte	0
 3468 02d5 00000000 		.4byte	0
 3469              	.LLST18:
 3470 02d9 A0000000 		.4byte	.LVL37
 3471 02dd A6000000 		.4byte	.LVL38
 3472 02e1 0300     		.2byte	0x3
 3473 02e3 91       		.byte	0x91
 3474 02e4 5E       		.sleb128 -34
 3475 02e5 9F       		.byte	0x9f
 3476 02e6 A6000000 		.4byte	.LVL38
 3477 02ea A9000000 		.4byte	.LVL39-1
 3478 02ee 0100     		.2byte	0x1
 3479 02f0 51       		.byte	0x51
 3480 02f1 A9000000 		.4byte	.LVL39-1
 3481 02f5 C0000000 		.4byte	.LVL42
 3482 02f9 0300     		.2byte	0x3
 3483 02fb 91       		.byte	0x91
 3484 02fc 5E       		.sleb128 -34
 3485 02fd 9F       		.byte	0x9f
 3486 02fe DA000000 		.4byte	.LVL45
 3487 0302 E0000000 		.4byte	.LVL46
 3488 0306 0300     		.2byte	0x3
 3489 0308 91       		.byte	0x91
 3490 0309 5E       		.sleb128 -34
 3491 030a 9F       		.byte	0x9f
 3492 030b E0000000 		.4byte	.LVL46
 3493 030f E3000000 		.4byte	.LVL47-1
 3494 0313 0100     		.2byte	0x1
 3495 0315 51       		.byte	0x51
 3496 0316 E3000000 		.4byte	.LVL47-1
 3497 031a FA000000 		.4byte	.LVL50
 3498 031e 0300     		.2byte	0x3
 3499 0320 91       		.byte	0x91
 3500 0321 5E       		.sleb128 -34
 3501 0322 9F       		.byte	0x9f
 3502 0323 00000000 		.4byte	0
 3503 0327 00000000 		.4byte	0
 3504              	.LLST19:
 3505 032b DA000000 		.4byte	.LVL45
 3506 032f FA000000 		.4byte	.LVL50
 3507 0333 0100     		.2byte	0x1
 3508 0335 57       		.byte	0x57
 3509 0336 00000000 		.4byte	0
 3510 033a 00000000 		.4byte	0
 3511              	.LLST20:
 3512 033e B8000000 		.4byte	.LVL40
 3513 0342 BC000000 		.4byte	.LVL41
 3514 0346 0100     		.2byte	0x1
 3515 0348 50       		.byte	0x50
 3516 0349 F2000000 		.4byte	.LVL48
 3517 034d F6000000 		.4byte	.LVL49
 3518 0351 0100     		.2byte	0x1
 3519 0353 50       		.byte	0x50
 3520 0354 00000000 		.4byte	0
ARM GAS  /var/folders/ng/s8655sgx1ys_4lf9jzm2w6n00000gn/T//cc3YYM13.s 			page 63


 3521 0358 00000000 		.4byte	0
 3522              	.LLST21:
 3523 035c 3A010000 		.4byte	.LVL59
 3524 0360 48010000 		.4byte	.LVL60
 3525 0364 0100     		.2byte	0x1
 3526 0366 50       		.byte	0x50
 3527 0367 00000000 		.4byte	0
 3528 036b 00000000 		.4byte	0
 3529              	.LLST22:
 3530 036f 26010000 		.4byte	.LVL57
 3531 0373 32010000 		.4byte	.LVL58
 3532 0377 0100     		.2byte	0x1
 3533 0379 50       		.byte	0x50
 3534 037a 00000000 		.4byte	0
 3535 037e 00000000 		.4byte	0
 3536              	.LLST23:
 3537 0382 16010000 		.4byte	.LVL54
 3538 0386 1A010000 		.4byte	.LVL55
 3539 038a 0100     		.2byte	0x1
 3540 038c 50       		.byte	0x50
 3541 038d A4010000 		.4byte	.LVL67
 3542 0391 AA010000 		.4byte	.LVL68
 3543 0395 0100     		.2byte	0x1
 3544 0397 50       		.byte	0x50
 3545 0398 00000000 		.4byte	0
 3546 039c 00000000 		.4byte	0
 3547              	.LLST24:
 3548 03a0 5E010000 		.4byte	.LVL61
 3549 03a4 64010000 		.4byte	.LVL62
 3550 03a8 0100     		.2byte	0x1
 3551 03aa 50       		.byte	0x50
 3552 03ab 00000000 		.4byte	0
 3553 03af 00000000 		.4byte	0
 3554              	.LLST25:
 3555 03b3 78010000 		.4byte	.LVL63
 3556 03b7 84010000 		.4byte	.LVL64
 3557 03bb 0100     		.2byte	0x1
 3558 03bd 50       		.byte	0x50
 3559 03be 00000000 		.4byte	0
 3560 03c2 00000000 		.4byte	0
 3561              	.LLST26:
 3562 03c6 8E010000 		.4byte	.LVL65
 3563 03ca 9A010000 		.4byte	.LVL66
 3564 03ce 0100     		.2byte	0x1
 3565 03d0 50       		.byte	0x50
 3566 03d1 00000000 		.4byte	0
 3567 03d5 00000000 		.4byte	0
 3568              	.LLST27:
 3569 03d9 B0010000 		.4byte	.LVL69
 3570 03dd B8010000 		.4byte	.LVL70
 3571 03e1 0100     		.2byte	0x1
 3572 03e3 50       		.byte	0x50
 3573 03e4 00000000 		.4byte	0
 3574 03e8 00000000 		.4byte	0
 3575              	.LLST28:
 3576 03ec 00000000 		.4byte	.LFB122
 3577 03f0 04000000 		.4byte	.LCFI4
ARM GAS  /var/folders/ng/s8655sgx1ys_4lf9jzm2w6n00000gn/T//cc3YYM13.s 			page 64


 3578 03f4 0200     		.2byte	0x2
 3579 03f6 7D       		.byte	0x7d
 3580 03f7 00       		.sleb128 0
 3581 03f8 04000000 		.4byte	.LCFI4
 3582 03fc 08000000 		.4byte	.LCFI5
 3583 0400 0200     		.2byte	0x2
 3584 0402 7D       		.byte	0x7d
 3585 0403 1C       		.sleb128 28
 3586 0404 08000000 		.4byte	.LCFI5
 3587 0408 F0000000 		.4byte	.LFE122
 3588 040c 0200     		.2byte	0x2
 3589 040e 7D       		.byte	0x7d
 3590 040f 28       		.sleb128 40
 3591 0410 00000000 		.4byte	0
 3592 0414 00000000 		.4byte	0
 3593              	.LLST29:
 3594 0418 00000000 		.4byte	.LVL72
 3595 041c 21000000 		.4byte	.LVL74-1
 3596 0420 0100     		.2byte	0x1
 3597 0422 50       		.byte	0x50
 3598 0423 21000000 		.4byte	.LVL74-1
 3599 0427 F0000000 		.4byte	.LFE122
 3600 042b 0400     		.2byte	0x4
 3601 042d F3       		.byte	0xf3
 3602 042e 01       		.uleb128 0x1
 3603 042f 50       		.byte	0x50
 3604 0430 9F       		.byte	0x9f
 3605 0431 00000000 		.4byte	0
 3606 0435 00000000 		.4byte	0
 3607              	.LLST30:
 3608 0439 00000000 		.4byte	.LVL72
 3609 043d 21000000 		.4byte	.LVL74-1
 3610 0441 0100     		.2byte	0x1
 3611 0443 51       		.byte	0x51
 3612 0444 21000000 		.4byte	.LVL74-1
 3613 0448 F0000000 		.4byte	.LFE122
 3614 044c 0400     		.2byte	0x4
 3615 044e F3       		.byte	0xf3
 3616 044f 01       		.uleb128 0x1
 3617 0450 51       		.byte	0x51
 3618 0451 9F       		.byte	0x9f
 3619 0452 00000000 		.4byte	0
 3620 0456 00000000 		.4byte	0
 3621              	.LLST31:
 3622 045a 00000000 		.4byte	.LVL72
 3623 045e 12000000 		.4byte	.LVL73
 3624 0462 0200     		.2byte	0x2
 3625 0464 30       		.byte	0x30
 3626 0465 9F       		.byte	0x9f
 3627 0466 00000000 		.4byte	0
 3628 046a 00000000 		.4byte	0
 3629              	.LLST32:
 3630 046e 22000000 		.4byte	.LVL74
 3631 0472 36000000 		.4byte	.LVL75
 3632 0476 0100     		.2byte	0x1
 3633 0478 50       		.byte	0x50
 3634 0479 36000000 		.4byte	.LVL75
ARM GAS  /var/folders/ng/s8655sgx1ys_4lf9jzm2w6n00000gn/T//cc3YYM13.s 			page 65


 3635 047d 54000000 		.4byte	.LVL80
 3636 0481 0100     		.2byte	0x1
 3637 0483 57       		.byte	0x57
 3638 0484 54000000 		.4byte	.LVL80
 3639 0488 58000000 		.4byte	.LVL81
 3640 048c 0100     		.2byte	0x1
 3641 048e 50       		.byte	0x50
 3642 048f 58000000 		.4byte	.LVL81
 3643 0493 F0000000 		.4byte	.LFE122
 3644 0497 0100     		.2byte	0x1
 3645 0499 57       		.byte	0x57
 3646 049a 00000000 		.4byte	0
 3647 049e 00000000 		.4byte	0
 3648              	.LLST33:
 3649 04a2 3E000000 		.4byte	.LVL76
 3650 04a6 4C000000 		.4byte	.LVL79
 3651 04aa 0100     		.2byte	0x1
 3652 04ac 59       		.byte	0x59
 3653 04ad 58000000 		.4byte	.LVL81
 3654 04b1 F0000000 		.4byte	.LFE122
 3655 04b5 0100     		.2byte	0x1
 3656 04b7 59       		.byte	0x59
 3657 04b8 00000000 		.4byte	0
 3658 04bc 00000000 		.4byte	0
 3659              	.LLST34:
 3660 04c0 BA000000 		.4byte	.LVL97
 3661 04c4 C7000000 		.4byte	.LVL98-1
 3662 04c8 0100     		.2byte	0x1
 3663 04ca 53       		.byte	0x53
 3664 04cb C7000000 		.4byte	.LVL98-1
 3665 04cf F0000000 		.4byte	.LFE122
 3666 04d3 0100     		.2byte	0x1
 3667 04d5 54       		.byte	0x54
 3668 04d6 00000000 		.4byte	0
 3669 04da 00000000 		.4byte	0
 3670              	.LLST35:
 3671 04de DA000000 		.4byte	.LVL100
 3672 04e2 E0000000 		.4byte	.LVL101
 3673 04e6 0100     		.2byte	0x1
 3674 04e8 50       		.byte	0x50
 3675 04e9 00000000 		.4byte	0
 3676 04ed 00000000 		.4byte	0
 3677              	.LLST36:
 3678 04f1 4A000000 		.4byte	.LVL78
 3679 04f5 4C000000 		.4byte	.LVL79
 3680 04f9 0100     		.2byte	0x1
 3681 04fb 50       		.byte	0x50
 3682 04fc 58000000 		.4byte	.LVL81
 3683 0500 62000000 		.4byte	.LVL82
 3684 0504 0100     		.2byte	0x1
 3685 0506 50       		.byte	0x50
 3686 0507 62000000 		.4byte	.LVL82
 3687 050b 6E000000 		.4byte	.LVL85
 3688 050f 0100     		.2byte	0x1
 3689 0511 55       		.byte	0x55
 3690 0512 70000000 		.4byte	.LVL86
 3691 0516 F0000000 		.4byte	.LFE122
ARM GAS  /var/folders/ng/s8655sgx1ys_4lf9jzm2w6n00000gn/T//cc3YYM13.s 			page 66


 3692 051a 0100     		.2byte	0x1
 3693 051c 55       		.byte	0x55
 3694 051d 00000000 		.4byte	0
 3695 0521 00000000 		.4byte	0
 3696              	.LLST37:
 3697 0525 68000000 		.4byte	.LVL83
 3698 0529 6C000000 		.4byte	.LVL84
 3699 052d 0100     		.2byte	0x1
 3700 052f 50       		.byte	0x50
 3701 0530 70000000 		.4byte	.LVL86
 3702 0534 72000000 		.4byte	.LVL87
 3703 0538 0100     		.2byte	0x1
 3704 053a 50       		.byte	0x50
 3705 053b 00000000 		.4byte	0
 3706 053f 00000000 		.4byte	0
 3707              	.LLST38:
 3708 0543 4C000000 		.4byte	.LVL79
 3709 0547 54000000 		.4byte	.LVL80
 3710 054b 0200     		.2byte	0x2
 3711 054d 91       		.byte	0x91
 3712 054e 5E       		.sleb128 -34
 3713 054f 6C000000 		.4byte	.LVL84
 3714 0553 70000000 		.4byte	.LVL86
 3715 0557 0200     		.2byte	0x2
 3716 0559 91       		.byte	0x91
 3717 055a 5E       		.sleb128 -34
 3718 055b 72000000 		.4byte	.LVL87
 3719 055f F0000000 		.4byte	.LFE122
 3720 0563 0200     		.2byte	0x2
 3721 0565 91       		.byte	0x91
 3722 0566 5E       		.sleb128 -34
 3723 0567 00000000 		.4byte	0
 3724 056b 00000000 		.4byte	0
 3725              	.LLST39:
 3726 056f 72000000 		.4byte	.LVL87
 3727 0573 78000000 		.4byte	.LVL88
 3728 0577 0300     		.2byte	0x3
 3729 0579 91       		.byte	0x91
 3730 057a 5E       		.sleb128 -34
 3731 057b 9F       		.byte	0x9f
 3732 057c 78000000 		.4byte	.LVL88
 3733 0580 7F000000 		.4byte	.LVL89-1
 3734 0584 0100     		.2byte	0x1
 3735 0586 51       		.byte	0x51
 3736 0587 7F000000 		.4byte	.LVL89-1
 3737 058b 9C000000 		.4byte	.LVL93
 3738 058f 0300     		.2byte	0x3
 3739 0591 91       		.byte	0x91
 3740 0592 5E       		.sleb128 -34
 3741 0593 9F       		.byte	0x9f
 3742 0594 9C000000 		.4byte	.LVL93
 3743 0598 A3000000 		.4byte	.LVL94-1
 3744 059c 0100     		.2byte	0x1
 3745 059e 51       		.byte	0x51
 3746 059f A3000000 		.4byte	.LVL94-1
 3747 05a3 F0000000 		.4byte	.LFE122
 3748 05a7 0300     		.2byte	0x3
ARM GAS  /var/folders/ng/s8655sgx1ys_4lf9jzm2w6n00000gn/T//cc3YYM13.s 			page 67


 3749 05a9 91       		.byte	0x91
 3750 05aa 5E       		.sleb128 -34
 3751 05ab 9F       		.byte	0x9f
 3752 05ac 00000000 		.4byte	0
 3753 05b0 00000000 		.4byte	0
 3754              	.LLST40:
 3755 05b4 72000000 		.4byte	.LVL87
 3756 05b8 92000000 		.4byte	.LVL91
 3757 05bc 0100     		.2byte	0x1
 3758 05be 54       		.byte	0x54
 3759 05bf 00000000 		.4byte	0
 3760 05c3 00000000 		.4byte	0
 3761              	.LLST41:
 3762 05c7 8E000000 		.4byte	.LVL90
 3763 05cb 92000000 		.4byte	.LVL91
 3764 05cf 0100     		.2byte	0x1
 3765 05d1 50       		.byte	0x50
 3766 05d2 B2000000 		.4byte	.LVL95
 3767 05d6 B6000000 		.4byte	.LVL96
 3768 05da 0100     		.2byte	0x1
 3769 05dc 50       		.byte	0x50
 3770 05dd 00000000 		.4byte	0
 3771 05e1 00000000 		.4byte	0
 3772              	.LLST42:
 3773 05e5 C8000000 		.4byte	.LVL98
 3774 05e9 D6000000 		.4byte	.LVL99
 3775 05ed 0100     		.2byte	0x1
 3776 05ef 50       		.byte	0x50
 3777 05f0 00000000 		.4byte	0
 3778 05f4 00000000 		.4byte	0
 3779              	.LLST43:
 3780 05f8 00000000 		.4byte	.LFB125
 3781 05fc 02000000 		.4byte	.LCFI6
 3782 0600 0200     		.2byte	0x2
 3783 0602 7D       		.byte	0x7d
 3784 0603 00       		.sleb128 0
 3785 0604 02000000 		.4byte	.LCFI6
 3786 0608 1C000000 		.4byte	.LFE125
 3787 060c 0200     		.2byte	0x2
 3788 060e 7D       		.byte	0x7d
 3789 060f 10       		.sleb128 16
 3790 0610 00000000 		.4byte	0
 3791 0614 00000000 		.4byte	0
 3792              	.LLST44:
 3793 0618 00000000 		.4byte	.LVL102
 3794 061c 09000000 		.4byte	.LVL103-1
 3795 0620 0100     		.2byte	0x1
 3796 0622 50       		.byte	0x50
 3797 0623 09000000 		.4byte	.LVL103-1
 3798 0627 1C000000 		.4byte	.LFE125
 3799 062b 0400     		.2byte	0x4
 3800 062d F3       		.byte	0xf3
 3801 062e 01       		.uleb128 0x1
 3802 062f 50       		.byte	0x50
 3803 0630 9F       		.byte	0x9f
 3804 0631 00000000 		.4byte	0
 3805 0635 00000000 		.4byte	0
ARM GAS  /var/folders/ng/s8655sgx1ys_4lf9jzm2w6n00000gn/T//cc3YYM13.s 			page 68


 3806              	.LLST45:
 3807 0639 00000000 		.4byte	.LVL102
 3808 063d 09000000 		.4byte	.LVL103-1
 3809 0641 0100     		.2byte	0x1
 3810 0643 51       		.byte	0x51
 3811 0644 09000000 		.4byte	.LVL103-1
 3812 0648 1C000000 		.4byte	.LFE125
 3813 064c 0400     		.2byte	0x4
 3814 064e F3       		.byte	0xf3
 3815 064f 01       		.uleb128 0x1
 3816 0650 51       		.byte	0x51
 3817 0651 9F       		.byte	0x9f
 3818 0652 00000000 		.4byte	0
 3819 0656 00000000 		.4byte	0
 3820              	.LLST46:
 3821 065a 0A000000 		.4byte	.LVL103
 3822 065e 0E000000 		.4byte	.LVL104
 3823 0662 0100     		.2byte	0x1
 3824 0664 50       		.byte	0x50
 3825 0665 10000000 		.4byte	.LVL105
 3826 0669 12000000 		.4byte	.LVL106
 3827 066d 0100     		.2byte	0x1
 3828 066f 50       		.byte	0x50
 3829 0670 00000000 		.4byte	0
 3830 0674 00000000 		.4byte	0
 3831              	.LLST47:
 3832 0678 00000000 		.4byte	.LVL108
 3833 067c 04000000 		.4byte	.LVL109
 3834 0680 0100     		.2byte	0x1
 3835 0682 50       		.byte	0x50
 3836 0683 04000000 		.4byte	.LVL109
 3837 0687 08000000 		.4byte	.LFE126
 3838 068b 0400     		.2byte	0x4
 3839 068d F3       		.byte	0xf3
 3840 068e 01       		.uleb128 0x1
 3841 068f 50       		.byte	0x50
 3842 0690 9F       		.byte	0x9f
 3843 0691 00000000 		.4byte	0
 3844 0695 00000000 		.4byte	0
 3845              	.LLST48:
 3846 0699 00000000 		.4byte	.LVL108
 3847 069d 07000000 		.4byte	.LVL110-1
 3848 06a1 0100     		.2byte	0x1
 3849 06a3 51       		.byte	0x51
 3850 06a4 07000000 		.4byte	.LVL110-1
 3851 06a8 08000000 		.4byte	.LFE126
 3852 06ac 0400     		.2byte	0x4
 3853 06ae F3       		.byte	0xf3
 3854 06af 01       		.uleb128 0x1
 3855 06b0 51       		.byte	0x51
 3856 06b1 9F       		.byte	0x9f
 3857 06b2 00000000 		.4byte	0
 3858 06b6 00000000 		.4byte	0
 3859              	.LLST49:
 3860 06ba 00000000 		.4byte	.LVL111
 3861 06be 04000000 		.4byte	.LVL112
 3862 06c2 0100     		.2byte	0x1
ARM GAS  /var/folders/ng/s8655sgx1ys_4lf9jzm2w6n00000gn/T//cc3YYM13.s 			page 69


 3863 06c4 50       		.byte	0x50
 3864 06c5 04000000 		.4byte	.LVL112
 3865 06c9 08000000 		.4byte	.LFE127
 3866 06cd 0400     		.2byte	0x4
 3867 06cf F3       		.byte	0xf3
 3868 06d0 01       		.uleb128 0x1
 3869 06d1 50       		.byte	0x50
 3870 06d2 9F       		.byte	0x9f
 3871 06d3 00000000 		.4byte	0
 3872 06d7 00000000 		.4byte	0
 3873              	.LLST50:
 3874 06db 00000000 		.4byte	.LVL111
 3875 06df 07000000 		.4byte	.LVL113-1
 3876 06e3 0100     		.2byte	0x1
 3877 06e5 51       		.byte	0x51
 3878 06e6 07000000 		.4byte	.LVL113-1
 3879 06ea 08000000 		.4byte	.LFE127
 3880 06ee 0400     		.2byte	0x4
 3881 06f0 F3       		.byte	0xf3
 3882 06f1 01       		.uleb128 0x1
 3883 06f2 51       		.byte	0x51
 3884 06f3 9F       		.byte	0x9f
 3885 06f4 00000000 		.4byte	0
 3886 06f8 00000000 		.4byte	0
 3887              	.LLST51:
 3888 06fc 00000000 		.4byte	.LVL114
 3889 0700 03000000 		.4byte	.LVL115-1
 3890 0704 0100     		.2byte	0x1
 3891 0706 50       		.byte	0x50
 3892 0707 03000000 		.4byte	.LVL115-1
 3893 070b 04000000 		.4byte	.LFE128
 3894 070f 0400     		.2byte	0x4
 3895 0711 F3       		.byte	0xf3
 3896 0712 01       		.uleb128 0x1
 3897 0713 50       		.byte	0x50
 3898 0714 9F       		.byte	0x9f
 3899 0715 00000000 		.4byte	0
 3900 0719 00000000 		.4byte	0
 3901              	.LLST52:
 3902 071d 00000000 		.4byte	.LVL114
 3903 0721 03000000 		.4byte	.LVL115-1
 3904 0725 0100     		.2byte	0x1
 3905 0727 51       		.byte	0x51
 3906 0728 03000000 		.4byte	.LVL115-1
 3907 072c 04000000 		.4byte	.LFE128
 3908 0730 0400     		.2byte	0x4
 3909 0732 F3       		.byte	0xf3
 3910 0733 01       		.uleb128 0x1
 3911 0734 51       		.byte	0x51
 3912 0735 9F       		.byte	0x9f
 3913 0736 00000000 		.4byte	0
 3914 073a 00000000 		.4byte	0
 3915              	.LLST53:
 3916 073e 00000000 		.4byte	.LVL116
 3917 0742 03000000 		.4byte	.LVL117-1
 3918 0746 0100     		.2byte	0x1
 3919 0748 50       		.byte	0x50
ARM GAS  /var/folders/ng/s8655sgx1ys_4lf9jzm2w6n00000gn/T//cc3YYM13.s 			page 70


 3920 0749 03000000 		.4byte	.LVL117-1
 3921 074d 04000000 		.4byte	.LFE129
 3922 0751 0400     		.2byte	0x4
 3923 0753 F3       		.byte	0xf3
 3924 0754 01       		.uleb128 0x1
 3925 0755 50       		.byte	0x50
 3926 0756 9F       		.byte	0x9f
 3927 0757 00000000 		.4byte	0
 3928 075b 00000000 		.4byte	0
 3929              	.LLST54:
 3930 075f 00000000 		.4byte	.LVL116
 3931 0763 03000000 		.4byte	.LVL117-1
 3932 0767 0100     		.2byte	0x1
 3933 0769 51       		.byte	0x51
 3934 076a 03000000 		.4byte	.LVL117-1
 3935 076e 04000000 		.4byte	.LFE129
 3936 0772 0400     		.2byte	0x4
 3937 0774 F3       		.byte	0xf3
 3938 0775 01       		.uleb128 0x1
 3939 0776 51       		.byte	0x51
 3940 0777 9F       		.byte	0x9f
 3941 0778 00000000 		.4byte	0
 3942 077c 00000000 		.4byte	0
 3943              		.section	.debug_aranges,"",%progbits
 3944 0000 6C000000 		.4byte	0x6c
 3945 0004 0200     		.2byte	0x2
 3946 0006 00000000 		.4byte	.Ldebug_info0
 3947 000a 04       		.byte	0x4
 3948 000b 00       		.byte	0
 3949 000c 0000     		.2byte	0
 3950 000e 0000     		.2byte	0
 3951 0010 00000000 		.4byte	.LFB119
 3952 0014 18000000 		.4byte	.LFE119-.LFB119
 3953 0018 00000000 		.4byte	.LFB120
 3954 001c 38000000 		.4byte	.LFE120-.LFB120
 3955 0020 00000000 		.4byte	.LFB121
 3956 0024 F0000000 		.4byte	.LFE121-.LFB121
 3957 0028 00000000 		.4byte	.LFB124
 3958 002c 88000000 		.4byte	.LFE124-.LFB124
 3959 0030 00000000 		.4byte	.LFB123
 3960 0034 D8010000 		.4byte	.LFE123-.LFB123
 3961 0038 00000000 		.4byte	.LFB122
 3962 003c F0000000 		.4byte	.LFE122-.LFB122
 3963 0040 00000000 		.4byte	.LFB125
 3964 0044 1C000000 		.4byte	.LFE125-.LFB125
 3965 0048 00000000 		.4byte	.LFB126
 3966 004c 08000000 		.4byte	.LFE126-.LFB126
 3967 0050 00000000 		.4byte	.LFB127
 3968 0054 08000000 		.4byte	.LFE127-.LFB127
 3969 0058 00000000 		.4byte	.LFB128
 3970 005c 04000000 		.4byte	.LFE128-.LFB128
 3971 0060 00000000 		.4byte	.LFB129
 3972 0064 04000000 		.4byte	.LFE129-.LFB129
 3973 0068 00000000 		.4byte	0
 3974 006c 00000000 		.4byte	0
 3975              		.section	.debug_ranges,"",%progbits
 3976              	.Ldebug_ranges0:
ARM GAS  /var/folders/ng/s8655sgx1ys_4lf9jzm2w6n00000gn/T//cc3YYM13.s 			page 71


 3977 0000 00000000 		.4byte	.LBB32
 3978 0004 04000000 		.4byte	.LBE32
 3979 0008 0A000000 		.4byte	.LBB37
 3980 000c 20000000 		.4byte	.LBE37
 3981 0010 74000000 		.4byte	.LBB38
 3982 0014 7A000000 		.4byte	.LBE38
 3983 0018 98000000 		.4byte	.LBB39
 3984 001c AA000000 		.4byte	.LBE39
 3985 0020 00000000 		.4byte	0
 3986 0024 00000000 		.4byte	0
 3987 0028 58000000 		.4byte	.LBB42
 3988 002c 68000000 		.4byte	.LBE42
 3989 0030 0A010000 		.4byte	.LBB57
 3990 0034 0C010000 		.4byte	.LBE57
 3991 0038 10010000 		.4byte	.LBB59
 3992 003c 12010000 		.4byte	.LBE59
 3993 0040 00000000 		.4byte	0
 3994 0044 00000000 		.4byte	0
 3995 0048 82000000 		.4byte	.LBB43
 3996 004c 0A010000 		.4byte	.LBE43
 3997 0050 1A010000 		.4byte	.LBB61
 3998 0054 54010000 		.4byte	.LBE61
 3999 0058 00000000 		.4byte	0
 4000 005c 00000000 		.4byte	0
 4001 0060 A0000000 		.4byte	.LBB44
 4002 0064 C2000000 		.4byte	.LBE44
 4003 0068 DA000000 		.4byte	.LBB51
 4004 006c FA000000 		.4byte	.LBE51
 4005 0070 00000000 		.4byte	0
 4006 0074 00000000 		.4byte	0
 4007 0078 A0000000 		.4byte	.LBB45
 4008 007c AA000000 		.4byte	.LBE45
 4009 0080 DA000000 		.4byte	.LBB49
 4010 0084 E4000000 		.4byte	.LBE49
 4011 0088 00000000 		.4byte	0
 4012 008c 00000000 		.4byte	0
 4013 0090 AE000000 		.4byte	.LBB48
 4014 0094 C2000000 		.4byte	.LBE48
 4015 0098 E8000000 		.4byte	.LBB50
 4016 009c FA000000 		.4byte	.LBE50
 4017 00a0 00000000 		.4byte	0
 4018 00a4 00000000 		.4byte	0
 4019 00a8 1A010000 		.4byte	.LBB52
 4020 00ac 1E010000 		.4byte	.LBE52
 4021 00b0 2C010000 		.4byte	.LBB54
 4022 00b4 32010000 		.4byte	.LBE54
 4023 00b8 36010000 		.4byte	.LBB56
 4024 00bc 48010000 		.4byte	.LBE56
 4025 00c0 00000000 		.4byte	0
 4026 00c4 00000000 		.4byte	0
 4027 00c8 1E010000 		.4byte	.LBB53
 4028 00cc 2C010000 		.4byte	.LBE53
 4029 00d0 32010000 		.4byte	.LBB55
 4030 00d4 36010000 		.4byte	.LBE55
 4031 00d8 00000000 		.4byte	0
 4032 00dc 00000000 		.4byte	0
 4033 00e0 0C010000 		.4byte	.LBB58
ARM GAS  /var/folders/ng/s8655sgx1ys_4lf9jzm2w6n00000gn/T//cc3YYM13.s 			page 72


 4034 00e4 10010000 		.4byte	.LBE58
 4035 00e8 12010000 		.4byte	.LBB60
 4036 00ec 1A010000 		.4byte	.LBE60
 4037 00f0 A4010000 		.4byte	.LBB70
 4038 00f4 A6010000 		.4byte	.LBE70
 4039 00f8 AA010000 		.4byte	.LBB72
 4040 00fc AC010000 		.4byte	.LBE72
 4041 0100 00000000 		.4byte	0
 4042 0104 00000000 		.4byte	0
 4043 0108 54010000 		.4byte	.LBB62
 4044 010c 62010000 		.4byte	.LBE62
 4045 0110 68010000 		.4byte	.LBB63
 4046 0114 6A010000 		.4byte	.LBE63
 4047 0118 6C010000 		.4byte	.LBB64
 4048 011c 6E010000 		.4byte	.LBE64
 4049 0120 00000000 		.4byte	0
 4050 0124 00000000 		.4byte	0
 4051 0128 70010000 		.4byte	.LBB65
 4052 012c 84010000 		.4byte	.LBE65
 4053 0130 A0010000 		.4byte	.LBB69
 4054 0134 A4010000 		.4byte	.LBE69
 4055 0138 00000000 		.4byte	0
 4056 013c 00000000 		.4byte	0
 4057 0140 84010000 		.4byte	.LBB66
 4058 0144 92010000 		.4byte	.LBE66
 4059 0148 98010000 		.4byte	.LBB67
 4060 014c 9A010000 		.4byte	.LBE67
 4061 0150 9C010000 		.4byte	.LBB68
 4062 0154 9E010000 		.4byte	.LBE68
 4063 0158 00000000 		.4byte	0
 4064 015c 00000000 		.4byte	0
 4065 0160 A6010000 		.4byte	.LBB71
 4066 0164 AA010000 		.4byte	.LBE71
 4067 0168 AC010000 		.4byte	.LBB73
 4068 016c B6010000 		.4byte	.LBE73
 4069 0170 00000000 		.4byte	0
 4070 0174 00000000 		.4byte	0
 4071 0178 0C000000 		.4byte	.LBB75
 4072 017c 10000000 		.4byte	.LBE75
 4073 0180 6C000000 		.4byte	.LBB80
 4074 0184 70000000 		.4byte	.LBE80
 4075 0188 CE000000 		.4byte	.LBB99
 4076 018c D0000000 		.4byte	.LBE99
 4077 0190 D2000000 		.4byte	.LBB101
 4078 0194 E4000000 		.4byte	.LBE101
 4079 0198 00000000 		.4byte	0
 4080 019c 00000000 		.4byte	0
 4081 01a0 2E000000 		.4byte	.LBB76
 4082 01a4 32000000 		.4byte	.LBE76
 4083 01a8 3E000000 		.4byte	.LBB77
 4084 01ac 4C000000 		.4byte	.LBE77
 4085 01b0 58000000 		.4byte	.LBB78
 4086 01b4 60000000 		.4byte	.LBE78
 4087 01b8 00000000 		.4byte	0
 4088 01bc 00000000 		.4byte	0
 4089 01c0 60000000 		.4byte	.LBB79
 4090 01c4 6C000000 		.4byte	.LBE79
ARM GAS  /var/folders/ng/s8655sgx1ys_4lf9jzm2w6n00000gn/T//cc3YYM13.s 			page 73


 4091 01c8 70000000 		.4byte	.LBB81
 4092 01cc 72000000 		.4byte	.LBE81
 4093 01d0 00000000 		.4byte	0
 4094 01d4 00000000 		.4byte	0
 4095 01d8 74000000 		.4byte	.LBB82
 4096 01dc 7A000000 		.4byte	.LBE82
 4097 01e0 7C000000 		.4byte	.LBB95
 4098 01e4 92000000 		.4byte	.LBE95
 4099 01e8 98000000 		.4byte	.LBB96
 4100 01ec 9E000000 		.4byte	.LBE96
 4101 01f0 A0000000 		.4byte	.LBB97
 4102 01f4 B6000000 		.4byte	.LBE97
 4103 01f8 00000000 		.4byte	0
 4104 01fc 00000000 		.4byte	0
 4105 0200 74000000 		.4byte	.LBB83
 4106 0204 7A000000 		.4byte	.LBE83
 4107 0208 7C000000 		.4byte	.LBB88
 4108 020c 80000000 		.4byte	.LBE88
 4109 0210 98000000 		.4byte	.LBB91
 4110 0214 9E000000 		.4byte	.LBE91
 4111 0218 A0000000 		.4byte	.LBB92
 4112 021c A4000000 		.4byte	.LBE92
 4113 0220 00000000 		.4byte	0
 4114 0224 00000000 		.4byte	0
 4115 0228 82000000 		.4byte	.LBB89
 4116 022c 84000000 		.4byte	.LBE89
 4117 0230 86000000 		.4byte	.LBB90
 4118 0234 92000000 		.4byte	.LBE90
 4119 0238 A6000000 		.4byte	.LBB93
 4120 023c A8000000 		.4byte	.LBE93
 4121 0240 AA000000 		.4byte	.LBB94
 4122 0244 B6000000 		.4byte	.LBE94
 4123 0248 00000000 		.4byte	0
 4124 024c 00000000 		.4byte	0
 4125 0250 C0000000 		.4byte	.LBB98
 4126 0254 CE000000 		.4byte	.LBE98
 4127 0258 D0000000 		.4byte	.LBB100
 4128 025c D2000000 		.4byte	.LBE100
 4129 0260 00000000 		.4byte	0
 4130 0264 00000000 		.4byte	0
 4131 0268 00000000 		.4byte	.LFB119
 4132 026c 18000000 		.4byte	.LFE119
 4133 0270 00000000 		.4byte	.LFB120
 4134 0274 38000000 		.4byte	.LFE120
 4135 0278 00000000 		.4byte	.LFB121
 4136 027c F0000000 		.4byte	.LFE121
 4137 0280 00000000 		.4byte	.LFB124
 4138 0284 88000000 		.4byte	.LFE124
 4139 0288 00000000 		.4byte	.LFB123
 4140 028c D8010000 		.4byte	.LFE123
 4141 0290 00000000 		.4byte	.LFB122
 4142 0294 F0000000 		.4byte	.LFE122
 4143 0298 00000000 		.4byte	.LFB125
 4144 029c 1C000000 		.4byte	.LFE125
 4145 02a0 00000000 		.4byte	.LFB126
 4146 02a4 08000000 		.4byte	.LFE126
 4147 02a8 00000000 		.4byte	.LFB127
ARM GAS  /var/folders/ng/s8655sgx1ys_4lf9jzm2w6n00000gn/T//cc3YYM13.s 			page 74


 4148 02ac 08000000 		.4byte	.LFE127
 4149 02b0 00000000 		.4byte	.LFB128
 4150 02b4 04000000 		.4byte	.LFE128
 4151 02b8 00000000 		.4byte	.LFB129
 4152 02bc 04000000 		.4byte	.LFE129
 4153 02c0 00000000 		.4byte	0
 4154 02c4 00000000 		.4byte	0
 4155              		.section	.debug_line,"",%progbits
 4156              	.Ldebug_line0:
 4157 0000 92030000 		.section	.debug_str,"MS",%progbits,1
 4157      0200EC00 
 4157      00000201 
 4157      FB0E0D00 
 4157      01010101 
 4158              	.LASF26:
 4159 0000 70616765 		.ascii	"pageNum\000"
 4159      4E756D00 
 4160              	.LASF29:
 4161 0008 73746174 		.ascii	"state\000"
 4161      6500
 4162              	.LASF5:
 4163 000e 73686F72 		.ascii	"short int\000"
 4163      7420696E 
 4163      7400
 4164              	.LASF58:
 4165 0018 464C4153 		.ascii	"FLASH_EraseSector\000"
 4165      485F4572 
 4165      61736553 
 4165      6563746F 
 4165      7200
 4166              	.LASF15:
 4167 002a 73697A65 		.ascii	"sizetype\000"
 4167      74797065 
 4167      00
 4168              	.LASF35:
 4169 0033 56697274 		.ascii	"VirtAddress\000"
 4169      41646472 
 4169      65737300 
 4170              	.LASF45:
 4171 003f 6E657750 		.ascii	"newPage\000"
 4171      61676500 
 4172              	.LASF32:
 4173 0047 5F676574 		.ascii	"_getWritePage\000"
 4173      57726974 
 4173      65506167 
 4173      6500
 4174              	.LASF47:
 4175 0055 5F777269 		.ascii	"_write\000"
 4175      746500
 4176              	.LASF39:
 4177 005c 5F5F7374 		.ascii	"__status\000"
 4177      61747573 
 4177      00
 4178              	.LASF56:
 4179 0065 65655F67 		.ascii	"ee_get\000"
 4179      657400
 4180              	.LASF21:
ARM GAS  /var/folders/ng/s8655sgx1ys_4lf9jzm2w6n00000gn/T//cc3YYM13.s 			page 75


 4181 006c 464C4153 		.ascii	"FLASH_ERROR_WRP\000"
 4181      485F4552 
 4181      524F525F 
 4181      57525000 
 4182              	.LASF62:
 4183 007c 464C4153 		.ascii	"FLASH_Unlock\000"
 4183      485F556E 
 4183      6C6F636B 
 4183      00
 4184              	.LASF3:
 4185 0089 75696E74 		.ascii	"uint8_t\000"
 4185      385F7400 
 4186              	.LASF25:
 4187 0091 464C4153 		.ascii	"FLASH_Status\000"
 4187      485F5374 
 4187      61747573 
 4187      00
 4188              	.LASF28:
 4189 009e 73656374 		.ascii	"sector\000"
 4189      6F7200
 4190              	.LASF61:
 4191 00a5 2F557365 		.ascii	"/Users/jseng/aithon/DemoMode\000"
 4191      72732F6A 
 4191      73656E67 
 4191      2F616974 
 4191      686F6E2F 
 4192              	.LASF55:
 4193 00c2 5F616464 		.ascii	"_addrMap\000"
 4193      724D6170 
 4193      00
 4194              	.LASF12:
 4195 00cb 6C6F6E67 		.ascii	"long long int\000"
 4195      206C6F6E 
 4195      6720696E 
 4195      7400
 4196              	.LASF37:
 4197 00d9 70616765 		.ascii	"page\000"
 4197      00
 4198              	.LASF9:
 4199 00de 6C6F6E67 		.ascii	"long int\000"
 4199      20696E74 
 4199      00
 4200              	.LASF30:
 4201 00e7 50616765 		.ascii	"PageInfo\000"
 4201      496E666F 
 4201      00
 4202              	.LASF51:
 4203 00f0 5F65655F 		.ascii	"_ee_putReserved\000"
 4203      70757452 
 4203      65736572 
 4203      76656400 
 4204              	.LASF23:
 4205 0100 464C4153 		.ascii	"FLASH_ERROR_OPERATION\000"
 4205      485F4552 
 4205      524F525F 
 4205      4F504552 
 4205      4154494F 
ARM GAS  /var/folders/ng/s8655sgx1ys_4lf9jzm2w6n00000gn/T//cc3YYM13.s 			page 76


 4206              	.LASF52:
 4207 0116 65655F70 		.ascii	"ee_put\000"
 4207      757400
 4208              	.LASF36:
 4209 011d 44617461 		.ascii	"Data\000"
 4209      00
 4210              	.LASF44:
 4211 0122 6F6C6450 		.ascii	"oldPage\000"
 4211      61676500 
 4212              	.LASF2:
 4213 012a 756E7369 		.ascii	"unsigned char\000"
 4213      676E6564 
 4213      20636861 
 4213      7200
 4214              	.LASF41:
 4215 0138 5F726561 		.ascii	"_read\000"
 4215      6400
 4216              	.LASF1:
 4217 013e 7369676E 		.ascii	"signed char\000"
 4217      65642063 
 4217      68617200 
 4218              	.LASF33:
 4219 014a 76697274 		.ascii	"virtAddr\000"
 4219      41646472 
 4219      00
 4220              	.LASF13:
 4221 0153 6C6F6E67 		.ascii	"long long unsigned int\000"
 4221      206C6F6E 
 4221      6720756E 
 4221      7369676E 
 4221      65642069 
 4222              	.LASF10:
 4223 016a 75696E74 		.ascii	"uint32_t\000"
 4223      33325F74 
 4223      00
 4224              	.LASF0:
 4225 0173 756E7369 		.ascii	"unsigned int\000"
 4225      676E6564 
 4225      20696E74 
 4225      00
 4226              	.LASF24:
 4227 0180 464C4153 		.ascii	"FLASH_COMPLETE\000"
 4227      485F434F 
 4227      4D504C45 
 4227      544500
 4228              	.LASF6:
 4229 018f 75696E74 		.ascii	"uint16_t\000"
 4229      31365F74 
 4229      00
 4230              	.LASF54:
 4231 0198 5F706167 		.ascii	"_pages\000"
 4231      657300
 4232              	.LASF27:
 4233 019f 73746172 		.ascii	"start\000"
 4233      7400
 4234              	.LASF7:
 4235 01a5 73686F72 		.ascii	"short unsigned int\000"
ARM GAS  /var/folders/ng/s8655sgx1ys_4lf9jzm2w6n00000gn/T//cc3YYM13.s 			page 77


 4235      7420756E 
 4235      7369676E 
 4235      65642069 
 4235      6E7400
 4236              	.LASF31:
 4237 01b8 5F676574 		.ascii	"_getReadPage\000"
 4237      52656164 
 4237      50616765 
 4237      00
 4238              	.LASF48:
 4239 01c5 73746174 		.ascii	"status\000"
 4239      757300
 4240              	.LASF49:
 4241 01cc 5F65655F 		.ascii	"_ee_getReserved\000"
 4241      67657452 
 4241      65736572 
 4241      76656400 
 4242              	.LASF16:
 4243 01dc 63686172 		.ascii	"char\000"
 4243      00
 4244              	.LASF8:
 4245 01e1 696E7433 		.ascii	"int32_t\000"
 4245      325F7400 
 4246              	.LASF42:
 4247 01e9 61646472 		.ascii	"addr\000"
 4247      00
 4248              	.LASF4:
 4249 01ee 696E7431 		.ascii	"int16_t\000"
 4249      365F7400 
 4250              	.LASF14:
 4251 01f6 5F426F6F 		.ascii	"_Bool\000"
 4251      6C00
 4252              	.LASF34:
 4253 01fc 64617461 		.ascii	"data\000"
 4253      00
 4254              	.LASF59:
 4255 0201 474E5520 		.ascii	"GNU C 4.7.4 20130913 (release) [ARM/embedded-4_7-br"
 4255      4320342E 
 4255      372E3420 
 4255      32303133 
 4255      30393133 
 4256 0234 616E6368 		.ascii	"anch revision 202601]\000"
 4256      20726576 
 4256      6973696F 
 4256      6E203230 
 4256      32363031 
 4257              	.LASF43:
 4258 024a 5F65655F 		.ascii	"_ee_init\000"
 4258      696E6974 
 4258      00
 4259              	.LASF11:
 4260 0253 6C6F6E67 		.ascii	"long unsigned int\000"
 4260      20756E73 
 4260      69676E65 
 4260      6420696E 
 4260      7400
 4261              	.LASF38:
ARM GAS  /var/folders/ng/s8655sgx1ys_4lf9jzm2w6n00000gn/T//cc3YYM13.s 			page 78


 4262 0265 6E657874 		.ascii	"nextWriteAddr\000"
 4262      57726974 
 4262      65416464 
 4262      7200
 4263              	.LASF17:
 4264 0273 464C4153 		.ascii	"FLASH_BUSY\000"
 4264      485F4255 
 4264      535900
 4265              	.LASF53:
 4266 027e 49544D5F 		.ascii	"ITM_RxBuffer\000"
 4266      52784275 
 4266      66666572 
 4266      00
 4267              	.LASF22:
 4268 028b 464C4153 		.ascii	"FLASH_ERROR_PROGRAM\000"
 4268      485F4552 
 4268      524F525F 
 4268      50524F47 
 4268      52414D00 
 4269              	.LASF60:
 4270 029f 2E2E2F41 		.ascii	"../AithonLibrary/ee.c\000"
 4270      6974686F 
 4270      6E4C6962 
 4270      72617279 
 4270      2F65652E 
 4271              	.LASF20:
 4272 02b5 464C4153 		.ascii	"FLASH_ERROR_PGA\000"
 4272      485F4552 
 4272      524F525F 
 4272      50474100 
 4273              	.LASF57:
 4274 02c5 464C4153 		.ascii	"FLASH_ProgramHalfWord\000"
 4274      485F5072 
 4274      6F677261 
 4274      6D48616C 
 4274      66576F72 
 4275              	.LASF50:
 4276 02db 72657341 		.ascii	"resAddr\000"
 4276      64647200 
 4277              	.LASF40:
 4278 02e3 5F766572 		.ascii	"_verifyAndWrite\000"
 4278      69667941 
 4278      6E645772 
 4278      69746500 
 4279              	.LASF19:
 4280 02f3 464C4153 		.ascii	"FLASH_ERROR_PGP\000"
 4280      485F4552 
 4280      524F525F 
 4280      50475000 
 4281              	.LASF18:
 4282 0303 464C4153 		.ascii	"FLASH_ERROR_PGS\000"
 4282      485F4552 
 4282      524F525F 
 4282      50475300 
 4283              	.LASF46:
 4284 0313 5F706167 		.ascii	"_pageTransfer\000"
 4284      65547261 
ARM GAS  /var/folders/ng/s8655sgx1ys_4lf9jzm2w6n00000gn/T//cc3YYM13.s 			page 79


 4284      6E736665 
 4284      7200
 4285              		.ident	"GCC: (GNU Tools for ARM Embedded Processors) 4.7.4 20130913 (release) [ARM/embedded-4_7-br
ARM GAS  /var/folders/ng/s8655sgx1ys_4lf9jzm2w6n00000gn/T//cc3YYM13.s 			page 80


DEFINED SYMBOLS
                            *ABS*:0000000000000000 ee.c
/var/folders/ng/s8655sgx1ys_4lf9jzm2w6n00000gn/T//cc3YYM13.s:20     .text._getReadPage:0000000000000000 $t
/var/folders/ng/s8655sgx1ys_4lf9jzm2w6n00000gn/T//cc3YYM13.s:26     .text._getReadPage:0000000000000000 _getReadPage
/var/folders/ng/s8655sgx1ys_4lf9jzm2w6n00000gn/T//cc3YYM13.s:55     .text._getReadPage:0000000000000014 $d
/var/folders/ng/s8655sgx1ys_4lf9jzm2w6n00000gn/T//cc3YYM13.s:60     .text._getWritePage:0000000000000000 $t
/var/folders/ng/s8655sgx1ys_4lf9jzm2w6n00000gn/T//cc3YYM13.s:66     .text._getWritePage:0000000000000000 _getWritePage
/var/folders/ng/s8655sgx1ys_4lf9jzm2w6n00000gn/T//cc3YYM13.s:106    .text._getWritePage:0000000000000034 $d
/var/folders/ng/s8655sgx1ys_4lf9jzm2w6n00000gn/T//cc3YYM13.s:111    .text._verifyAndWrite:0000000000000000 $t
/var/folders/ng/s8655sgx1ys_4lf9jzm2w6n00000gn/T//cc3YYM13.s:117    .text._verifyAndWrite:0000000000000000 _verifyAndWrite
/var/folders/ng/s8655sgx1ys_4lf9jzm2w6n00000gn/T//cc3YYM13.s:316    .text._verifyAndWrite:00000000000000e4 $d
/var/folders/ng/s8655sgx1ys_4lf9jzm2w6n00000gn/T//cc3YYM13.s:323    .text._read:0000000000000000 $t
/var/folders/ng/s8655sgx1ys_4lf9jzm2w6n00000gn/T//cc3YYM13.s:329    .text._read:0000000000000000 _read
/var/folders/ng/s8655sgx1ys_4lf9jzm2w6n00000gn/T//cc3YYM13.s:446    .text._read:0000000000000084 $d
/var/folders/ng/s8655sgx1ys_4lf9jzm2w6n00000gn/T//cc3YYM13.s:451    .text._ee_init:0000000000000000 $t
/var/folders/ng/s8655sgx1ys_4lf9jzm2w6n00000gn/T//cc3YYM13.s:457    .text._ee_init:0000000000000000 _ee_init
/var/folders/ng/s8655sgx1ys_4lf9jzm2w6n00000gn/T//cc3YYM13.s:863    .text._ee_init:00000000000001cc $d
/var/folders/ng/s8655sgx1ys_4lf9jzm2w6n00000gn/T//cc3YYM13.s:871    .text._pageTransfer:0000000000000000 $t
/var/folders/ng/s8655sgx1ys_4lf9jzm2w6n00000gn/T//cc3YYM13.s:877    .text._pageTransfer:0000000000000000 _pageTransfer
/var/folders/ng/s8655sgx1ys_4lf9jzm2w6n00000gn/T//cc3YYM13.s:1122   .text._pageTransfer:00000000000000e8 $d
/var/folders/ng/s8655sgx1ys_4lf9jzm2w6n00000gn/T//cc3YYM13.s:1128   .text._write:0000000000000000 $t
/var/folders/ng/s8655sgx1ys_4lf9jzm2w6n00000gn/T//cc3YYM13.s:1134   .text._write:0000000000000000 _write
/var/folders/ng/s8655sgx1ys_4lf9jzm2w6n00000gn/T//cc3YYM13.s:1175   .text._ee_getReserved:0000000000000000 $t
/var/folders/ng/s8655sgx1ys_4lf9jzm2w6n00000gn/T//cc3YYM13.s:1181   .text._ee_getReserved:0000000000000000 _ee_getReserved
/var/folders/ng/s8655sgx1ys_4lf9jzm2w6n00000gn/T//cc3YYM13.s:1200   .text._ee_putReserved:0000000000000000 $t
/var/folders/ng/s8655sgx1ys_4lf9jzm2w6n00000gn/T//cc3YYM13.s:1206   .text._ee_putReserved:0000000000000000 _ee_putReserved
/var/folders/ng/s8655sgx1ys_4lf9jzm2w6n00000gn/T//cc3YYM13.s:1225   .text.ee_get:0000000000000000 $t
/var/folders/ng/s8655sgx1ys_4lf9jzm2w6n00000gn/T//cc3YYM13.s:1231   .text.ee_get:0000000000000000 ee_get
/var/folders/ng/s8655sgx1ys_4lf9jzm2w6n00000gn/T//cc3YYM13.s:1247   .text.ee_put:0000000000000000 $t
/var/folders/ng/s8655sgx1ys_4lf9jzm2w6n00000gn/T//cc3YYM13.s:1253   .text.ee_put:0000000000000000 ee_put
/var/folders/ng/s8655sgx1ys_4lf9jzm2w6n00000gn/T//cc3YYM13.s:1293   .bss._addrMap:0000000000000000 _addrMap
/var/folders/ng/s8655sgx1ys_4lf9jzm2w6n00000gn/T//cc3YYM13.s:1275   .data._pages:0000000000000000 _pages
/var/folders/ng/s8655sgx1ys_4lf9jzm2w6n00000gn/T//cc3YYM13.s:1271   .data._pages:0000000000000000 $d
/var/folders/ng/s8655sgx1ys_4lf9jzm2w6n00000gn/T//cc3YYM13.s:1289   .bss._addrMap:0000000000000000 $d
/var/folders/ng/s8655sgx1ys_4lf9jzm2w6n00000gn/T//cc3YYM13.s:1296   .bss.nextWriteAddr.8374:0000000000000000 $d
/var/folders/ng/s8655sgx1ys_4lf9jzm2w6n00000gn/T//cc3YYM13.s:1300   .bss.nextWriteAddr.8374:0000000000000000 nextWriteAddr.8374
                     .debug_frame:0000000000000010 $d
/var/folders/ng/s8655sgx1ys_4lf9jzm2w6n00000gn/T//cc3YYM13.s:59     .text._getReadPage:0000000000000018 $t
/var/folders/ng/s8655sgx1ys_4lf9jzm2w6n00000gn/T//cc3YYM13.s:110    .text._getWritePage:0000000000000038 $t
/var/folders/ng/s8655sgx1ys_4lf9jzm2w6n00000gn/T//cc3YYM13.s:450    .text._read:0000000000000088 $t
/var/folders/ng/s8655sgx1ys_4lf9jzm2w6n00000gn/T//cc3YYM13.s:870    .text._ee_init:00000000000001d8 $t

UNDEFINED SYMBOLS
FLASH_ProgramHalfWord
FLASH_Unlock
FLASH_EraseSector
