ARM GAS  /var/folders/ng/s8655sgx1ys_4lf9jzm2w6n00000gn/T//cc9MW9Dp.s 			page 1


   1              		.syntax unified
   2              		.cpu cortex-m4
   3              		.eabi_attribute 27, 3
   4              		.fpu fpv4-sp-d16
   5              		.eabi_attribute 20, 1
   6              		.eabi_attribute 21, 1
   7              		.eabi_attribute 23, 3
   8              		.eabi_attribute 24, 1
   9              		.eabi_attribute 25, 1
  10              		.eabi_attribute 26, 1
  11              		.eabi_attribute 30, 2
  12              		.eabi_attribute 34, 1
  13              		.eabi_attribute 18, 4
  14              		.thumb
  15              		.file	"fatfs_diskio.c"
  16              		.text
  17              	.Ltext0:
  18              		.cfi_sections	.debug_frame
  19              		.section	.text.disk_initialize,"ax",%progbits
  20              		.align	2
  21              		.p2align 4,,15
  22              		.global	disk_initialize
  23              		.thumb
  24              		.thumb_func
  25              		.type	disk_initialize, %function
  26              	disk_initialize:
  27              	.LFB118:
  28              		.file 1 "../AithonLibrary/ChibiOS/os/various/fatfs_bindings/fatfs_diskio.c"
  29              		.loc 1 44 0
  30              		.cfi_startproc
  31              		@ args = 0, pretend = 0, frame = 0
  32              		@ frame_needed = 0, uses_anonymous_args = 0
  33              	.LVL0:
  34 0000 10B5     		push	{r4, lr}
  35              	.LCFI0:
  36              		.cfi_def_cfa_offset 8
  37              		.cfi_offset 4, -8
  38              		.cfi_offset 14, -4
  39              		.loc 1 47 0
  40 0002 60B9     		cbnz	r0, .L8
  41              	.LVL1:
  42              		.loc 1 52 0
  43 0004 0748     		ldr	r0, .L10
  44              	.LVL2:
  45 0006 0479     		ldrb	r4, [r0, #4]	@ zero_extendqisi2
  46              		.loc 1 50 0
  47 0008 053C     		subs	r4, r4, #5
  48 000a 18BF     		it	ne
  49 000c 0124     		movne	r4, #1
  50              	.LVL3:
  51              		.loc 1 54 0
  52 000e FFF7FEFF 		bl	mmc_lld_is_write_protected
  53              	.LVL4:
  54 0012 10B1     		cbz	r0, .L2
  55              		.loc 1 55 0
  56 0014 44F00400 		orr	r0, r4, #4
  57 0018 C4B2     		uxtb	r4, r0
ARM GAS  /var/folders/ng/s8655sgx1ys_4lf9jzm2w6n00000gn/T//cc9MW9Dp.s 			page 2


  58              	.LVL5:
  59              	.L2:
  60              		.loc 1 69 0
  61 001a 2046     		mov	r0, r4
  62 001c 10BD     		pop	{r4, pc}
  63              	.LVL6:
  64              	.L8:
  65              		.loc 1 68 0
  66 001e 0224     		movs	r4, #2
  67              		.loc 1 69 0
  68 0020 2046     		mov	r0, r4
  69              	.LVL7:
  70 0022 10BD     		pop	{r4, pc}
  71              	.L11:
  72              		.align	2
  73              	.L10:
  74 0024 00000000 		.word	MMCD1
  75              		.cfi_endproc
  76              	.LFE118:
  77              		.size	disk_initialize, .-disk_initialize
  78 0028 AFF30080 		.section	.text.disk_status,"ax",%progbits
  78      AFF30080 
  79              		.align	2
  80              		.p2align 4,,15
  81              		.global	disk_status
  82              		.thumb
  83              		.thumb_func
  84              		.type	disk_status, %function
  85              	disk_status:
  86              	.LFB119:
  87              		.loc 1 79 0
  88              		.cfi_startproc
  89              		@ args = 0, pretend = 0, frame = 0
  90              		@ frame_needed = 0, uses_anonymous_args = 0
  91              	.LVL8:
  92 0000 10B5     		push	{r4, lr}
  93              	.LCFI1:
  94              		.cfi_def_cfa_offset 8
  95              		.cfi_offset 4, -8
  96              		.cfi_offset 14, -4
  97              		.loc 1 82 0
  98 0002 60B9     		cbnz	r0, .L19
  99              	.LVL9:
 100              		.loc 1 87 0
 101 0004 0748     		ldr	r0, .L20
 102              	.LVL10:
 103 0006 0479     		ldrb	r4, [r0, #4]	@ zero_extendqisi2
 104              		.loc 1 85 0
 105 0008 053C     		subs	r4, r4, #5
 106 000a 18BF     		it	ne
 107 000c 0124     		movne	r4, #1
 108              	.LVL11:
 109              		.loc 1 89 0
 110 000e FFF7FEFF 		bl	mmc_lld_is_write_protected
 111              	.LVL12:
 112 0012 10B1     		cbz	r0, .L13
 113              		.loc 1 90 0
ARM GAS  /var/folders/ng/s8655sgx1ys_4lf9jzm2w6n00000gn/T//cc9MW9Dp.s 			page 3


 114 0014 44F00400 		orr	r0, r4, #4
 115 0018 C4B2     		uxtb	r4, r0
 116              	.LVL13:
 117              	.L13:
 118              		.loc 1 104 0
 119 001a 2046     		mov	r0, r4
 120 001c 10BD     		pop	{r4, pc}
 121              	.LVL14:
 122              	.L19:
 123              		.loc 1 103 0
 124 001e 0224     		movs	r4, #2
 125              		.loc 1 104 0
 126 0020 2046     		mov	r0, r4
 127              	.LVL15:
 128 0022 10BD     		pop	{r4, pc}
 129              	.L21:
 130              		.align	2
 131              	.L20:
 132 0024 00000000 		.word	MMCD1
 133              		.cfi_endproc
 134              	.LFE119:
 135              		.size	disk_status, .-disk_status
 136 0028 AFF30080 		.section	.text.disk_read,"ax",%progbits
 136      AFF30080 
 137              		.align	2
 138              		.p2align 4,,15
 139              		.global	disk_read
 140              		.thumb
 141              		.thumb_func
 142              		.type	disk_read, %function
 143              	disk_read:
 144              	.LFB120:
 145              		.loc 1 117 0
 146              		.cfi_startproc
 147              		@ args = 0, pretend = 0, frame = 8
 148              		@ frame_needed = 0, uses_anonymous_args = 0
 149              	.LVL16:
 150 0000 F0B5     		push	{r4, r5, r6, r7, lr}
 151              	.LCFI2:
 152              		.cfi_def_cfa_offset 20
 153              		.cfi_offset 4, -20
 154              		.cfi_offset 5, -16
 155              		.cfi_offset 6, -12
 156              		.cfi_offset 7, -8
 157              		.cfi_offset 14, -4
 158 0002 0C46     		mov	r4, r1
 159 0004 83B0     		sub	sp, sp, #12
 160              	.LCFI3:
 161              		.cfi_def_cfa_offset 32
 162              		.loc 1 118 0
 163 0006 30B9     		cbnz	r0, .L40
 164              		.loc 1 121 0
 165 0008 234D     		ldr	r5, .L45
 166 000a 2979     		ldrb	r1, [r5, #4]	@ zero_extendqisi2
 167              	.LVL17:
 168              		.loc 1 122 0
 169 000c 0320     		movs	r0, #3
ARM GAS  /var/folders/ng/s8655sgx1ys_4lf9jzm2w6n00000gn/T//cc9MW9Dp.s 			page 4


 170              	.LVL18:
 171              		.loc 1 121 0
 172 000e 0529     		cmp	r1, #5
 173 0010 03D0     		beq	.L43
 174              	.LVL19:
 175              	.L23:
 176              		.loc 1 144 0
 177 0012 03B0     		add	sp, sp, #12
 178 0014 F0BD     		pop	{r4, r5, r6, r7, pc}
 179              	.LVL20:
 180              	.L40:
 181              		.loc 1 143 0
 182 0016 0420     		movs	r0, #4
 183              	.LVL21:
 184 0018 FBE7     		b	.L23
 185              	.LVL22:
 186              	.L43:
 187              		.loc 1 123 0
 188 001a 2846     		mov	r0, r5
 189 001c 1146     		mov	r1, r2
 190 001e 0193     		str	r3, [sp, #4]
 191 0020 FFF7FEFF 		bl	mmcStartSequentialRead
 192              	.LVL23:
 193 0024 019B     		ldr	r3, [sp, #4]
 194 0026 78BB     		cbnz	r0, .L27
 195              	.LVL24:
 196              		.loc 1 125 0 discriminator 1
 197 0028 83B3     		cbz	r3, .L29
 198 002a 5E1E     		subs	r6, r3, #1
 199              		.loc 1 126 0
 200 002c 2846     		mov	r0, r5
 201 002e 2146     		mov	r1, r4
 202 0030 06F00107 		and	r7, r6, #1
 203 0034 FFF7FEFF 		bl	mmcSequentialRead
 204              	.LVL25:
 205 0038 30BB     		cbnz	r0, .L27
 206              		.loc 1 125 0
 207 003a 16F0FF06 		ands	r6, r6, #255
 208              	.LVL26:
 209              		.loc 1 128 0
 210 003e 04F50074 		add	r4, r4, #512
 211              	.LVL27:
 212              		.loc 1 125 0
 213 0042 23D0     		beq	.L29
 214 0044 9FB1     		cbz	r7, .L32
 215              		.loc 1 126 0
 216 0046 2846     		mov	r0, r5
 217 0048 2146     		mov	r1, r4
 218 004a FFF7FEFF 		bl	mmcSequentialRead
 219              	.LVL28:
 220 004e D8B9     		cbnz	r0, .L27
 221              		.loc 1 129 0
 222 0050 013E     		subs	r6, r6, #1
 223              		.loc 1 125 0
 224 0052 16F0FF06 		ands	r6, r6, #255
 225              		.loc 1 128 0
 226 0056 04F50074 		add	r4, r4, #512
ARM GAS  /var/folders/ng/s8655sgx1ys_4lf9jzm2w6n00000gn/T//cc9MW9Dp.s 			page 5


 227              	.LVL29:
 228              		.loc 1 125 0
 229 005a 08D1     		bne	.L32
 230 005c 16E0     		b	.L29
 231              	.L44:
 232              		.loc 1 126 0
 233 005e 0E48     		ldr	r0, .L45
 234 0060 FFF7FEFF 		bl	mmcSequentialRead
 235              	.LVL30:
 236              		.loc 1 129 0
 237 0064 711E     		subs	r1, r6, #1
 238              		.loc 1 126 0
 239 0066 78B9     		cbnz	r0, .L27
 240              		.loc 1 125 0
 241 0068 11F0FF06 		ands	r6, r1, #255
 242 006c 0ED0     		beq	.L29
 243              	.L32:
 244              		.loc 1 126 0
 245 006e 2146     		mov	r1, r4
 246 0070 0948     		ldr	r0, .L45
 247 0072 FFF7FEFF 		bl	mmcSequentialRead
 248              	.LVL31:
 249              		.loc 1 128 0
 250 0076 04F50075 		add	r5, r4, #512
 251              		.loc 1 129 0
 252 007a 721E     		subs	r2, r6, #1
 253              		.loc 1 126 0
 254 007c 2946     		mov	r1, r5
 255              		.loc 1 129 0
 256 007e D6B2     		uxtb	r6, r2
 257              		.loc 1 128 0
 258 0080 04F58064 		add	r4, r4, #1024
 259              		.loc 1 126 0
 260 0084 0028     		cmp	r0, #0
 261 0086 EAD0     		beq	.L44
 262              	.L27:
 263              		.loc 1 124 0
 264 0088 0120     		movs	r0, #1
 265 008a C2E7     		b	.L23
 266              	.L29:
 267              		.loc 1 131 0
 268 008c 0248     		ldr	r0, .L45
 269              		.loc 1 144 0
 270 008e 03B0     		add	sp, sp, #12
 271 0090 BDE8F040 		pop	{r4, r5, r6, r7, lr}
 272              		.loc 1 131 0
 273 0094 FFF7FEBF 		b	mmcStopSequentialRead
 274              	.LVL32:
 275              	.L46:
 276              		.align	2
 277              	.L45:
 278 0098 00000000 		.word	MMCD1
 279              		.cfi_endproc
 280              	.LFE120:
 281              		.size	disk_read, .-disk_read
 282 009c AFF30080 		.section	.text.disk_write,"ax",%progbits
 283              		.align	2
ARM GAS  /var/folders/ng/s8655sgx1ys_4lf9jzm2w6n00000gn/T//cc9MW9Dp.s 			page 6


 284              		.p2align 4,,15
 285              		.global	disk_write
 286              		.thumb
 287              		.thumb_func
 288              		.type	disk_write, %function
 289              	disk_write:
 290              	.LFB121:
 291              		.loc 1 158 0
 292              		.cfi_startproc
 293              		@ args = 0, pretend = 0, frame = 8
 294              		@ frame_needed = 0, uses_anonymous_args = 0
 295              	.LVL33:
 296 0000 F0B5     		push	{r4, r5, r6, r7, lr}
 297              	.LCFI4:
 298              		.cfi_def_cfa_offset 20
 299              		.cfi_offset 4, -20
 300              		.cfi_offset 5, -16
 301              		.cfi_offset 6, -12
 302              		.cfi_offset 7, -8
 303              		.cfi_offset 14, -4
 304 0002 0C46     		mov	r4, r1
 305 0004 83B0     		sub	sp, sp, #12
 306              	.LCFI5:
 307              		.cfi_def_cfa_offset 32
 308              		.loc 1 159 0
 309 0006 30B9     		cbnz	r0, .L66
 310              		.loc 1 162 0
 311 0008 274D     		ldr	r5, .L72
 312 000a 2979     		ldrb	r1, [r5, #4]	@ zero_extendqisi2
 313              	.LVL34:
 314              		.loc 1 163 0
 315 000c 0320     		movs	r0, #3
 316              	.LVL35:
 317              		.loc 1 162 0
 318 000e 0529     		cmp	r1, #5
 319 0010 03D0     		beq	.L69
 320              	.LVL36:
 321              	.L48:
 322              		.loc 1 187 0
 323 0012 03B0     		add	sp, sp, #12
 324 0014 F0BD     		pop	{r4, r5, r6, r7, pc}
 325              	.LVL37:
 326              	.L66:
 327              		.loc 1 186 0
 328 0016 0420     		movs	r0, #4
 329              	.LVL38:
 330 0018 FBE7     		b	.L48
 331              	.LVL39:
 332              	.L69:
 333              		.loc 1 164 0
 334 001a 2846     		mov	r0, r5
 335 001c 0192     		str	r2, [sp, #4]
 336 001e 0093     		str	r3, [sp, #0]
 337 0020 FFF7FEFF 		bl	mmc_lld_is_write_protected
 338              	.LVL40:
 339 0024 019A     		ldr	r2, [sp, #4]
 340 0026 08B1     		cbz	r0, .L70
ARM GAS  /var/folders/ng/s8655sgx1ys_4lf9jzm2w6n00000gn/T//cc9MW9Dp.s 			page 7


 341              		.loc 1 165 0
 342 0028 0220     		movs	r0, #2
 343 002a F2E7     		b	.L48
 344              	.L70:
 345              		.loc 1 166 0
 346 002c 2846     		mov	r0, r5
 347 002e 1146     		mov	r1, r2
 348 0030 FFF7FEFF 		bl	mmcStartSequentialWrite
 349              	.LVL41:
 350 0034 009B     		ldr	r3, [sp, #0]
 351 0036 78BB     		cbnz	r0, .L52
 352              	.LVL42:
 353              		.loc 1 168 0 discriminator 1
 354 0038 83B3     		cbz	r3, .L54
 355 003a 5E1E     		subs	r6, r3, #1
 356              		.loc 1 169 0
 357 003c 2846     		mov	r0, r5
 358 003e 2146     		mov	r1, r4
 359 0040 06F00107 		and	r7, r6, #1
 360 0044 FFF7FEFF 		bl	mmcSequentialWrite
 361              	.LVL43:
 362 0048 30BB     		cbnz	r0, .L52
 363              		.loc 1 168 0
 364 004a 16F0FF06 		ands	r6, r6, #255
 365              	.LVL44:
 366              		.loc 1 171 0
 367 004e 04F50074 		add	r4, r4, #512
 368              	.LVL45:
 369              		.loc 1 168 0
 370 0052 23D0     		beq	.L54
 371 0054 9FB1     		cbz	r7, .L58
 372              		.loc 1 169 0
 373 0056 2846     		mov	r0, r5
 374 0058 2146     		mov	r1, r4
 375 005a FFF7FEFF 		bl	mmcSequentialWrite
 376              	.LVL46:
 377 005e D8B9     		cbnz	r0, .L52
 378              		.loc 1 172 0
 379 0060 013E     		subs	r6, r6, #1
 380              		.loc 1 168 0
 381 0062 16F0FF06 		ands	r6, r6, #255
 382              		.loc 1 171 0
 383 0066 04F50074 		add	r4, r4, #512
 384              	.LVL47:
 385              		.loc 1 168 0
 386 006a 08D1     		bne	.L58
 387 006c 16E0     		b	.L54
 388              	.L71:
 389              		.loc 1 169 0
 390 006e 0E48     		ldr	r0, .L72
 391 0070 FFF7FEFF 		bl	mmcSequentialWrite
 392              	.LVL48:
 393              		.loc 1 172 0
 394 0074 711E     		subs	r1, r6, #1
 395              		.loc 1 169 0
 396 0076 78B9     		cbnz	r0, .L52
 397              		.loc 1 168 0
ARM GAS  /var/folders/ng/s8655sgx1ys_4lf9jzm2w6n00000gn/T//cc9MW9Dp.s 			page 8


 398 0078 11F0FF06 		ands	r6, r1, #255
 399 007c 0ED0     		beq	.L54
 400              	.L58:
 401              		.loc 1 169 0
 402 007e 2146     		mov	r1, r4
 403 0080 0948     		ldr	r0, .L72
 404 0082 FFF7FEFF 		bl	mmcSequentialWrite
 405              	.LVL49:
 406              		.loc 1 171 0
 407 0086 04F50075 		add	r5, r4, #512
 408              		.loc 1 172 0
 409 008a 721E     		subs	r2, r6, #1
 410              		.loc 1 169 0
 411 008c 2946     		mov	r1, r5
 412              		.loc 1 172 0
 413 008e D6B2     		uxtb	r6, r2
 414              		.loc 1 171 0
 415 0090 04F58064 		add	r4, r4, #1024
 416              		.loc 1 169 0
 417 0094 0028     		cmp	r0, #0
 418 0096 EAD0     		beq	.L71
 419              	.L52:
 420              		.loc 1 167 0
 421 0098 0120     		movs	r0, #1
 422 009a BAE7     		b	.L48
 423              	.L54:
 424              		.loc 1 174 0
 425 009c 0248     		ldr	r0, .L72
 426              		.loc 1 187 0
 427 009e 03B0     		add	sp, sp, #12
 428 00a0 BDE8F040 		pop	{r4, r5, r6, r7, lr}
 429              		.loc 1 174 0
 430 00a4 FFF7FEBF 		b	mmcStopSequentialWrite
 431              	.LVL50:
 432              	.L73:
 433              		.align	2
 434              	.L72:
 435 00a8 00000000 		.word	MMCD1
 436              		.cfi_endproc
 437              	.LFE121:
 438              		.size	disk_write, .-disk_write
 439 00ac AFF30080 		.section	.text.disk_ioctl,"ax",%progbits
 440              		.align	2
 441              		.p2align 4,,15
 442              		.global	disk_ioctl
 443              		.thumb
 444              		.thumb_func
 445              		.type	disk_ioctl, %function
 446              	disk_ioctl:
 447              	.LFB122:
 448              		.loc 1 200 0
 449              		.cfi_startproc
 450              		@ args = 0, pretend = 0, frame = 0
 451              		@ frame_needed = 0, uses_anonymous_args = 0
 452              		@ link register save eliminated.
 453              	.LVL51:
 454              		.loc 1 201 0
ARM GAS  /var/folders/ng/s8655sgx1ys_4lf9jzm2w6n00000gn/T//cc9MW9Dp.s 			page 9


 455 0000 20B9     		cbnz	r0, .L82
 456              		.loc 1 204 0
 457 0002 09B9     		cbnz	r1, .L83
 458              		.loc 1 206 0
 459 0004 0846     		mov	r0, r1
 460              	.LVL52:
 461 0006 7047     		bx	lr
 462              	.LVL53:
 463              	.L83:
 464              		.loc 1 204 0
 465 0008 0229     		cmp	r1, #2
 466 000a 01D0     		beq	.L84
 467              	.L82:
 468              		.loc 1 216 0
 469 000c 0420     		movs	r0, #4
 470              	.LVL54:
 471              		.loc 1 243 0
 472 000e 7047     		bx	lr
 473              	.LVL55:
 474              	.L84:
 475              		.loc 1 208 0
 476 0010 4FF40073 		mov	r3, #512
 477 0014 1380     		strh	r3, [r2, #0]	@ movhi
 478              		.loc 1 209 0
 479 0016 7047     		bx	lr
 480              		.cfi_endproc
 481              	.LFE122:
 482              		.size	disk_ioctl, .-disk_ioctl
 483 0018 AFF30080 		.section	.text.get_fattime,"ax",%progbits
 483      AFF30080 
 484              		.align	2
 485              		.p2align 4,,15
 486              		.global	get_fattime
 487              		.thumb
 488              		.thumb_func
 489              		.type	get_fattime, %function
 490              	get_fattime:
 491              	.LFB123:
 492              		.loc 1 245 0
 493              		.cfi_startproc
 494              		@ args = 0, pretend = 0, frame = 0
 495              		@ frame_needed = 0, uses_anonymous_args = 0
 496              		@ link register save eliminated.
 497              		.loc 1 251 0
 498 0000 4FF40410 		mov	r0, #2162688
 499 0004 7047     		bx	lr
 500              		.cfi_endproc
 501              	.LFE123:
 502              		.size	get_fattime, .-get_fattime
 503 0006 00BFAFF3 		.text
 503      0080AFF3 
 503      0080
 504              	.Letext0:
 505              		.file 2 "/Users/jseng/gccarm/bin/../lib/gcc/arm-none-eabi/4.7.4/../../../../arm-none-eabi/include/
 506              		.file 3 "../AithonLibrary/ChibiOS/os/ports/GCC/ARMCMx/chtypes.h"
 507              		.file 4 "../AithonLibrary/ChibiOS/os/kernel/include/chlists.h"
 508              		.file 5 "../AithonLibrary/ChibiOS/os/kernel/include/chthreads.h"
ARM GAS  /var/folders/ng/s8655sgx1ys_4lf9jzm2w6n00000gn/T//cc9MW9Dp.s 			page 10


 509              		.file 6 "../AithonLibrary/ChibiOS/os/ports/GCC/ARMCMx/chcore_v7m.h"
 510              		.file 7 "../AithonLibrary/ChibiOS/os/kernel/include/chmtx.h"
 511              		.file 8 "../AithonLibrary/ChibiOS/os/hal/platforms/STM32F4xx/stm32f4xx.h"
 512              		.file 9 "../AithonLibrary/ChibiOS/os/hal/platforms/STM32F4xx/stm32_dma.h"
 513              		.file 10 "../AithonLibrary/ChibiOS/os/hal/include/io_block.h"
 514              		.file 11 "../AithonLibrary/ChibiOS/os/hal/platforms/STM32/GPIOv2/pal_lld.h"
 515              		.file 12 "../AithonLibrary/ChibiOS/os/hal/include/spi.h"
 516              		.file 13 "../AithonLibrary/ChibiOS/os/hal/platforms/STM32/SPIv1/spi_lld.h"
 517              		.file 14 "../AithonLibrary/ChibiOS/os/hal/include/mmc_spi.h"
 518              		.file 15 "../AithonLibrary/ChibiOS/ext/fatfs/src/integer.h"
 519              		.file 16 "../AithonLibrary/ChibiOS/ext/fatfs/src/diskio.h"
 520              		.file 17 "../AithonLibrary/ChibiOS/os/ports/common/ARMCMx/CMSIS/include/core_cm4.h"
 521              		.section	.debug_info,"",%progbits
 522              	.Ldebug_info0:
 523 0000 800F0000 		.4byte	0xf80
 524 0004 0200     		.2byte	0x2
 525 0006 00000000 		.4byte	.Ldebug_abbrev0
 526 000a 04       		.byte	0x4
 527 000b 01       		.uleb128 0x1
 528 000c 81010000 		.4byte	.LASF171
 529 0010 01       		.byte	0x1
 530 0011 86030000 		.4byte	.LASF172
 531 0015 52020000 		.4byte	.LASF173
 532 0019 00000000 		.4byte	.Ldebug_ranges0+0
 533 001d 00000000 		.4byte	0
 534 0021 00000000 		.4byte	0
 535 0025 00000000 		.4byte	.Ldebug_line0
 536 0029 02       		.uleb128 0x2
 537 002a 04       		.byte	0x4
 538 002b 05       		.byte	0x5
 539 002c 696E7400 		.ascii	"int\000"
 540 0030 03       		.uleb128 0x3
 541 0031 04       		.byte	0x4
 542 0032 07       		.byte	0x7
 543 0033 A3020000 		.4byte	.LASF0
 544 0037 03       		.uleb128 0x3
 545 0038 01       		.byte	0x1
 546 0039 06       		.byte	0x6
 547 003a 29010000 		.4byte	.LASF1
 548 003e 04       		.uleb128 0x4
 549 003f C5060000 		.4byte	.LASF4
 550 0043 02       		.byte	0x2
 551 0044 2A       		.byte	0x2a
 552 0045 49000000 		.4byte	0x49
 553 0049 03       		.uleb128 0x3
 554 004a 01       		.byte	0x1
 555 004b 08       		.byte	0x8
 556 004c FA040000 		.4byte	.LASF2
 557 0050 03       		.uleb128 0x3
 558 0051 02       		.byte	0x2
 559 0052 05       		.byte	0x5
 560 0053 25050000 		.4byte	.LASF3
 561 0057 04       		.uleb128 0x4
 562 0058 B0020000 		.4byte	.LASF5
 563 005c 02       		.byte	0x2
 564 005d 36       		.byte	0x36
 565 005e 62000000 		.4byte	0x62
ARM GAS  /var/folders/ng/s8655sgx1ys_4lf9jzm2w6n00000gn/T//cc9MW9Dp.s 			page 11


 566 0062 03       		.uleb128 0x3
 567 0063 02       		.byte	0x2
 568 0064 07       		.byte	0x7
 569 0065 F4020000 		.4byte	.LASF6
 570 0069 04       		.uleb128 0x4
 571 006a F2040000 		.4byte	.LASF7
 572 006e 02       		.byte	0x2
 573 006f 4F       		.byte	0x4f
 574 0070 74000000 		.4byte	0x74
 575 0074 03       		.uleb128 0x3
 576 0075 04       		.byte	0x4
 577 0076 05       		.byte	0x5
 578 0077 D0010000 		.4byte	.LASF8
 579 007b 04       		.uleb128 0x4
 580 007c B4050000 		.4byte	.LASF9
 581 0080 02       		.byte	0x2
 582 0081 50       		.byte	0x50
 583 0082 86000000 		.4byte	0x86
 584 0086 03       		.uleb128 0x3
 585 0087 04       		.byte	0x4
 586 0088 07       		.byte	0x7
 587 0089 C5050000 		.4byte	.LASF10
 588 008d 03       		.uleb128 0x3
 589 008e 08       		.byte	0x8
 590 008f 05       		.byte	0x5
 591 0090 1B010000 		.4byte	.LASF11
 592 0094 03       		.uleb128 0x3
 593 0095 08       		.byte	0x8
 594 0096 07       		.byte	0x7
 595 0097 9C000000 		.4byte	.LASF12
 596 009b 04       		.uleb128 0x4
 597 009c 46010000 		.4byte	.LASF13
 598 00a0 03       		.byte	0x3
 599 00a1 2B       		.byte	0x2b
 600 00a2 A6000000 		.4byte	0xa6
 601 00a6 03       		.uleb128 0x3
 602 00a7 01       		.byte	0x1
 603 00a8 02       		.byte	0x2
 604 00a9 EC040000 		.4byte	.LASF14
 605 00ad 04       		.uleb128 0x4
 606 00ae 3D030000 		.4byte	.LASF15
 607 00b2 03       		.byte	0x3
 608 00b3 2C       		.byte	0x2c
 609 00b4 3E000000 		.4byte	0x3e
 610 00b8 04       		.uleb128 0x4
 611 00b9 D9010000 		.4byte	.LASF16
 612 00bd 03       		.byte	0x3
 613 00be 2D       		.byte	0x2d
 614 00bf 3E000000 		.4byte	0x3e
 615 00c3 04       		.uleb128 0x4
 616 00c4 13010000 		.4byte	.LASF17
 617 00c8 03       		.byte	0x3
 618 00c9 2E       		.byte	0x2e
 619 00ca 3E000000 		.4byte	0x3e
 620 00ce 04       		.uleb128 0x4
 621 00cf 60010000 		.4byte	.LASF18
 622 00d3 03       		.byte	0x3
ARM GAS  /var/folders/ng/s8655sgx1ys_4lf9jzm2w6n00000gn/T//cc9MW9Dp.s 			page 12


 623 00d4 2F       		.byte	0x2f
 624 00d5 3E000000 		.4byte	0x3e
 625 00d9 04       		.uleb128 0x4
 626 00da DE040000 		.4byte	.LASF19
 627 00de 03       		.byte	0x3
 628 00df 30       		.byte	0x30
 629 00e0 7B000000 		.4byte	0x7b
 630 00e4 04       		.uleb128 0x4
 631 00e5 28030000 		.4byte	.LASF20
 632 00e9 03       		.byte	0x3
 633 00ea 31       		.byte	0x31
 634 00eb 69000000 		.4byte	0x69
 635 00ef 04       		.uleb128 0x4
 636 00f0 5F030000 		.4byte	.LASF21
 637 00f4 03       		.byte	0x3
 638 00f5 33       		.byte	0x33
 639 00f6 7B000000 		.4byte	0x7b
 640 00fa 04       		.uleb128 0x4
 641 00fb 25060000 		.4byte	.LASF22
 642 00ff 03       		.byte	0x3
 643 0100 35       		.byte	0x35
 644 0101 7B000000 		.4byte	0x7b
 645 0105 04       		.uleb128 0x4
 646 0106 7B050000 		.4byte	.LASF23
 647 010a 04       		.byte	0x4
 648 010b 2A       		.byte	0x2a
 649 010c 10010000 		.4byte	0x110
 650 0110 05       		.uleb128 0x5
 651 0111 7B050000 		.4byte	.LASF23
 652 0115 48       		.byte	0x48
 653 0116 05       		.byte	0x5
 654 0117 5E       		.byte	0x5e
 655 0118 35020000 		.4byte	0x235
 656 011c 06       		.uleb128 0x6
 657 011d 54050000 		.4byte	.LASF24
 658 0121 05       		.byte	0x5
 659 0122 5F       		.byte	0x5f
 660 0123 5A020000 		.4byte	0x25a
 661 0127 02       		.byte	0x2
 662 0128 23       		.byte	0x23
 663 0129 00       		.uleb128 0
 664 012a 06       		.uleb128 0x6
 665 012b B9040000 		.4byte	.LASF25
 666 012f 05       		.byte	0x5
 667 0130 61       		.byte	0x61
 668 0131 5A020000 		.4byte	0x25a
 669 0135 02       		.byte	0x2
 670 0136 23       		.byte	0x23
 671 0137 04       		.uleb128 0x4
 672 0138 06       		.uleb128 0x6
 673 0139 07010000 		.4byte	.LASF26
 674 013d 05       		.byte	0x5
 675 013e 63       		.byte	0x63
 676 013f D9000000 		.4byte	0xd9
 677 0143 02       		.byte	0x2
 678 0144 23       		.byte	0x23
 679 0145 08       		.uleb128 0x8
ARM GAS  /var/folders/ng/s8655sgx1ys_4lf9jzm2w6n00000gn/T//cc9MW9Dp.s 			page 13


 680 0146 06       		.uleb128 0x6
 681 0147 1D070000 		.4byte	.LASF27
 682 014b 05       		.byte	0x5
 683 014c 64       		.byte	0x64
 684 014d 18040000 		.4byte	0x418
 685 0151 02       		.byte	0x2
 686 0152 23       		.byte	0x23
 687 0153 0C       		.uleb128 0xc
 688 0154 06       		.uleb128 0x6
 689 0155 14020000 		.4byte	.LASF28
 690 0159 05       		.byte	0x5
 691 015a 66       		.byte	0x66
 692 015b 5A020000 		.4byte	0x25a
 693 015f 02       		.byte	0x2
 694 0160 23       		.byte	0x23
 695 0161 10       		.uleb128 0x10
 696 0162 06       		.uleb128 0x6
 697 0163 FB030000 		.4byte	.LASF29
 698 0167 05       		.byte	0x5
 699 0168 67       		.byte	0x67
 700 0169 5A020000 		.4byte	0x25a
 701 016d 02       		.byte	0x2
 702 016e 23       		.byte	0x23
 703 016f 14       		.uleb128 0x14
 704 0170 06       		.uleb128 0x6
 705 0171 AC060000 		.4byte	.LASF30
 706 0175 05       		.byte	0x5
 707 0176 6E       		.byte	0x6e
 708 0177 C9040000 		.4byte	0x4c9
 709 017b 02       		.byte	0x2
 710 017c 23       		.byte	0x23
 711 017d 18       		.uleb128 0x18
 712 017e 06       		.uleb128 0x6
 713 017f 2F050000 		.4byte	.LASF31
 714 0183 05       		.byte	0x5
 715 0184 79       		.byte	0x79
 716 0185 B8000000 		.4byte	0xb8
 717 0189 02       		.byte	0x2
 718 018a 23       		.byte	0x23
 719 018b 1C       		.uleb128 0x1c
 720 018c 06       		.uleb128 0x6
 721 018d 5B050000 		.4byte	.LASF32
 722 0191 05       		.byte	0x5
 723 0192 7D       		.byte	0x7d
 724 0193 AD000000 		.4byte	0xad
 725 0197 02       		.byte	0x2
 726 0198 23       		.byte	0x23
 727 0199 1D       		.uleb128 0x1d
 728 019a 06       		.uleb128 0x6
 729 019b B3060000 		.4byte	.LASF33
 730 019f 05       		.byte	0x5
 731 01a0 82       		.byte	0x82
 732 01a1 C3000000 		.4byte	0xc3
 733 01a5 02       		.byte	0x2
 734 01a6 23       		.byte	0x23
 735 01a7 1E       		.uleb128 0x1e
 736 01a8 06       		.uleb128 0x6
ARM GAS  /var/folders/ng/s8655sgx1ys_4lf9jzm2w6n00000gn/T//cc9MW9Dp.s 			page 14


 737 01a9 43050000 		.4byte	.LASF34
 738 01ad 05       		.byte	0x5
 739 01ae 88       		.byte	0x88
 740 01af CE000000 		.4byte	0xce
 741 01b3 02       		.byte	0x2
 742 01b4 23       		.byte	0x23
 743 01b5 1F       		.uleb128 0x1f
 744 01b6 06       		.uleb128 0x6
 745 01b7 4C030000 		.4byte	.LASF35
 746 01bb 05       		.byte	0x5
 747 01bc 8F       		.byte	0x8f
 748 01bd 47040000 		.4byte	0x447
 749 01c1 02       		.byte	0x2
 750 01c2 23       		.byte	0x23
 751 01c3 20       		.uleb128 0x20
 752 01c4 07       		.uleb128 0x7
 753 01c5 705F7500 		.ascii	"p_u\000"
 754 01c9 05       		.byte	0x5
 755 01ca B4       		.byte	0xb4
 756 01cb 94040000 		.4byte	0x494
 757 01cf 02       		.byte	0x2
 758 01d0 23       		.byte	0x23
 759 01d1 24       		.uleb128 0x24
 760 01d2 06       		.uleb128 0x6
 761 01d3 23070000 		.4byte	.LASF36
 762 01d7 05       		.byte	0x5
 763 01d8 B9       		.byte	0xb9
 764 01d9 82020000 		.4byte	0x282
 765 01dd 02       		.byte	0x2
 766 01de 23       		.byte	0x23
 767 01df 28       		.uleb128 0x28
 768 01e0 06       		.uleb128 0x6
 769 01e1 D1020000 		.4byte	.LASF37
 770 01e5 05       		.byte	0x5
 771 01e6 BF       		.byte	0xbf
 772 01e7 60020000 		.4byte	0x260
 773 01eb 02       		.byte	0x2
 774 01ec 23       		.byte	0x23
 775 01ed 2C       		.uleb128 0x2c
 776 01ee 06       		.uleb128 0x6
 777 01ef F2060000 		.4byte	.LASF38
 778 01f3 05       		.byte	0x5
 779 01f4 C3       		.byte	0xc3
 780 01f5 E4000000 		.4byte	0xe4
 781 01f9 02       		.byte	0x2
 782 01fa 23       		.byte	0x23
 783 01fb 34       		.uleb128 0x34
 784 01fc 06       		.uleb128 0x6
 785 01fd 8A050000 		.4byte	.LASF39
 786 0201 05       		.byte	0x5
 787 0202 C9       		.byte	0xc9
 788 0203 EF000000 		.4byte	0xef
 789 0207 02       		.byte	0x2
 790 0208 23       		.byte	0x23
 791 0209 38       		.uleb128 0x38
 792 020a 06       		.uleb128 0x6
 793 020b 1B050000 		.4byte	.LASF40
ARM GAS  /var/folders/ng/s8655sgx1ys_4lf9jzm2w6n00000gn/T//cc9MW9Dp.s 			page 15


 794 020f 05       		.byte	0x5
 795 0210 D0       		.byte	0xd0
 796 0211 DB040000 		.4byte	0x4db
 797 0215 02       		.byte	0x2
 798 0216 23       		.byte	0x23
 799 0217 3C       		.uleb128 0x3c
 800 0218 06       		.uleb128 0x6
 801 0219 2F060000 		.4byte	.LASF41
 802 021d 05       		.byte	0x5
 803 021e D4       		.byte	0xd4
 804 021f D9000000 		.4byte	0xd9
 805 0223 02       		.byte	0x2
 806 0224 23       		.byte	0x23
 807 0225 40       		.uleb128 0x40
 808 0226 06       		.uleb128 0x6
 809 0227 6F020000 		.4byte	.LASF42
 810 022b 05       		.byte	0x5
 811 022c DA       		.byte	0xda
 812 022d 98020000 		.4byte	0x298
 813 0231 02       		.byte	0x2
 814 0232 23       		.byte	0x23
 815 0233 44       		.uleb128 0x44
 816 0234 00       		.byte	0
 817 0235 08       		.uleb128 0x8
 818 0236 08       		.byte	0x8
 819 0237 04       		.byte	0x4
 820 0238 61       		.byte	0x61
 821 0239 5A020000 		.4byte	0x25a
 822 023d 06       		.uleb128 0x6
 823 023e 54050000 		.4byte	.LASF24
 824 0242 04       		.byte	0x4
 825 0243 62       		.byte	0x62
 826 0244 5A020000 		.4byte	0x25a
 827 0248 02       		.byte	0x2
 828 0249 23       		.byte	0x23
 829 024a 00       		.uleb128 0
 830 024b 06       		.uleb128 0x6
 831 024c B9040000 		.4byte	.LASF25
 832 0250 04       		.byte	0x4
 833 0251 64       		.byte	0x64
 834 0252 5A020000 		.4byte	0x25a
 835 0256 02       		.byte	0x2
 836 0257 23       		.byte	0x23
 837 0258 04       		.uleb128 0x4
 838 0259 00       		.byte	0
 839 025a 09       		.uleb128 0x9
 840 025b 04       		.byte	0x4
 841 025c 05010000 		.4byte	0x105
 842 0260 04       		.uleb128 0x4
 843 0261 30040000 		.4byte	.LASF43
 844 0265 04       		.byte	0x4
 845 0266 66       		.byte	0x66
 846 0267 35020000 		.4byte	0x235
 847 026b 08       		.uleb128 0x8
 848 026c 04       		.byte	0x4
 849 026d 04       		.byte	0x4
 850 026e 6B       		.byte	0x6b
ARM GAS  /var/folders/ng/s8655sgx1ys_4lf9jzm2w6n00000gn/T//cc9MW9Dp.s 			page 16


 851 026f 82020000 		.4byte	0x282
 852 0273 06       		.uleb128 0x6
 853 0274 54050000 		.4byte	.LASF24
 854 0278 04       		.byte	0x4
 855 0279 6D       		.byte	0x6d
 856 027a 5A020000 		.4byte	0x25a
 857 027e 02       		.byte	0x2
 858 027f 23       		.byte	0x23
 859 0280 00       		.uleb128 0
 860 0281 00       		.byte	0
 861 0282 04       		.uleb128 0x4
 862 0283 53030000 		.4byte	.LASF44
 863 0287 04       		.byte	0x4
 864 0288 70       		.byte	0x70
 865 0289 6B020000 		.4byte	0x26b
 866 028d 04       		.uleb128 0x4
 867 028e 77020000 		.4byte	.LASF45
 868 0292 06       		.byte	0x6
 869 0293 E5       		.byte	0xe5
 870 0294 98020000 		.4byte	0x298
 871 0298 0A       		.uleb128 0xa
 872 0299 04       		.byte	0x4
 873 029a 0B       		.uleb128 0xb
 874 029b 7F060000 		.4byte	.LASF46
 875 029f 64       		.byte	0x64
 876 02a0 06       		.byte	0x6
 877 02a1 0C01     		.2byte	0x10c
 878 02a3 18040000 		.4byte	0x418
 879 02a7 0C       		.uleb128 0xc
 880 02a8 73313600 		.ascii	"s16\000"
 881 02ac 06       		.byte	0x6
 882 02ad 0E01     		.2byte	0x10e
 883 02af 8D020000 		.4byte	0x28d
 884 02b3 02       		.byte	0x2
 885 02b4 23       		.byte	0x23
 886 02b5 00       		.uleb128 0
 887 02b6 0C       		.uleb128 0xc
 888 02b7 73313700 		.ascii	"s17\000"
 889 02bb 06       		.byte	0x6
 890 02bc 0F01     		.2byte	0x10f
 891 02be 8D020000 		.4byte	0x28d
 892 02c2 02       		.byte	0x2
 893 02c3 23       		.byte	0x23
 894 02c4 04       		.uleb128 0x4
 895 02c5 0C       		.uleb128 0xc
 896 02c6 73313800 		.ascii	"s18\000"
 897 02ca 06       		.byte	0x6
 898 02cb 1001     		.2byte	0x110
 899 02cd 8D020000 		.4byte	0x28d
 900 02d1 02       		.byte	0x2
 901 02d2 23       		.byte	0x23
 902 02d3 08       		.uleb128 0x8
 903 02d4 0C       		.uleb128 0xc
 904 02d5 73313900 		.ascii	"s19\000"
 905 02d9 06       		.byte	0x6
 906 02da 1101     		.2byte	0x111
 907 02dc 8D020000 		.4byte	0x28d
ARM GAS  /var/folders/ng/s8655sgx1ys_4lf9jzm2w6n00000gn/T//cc9MW9Dp.s 			page 17


 908 02e0 02       		.byte	0x2
 909 02e1 23       		.byte	0x23
 910 02e2 0C       		.uleb128 0xc
 911 02e3 0C       		.uleb128 0xc
 912 02e4 73323000 		.ascii	"s20\000"
 913 02e8 06       		.byte	0x6
 914 02e9 1201     		.2byte	0x112
 915 02eb 8D020000 		.4byte	0x28d
 916 02ef 02       		.byte	0x2
 917 02f0 23       		.byte	0x23
 918 02f1 10       		.uleb128 0x10
 919 02f2 0C       		.uleb128 0xc
 920 02f3 73323100 		.ascii	"s21\000"
 921 02f7 06       		.byte	0x6
 922 02f8 1301     		.2byte	0x113
 923 02fa 8D020000 		.4byte	0x28d
 924 02fe 02       		.byte	0x2
 925 02ff 23       		.byte	0x23
 926 0300 14       		.uleb128 0x14
 927 0301 0C       		.uleb128 0xc
 928 0302 73323200 		.ascii	"s22\000"
 929 0306 06       		.byte	0x6
 930 0307 1401     		.2byte	0x114
 931 0309 8D020000 		.4byte	0x28d
 932 030d 02       		.byte	0x2
 933 030e 23       		.byte	0x23
 934 030f 18       		.uleb128 0x18
 935 0310 0C       		.uleb128 0xc
 936 0311 73323300 		.ascii	"s23\000"
 937 0315 06       		.byte	0x6
 938 0316 1501     		.2byte	0x115
 939 0318 8D020000 		.4byte	0x28d
 940 031c 02       		.byte	0x2
 941 031d 23       		.byte	0x23
 942 031e 1C       		.uleb128 0x1c
 943 031f 0C       		.uleb128 0xc
 944 0320 73323400 		.ascii	"s24\000"
 945 0324 06       		.byte	0x6
 946 0325 1601     		.2byte	0x116
 947 0327 8D020000 		.4byte	0x28d
 948 032b 02       		.byte	0x2
 949 032c 23       		.byte	0x23
 950 032d 20       		.uleb128 0x20
 951 032e 0C       		.uleb128 0xc
 952 032f 73323500 		.ascii	"s25\000"
 953 0333 06       		.byte	0x6
 954 0334 1701     		.2byte	0x117
 955 0336 8D020000 		.4byte	0x28d
 956 033a 02       		.byte	0x2
 957 033b 23       		.byte	0x23
 958 033c 24       		.uleb128 0x24
 959 033d 0C       		.uleb128 0xc
 960 033e 73323600 		.ascii	"s26\000"
 961 0342 06       		.byte	0x6
 962 0343 1801     		.2byte	0x118
 963 0345 8D020000 		.4byte	0x28d
 964 0349 02       		.byte	0x2
ARM GAS  /var/folders/ng/s8655sgx1ys_4lf9jzm2w6n00000gn/T//cc9MW9Dp.s 			page 18


 965 034a 23       		.byte	0x23
 966 034b 28       		.uleb128 0x28
 967 034c 0C       		.uleb128 0xc
 968 034d 73323700 		.ascii	"s27\000"
 969 0351 06       		.byte	0x6
 970 0352 1901     		.2byte	0x119
 971 0354 8D020000 		.4byte	0x28d
 972 0358 02       		.byte	0x2
 973 0359 23       		.byte	0x23
 974 035a 2C       		.uleb128 0x2c
 975 035b 0C       		.uleb128 0xc
 976 035c 73323800 		.ascii	"s28\000"
 977 0360 06       		.byte	0x6
 978 0361 1A01     		.2byte	0x11a
 979 0363 8D020000 		.4byte	0x28d
 980 0367 02       		.byte	0x2
 981 0368 23       		.byte	0x23
 982 0369 30       		.uleb128 0x30
 983 036a 0C       		.uleb128 0xc
 984 036b 73323900 		.ascii	"s29\000"
 985 036f 06       		.byte	0x6
 986 0370 1B01     		.2byte	0x11b
 987 0372 8D020000 		.4byte	0x28d
 988 0376 02       		.byte	0x2
 989 0377 23       		.byte	0x23
 990 0378 34       		.uleb128 0x34
 991 0379 0C       		.uleb128 0xc
 992 037a 73333000 		.ascii	"s30\000"
 993 037e 06       		.byte	0x6
 994 037f 1C01     		.2byte	0x11c
 995 0381 8D020000 		.4byte	0x28d
 996 0385 02       		.byte	0x2
 997 0386 23       		.byte	0x23
 998 0387 38       		.uleb128 0x38
 999 0388 0C       		.uleb128 0xc
 1000 0389 73333100 		.ascii	"s31\000"
 1001 038d 06       		.byte	0x6
 1002 038e 1D01     		.2byte	0x11d
 1003 0390 8D020000 		.4byte	0x28d
 1004 0394 02       		.byte	0x2
 1005 0395 23       		.byte	0x23
 1006 0396 3C       		.uleb128 0x3c
 1007 0397 0C       		.uleb128 0xc
 1008 0398 723400   		.ascii	"r4\000"
 1009 039b 06       		.byte	0x6
 1010 039c 1F01     		.2byte	0x11f
 1011 039e 8D020000 		.4byte	0x28d
 1012 03a2 02       		.byte	0x2
 1013 03a3 23       		.byte	0x23
 1014 03a4 40       		.uleb128 0x40
 1015 03a5 0C       		.uleb128 0xc
 1016 03a6 723500   		.ascii	"r5\000"
 1017 03a9 06       		.byte	0x6
 1018 03aa 2001     		.2byte	0x120
 1019 03ac 8D020000 		.4byte	0x28d
 1020 03b0 02       		.byte	0x2
 1021 03b1 23       		.byte	0x23
ARM GAS  /var/folders/ng/s8655sgx1ys_4lf9jzm2w6n00000gn/T//cc9MW9Dp.s 			page 19


 1022 03b2 44       		.uleb128 0x44
 1023 03b3 0C       		.uleb128 0xc
 1024 03b4 723600   		.ascii	"r6\000"
 1025 03b7 06       		.byte	0x6
 1026 03b8 2101     		.2byte	0x121
 1027 03ba 8D020000 		.4byte	0x28d
 1028 03be 02       		.byte	0x2
 1029 03bf 23       		.byte	0x23
 1030 03c0 48       		.uleb128 0x48
 1031 03c1 0C       		.uleb128 0xc
 1032 03c2 723700   		.ascii	"r7\000"
 1033 03c5 06       		.byte	0x6
 1034 03c6 2201     		.2byte	0x122
 1035 03c8 8D020000 		.4byte	0x28d
 1036 03cc 02       		.byte	0x2
 1037 03cd 23       		.byte	0x23
 1038 03ce 4C       		.uleb128 0x4c
 1039 03cf 0C       		.uleb128 0xc
 1040 03d0 723800   		.ascii	"r8\000"
 1041 03d3 06       		.byte	0x6
 1042 03d4 2301     		.2byte	0x123
 1043 03d6 8D020000 		.4byte	0x28d
 1044 03da 02       		.byte	0x2
 1045 03db 23       		.byte	0x23
 1046 03dc 50       		.uleb128 0x50
 1047 03dd 0C       		.uleb128 0xc
 1048 03de 723900   		.ascii	"r9\000"
 1049 03e1 06       		.byte	0x6
 1050 03e2 2401     		.2byte	0x124
 1051 03e4 8D020000 		.4byte	0x28d
 1052 03e8 02       		.byte	0x2
 1053 03e9 23       		.byte	0x23
 1054 03ea 54       		.uleb128 0x54
 1055 03eb 0C       		.uleb128 0xc
 1056 03ec 72313000 		.ascii	"r10\000"
 1057 03f0 06       		.byte	0x6
 1058 03f1 2501     		.2byte	0x125
 1059 03f3 8D020000 		.4byte	0x28d
 1060 03f7 02       		.byte	0x2
 1061 03f8 23       		.byte	0x23
 1062 03f9 58       		.uleb128 0x58
 1063 03fa 0C       		.uleb128 0xc
 1064 03fb 72313100 		.ascii	"r11\000"
 1065 03ff 06       		.byte	0x6
 1066 0400 2601     		.2byte	0x126
 1067 0402 8D020000 		.4byte	0x28d
 1068 0406 02       		.byte	0x2
 1069 0407 23       		.byte	0x23
 1070 0408 5C       		.uleb128 0x5c
 1071 0409 0C       		.uleb128 0xc
 1072 040a 6C7200   		.ascii	"lr\000"
 1073 040d 06       		.byte	0x6
 1074 040e 2701     		.2byte	0x127
 1075 0410 8D020000 		.4byte	0x28d
 1076 0414 02       		.byte	0x2
 1077 0415 23       		.byte	0x23
 1078 0416 60       		.uleb128 0x60
ARM GAS  /var/folders/ng/s8655sgx1ys_4lf9jzm2w6n00000gn/T//cc9MW9Dp.s 			page 20


 1079 0417 00       		.byte	0
 1080 0418 0B       		.uleb128 0xb
 1081 0419 6C060000 		.4byte	.LASF47
 1082 041d 04       		.byte	0x4
 1083 041e 06       		.byte	0x6
 1084 041f 3101     		.2byte	0x131
 1085 0421 35040000 		.4byte	0x435
 1086 0425 0C       		.uleb128 0xc
 1087 0426 72313300 		.ascii	"r13\000"
 1088 042a 06       		.byte	0x6
 1089 042b 3201     		.2byte	0x132
 1090 042d 35040000 		.4byte	0x435
 1091 0431 02       		.byte	0x2
 1092 0432 23       		.byte	0x23
 1093 0433 00       		.uleb128 0
 1094 0434 00       		.byte	0
 1095 0435 09       		.uleb128 0x9
 1096 0436 04       		.byte	0x4
 1097 0437 9A020000 		.4byte	0x29a
 1098 043b 0D       		.uleb128 0xd
 1099 043c 7B000000 		.4byte	0x7b
 1100 0440 03       		.uleb128 0x3
 1101 0441 04       		.byte	0x4
 1102 0442 07       		.byte	0x7
 1103 0443 DA030000 		.4byte	.LASF48
 1104 0447 0D       		.uleb128 0xd
 1105 0448 FA000000 		.4byte	0xfa
 1106 044c 05       		.uleb128 0x5
 1107 044d E9030000 		.4byte	.LASF49
 1108 0451 10       		.byte	0x10
 1109 0452 07       		.byte	0x7
 1110 0453 2C       		.byte	0x2c
 1111 0454 83040000 		.4byte	0x483
 1112 0458 06       		.uleb128 0x6
 1113 0459 4D010000 		.4byte	.LASF50
 1114 045d 07       		.byte	0x7
 1115 045e 2D       		.byte	0x2d
 1116 045f 60020000 		.4byte	0x260
 1117 0463 02       		.byte	0x2
 1118 0464 23       		.byte	0x23
 1119 0465 00       		.uleb128 0
 1120 0466 06       		.uleb128 0x6
 1121 0467 0E070000 		.4byte	.LASF51
 1122 046b 07       		.byte	0x7
 1123 046c 2F       		.byte	0x2f
 1124 046d 5A020000 		.4byte	0x25a
 1125 0471 02       		.byte	0x2
 1126 0472 23       		.byte	0x23
 1127 0473 08       		.uleb128 0x8
 1128 0474 06       		.uleb128 0x6
 1129 0475 1E060000 		.4byte	.LASF52
 1130 0479 07       		.byte	0x7
 1131 047a 31       		.byte	0x31
 1132 047b 83040000 		.4byte	0x483
 1133 047f 02       		.byte	0x2
 1134 0480 23       		.byte	0x23
 1135 0481 0C       		.uleb128 0xc
ARM GAS  /var/folders/ng/s8655sgx1ys_4lf9jzm2w6n00000gn/T//cc9MW9Dp.s 			page 21


 1136 0482 00       		.byte	0
 1137 0483 09       		.uleb128 0x9
 1138 0484 04       		.byte	0x4
 1139 0485 4C040000 		.4byte	0x44c
 1140 0489 04       		.uleb128 0x4
 1141 048a E9030000 		.4byte	.LASF49
 1142 048e 07       		.byte	0x7
 1143 048f 33       		.byte	0x33
 1144 0490 4C040000 		.4byte	0x44c
 1145 0494 0E       		.uleb128 0xe
 1146 0495 04       		.byte	0x4
 1147 0496 05       		.byte	0x5
 1148 0497 96       		.byte	0x96
 1149 0498 C9040000 		.4byte	0x4c9
 1150 049c 0F       		.uleb128 0xf
 1151 049d 43000000 		.4byte	.LASF53
 1152 04a1 05       		.byte	0x5
 1153 04a2 9D       		.byte	0x9d
 1154 04a3 E4000000 		.4byte	0xe4
 1155 04a7 0F       		.uleb128 0xf
 1156 04a8 C3000000 		.4byte	.LASF54
 1157 04ac 05       		.byte	0x5
 1158 04ad A4       		.byte	0xa4
 1159 04ae E4000000 		.4byte	0xe4
 1160 04b2 0F       		.uleb128 0xf
 1161 04b3 D7060000 		.4byte	.LASF55
 1162 04b7 05       		.byte	0x5
 1163 04b8 AB       		.byte	0xab
 1164 04b9 98020000 		.4byte	0x298
 1165 04bd 0F       		.uleb128 0xf
 1166 04be 4D050000 		.4byte	.LASF56
 1167 04c2 05       		.byte	0x5
 1168 04c3 B2       		.byte	0xb2
 1169 04c4 EF000000 		.4byte	0xef
 1170 04c8 00       		.byte	0
 1171 04c9 09       		.uleb128 0x9
 1172 04ca 04       		.byte	0x4
 1173 04cb CF040000 		.4byte	0x4cf
 1174 04cf 10       		.uleb128 0x10
 1175 04d0 D4040000 		.4byte	0x4d4
 1176 04d4 03       		.uleb128 0x3
 1177 04d5 01       		.byte	0x1
 1178 04d6 08       		.byte	0x8
 1179 04d7 E8050000 		.4byte	.LASF57
 1180 04db 09       		.uleb128 0x9
 1181 04dc 04       		.byte	0x4
 1182 04dd 89040000 		.4byte	0x489
 1183 04e1 09       		.uleb128 0x9
 1184 04e2 04       		.byte	0x4
 1185 04e3 3E000000 		.4byte	0x3e
 1186 04e7 09       		.uleb128 0x9
 1187 04e8 04       		.byte	0x4
 1188 04e9 ED040000 		.4byte	0x4ed
 1189 04ed 10       		.uleb128 0x10
 1190 04ee 3E000000 		.4byte	0x3e
 1191 04f2 11       		.uleb128 0x11
 1192 04f3 7B000000 		.4byte	0x7b
ARM GAS  /var/folders/ng/s8655sgx1ys_4lf9jzm2w6n00000gn/T//cc9MW9Dp.s 			page 22


 1193 04f7 02050000 		.4byte	0x502
 1194 04fb 12       		.uleb128 0x12
 1195 04fc 40040000 		.4byte	0x440
 1196 0500 03       		.byte	0x3
 1197 0501 00       		.byte	0
 1198 0502 0D       		.uleb128 0xd
 1199 0503 57000000 		.4byte	0x57
 1200 0507 0D       		.uleb128 0xd
 1201 0508 69000000 		.4byte	0x69
 1202 050c 13       		.uleb128 0x13
 1203 050d 18       		.byte	0x18
 1204 050e 08       		.byte	0x8
 1205 050f B102     		.2byte	0x2b1
 1206 0511 6F050000 		.4byte	0x56f
 1207 0515 0C       		.uleb128 0xc
 1208 0516 435200   		.ascii	"CR\000"
 1209 0519 08       		.byte	0x8
 1210 051a B302     		.2byte	0x2b3
 1211 051c 3B040000 		.4byte	0x43b
 1212 0520 02       		.byte	0x2
 1213 0521 23       		.byte	0x23
 1214 0522 00       		.uleb128 0
 1215 0523 14       		.uleb128 0x14
 1216 0524 49060000 		.4byte	.LASF58
 1217 0528 08       		.byte	0x8
 1218 0529 B402     		.2byte	0x2b4
 1219 052b 3B040000 		.4byte	0x43b
 1220 052f 02       		.byte	0x2
 1221 0530 23       		.byte	0x23
 1222 0531 04       		.uleb128 0x4
 1223 0532 0C       		.uleb128 0xc
 1224 0533 50415200 		.ascii	"PAR\000"
 1225 0537 08       		.byte	0x8
 1226 0538 B502     		.2byte	0x2b5
 1227 053a 3B040000 		.4byte	0x43b
 1228 053e 02       		.byte	0x2
 1229 053f 23       		.byte	0x23
 1230 0540 08       		.uleb128 0x8
 1231 0541 14       		.uleb128 0x14
 1232 0542 2F000000 		.4byte	.LASF59
 1233 0546 08       		.byte	0x8
 1234 0547 B602     		.2byte	0x2b6
 1235 0549 3B040000 		.4byte	0x43b
 1236 054d 02       		.byte	0x2
 1237 054e 23       		.byte	0x23
 1238 054f 0C       		.uleb128 0xc
 1239 0550 14       		.uleb128 0x14
 1240 0551 92060000 		.4byte	.LASF60
 1241 0555 08       		.byte	0x8
 1242 0556 B702     		.2byte	0x2b7
 1243 0558 3B040000 		.4byte	0x43b
 1244 055c 02       		.byte	0x2
 1245 055d 23       		.byte	0x23
 1246 055e 10       		.uleb128 0x10
 1247 055f 0C       		.uleb128 0xc
 1248 0560 46435200 		.ascii	"FCR\000"
 1249 0564 08       		.byte	0x8
ARM GAS  /var/folders/ng/s8655sgx1ys_4lf9jzm2w6n00000gn/T//cc9MW9Dp.s 			page 23


 1250 0565 B802     		.2byte	0x2b8
 1251 0567 3B040000 		.4byte	0x43b
 1252 056b 02       		.byte	0x2
 1253 056c 23       		.byte	0x23
 1254 056d 14       		.uleb128 0x14
 1255 056e 00       		.byte	0
 1256 056f 15       		.uleb128 0x15
 1257 0570 4E060000 		.4byte	.LASF61
 1258 0574 08       		.byte	0x8
 1259 0575 B902     		.2byte	0x2b9
 1260 0577 0C050000 		.4byte	0x50c
 1261 057b 13       		.uleb128 0x13
 1262 057c 24       		.byte	0x24
 1263 057d 08       		.byte	0x8
 1264 057e E304     		.2byte	0x4e3
 1265 0580 91060000 		.4byte	0x691
 1266 0584 0C       		.uleb128 0xc
 1267 0585 43523100 		.ascii	"CR1\000"
 1268 0589 08       		.byte	0x8
 1269 058a E504     		.2byte	0x4e5
 1270 058c 02050000 		.4byte	0x502
 1271 0590 02       		.byte	0x2
 1272 0591 23       		.byte	0x23
 1273 0592 00       		.uleb128 0
 1274 0593 14       		.uleb128 0x14
 1275 0594 87040000 		.4byte	.LASF62
 1276 0598 08       		.byte	0x8
 1277 0599 E604     		.2byte	0x4e6
 1278 059b 57000000 		.4byte	0x57
 1279 059f 02       		.byte	0x2
 1280 05a0 23       		.byte	0x23
 1281 05a1 02       		.uleb128 0x2
 1282 05a2 0C       		.uleb128 0xc
 1283 05a3 43523200 		.ascii	"CR2\000"
 1284 05a7 08       		.byte	0x8
 1285 05a8 E704     		.2byte	0x4e7
 1286 05aa 02050000 		.4byte	0x502
 1287 05ae 02       		.byte	0x2
 1288 05af 23       		.byte	0x23
 1289 05b0 04       		.uleb128 0x4
 1290 05b1 14       		.uleb128 0x14
 1291 05b2 91040000 		.4byte	.LASF63
 1292 05b6 08       		.byte	0x8
 1293 05b7 E804     		.2byte	0x4e8
 1294 05b9 57000000 		.4byte	0x57
 1295 05bd 02       		.byte	0x2
 1296 05be 23       		.byte	0x23
 1297 05bf 06       		.uleb128 0x6
 1298 05c0 0C       		.uleb128 0xc
 1299 05c1 535200   		.ascii	"SR\000"
 1300 05c4 08       		.byte	0x8
 1301 05c5 E904     		.2byte	0x4e9
 1302 05c7 02050000 		.4byte	0x502
 1303 05cb 02       		.byte	0x2
 1304 05cc 23       		.byte	0x23
 1305 05cd 08       		.uleb128 0x8
 1306 05ce 14       		.uleb128 0x14
ARM GAS  /var/folders/ng/s8655sgx1ys_4lf9jzm2w6n00000gn/T//cc9MW9Dp.s 			page 24


 1307 05cf 9B040000 		.4byte	.LASF64
 1308 05d3 08       		.byte	0x8
 1309 05d4 EA04     		.2byte	0x4ea
 1310 05d6 57000000 		.4byte	0x57
 1311 05da 02       		.byte	0x2
 1312 05db 23       		.byte	0x23
 1313 05dc 0A       		.uleb128 0xa
 1314 05dd 0C       		.uleb128 0xc
 1315 05de 445200   		.ascii	"DR\000"
 1316 05e1 08       		.byte	0x8
 1317 05e2 EB04     		.2byte	0x4eb
 1318 05e4 02050000 		.4byte	0x502
 1319 05e8 02       		.byte	0x2
 1320 05e9 23       		.byte	0x23
 1321 05ea 0C       		.uleb128 0xc
 1322 05eb 14       		.uleb128 0x14
 1323 05ec A5040000 		.4byte	.LASF65
 1324 05f0 08       		.byte	0x8
 1325 05f1 EC04     		.2byte	0x4ec
 1326 05f3 57000000 		.4byte	0x57
 1327 05f7 02       		.byte	0x2
 1328 05f8 23       		.byte	0x23
 1329 05f9 0E       		.uleb128 0xe
 1330 05fa 14       		.uleb128 0x14
 1331 05fb 75040000 		.4byte	.LASF66
 1332 05ff 08       		.byte	0x8
 1333 0600 ED04     		.2byte	0x4ed
 1334 0602 02050000 		.4byte	0x502
 1335 0606 02       		.byte	0x2
 1336 0607 23       		.byte	0x23
 1337 0608 10       		.uleb128 0x10
 1338 0609 14       		.uleb128 0x14
 1339 060a AF040000 		.4byte	.LASF67
 1340 060e 08       		.byte	0x8
 1341 060f EE04     		.2byte	0x4ee
 1342 0611 57000000 		.4byte	0x57
 1343 0615 02       		.byte	0x2
 1344 0616 23       		.byte	0x23
 1345 0617 12       		.uleb128 0x12
 1346 0618 14       		.uleb128 0x14
 1347 0619 34000000 		.4byte	.LASF68
 1348 061d 08       		.byte	0x8
 1349 061e EF04     		.2byte	0x4ef
 1350 0620 02050000 		.4byte	0x502
 1351 0624 02       		.byte	0x2
 1352 0625 23       		.byte	0x23
 1353 0626 14       		.uleb128 0x14
 1354 0627 14       		.uleb128 0x14
 1355 0628 9A050000 		.4byte	.LASF69
 1356 062c 08       		.byte	0x8
 1357 062d F004     		.2byte	0x4f0
 1358 062f 57000000 		.4byte	0x57
 1359 0633 02       		.byte	0x2
 1360 0634 23       		.byte	0x23
 1361 0635 16       		.uleb128 0x16
 1362 0636 14       		.uleb128 0x14
 1363 0637 80040000 		.4byte	.LASF70
ARM GAS  /var/folders/ng/s8655sgx1ys_4lf9jzm2w6n00000gn/T//cc9MW9Dp.s 			page 25


 1364 063b 08       		.byte	0x8
 1365 063c F104     		.2byte	0x4f1
 1366 063e 02050000 		.4byte	0x502
 1367 0642 02       		.byte	0x2
 1368 0643 23       		.byte	0x23
 1369 0644 18       		.uleb128 0x18
 1370 0645 14       		.uleb128 0x14
 1371 0646 C0040000 		.4byte	.LASF71
 1372 064a 08       		.byte	0x8
 1373 064b F204     		.2byte	0x4f2
 1374 064d 57000000 		.4byte	0x57
 1375 0651 02       		.byte	0x2
 1376 0652 23       		.byte	0x23
 1377 0653 1A       		.uleb128 0x1a
 1378 0654 14       		.uleb128 0x14
 1379 0655 3E010000 		.4byte	.LASF72
 1380 0659 08       		.byte	0x8
 1381 065a F304     		.2byte	0x4f3
 1382 065c 02050000 		.4byte	0x502
 1383 0660 02       		.byte	0x2
 1384 0661 23       		.byte	0x23
 1385 0662 1C       		.uleb128 0x1c
 1386 0663 14       		.uleb128 0x14
 1387 0664 CA040000 		.4byte	.LASF73
 1388 0668 08       		.byte	0x8
 1389 0669 F404     		.2byte	0x4f4
 1390 066b 57000000 		.4byte	0x57
 1391 066f 02       		.byte	0x2
 1392 0670 23       		.byte	0x23
 1393 0671 1E       		.uleb128 0x1e
 1394 0672 14       		.uleb128 0x14
 1395 0673 D4030000 		.4byte	.LASF74
 1396 0677 08       		.byte	0x8
 1397 0678 F504     		.2byte	0x4f5
 1398 067a 02050000 		.4byte	0x502
 1399 067e 02       		.byte	0x2
 1400 067f 23       		.byte	0x23
 1401 0680 20       		.uleb128 0x20
 1402 0681 14       		.uleb128 0x14
 1403 0682 D4040000 		.4byte	.LASF75
 1404 0686 08       		.byte	0x8
 1405 0687 F604     		.2byte	0x4f6
 1406 0689 57000000 		.4byte	0x57
 1407 068d 02       		.byte	0x2
 1408 068e 23       		.byte	0x23
 1409 068f 22       		.uleb128 0x22
 1410 0690 00       		.byte	0
 1411 0691 15       		.uleb128 0x15
 1412 0692 D7050000 		.4byte	.LASF76
 1413 0696 08       		.byte	0x8
 1414 0697 F704     		.2byte	0x4f7
 1415 0699 7B050000 		.4byte	0x57b
 1416 069d 08       		.uleb128 0x8
 1417 069e 0C       		.byte	0xc
 1418 069f 09       		.byte	0x9
 1419 06a0 DA       		.byte	0xda
 1420 06a1 EC060000 		.4byte	0x6ec
ARM GAS  /var/folders/ng/s8655sgx1ys_4lf9jzm2w6n00000gn/T//cc9MW9Dp.s 			page 26


 1421 06a5 06       		.uleb128 0x6
 1422 06a6 81000000 		.4byte	.LASF77
 1423 06aa 09       		.byte	0x9
 1424 06ab DB       		.byte	0xdb
 1425 06ac EC060000 		.4byte	0x6ec
 1426 06b0 02       		.byte	0x2
 1427 06b1 23       		.byte	0x23
 1428 06b2 00       		.uleb128 0
 1429 06b3 06       		.uleb128 0x6
 1430 06b4 95050000 		.4byte	.LASF78
 1431 06b8 09       		.byte	0x9
 1432 06b9 DC       		.byte	0xdc
 1433 06ba F2060000 		.4byte	0x6f2
 1434 06be 02       		.byte	0x2
 1435 06bf 23       		.byte	0x23
 1436 06c0 04       		.uleb128 0x4
 1437 06c1 06       		.uleb128 0x6
 1438 06c2 ED020000 		.4byte	.LASF79
 1439 06c6 09       		.byte	0x9
 1440 06c7 DD       		.byte	0xdd
 1441 06c8 3E000000 		.4byte	0x3e
 1442 06cc 02       		.byte	0x2
 1443 06cd 23       		.byte	0x23
 1444 06ce 08       		.uleb128 0x8
 1445 06cf 06       		.uleb128 0x6
 1446 06d0 80020000 		.4byte	.LASF80
 1447 06d4 09       		.byte	0x9
 1448 06d5 DF       		.byte	0xdf
 1449 06d6 3E000000 		.4byte	0x3e
 1450 06da 02       		.byte	0x2
 1451 06db 23       		.byte	0x23
 1452 06dc 09       		.uleb128 0x9
 1453 06dd 06       		.uleb128 0x6
 1454 06de 16070000 		.4byte	.LASF81
 1455 06e2 09       		.byte	0x9
 1456 06e3 E0       		.byte	0xe0
 1457 06e4 3E000000 		.4byte	0x3e
 1458 06e8 02       		.byte	0x2
 1459 06e9 23       		.byte	0x23
 1460 06ea 0A       		.uleb128 0xa
 1461 06eb 00       		.byte	0
 1462 06ec 09       		.uleb128 0x9
 1463 06ed 04       		.byte	0x4
 1464 06ee 6F050000 		.4byte	0x56f
 1465 06f2 09       		.uleb128 0x9
 1466 06f3 04       		.byte	0x4
 1467 06f4 3B040000 		.4byte	0x43b
 1468 06f8 04       		.uleb128 0x4
 1469 06f9 08050000 		.4byte	.LASF82
 1470 06fd 09       		.byte	0x9
 1471 06fe E1       		.byte	0xe1
 1472 06ff 9D060000 		.4byte	0x69d
 1473 0703 16       		.uleb128 0x16
 1474 0704 01       		.byte	0x1
 1475 0705 0A       		.byte	0xa
 1476 0706 33       		.byte	0x33
 1477 0707 42070000 		.4byte	0x742
ARM GAS  /var/folders/ng/s8655sgx1ys_4lf9jzm2w6n00000gn/T//cc9MW9Dp.s 			page 27


 1478 070b 17       		.uleb128 0x17
 1479 070c 76010000 		.4byte	.LASF83
 1480 0710 00       		.sleb128 0
 1481 0711 17       		.uleb128 0x17
 1482 0712 49020000 		.4byte	.LASF84
 1483 0716 01       		.sleb128 1
 1484 0717 17       		.uleb128 0x17
 1485 0718 07030000 		.4byte	.LASF85
 1486 071c 02       		.sleb128 2
 1487 071d 17       		.uleb128 0x17
 1488 071e 2E030000 		.4byte	.LASF86
 1489 0722 03       		.sleb128 3
 1490 0723 17       		.uleb128 0x17
 1491 0724 FA050000 		.4byte	.LASF87
 1492 0728 04       		.sleb128 4
 1493 0729 17       		.uleb128 0x17
 1494 072a 26040000 		.4byte	.LASF88
 1495 072e 05       		.sleb128 5
 1496 072f 17       		.uleb128 0x17
 1497 0730 C8030000 		.4byte	.LASF89
 1498 0734 06       		.sleb128 6
 1499 0735 17       		.uleb128 0x17
 1500 0736 37050000 		.4byte	.LASF90
 1501 073a 07       		.sleb128 7
 1502 073b 17       		.uleb128 0x17
 1503 073c 03040000 		.4byte	.LASF91
 1504 0740 08       		.sleb128 8
 1505 0741 00       		.byte	0
 1506 0742 04       		.uleb128 0x4
 1507 0743 FC000000 		.4byte	.LASF92
 1508 0747 0A       		.byte	0xa
 1509 0748 3D       		.byte	0x3d
 1510 0749 03070000 		.4byte	0x703
 1511 074d 08       		.uleb128 0x8
 1512 074e 08       		.byte	0x8
 1513 074f 0A       		.byte	0xa
 1514 0750 42       		.byte	0x42
 1515 0751 72070000 		.4byte	0x772
 1516 0755 06       		.uleb128 0x6
 1517 0756 95020000 		.4byte	.LASF93
 1518 075a 0A       		.byte	0xa
 1519 075b 43       		.byte	0x43
 1520 075c 7B000000 		.4byte	0x7b
 1521 0760 02       		.byte	0x2
 1522 0761 23       		.byte	0x23
 1523 0762 00       		.uleb128 0
 1524 0763 06       		.uleb128 0x6
 1525 0764 3B000000 		.4byte	.LASF94
 1526 0768 0A       		.byte	0xa
 1527 0769 44       		.byte	0x44
 1528 076a 7B000000 		.4byte	0x7b
 1529 076e 02       		.byte	0x2
 1530 076f 23       		.byte	0x23
 1531 0770 04       		.uleb128 0x4
 1532 0771 00       		.byte	0
 1533 0772 04       		.uleb128 0x4
 1534 0773 00000000 		.4byte	.LASF95
ARM GAS  /var/folders/ng/s8655sgx1ys_4lf9jzm2w6n00000gn/T//cc9MW9Dp.s 			page 28


 1535 0777 0A       		.byte	0xa
 1536 0778 45       		.byte	0x45
 1537 0779 4D070000 		.4byte	0x74d
 1538 077d 18       		.uleb128 0x18
 1539 077e 01       		.byte	0x1
 1540 077f 9B000000 		.4byte	0x9b
 1541 0783 8D070000 		.4byte	0x78d
 1542 0787 19       		.uleb128 0x19
 1543 0788 98020000 		.4byte	0x298
 1544 078c 00       		.byte	0
 1545 078d 09       		.uleb128 0x9
 1546 078e 04       		.byte	0x4
 1547 078f 7D070000 		.4byte	0x77d
 1548 0793 18       		.uleb128 0x18
 1549 0794 01       		.byte	0x1
 1550 0795 9B000000 		.4byte	0x9b
 1551 0799 B2070000 		.4byte	0x7b2
 1552 079d 19       		.uleb128 0x19
 1553 079e 98020000 		.4byte	0x298
 1554 07a2 19       		.uleb128 0x19
 1555 07a3 7B000000 		.4byte	0x7b
 1556 07a7 19       		.uleb128 0x19
 1557 07a8 E1040000 		.4byte	0x4e1
 1558 07ac 19       		.uleb128 0x19
 1559 07ad 7B000000 		.4byte	0x7b
 1560 07b1 00       		.byte	0
 1561 07b2 09       		.uleb128 0x9
 1562 07b3 04       		.byte	0x4
 1563 07b4 93070000 		.4byte	0x793
 1564 07b8 18       		.uleb128 0x18
 1565 07b9 01       		.byte	0x1
 1566 07ba 9B000000 		.4byte	0x9b
 1567 07be D7070000 		.4byte	0x7d7
 1568 07c2 19       		.uleb128 0x19
 1569 07c3 98020000 		.4byte	0x298
 1570 07c7 19       		.uleb128 0x19
 1571 07c8 7B000000 		.4byte	0x7b
 1572 07cc 19       		.uleb128 0x19
 1573 07cd E7040000 		.4byte	0x4e7
 1574 07d1 19       		.uleb128 0x19
 1575 07d2 7B000000 		.4byte	0x7b
 1576 07d6 00       		.byte	0
 1577 07d7 09       		.uleb128 0x9
 1578 07d8 04       		.byte	0x4
 1579 07d9 B8070000 		.4byte	0x7b8
 1580 07dd 18       		.uleb128 0x18
 1581 07de 01       		.byte	0x1
 1582 07df 9B000000 		.4byte	0x9b
 1583 07e3 F2070000 		.4byte	0x7f2
 1584 07e7 19       		.uleb128 0x19
 1585 07e8 98020000 		.4byte	0x298
 1586 07ec 19       		.uleb128 0x19
 1587 07ed F2070000 		.4byte	0x7f2
 1588 07f1 00       		.byte	0
 1589 07f2 09       		.uleb128 0x9
 1590 07f3 04       		.byte	0x4
 1591 07f4 72070000 		.4byte	0x772
ARM GAS  /var/folders/ng/s8655sgx1ys_4lf9jzm2w6n00000gn/T//cc9MW9Dp.s 			page 29


 1592 07f8 09       		.uleb128 0x9
 1593 07f9 04       		.byte	0x4
 1594 07fa DD070000 		.4byte	0x7dd
 1595 07fe 08       		.uleb128 0x8
 1596 07ff 04       		.byte	0x4
 1597 0800 0B       		.byte	0xb
 1598 0801 96       		.byte	0x96
 1599 0802 23080000 		.4byte	0x823
 1600 0806 07       		.uleb128 0x7
 1601 0807 73657400 		.ascii	"set\000"
 1602 080b 0B       		.byte	0xb
 1603 080c 97       		.byte	0x97
 1604 080d 57000000 		.4byte	0x57
 1605 0811 02       		.byte	0x2
 1606 0812 23       		.byte	0x23
 1607 0813 00       		.uleb128 0
 1608 0814 06       		.uleb128 0x6
 1609 0815 E3030000 		.4byte	.LASF96
 1610 0819 0B       		.byte	0xb
 1611 081a 98       		.byte	0x98
 1612 081b 57000000 		.4byte	0x57
 1613 081f 02       		.byte	0x2
 1614 0820 23       		.byte	0x23
 1615 0821 02       		.uleb128 0x2
 1616 0822 00       		.byte	0
 1617 0823 0E       		.uleb128 0xe
 1618 0824 04       		.byte	0x4
 1619 0825 0B       		.byte	0xb
 1620 0826 94       		.byte	0x94
 1621 0827 3E080000 		.4byte	0x83e
 1622 082b 1A       		.uleb128 0x1a
 1623 082c 5700     		.ascii	"W\000"
 1624 082e 0B       		.byte	0xb
 1625 082f 95       		.byte	0x95
 1626 0830 7B000000 		.4byte	0x7b
 1627 0834 1A       		.uleb128 0x1a
 1628 0835 4800     		.ascii	"H\000"
 1629 0837 0B       		.byte	0xb
 1630 0838 99       		.byte	0x99
 1631 0839 FE070000 		.4byte	0x7fe
 1632 083d 00       		.byte	0
 1633 083e 08       		.uleb128 0x8
 1634 083f 28       		.byte	0x28
 1635 0840 0B       		.byte	0xb
 1636 0841 8C       		.byte	0x8c
 1637 0842 D3080000 		.4byte	0x8d3
 1638 0846 06       		.uleb128 0x6
 1639 0847 96000000 		.4byte	.LASF97
 1640 084b 0B       		.byte	0xb
 1641 084c 8E       		.byte	0x8e
 1642 084d 3B040000 		.4byte	0x43b
 1643 0851 02       		.byte	0x2
 1644 0852 23       		.byte	0x23
 1645 0853 00       		.uleb128 0
 1646 0854 06       		.uleb128 0x6
 1647 0855 57000000 		.4byte	.LASF98
 1648 0859 0B       		.byte	0xb
ARM GAS  /var/folders/ng/s8655sgx1ys_4lf9jzm2w6n00000gn/T//cc9MW9Dp.s 			page 30


 1649 085a 8F       		.byte	0x8f
 1650 085b 3B040000 		.4byte	0x43b
 1651 085f 02       		.byte	0x2
 1652 0860 23       		.byte	0x23
 1653 0861 04       		.uleb128 0x4
 1654 0862 06       		.uleb128 0x6
 1655 0863 47040000 		.4byte	.LASF99
 1656 0867 0B       		.byte	0xb
 1657 0868 90       		.byte	0x90
 1658 0869 3B040000 		.4byte	0x43b
 1659 086d 02       		.byte	0x2
 1660 086e 23       		.byte	0x23
 1661 086f 08       		.uleb128 0x8
 1662 0870 06       		.uleb128 0x6
 1663 0871 BD000000 		.4byte	.LASF100
 1664 0875 0B       		.byte	0xb
 1665 0876 91       		.byte	0x91
 1666 0877 3B040000 		.4byte	0x43b
 1667 087b 02       		.byte	0x2
 1668 087c 23       		.byte	0x23
 1669 087d 0C       		.uleb128 0xc
 1670 087e 07       		.uleb128 0x7
 1671 087f 49445200 		.ascii	"IDR\000"
 1672 0883 0B       		.byte	0xb
 1673 0884 92       		.byte	0x92
 1674 0885 3B040000 		.4byte	0x43b
 1675 0889 02       		.byte	0x2
 1676 088a 23       		.byte	0x23
 1677 088b 10       		.uleb128 0x10
 1678 088c 07       		.uleb128 0x7
 1679 088d 4F445200 		.ascii	"ODR\000"
 1680 0891 0B       		.byte	0xb
 1681 0892 93       		.byte	0x93
 1682 0893 3B040000 		.4byte	0x43b
 1683 0897 02       		.byte	0x2
 1684 0898 23       		.byte	0x23
 1685 0899 14       		.uleb128 0x14
 1686 089a 06       		.uleb128 0x6
 1687 089b BA060000 		.4byte	.LASF101
 1688 089f 0B       		.byte	0xb
 1689 08a0 9A       		.byte	0x9a
 1690 08a1 D3080000 		.4byte	0x8d3
 1691 08a5 02       		.byte	0x2
 1692 08a6 23       		.byte	0x23
 1693 08a7 18       		.uleb128 0x18
 1694 08a8 06       		.uleb128 0x6
 1695 08a9 E8020000 		.4byte	.LASF102
 1696 08ad 0B       		.byte	0xb
 1697 08ae 9B       		.byte	0x9b
 1698 08af 3B040000 		.4byte	0x43b
 1699 08b3 02       		.byte	0x2
 1700 08b4 23       		.byte	0x23
 1701 08b5 1C       		.uleb128 0x1c
 1702 08b6 06       		.uleb128 0x6
 1703 08b7 7B040000 		.4byte	.LASF103
 1704 08bb 0B       		.byte	0xb
 1705 08bc 9C       		.byte	0x9c
ARM GAS  /var/folders/ng/s8655sgx1ys_4lf9jzm2w6n00000gn/T//cc9MW9Dp.s 			page 31


 1706 08bd 3B040000 		.4byte	0x43b
 1707 08c1 02       		.byte	0x2
 1708 08c2 23       		.byte	0x23
 1709 08c3 20       		.uleb128 0x20
 1710 08c4 06       		.uleb128 0x6
 1711 08c5 70040000 		.4byte	.LASF104
 1712 08c9 0B       		.byte	0xb
 1713 08ca 9D       		.byte	0x9d
 1714 08cb 3B040000 		.4byte	0x43b
 1715 08cf 02       		.byte	0x2
 1716 08d0 23       		.byte	0x23
 1717 08d1 24       		.uleb128 0x24
 1718 08d2 00       		.byte	0
 1719 08d3 0D       		.uleb128 0xd
 1720 08d4 23080000 		.4byte	0x823
 1721 08d8 04       		.uleb128 0x4
 1722 08d9 2D020000 		.4byte	.LASF105
 1723 08dd 0B       		.byte	0xb
 1724 08de 9E       		.byte	0x9e
 1725 08df 3E080000 		.4byte	0x83e
 1726 08e3 04       		.uleb128 0x4
 1727 08e4 61060000 		.4byte	.LASF106
 1728 08e8 0B       		.byte	0xb
 1729 08e9 FD       		.byte	0xfd
 1730 08ea EE080000 		.4byte	0x8ee
 1731 08ee 09       		.uleb128 0x9
 1732 08ef 04       		.byte	0x4
 1733 08f0 D8080000 		.4byte	0x8d8
 1734 08f4 09       		.uleb128 0x9
 1735 08f5 04       		.byte	0x4
 1736 08f6 FA080000 		.4byte	0x8fa
 1737 08fa 10       		.uleb128 0x10
 1738 08fb F8060000 		.4byte	0x6f8
 1739 08ff 16       		.uleb128 0x16
 1740 0900 01       		.byte	0x1
 1741 0901 0C       		.byte	0xc
 1742 0902 55       		.byte	0x55
 1743 0903 26090000 		.4byte	0x926
 1744 0907 17       		.uleb128 0x17
 1745 0908 97060000 		.4byte	.LASF107
 1746 090c 00       		.sleb128 0
 1747 090d 17       		.uleb128 0x17
 1748 090e 35010000 		.4byte	.LASF108
 1749 0912 01       		.sleb128 1
 1750 0913 17       		.uleb128 0x17
 1751 0914 B3000000 		.4byte	.LASF109
 1752 0918 02       		.sleb128 2
 1753 0919 17       		.uleb128 0x17
 1754 091a 5E000000 		.4byte	.LASF110
 1755 091e 03       		.sleb128 3
 1756 091f 17       		.uleb128 0x17
 1757 0920 ED050000 		.4byte	.LASF111
 1758 0924 04       		.sleb128 4
 1759 0925 00       		.byte	0
 1760 0926 04       		.uleb128 0x4
 1761 0927 13060000 		.4byte	.LASF112
 1762 092b 0C       		.byte	0xc
ARM GAS  /var/folders/ng/s8655sgx1ys_4lf9jzm2w6n00000gn/T//cc9MW9Dp.s 			page 32


 1763 092c 5B       		.byte	0x5b
 1764 092d FF080000 		.4byte	0x8ff
 1765 0931 15       		.uleb128 0x15
 1766 0932 DE000000 		.4byte	.LASF113
 1767 0936 0D       		.byte	0xd
 1768 0937 E701     		.2byte	0x1e7
 1769 0939 3D090000 		.4byte	0x93d
 1770 093d 0B       		.uleb128 0xb
 1771 093e DE000000 		.4byte	.LASF113
 1772 0942 30       		.byte	0x30
 1773 0943 0D       		.byte	0xd
 1774 0944 0B02     		.2byte	0x20b
 1775 0946 D2090000 		.4byte	0x9d2
 1776 094a 14       		.uleb128 0x14
 1777 094b CA010000 		.4byte	.LASF114
 1778 094f 0D       		.byte	0xd
 1779 0950 0F02     		.2byte	0x20f
 1780 0952 26090000 		.4byte	0x926
 1781 0956 02       		.byte	0x2
 1782 0957 23       		.byte	0x23
 1783 0958 00       		.uleb128 0
 1784 0959 14       		.uleb128 0x14
 1785 095a 0C060000 		.4byte	.LASF115
 1786 095e 0D       		.byte	0xd
 1787 095f 1302     		.2byte	0x213
 1788 0961 480A0000 		.4byte	0xa48
 1789 0965 02       		.byte	0x2
 1790 0966 23       		.byte	0x23
 1791 0967 04       		.uleb128 0x4
 1792 0968 14       		.uleb128 0x14
 1793 0969 42060000 		.4byte	.LASF116
 1794 096d 0D       		.byte	0xd
 1795 096e 1802     		.2byte	0x218
 1796 0970 5A020000 		.4byte	0x25a
 1797 0974 02       		.byte	0x2
 1798 0975 23       		.byte	0x23
 1799 0976 08       		.uleb128 0x8
 1800 0977 14       		.uleb128 0x14
 1801 0978 E6040000 		.4byte	.LASF117
 1802 097c 0D       		.byte	0xd
 1803 097d 1F02     		.2byte	0x21f
 1804 097f 89040000 		.4byte	0x489
 1805 0983 02       		.byte	0x2
 1806 0984 23       		.byte	0x23
 1807 0985 0C       		.uleb128 0xc
 1808 0986 0C       		.uleb128 0xc
 1809 0987 73706900 		.ascii	"spi\000"
 1810 098b 0D       		.byte	0xd
 1811 098c 2B02     		.2byte	0x22b
 1812 098e 530A0000 		.4byte	0xa53
 1813 0992 02       		.byte	0x2
 1814 0993 23       		.byte	0x23
 1815 0994 1C       		.uleb128 0x1c
 1816 0995 14       		.uleb128 0x14
 1817 0996 10000000 		.4byte	.LASF118
 1818 099a 0D       		.byte	0xd
 1819 099b 2F02     		.2byte	0x22f
ARM GAS  /var/folders/ng/s8655sgx1ys_4lf9jzm2w6n00000gn/T//cc9MW9Dp.s 			page 33


 1820 099d F4080000 		.4byte	0x8f4
 1821 09a1 02       		.byte	0x2
 1822 09a2 23       		.byte	0x23
 1823 09a3 20       		.uleb128 0x20
 1824 09a4 14       		.uleb128 0x14
 1825 09a5 43020000 		.4byte	.LASF119
 1826 09a9 0D       		.byte	0xd
 1827 09aa 3302     		.2byte	0x233
 1828 09ac F4080000 		.4byte	0x8f4
 1829 09b0 02       		.byte	0x2
 1830 09b1 23       		.byte	0x23
 1831 09b2 24       		.uleb128 0x24
 1832 09b3 14       		.uleb128 0x14
 1833 09b4 23020000 		.4byte	.LASF120
 1834 09b8 0D       		.byte	0xd
 1835 09b9 3702     		.2byte	0x237
 1836 09bb 7B000000 		.4byte	0x7b
 1837 09bf 02       		.byte	0x2
 1838 09c0 23       		.byte	0x23
 1839 09c1 28       		.uleb128 0x28
 1840 09c2 14       		.uleb128 0x14
 1841 09c3 3D040000 		.4byte	.LASF121
 1842 09c7 0D       		.byte	0xd
 1843 09c8 3B02     		.2byte	0x23b
 1844 09ca 7B000000 		.4byte	0x7b
 1845 09ce 02       		.byte	0x2
 1846 09cf 23       		.byte	0x23
 1847 09d0 2C       		.uleb128 0x2c
 1848 09d1 00       		.byte	0
 1849 09d2 15       		.uleb128 0x15
 1850 09d3 88000000 		.4byte	.LASF122
 1851 09d7 0D       		.byte	0xd
 1852 09d8 EF01     		.2byte	0x1ef
 1853 09da DE090000 		.4byte	0x9de
 1854 09de 09       		.uleb128 0x9
 1855 09df 04       		.byte	0x4
 1856 09e0 E4090000 		.4byte	0x9e4
 1857 09e4 1B       		.uleb128 0x1b
 1858 09e5 01       		.byte	0x1
 1859 09e6 F0090000 		.4byte	0x9f0
 1860 09ea 19       		.uleb128 0x19
 1861 09eb F0090000 		.4byte	0x9f0
 1862 09ef 00       		.byte	0
 1863 09f0 09       		.uleb128 0x9
 1864 09f1 04       		.byte	0x4
 1865 09f2 31090000 		.4byte	0x931
 1866 09f6 13       		.uleb128 0x13
 1867 09f7 0C       		.byte	0xc
 1868 09f8 0D       		.byte	0xd
 1869 09f9 F401     		.2byte	0x1f4
 1870 09fb 3C0A0000 		.4byte	0xa3c
 1871 09ff 14       		.uleb128 0x14
 1872 0a00 1C020000 		.4byte	.LASF123
 1873 0a04 0D       		.byte	0xd
 1874 0a05 F801     		.2byte	0x1f8
 1875 0a07 D2090000 		.4byte	0x9d2
 1876 0a0b 02       		.byte	0x2
ARM GAS  /var/folders/ng/s8655sgx1ys_4lf9jzm2w6n00000gn/T//cc9MW9Dp.s 			page 34


 1877 0a0c 23       		.byte	0x23
 1878 0a0d 00       		.uleb128 0
 1879 0a0e 14       		.uleb128 0x14
 1880 0a0f E8000000 		.4byte	.LASF124
 1881 0a13 0D       		.byte	0xd
 1882 0a14 FD01     		.2byte	0x1fd
 1883 0a16 E3080000 		.4byte	0x8e3
 1884 0a1a 02       		.byte	0x2
 1885 0a1b 23       		.byte	0x23
 1886 0a1c 04       		.uleb128 0x4
 1887 0a1d 14       		.uleb128 0x14
 1888 0a1e 08020000 		.4byte	.LASF125
 1889 0a22 0D       		.byte	0xd
 1890 0a23 0102     		.2byte	0x201
 1891 0a25 57000000 		.4byte	0x57
 1892 0a29 02       		.byte	0x2
 1893 0a2a 23       		.byte	0x23
 1894 0a2b 08       		.uleb128 0x8
 1895 0a2c 0C       		.uleb128 0xc
 1896 0a2d 63723100 		.ascii	"cr1\000"
 1897 0a31 0D       		.byte	0xd
 1898 0a32 0502     		.2byte	0x205
 1899 0a34 57000000 		.4byte	0x57
 1900 0a38 02       		.byte	0x2
 1901 0a39 23       		.byte	0x23
 1902 0a3a 0A       		.uleb128 0xa
 1903 0a3b 00       		.byte	0
 1904 0a3c 15       		.uleb128 0x15
 1905 0a3d E8060000 		.4byte	.LASF126
 1906 0a41 0D       		.byte	0xd
 1907 0a42 0602     		.2byte	0x206
 1908 0a44 F6090000 		.4byte	0x9f6
 1909 0a48 09       		.uleb128 0x9
 1910 0a49 04       		.byte	0x4
 1911 0a4a 4E0A0000 		.4byte	0xa4e
 1912 0a4e 10       		.uleb128 0x10
 1913 0a4f 3C0A0000 		.4byte	0xa3c
 1914 0a53 09       		.uleb128 0x9
 1915 0a54 04       		.byte	0x4
 1916 0a55 91060000 		.4byte	0x691
 1917 0a59 08       		.uleb128 0x8
 1918 0a5a 0C       		.byte	0xc
 1919 0a5b 0E       		.byte	0xe
 1920 0a5c 56       		.byte	0x56
 1921 0a5d 8C0A0000 		.4byte	0xa8c
 1922 0a61 06       		.uleb128 0x6
 1923 0a62 CD060000 		.4byte	.LASF127
 1924 0a66 0E       		.byte	0xe
 1925 0a67 5A       		.byte	0x5a
 1926 0a68 F0090000 		.4byte	0x9f0
 1927 0a6c 02       		.byte	0x2
 1928 0a6d 23       		.byte	0x23
 1929 0a6e 00       		.uleb128 0
 1930 0a6f 06       		.uleb128 0x6
 1931 0a70 12030000 		.4byte	.LASF128
 1932 0a74 0E       		.byte	0xe
 1933 0a75 5E       		.byte	0x5e
ARM GAS  /var/folders/ng/s8655sgx1ys_4lf9jzm2w6n00000gn/T//cc9MW9Dp.s 			page 35


 1934 0a76 480A0000 		.4byte	0xa48
 1935 0a7a 02       		.byte	0x2
 1936 0a7b 23       		.byte	0x23
 1937 0a7c 04       		.uleb128 0x4
 1938 0a7d 06       		.uleb128 0x6
 1939 0a7e BF060000 		.4byte	.LASF129
 1940 0a82 0E       		.byte	0xe
 1941 0a83 62       		.byte	0x62
 1942 0a84 480A0000 		.4byte	0xa48
 1943 0a88 02       		.byte	0x2
 1944 0a89 23       		.byte	0x23
 1945 0a8a 08       		.uleb128 0x8
 1946 0a8b 00       		.byte	0
 1947 0a8c 04       		.uleb128 0x4
 1948 0a8d 4F040000 		.4byte	.LASF130
 1949 0a91 0E       		.byte	0xe
 1950 0a92 63       		.byte	0x63
 1951 0a93 590A0000 		.4byte	0xa59
 1952 0a97 05       		.uleb128 0x5
 1953 0a98 69000000 		.4byte	.LASF131
 1954 0a9c 20       		.byte	0x20
 1955 0a9d 0E       		.byte	0xe
 1956 0a9e 70       		.byte	0x70
 1957 0a9f 140B0000 		.4byte	0xb14
 1958 0aa3 06       		.uleb128 0x6
 1959 0aa4 86060000 		.4byte	.LASF132
 1960 0aa8 0E       		.byte	0xe
 1961 0aa9 71       		.byte	0x71
 1962 0aaa 8D070000 		.4byte	0x78d
 1963 0aae 02       		.byte	0x2
 1964 0aaf 23       		.byte	0x23
 1965 0ab0 00       		.uleb128 0
 1966 0ab1 06       		.uleb128 0x6
 1967 0ab2 4A000000 		.4byte	.LASF133
 1968 0ab6 0E       		.byte	0xe
 1969 0ab7 71       		.byte	0x71
 1970 0ab8 8D070000 		.4byte	0x78d
 1971 0abc 02       		.byte	0x2
 1972 0abd 23       		.byte	0x23
 1973 0abe 04       		.uleb128 0x4
 1974 0abf 06       		.uleb128 0x6
 1975 0ac0 82050000 		.4byte	.LASF134
 1976 0ac4 0E       		.byte	0xe
 1977 0ac5 71       		.byte	0x71
 1978 0ac6 8D070000 		.4byte	0x78d
 1979 0aca 02       		.byte	0x2
 1980 0acb 23       		.byte	0x23
 1981 0acc 08       		.uleb128 0x8
 1982 0acd 06       		.uleb128 0x6
 1983 0ace 55010000 		.4byte	.LASF135
 1984 0ad2 0E       		.byte	0xe
 1985 0ad3 71       		.byte	0x71
 1986 0ad4 8D070000 		.4byte	0x78d
 1987 0ad8 02       		.byte	0x2
 1988 0ad9 23       		.byte	0x23
 1989 0ada 0C       		.uleb128 0xc
 1990 0adb 06       		.uleb128 0x6
ARM GAS  /var/folders/ng/s8655sgx1ys_4lf9jzm2w6n00000gn/T//cc9MW9Dp.s 			page 36


 1991 0adc E3050000 		.4byte	.LASF136
 1992 0ae0 0E       		.byte	0xe
 1993 0ae1 71       		.byte	0x71
 1994 0ae2 B2070000 		.4byte	0x7b2
 1995 0ae6 02       		.byte	0x2
 1996 0ae7 23       		.byte	0x23
 1997 0ae8 10       		.uleb128 0x10
 1998 0ae9 06       		.uleb128 0x6
 1999 0aea 76030000 		.4byte	.LASF137
 2000 0aee 0E       		.byte	0xe
 2001 0aef 71       		.byte	0x71
 2002 0af0 D7070000 		.4byte	0x7d7
 2003 0af4 02       		.byte	0x2
 2004 0af5 23       		.byte	0x23
 2005 0af6 14       		.uleb128 0x14
 2006 0af7 06       		.uleb128 0x6
 2007 0af8 D2060000 		.4byte	.LASF138
 2008 0afc 0E       		.byte	0xe
 2009 0afd 71       		.byte	0x71
 2010 0afe 8D070000 		.4byte	0x78d
 2011 0b02 02       		.byte	0x2
 2012 0b03 23       		.byte	0x23
 2013 0b04 18       		.uleb128 0x18
 2014 0b05 06       		.uleb128 0x6
 2015 0b06 3A020000 		.4byte	.LASF139
 2016 0b0a 0E       		.byte	0xe
 2017 0b0b 71       		.byte	0x71
 2018 0b0c F8070000 		.4byte	0x7f8
 2019 0b10 02       		.byte	0x2
 2020 0b11 23       		.byte	0x23
 2021 0b12 1C       		.uleb128 0x1c
 2022 0b13 00       		.byte	0
 2023 0b14 08       		.uleb128 0x8
 2024 0b15 34       		.byte	0x34
 2025 0b16 0E       		.byte	0xe
 2026 0b17 79       		.byte	0x79
 2027 0b18 7F0B0000 		.4byte	0xb7f
 2028 0b1c 07       		.uleb128 0x7
 2029 0b1d 766D7400 		.ascii	"vmt\000"
 2030 0b21 0E       		.byte	0xe
 2031 0b22 7D       		.byte	0x7d
 2032 0b23 7F0B0000 		.4byte	0xb7f
 2033 0b27 02       		.byte	0x2
 2034 0b28 23       		.byte	0x23
 2035 0b29 00       		.uleb128 0
 2036 0b2a 06       		.uleb128 0x6
 2037 0b2b CA010000 		.4byte	.LASF114
 2038 0b2f 0E       		.byte	0xe
 2039 0b30 7E       		.byte	0x7e
 2040 0b31 42070000 		.4byte	0x742
 2041 0b35 02       		.byte	0x2
 2042 0b36 23       		.byte	0x23
 2043 0b37 04       		.uleb128 0x4
 2044 0b38 07       		.uleb128 0x7
 2045 0b39 63696400 		.ascii	"cid\000"
 2046 0b3d 0E       		.byte	0xe
 2047 0b3e 7E       		.byte	0x7e
ARM GAS  /var/folders/ng/s8655sgx1ys_4lf9jzm2w6n00000gn/T//cc9MW9Dp.s 			page 37


 2048 0b3f F2040000 		.4byte	0x4f2
 2049 0b43 02       		.byte	0x2
 2050 0b44 23       		.byte	0x23
 2051 0b45 08       		.uleb128 0x8
 2052 0b46 07       		.uleb128 0x7
 2053 0b47 63736400 		.ascii	"csd\000"
 2054 0b4b 0E       		.byte	0xe
 2055 0b4c 7E       		.byte	0x7e
 2056 0b4d F2040000 		.4byte	0x4f2
 2057 0b51 02       		.byte	0x2
 2058 0b52 23       		.byte	0x23
 2059 0b53 18       		.uleb128 0x18
 2060 0b54 06       		.uleb128 0x6
 2061 0b55 1C000000 		.4byte	.LASF140
 2062 0b59 0E       		.byte	0xe
 2063 0b5a 7E       		.byte	0x7e
 2064 0b5b 7B000000 		.4byte	0x7b
 2065 0b5f 02       		.byte	0x2
 2066 0b60 23       		.byte	0x23
 2067 0b61 28       		.uleb128 0x28
 2068 0b62 06       		.uleb128 0x6
 2069 0b63 0C060000 		.4byte	.LASF115
 2070 0b67 0E       		.byte	0xe
 2071 0b68 82       		.byte	0x82
 2072 0b69 8A0B0000 		.4byte	0xb8a
 2073 0b6d 02       		.byte	0x2
 2074 0b6e 23       		.byte	0x23
 2075 0b6f 2C       		.uleb128 0x2c
 2076 0b70 06       		.uleb128 0x6
 2077 0b71 18030000 		.4byte	.LASF141
 2078 0b75 0E       		.byte	0xe
 2079 0b76 86       		.byte	0x86
 2080 0b77 9B000000 		.4byte	0x9b
 2081 0b7b 02       		.byte	0x2
 2082 0b7c 23       		.byte	0x23
 2083 0b7d 30       		.uleb128 0x30
 2084 0b7e 00       		.byte	0
 2085 0b7f 09       		.uleb128 0x9
 2086 0b80 04       		.byte	0x4
 2087 0b81 850B0000 		.4byte	0xb85
 2088 0b85 10       		.uleb128 0x10
 2089 0b86 970A0000 		.4byte	0xa97
 2090 0b8a 09       		.uleb128 0x9
 2091 0b8b 04       		.byte	0x4
 2092 0b8c 900B0000 		.4byte	0xb90
 2093 0b90 10       		.uleb128 0x10
 2094 0b91 8C0A0000 		.4byte	0xa8c
 2095 0b95 04       		.uleb128 0x4
 2096 0b96 A2060000 		.4byte	.LASF142
 2097 0b9a 0E       		.byte	0xe
 2098 0b9b 87       		.byte	0x87
 2099 0b9c 140B0000 		.4byte	0xb14
 2100 0ba0 04       		.uleb128 0x4
 2101 0ba1 9E020000 		.4byte	.LASF143
 2102 0ba5 0F       		.byte	0xf
 2103 0ba6 16       		.byte	0x16
 2104 0ba7 49000000 		.4byte	0x49
ARM GAS  /var/folders/ng/s8655sgx1ys_4lf9jzm2w6n00000gn/T//cc9MW9Dp.s 			page 38


 2105 0bab 04       		.uleb128 0x4
 2106 0bac EF030000 		.4byte	.LASF144
 2107 0bb0 0F       		.byte	0xf
 2108 0bb1 1B       		.byte	0x1b
 2109 0bb2 62000000 		.4byte	0x62
 2110 0bb6 04       		.uleb128 0x4
 2111 0bb7 0E020000 		.4byte	.LASF145
 2112 0bbb 0F       		.byte	0xf
 2113 0bbc 21       		.byte	0x21
 2114 0bbd 86000000 		.4byte	0x86
 2115 0bc1 04       		.uleb128 0x4
 2116 0bc2 3A060000 		.4byte	.LASF146
 2117 0bc6 10       		.byte	0x10
 2118 0bc7 0E       		.byte	0xe
 2119 0bc8 A00B0000 		.4byte	0xba0
 2120 0bcc 16       		.uleb128 0x16
 2121 0bcd 01       		.byte	0x1
 2122 0bce 10       		.byte	0x10
 2123 0bcf 11       		.byte	0x11
 2124 0bd0 F30B0000 		.4byte	0xbf3
 2125 0bd4 17       		.uleb128 0x17
 2126 0bd5 F4030000 		.4byte	.LASF147
 2127 0bd9 00       		.sleb128 0
 2128 0bda 17       		.uleb128 0x17
 2129 0bdb DE060000 		.4byte	.LASF148
 2130 0bdf 01       		.sleb128 1
 2131 0be0 17       		.uleb128 0x17
 2132 0be1 25000000 		.4byte	.LASF149
 2133 0be5 02       		.sleb128 2
 2134 0be6 17       		.uleb128 0x17
 2135 0be7 76000000 		.4byte	.LASF150
 2136 0beb 03       		.sleb128 3
 2137 0bec 17       		.uleb128 0x17
 2138 0bed E2010000 		.4byte	.LASF151
 2139 0bf1 04       		.sleb128 4
 2140 0bf2 00       		.byte	0
 2141 0bf3 04       		.uleb128 0x4
 2142 0bf4 BD050000 		.4byte	.LASF152
 2143 0bf8 10       		.byte	0x10
 2144 0bf9 17       		.byte	0x17
 2145 0bfa CC0B0000 		.4byte	0xbcc
 2146 0bfe 1C       		.uleb128 0x1c
 2147 0bff 01       		.byte	0x1
 2148 0c00 A4050000 		.4byte	.LASF153
 2149 0c04 01       		.byte	0x1
 2150 0c05 29       		.byte	0x29
 2151 0c06 01       		.byte	0x1
 2152 0c07 C10B0000 		.4byte	0xbc1
 2153 0c0b 00000000 		.4byte	.LFB118
 2154 0c0f 28000000 		.4byte	.LFE118
 2155 0c13 00000000 		.4byte	.LLST0
 2156 0c17 01       		.byte	0x1
 2157 0c18 440C0000 		.4byte	0xc44
 2158 0c1c 1D       		.uleb128 0x1d
 2159 0c1d 64727600 		.ascii	"drv\000"
 2160 0c21 01       		.byte	0x1
 2161 0c22 2A       		.byte	0x2a
ARM GAS  /var/folders/ng/s8655sgx1ys_4lf9jzm2w6n00000gn/T//cc9MW9Dp.s 			page 39


 2162 0c23 A00B0000 		.4byte	0xba0
 2163 0c27 20000000 		.4byte	.LLST1
 2164 0c2b 1E       		.uleb128 0x1e
 2165 0c2c 0E010000 		.4byte	.LASF155
 2166 0c30 01       		.byte	0x1
 2167 0c31 2D       		.byte	0x2d
 2168 0c32 C10B0000 		.4byte	0xbc1
 2169 0c36 5A000000 		.4byte	.LLST2
 2170 0c3a 1F       		.uleb128 0x1f
 2171 0c3b 12000000 		.4byte	.LVL4
 2172 0c3f C50E0000 		.4byte	0xec5
 2173 0c43 00       		.byte	0
 2174 0c44 1C       		.uleb128 0x1c
 2175 0c45 01       		.byte	0x1
 2176 0c46 DC020000 		.4byte	.LASF154
 2177 0c4a 01       		.byte	0x1
 2178 0c4b 4C       		.byte	0x4c
 2179 0c4c 01       		.byte	0x1
 2180 0c4d C10B0000 		.4byte	0xbc1
 2181 0c51 00000000 		.4byte	.LFB119
 2182 0c55 28000000 		.4byte	.LFE119
 2183 0c59 82000000 		.4byte	.LLST3
 2184 0c5d 01       		.byte	0x1
 2185 0c5e 8A0C0000 		.4byte	0xc8a
 2186 0c62 1D       		.uleb128 0x1d
 2187 0c63 64727600 		.ascii	"drv\000"
 2188 0c67 01       		.byte	0x1
 2189 0c68 4D       		.byte	0x4d
 2190 0c69 A00B0000 		.4byte	0xba0
 2191 0c6d A2000000 		.4byte	.LLST4
 2192 0c71 1E       		.uleb128 0x1e
 2193 0c72 0E010000 		.4byte	.LASF155
 2194 0c76 01       		.byte	0x1
 2195 0c77 50       		.byte	0x50
 2196 0c78 C10B0000 		.4byte	0xbc1
 2197 0c7c DC000000 		.4byte	.LLST5
 2198 0c80 1F       		.uleb128 0x1f
 2199 0c81 12000000 		.4byte	.LVL12
 2200 0c85 C50E0000 		.4byte	0xec5
 2201 0c89 00       		.byte	0
 2202 0c8a 1C       		.uleb128 0x1c
 2203 0c8b 01       		.byte	0x1
 2204 0c8c 7C030000 		.4byte	.LASF156
 2205 0c90 01       		.byte	0x1
 2206 0c91 6F       		.byte	0x6f
 2207 0c92 01       		.byte	0x1
 2208 0c93 F30B0000 		.4byte	0xbf3
 2209 0c97 00000000 		.4byte	.LFB120
 2210 0c9b 9C000000 		.4byte	.LFE120
 2211 0c9f 04010000 		.4byte	.LLST6
 2212 0ca3 01       		.byte	0x1
 2213 0ca4 5B0D0000 		.4byte	0xd5b
 2214 0ca8 1D       		.uleb128 0x1d
 2215 0ca9 64727600 		.ascii	"drv\000"
 2216 0cad 01       		.byte	0x1
 2217 0cae 70       		.byte	0x70
 2218 0caf A00B0000 		.4byte	0xba0
ARM GAS  /var/folders/ng/s8655sgx1ys_4lf9jzm2w6n00000gn/T//cc9MW9Dp.s 			page 40


 2219 0cb3 30010000 		.4byte	.LLST7
 2220 0cb7 20       		.uleb128 0x20
 2221 0cb8 76050000 		.4byte	.LASF157
 2222 0cbc 01       		.byte	0x1
 2223 0cbd 71       		.byte	0x71
 2224 0cbe 5B0D0000 		.4byte	0xd5b
 2225 0cc2 6A010000 		.4byte	.LLST8
 2226 0cc6 20       		.uleb128 0x20
 2227 0cc7 45030000 		.4byte	.LASF158
 2228 0ccb 01       		.byte	0x1
 2229 0ccc 72       		.byte	0x72
 2230 0ccd B60B0000 		.4byte	0xbb6
 2231 0cd1 AC010000 		.4byte	.LLST9
 2232 0cd5 20       		.uleb128 0x20
 2233 0cd6 16000000 		.4byte	.LASF159
 2234 0cda 01       		.byte	0x1
 2235 0cdb 73       		.byte	0x73
 2236 0cdc A00B0000 		.4byte	0xba0
 2237 0ce0 E6010000 		.4byte	.LLST10
 2238 0ce4 21       		.uleb128 0x21
 2239 0ce5 24000000 		.4byte	.LVL23
 2240 0ce9 E30E0000 		.4byte	0xee3
 2241 0ced FF0C0000 		.4byte	0xcff
 2242 0cf1 22       		.uleb128 0x22
 2243 0cf2 01       		.byte	0x1
 2244 0cf3 51       		.byte	0x51
 2245 0cf4 03       		.byte	0x3
 2246 0cf5 F3       		.byte	0xf3
 2247 0cf6 01       		.uleb128 0x1
 2248 0cf7 52       		.byte	0x52
 2249 0cf8 22       		.uleb128 0x22
 2250 0cf9 01       		.byte	0x1
 2251 0cfa 50       		.byte	0x50
 2252 0cfb 02       		.byte	0x2
 2253 0cfc 75       		.byte	0x75
 2254 0cfd 00       		.sleb128 0
 2255 0cfe 00       		.byte	0
 2256 0cff 21       		.uleb128 0x21
 2257 0d00 38000000 		.4byte	.LVL25
 2258 0d04 000F0000 		.4byte	0xf00
 2259 0d08 190D0000 		.4byte	0xd19
 2260 0d0c 22       		.uleb128 0x22
 2261 0d0d 01       		.byte	0x1
 2262 0d0e 51       		.byte	0x51
 2263 0d0f 02       		.byte	0x2
 2264 0d10 74       		.byte	0x74
 2265 0d11 00       		.sleb128 0
 2266 0d12 22       		.uleb128 0x22
 2267 0d13 01       		.byte	0x1
 2268 0d14 50       		.byte	0x50
 2269 0d15 02       		.byte	0x2
 2270 0d16 75       		.byte	0x75
 2271 0d17 00       		.sleb128 0
 2272 0d18 00       		.byte	0
 2273 0d19 21       		.uleb128 0x21
 2274 0d1a 4E000000 		.4byte	.LVL28
 2275 0d1e 000F0000 		.4byte	0xf00
ARM GAS  /var/folders/ng/s8655sgx1ys_4lf9jzm2w6n00000gn/T//cc9MW9Dp.s 			page 41


 2276 0d22 330D0000 		.4byte	0xd33
 2277 0d26 22       		.uleb128 0x22
 2278 0d27 01       		.byte	0x1
 2279 0d28 51       		.byte	0x51
 2280 0d29 02       		.byte	0x2
 2281 0d2a 74       		.byte	0x74
 2282 0d2b 00       		.sleb128 0
 2283 0d2c 22       		.uleb128 0x22
 2284 0d2d 01       		.byte	0x1
 2285 0d2e 50       		.byte	0x50
 2286 0d2f 02       		.byte	0x2
 2287 0d30 75       		.byte	0x75
 2288 0d31 00       		.sleb128 0
 2289 0d32 00       		.byte	0
 2290 0d33 1F       		.uleb128 0x1f
 2291 0d34 64000000 		.4byte	.LVL30
 2292 0d38 000F0000 		.4byte	0xf00
 2293 0d3c 21       		.uleb128 0x21
 2294 0d3d 76000000 		.4byte	.LVL31
 2295 0d41 000F0000 		.4byte	0xf00
 2296 0d45 500D0000 		.4byte	0xd50
 2297 0d49 22       		.uleb128 0x22
 2298 0d4a 01       		.byte	0x1
 2299 0d4b 51       		.byte	0x51
 2300 0d4c 02       		.byte	0x2
 2301 0d4d 74       		.byte	0x74
 2302 0d4e 00       		.sleb128 0
 2303 0d4f 00       		.byte	0
 2304 0d50 23       		.uleb128 0x23
 2305 0d51 98000000 		.4byte	.LVL32
 2306 0d55 01       		.byte	0x1
 2307 0d56 1D0F0000 		.4byte	0xf1d
 2308 0d5a 00       		.byte	0
 2309 0d5b 09       		.uleb128 0x9
 2310 0d5c 04       		.byte	0x4
 2311 0d5d A00B0000 		.4byte	0xba0
 2312 0d61 1C       		.uleb128 0x1c
 2313 0d62 01       		.byte	0x1
 2314 0d63 74060000 		.4byte	.LASF160
 2315 0d67 01       		.byte	0x1
 2316 0d68 98       		.byte	0x98
 2317 0d69 01       		.byte	0x1
 2318 0d6a F30B0000 		.4byte	0xbf3
 2319 0d6e 00000000 		.4byte	.LFB121
 2320 0d72 AC000000 		.4byte	.LFE121
 2321 0d76 2A020000 		.4byte	.LLST11
 2322 0d7a 01       		.byte	0x1
 2323 0d7b 3F0E0000 		.4byte	0xe3f
 2324 0d7f 1D       		.uleb128 0x1d
 2325 0d80 64727600 		.ascii	"drv\000"
 2326 0d84 01       		.byte	0x1
 2327 0d85 99       		.byte	0x99
 2328 0d86 A00B0000 		.4byte	0xba0
 2329 0d8a 56020000 		.4byte	.LLST12
 2330 0d8e 20       		.uleb128 0x20
 2331 0d8f 76050000 		.4byte	.LASF157
 2332 0d93 01       		.byte	0x1
ARM GAS  /var/folders/ng/s8655sgx1ys_4lf9jzm2w6n00000gn/T//cc9MW9Dp.s 			page 42


 2333 0d94 9A       		.byte	0x9a
 2334 0d95 3F0E0000 		.4byte	0xe3f
 2335 0d99 90020000 		.4byte	.LLST13
 2336 0d9d 20       		.uleb128 0x20
 2337 0d9e 45030000 		.4byte	.LASF158
 2338 0da2 01       		.byte	0x1
 2339 0da3 9B       		.byte	0x9b
 2340 0da4 B60B0000 		.4byte	0xbb6
 2341 0da8 D2020000 		.4byte	.LLST14
 2342 0dac 20       		.uleb128 0x20
 2343 0dad 16000000 		.4byte	.LASF159
 2344 0db1 01       		.byte	0x1
 2345 0db2 9C       		.byte	0x9c
 2346 0db3 A00B0000 		.4byte	0xba0
 2347 0db7 0C030000 		.4byte	.LLST15
 2348 0dbb 21       		.uleb128 0x21
 2349 0dbc 24000000 		.4byte	.LVL40
 2350 0dc0 C50E0000 		.4byte	0xec5
 2351 0dc4 CF0D0000 		.4byte	0xdcf
 2352 0dc8 22       		.uleb128 0x22
 2353 0dc9 01       		.byte	0x1
 2354 0dca 50       		.byte	0x50
 2355 0dcb 02       		.byte	0x2
 2356 0dcc 75       		.byte	0x75
 2357 0dcd 00       		.sleb128 0
 2358 0dce 00       		.byte	0
 2359 0dcf 21       		.uleb128 0x21
 2360 0dd0 34000000 		.4byte	.LVL41
 2361 0dd4 350F0000 		.4byte	0xf35
 2362 0dd8 E30D0000 		.4byte	0xde3
 2363 0ddc 22       		.uleb128 0x22
 2364 0ddd 01       		.byte	0x1
 2365 0dde 50       		.byte	0x50
 2366 0ddf 02       		.byte	0x2
 2367 0de0 75       		.byte	0x75
 2368 0de1 00       		.sleb128 0
 2369 0de2 00       		.byte	0
 2370 0de3 21       		.uleb128 0x21
 2371 0de4 48000000 		.4byte	.LVL43
 2372 0de8 520F0000 		.4byte	0xf52
 2373 0dec FD0D0000 		.4byte	0xdfd
 2374 0df0 22       		.uleb128 0x22
 2375 0df1 01       		.byte	0x1
 2376 0df2 51       		.byte	0x51
 2377 0df3 02       		.byte	0x2
 2378 0df4 74       		.byte	0x74
 2379 0df5 00       		.sleb128 0
 2380 0df6 22       		.uleb128 0x22
 2381 0df7 01       		.byte	0x1
 2382 0df8 50       		.byte	0x50
 2383 0df9 02       		.byte	0x2
 2384 0dfa 75       		.byte	0x75
 2385 0dfb 00       		.sleb128 0
 2386 0dfc 00       		.byte	0
 2387 0dfd 21       		.uleb128 0x21
 2388 0dfe 5E000000 		.4byte	.LVL46
 2389 0e02 520F0000 		.4byte	0xf52
ARM GAS  /var/folders/ng/s8655sgx1ys_4lf9jzm2w6n00000gn/T//cc9MW9Dp.s 			page 43


 2390 0e06 170E0000 		.4byte	0xe17
 2391 0e0a 22       		.uleb128 0x22
 2392 0e0b 01       		.byte	0x1
 2393 0e0c 51       		.byte	0x51
 2394 0e0d 02       		.byte	0x2
 2395 0e0e 74       		.byte	0x74
 2396 0e0f 00       		.sleb128 0
 2397 0e10 22       		.uleb128 0x22
 2398 0e11 01       		.byte	0x1
 2399 0e12 50       		.byte	0x50
 2400 0e13 02       		.byte	0x2
 2401 0e14 75       		.byte	0x75
 2402 0e15 00       		.sleb128 0
 2403 0e16 00       		.byte	0
 2404 0e17 1F       		.uleb128 0x1f
 2405 0e18 74000000 		.4byte	.LVL48
 2406 0e1c 520F0000 		.4byte	0xf52
 2407 0e20 21       		.uleb128 0x21
 2408 0e21 86000000 		.4byte	.LVL49
 2409 0e25 520F0000 		.4byte	0xf52
 2410 0e29 340E0000 		.4byte	0xe34
 2411 0e2d 22       		.uleb128 0x22
 2412 0e2e 01       		.byte	0x1
 2413 0e2f 51       		.byte	0x51
 2414 0e30 02       		.byte	0x2
 2415 0e31 74       		.byte	0x74
 2416 0e32 00       		.sleb128 0
 2417 0e33 00       		.byte	0
 2418 0e34 23       		.uleb128 0x23
 2419 0e35 A8000000 		.4byte	.LVL50
 2420 0e39 01       		.byte	0x1
 2421 0e3a 6F0F0000 		.4byte	0xf6f
 2422 0e3e 00       		.byte	0
 2423 0e3f 09       		.uleb128 0x9
 2424 0e40 04       		.byte	0x4
 2425 0e41 450E0000 		.4byte	0xe45
 2426 0e45 10       		.uleb128 0x10
 2427 0e46 A00B0000 		.4byte	0xba0
 2428 0e4a 24       		.uleb128 0x24
 2429 0e4b 01       		.byte	0x1
 2430 0e4c 6B030000 		.4byte	.LASF161
 2431 0e50 01       		.byte	0x1
 2432 0e51 C3       		.byte	0xc3
 2433 0e52 01       		.byte	0x1
 2434 0e53 F30B0000 		.4byte	0xbf3
 2435 0e57 00000000 		.4byte	.LFB122
 2436 0e5b 18000000 		.4byte	.LFE122
 2437 0e5f 02       		.byte	0x2
 2438 0e60 7D       		.byte	0x7d
 2439 0e61 00       		.sleb128 0
 2440 0e62 01       		.byte	0x1
 2441 0e63 910E0000 		.4byte	0xe91
 2442 0e67 1D       		.uleb128 0x1d
 2443 0e68 64727600 		.ascii	"drv\000"
 2444 0e6c 01       		.byte	0x1
 2445 0e6d C4       		.byte	0xc4
 2446 0e6e A00B0000 		.4byte	0xba0
ARM GAS  /var/folders/ng/s8655sgx1ys_4lf9jzm2w6n00000gn/T//cc9MW9Dp.s 			page 44


 2447 0e72 50030000 		.4byte	.LLST16
 2448 0e76 25       		.uleb128 0x25
 2449 0e77 90020000 		.4byte	.LASF162
 2450 0e7b 01       		.byte	0x1
 2451 0e7c C5       		.byte	0xc5
 2452 0e7d A00B0000 		.4byte	0xba0
 2453 0e81 01       		.byte	0x1
 2454 0e82 51       		.byte	0x51
 2455 0e83 25       		.uleb128 0x25
 2456 0e84 76050000 		.4byte	.LASF157
 2457 0e88 01       		.byte	0x1
 2458 0e89 C6       		.byte	0xc6
 2459 0e8a 98020000 		.4byte	0x298
 2460 0e8e 01       		.byte	0x1
 2461 0e8f 52       		.byte	0x52
 2462 0e90 00       		.byte	0
 2463 0e91 26       		.uleb128 0x26
 2464 0e92 01       		.byte	0x1
 2465 0e93 6A010000 		.4byte	.LASF174
 2466 0e97 01       		.byte	0x1
 2467 0e98 F5       		.byte	0xf5
 2468 0e99 01       		.byte	0x1
 2469 0e9a B60B0000 		.4byte	0xbb6
 2470 0e9e 00000000 		.4byte	.LFB123
 2471 0ea2 06000000 		.4byte	.LFE123
 2472 0ea6 02       		.byte	0x2
 2473 0ea7 7D       		.byte	0x7d
 2474 0ea8 00       		.sleb128 0
 2475 0ea9 01       		.byte	0x1
 2476 0eaa 27       		.uleb128 0x27
 2477 0eab EF000000 		.4byte	.LASF163
 2478 0eaf 11       		.byte	0x11
 2479 0eb0 9806     		.2byte	0x698
 2480 0eb2 07050000 		.4byte	0x507
 2481 0eb6 01       		.byte	0x1
 2482 0eb7 01       		.byte	0x1
 2483 0eb8 28       		.uleb128 0x28
 2484 0eb9 8A020000 		.4byte	.LASF164
 2485 0ebd 01       		.byte	0x1
 2486 0ebe 12       		.byte	0x12
 2487 0ebf 950B0000 		.4byte	0xb95
 2488 0ec3 01       		.byte	0x1
 2489 0ec4 01       		.byte	0x1
 2490 0ec5 29       		.uleb128 0x29
 2491 0ec6 01       		.byte	0x1
 2492 0ec7 ED010000 		.4byte	.LASF165
 2493 0ecb 0E       		.byte	0xe
 2494 0ecc C5       		.byte	0xc5
 2495 0ecd 01       		.byte	0x1
 2496 0ece 9B000000 		.4byte	0x9b
 2497 0ed2 01       		.byte	0x1
 2498 0ed3 DD0E0000 		.4byte	0xedd
 2499 0ed7 19       		.uleb128 0x19
 2500 0ed8 DD0E0000 		.4byte	0xedd
 2501 0edc 00       		.byte	0
 2502 0edd 09       		.uleb128 0x9
 2503 0ede 04       		.byte	0x4
ARM GAS  /var/folders/ng/s8655sgx1ys_4lf9jzm2w6n00000gn/T//cc9MW9Dp.s 			page 45


 2504 0edf 950B0000 		.4byte	0xb95
 2505 0ee3 29       		.uleb128 0x29
 2506 0ee4 01       		.byte	0x1
 2507 0ee5 0F040000 		.4byte	.LASF166
 2508 0ee9 0E       		.byte	0xe
 2509 0eea BB       		.byte	0xbb
 2510 0eeb 01       		.byte	0x1
 2511 0eec 9B000000 		.4byte	0x9b
 2512 0ef0 01       		.byte	0x1
 2513 0ef1 000F0000 		.4byte	0xf00
 2514 0ef5 19       		.uleb128 0x19
 2515 0ef6 DD0E0000 		.4byte	0xedd
 2516 0efa 19       		.uleb128 0x19
 2517 0efb 7B000000 		.4byte	0x7b
 2518 0eff 00       		.byte	0
 2519 0f00 29       		.uleb128 0x29
 2520 0f01 01       		.byte	0x1
 2521 0f02 CC000000 		.4byte	.LASF167
 2522 0f06 0E       		.byte	0xe
 2523 0f07 BC       		.byte	0xbc
 2524 0f08 01       		.byte	0x1
 2525 0f09 9B000000 		.4byte	0x9b
 2526 0f0d 01       		.byte	0x1
 2527 0f0e 1D0F0000 		.4byte	0xf1d
 2528 0f12 19       		.uleb128 0x19
 2529 0f13 DD0E0000 		.4byte	0xedd
 2530 0f17 19       		.uleb128 0x19
 2531 0f18 E1040000 		.4byte	0x4e1
 2532 0f1c 00       		.byte	0
 2533 0f1d 29       		.uleb128 0x29
 2534 0f1e 01       		.byte	0x1
 2535 0f1f F8060000 		.4byte	.LASF168
 2536 0f23 0E       		.byte	0xe
 2537 0f24 BD       		.byte	0xbd
 2538 0f25 01       		.byte	0x1
 2539 0f26 9B000000 		.4byte	0x9b
 2540 0f2a 01       		.byte	0x1
 2541 0f2b 350F0000 		.4byte	0xf35
 2542 0f2f 19       		.uleb128 0x19
 2543 0f30 DD0E0000 		.4byte	0xedd
 2544 0f34 00       		.byte	0
 2545 0f35 29       		.uleb128 0x29
 2546 0f36 01       		.byte	0x1
 2547 0f37 B9020000 		.4byte	.LASF169
 2548 0f3b 0E       		.byte	0xe
 2549 0f3c BE       		.byte	0xbe
 2550 0f3d 01       		.byte	0x1
 2551 0f3e 9B000000 		.4byte	0x9b
 2552 0f42 01       		.byte	0x1
 2553 0f43 520F0000 		.4byte	0xf52
 2554 0f47 19       		.uleb128 0x19
 2555 0f48 DD0E0000 		.4byte	0xedd
 2556 0f4c 19       		.uleb128 0x19
 2557 0f4d 7B000000 		.4byte	0x7b
 2558 0f51 00       		.byte	0
 2559 0f52 29       		.uleb128 0x29
 2560 0f53 01       		.byte	0x1
ARM GAS  /var/folders/ng/s8655sgx1ys_4lf9jzm2w6n00000gn/T//cc9MW9Dp.s 			page 46


 2561 0f54 63050000 		.4byte	.LASF170
 2562 0f58 0E       		.byte	0xe
 2563 0f59 BF       		.byte	0xbf
 2564 0f5a 01       		.byte	0x1
 2565 0f5b 9B000000 		.4byte	0x9b
 2566 0f5f 01       		.byte	0x1
 2567 0f60 6F0F0000 		.4byte	0xf6f
 2568 0f64 19       		.uleb128 0x19
 2569 0f65 DD0E0000 		.4byte	0xedd
 2570 0f69 19       		.uleb128 0x19
 2571 0f6a E7040000 		.4byte	0x4e7
 2572 0f6e 00       		.byte	0
 2573 0f6f 2A       		.uleb128 0x2a
 2574 0f70 01       		.byte	0x1
 2575 0f71 59040000 		.4byte	.LASF175
 2576 0f75 0E       		.byte	0xe
 2577 0f76 C0       		.byte	0xc0
 2578 0f77 01       		.byte	0x1
 2579 0f78 9B000000 		.4byte	0x9b
 2580 0f7c 01       		.byte	0x1
 2581 0f7d 19       		.uleb128 0x19
 2582 0f7e DD0E0000 		.4byte	0xedd
 2583 0f82 00       		.byte	0
 2584 0f83 00       		.byte	0
 2585              		.section	.debug_abbrev,"",%progbits
 2586              	.Ldebug_abbrev0:
 2587 0000 01       		.uleb128 0x1
 2588 0001 11       		.uleb128 0x11
 2589 0002 01       		.byte	0x1
 2590 0003 25       		.uleb128 0x25
 2591 0004 0E       		.uleb128 0xe
 2592 0005 13       		.uleb128 0x13
 2593 0006 0B       		.uleb128 0xb
 2594 0007 03       		.uleb128 0x3
 2595 0008 0E       		.uleb128 0xe
 2596 0009 1B       		.uleb128 0x1b
 2597 000a 0E       		.uleb128 0xe
 2598 000b 55       		.uleb128 0x55
 2599 000c 06       		.uleb128 0x6
 2600 000d 11       		.uleb128 0x11
 2601 000e 01       		.uleb128 0x1
 2602 000f 52       		.uleb128 0x52
 2603 0010 01       		.uleb128 0x1
 2604 0011 10       		.uleb128 0x10
 2605 0012 06       		.uleb128 0x6
 2606 0013 00       		.byte	0
 2607 0014 00       		.byte	0
 2608 0015 02       		.uleb128 0x2
 2609 0016 24       		.uleb128 0x24
 2610 0017 00       		.byte	0
 2611 0018 0B       		.uleb128 0xb
 2612 0019 0B       		.uleb128 0xb
 2613 001a 3E       		.uleb128 0x3e
 2614 001b 0B       		.uleb128 0xb
 2615 001c 03       		.uleb128 0x3
 2616 001d 08       		.uleb128 0x8
 2617 001e 00       		.byte	0
ARM GAS  /var/folders/ng/s8655sgx1ys_4lf9jzm2w6n00000gn/T//cc9MW9Dp.s 			page 47


 2618 001f 00       		.byte	0
 2619 0020 03       		.uleb128 0x3
 2620 0021 24       		.uleb128 0x24
 2621 0022 00       		.byte	0
 2622 0023 0B       		.uleb128 0xb
 2623 0024 0B       		.uleb128 0xb
 2624 0025 3E       		.uleb128 0x3e
 2625 0026 0B       		.uleb128 0xb
 2626 0027 03       		.uleb128 0x3
 2627 0028 0E       		.uleb128 0xe
 2628 0029 00       		.byte	0
 2629 002a 00       		.byte	0
 2630 002b 04       		.uleb128 0x4
 2631 002c 16       		.uleb128 0x16
 2632 002d 00       		.byte	0
 2633 002e 03       		.uleb128 0x3
 2634 002f 0E       		.uleb128 0xe
 2635 0030 3A       		.uleb128 0x3a
 2636 0031 0B       		.uleb128 0xb
 2637 0032 3B       		.uleb128 0x3b
 2638 0033 0B       		.uleb128 0xb
 2639 0034 49       		.uleb128 0x49
 2640 0035 13       		.uleb128 0x13
 2641 0036 00       		.byte	0
 2642 0037 00       		.byte	0
 2643 0038 05       		.uleb128 0x5
 2644 0039 13       		.uleb128 0x13
 2645 003a 01       		.byte	0x1
 2646 003b 03       		.uleb128 0x3
 2647 003c 0E       		.uleb128 0xe
 2648 003d 0B       		.uleb128 0xb
 2649 003e 0B       		.uleb128 0xb
 2650 003f 3A       		.uleb128 0x3a
 2651 0040 0B       		.uleb128 0xb
 2652 0041 3B       		.uleb128 0x3b
 2653 0042 0B       		.uleb128 0xb
 2654 0043 01       		.uleb128 0x1
 2655 0044 13       		.uleb128 0x13
 2656 0045 00       		.byte	0
 2657 0046 00       		.byte	0
 2658 0047 06       		.uleb128 0x6
 2659 0048 0D       		.uleb128 0xd
 2660 0049 00       		.byte	0
 2661 004a 03       		.uleb128 0x3
 2662 004b 0E       		.uleb128 0xe
 2663 004c 3A       		.uleb128 0x3a
 2664 004d 0B       		.uleb128 0xb
 2665 004e 3B       		.uleb128 0x3b
 2666 004f 0B       		.uleb128 0xb
 2667 0050 49       		.uleb128 0x49
 2668 0051 13       		.uleb128 0x13
 2669 0052 38       		.uleb128 0x38
 2670 0053 0A       		.uleb128 0xa
 2671 0054 00       		.byte	0
 2672 0055 00       		.byte	0
 2673 0056 07       		.uleb128 0x7
 2674 0057 0D       		.uleb128 0xd
ARM GAS  /var/folders/ng/s8655sgx1ys_4lf9jzm2w6n00000gn/T//cc9MW9Dp.s 			page 48


 2675 0058 00       		.byte	0
 2676 0059 03       		.uleb128 0x3
 2677 005a 08       		.uleb128 0x8
 2678 005b 3A       		.uleb128 0x3a
 2679 005c 0B       		.uleb128 0xb
 2680 005d 3B       		.uleb128 0x3b
 2681 005e 0B       		.uleb128 0xb
 2682 005f 49       		.uleb128 0x49
 2683 0060 13       		.uleb128 0x13
 2684 0061 38       		.uleb128 0x38
 2685 0062 0A       		.uleb128 0xa
 2686 0063 00       		.byte	0
 2687 0064 00       		.byte	0
 2688 0065 08       		.uleb128 0x8
 2689 0066 13       		.uleb128 0x13
 2690 0067 01       		.byte	0x1
 2691 0068 0B       		.uleb128 0xb
 2692 0069 0B       		.uleb128 0xb
 2693 006a 3A       		.uleb128 0x3a
 2694 006b 0B       		.uleb128 0xb
 2695 006c 3B       		.uleb128 0x3b
 2696 006d 0B       		.uleb128 0xb
 2697 006e 01       		.uleb128 0x1
 2698 006f 13       		.uleb128 0x13
 2699 0070 00       		.byte	0
 2700 0071 00       		.byte	0
 2701 0072 09       		.uleb128 0x9
 2702 0073 0F       		.uleb128 0xf
 2703 0074 00       		.byte	0
 2704 0075 0B       		.uleb128 0xb
 2705 0076 0B       		.uleb128 0xb
 2706 0077 49       		.uleb128 0x49
 2707 0078 13       		.uleb128 0x13
 2708 0079 00       		.byte	0
 2709 007a 00       		.byte	0
 2710 007b 0A       		.uleb128 0xa
 2711 007c 0F       		.uleb128 0xf
 2712 007d 00       		.byte	0
 2713 007e 0B       		.uleb128 0xb
 2714 007f 0B       		.uleb128 0xb
 2715 0080 00       		.byte	0
 2716 0081 00       		.byte	0
 2717 0082 0B       		.uleb128 0xb
 2718 0083 13       		.uleb128 0x13
 2719 0084 01       		.byte	0x1
 2720 0085 03       		.uleb128 0x3
 2721 0086 0E       		.uleb128 0xe
 2722 0087 0B       		.uleb128 0xb
 2723 0088 0B       		.uleb128 0xb
 2724 0089 3A       		.uleb128 0x3a
 2725 008a 0B       		.uleb128 0xb
 2726 008b 3B       		.uleb128 0x3b
 2727 008c 05       		.uleb128 0x5
 2728 008d 01       		.uleb128 0x1
 2729 008e 13       		.uleb128 0x13
 2730 008f 00       		.byte	0
 2731 0090 00       		.byte	0
ARM GAS  /var/folders/ng/s8655sgx1ys_4lf9jzm2w6n00000gn/T//cc9MW9Dp.s 			page 49


 2732 0091 0C       		.uleb128 0xc
 2733 0092 0D       		.uleb128 0xd
 2734 0093 00       		.byte	0
 2735 0094 03       		.uleb128 0x3
 2736 0095 08       		.uleb128 0x8
 2737 0096 3A       		.uleb128 0x3a
 2738 0097 0B       		.uleb128 0xb
 2739 0098 3B       		.uleb128 0x3b
 2740 0099 05       		.uleb128 0x5
 2741 009a 49       		.uleb128 0x49
 2742 009b 13       		.uleb128 0x13
 2743 009c 38       		.uleb128 0x38
 2744 009d 0A       		.uleb128 0xa
 2745 009e 00       		.byte	0
 2746 009f 00       		.byte	0
 2747 00a0 0D       		.uleb128 0xd
 2748 00a1 35       		.uleb128 0x35
 2749 00a2 00       		.byte	0
 2750 00a3 49       		.uleb128 0x49
 2751 00a4 13       		.uleb128 0x13
 2752 00a5 00       		.byte	0
 2753 00a6 00       		.byte	0
 2754 00a7 0E       		.uleb128 0xe
 2755 00a8 17       		.uleb128 0x17
 2756 00a9 01       		.byte	0x1
 2757 00aa 0B       		.uleb128 0xb
 2758 00ab 0B       		.uleb128 0xb
 2759 00ac 3A       		.uleb128 0x3a
 2760 00ad 0B       		.uleb128 0xb
 2761 00ae 3B       		.uleb128 0x3b
 2762 00af 0B       		.uleb128 0xb
 2763 00b0 01       		.uleb128 0x1
 2764 00b1 13       		.uleb128 0x13
 2765 00b2 00       		.byte	0
 2766 00b3 00       		.byte	0
 2767 00b4 0F       		.uleb128 0xf
 2768 00b5 0D       		.uleb128 0xd
 2769 00b6 00       		.byte	0
 2770 00b7 03       		.uleb128 0x3
 2771 00b8 0E       		.uleb128 0xe
 2772 00b9 3A       		.uleb128 0x3a
 2773 00ba 0B       		.uleb128 0xb
 2774 00bb 3B       		.uleb128 0x3b
 2775 00bc 0B       		.uleb128 0xb
 2776 00bd 49       		.uleb128 0x49
 2777 00be 13       		.uleb128 0x13
 2778 00bf 00       		.byte	0
 2779 00c0 00       		.byte	0
 2780 00c1 10       		.uleb128 0x10
 2781 00c2 26       		.uleb128 0x26
 2782 00c3 00       		.byte	0
 2783 00c4 49       		.uleb128 0x49
 2784 00c5 13       		.uleb128 0x13
 2785 00c6 00       		.byte	0
 2786 00c7 00       		.byte	0
 2787 00c8 11       		.uleb128 0x11
 2788 00c9 01       		.uleb128 0x1
ARM GAS  /var/folders/ng/s8655sgx1ys_4lf9jzm2w6n00000gn/T//cc9MW9Dp.s 			page 50


 2789 00ca 01       		.byte	0x1
 2790 00cb 49       		.uleb128 0x49
 2791 00cc 13       		.uleb128 0x13
 2792 00cd 01       		.uleb128 0x1
 2793 00ce 13       		.uleb128 0x13
 2794 00cf 00       		.byte	0
 2795 00d0 00       		.byte	0
 2796 00d1 12       		.uleb128 0x12
 2797 00d2 21       		.uleb128 0x21
 2798 00d3 00       		.byte	0
 2799 00d4 49       		.uleb128 0x49
 2800 00d5 13       		.uleb128 0x13
 2801 00d6 2F       		.uleb128 0x2f
 2802 00d7 0B       		.uleb128 0xb
 2803 00d8 00       		.byte	0
 2804 00d9 00       		.byte	0
 2805 00da 13       		.uleb128 0x13
 2806 00db 13       		.uleb128 0x13
 2807 00dc 01       		.byte	0x1
 2808 00dd 0B       		.uleb128 0xb
 2809 00de 0B       		.uleb128 0xb
 2810 00df 3A       		.uleb128 0x3a
 2811 00e0 0B       		.uleb128 0xb
 2812 00e1 3B       		.uleb128 0x3b
 2813 00e2 05       		.uleb128 0x5
 2814 00e3 01       		.uleb128 0x1
 2815 00e4 13       		.uleb128 0x13
 2816 00e5 00       		.byte	0
 2817 00e6 00       		.byte	0
 2818 00e7 14       		.uleb128 0x14
 2819 00e8 0D       		.uleb128 0xd
 2820 00e9 00       		.byte	0
 2821 00ea 03       		.uleb128 0x3
 2822 00eb 0E       		.uleb128 0xe
 2823 00ec 3A       		.uleb128 0x3a
 2824 00ed 0B       		.uleb128 0xb
 2825 00ee 3B       		.uleb128 0x3b
 2826 00ef 05       		.uleb128 0x5
 2827 00f0 49       		.uleb128 0x49
 2828 00f1 13       		.uleb128 0x13
 2829 00f2 38       		.uleb128 0x38
 2830 00f3 0A       		.uleb128 0xa
 2831 00f4 00       		.byte	0
 2832 00f5 00       		.byte	0
 2833 00f6 15       		.uleb128 0x15
 2834 00f7 16       		.uleb128 0x16
 2835 00f8 00       		.byte	0
 2836 00f9 03       		.uleb128 0x3
 2837 00fa 0E       		.uleb128 0xe
 2838 00fb 3A       		.uleb128 0x3a
 2839 00fc 0B       		.uleb128 0xb
 2840 00fd 3B       		.uleb128 0x3b
 2841 00fe 05       		.uleb128 0x5
 2842 00ff 49       		.uleb128 0x49
 2843 0100 13       		.uleb128 0x13
 2844 0101 00       		.byte	0
 2845 0102 00       		.byte	0
ARM GAS  /var/folders/ng/s8655sgx1ys_4lf9jzm2w6n00000gn/T//cc9MW9Dp.s 			page 51


 2846 0103 16       		.uleb128 0x16
 2847 0104 04       		.uleb128 0x4
 2848 0105 01       		.byte	0x1
 2849 0106 0B       		.uleb128 0xb
 2850 0107 0B       		.uleb128 0xb
 2851 0108 3A       		.uleb128 0x3a
 2852 0109 0B       		.uleb128 0xb
 2853 010a 3B       		.uleb128 0x3b
 2854 010b 0B       		.uleb128 0xb
 2855 010c 01       		.uleb128 0x1
 2856 010d 13       		.uleb128 0x13
 2857 010e 00       		.byte	0
 2858 010f 00       		.byte	0
 2859 0110 17       		.uleb128 0x17
 2860 0111 28       		.uleb128 0x28
 2861 0112 00       		.byte	0
 2862 0113 03       		.uleb128 0x3
 2863 0114 0E       		.uleb128 0xe
 2864 0115 1C       		.uleb128 0x1c
 2865 0116 0D       		.uleb128 0xd
 2866 0117 00       		.byte	0
 2867 0118 00       		.byte	0
 2868 0119 18       		.uleb128 0x18
 2869 011a 15       		.uleb128 0x15
 2870 011b 01       		.byte	0x1
 2871 011c 27       		.uleb128 0x27
 2872 011d 0C       		.uleb128 0xc
 2873 011e 49       		.uleb128 0x49
 2874 011f 13       		.uleb128 0x13
 2875 0120 01       		.uleb128 0x1
 2876 0121 13       		.uleb128 0x13
 2877 0122 00       		.byte	0
 2878 0123 00       		.byte	0
 2879 0124 19       		.uleb128 0x19
 2880 0125 05       		.uleb128 0x5
 2881 0126 00       		.byte	0
 2882 0127 49       		.uleb128 0x49
 2883 0128 13       		.uleb128 0x13
 2884 0129 00       		.byte	0
 2885 012a 00       		.byte	0
 2886 012b 1A       		.uleb128 0x1a
 2887 012c 0D       		.uleb128 0xd
 2888 012d 00       		.byte	0
 2889 012e 03       		.uleb128 0x3
 2890 012f 08       		.uleb128 0x8
 2891 0130 3A       		.uleb128 0x3a
 2892 0131 0B       		.uleb128 0xb
 2893 0132 3B       		.uleb128 0x3b
 2894 0133 0B       		.uleb128 0xb
 2895 0134 49       		.uleb128 0x49
 2896 0135 13       		.uleb128 0x13
 2897 0136 00       		.byte	0
 2898 0137 00       		.byte	0
 2899 0138 1B       		.uleb128 0x1b
 2900 0139 15       		.uleb128 0x15
 2901 013a 01       		.byte	0x1
 2902 013b 27       		.uleb128 0x27
ARM GAS  /var/folders/ng/s8655sgx1ys_4lf9jzm2w6n00000gn/T//cc9MW9Dp.s 			page 52


 2903 013c 0C       		.uleb128 0xc
 2904 013d 01       		.uleb128 0x1
 2905 013e 13       		.uleb128 0x13
 2906 013f 00       		.byte	0
 2907 0140 00       		.byte	0
 2908 0141 1C       		.uleb128 0x1c
 2909 0142 2E       		.uleb128 0x2e
 2910 0143 01       		.byte	0x1
 2911 0144 3F       		.uleb128 0x3f
 2912 0145 0C       		.uleb128 0xc
 2913 0146 03       		.uleb128 0x3
 2914 0147 0E       		.uleb128 0xe
 2915 0148 3A       		.uleb128 0x3a
 2916 0149 0B       		.uleb128 0xb
 2917 014a 3B       		.uleb128 0x3b
 2918 014b 0B       		.uleb128 0xb
 2919 014c 27       		.uleb128 0x27
 2920 014d 0C       		.uleb128 0xc
 2921 014e 49       		.uleb128 0x49
 2922 014f 13       		.uleb128 0x13
 2923 0150 11       		.uleb128 0x11
 2924 0151 01       		.uleb128 0x1
 2925 0152 12       		.uleb128 0x12
 2926 0153 01       		.uleb128 0x1
 2927 0154 40       		.uleb128 0x40
 2928 0155 06       		.uleb128 0x6
 2929 0156 9742     		.uleb128 0x2117
 2930 0158 0C       		.uleb128 0xc
 2931 0159 01       		.uleb128 0x1
 2932 015a 13       		.uleb128 0x13
 2933 015b 00       		.byte	0
 2934 015c 00       		.byte	0
 2935 015d 1D       		.uleb128 0x1d
 2936 015e 05       		.uleb128 0x5
 2937 015f 00       		.byte	0
 2938 0160 03       		.uleb128 0x3
 2939 0161 08       		.uleb128 0x8
 2940 0162 3A       		.uleb128 0x3a
 2941 0163 0B       		.uleb128 0xb
 2942 0164 3B       		.uleb128 0x3b
 2943 0165 0B       		.uleb128 0xb
 2944 0166 49       		.uleb128 0x49
 2945 0167 13       		.uleb128 0x13
 2946 0168 02       		.uleb128 0x2
 2947 0169 06       		.uleb128 0x6
 2948 016a 00       		.byte	0
 2949 016b 00       		.byte	0
 2950 016c 1E       		.uleb128 0x1e
 2951 016d 34       		.uleb128 0x34
 2952 016e 00       		.byte	0
 2953 016f 03       		.uleb128 0x3
 2954 0170 0E       		.uleb128 0xe
 2955 0171 3A       		.uleb128 0x3a
 2956 0172 0B       		.uleb128 0xb
 2957 0173 3B       		.uleb128 0x3b
 2958 0174 0B       		.uleb128 0xb
 2959 0175 49       		.uleb128 0x49
ARM GAS  /var/folders/ng/s8655sgx1ys_4lf9jzm2w6n00000gn/T//cc9MW9Dp.s 			page 53


 2960 0176 13       		.uleb128 0x13
 2961 0177 02       		.uleb128 0x2
 2962 0178 06       		.uleb128 0x6
 2963 0179 00       		.byte	0
 2964 017a 00       		.byte	0
 2965 017b 1F       		.uleb128 0x1f
 2966 017c 898201   		.uleb128 0x4109
 2967 017f 00       		.byte	0
 2968 0180 11       		.uleb128 0x11
 2969 0181 01       		.uleb128 0x1
 2970 0182 31       		.uleb128 0x31
 2971 0183 13       		.uleb128 0x13
 2972 0184 00       		.byte	0
 2973 0185 00       		.byte	0
 2974 0186 20       		.uleb128 0x20
 2975 0187 05       		.uleb128 0x5
 2976 0188 00       		.byte	0
 2977 0189 03       		.uleb128 0x3
 2978 018a 0E       		.uleb128 0xe
 2979 018b 3A       		.uleb128 0x3a
 2980 018c 0B       		.uleb128 0xb
 2981 018d 3B       		.uleb128 0x3b
 2982 018e 0B       		.uleb128 0xb
 2983 018f 49       		.uleb128 0x49
 2984 0190 13       		.uleb128 0x13
 2985 0191 02       		.uleb128 0x2
 2986 0192 06       		.uleb128 0x6
 2987 0193 00       		.byte	0
 2988 0194 00       		.byte	0
 2989 0195 21       		.uleb128 0x21
 2990 0196 898201   		.uleb128 0x4109
 2991 0199 01       		.byte	0x1
 2992 019a 11       		.uleb128 0x11
 2993 019b 01       		.uleb128 0x1
 2994 019c 31       		.uleb128 0x31
 2995 019d 13       		.uleb128 0x13
 2996 019e 01       		.uleb128 0x1
 2997 019f 13       		.uleb128 0x13
 2998 01a0 00       		.byte	0
 2999 01a1 00       		.byte	0
 3000 01a2 22       		.uleb128 0x22
 3001 01a3 8A8201   		.uleb128 0x410a
 3002 01a6 00       		.byte	0
 3003 01a7 02       		.uleb128 0x2
 3004 01a8 0A       		.uleb128 0xa
 3005 01a9 9142     		.uleb128 0x2111
 3006 01ab 0A       		.uleb128 0xa
 3007 01ac 00       		.byte	0
 3008 01ad 00       		.byte	0
 3009 01ae 23       		.uleb128 0x23
 3010 01af 898201   		.uleb128 0x4109
 3011 01b2 00       		.byte	0
 3012 01b3 11       		.uleb128 0x11
 3013 01b4 01       		.uleb128 0x1
 3014 01b5 9542     		.uleb128 0x2115
 3015 01b7 0C       		.uleb128 0xc
 3016 01b8 31       		.uleb128 0x31
ARM GAS  /var/folders/ng/s8655sgx1ys_4lf9jzm2w6n00000gn/T//cc9MW9Dp.s 			page 54


 3017 01b9 13       		.uleb128 0x13
 3018 01ba 00       		.byte	0
 3019 01bb 00       		.byte	0
 3020 01bc 24       		.uleb128 0x24
 3021 01bd 2E       		.uleb128 0x2e
 3022 01be 01       		.byte	0x1
 3023 01bf 3F       		.uleb128 0x3f
 3024 01c0 0C       		.uleb128 0xc
 3025 01c1 03       		.uleb128 0x3
 3026 01c2 0E       		.uleb128 0xe
 3027 01c3 3A       		.uleb128 0x3a
 3028 01c4 0B       		.uleb128 0xb
 3029 01c5 3B       		.uleb128 0x3b
 3030 01c6 0B       		.uleb128 0xb
 3031 01c7 27       		.uleb128 0x27
 3032 01c8 0C       		.uleb128 0xc
 3033 01c9 49       		.uleb128 0x49
 3034 01ca 13       		.uleb128 0x13
 3035 01cb 11       		.uleb128 0x11
 3036 01cc 01       		.uleb128 0x1
 3037 01cd 12       		.uleb128 0x12
 3038 01ce 01       		.uleb128 0x1
 3039 01cf 40       		.uleb128 0x40
 3040 01d0 0A       		.uleb128 0xa
 3041 01d1 9742     		.uleb128 0x2117
 3042 01d3 0C       		.uleb128 0xc
 3043 01d4 01       		.uleb128 0x1
 3044 01d5 13       		.uleb128 0x13
 3045 01d6 00       		.byte	0
 3046 01d7 00       		.byte	0
 3047 01d8 25       		.uleb128 0x25
 3048 01d9 05       		.uleb128 0x5
 3049 01da 00       		.byte	0
 3050 01db 03       		.uleb128 0x3
 3051 01dc 0E       		.uleb128 0xe
 3052 01dd 3A       		.uleb128 0x3a
 3053 01de 0B       		.uleb128 0xb
 3054 01df 3B       		.uleb128 0x3b
 3055 01e0 0B       		.uleb128 0xb
 3056 01e1 49       		.uleb128 0x49
 3057 01e2 13       		.uleb128 0x13
 3058 01e3 02       		.uleb128 0x2
 3059 01e4 0A       		.uleb128 0xa
 3060 01e5 00       		.byte	0
 3061 01e6 00       		.byte	0
 3062 01e7 26       		.uleb128 0x26
 3063 01e8 2E       		.uleb128 0x2e
 3064 01e9 00       		.byte	0
 3065 01ea 3F       		.uleb128 0x3f
 3066 01eb 0C       		.uleb128 0xc
 3067 01ec 03       		.uleb128 0x3
 3068 01ed 0E       		.uleb128 0xe
 3069 01ee 3A       		.uleb128 0x3a
 3070 01ef 0B       		.uleb128 0xb
 3071 01f0 3B       		.uleb128 0x3b
 3072 01f1 0B       		.uleb128 0xb
 3073 01f2 27       		.uleb128 0x27
ARM GAS  /var/folders/ng/s8655sgx1ys_4lf9jzm2w6n00000gn/T//cc9MW9Dp.s 			page 55


 3074 01f3 0C       		.uleb128 0xc
 3075 01f4 49       		.uleb128 0x49
 3076 01f5 13       		.uleb128 0x13
 3077 01f6 11       		.uleb128 0x11
 3078 01f7 01       		.uleb128 0x1
 3079 01f8 12       		.uleb128 0x12
 3080 01f9 01       		.uleb128 0x1
 3081 01fa 40       		.uleb128 0x40
 3082 01fb 0A       		.uleb128 0xa
 3083 01fc 9742     		.uleb128 0x2117
 3084 01fe 0C       		.uleb128 0xc
 3085 01ff 00       		.byte	0
 3086 0200 00       		.byte	0
 3087 0201 27       		.uleb128 0x27
 3088 0202 34       		.uleb128 0x34
 3089 0203 00       		.byte	0
 3090 0204 03       		.uleb128 0x3
 3091 0205 0E       		.uleb128 0xe
 3092 0206 3A       		.uleb128 0x3a
 3093 0207 0B       		.uleb128 0xb
 3094 0208 3B       		.uleb128 0x3b
 3095 0209 05       		.uleb128 0x5
 3096 020a 49       		.uleb128 0x49
 3097 020b 13       		.uleb128 0x13
 3098 020c 3F       		.uleb128 0x3f
 3099 020d 0C       		.uleb128 0xc
 3100 020e 3C       		.uleb128 0x3c
 3101 020f 0C       		.uleb128 0xc
 3102 0210 00       		.byte	0
 3103 0211 00       		.byte	0
 3104 0212 28       		.uleb128 0x28
 3105 0213 34       		.uleb128 0x34
 3106 0214 00       		.byte	0
 3107 0215 03       		.uleb128 0x3
 3108 0216 0E       		.uleb128 0xe
 3109 0217 3A       		.uleb128 0x3a
 3110 0218 0B       		.uleb128 0xb
 3111 0219 3B       		.uleb128 0x3b
 3112 021a 0B       		.uleb128 0xb
 3113 021b 49       		.uleb128 0x49
 3114 021c 13       		.uleb128 0x13
 3115 021d 3F       		.uleb128 0x3f
 3116 021e 0C       		.uleb128 0xc
 3117 021f 3C       		.uleb128 0x3c
 3118 0220 0C       		.uleb128 0xc
 3119 0221 00       		.byte	0
 3120 0222 00       		.byte	0
 3121 0223 29       		.uleb128 0x29
 3122 0224 2E       		.uleb128 0x2e
 3123 0225 01       		.byte	0x1
 3124 0226 3F       		.uleb128 0x3f
 3125 0227 0C       		.uleb128 0xc
 3126 0228 03       		.uleb128 0x3
 3127 0229 0E       		.uleb128 0xe
 3128 022a 3A       		.uleb128 0x3a
 3129 022b 0B       		.uleb128 0xb
 3130 022c 3B       		.uleb128 0x3b
ARM GAS  /var/folders/ng/s8655sgx1ys_4lf9jzm2w6n00000gn/T//cc9MW9Dp.s 			page 56


 3131 022d 0B       		.uleb128 0xb
 3132 022e 27       		.uleb128 0x27
 3133 022f 0C       		.uleb128 0xc
 3134 0230 49       		.uleb128 0x49
 3135 0231 13       		.uleb128 0x13
 3136 0232 3C       		.uleb128 0x3c
 3137 0233 0C       		.uleb128 0xc
 3138 0234 01       		.uleb128 0x1
 3139 0235 13       		.uleb128 0x13
 3140 0236 00       		.byte	0
 3141 0237 00       		.byte	0
 3142 0238 2A       		.uleb128 0x2a
 3143 0239 2E       		.uleb128 0x2e
 3144 023a 01       		.byte	0x1
 3145 023b 3F       		.uleb128 0x3f
 3146 023c 0C       		.uleb128 0xc
 3147 023d 03       		.uleb128 0x3
 3148 023e 0E       		.uleb128 0xe
 3149 023f 3A       		.uleb128 0x3a
 3150 0240 0B       		.uleb128 0xb
 3151 0241 3B       		.uleb128 0x3b
 3152 0242 0B       		.uleb128 0xb
 3153 0243 27       		.uleb128 0x27
 3154 0244 0C       		.uleb128 0xc
 3155 0245 49       		.uleb128 0x49
 3156 0246 13       		.uleb128 0x13
 3157 0247 3C       		.uleb128 0x3c
 3158 0248 0C       		.uleb128 0xc
 3159 0249 00       		.byte	0
 3160 024a 00       		.byte	0
 3161 024b 00       		.byte	0
 3162              		.section	.debug_loc,"",%progbits
 3163              	.Ldebug_loc0:
 3164              	.LLST0:
 3165 0000 00000000 		.4byte	.LFB118
 3166 0004 02000000 		.4byte	.LCFI0
 3167 0008 0200     		.2byte	0x2
 3168 000a 7D       		.byte	0x7d
 3169 000b 00       		.sleb128 0
 3170 000c 02000000 		.4byte	.LCFI0
 3171 0010 28000000 		.4byte	.LFE118
 3172 0014 0200     		.2byte	0x2
 3173 0016 7D       		.byte	0x7d
 3174 0017 08       		.sleb128 8
 3175 0018 00000000 		.4byte	0
 3176 001c 00000000 		.4byte	0
 3177              	.LLST1:
 3178 0020 00000000 		.4byte	.LVL0
 3179 0024 06000000 		.4byte	.LVL2
 3180 0028 0100     		.2byte	0x1
 3181 002a 50       		.byte	0x50
 3182 002b 06000000 		.4byte	.LVL2
 3183 002f 1E000000 		.4byte	.LVL6
 3184 0033 0400     		.2byte	0x4
 3185 0035 F3       		.byte	0xf3
 3186 0036 01       		.uleb128 0x1
 3187 0037 50       		.byte	0x50
ARM GAS  /var/folders/ng/s8655sgx1ys_4lf9jzm2w6n00000gn/T//cc9MW9Dp.s 			page 57


 3188 0038 9F       		.byte	0x9f
 3189 0039 1E000000 		.4byte	.LVL6
 3190 003d 22000000 		.4byte	.LVL7
 3191 0041 0100     		.2byte	0x1
 3192 0043 50       		.byte	0x50
 3193 0044 22000000 		.4byte	.LVL7
 3194 0048 28000000 		.4byte	.LFE118
 3195 004c 0400     		.2byte	0x4
 3196 004e F3       		.byte	0xf3
 3197 004f 01       		.uleb128 0x1
 3198 0050 50       		.byte	0x50
 3199 0051 9F       		.byte	0x9f
 3200 0052 00000000 		.4byte	0
 3201 0056 00000000 		.4byte	0
 3202              	.LLST2:
 3203 005a 04000000 		.4byte	.LVL1
 3204 005e 0E000000 		.4byte	.LVL3
 3205 0062 0200     		.2byte	0x2
 3206 0064 30       		.byte	0x30
 3207 0065 9F       		.byte	0x9f
 3208 0066 0E000000 		.4byte	.LVL3
 3209 006a 11000000 		.4byte	.LVL4-1
 3210 006e 0A00     		.2byte	0xa
 3211 0070 70       		.byte	0x70
 3212 0071 04       		.sleb128 4
 3213 0072 94       		.byte	0x94
 3214 0073 01       		.byte	0x1
 3215 0074 08       		.byte	0x8
 3216 0075 FF       		.byte	0xff
 3217 0076 1A       		.byte	0x1a
 3218 0077 35       		.byte	0x35
 3219 0078 2E       		.byte	0x2e
 3220 0079 9F       		.byte	0x9f
 3221 007a 00000000 		.4byte	0
 3222 007e 00000000 		.4byte	0
 3223              	.LLST3:
 3224 0082 00000000 		.4byte	.LFB119
 3225 0086 02000000 		.4byte	.LCFI1
 3226 008a 0200     		.2byte	0x2
 3227 008c 7D       		.byte	0x7d
 3228 008d 00       		.sleb128 0
 3229 008e 02000000 		.4byte	.LCFI1
 3230 0092 28000000 		.4byte	.LFE119
 3231 0096 0200     		.2byte	0x2
 3232 0098 7D       		.byte	0x7d
 3233 0099 08       		.sleb128 8
 3234 009a 00000000 		.4byte	0
 3235 009e 00000000 		.4byte	0
 3236              	.LLST4:
 3237 00a2 00000000 		.4byte	.LVL8
 3238 00a6 06000000 		.4byte	.LVL10
 3239 00aa 0100     		.2byte	0x1
 3240 00ac 50       		.byte	0x50
 3241 00ad 06000000 		.4byte	.LVL10
 3242 00b1 1E000000 		.4byte	.LVL14
 3243 00b5 0400     		.2byte	0x4
 3244 00b7 F3       		.byte	0xf3
ARM GAS  /var/folders/ng/s8655sgx1ys_4lf9jzm2w6n00000gn/T//cc9MW9Dp.s 			page 58


 3245 00b8 01       		.uleb128 0x1
 3246 00b9 50       		.byte	0x50
 3247 00ba 9F       		.byte	0x9f
 3248 00bb 1E000000 		.4byte	.LVL14
 3249 00bf 22000000 		.4byte	.LVL15
 3250 00c3 0100     		.2byte	0x1
 3251 00c5 50       		.byte	0x50
 3252 00c6 22000000 		.4byte	.LVL15
 3253 00ca 28000000 		.4byte	.LFE119
 3254 00ce 0400     		.2byte	0x4
 3255 00d0 F3       		.byte	0xf3
 3256 00d1 01       		.uleb128 0x1
 3257 00d2 50       		.byte	0x50
 3258 00d3 9F       		.byte	0x9f
 3259 00d4 00000000 		.4byte	0
 3260 00d8 00000000 		.4byte	0
 3261              	.LLST5:
 3262 00dc 04000000 		.4byte	.LVL9
 3263 00e0 0E000000 		.4byte	.LVL11
 3264 00e4 0200     		.2byte	0x2
 3265 00e6 30       		.byte	0x30
 3266 00e7 9F       		.byte	0x9f
 3267 00e8 0E000000 		.4byte	.LVL11
 3268 00ec 11000000 		.4byte	.LVL12-1
 3269 00f0 0A00     		.2byte	0xa
 3270 00f2 70       		.byte	0x70
 3271 00f3 04       		.sleb128 4
 3272 00f4 94       		.byte	0x94
 3273 00f5 01       		.byte	0x1
 3274 00f6 08       		.byte	0x8
 3275 00f7 FF       		.byte	0xff
 3276 00f8 1A       		.byte	0x1a
 3277 00f9 35       		.byte	0x35
 3278 00fa 2E       		.byte	0x2e
 3279 00fb 9F       		.byte	0x9f
 3280 00fc 00000000 		.4byte	0
 3281 0100 00000000 		.4byte	0
 3282              	.LLST6:
 3283 0104 00000000 		.4byte	.LFB120
 3284 0108 02000000 		.4byte	.LCFI2
 3285 010c 0200     		.2byte	0x2
 3286 010e 7D       		.byte	0x7d
 3287 010f 00       		.sleb128 0
 3288 0110 02000000 		.4byte	.LCFI2
 3289 0114 06000000 		.4byte	.LCFI3
 3290 0118 0200     		.2byte	0x2
 3291 011a 7D       		.byte	0x7d
 3292 011b 14       		.sleb128 20
 3293 011c 06000000 		.4byte	.LCFI3
 3294 0120 9C000000 		.4byte	.LFE120
 3295 0124 0200     		.2byte	0x2
 3296 0126 7D       		.byte	0x7d
 3297 0127 20       		.sleb128 32
 3298 0128 00000000 		.4byte	0
 3299 012c 00000000 		.4byte	0
 3300              	.LLST7:
 3301 0130 00000000 		.4byte	.LVL16
ARM GAS  /var/folders/ng/s8655sgx1ys_4lf9jzm2w6n00000gn/T//cc9MW9Dp.s 			page 59


 3302 0134 0E000000 		.4byte	.LVL18
 3303 0138 0100     		.2byte	0x1
 3304 013a 50       		.byte	0x50
 3305 013b 0E000000 		.4byte	.LVL18
 3306 013f 16000000 		.4byte	.LVL20
 3307 0143 0400     		.2byte	0x4
 3308 0145 F3       		.byte	0xf3
 3309 0146 01       		.uleb128 0x1
 3310 0147 50       		.byte	0x50
 3311 0148 9F       		.byte	0x9f
 3312 0149 16000000 		.4byte	.LVL20
 3313 014d 18000000 		.4byte	.LVL21
 3314 0151 0100     		.2byte	0x1
 3315 0153 50       		.byte	0x50
 3316 0154 18000000 		.4byte	.LVL21
 3317 0158 9C000000 		.4byte	.LFE120
 3318 015c 0400     		.2byte	0x4
 3319 015e F3       		.byte	0xf3
 3320 015f 01       		.uleb128 0x1
 3321 0160 50       		.byte	0x50
 3322 0161 9F       		.byte	0x9f
 3323 0162 00000000 		.4byte	0
 3324 0166 00000000 		.4byte	0
 3325              	.LLST8:
 3326 016a 00000000 		.4byte	.LVL16
 3327 016e 0C000000 		.4byte	.LVL17
 3328 0172 0100     		.2byte	0x1
 3329 0174 51       		.byte	0x51
 3330 0175 0C000000 		.4byte	.LVL17
 3331 0179 12000000 		.4byte	.LVL19
 3332 017d 0100     		.2byte	0x1
 3333 017f 54       		.byte	0x54
 3334 0180 16000000 		.4byte	.LVL20
 3335 0184 1A000000 		.4byte	.LVL22
 3336 0188 0100     		.2byte	0x1
 3337 018a 51       		.byte	0x51
 3338 018b 1A000000 		.4byte	.LVL22
 3339 018f 42000000 		.4byte	.LVL27
 3340 0193 0100     		.2byte	0x1
 3341 0195 54       		.byte	0x54
 3342 0196 42000000 		.4byte	.LVL27
 3343 019a 5A000000 		.4byte	.LVL29
 3344 019e 0400     		.2byte	0x4
 3345 01a0 F3       		.byte	0xf3
 3346 01a1 01       		.uleb128 0x1
 3347 01a2 51       		.byte	0x51
 3348 01a3 9F       		.byte	0x9f
 3349 01a4 00000000 		.4byte	0
 3350 01a8 00000000 		.4byte	0
 3351              	.LLST9:
 3352 01ac 00000000 		.4byte	.LVL16
 3353 01b0 12000000 		.4byte	.LVL19
 3354 01b4 0100     		.2byte	0x1
 3355 01b6 52       		.byte	0x52
 3356 01b7 12000000 		.4byte	.LVL19
 3357 01bb 16000000 		.4byte	.LVL20
 3358 01bf 0400     		.2byte	0x4
ARM GAS  /var/folders/ng/s8655sgx1ys_4lf9jzm2w6n00000gn/T//cc9MW9Dp.s 			page 60


 3359 01c1 F3       		.byte	0xf3
 3360 01c2 01       		.uleb128 0x1
 3361 01c3 52       		.byte	0x52
 3362 01c4 9F       		.byte	0x9f
 3363 01c5 16000000 		.4byte	.LVL20
 3364 01c9 23000000 		.4byte	.LVL23-1
 3365 01cd 0100     		.2byte	0x1
 3366 01cf 52       		.byte	0x52
 3367 01d0 23000000 		.4byte	.LVL23-1
 3368 01d4 9C000000 		.4byte	.LFE120
 3369 01d8 0400     		.2byte	0x4
 3370 01da F3       		.byte	0xf3
 3371 01db 01       		.uleb128 0x1
 3372 01dc 52       		.byte	0x52
 3373 01dd 9F       		.byte	0x9f
 3374 01de 00000000 		.4byte	0
 3375 01e2 00000000 		.4byte	0
 3376              	.LLST10:
 3377 01e6 00000000 		.4byte	.LVL16
 3378 01ea 12000000 		.4byte	.LVL19
 3379 01ee 0100     		.2byte	0x1
 3380 01f0 53       		.byte	0x53
 3381 01f1 16000000 		.4byte	.LVL20
 3382 01f5 23000000 		.4byte	.LVL23-1
 3383 01f9 0100     		.2byte	0x1
 3384 01fb 53       		.byte	0x53
 3385 01fc 23000000 		.4byte	.LVL23-1
 3386 0200 28000000 		.4byte	.LVL24
 3387 0204 0400     		.2byte	0x4
 3388 0206 F3       		.byte	0xf3
 3389 0207 01       		.uleb128 0x1
 3390 0208 53       		.byte	0x53
 3391 0209 9F       		.byte	0x9f
 3392 020a 28000000 		.4byte	.LVL24
 3393 020e 37000000 		.4byte	.LVL25-1
 3394 0212 0100     		.2byte	0x1
 3395 0214 53       		.byte	0x53
 3396 0215 37000000 		.4byte	.LVL25-1
 3397 0219 3E000000 		.4byte	.LVL26
 3398 021d 0300     		.2byte	0x3
 3399 021f 76       		.byte	0x76
 3400 0220 01       		.sleb128 1
 3401 0221 9F       		.byte	0x9f
 3402 0222 00000000 		.4byte	0
 3403 0226 00000000 		.4byte	0
 3404              	.LLST11:
 3405 022a 00000000 		.4byte	.LFB121
 3406 022e 02000000 		.4byte	.LCFI4
 3407 0232 0200     		.2byte	0x2
 3408 0234 7D       		.byte	0x7d
 3409 0235 00       		.sleb128 0
 3410 0236 02000000 		.4byte	.LCFI4
 3411 023a 06000000 		.4byte	.LCFI5
 3412 023e 0200     		.2byte	0x2
 3413 0240 7D       		.byte	0x7d
 3414 0241 14       		.sleb128 20
 3415 0242 06000000 		.4byte	.LCFI5
ARM GAS  /var/folders/ng/s8655sgx1ys_4lf9jzm2w6n00000gn/T//cc9MW9Dp.s 			page 61


 3416 0246 AC000000 		.4byte	.LFE121
 3417 024a 0200     		.2byte	0x2
 3418 024c 7D       		.byte	0x7d
 3419 024d 20       		.sleb128 32
 3420 024e 00000000 		.4byte	0
 3421 0252 00000000 		.4byte	0
 3422              	.LLST12:
 3423 0256 00000000 		.4byte	.LVL33
 3424 025a 0E000000 		.4byte	.LVL35
 3425 025e 0100     		.2byte	0x1
 3426 0260 50       		.byte	0x50
 3427 0261 0E000000 		.4byte	.LVL35
 3428 0265 16000000 		.4byte	.LVL37
 3429 0269 0400     		.2byte	0x4
 3430 026b F3       		.byte	0xf3
 3431 026c 01       		.uleb128 0x1
 3432 026d 50       		.byte	0x50
 3433 026e 9F       		.byte	0x9f
 3434 026f 16000000 		.4byte	.LVL37
 3435 0273 18000000 		.4byte	.LVL38
 3436 0277 0100     		.2byte	0x1
 3437 0279 50       		.byte	0x50
 3438 027a 18000000 		.4byte	.LVL38
 3439 027e AC000000 		.4byte	.LFE121
 3440 0282 0400     		.2byte	0x4
 3441 0284 F3       		.byte	0xf3
 3442 0285 01       		.uleb128 0x1
 3443 0286 50       		.byte	0x50
 3444 0287 9F       		.byte	0x9f
 3445 0288 00000000 		.4byte	0
 3446 028c 00000000 		.4byte	0
 3447              	.LLST13:
 3448 0290 00000000 		.4byte	.LVL33
 3449 0294 0C000000 		.4byte	.LVL34
 3450 0298 0100     		.2byte	0x1
 3451 029a 51       		.byte	0x51
 3452 029b 0C000000 		.4byte	.LVL34
 3453 029f 12000000 		.4byte	.LVL36
 3454 02a3 0100     		.2byte	0x1
 3455 02a5 54       		.byte	0x54
 3456 02a6 16000000 		.4byte	.LVL37
 3457 02aa 1A000000 		.4byte	.LVL39
 3458 02ae 0100     		.2byte	0x1
 3459 02b0 51       		.byte	0x51
 3460 02b1 1A000000 		.4byte	.LVL39
 3461 02b5 52000000 		.4byte	.LVL45
 3462 02b9 0100     		.2byte	0x1
 3463 02bb 54       		.byte	0x54
 3464 02bc 52000000 		.4byte	.LVL45
 3465 02c0 6A000000 		.4byte	.LVL47
 3466 02c4 0400     		.2byte	0x4
 3467 02c6 F3       		.byte	0xf3
 3468 02c7 01       		.uleb128 0x1
 3469 02c8 51       		.byte	0x51
 3470 02c9 9F       		.byte	0x9f
 3471 02ca 00000000 		.4byte	0
 3472 02ce 00000000 		.4byte	0
ARM GAS  /var/folders/ng/s8655sgx1ys_4lf9jzm2w6n00000gn/T//cc9MW9Dp.s 			page 62


 3473              	.LLST14:
 3474 02d2 00000000 		.4byte	.LVL33
 3475 02d6 12000000 		.4byte	.LVL36
 3476 02da 0100     		.2byte	0x1
 3477 02dc 52       		.byte	0x52
 3478 02dd 12000000 		.4byte	.LVL36
 3479 02e1 16000000 		.4byte	.LVL37
 3480 02e5 0400     		.2byte	0x4
 3481 02e7 F3       		.byte	0xf3
 3482 02e8 01       		.uleb128 0x1
 3483 02e9 52       		.byte	0x52
 3484 02ea 9F       		.byte	0x9f
 3485 02eb 16000000 		.4byte	.LVL37
 3486 02ef 23000000 		.4byte	.LVL40-1
 3487 02f3 0100     		.2byte	0x1
 3488 02f5 52       		.byte	0x52
 3489 02f6 23000000 		.4byte	.LVL40-1
 3490 02fa AC000000 		.4byte	.LFE121
 3491 02fe 0400     		.2byte	0x4
 3492 0300 F3       		.byte	0xf3
 3493 0301 01       		.uleb128 0x1
 3494 0302 52       		.byte	0x52
 3495 0303 9F       		.byte	0x9f
 3496 0304 00000000 		.4byte	0
 3497 0308 00000000 		.4byte	0
 3498              	.LLST15:
 3499 030c 00000000 		.4byte	.LVL33
 3500 0310 12000000 		.4byte	.LVL36
 3501 0314 0100     		.2byte	0x1
 3502 0316 53       		.byte	0x53
 3503 0317 16000000 		.4byte	.LVL37
 3504 031b 23000000 		.4byte	.LVL40-1
 3505 031f 0100     		.2byte	0x1
 3506 0321 53       		.byte	0x53
 3507 0322 23000000 		.4byte	.LVL40-1
 3508 0326 38000000 		.4byte	.LVL42
 3509 032a 0400     		.2byte	0x4
 3510 032c F3       		.byte	0xf3
 3511 032d 01       		.uleb128 0x1
 3512 032e 53       		.byte	0x53
 3513 032f 9F       		.byte	0x9f
 3514 0330 38000000 		.4byte	.LVL42
 3515 0334 47000000 		.4byte	.LVL43-1
 3516 0338 0100     		.2byte	0x1
 3517 033a 53       		.byte	0x53
 3518 033b 47000000 		.4byte	.LVL43-1
 3519 033f 4E000000 		.4byte	.LVL44
 3520 0343 0300     		.2byte	0x3
 3521 0345 76       		.byte	0x76
 3522 0346 01       		.sleb128 1
 3523 0347 9F       		.byte	0x9f
 3524 0348 00000000 		.4byte	0
 3525 034c 00000000 		.4byte	0
 3526              	.LLST16:
 3527 0350 00000000 		.4byte	.LVL51
 3528 0354 06000000 		.4byte	.LVL52
 3529 0358 0100     		.2byte	0x1
ARM GAS  /var/folders/ng/s8655sgx1ys_4lf9jzm2w6n00000gn/T//cc9MW9Dp.s 			page 63


 3530 035a 50       		.byte	0x50
 3531 035b 06000000 		.4byte	.LVL52
 3532 035f 08000000 		.4byte	.LVL53
 3533 0363 0400     		.2byte	0x4
 3534 0365 F3       		.byte	0xf3
 3535 0366 01       		.uleb128 0x1
 3536 0367 50       		.byte	0x50
 3537 0368 9F       		.byte	0x9f
 3538 0369 08000000 		.4byte	.LVL53
 3539 036d 0E000000 		.4byte	.LVL54
 3540 0371 0100     		.2byte	0x1
 3541 0373 50       		.byte	0x50
 3542 0374 0E000000 		.4byte	.LVL54
 3543 0378 10000000 		.4byte	.LVL55
 3544 037c 0400     		.2byte	0x4
 3545 037e F3       		.byte	0xf3
 3546 037f 01       		.uleb128 0x1
 3547 0380 50       		.byte	0x50
 3548 0381 9F       		.byte	0x9f
 3549 0382 10000000 		.4byte	.LVL55
 3550 0386 18000000 		.4byte	.LFE122
 3551 038a 0100     		.2byte	0x1
 3552 038c 50       		.byte	0x50
 3553 038d 00000000 		.4byte	0
 3554 0391 00000000 		.4byte	0
 3555              		.section	.debug_aranges,"",%progbits
 3556 0000 44000000 		.4byte	0x44
 3557 0004 0200     		.2byte	0x2
 3558 0006 00000000 		.4byte	.Ldebug_info0
 3559 000a 04       		.byte	0x4
 3560 000b 00       		.byte	0
 3561 000c 0000     		.2byte	0
 3562 000e 0000     		.2byte	0
 3563 0010 00000000 		.4byte	.LFB118
 3564 0014 28000000 		.4byte	.LFE118-.LFB118
 3565 0018 00000000 		.4byte	.LFB119
 3566 001c 28000000 		.4byte	.LFE119-.LFB119
 3567 0020 00000000 		.4byte	.LFB120
 3568 0024 9C000000 		.4byte	.LFE120-.LFB120
 3569 0028 00000000 		.4byte	.LFB121
 3570 002c AC000000 		.4byte	.LFE121-.LFB121
 3571 0030 00000000 		.4byte	.LFB122
 3572 0034 18000000 		.4byte	.LFE122-.LFB122
 3573 0038 00000000 		.4byte	.LFB123
 3574 003c 06000000 		.4byte	.LFE123-.LFB123
 3575 0040 00000000 		.4byte	0
 3576 0044 00000000 		.4byte	0
 3577              		.section	.debug_ranges,"",%progbits
 3578              	.Ldebug_ranges0:
 3579 0000 00000000 		.4byte	.LFB118
 3580 0004 28000000 		.4byte	.LFE118
 3581 0008 00000000 		.4byte	.LFB119
 3582 000c 28000000 		.4byte	.LFE119
 3583 0010 00000000 		.4byte	.LFB120
 3584 0014 9C000000 		.4byte	.LFE120
 3585 0018 00000000 		.4byte	.LFB121
 3586 001c AC000000 		.4byte	.LFE121
ARM GAS  /var/folders/ng/s8655sgx1ys_4lf9jzm2w6n00000gn/T//cc9MW9Dp.s 			page 64


 3587 0020 00000000 		.4byte	.LFB122
 3588 0024 18000000 		.4byte	.LFE122
 3589 0028 00000000 		.4byte	.LFB123
 3590 002c 06000000 		.4byte	.LFE123
 3591 0030 00000000 		.4byte	0
 3592 0034 00000000 		.4byte	0
 3593              		.section	.debug_line,"",%progbits
 3594              	.Ldebug_line0:
 3595 0000 EC030000 		.section	.debug_str,"MS",%progbits,1
 3595      02000A03 
 3595      00000201 
 3595      FB0E0D00 
 3595      01010101 
 3596              	.LASF95:
 3597 0000 426C6F63 		.ascii	"BlockDeviceInfo\000"
 3597      6B446576 
 3597      69636549 
 3597      6E666F00 
 3598              	.LASF118:
 3599 0010 646D6172 		.ascii	"dmarx\000"
 3599      7800
 3600              	.LASF159:
 3601 0016 636F756E 		.ascii	"count\000"
 3601      7400
 3602              	.LASF140:
 3603 001c 63617061 		.ascii	"capacity\000"
 3603      63697479 
 3603      00
 3604              	.LASF149:
 3605 0025 5245535F 		.ascii	"RES_WRPRT\000"
 3605      57525052 
 3605      5400
 3606              	.LASF59:
 3607 002f 4D304152 		.ascii	"M0AR\000"
 3607      00
 3608              	.LASF68:
 3609 0034 52584352 		.ascii	"RXCRCR\000"
 3609      435200
 3610              	.LASF94:
 3611 003b 626C6B5F 		.ascii	"blk_num\000"
 3611      6E756D00 
 3612              	.LASF53:
 3613 0043 7264796D 		.ascii	"rdymsg\000"
 3613      736700
 3614              	.LASF133:
 3615 004a 69735F70 		.ascii	"is_protected\000"
 3615      726F7465 
 3615      63746564 
 3615      00
 3616              	.LASF98:
 3617 0057 4F545950 		.ascii	"OTYPER\000"
 3617      455200
 3618              	.LASF110:
 3619 005e 5350495F 		.ascii	"SPI_ACTIVE\000"
 3619      41435449 
 3619      564500
 3620              	.LASF131:
ARM GAS  /var/folders/ng/s8655sgx1ys_4lf9jzm2w6n00000gn/T//cc9MW9Dp.s 			page 65


 3621 0069 4D4D4344 		.ascii	"MMCDriverVMT\000"
 3621      72697665 
 3621      72564D54 
 3621      00
 3622              	.LASF150:
 3623 0076 5245535F 		.ascii	"RES_NOTRDY\000"
 3623      4E4F5452 
 3623      445900
 3624              	.LASF77:
 3625 0081 73747265 		.ascii	"stream\000"
 3625      616D00
 3626              	.LASF122:
 3627 0088 73706963 		.ascii	"spicallback_t\000"
 3627      616C6C62 
 3627      61636B5F 
 3627      7400
 3628              	.LASF97:
 3629 0096 4D4F4445 		.ascii	"MODER\000"
 3629      5200
 3630              	.LASF12:
 3631 009c 6C6F6E67 		.ascii	"long long unsigned int\000"
 3631      206C6F6E 
 3631      6720756E 
 3631      7369676E 
 3631      65642069 
 3632              	.LASF109:
 3633 00b3 5350495F 		.ascii	"SPI_READY\000"
 3633      52454144 
 3633      5900
 3634              	.LASF100:
 3635 00bd 50555044 		.ascii	"PUPDR\000"
 3635      5200
 3636              	.LASF54:
 3637 00c3 65786974 		.ascii	"exitcode\000"
 3637      636F6465 
 3637      00
 3638              	.LASF167:
 3639 00cc 6D6D6353 		.ascii	"mmcSequentialRead\000"
 3639      65717565 
 3639      6E746961 
 3639      6C526561 
 3639      6400
 3640              	.LASF113:
 3641 00de 53504944 		.ascii	"SPIDriver\000"
 3641      72697665 
 3641      7200
 3642              	.LASF124:
 3643 00e8 7373706F 		.ascii	"ssport\000"
 3643      727400
 3644              	.LASF163:
 3645 00ef 49544D5F 		.ascii	"ITM_RxBuffer\000"
 3645      52784275 
 3645      66666572 
 3645      00
 3646              	.LASF92:
 3647 00fc 626C6B73 		.ascii	"blkstate_t\000"
 3647      74617465 
ARM GAS  /var/folders/ng/s8655sgx1ys_4lf9jzm2w6n00000gn/T//cc9MW9Dp.s 			page 66


 3647      5F7400
 3648              	.LASF26:
 3649 0107 705F7072 		.ascii	"p_prio\000"
 3649      696F00
 3650              	.LASF155:
 3651 010e 73746174 		.ascii	"stat\000"
 3651      00
 3652              	.LASF17:
 3653 0113 74726566 		.ascii	"trefs_t\000"
 3653      735F7400 
 3654              	.LASF11:
 3655 011b 6C6F6E67 		.ascii	"long long int\000"
 3655      206C6F6E 
 3655      6720696E 
 3655      7400
 3656              	.LASF1:
 3657 0129 7369676E 		.ascii	"signed char\000"
 3657      65642063 
 3657      68617200 
 3658              	.LASF108:
 3659 0135 5350495F 		.ascii	"SPI_STOP\000"
 3659      53544F50 
 3659      00
 3660              	.LASF72:
 3661 013e 49325343 		.ascii	"I2SCFGR\000"
 3661      46475200 
 3662              	.LASF13:
 3663 0146 626F6F6C 		.ascii	"bool_t\000"
 3663      5F7400
 3664              	.LASF50:
 3665 014d 6D5F7175 		.ascii	"m_queue\000"
 3665      65756500 
 3666              	.LASF135:
 3667 0155 64697363 		.ascii	"disconnect\000"
 3667      6F6E6E65 
 3667      637400
 3668              	.LASF18:
 3669 0160 74736C69 		.ascii	"tslices_t\000"
 3669      6365735F 
 3669      7400
 3670              	.LASF174:
 3671 016a 6765745F 		.ascii	"get_fattime\000"
 3671      66617474 
 3671      696D6500 
 3672              	.LASF83:
 3673 0176 424C4B5F 		.ascii	"BLK_UNINIT\000"
 3673      554E494E 
 3673      495400
 3674              	.LASF171:
 3675 0181 474E5520 		.ascii	"GNU C 4.7.4 20130913 (release) [ARM/embedded-4_7-br"
 3675      4320342E 
 3675      372E3420 
 3675      32303133 
 3675      30393133 
 3676 01b4 616E6368 		.ascii	"anch revision 202601]\000"
 3676      20726576 
 3676      6973696F 
ARM GAS  /var/folders/ng/s8655sgx1ys_4lf9jzm2w6n00000gn/T//cc9MW9Dp.s 			page 67


 3676      6E203230 
 3676      32363031 
 3677              	.LASF114:
 3678 01ca 73746174 		.ascii	"state\000"
 3678      6500
 3679              	.LASF8:
 3680 01d0 6C6F6E67 		.ascii	"long int\000"
 3680      20696E74 
 3680      00
 3681              	.LASF16:
 3682 01d9 74737461 		.ascii	"tstate_t\000"
 3682      74655F74 
 3682      00
 3683              	.LASF151:
 3684 01e2 5245535F 		.ascii	"RES_PARERR\000"
 3684      50415245 
 3684      525200
 3685              	.LASF165:
 3686 01ed 6D6D635F 		.ascii	"mmc_lld_is_write_protected\000"
 3686      6C6C645F 
 3686      69735F77 
 3686      72697465 
 3686      5F70726F 
 3687              	.LASF125:
 3688 0208 73737061 		.ascii	"sspad\000"
 3688      6400
 3689              	.LASF145:
 3690 020e 44574F52 		.ascii	"DWORD\000"
 3690      4400
 3691              	.LASF28:
 3692 0214 705F6E65 		.ascii	"p_newer\000"
 3692      77657200 
 3693              	.LASF123:
 3694 021c 656E645F 		.ascii	"end_cb\000"
 3694      636200
 3695              	.LASF120:
 3696 0223 7278646D 		.ascii	"rxdmamode\000"
 3696      616D6F64 
 3696      6500
 3697              	.LASF105:
 3698 022d 4750494F 		.ascii	"GPIO_TypeDef\000"
 3698      5F547970 
 3698      65446566 
 3698      00
 3699              	.LASF139:
 3700 023a 6765745F 		.ascii	"get_info\000"
 3700      696E666F 
 3700      00
 3701              	.LASF119:
 3702 0243 646D6174 		.ascii	"dmatx\000"
 3702      7800
 3703              	.LASF84:
 3704 0249 424C4B5F 		.ascii	"BLK_STOP\000"
 3704      53544F50 
 3704      00
 3705              	.LASF173:
 3706 0252 2F557365 		.ascii	"/Users/jseng/aithon/DemoMode\000"
ARM GAS  /var/folders/ng/s8655sgx1ys_4lf9jzm2w6n00000gn/T//cc9MW9Dp.s 			page 68


 3706      72732F6A 
 3706      73656E67 
 3706      2F616974 
 3706      686F6E2F 
 3707              	.LASF42:
 3708 026f 705F6D70 		.ascii	"p_mpool\000"
 3708      6F6F6C00 
 3709              	.LASF45:
 3710 0277 72656761 		.ascii	"regarm_t\000"
 3710      726D5F74 
 3710      00
 3711              	.LASF80:
 3712 0280 73656C66 		.ascii	"selfindex\000"
 3712      696E6465 
 3712      7800
 3713              	.LASF164:
 3714 028a 4D4D4344 		.ascii	"MMCD1\000"
 3714      3100
 3715              	.LASF162:
 3716 0290 6374726C 		.ascii	"ctrl\000"
 3716      00
 3717              	.LASF93:
 3718 0295 626C6B5F 		.ascii	"blk_size\000"
 3718      73697A65 
 3718      00
 3719              	.LASF143:
 3720 029e 42595445 		.ascii	"BYTE\000"
 3720      00
 3721              	.LASF0:
 3722 02a3 756E7369 		.ascii	"unsigned int\000"
 3722      676E6564 
 3722      20696E74 
 3722      00
 3723              	.LASF5:
 3724 02b0 75696E74 		.ascii	"uint16_t\000"
 3724      31365F74 
 3724      00
 3725              	.LASF169:
 3726 02b9 6D6D6353 		.ascii	"mmcStartSequentialWrite\000"
 3726      74617274 
 3726      53657175 
 3726      656E7469 
 3726      616C5772 
 3727              	.LASF37:
 3728 02d1 705F6D73 		.ascii	"p_msgqueue\000"
 3728      67717565 
 3728      756500
 3729              	.LASF154:
 3730 02dc 6469736B 		.ascii	"disk_status\000"
 3730      5F737461 
 3730      74757300 
 3731              	.LASF102:
 3732 02e8 4C434B52 		.ascii	"LCKR\000"
 3732      00
 3733              	.LASF79:
 3734 02ed 69736869 		.ascii	"ishift\000"
 3734      667400
ARM GAS  /var/folders/ng/s8655sgx1ys_4lf9jzm2w6n00000gn/T//cc9MW9Dp.s 			page 69


 3735              	.LASF6:
 3736 02f4 73686F72 		.ascii	"short unsigned int\000"
 3736      7420756E 
 3736      7369676E 
 3736      65642069 
 3736      6E7400
 3737              	.LASF85:
 3738 0307 424C4B5F 		.ascii	"BLK_ACTIVE\000"
 3738      41435449 
 3738      564500
 3739              	.LASF128:
 3740 0312 6C736366 		.ascii	"lscfg\000"
 3740      6700
 3741              	.LASF141:
 3742 0318 626C6F63 		.ascii	"block_addresses\000"
 3742      6B5F6164 
 3742      64726573 
 3742      73657300 
 3743              	.LASF20:
 3744 0328 6D73675F 		.ascii	"msg_t\000"
 3744      7400
 3745              	.LASF86:
 3746 032e 424C4B5F 		.ascii	"BLK_CONNECTING\000"
 3746      434F4E4E 
 3746      45435449 
 3746      4E4700
 3747              	.LASF15:
 3748 033d 746D6F64 		.ascii	"tmode_t\000"
 3748      655F7400 
 3749              	.LASF158:
 3750 0345 73656374 		.ascii	"sector\000"
 3750      6F7200
 3751              	.LASF35:
 3752 034c 705F7469 		.ascii	"p_time\000"
 3752      6D6500
 3753              	.LASF44:
 3754 0353 54687265 		.ascii	"ThreadsList\000"
 3754      6164734C 
 3754      69737400 
 3755              	.LASF21:
 3756 035f 6576656E 		.ascii	"eventmask_t\000"
 3756      746D6173 
 3756      6B5F7400 
 3757              	.LASF161:
 3758 036b 6469736B 		.ascii	"disk_ioctl\000"
 3758      5F696F63 
 3758      746C00
 3759              	.LASF137:
 3760 0376 77726974 		.ascii	"write\000"
 3760      6500
 3761              	.LASF156:
 3762 037c 6469736B 		.ascii	"disk_read\000"
 3762      5F726561 
 3762      6400
 3763              	.LASF172:
 3764 0386 2E2E2F41 		.ascii	"../AithonLibrary/ChibiOS/os/various/fatfs_bindings/"
 3764      6974686F 
ARM GAS  /var/folders/ng/s8655sgx1ys_4lf9jzm2w6n00000gn/T//cc9MW9Dp.s 			page 70


 3764      6E4C6962 
 3764      72617279 
 3764      2F436869 
 3765 03b9 66617466 		.ascii	"fatfs_diskio.c\000"
 3765      735F6469 
 3765      736B696F 
 3765      2E6300
 3766              	.LASF89:
 3767 03c8 424C4B5F 		.ascii	"BLK_READING\000"
 3767      52454144 
 3767      494E4700 
 3768              	.LASF74:
 3769 03d4 49325350 		.ascii	"I2SPR\000"
 3769      5200
 3770              	.LASF48:
 3771 03da 73697A65 		.ascii	"sizetype\000"
 3771      74797065 
 3771      00
 3772              	.LASF96:
 3773 03e3 636C6561 		.ascii	"clear\000"
 3773      7200
 3774              	.LASF49:
 3775 03e9 4D757465 		.ascii	"Mutex\000"
 3775      7800
 3776              	.LASF144:
 3777 03ef 574F5244 		.ascii	"WORD\000"
 3777      00
 3778              	.LASF147:
 3779 03f4 5245535F 		.ascii	"RES_OK\000"
 3779      4F4B00
 3780              	.LASF29:
 3781 03fb 705F6F6C 		.ascii	"p_older\000"
 3781      64657200 
 3782              	.LASF91:
 3783 0403 424C4B5F 		.ascii	"BLK_SYNCING\000"
 3783      53594E43 
 3783      494E4700 
 3784              	.LASF166:
 3785 040f 6D6D6353 		.ascii	"mmcStartSequentialRead\000"
 3785      74617274 
 3785      53657175 
 3785      656E7469 
 3785      616C5265 
 3786              	.LASF88:
 3787 0426 424C4B5F 		.ascii	"BLK_READY\000"
 3787      52454144 
 3787      5900
 3788              	.LASF43:
 3789 0430 54687265 		.ascii	"ThreadsQueue\000"
 3789      61647351 
 3789      75657565 
 3789      00
 3790              	.LASF121:
 3791 043d 7478646D 		.ascii	"txdmamode\000"
 3791      616D6F64 
 3791      6500
 3792              	.LASF99:
ARM GAS  /var/folders/ng/s8655sgx1ys_4lf9jzm2w6n00000gn/T//cc9MW9Dp.s 			page 71


 3793 0447 4F535045 		.ascii	"OSPEEDR\000"
 3793      45445200 
 3794              	.LASF130:
 3795 044f 4D4D4343 		.ascii	"MMCConfig\000"
 3795      6F6E6669 
 3795      6700
 3796              	.LASF175:
 3797 0459 6D6D6353 		.ascii	"mmcStopSequentialWrite\000"
 3797      746F7053 
 3797      65717565 
 3797      6E746961 
 3797      6C577269 
 3798              	.LASF104:
 3799 0470 41465248 		.ascii	"AFRH\000"
 3799      00
 3800              	.LASF66:
 3801 0475 43524350 		.ascii	"CRCPR\000"
 3801      5200
 3802              	.LASF103:
 3803 047b 4146524C 		.ascii	"AFRL\000"
 3803      00
 3804              	.LASF70:
 3805 0480 54584352 		.ascii	"TXCRCR\000"
 3805      435200
 3806              	.LASF62:
 3807 0487 52455345 		.ascii	"RESERVED0\000"
 3807      52564544 
 3807      3000
 3808              	.LASF63:
 3809 0491 52455345 		.ascii	"RESERVED1\000"
 3809      52564544 
 3809      3100
 3810              	.LASF64:
 3811 049b 52455345 		.ascii	"RESERVED2\000"
 3811      52564544 
 3811      3200
 3812              	.LASF65:
 3813 04a5 52455345 		.ascii	"RESERVED3\000"
 3813      52564544 
 3813      3300
 3814              	.LASF67:
 3815 04af 52455345 		.ascii	"RESERVED4\000"
 3815      52564544 
 3815      3400
 3816              	.LASF25:
 3817 04b9 705F7072 		.ascii	"p_prev\000"
 3817      657600
 3818              	.LASF71:
 3819 04c0 52455345 		.ascii	"RESERVED6\000"
 3819      52564544 
 3819      3600
 3820              	.LASF73:
 3821 04ca 52455345 		.ascii	"RESERVED7\000"
 3821      52564544 
 3821      3700
 3822              	.LASF75:
 3823 04d4 52455345 		.ascii	"RESERVED8\000"
ARM GAS  /var/folders/ng/s8655sgx1ys_4lf9jzm2w6n00000gn/T//cc9MW9Dp.s 			page 72


 3823      52564544 
 3823      3800
 3824              	.LASF19:
 3825 04de 74707269 		.ascii	"tprio_t\000"
 3825      6F5F7400 
 3826              	.LASF117:
 3827 04e6 6D757465 		.ascii	"mutex\000"
 3827      7800
 3828              	.LASF14:
 3829 04ec 5F426F6F 		.ascii	"_Bool\000"
 3829      6C00
 3830              	.LASF7:
 3831 04f2 696E7433 		.ascii	"int32_t\000"
 3831      325F7400 
 3832              	.LASF2:
 3833 04fa 756E7369 		.ascii	"unsigned char\000"
 3833      676E6564 
 3833      20636861 
 3833      7200
 3834              	.LASF82:
 3835 0508 73746D33 		.ascii	"stm32_dma_stream_t\000"
 3835      325F646D 
 3835      615F7374 
 3835      7265616D 
 3835      5F7400
 3836              	.LASF40:
 3837 051b 705F6D74 		.ascii	"p_mtxlist\000"
 3837      786C6973 
 3837      7400
 3838              	.LASF3:
 3839 0525 73686F72 		.ascii	"short int\000"
 3839      7420696E 
 3839      7400
 3840              	.LASF31:
 3841 052f 705F7374 		.ascii	"p_state\000"
 3841      61746500 
 3842              	.LASF90:
 3843 0537 424C4B5F 		.ascii	"BLK_WRITING\000"
 3843      57524954 
 3843      494E4700 
 3844              	.LASF34:
 3845 0543 705F7072 		.ascii	"p_preempt\000"
 3845      65656D70 
 3845      7400
 3846              	.LASF56:
 3847 054d 65776D61 		.ascii	"ewmask\000"
 3847      736B00
 3848              	.LASF24:
 3849 0554 705F6E65 		.ascii	"p_next\000"
 3849      787400
 3850              	.LASF32:
 3851 055b 705F666C 		.ascii	"p_flags\000"
 3851      61677300 
 3852              	.LASF170:
 3853 0563 6D6D6353 		.ascii	"mmcSequentialWrite\000"
 3853      65717565 
 3853      6E746961 
ARM GAS  /var/folders/ng/s8655sgx1ys_4lf9jzm2w6n00000gn/T//cc9MW9Dp.s 			page 73


 3853      6C577269 
 3853      746500
 3854              	.LASF157:
 3855 0576 62756666 		.ascii	"buff\000"
 3855      00
 3856              	.LASF23:
 3857 057b 54687265 		.ascii	"Thread\000"
 3857      616400
 3858              	.LASF134:
 3859 0582 636F6E6E 		.ascii	"connect\000"
 3859      65637400 
 3860              	.LASF39:
 3861 058a 705F6570 		.ascii	"p_epending\000"
 3861      656E6469 
 3861      6E6700
 3862              	.LASF78:
 3863 0595 69666372 		.ascii	"ifcr\000"
 3863      00
 3864              	.LASF69:
 3865 059a 52455345 		.ascii	"RESERVED5\000"
 3865      52564544 
 3865      3500
 3866              	.LASF153:
 3867 05a4 6469736B 		.ascii	"disk_initialize\000"
 3867      5F696E69 
 3867      7469616C 
 3867      697A6500 
 3868              	.LASF9:
 3869 05b4 75696E74 		.ascii	"uint32_t\000"
 3869      33325F74 
 3869      00
 3870              	.LASF152:
 3871 05bd 44524553 		.ascii	"DRESULT\000"
 3871      554C5400 
 3872              	.LASF10:
 3873 05c5 6C6F6E67 		.ascii	"long unsigned int\000"
 3873      20756E73 
 3873      69676E65 
 3873      6420696E 
 3873      7400
 3874              	.LASF76:
 3875 05d7 5350495F 		.ascii	"SPI_TypeDef\000"
 3875      54797065 
 3875      44656600 
 3876              	.LASF136:
 3877 05e3 72656164 		.ascii	"read\000"
 3877      00
 3878              	.LASF57:
 3879 05e8 63686172 		.ascii	"char\000"
 3879      00
 3880              	.LASF111:
 3881 05ed 5350495F 		.ascii	"SPI_COMPLETE\000"
 3881      434F4D50 
 3881      4C455445 
 3881      00
 3882              	.LASF87:
 3883 05fa 424C4B5F 		.ascii	"BLK_DISCONNECTING\000"
ARM GAS  /var/folders/ng/s8655sgx1ys_4lf9jzm2w6n00000gn/T//cc9MW9Dp.s 			page 74


 3883      44495343 
 3883      4F4E4E45 
 3883      4354494E 
 3883      4700
 3884              	.LASF115:
 3885 060c 636F6E66 		.ascii	"config\000"
 3885      696700
 3886              	.LASF112:
 3887 0613 73706973 		.ascii	"spistate_t\000"
 3887      74617465 
 3887      5F7400
 3888              	.LASF52:
 3889 061e 6D5F6E65 		.ascii	"m_next\000"
 3889      787400
 3890              	.LASF22:
 3891 0625 73797374 		.ascii	"systime_t\000"
 3891      696D655F 
 3891      7400
 3892              	.LASF41:
 3893 062f 705F7265 		.ascii	"p_realprio\000"
 3893      616C7072 
 3893      696F00
 3894              	.LASF146:
 3895 063a 44535441 		.ascii	"DSTATUS\000"
 3895      54555300 
 3896              	.LASF116:
 3897 0642 74687265 		.ascii	"thread\000"
 3897      616400
 3898              	.LASF58:
 3899 0649 4E445452 		.ascii	"NDTR\000"
 3899      00
 3900              	.LASF61:
 3901 064e 444D415F 		.ascii	"DMA_Stream_TypeDef\000"
 3901      53747265 
 3901      616D5F54 
 3901      79706544 
 3901      656600
 3902              	.LASF106:
 3903 0661 696F706F 		.ascii	"ioportid_t\000"
 3903      72746964 
 3903      5F7400
 3904              	.LASF47:
 3905 066c 636F6E74 		.ascii	"context\000"
 3905      65787400 
 3906              	.LASF160:
 3907 0674 6469736B 		.ascii	"disk_write\000"
 3907      5F777269 
 3907      746500
 3908              	.LASF46:
 3909 067f 696E7463 		.ascii	"intctx\000"
 3909      747800
 3910              	.LASF132:
 3911 0686 69735F69 		.ascii	"is_inserted\000"
 3911      6E736572 
 3911      74656400 
 3912              	.LASF60:
 3913 0692 4D314152 		.ascii	"M1AR\000"
ARM GAS  /var/folders/ng/s8655sgx1ys_4lf9jzm2w6n00000gn/T//cc9MW9Dp.s 			page 75


 3913      00
 3914              	.LASF107:
 3915 0697 5350495F 		.ascii	"SPI_UNINIT\000"
 3915      554E494E 
 3915      495400
 3916              	.LASF142:
 3917 06a2 4D4D4344 		.ascii	"MMCDriver\000"
 3917      72697665 
 3917      7200
 3918              	.LASF30:
 3919 06ac 705F6E61 		.ascii	"p_name\000"
 3919      6D6500
 3920              	.LASF33:
 3921 06b3 705F7265 		.ascii	"p_refs\000"
 3921      667300
 3922              	.LASF101:
 3923 06ba 42535252 		.ascii	"BSRR\000"
 3923      00
 3924              	.LASF129:
 3925 06bf 68736366 		.ascii	"hscfg\000"
 3925      6700
 3926              	.LASF4:
 3927 06c5 75696E74 		.ascii	"uint8_t\000"
 3927      385F7400 
 3928              	.LASF127:
 3929 06cd 73706970 		.ascii	"spip\000"
 3929      00
 3930              	.LASF138:
 3931 06d2 73796E63 		.ascii	"sync\000"
 3931      00
 3932              	.LASF55:
 3933 06d7 77746F62 		.ascii	"wtobjp\000"
 3933      6A7000
 3934              	.LASF148:
 3935 06de 5245535F 		.ascii	"RES_ERROR\000"
 3935      4552524F 
 3935      5200
 3936              	.LASF126:
 3937 06e8 53504943 		.ascii	"SPIConfig\000"
 3937      6F6E6669 
 3937      6700
 3938              	.LASF38:
 3939 06f2 705F6D73 		.ascii	"p_msg\000"
 3939      6700
 3940              	.LASF168:
 3941 06f8 6D6D6353 		.ascii	"mmcStopSequentialRead\000"
 3941      746F7053 
 3941      65717565 
 3941      6E746961 
 3941      6C526561 
 3942              	.LASF51:
 3943 070e 6D5F6F77 		.ascii	"m_owner\000"
 3943      6E657200 
 3944              	.LASF81:
 3945 0716 76656374 		.ascii	"vector\000"
 3945      6F7200
 3946              	.LASF27:
ARM GAS  /var/folders/ng/s8655sgx1ys_4lf9jzm2w6n00000gn/T//cc9MW9Dp.s 			page 76


 3947 071d 705F6374 		.ascii	"p_ctx\000"
 3947      7800
 3948              	.LASF36:
 3949 0723 705F7761 		.ascii	"p_waiting\000"
 3949      6974696E 
 3949      6700
 3950              		.ident	"GCC: (GNU Tools for ARM Embedded Processors) 4.7.4 20130913 (release) [ARM/embedded-4_7-br
ARM GAS  /var/folders/ng/s8655sgx1ys_4lf9jzm2w6n00000gn/T//cc9MW9Dp.s 			page 77


DEFINED SYMBOLS
                            *ABS*:0000000000000000 fatfs_diskio.c
/var/folders/ng/s8655sgx1ys_4lf9jzm2w6n00000gn/T//cc9MW9Dp.s:20     .text.disk_initialize:0000000000000000 $t
/var/folders/ng/s8655sgx1ys_4lf9jzm2w6n00000gn/T//cc9MW9Dp.s:26     .text.disk_initialize:0000000000000000 disk_initialize
/var/folders/ng/s8655sgx1ys_4lf9jzm2w6n00000gn/T//cc9MW9Dp.s:74     .text.disk_initialize:0000000000000024 $d
/var/folders/ng/s8655sgx1ys_4lf9jzm2w6n00000gn/T//cc9MW9Dp.s:79     .text.disk_status:0000000000000000 $t
/var/folders/ng/s8655sgx1ys_4lf9jzm2w6n00000gn/T//cc9MW9Dp.s:85     .text.disk_status:0000000000000000 disk_status
/var/folders/ng/s8655sgx1ys_4lf9jzm2w6n00000gn/T//cc9MW9Dp.s:132    .text.disk_status:0000000000000024 $d
/var/folders/ng/s8655sgx1ys_4lf9jzm2w6n00000gn/T//cc9MW9Dp.s:137    .text.disk_read:0000000000000000 $t
/var/folders/ng/s8655sgx1ys_4lf9jzm2w6n00000gn/T//cc9MW9Dp.s:143    .text.disk_read:0000000000000000 disk_read
/var/folders/ng/s8655sgx1ys_4lf9jzm2w6n00000gn/T//cc9MW9Dp.s:278    .text.disk_read:0000000000000098 $d
/var/folders/ng/s8655sgx1ys_4lf9jzm2w6n00000gn/T//cc9MW9Dp.s:283    .text.disk_write:0000000000000000 $t
/var/folders/ng/s8655sgx1ys_4lf9jzm2w6n00000gn/T//cc9MW9Dp.s:289    .text.disk_write:0000000000000000 disk_write
/var/folders/ng/s8655sgx1ys_4lf9jzm2w6n00000gn/T//cc9MW9Dp.s:435    .text.disk_write:00000000000000a8 $d
/var/folders/ng/s8655sgx1ys_4lf9jzm2w6n00000gn/T//cc9MW9Dp.s:440    .text.disk_ioctl:0000000000000000 $t
/var/folders/ng/s8655sgx1ys_4lf9jzm2w6n00000gn/T//cc9MW9Dp.s:446    .text.disk_ioctl:0000000000000000 disk_ioctl
/var/folders/ng/s8655sgx1ys_4lf9jzm2w6n00000gn/T//cc9MW9Dp.s:484    .text.get_fattime:0000000000000000 $t
/var/folders/ng/s8655sgx1ys_4lf9jzm2w6n00000gn/T//cc9MW9Dp.s:490    .text.get_fattime:0000000000000000 get_fattime
                     .debug_frame:0000000000000010 $d
/var/folders/ng/s8655sgx1ys_4lf9jzm2w6n00000gn/T//cc9MW9Dp.s:78     .text.disk_initialize:0000000000000028 $t
/var/folders/ng/s8655sgx1ys_4lf9jzm2w6n00000gn/T//cc9MW9Dp.s:136    .text.disk_status:0000000000000028 $t
/var/folders/ng/s8655sgx1ys_4lf9jzm2w6n00000gn/T//cc9MW9Dp.s:282    .text.disk_read:000000000000009c $t
/var/folders/ng/s8655sgx1ys_4lf9jzm2w6n00000gn/T//cc9MW9Dp.s:439    .text.disk_write:00000000000000ac $t

UNDEFINED SYMBOLS
mmc_lld_is_write_protected
MMCD1
mmcStartSequentialRead
mmcSequentialRead
mmcStopSequentialRead
mmcStartSequentialWrite
mmcSequentialWrite
mmcStopSequentialWrite
