ARM GAS  /var/folders/ng/s8655sgx1ys_4lf9jzm2w6n00000gn/T//cc9MW9Dp.s 			page 1


   1              		.syntax unified
   2              		.cpu cortex-m4
   3              		.eabi_attribute 27, 3
   4              		.fpu fpv4-sp-d16
   5              		.eabi_attribute 20, 1
   6              		.eabi_attribute 21, 1
   7              		.eabi_attribute 23, 3
   8              		.eabi_attribute 24, 1
   9              		.eabi_attribute 25, 1
  10              		.eabi_attribute 26, 1
  11              		.eabi_attribute 30, 2
  12              		.eabi_attribute 34, 1
  13              		.eabi_attribute 18, 4
  14              		.thumb
  15              		.file	"fatfs_diskio.c"
  16              		.text
  17              	.Ltext0:
  18              		.cfi_sections	.debug_frame
  19              		.section	.text.disk_initialize,"ax",%progbits
  20              		.align	2
  21              		.p2align 4,,15
  22              		.global	disk_initialize
  23              		.thumb
  24              		.thumb_func
  25              		.type	disk_initialize, %function
  26              	disk_initialize:
  27              	.LFB118:
  28              		.file 1 "../AithonLibrary/ChibiOS/os/various/fatfs_bindings/fatfs_diskio.c"
  29              		.loc 1 44 0
  30              		.cfi_startproc
  31              		@ args = 0, pretend = 0, frame = 0
  32              		@ frame_needed = 0, uses_anonymous_args = 0
  33              	.LVL0:
  34 0000 10B5     		push	{r4, lr}
  35              	.LCFI0:
  36              		.cfi_def_cfa_offset 8
  37              		.cfi_offset 4, -8
  38              		.cfi_offset 14, -4
  39              		.loc 1 47 0
  40 0002 60B9     		cbnz	r0, .L8
  41              	.LVL1:
  42              		.loc 1 52 0
  43 0004 0748     		ldr	r0, .L10
  44              	.LVL2:
  45 0006 0479     		ldrb	r4, [r0, #4]	@ zero_extendqisi2
  46              		.loc 1 50 0
  47 0008 053C     		subs	r4, r4, #5
  48 000a 18BF     		it	ne
  49 000c 0124     		movne	r4, #1
  50              	.LVL3:
  51              		.loc 1 54 0
  52 000e FFF7FEFF 		bl	mmc_lld_is_write_protected
  53              	.LVL4:
  54 0012 10B1     		cbz	r0, .L2
  55              		.loc 1 55 0
  56 0014 44F00400 		orr	r0, r4, #4
  57 0018 C4B2     		uxtb	r4, r0
ARM GAS  /var/folders/ng/s8655sgx1ys_4lf9jzm2w6n00000gn/T//cc9MW9Dp.s 			page 2


  58              	.LVL5:
  59              	.L2:
  60              		.loc 1 69 0
  61 001a 2046     		mov	r0, r4
  62 001c 10BD     		pop	{r4, pc}
  63              	.LVL6:
  64              	.L8:
  65              		.loc 1 68 0
  66 001e 0224     		movs	r4, #2
  67              		.loc 1 69 0
  68 0020 2046     		mov	r0, r4
  69              	.LVL7:
  70 0022 10BD     		pop	{r4, pc}
  71              	.L11:
  72              		.align	2
  73              	.L10:
  74 0024 00000000 		.word	MMCD1
  75              		.cfi_endproc
  76              	.LFE118:
  77              		.size	disk_initialize, .-disk_initialize
  78 0028 AFF30080 		.section	.text.disk_status,"ax",%progbits
  78      AFF30080 
  79              		.align	2
  80              		.p2align 4,,15
  81              		.global	disk_status
  82              		.thumb
  83              		.thumb_func
  84              		.type	disk_status, %function
  85              	disk_status:
  86              	.LFB119:
  87              		.loc 1 79 0
  88              		.cfi_startproc
  89              		@ args = 0, pretend = 0, frame = 0
  90              		@ frame_needed = 0, uses_anonymous_args = 0
  91              	.LVL8:
  92 0000 10B5     		push	{r4, lr}
  93              	.LCFI1:
  94              		.cfi_def_cfa_offset 8
  95              		.cfi_offset 4, -8
  96              		.cfi_offset 14, -4
  97              		.loc 1 82 0
  98 0002 60B9     		cbnz	r0, .L19
  99              	.LVL9:
 100              		.loc 1 87 0
 101 0004 0748     		ldr	r0, .L20
 102              	.LVL10:
 103 0006 0479     		ldrb	r4, [r0, #4]	@ zero_extendqisi2
 104              		.loc 1 85 0
 105 0008 053C     		subs	r4, r4, #5
 106 000a 18BF     		it	ne
 107 000c 0124     		movne	r4, #1
 108              	.LVL11:
 109              		.loc 1 89 0
 110 000e FFF7FEFF 		bl	mmc_lld_is_write_protected
 111              	.LVL12:
 112 0012 10B1     		cbz	r0, .L13
 113              		.loc 1 90 0
ARM GAS  /var/folders/ng/s8655sgx1ys_4lf9jzm2w6n00000gn/T//cc9MW9Dp.s 			page 3


 114 0014 44F00400 		orr	r0, r4, #4
 115 0018 C4B2     		uxtb	r4, r0
 116              	.LVL13:
 117              	.L13:
 118              		.loc 1 104 0
 119 001a 2046     		mov	r0, r4
 120 001c 10BD     		pop	{r4, pc}
 121              	.LVL14:
 122              	.L19:
 123              		.loc 1 103 0
 124 001e 0224     		movs	r4, #2
 125              		.loc 1 104 0
 126 0020 2046     		mov	r0, r4
 127              	.LVL15:
 128 0022 10BD     		pop	{r4, pc}
 129              	.L21:
 130              		.align	2
 131              	.L20:
 132 0024 00000000 		.word	MMCD1
 133              		.cfi_endproc
 134              	.LFE119:
 135              		.size	disk_status, .-disk_status
 136 0028 AFF30080 		.section	.text.disk_read,"ax",%progbits
 136      AFF30080 
 137              		.align	2
 138              		.p2align 4,,15
 139              		.global	disk_read
 140              		.thumb
 141              		.thumb_func
 142              		.type	disk_read, %function
 143              	disk_read:
 144              	.LFB120:
 145              		.loc 1 117 0
 146              		.cfi_startproc
 147              		@ args = 0, pretend = 0, frame = 8
 148              		@ frame_needed = 0, uses_anonymous_args = 0
 149              	.LVL16:
 150 0000 F0B5     		push	{r4, r5, r6, r7, lr}
 151              	.LCFI2:
 152              		.cfi_def_cfa_offset 20
 153              		.cfi_offset 4, -20
 154              		.cfi_offset 5, -16
 155              		.cfi_offset 6, -12
 156              		.cfi_offset 7, -8
 157              		.cfi_offset 14, -4
 158 0002 0C46     		mov	r4, r1
 159 0004 83B0     		sub	sp, sp, #12
 160              	.LCFI3:
 161              		.cfi_def_cfa_offset 32
 162              		.loc 1 118 0
 163 0006 30B9     		cbnz	r0, .L40
 164              		.loc 1 121 0
 165 0008 234D     		ldr	r5, .L45
 166 000a 2979     		ldrb	r1, [r5, #4]	@ zero_extendqisi2
 167              	.LVL17:
 168              		.loc 1 122 0
 169 000c 0320     		movs	r0, #3
ARM GAS  /var/folders/ng/s8655sgx1ys_4lf9jzm2w6n00000gn/T//cc9MW9Dp.s 			page 4


 170              	.LVL18:
 171              		.loc 1 121 0
 172 000e 0529     		cmp	r1, #5
 173 0010 03D0     		beq	.L43
 174              	.LVL19:
 175              	.L23:
 176              		.loc 1 144 0
 177 0012 03B0     		add	sp, sp, #12
 178 0014 F0BD     		pop	{r4, r5, r6, r7, pc}
 179              	.LVL20:
 180              	.L40:
 181              		.loc 1 143 0
 182 0016 0420     		movs	r0, #4
 183              	.LVL21:
 184 0018 FBE7     		b	.L23
 185              	.LVL22:
 186              	.L43:
 187              		.loc 1 123 0
 188 001a 2846     		mov	r0, r5
 189 001c 1146     		mov	r1, r2
 190 001e 0193     		str	r3, [sp, #4]
 191 0020 FFF7FEFF 		bl	mmcStartSequentialRead
 192              	.LVL23:
 193 0024 019B     		ldr	r3, [sp, #4]
 194 0026 78BB     		cbnz	r0, .L27
 195              	.LVL24:
 196              		.loc 1 125 0 discriminator 1
 197 0028 83B3     		cbz	r3, .L29
 198 002a 5E1E     		subs	r6, r3, #1
 199              		.loc 1 126 0
 200 002c 2846     		mov	r0, r5
 201 002e 2146     		mov	r1, r4
 202 0030 06F00107 		and	r7, r6, #1
 203 0034 FFF7FEFF 		bl	mmcSequentialRead
 204              	.LVL25:
 205 0038 30BB     		cbnz	r0, .L27
 206              		.loc 1 125 0
 207 003a 16F0FF06 		ands	r6, r6, #255
 208              	.LVL26:
 209              		.loc 1 128 0
 210 003e 04F50074 		add	r4, r4, #512
 211              	.LVL27:
 212              		.loc 1 125 0
 213 0042 23D0     		beq	.L29
 214 0044 9FB1     		cbz	r7, .L32
 215              		.loc 1 126 0
 216 0046 2846     		mov	r0, r5
 217 0048 2146     		mov	r1, r4
 218 004a FFF7FEFF 		bl	mmcSequentialRead
 219              	.LVL28:
 220 004e D8B9     		cbnz	r0, .L27
 221              		.loc 1 129 0
 222 0050 013E     		subs	r6, r6, #1
 223              		.loc 1 125 0
 224 0052 16F0FF06 		ands	r6, r6, #255
 225              		.loc 1 128 0
 226 0056 04F50074 		add	r4, r4, #512
ARM GAS  /var/folders/ng/s8655sgx1ys_4lf9jzm2w6n00000gn/T//cc9MW9Dp.s 			page 5


 227              	.LVL29:
 228              		.loc 1 125 0
 229 005a 08D1     		bne	.L32
 230 005c 16E0     		b	.L29
 231              	.L44:
 232              		.loc 1 126 0
 233 005e 0E48     		ldr	r0, .L45
 234 0060 FFF7FEFF 		bl	mmcSequentialRead
 235              	.LVL30:
 236              		.loc 1 129 0
 237 0064 711E     		subs	r1, r6, #1
 238              		.loc 1 126 0
 239 0066 78B9     		cbnz	r0, .L27
 240              		.loc 1 125 0
 241 0068 11F0FF06 		ands	r6, r1, #255
 242 006c 0ED0     		beq	.L29
 243              	.L32:
 244              		.loc 1 126 0
 245 006e 2146     		mov	r1, r4
 246 0070 0948     		ldr	r0, .L45
 247 0072 FFF7FEFF 		bl	mmcSequentialRead
 248              	.LVL31:
 249              		.loc 1 128 0
 250 0076 04F50075 		add	r5, r4, #512
 251              		.loc 1 129 0
 252 007a 721E     		subs	r2, r6, #1
 253              		.loc 1 126 0
 254 007c 2946     		mov	r1, r5
 255              		.loc 1 129 0
 256 007e D6B2     		uxtb	r6, r2
 257              		.loc 1 128 0
 258 0080 04F58064 		add	r4, r4, #1024
 259              		.loc 1 126 0
 260 0084 0028     		cmp	r0, #0
 261 0086 EAD0     		beq	.L44
 262              	.L27:
 263              		.loc 1 124 0
 264 0088 0120     		movs	r0, #1
 265 008a C2E7     		b	.L23
 266              	.L29:
 267              		.loc 1 131 0
 268 008c 0248     		ldr	r0, .L45
 269              		.loc 1 144 0
 270 008e 03B0     		add	sp, sp, #12
 271 0090 BDE8F040 		pop	{r4, r5, r6, r7, lr}
 272              		.loc 1 131 0
 273 0094 FFF7FEBF 		b	mmcStopSequentialRead
 274              	.LVL32:
 275              	.L46:
 276              		.align	2
 277              	.L45:
 278 0098 00000000 		.word	MMCD1
 279              		.cfi_endproc
 280              	.LFE120:
 281              		.size	disk_read, .-disk_read
 282 009c AFF30080 		.section	.text.disk_write,"ax",%progbits
 283              		.align	2
ARM GAS  /var/folders/ng/s8655sgx1ys_4lf9jzm2w6n00000gn/T//cc9MW9Dp.s 			page 6


 284              		.p2align 4,,15
 285              		.global	disk_write
 286              		.thumb
 287              		.thumb_func
 288              		.type	disk_write, %function
 289              	disk_write:
 290              	.LFB121:
 291              		.loc 1 158 0
 292              		.cfi_startproc
 293              		@ args = 0, pretend = 0, frame = 8
 294              		@ frame_needed = 0, uses_anonymous_args = 0
 295              	.LVL33:
 296 0000 F0B5     		push	{r4, r5, r6, r7, lr}
 297              	.LCFI4:
 298              		.cfi_def_cfa_offset 20
 299              		.cfi_offset 4, -20
 300              		.cfi_offset 5, -16
 301              		.cfi_offset 6, -12
 302              		.cfi_offset 7, -8
 303              		.cfi_offset 14, -4
 304 0002 0C46     		mov	r4, r1
 305 0004 83B0     		sub	sp, sp, #12
 306              	.LCFI5:
 307              		.cfi_def_cfa_offset 32
 308              		.loc 1 159 0
 309 0006 30B9     		cbnz	r0, .L66
 310              		.loc 1 162 0
 311 0008 274D     		ldr	r5, .L72
 312 000a 2979     		ldrb	r1, [r5, #4]	@ zero_extendqisi2
 313              	.LVL34:
 314              		.loc 1 163 0
 315 000c 0320     		movs	r0, #3
 316              	.LVL35:
 317              		.loc 1 162 0
 318 000e 0529     		cmp	r1, #5
 319 0010 03D0     		beq	.L69
 320              	.LVL36:
 321              	.L48:
 322              		.loc 1 187 0
 323 0012 03B0     		add	sp, sp, #12
 324 0014 F0BD     		pop	{r4, r5, r6, r7, pc}
 325              	.LVL37:
 326              	.L66:
 327              		.loc 1 186 0
 328 0016 0420     		movs	r0, #4
 329              	.LVL38:
 330 0018 FBE7     		b	.L48
 331              	.LVL39:
 332              	.L69:
 333              		.loc 1 164 0
 334 001a 2846     		mov	r0, r5
 335 001c 0192     		str	r2, [sp, #4]
 336 001e 0093     		str	r3, [sp, #0]
 337 0020 FFF7FEFF 		bl	mmc_lld_is_write_protected
 338              	.LVL40:
 339 0024 019A     		ldr	r2, [sp, #4]
 340 0026 08B1     		cbz	r0, .L70
ARM GAS  /var/folders/ng/s8655sgx1ys_4lf9jzm2w6n00000gn/T//cc9MW9Dp.s 			page 7


 341              		.loc 1 165 0
 342 0028 0220     		movs	r0, #2
 343 002a F2E7     		b	.L48
 344              	.L70:
 345              		.loc 1 166 0
 346 002c 2846     		mov	r0, r5
 347 002e 1146     		mov	r1, r2
 348 0030 FFF7FEFF 		bl	mmcStartSequentialWrite
 349              	.LVL41:
 350 0034 009B     		ldr	r3, [sp, #0]
 351 0036 78BB     		cbnz	r0, .L52
 352              	.LVL42:
 353              		.loc 1 168 0 discriminator 1
 354 0038 83B3     		cbz	r3, .L54
 355 003a 5E1E     		subs	r6, r3, #1
 356              		.loc 1 169 0
 357 003c 2846     		mov	r0, r5
 358 003e 2146     		mov	r1, r4
 359 0040 06F00107 		and	r7, r6, #1
 360 0044 FFF7FEFF 		bl	mmcSequentialWrite
 361              	.LVL43:
 362 0048 30BB     		cbnz	r0, .L52
 363              		.loc 1 168 0
 364 004a 16F0FF06 		ands	r6, r6, #255
 365              	.LVL44:
 366              		.loc 1 171 0
 367 004e 04F50074 		add	r4, r4, #512
 368              	.LVL45:
 369              		.loc 1 168 0
 370 0052 23D0     		beq	.L54
 371 0054 9FB1     		cbz	r7, .L58
 372              		.loc 1 169 0
 373 0056 2846     		mov	r0, r5
 374 0058 2146     		mov	r1, r4
 375 005a FFF7FEFF 		bl	mmcSequentialWrite
 376              	.LVL46:
 377 005e D8B9     		cbnz	r0, .L52
 378              		.loc 1 172 0
 379 0060 013E     		subs	r6, r6, #1
 380              		.loc 1 168 0
 381 0062 16F0FF06 		ands	r6, r6, #255
 382              		.loc 1 171 0
 383 0066 04F50074 		add	r4, r4, #512
 384              	.LVL47:
 385              		.loc 1 168 0
 386 006a 08D1     		bne	.L58
 387 006c 16E0     		b	.L54
 388              	.L71:
 389              		.loc 1 169 0
 390 006e 0E48     		ldr	r0, .L72
 391 0070 FFF7FEFF 		bl	mmcSequentialWrite
 392              	.LVL48:
 393              		.loc 1 172 0
 394 0074 711E     		subs	r1, r6, #1
 395              		.loc 1 169 0
 396 0076 78B9     		cbnz	r0, .L52
 397              		.loc 1 168 0
ARM GAS  /var/folders/ng/s8655sgx1ys_4lf9jzm2w6n00000gn/T//cc9MW9Dp.s 			page 8


 398 0078 11F0FF06 		ands	r6, r1, #255
 399 007c 0ED0     		beq	.L54
 400              	.L58:
 401              		.loc 1 169 0
 402 007e 2146     		mov	r1, r4
 403 0080 0948     		ldr	r0, .L72
 404 0082 FFF7FEFF 		bl	mmcSequentialWrite
 405              	.LVL49:
 406              		.loc 1 171 0
 407 0086 04F50075 		add	r5, r4, #512
 408              		.loc 1 172 0
 409 008a 721E     		subs	r2, r6, #1
 410              		.loc 1 169 0
 411 008c 2946     		mov	r1, r5
 412              		.loc 1 172 0
 413 008e D6B2     		uxtb	r6, r2
 414              		.loc 1 171 0
 415 0090 04F58064 		add	r4, r4, #1024
 416              		.loc 1 169 0
 417 0094 0028     		cmp	r0, #0
 418 0096 EAD0     		beq	.L71
 419              	.L52:
 420              		.loc 1 167 0
 421 0098 0120     		movs	r0, #1
 422 009a BAE7     		b	.L48
 423              	.L54:
 424              		.loc 1 174 0
 425 009c 0248     		ldr	r0, .L72
 426              		.loc 1 187 0
 427 009e 03B0     		add	sp, sp, #12
 428 00a0 BDE8F040 		pop	{r4, r5, r6, r7, lr}
 429              		.loc 1 174 0
 430 00a4 FFF7FEBF 		b	mmcStopSequentialWrite
 431              	.LVL50:
 432              	.L73:
 433              		.align	2
 434              	.L72:
 435 00a8 00000000 		.word	MMCD1
 436              		.cfi_endproc
 437              	.LFE121:
 438              		.size	disk_write, .-disk_write
 439 00ac AFF30080 		.section	.text.disk_ioctl,"ax",%progbits
 440              		.align	2
 441              		.p2align 4,,15
 442              		.global	disk_ioctl
 443              		.thumb
 444              		.thumb_func
 445              		.type	disk_ioctl, %function
 446              	disk_ioctl:
 447              	.LFB122:
 448              		.loc 1 200 0
 449              		.cfi_startproc
 450              		@ args = 0, pretend = 0, frame = 0
 451              		@ frame_needed = 0, uses_anonymous_args = 0
 452              		@ link register save eliminated.
 453              	.LVL51:
 454              		.loc 1 201 0
ARM GAS  /var/folders/ng/s8655sgx1ys_4lf9jzm2w6n00000gn/T//cc9MW9Dp.s 			page 9


 455 0000 20B9     		cbnz	r0, .L82
 456              		.loc 1 204 0
 457 0002 09B9     		cbnz	r1, .L83
 458              		.loc 1 206 0
 459 0004 0846     		mov	r0, r1
 460              	.LVL52:
 461 0006 7047     		bx	lr
 462              	.LVL53:
 463              	.L83:
 464              		.loc 1 204 0
 465 0008 0229     		cmp	r1, #2
 466 000a 01D0     		beq	.L84
 467              	.L82:
 468              		.loc 1 216 0
 469 000c 0420     		movs	r0, #4
 470              	.LVL54:
 471              		.loc 1 243 0
 472 000e 7047     		bx	lr
 473              	.LVL55:
 474              	.L84:
 475              		.loc 1 208 0
 476 0010 4FF40073 		mov	r3, #512
 477 0014 1380     		strh	r3, [r2, #0]	@ movhi
 478              		.loc 1 209 0
 479 0016 7047     		bx	lr
 480              		.cfi_endproc
 481              	.LFE122:
 482              		.size	disk_ioctl, .-disk_ioctl
 483 0018 AFF30080 		.section	.text.get_fattime,"ax",%progbits
 483      AFF30080 
 484              		.align	2
 485              		.p2align 4,,15
 486              		.global	get_fattime
 487              		.thumb
 488              		.thumb_func
 489              		.type	get_fattime, %function
 490              	get_fattime:
 491              	.LFB123:
 492              		.loc 1 245 0
 493              		.cfi_startproc
 494              		@ args = 0, pretend = 0, frame = 0
 495              		@ frame_needed = 0, uses_anonymous_args = 0
 496              		@ link register save eliminated.
 497              		.loc 1 251 0
 498 0000 4FF40410 		mov	r0, #2162688
 499 0004 7047     		bx	lr
 500              		.cfi_endproc
 501              	.LFE123:
 502              		.size	get_fattime, .-get_fattime
 503 0006 00BFAFF3 		.text
 503      0080AFF3 
 503      0080
 504              	.Letext0:
 505              		.file 2 "/Users/jseng/gccarm/bin/../lib/gcc/arm-none-eabi/4.7.4/../../../../arm-none-eabi/include/
 506              		.file 3 "../AithonLibrary/ChibiOS/os/ports/GCC/ARMCMx/chtypes.h"
 507              		.file 4 "../AithonLibrary/ChibiOS/os/kernel/include/chlists.h"
 508              		.file 5 "../AithonLibrary/ChibiOS/os/kernel/include/chthreads.h"
ARM GAS  /var/folders/ng/s8655sgx1ys_4lf9jzm2w6n00000gn/T//cc9MW9Dp.s 			page 10


 509              		.file 6 "../AithonLibrary/ChibiOS/os/ports/GCC/ARMCMx/chcore_v7m.h"
 510              		.file 7 "../AithonLibrary/ChibiOS/os/kernel/include/chmtx.h"
 511              		.file 8 "../AithonLibrary/ChibiOS/os/hal/platforms/STM32F4xx/stm32f4xx.h"
 512              		.file 9 "../AithonLibrary/ChibiOS/os/hal/platforms/STM32F4xx/stm32_dma.h"
 513              		.file 10 "../AithonLibrary/ChibiOS/os/hal/include/io_block.h"
 514              		.file 11 "../AithonLibrary/ChibiOS/os/hal/platforms/STM32/GPIOv2/pal_lld.h"
 515              		.file 12 "../AithonLibrary/ChibiOS/os/hal/include/spi.h"
 516              		.file 13 "../AithonLibrary/ChibiOS/os/hal/platforms/STM32/SPIv1/spi_lld.h"
 517              		.file 14 "../AithonLibrary/ChibiOS/os/hal/include/mmc_spi.h"
 518              		.file 15 "../AithonLibrary/ChibiOS/ext/fatfs/src/integer.h"
 519              		.file 16 "../AithonLibrary/ChibiOS/ext/fatfs/src/diskio.h"
 520              		.file 17 "../AithonLibrary/ChibiOS/os/ports/common/ARMCMx/CMSIS/include/core_cm4.h"