ARM GAS  /var/folders/ng/s8655sgx1ys_4lf9jzm2w6n00000gn/T//ccdQObGS.s 			page 1


   1              		.syntax unified
   2              		.cpu cortex-m4
   3              		.eabi_attribute 27, 3
   4              		.fpu fpv4-sp-d16
   5              		.eabi_attribute 20, 1
   6              		.eabi_attribute 21, 1
   7              		.eabi_attribute 23, 3
   8              		.eabi_attribute 24, 1
   9              		.eabi_attribute 25, 1
  10              		.eabi_attribute 26, 1
  11              		.eabi_attribute 30, 2
  12              		.eabi_attribute 34, 1
  13              		.eabi_attribute 18, 4
  14              		.thumb
  15              		.file	"flash_if.c"
  16              		.text
  17              	.Ltext0:
  18              		.cfi_sections	.debug_frame
  19              		.section	.text.FLASH_If_Init,"ax",%progbits
  20              		.align	2
  21              		.p2align 4,,15
  22              		.global	FLASH_If_Init
  23              		.thumb
  24              		.thumb_func
  25              		.type	FLASH_If_Init, %function
  26              	FLASH_If_Init:
  27              	.LFB111:
  28              		.file 1 "../AithonLibrary/flash_if.c"
  29              		.loc 1 42 0
  30              		.cfi_startproc
  31              		@ args = 0, pretend = 0, frame = 0
  32              		@ frame_needed = 0, uses_anonymous_args = 0
  33 0000 08B5     		push	{r3, lr}
  34              	.LCFI0:
  35              		.cfi_def_cfa_offset 8
  36              		.cfi_offset 3, -8
  37              		.cfi_offset 14, -4
  38              		.loc 1 43 0
  39 0002 FFF7FEFF 		bl	FLASH_Unlock
  40              	.LVL0:
  41              		.loc 1 46 0
  42 0006 F320     		movs	r0, #243
  43              		.loc 1 48 0
  44 0008 BDE80840 		pop	{r3, lr}
  45              		.loc 1 46 0
  46 000c FFF7FEBF 		b	FLASH_ClearFlag
  47              	.LVL1:
  48              		.cfi_endproc
  49              	.LFE111:
  50              		.size	FLASH_If_Init, .-FLASH_If_Init
  51              		.section	.text.FLASH_If_Erase_Start,"ax",%progbits
  52              		.align	2
  53              		.p2align 4,,15
  54              		.global	FLASH_If_Erase_Start
  55              		.thumb
  56              		.thumb_func
  57              		.type	FLASH_If_Erase_Start, %function
ARM GAS  /var/folders/ng/s8655sgx1ys_4lf9jzm2w6n00000gn/T//ccdQObGS.s 			page 2


  58              	FLASH_If_Erase_Start:
  59              	.LFB112:
  60              		.loc 1 54 0
  61              		.cfi_startproc
  62              		@ args = 0, pretend = 0, frame = 0
  63              		@ frame_needed = 0, uses_anonymous_args = 0
  64              		@ link register save eliminated.
  65              		.loc 1 55 0
  66 0000 40F20002 		movw	r2, #:lower16:.LANCHOR0
  67              		.loc 1 56 0
  68 0004 40F20003 		movw	r3, #:lower16:.LANCHOR1
  69              		.loc 1 55 0
  70 0008 C0F20002 		movt	r2, #:upper16:.LANCHOR0
  71              		.loc 1 56 0
  72 000c C0F20003 		movt	r3, #:upper16:.LANCHOR1
  73 0010 0020     		movs	r0, #0
  74              		.loc 1 55 0
  75 0012 2821     		movs	r1, #40
  76              		.loc 1 56 0
  77 0014 1860     		str	r0, [r3, #0]
  78              		.loc 1 55 0
  79 0016 1160     		str	r1, [r2, #0]
  80              		.loc 1 58 0
  81 0018 0120     		movs	r0, #1
  82 001a 7047     		bx	lr
  83              		.cfi_endproc
  84              	.LFE112:
  85              		.size	FLASH_If_Erase_Start, .-FLASH_If_Erase_Start
  86 001c AFF30080 		.section	.text.FLASH_If_Erase_Status,"ax",%progbits
  87              		.align	2
  88              		.p2align 4,,15
  89              		.global	FLASH_If_Erase_Status
  90              		.thumb
  91              		.thumb_func
  92              		.type	FLASH_If_Erase_Status, %function
  93              	FLASH_If_Erase_Status:
  94              	.LFB113:
  95              		.loc 1 60 0
  96              		.cfi_startproc
  97              		@ args = 0, pretend = 0, frame = 0
  98              		@ frame_needed = 0, uses_anonymous_args = 0
  99              	.LVL2:
 100 0000 38B5     		push	{r3, r4, r5, lr}
 101              	.LCFI1:
 102              		.cfi_def_cfa_offset 16
 103              		.cfi_offset 3, -16
 104              		.cfi_offset 4, -12
 105              		.cfi_offset 5, -8
 106              		.cfi_offset 14, -4
 107              		.loc 1 62 0
 108 0002 124C     		ldr	r4, .L13
 109 0004 2368     		ldr	r3, [r4, #0]
 110 0006 5A1C     		adds	r2, r3, #1
 111              		.loc 1 60 0
 112 0008 0546     		mov	r5, r0
 113              		.loc 1 62 0
 114 000a 0AD0     		beq	.L7
ARM GAS  /var/folders/ng/s8655sgx1ys_4lf9jzm2w6n00000gn/T//ccdQObGS.s 			page 3


 115              		.loc 1 66 0
 116 000c 104A     		ldr	r2, .L13+4
 117 000e 1168     		ldr	r1, [r2, #0]
 118 0010 8B42     		cmp	r3, r1
 119 0012 08D0     		beq	.L6
 120              		.loc 1 69 0
 121 0014 0221     		movs	r1, #2
 122 0016 1846     		mov	r0, r3
 123              	.LVL3:
 124              		.loc 1 68 0
 125 0018 1360     		str	r3, [r2, #0]
 126              		.loc 1 69 0
 127 001a FFF7FEFF 		bl	FLASH_EraseSectorStart
 128              	.LVL4:
 129 001e 0828     		cmp	r0, #8
 130 0020 09D0     		beq	.L11
 131              	.L7:
 132              		.loc 1 63 0
 133 0022 0220     		movs	r0, #2
 134 0024 38BD     		pop	{r3, r4, r5, pc}
 135              	.LVL5:
 136              	.L6:
 137              		.loc 1 75 0
 138 0026 FFF7FEFF 		bl	FLASH_EraseSectorGetStatus
 139              	.LVL6:
 140              		.loc 1 76 0
 141 002a 0128     		cmp	r0, #1
 142 002c 02D0     		beq	.L5
 143              		.loc 1 80 0
 144 002e 0828     		cmp	r0, #8
 145 0030 03D0     		beq	.L12
 146              		.loc 1 90 0
 147 0032 0020     		movs	r0, #0
 148              	.LVL7:
 149              	.L5:
 150              		.loc 1 92 0
 151 0034 38BD     		pop	{r3, r4, r5, pc}
 152              	.L11:
 153              		.loc 1 72 0
 154 0036 0120     		movs	r0, #1
 155 0038 38BD     		pop	{r3, r4, r5, pc}
 156              	.LVL8:
 157              	.L12:
 158              		.loc 1 82 0
 159 003a 2068     		ldr	r0, [r4, #0]
 160              	.LVL9:
 161 003c 0830     		adds	r0, r0, #8
 162              		.loc 1 63 0
 163 003e A842     		cmp	r0, r5
 164              		.loc 1 82 0
 165 0040 2060     		str	r0, [r4, #0]
 166              		.loc 1 63 0
 167 0042 CCBF     		ite	gt
 168 0044 0020     		movgt	r0, #0
 169 0046 0120     		movle	r0, #1
 170 0048 38BD     		pop	{r3, r4, r5, pc}
 171              	.L14:
ARM GAS  /var/folders/ng/s8655sgx1ys_4lf9jzm2w6n00000gn/T//ccdQObGS.s 			page 4


 172 004a 00BF     		.align	2
 173              	.L13:
 174 004c 00000000 		.word	.LANCHOR0
 175 0050 00000000 		.word	.LANCHOR1
 176              		.cfi_endproc
 177              	.LFE113:
 178              		.size	FLASH_If_Erase_Status, .-FLASH_If_Erase_Status
 179 0054 AFF30080 		.section	.text.FLASH_If_Erase,"ax",%progbits
 179      AFF30080 
 179      AFF30080 
 180              		.align	2
 181              		.p2align 4,,15
 182              		.global	FLASH_If_Erase
 183              		.thumb
 184              		.thumb_func
 185              		.type	FLASH_If_Erase, %function
 186              	FLASH_If_Erase:
 187              	.LFB114:
 188              		.loc 1 101 0
 189              		.cfi_startproc
 190              		@ args = 0, pretend = 0, frame = 0
 191              		@ frame_needed = 0, uses_anonymous_args = 0
 192              	.LVL10:
 193              		.loc 1 107 0
 194 0000 2820     		movs	r0, #40
 195 0002 0221     		movs	r1, #2
 196              		.loc 1 101 0
 197 0004 08B5     		push	{r3, lr}
 198              	.LCFI2:
 199              		.cfi_def_cfa_offset 8
 200              		.cfi_offset 3, -8
 201              		.cfi_offset 14, -4
 202              		.loc 1 107 0
 203 0006 FFF7FEFF 		bl	FLASH_EraseSector
 204              	.LVL11:
 205 000a 0828     		cmp	r0, #8
 206 000c 25D1     		bne	.L22
 207              	.LVL12:
 208 000e 3020     		movs	r0, #48
 209 0010 0221     		movs	r1, #2
 210 0012 FFF7FEFF 		bl	FLASH_EraseSector
 211              	.LVL13:
 212 0016 0828     		cmp	r0, #8
 213 0018 1FD1     		bne	.L22
 214              	.LVL14:
 215 001a 3820     		movs	r0, #56
 216 001c 0221     		movs	r1, #2
 217 001e FFF7FEFF 		bl	FLASH_EraseSector
 218              	.LVL15:
 219 0022 0828     		cmp	r0, #8
 220 0024 19D1     		bne	.L22
 221              	.LVL16:
 222 0026 4020     		movs	r0, #64
 223 0028 0221     		movs	r1, #2
 224 002a FFF7FEFF 		bl	FLASH_EraseSector
 225              	.LVL17:
 226 002e 0828     		cmp	r0, #8
ARM GAS  /var/folders/ng/s8655sgx1ys_4lf9jzm2w6n00000gn/T//ccdQObGS.s 			page 5


 227 0030 13D1     		bne	.L22
 228              	.LVL18:
 229 0032 4820     		movs	r0, #72
 230 0034 0221     		movs	r1, #2
 231 0036 FFF7FEFF 		bl	FLASH_EraseSector
 232              	.LVL19:
 233 003a 0828     		cmp	r0, #8
 234 003c 0DD1     		bne	.L22
 235              	.LVL20:
 236 003e 5020     		movs	r0, #80
 237 0040 0221     		movs	r1, #2
 238 0042 FFF7FEFF 		bl	FLASH_EraseSector
 239              	.LVL21:
 240 0046 0828     		cmp	r0, #8
 241 0048 07D1     		bne	.L22
 242              	.LVL22:
 243 004a 0221     		movs	r1, #2
 244 004c 5820     		movs	r0, #88
 245 004e FFF7FEFF 		bl	FLASH_EraseSector
 246              	.LVL23:
 247 0052 0838     		subs	r0, r0, #8
 248 0054 18BF     		it	ne
 249 0056 0120     		movne	r0, #1
 250 0058 08BD     		pop	{r3, pc}
 251              	.LVL24:
 252              	.L22:
 253              		.loc 1 110 0
 254 005a 0120     		movs	r0, #1
 255              		.loc 1 115 0
 256 005c 08BD     		pop	{r3, pc}
 257              		.cfi_endproc
 258              	.LFE114:
 259              		.size	FLASH_If_Erase, .-FLASH_If_Erase
 260 005e 00BF     		.section	.text.FLASH_If_Write,"ax",%progbits
 261              		.align	2
 262              		.p2align 4,,15
 263              		.global	FLASH_If_Write
 264              		.thumb
 265              		.thumb_func
 266              		.type	FLASH_If_Write, %function
 267              	FLASH_If_Write:
 268              	.LFB115:
 269              		.loc 1 128 0
 270              		.cfi_startproc
 271              		@ args = 0, pretend = 0, frame = 0
 272              		@ frame_needed = 0, uses_anonymous_args = 0
 273              	.LVL25:
 274 0000 2DE9F843 		push	{r3, r4, r5, r6, r7, r8, r9, lr}
 275              	.LCFI3:
 276              		.cfi_def_cfa_offset 32
 277              		.cfi_offset 3, -32
 278              		.cfi_offset 4, -28
 279              		.cfi_offset 5, -24
 280              		.cfi_offset 6, -20
 281              		.cfi_offset 7, -16
 282              		.cfi_offset 8, -12
 283              		.cfi_offset 9, -8
ARM GAS  /var/folders/ng/s8655sgx1ys_4lf9jzm2w6n00000gn/T//ccdQObGS.s 			page 6


 284              		.cfi_offset 14, -4
 285              		.loc 1 131 0
 286 0004 9146     		mov	r9, r2
 287              		.loc 1 128 0
 288 0006 0446     		mov	r4, r0
 289              		.loc 1 131 0
 290 0008 FAB1     		cbz	r2, .L26
 291 000a 0368     		ldr	r3, [r0, #0]
 292 000c 4FF6FB78 		movw	r8, #65531
 293 0010 C0F60F08 		movt	r8, 2063
 294 0014 4345     		cmp	r3, r8
 295 0016 18D8     		bhi	.L26
 296 0018 0027     		movs	r7, #0
 297 001a 12F0010F 		tst	r2, #1
 298 001e 0D46     		mov	r5, r1
 299 0020 37D1     		bne	.L27
 300              		.loc 1 135 0
 301 0022 0068     		ldr	r0, [r0, #0]
 302              	.LVL26:
 303 0024 55F8041B 		ldr	r1, [r5], #4
 304              	.LVL27:
 305 0028 FFF7FEFF 		bl	FLASH_ProgramWord
 306              	.LVL28:
 307 002c 0828     		cmp	r0, #8
 308 002e 3CD1     		bne	.L28
 309              		.loc 1 138 0
 310 0030 2268     		ldr	r2, [r4, #0]
 311 0032 55F8040C 		ldr	r0, [r5, #-4]
 312 0036 1168     		ldr	r1, [r2, #0]
 313 0038 8142     		cmp	r1, r0
 314 003a 39D1     		bne	.L29
 315              		.loc 1 144 0
 316 003c 2768     		ldr	r7, [r4, #0]
 317 003e 3B1D     		adds	r3, r7, #4
 318 0040 2360     		str	r3, [r4, #0]
 319              		.loc 1 131 0
 320 0042 2268     		ldr	r2, [r4, #0]
 321 0044 0127     		movs	r7, #1
 322              	.LVL29:
 323 0046 4245     		cmp	r2, r8
 324 0048 23D9     		bls	.L27
 325              	.LVL30:
 326              	.L26:
 327              		.loc 1 153 0
 328 004a 0020     		movs	r0, #0
 329 004c BDE8F883 		pop	{r3, r4, r5, r6, r7, r8, r9, pc}
 330              	.L39:
 331              		.loc 1 138 0
 332 0050 2068     		ldr	r0, [r4, #0]
 333 0052 56F8042C 		ldr	r2, [r6, #-4]
 334 0056 0168     		ldr	r1, [r0, #0]
 335 0058 9142     		cmp	r1, r2
 336 005a 29D1     		bne	.L29
 337              		.loc 1 144 0
 338 005c 2068     		ldr	r0, [r4, #0]
 339 005e 021D     		adds	r2, r0, #4
 340              		.loc 1 131 0
ARM GAS  /var/folders/ng/s8655sgx1ys_4lf9jzm2w6n00000gn/T//ccdQObGS.s 			page 7


 341 0060 4B45     		cmp	r3, r9
 342              		.loc 1 144 0
 343 0062 2260     		str	r2, [r4, #0]
 344              		.loc 1 131 0
 345 0064 F1D0     		beq	.L26
 346              		.loc 1 131 0 is_stmt 0 discriminator 2
 347 0066 2368     		ldr	r3, [r4, #0]
 348 0068 4345     		cmp	r3, r8
 349 006a EED8     		bhi	.L26
 350              		.loc 1 135 0 is_stmt 1
 351 006c 2068     		ldr	r0, [r4, #0]
 352 006e 55F8041B 		ldr	r1, [r5], #4
 353 0072 FFF7FEFF 		bl	FLASH_ProgramWord
 354              	.LVL31:
 355 0076 0828     		cmp	r0, #8
 356 0078 17D1     		bne	.L28
 357              		.loc 1 138 0
 358 007a 2168     		ldr	r1, [r4, #0]
 359 007c 55F8040C 		ldr	r0, [r5, #-4]
 360 0080 0A68     		ldr	r2, [r1, #0]
 361 0082 8242     		cmp	r2, r0
 362 0084 14D1     		bne	.L29
 363              		.loc 1 144 0
 364 0086 2368     		ldr	r3, [r4, #0]
 365 0088 191D     		adds	r1, r3, #4
 366 008a 2160     		str	r1, [r4, #0]
 367              		.loc 1 131 0
 368 008c 2068     		ldr	r0, [r4, #0]
 369 008e 4045     		cmp	r0, r8
 370 0090 DBD8     		bhi	.L26
 371              	.LVL32:
 372              	.L27:
 373              		.loc 1 135 0
 374 0092 2E46     		mov	r6, r5
 375 0094 2068     		ldr	r0, [r4, #0]
 376 0096 56F8041B 		ldr	r1, [r6], #4
 377 009a FFF7FEFF 		bl	FLASH_ProgramWord
 378              	.LVL33:
 379              		.loc 1 131 0
 380 009e 7B1C     		adds	r3, r7, #1
 381              		.loc 1 135 0
 382 00a0 0828     		cmp	r0, #8
 383 00a2 3546     		mov	r5, r6
 384              		.loc 1 131 0
 385 00a4 07F10207 		add	r7, r7, #2
 386              		.loc 1 135 0
 387 00a8 D2D0     		beq	.L39
 388              	.L28:
 389              		.loc 1 149 0
 390 00aa 0120     		movs	r0, #1
 391 00ac BDE8F883 		pop	{r3, r4, r5, r6, r7, r8, r9, pc}
 392              	.L29:
 393              		.loc 1 141 0
 394 00b0 0220     		movs	r0, #2
 395              		.loc 1 154 0
 396 00b2 BDE8F883 		pop	{r3, r4, r5, r6, r7, r8, r9, pc}
 397              		.cfi_endproc
ARM GAS  /var/folders/ng/s8655sgx1ys_4lf9jzm2w6n00000gn/T//ccdQObGS.s 			page 8


 398              	.LFE115:
 399              		.size	FLASH_If_Write, .-FLASH_If_Write
 400 00b6 00BFAFF3 		.section	.text.FLASH_Addr_To_Sector,"ax",%progbits
 400      0080AFF3 
 400      0080
 401              		.align	2
 402              		.p2align 4,,15
 403              		.global	FLASH_Addr_To_Sector
 404              		.thumb
 405              		.thumb_func
 406              		.type	FLASH_Addr_To_Sector, %function
 407              	FLASH_Addr_To_Sector:
 408              	.LFB116:
 409              		.loc 1 157 0
 410              		.cfi_startproc
 411              		@ args = 0, pretend = 0, frame = 0
 412              		@ frame_needed = 0, uses_anonymous_args = 0
 413              		@ link register save eliminated.
 414              	.LVL34:
 415              		.loc 1 158 0
 416 0000 B0F1006F 		cmp	r0, #134217728
 417 0004 02D2     		bcs	.L67
 418              		.loc 1 159 0
 419 0006 4FF6FF70 		movw	r0, #65535
 420              	.LVL35:
 421 000a 7047     		bx	lr
 422              	.LVL36:
 423              	.L67:
 424              		.loc 1 160 0
 425 000c 43F6FF73 		movw	r3, #16383
 426 0010 C0F60003 		movt	r3, 2048
 427 0014 9842     		cmp	r0, r3
 428 0016 0FD9     		bls	.L43
 429              		.loc 1 162 0
 430 0018 47F6FF71 		movw	r1, #32767
 431 001c C0F60001 		movt	r1, 2048
 432 0020 8842     		cmp	r0, r1
 433 0022 01D8     		bhi	.L68
 434              		.loc 1 163 0
 435 0024 0820     		movs	r0, #8
 436              	.LVL37:
 437 0026 7047     		bx	lr
 438              	.LVL38:
 439              	.L68:
 440              		.loc 1 164 0
 441 0028 4BF6FF72 		movw	r2, #49151
 442 002c C0F60002 		movt	r2, 2048
 443 0030 9042     		cmp	r0, r2
 444 0032 03D8     		bhi	.L69
 445              		.loc 1 165 0
 446 0034 1020     		movs	r0, #16
 447              	.LVL39:
 448 0036 7047     		bx	lr
 449              	.LVL40:
 450              	.L43:
 451              		.loc 1 161 0
 452 0038 0020     		movs	r0, #0
ARM GAS  /var/folders/ng/s8655sgx1ys_4lf9jzm2w6n00000gn/T//ccdQObGS.s 			page 9


 453              	.LVL41:
 454 003a 7047     		bx	lr
 455              	.LVL42:
 456              	.L69:
 457              		.loc 1 166 0
 458 003c 4FF6FF73 		movw	r3, #65535
 459 0040 C0F60003 		movt	r3, 2048
 460 0044 9842     		cmp	r0, r3
 461 0046 01D8     		bhi	.L70
 462              		.loc 1 167 0
 463 0048 1820     		movs	r0, #24
 464              	.LVL43:
 465 004a 7047     		bx	lr
 466              	.LVL44:
 467              	.L70:
 468              		.loc 1 168 0
 469 004c 4FF6FF71 		movw	r1, #65535
 470 0050 C0F60101 		movt	r1, 2049
 471 0054 8842     		cmp	r0, r1
 472 0056 01D8     		bhi	.L71
 473              		.loc 1 169 0
 474 0058 2020     		movs	r0, #32
 475              	.LVL45:
 476 005a 7047     		bx	lr
 477              	.LVL46:
 478              	.L71:
 479              		.loc 1 170 0
 480 005c 4FF6FF72 		movw	r2, #65535
 481 0060 C0F60302 		movt	r2, 2051
 482 0064 9042     		cmp	r0, r2
 483 0066 01D8     		bhi	.L72
 484              		.loc 1 171 0
 485 0068 2820     		movs	r0, #40
 486              	.LVL47:
 487 006a 7047     		bx	lr
 488              	.LVL48:
 489              	.L72:
 490              		.loc 1 172 0
 491 006c 4FF6FF73 		movw	r3, #65535
 492 0070 C0F60503 		movt	r3, 2053
 493 0074 9842     		cmp	r0, r3
 494 0076 01D8     		bhi	.L73
 495              		.loc 1 173 0
 496 0078 3020     		movs	r0, #48
 497              	.LVL49:
 498 007a 7047     		bx	lr
 499              	.LVL50:
 500              	.L73:
 501              		.loc 1 174 0
 502 007c 4FF6FF71 		movw	r1, #65535
 503 0080 C0F60701 		movt	r1, 2055
 504 0084 8842     		cmp	r0, r1
 505 0086 01D8     		bhi	.L74
 506              		.loc 1 175 0
 507 0088 3820     		movs	r0, #56
 508              	.LVL51:
 509 008a 7047     		bx	lr
ARM GAS  /var/folders/ng/s8655sgx1ys_4lf9jzm2w6n00000gn/T//ccdQObGS.s 			page 10


 510              	.LVL52:
 511              	.L74:
 512              		.loc 1 176 0
 513 008c 4FF6FF72 		movw	r2, #65535
 514 0090 C0F60902 		movt	r2, 2057
 515 0094 9042     		cmp	r0, r2
 516 0096 01D8     		bhi	.L75
 517              		.loc 1 177 0
 518 0098 4020     		movs	r0, #64
 519              	.LVL53:
 520 009a 7047     		bx	lr
 521              	.LVL54:
 522              	.L75:
 523              		.loc 1 178 0
 524 009c 4FF6FF73 		movw	r3, #65535
 525 00a0 C0F60B03 		movt	r3, 2059
 526 00a4 9842     		cmp	r0, r3
 527 00a6 01D8     		bhi	.L76
 528              		.loc 1 179 0
 529 00a8 4820     		movs	r0, #72
 530              	.LVL55:
 531 00aa 7047     		bx	lr
 532              	.LVL56:
 533              	.L76:
 534              		.loc 1 180 0
 535 00ac 4FF6FF71 		movw	r1, #65535
 536 00b0 C0F60D01 		movt	r1, 2061
 537 00b4 8842     		cmp	r0, r1
 538 00b6 01D8     		bhi	.L77
 539              		.loc 1 181 0
 540 00b8 5020     		movs	r0, #80
 541              	.LVL57:
 542 00ba 7047     		bx	lr
 543              	.LVL58:
 544              	.L77:
 545              		.loc 1 182 0
 546 00bc B0F1016F 		cmp	r0, #135266304
 547 00c0 01D2     		bcs	.L78
 548              		.loc 1 183 0
 549 00c2 5820     		movs	r0, #88
 550              	.LVL59:
 551 00c4 7047     		bx	lr
 552              	.LVL60:
 553              	.L78:
 554              		.loc 1 184 0
 555 00c6 43F6FF72 		movw	r2, #16383
 556 00ca C0F61002 		movt	r2, 2064
 557 00ce 9042     		cmp	r0, r2
 558 00d0 01D8     		bhi	.L79
 559              		.loc 1 185 0
 560 00d2 6020     		movs	r0, #96
 561              	.LVL61:
 562 00d4 7047     		bx	lr
 563              	.LVL62:
 564              	.L79:
 565              		.loc 1 186 0
 566 00d6 47F6FF73 		movw	r3, #32767
ARM GAS  /var/folders/ng/s8655sgx1ys_4lf9jzm2w6n00000gn/T//ccdQObGS.s 			page 11


 567 00da C0F61003 		movt	r3, 2064
 568 00de 9842     		cmp	r0, r3
 569 00e0 01D8     		bhi	.L80
 570              		.loc 1 187 0
 571 00e2 6820     		movs	r0, #104
 572              	.LVL63:
 573 00e4 7047     		bx	lr
 574              	.LVL64:
 575              	.L80:
 576              		.loc 1 188 0
 577 00e6 4BF6FF71 		movw	r1, #49151
 578 00ea C0F61001 		movt	r1, 2064
 579 00ee 8842     		cmp	r0, r1
 580 00f0 01D8     		bhi	.L81
 581              		.loc 1 189 0
 582 00f2 7020     		movs	r0, #112
 583              	.LVL65:
 584 00f4 7047     		bx	lr
 585              	.LVL66:
 586              	.L81:
 587              		.loc 1 190 0
 588 00f6 4FF6FF72 		movw	r2, #65535
 589 00fa C0F61002 		movt	r2, 2064
 590 00fe 9042     		cmp	r0, r2
 591 0100 01D8     		bhi	.L82
 592              		.loc 1 191 0
 593 0102 7820     		movs	r0, #120
 594              	.LVL67:
 595 0104 7047     		bx	lr
 596              	.LVL68:
 597              	.L82:
 598              		.loc 1 192 0
 599 0106 4FF6FF73 		movw	r3, #65535
 600 010a C0F61103 		movt	r3, 2065
 601 010e 9842     		cmp	r0, r3
 602 0110 01D8     		bhi	.L83
 603              		.loc 1 193 0
 604 0112 8020     		movs	r0, #128
 605              	.LVL69:
 606 0114 7047     		bx	lr
 607              	.LVL70:
 608              	.L83:
 609              		.loc 1 194 0
 610 0116 4FF6FF71 		movw	r1, #65535
 611 011a C0F61301 		movt	r1, 2067
 612 011e 8842     		cmp	r0, r1
 613 0120 01D8     		bhi	.L84
 614              		.loc 1 195 0
 615 0122 8820     		movs	r0, #136
 616              	.LVL71:
 617 0124 7047     		bx	lr
 618              	.LVL72:
 619              	.L84:
 620              		.loc 1 196 0
 621 0126 4FF6FF72 		movw	r2, #65535
 622 012a C0F61502 		movt	r2, 2069
 623 012e 9042     		cmp	r0, r2
ARM GAS  /var/folders/ng/s8655sgx1ys_4lf9jzm2w6n00000gn/T//ccdQObGS.s 			page 12


 624 0130 01D8     		bhi	.L85
 625              		.loc 1 197 0
 626 0132 9020     		movs	r0, #144
 627              	.LVL73:
 628 0134 7047     		bx	lr
 629              	.LVL74:
 630              	.L85:
 631              		.loc 1 198 0
 632 0136 4FF6FF73 		movw	r3, #65535
 633 013a C0F61703 		movt	r3, 2071
 634 013e 9842     		cmp	r0, r3
 635 0140 01D8     		bhi	.L86
 636              		.loc 1 199 0
 637 0142 9820     		movs	r0, #152
 638              	.LVL75:
 639 0144 7047     		bx	lr
 640              	.LVL76:
 641              	.L86:
 642              		.loc 1 200 0
 643 0146 4FF6FF71 		movw	r1, #65535
 644 014a C0F61901 		movt	r1, 2073
 645 014e 8842     		cmp	r0, r1
 646 0150 01D8     		bhi	.L87
 647              		.loc 1 201 0
 648 0152 A020     		movs	r0, #160
 649              	.LVL77:
 650 0154 7047     		bx	lr
 651              	.LVL78:
 652              	.L87:
 653              		.loc 1 202 0
 654 0156 4FF6FF72 		movw	r2, #65535
 655 015a C0F61B02 		movt	r2, 2075
 656 015e 9042     		cmp	r0, r2
 657 0160 01D8     		bhi	.L88
 658              		.loc 1 203 0
 659 0162 A820     		movs	r0, #168
 660              	.LVL79:
 661 0164 7047     		bx	lr
 662              	.LVL80:
 663              	.L88:
 664              		.loc 1 204 0
 665 0166 4FF6FF73 		movw	r3, #65535
 666 016a C0F61D03 		movt	r3, 2077
 667 016e 9842     		cmp	r0, r3
 668 0170 01D8     		bhi	.L89
 669              		.loc 1 205 0
 670 0172 B020     		movs	r0, #176
 671              	.LVL81:
 672              		.loc 1 210 0
 673 0174 7047     		bx	lr
 674              	.LVL82:
 675              	.L89:
 676              		.loc 1 207 0
 677 0176 4FF6FF71 		movw	r1, #65535
 678 017a B0F1026F 		cmp	r0, #136314880
 679 017e 2CBF     		ite	cs
 680 0180 0846     		movcs	r0, r1
ARM GAS  /var/folders/ng/s8655sgx1ys_4lf9jzm2w6n00000gn/T//ccdQObGS.s 			page 13


 681 0182 B820     		movcc	r0, #184
 682              	.LVL83:
 683 0184 7047     		bx	lr
 684              		.cfi_endproc
 685              	.LFE116:
 686              		.size	FLASH_Addr_To_Sector, .-FLASH_Addr_To_Sector
 687 0186 00BFAFF3 		.section	.data._nextEraseSector,"aw",%progbits
 687      0080AFF3 
 687      0080
 688              		.align	2
 689              		.set	.LANCHOR0,. + 0
 690              		.type	_nextEraseSector, %object
 691              		.size	_nextEraseSector, 4
 692              	_nextEraseSector:
 693 0000 FFFFFFFF 		.word	-1
 694              		.section	.bss._currentEraseSector,"aw",%nobits
 695              		.align	2
 696              		.set	.LANCHOR1,. + 0
 697              		.type	_currentEraseSector, %object
 698              		.size	_currentEraseSector, 4
 699              	_currentEraseSector:
 700 0000 00000000 		.space	4
 701              		.text
 702              	.Letext0:
 703              		.file 2 "/Users/jseng/gccarm/bin/../lib/gcc/arm-none-eabi/4.7.4/../../../../arm-none-eabi/include/
 704              		.file 3 "../AithonLibrary/stm_flash.h"
 705              		.file 4 "../AithonLibrary/flash_if.h"
 706              		.file 5 "../AithonLibrary/ChibiOS/os/ports/common/ARMCMx/CMSIS/include/core_cm4.h"
 707              		.section	.debug_info,"",%progbits
 708              	.Ldebug_info0:
 709 0000 ED030000 		.4byte	0x3ed
 710 0004 0200     		.2byte	0x2
 711 0006 00000000 		.4byte	.Ldebug_abbrev0
 712 000a 04       		.byte	0x4
 713 000b 01       		.uleb128 0x1
 714 000c 03010000 		.4byte	.LASF43
 715 0010 01       		.byte	0x1
 716 0011 B8010000 		.4byte	.LASF44
 717 0015 7E020000 		.4byte	.LASF45
 718 0019 00000000 		.4byte	.Ldebug_ranges0+0
 719 001d 00000000 		.4byte	0
 720 0021 00000000 		.4byte	0
 721 0025 00000000 		.4byte	.Ldebug_line0
 722 0029 02       		.uleb128 0x2
 723 002a 01       		.byte	0x1
 724 002b 06       		.byte	0x6
 725 002c 08020000 		.4byte	.LASF0
 726 0030 03       		.uleb128 0x3
 727 0031 EB010000 		.4byte	.LASF3
 728 0035 02       		.byte	0x2
 729 0036 2A       		.byte	0x2a
 730 0037 3B000000 		.4byte	0x3b
 731 003b 02       		.uleb128 0x2
 732 003c 01       		.byte	0x1
 733 003d 08       		.byte	0x8
 734 003e C1000000 		.4byte	.LASF1
 735 0042 02       		.uleb128 0x2
ARM GAS  /var/folders/ng/s8655sgx1ys_4lf9jzm2w6n00000gn/T//ccdQObGS.s 			page 14


 736 0043 02       		.byte	0x2
 737 0044 05       		.byte	0x5
 738 0045 89010000 		.4byte	.LASF2
 739 0049 03       		.uleb128 0x3
 740 004a C5020000 		.4byte	.LASF4
 741 004e 02       		.byte	0x2
 742 004f 36       		.byte	0x36
 743 0050 54000000 		.4byte	0x54
 744 0054 02       		.uleb128 0x2
 745 0055 02       		.byte	0x2
 746 0056 07       		.byte	0x7
 747 0057 25020000 		.4byte	.LASF5
 748 005b 03       		.uleb128 0x3
 749 005c 14020000 		.4byte	.LASF6
 750 0060 02       		.byte	0x2
 751 0061 4F       		.byte	0x4f
 752 0062 66000000 		.4byte	0x66
 753 0066 02       		.uleb128 0x2
 754 0067 04       		.byte	0x4
 755 0068 05       		.byte	0x5
 756 0069 FF020000 		.4byte	.LASF7
 757 006d 03       		.uleb128 0x3
 758 006e F6020000 		.4byte	.LASF8
 759 0072 02       		.byte	0x2
 760 0073 50       		.byte	0x50
 761 0074 78000000 		.4byte	0x78
 762 0078 02       		.uleb128 0x2
 763 0079 04       		.byte	0x4
 764 007a 07       		.byte	0x7
 765 007b CF000000 		.4byte	.LASF9
 766 007f 02       		.uleb128 0x2
 767 0080 08       		.byte	0x8
 768 0081 05       		.byte	0x5
 769 0082 38020000 		.4byte	.LASF10
 770 0086 02       		.uleb128 0x2
 771 0087 08       		.byte	0x8
 772 0088 07       		.byte	0x7
 773 0089 D4010000 		.4byte	.LASF11
 774 008d 04       		.uleb128 0x4
 775 008e 04       		.byte	0x4
 776 008f 05       		.byte	0x5
 777 0090 696E7400 		.ascii	"int\000"
 778 0094 02       		.uleb128 0x2
 779 0095 04       		.byte	0x4
 780 0096 07       		.byte	0x7
 781 0097 AB010000 		.4byte	.LASF12
 782 009b 02       		.uleb128 0x2
 783 009c 04       		.byte	0x4
 784 009d 07       		.byte	0x7
 785 009e 1C020000 		.4byte	.LASF13
 786 00a2 05       		.uleb128 0x5
 787 00a3 6D000000 		.4byte	0x6d
 788 00a7 05       		.uleb128 0x5
 789 00a8 5B000000 		.4byte	0x5b
 790 00ac 06       		.uleb128 0x6
 791 00ad 01       		.byte	0x1
 792 00ae 03       		.byte	0x3
ARM GAS  /var/folders/ng/s8655sgx1ys_4lf9jzm2w6n00000gn/T//ccdQObGS.s 			page 15


 793 00af 2F       		.byte	0x2f
 794 00b0 E5000000 		.4byte	0xe5
 795 00b4 07       		.uleb128 0x7
 796 00b5 15030000 		.4byte	.LASF14
 797 00b9 01       		.sleb128 1
 798 00ba 07       		.uleb128 0x7
 799 00bb 4C010000 		.4byte	.LASF15
 800 00bf 02       		.sleb128 2
 801 00c0 07       		.uleb128 0x7
 802 00c1 F3000000 		.4byte	.LASF16
 803 00c5 03       		.sleb128 3
 804 00c6 07       		.uleb128 0x7
 805 00c7 B1000000 		.4byte	.LASF17
 806 00cb 04       		.sleb128 4
 807 00cc 07       		.uleb128 0x7
 808 00cd F8010000 		.4byte	.LASF18
 809 00d1 05       		.sleb128 5
 810 00d2 07       		.uleb128 0x7
 811 00d3 55000000 		.4byte	.LASF19
 812 00d7 06       		.sleb128 6
 813 00d8 07       		.uleb128 0x7
 814 00d9 53020000 		.4byte	.LASF20
 815 00dd 07       		.sleb128 7
 816 00de 07       		.uleb128 0x7
 817 00df 24000000 		.4byte	.LASF21
 818 00e3 08       		.sleb128 8
 819 00e4 00       		.byte	0
 820 00e5 03       		.uleb128 0x3
 821 00e6 46020000 		.4byte	.LASF22
 822 00ea 03       		.byte	0x3
 823 00eb 38       		.byte	0x38
 824 00ec AC000000 		.4byte	0xac
 825 00f0 06       		.uleb128 0x6
 826 00f1 01       		.byte	0x1
 827 00f2 04       		.byte	0x4
 828 00f3 1F       		.byte	0x1f
 829 00f4 0B010000 		.4byte	0x10b
 830 00f8 07       		.uleb128 0x7
 831 00f9 8D000000 		.4byte	.LASF23
 832 00fd 00       		.sleb128 0
 833 00fe 07       		.uleb128 0x7
 834 00ff 5C010000 		.4byte	.LASF24
 835 0103 01       		.sleb128 1
 836 0104 07       		.uleb128 0x7
 837 0105 12000000 		.4byte	.LASF25
 838 0109 02       		.sleb128 2
 839 010a 00       		.byte	0
 840 010b 03       		.uleb128 0x3
 841 010c 43000000 		.4byte	.LASF26
 842 0110 04       		.byte	0x4
 843 0111 23       		.byte	0x23
 844 0112 F0000000 		.4byte	0xf0
 845 0116 08       		.uleb128 0x8
 846 0117 01       		.byte	0x1
 847 0118 9D010000 		.4byte	.LASF46
 848 011c 01       		.byte	0x1
 849 011d 29       		.byte	0x29
ARM GAS  /var/folders/ng/s8655sgx1ys_4lf9jzm2w6n00000gn/T//ccdQObGS.s 			page 16


 850 011e 01       		.byte	0x1
 851 011f 00000000 		.4byte	.LFB111
 852 0123 10000000 		.4byte	.LFE111
 853 0127 00000000 		.4byte	.LLST0
 854 012b 01       		.byte	0x1
 855 012c 4B010000 		.4byte	0x14b
 856 0130 09       		.uleb128 0x9
 857 0131 06000000 		.4byte	.LVL0
 858 0135 71030000 		.4byte	0x371
 859 0139 0A       		.uleb128 0xa
 860 013a 10000000 		.4byte	.LVL1
 861 013e 01       		.byte	0x1
 862 013f 7B030000 		.4byte	0x37b
 863 0143 0B       		.uleb128 0xb
 864 0144 01       		.byte	0x1
 865 0145 50       		.byte	0x50
 866 0146 02       		.byte	0x2
 867 0147 08       		.byte	0x8
 868 0148 F3       		.byte	0xf3
 869 0149 00       		.byte	0
 870 014a 00       		.byte	0
 871 014b 0C       		.uleb128 0xc
 872 014c 01       		.byte	0x1
 873 014d 69020000 		.4byte	.LASF47
 874 0151 01       		.byte	0x1
 875 0152 35       		.byte	0x35
 876 0153 01       		.byte	0x1
 877 0154 0B010000 		.4byte	0x10b
 878 0158 00000000 		.4byte	.LFB112
 879 015c 1C000000 		.4byte	.LFE112
 880 0160 02       		.byte	0x2
 881 0161 7D       		.byte	0x7d
 882 0162 00       		.sleb128 0
 883 0163 01       		.byte	0x1
 884 0164 0D       		.uleb128 0xd
 885 0165 01       		.byte	0x1
 886 0166 9B020000 		.4byte	.LASF27
 887 016a 01       		.byte	0x1
 888 016b 3B       		.byte	0x3b
 889 016c 01       		.byte	0x1
 890 016d 0B010000 		.4byte	0x10b
 891 0171 00000000 		.4byte	.LFB113
 892 0175 54000000 		.4byte	.LFE113
 893 0179 20000000 		.4byte	.LLST1
 894 017d 01       		.byte	0x1
 895 017e BD010000 		.4byte	0x1bd
 896 0182 0E       		.uleb128 0xe
 897 0183 93010000 		.4byte	.LASF31
 898 0187 01       		.byte	0x1
 899 0188 3B       		.byte	0x3b
 900 0189 49000000 		.4byte	0x49
 901 018d 40000000 		.4byte	.LLST2
 902 0191 0F       		.uleb128 0xf
 903 0192 0B000000 		.4byte	.LASF29
 904 0196 01       		.byte	0x1
 905 0197 4B       		.byte	0x4b
 906 0198 E5000000 		.4byte	0xe5
ARM GAS  /var/folders/ng/s8655sgx1ys_4lf9jzm2w6n00000gn/T//ccdQObGS.s 			page 17


 907 019c 7A000000 		.4byte	.LLST3
 908 01a0 10       		.uleb128 0x10
 909 01a1 1E000000 		.4byte	.LVL4
 910 01a5 8F030000 		.4byte	0x38f
 911 01a9 B3010000 		.4byte	0x1b3
 912 01ad 0B       		.uleb128 0xb
 913 01ae 01       		.byte	0x1
 914 01af 51       		.byte	0x51
 915 01b0 01       		.byte	0x1
 916 01b1 32       		.byte	0x32
 917 01b2 00       		.byte	0
 918 01b3 09       		.uleb128 0x9
 919 01b4 2A000000 		.4byte	.LVL6
 920 01b8 AC030000 		.4byte	0x3ac
 921 01bc 00       		.byte	0
 922 01bd 0D       		.uleb128 0xd
 923 01be 01       		.byte	0x1
 924 01bf A2000000 		.4byte	.LASF28
 925 01c3 01       		.byte	0x1
 926 01c4 64       		.byte	0x64
 927 01c5 01       		.byte	0x1
 928 01c6 6D000000 		.4byte	0x6d
 929 01ca 00000000 		.4byte	.LFB114
 930 01ce 5E000000 		.4byte	.LFE114
 931 01d2 98000000 		.4byte	.LLST4
 932 01d6 01       		.byte	0x1
 933 01d7 94020000 		.4byte	0x294
 934 01db 11       		.uleb128 0x11
 935 01dc 6900     		.ascii	"i\000"
 936 01de 01       		.byte	0x1
 937 01df 66       		.byte	0x66
 938 01e0 8D000000 		.4byte	0x8d
 939 01e4 B8000000 		.4byte	.LLST5
 940 01e8 10       		.uleb128 0x10
 941 01e9 0A000000 		.4byte	.LVL11
 942 01ed BA030000 		.4byte	0x3ba
 943 01f1 01020000 		.4byte	0x201
 944 01f5 0B       		.uleb128 0xb
 945 01f6 01       		.byte	0x1
 946 01f7 51       		.byte	0x51
 947 01f8 01       		.byte	0x1
 948 01f9 32       		.byte	0x32
 949 01fa 0B       		.uleb128 0xb
 950 01fb 01       		.byte	0x1
 951 01fc 50       		.byte	0x50
 952 01fd 02       		.byte	0x2
 953 01fe 08       		.byte	0x8
 954 01ff 28       		.byte	0x28
 955 0200 00       		.byte	0
 956 0201 10       		.uleb128 0x10
 957 0202 16000000 		.4byte	.LVL13
 958 0206 BA030000 		.4byte	0x3ba
 959 020a 1A020000 		.4byte	0x21a
 960 020e 0B       		.uleb128 0xb
 961 020f 01       		.byte	0x1
 962 0210 51       		.byte	0x51
 963 0211 01       		.byte	0x1
ARM GAS  /var/folders/ng/s8655sgx1ys_4lf9jzm2w6n00000gn/T//ccdQObGS.s 			page 18


 964 0212 32       		.byte	0x32
 965 0213 0B       		.uleb128 0xb
 966 0214 01       		.byte	0x1
 967 0215 50       		.byte	0x50
 968 0216 02       		.byte	0x2
 969 0217 08       		.byte	0x8
 970 0218 30       		.byte	0x30
 971 0219 00       		.byte	0
 972 021a 10       		.uleb128 0x10
 973 021b 22000000 		.4byte	.LVL15
 974 021f BA030000 		.4byte	0x3ba
 975 0223 33020000 		.4byte	0x233
 976 0227 0B       		.uleb128 0xb
 977 0228 01       		.byte	0x1
 978 0229 51       		.byte	0x51
 979 022a 01       		.byte	0x1
 980 022b 32       		.byte	0x32
 981 022c 0B       		.uleb128 0xb
 982 022d 01       		.byte	0x1
 983 022e 50       		.byte	0x50
 984 022f 02       		.byte	0x2
 985 0230 08       		.byte	0x8
 986 0231 38       		.byte	0x38
 987 0232 00       		.byte	0
 988 0233 10       		.uleb128 0x10
 989 0234 2E000000 		.4byte	.LVL17
 990 0238 BA030000 		.4byte	0x3ba
 991 023c 4C020000 		.4byte	0x24c
 992 0240 0B       		.uleb128 0xb
 993 0241 01       		.byte	0x1
 994 0242 51       		.byte	0x51
 995 0243 01       		.byte	0x1
 996 0244 32       		.byte	0x32
 997 0245 0B       		.uleb128 0xb
 998 0246 01       		.byte	0x1
 999 0247 50       		.byte	0x50
 1000 0248 02       		.byte	0x2
 1001 0249 08       		.byte	0x8
 1002 024a 40       		.byte	0x40
 1003 024b 00       		.byte	0
 1004 024c 10       		.uleb128 0x10
 1005 024d 3A000000 		.4byte	.LVL19
 1006 0251 BA030000 		.4byte	0x3ba
 1007 0255 65020000 		.4byte	0x265
 1008 0259 0B       		.uleb128 0xb
 1009 025a 01       		.byte	0x1
 1010 025b 51       		.byte	0x51
 1011 025c 01       		.byte	0x1
 1012 025d 32       		.byte	0x32
 1013 025e 0B       		.uleb128 0xb
 1014 025f 01       		.byte	0x1
 1015 0260 50       		.byte	0x50
 1016 0261 02       		.byte	0x2
 1017 0262 08       		.byte	0x8
 1018 0263 48       		.byte	0x48
 1019 0264 00       		.byte	0
 1020 0265 10       		.uleb128 0x10
ARM GAS  /var/folders/ng/s8655sgx1ys_4lf9jzm2w6n00000gn/T//ccdQObGS.s 			page 19


 1021 0266 46000000 		.4byte	.LVL21
 1022 026a BA030000 		.4byte	0x3ba
 1023 026e 7E020000 		.4byte	0x27e
 1024 0272 0B       		.uleb128 0xb
 1025 0273 01       		.byte	0x1
 1026 0274 51       		.byte	0x51
 1027 0275 01       		.byte	0x1
 1028 0276 32       		.byte	0x32
 1029 0277 0B       		.uleb128 0xb
 1030 0278 01       		.byte	0x1
 1031 0279 50       		.byte	0x50
 1032 027a 02       		.byte	0x2
 1033 027b 08       		.byte	0x8
 1034 027c 50       		.byte	0x50
 1035 027d 00       		.byte	0
 1036 027e 12       		.uleb128 0x12
 1037 027f 52000000 		.4byte	.LVL23
 1038 0283 BA030000 		.4byte	0x3ba
 1039 0287 0B       		.uleb128 0xb
 1040 0288 01       		.byte	0x1
 1041 0289 51       		.byte	0x51
 1042 028a 01       		.byte	0x1
 1043 028b 32       		.byte	0x32
 1044 028c 0B       		.uleb128 0xb
 1045 028d 01       		.byte	0x1
 1046 028e 50       		.byte	0x50
 1047 028f 02       		.byte	0x2
 1048 0290 08       		.byte	0x8
 1049 0291 58       		.byte	0x58
 1050 0292 00       		.byte	0
 1051 0293 00       		.byte	0
 1052 0294 0D       		.uleb128 0xd
 1053 0295 01       		.byte	0x1
 1054 0296 48030000 		.4byte	.LASF30
 1055 029a 01       		.byte	0x1
 1056 029b 7F       		.byte	0x7f
 1057 029c 01       		.byte	0x1
 1058 029d 6D000000 		.4byte	0x6d
 1059 02a1 00000000 		.4byte	.LFB115
 1060 02a5 B6000000 		.4byte	.LFE115
 1061 02a9 1B010000 		.4byte	.LLST6
 1062 02ad 01       		.byte	0x1
 1063 02ae 08030000 		.4byte	0x308
 1064 02b2 0E       		.uleb128 0xe
 1065 02b3 3B030000 		.4byte	.LASF32
 1066 02b7 01       		.byte	0x1
 1067 02b8 7F       		.byte	0x7f
 1068 02b9 08030000 		.4byte	0x308
 1069 02bd 3B010000 		.4byte	.LLST7
 1070 02c1 0E       		.uleb128 0xe
 1071 02c2 F3010000 		.4byte	.LASF33
 1072 02c6 01       		.byte	0x1
 1073 02c7 7F       		.byte	0x7f
 1074 02c8 0E030000 		.4byte	0x30e
 1075 02cc 59010000 		.4byte	.LLST8
 1076 02d0 0E       		.uleb128 0xe
 1077 02d1 00000000 		.4byte	.LASF34
ARM GAS  /var/folders/ng/s8655sgx1ys_4lf9jzm2w6n00000gn/T//ccdQObGS.s 			page 20


 1078 02d5 01       		.byte	0x1
 1079 02d6 7F       		.byte	0x7f
 1080 02d7 6D000000 		.4byte	0x6d
 1081 02db 87010000 		.4byte	.LLST9
 1082 02df 11       		.uleb128 0x11
 1083 02e0 6900     		.ascii	"i\000"
 1084 02e2 01       		.byte	0x1
 1085 02e3 81       		.byte	0x81
 1086 02e4 6D000000 		.4byte	0x6d
 1087 02e8 A5010000 		.4byte	.LLST10
 1088 02ec 09       		.uleb128 0x9
 1089 02ed 2C000000 		.4byte	.LVL28
 1090 02f1 D7030000 		.4byte	0x3d7
 1091 02f5 09       		.uleb128 0x9
 1092 02f6 76000000 		.4byte	.LVL31
 1093 02fa D7030000 		.4byte	0x3d7
 1094 02fe 09       		.uleb128 0x9
 1095 02ff 9E000000 		.4byte	.LVL33
 1096 0303 D7030000 		.4byte	0x3d7
 1097 0307 00       		.byte	0
 1098 0308 13       		.uleb128 0x13
 1099 0309 04       		.byte	0x4
 1100 030a A2000000 		.4byte	0xa2
 1101 030e 13       		.uleb128 0x13
 1102 030f 04       		.byte	0x4
 1103 0310 6D000000 		.4byte	0x6d
 1104 0314 14       		.uleb128 0x14
 1105 0315 01       		.byte	0x1
 1106 0316 74010000 		.4byte	.LASF35
 1107 031a 01       		.byte	0x1
 1108 031b 9C       		.byte	0x9c
 1109 031c 01       		.byte	0x1
 1110 031d 49000000 		.4byte	0x49
 1111 0321 00000000 		.4byte	.LFB116
 1112 0325 86010000 		.4byte	.LFE116
 1113 0329 02       		.byte	0x2
 1114 032a 7D       		.byte	0x7d
 1115 032b 00       		.sleb128 0
 1116 032c 01       		.byte	0x1
 1117 032d 41030000 		.4byte	0x341
 1118 0331 0E       		.uleb128 0xe
 1119 0332 E1000000 		.4byte	.LASF36
 1120 0336 01       		.byte	0x1
 1121 0337 9C       		.byte	0x9c
 1122 0338 6D000000 		.4byte	0x6d
 1123 033c CF010000 		.4byte	.LLST11
 1124 0340 00       		.byte	0
 1125 0341 15       		.uleb128 0x15
 1126 0342 E5020000 		.4byte	.LASF37
 1127 0346 01       		.byte	0x1
 1128 0347 33       		.byte	0x33
 1129 0348 8D000000 		.4byte	0x8d
 1130 034c 05       		.byte	0x5
 1131 034d 03       		.byte	0x3
 1132 034e 00000000 		.4byte	_nextEraseSector
 1133 0352 15       		.uleb128 0x15
 1134 0353 B1020000 		.4byte	.LASF38
ARM GAS  /var/folders/ng/s8655sgx1ys_4lf9jzm2w6n00000gn/T//ccdQObGS.s 			page 21


 1135 0357 01       		.byte	0x1
 1136 0358 34       		.byte	0x34
 1137 0359 8D000000 		.4byte	0x8d
 1138 035d 05       		.byte	0x5
 1139 035e 03       		.byte	0x3
 1140 035f 00000000 		.4byte	_currentEraseSector
 1141 0363 16       		.uleb128 0x16
 1142 0364 E6000000 		.4byte	.LASF48
 1143 0368 05       		.byte	0x5
 1144 0369 9806     		.2byte	0x698
 1145 036b A7000000 		.4byte	0xa7
 1146 036f 01       		.byte	0x1
 1147 0370 01       		.byte	0x1
 1148 0371 17       		.uleb128 0x17
 1149 0372 01       		.byte	0x1
 1150 0373 08030000 		.4byte	.LASF49
 1151 0377 03       		.byte	0x3
 1152 0378 E5       		.byte	0xe5
 1153 0379 01       		.byte	0x1
 1154 037a 01       		.byte	0x1
 1155 037b 18       		.uleb128 0x18
 1156 037c 01       		.byte	0x1
 1157 037d 33000000 		.4byte	.LASF41
 1158 0381 03       		.byte	0x3
 1159 0382 F3       		.byte	0xf3
 1160 0383 01       		.byte	0x1
 1161 0384 01       		.byte	0x1
 1162 0385 8F030000 		.4byte	0x38f
 1163 0389 19       		.uleb128 0x19
 1164 038a 6D000000 		.4byte	0x6d
 1165 038e 00       		.byte	0
 1166 038f 1A       		.uleb128 0x1a
 1167 0390 01       		.byte	0x1
 1168 0391 CE020000 		.4byte	.LASF39
 1169 0395 03       		.byte	0x3
 1170 0396 E8       		.byte	0xe8
 1171 0397 01       		.byte	0x1
 1172 0398 E5000000 		.4byte	0xe5
 1173 039c 01       		.byte	0x1
 1174 039d AC030000 		.4byte	0x3ac
 1175 03a1 19       		.uleb128 0x19
 1176 03a2 6D000000 		.4byte	0x6d
 1177 03a6 19       		.uleb128 0x19
 1178 03a7 30000000 		.4byte	0x30
 1179 03ab 00       		.byte	0
 1180 03ac 1B       		.uleb128 0x1b
 1181 03ad 01       		.byte	0x1
 1182 03ae 20030000 		.4byte	.LASF50
 1183 03b2 03       		.byte	0x3
 1184 03b3 E9       		.byte	0xe9
 1185 03b4 01       		.byte	0x1
 1186 03b5 E5000000 		.4byte	0xe5
 1187 03b9 01       		.byte	0x1
 1188 03ba 1A       		.uleb128 0x1a
 1189 03bb 01       		.byte	0x1
 1190 03bc 7B000000 		.4byte	.LASF40
 1191 03c0 03       		.byte	0x3
ARM GAS  /var/folders/ng/s8655sgx1ys_4lf9jzm2w6n00000gn/T//ccdQObGS.s 			page 22


 1192 03c1 E7       		.byte	0xe7
 1193 03c2 01       		.byte	0x1
 1194 03c3 E5000000 		.4byte	0xe5
 1195 03c7 01       		.byte	0x1
 1196 03c8 D7030000 		.4byte	0x3d7
 1197 03cc 19       		.uleb128 0x19
 1198 03cd 6D000000 		.4byte	0x6d
 1199 03d1 19       		.uleb128 0x19
 1200 03d2 30000000 		.4byte	0x30
 1201 03d6 00       		.byte	0
 1202 03d7 1C       		.uleb128 0x1c
 1203 03d8 01       		.byte	0x1
 1204 03d9 69000000 		.4byte	.LASF42
 1205 03dd 03       		.byte	0x3
 1206 03de EC       		.byte	0xec
 1207 03df 01       		.byte	0x1
 1208 03e0 E5000000 		.4byte	0xe5
 1209 03e4 01       		.byte	0x1
 1210 03e5 19       		.uleb128 0x19
 1211 03e6 6D000000 		.4byte	0x6d
 1212 03ea 19       		.uleb128 0x19
 1213 03eb 6D000000 		.4byte	0x6d
 1214 03ef 00       		.byte	0
 1215 03f0 00       		.byte	0
 1216              		.section	.debug_abbrev,"",%progbits
 1217              	.Ldebug_abbrev0:
 1218 0000 01       		.uleb128 0x1
 1219 0001 11       		.uleb128 0x11
 1220 0002 01       		.byte	0x1
 1221 0003 25       		.uleb128 0x25
 1222 0004 0E       		.uleb128 0xe
 1223 0005 13       		.uleb128 0x13
 1224 0006 0B       		.uleb128 0xb
 1225 0007 03       		.uleb128 0x3
 1226 0008 0E       		.uleb128 0xe
 1227 0009 1B       		.uleb128 0x1b
 1228 000a 0E       		.uleb128 0xe
 1229 000b 55       		.uleb128 0x55
 1230 000c 06       		.uleb128 0x6
 1231 000d 11       		.uleb128 0x11
 1232 000e 01       		.uleb128 0x1
 1233 000f 52       		.uleb128 0x52
 1234 0010 01       		.uleb128 0x1
 1235 0011 10       		.uleb128 0x10
 1236 0012 06       		.uleb128 0x6
 1237 0013 00       		.byte	0
 1238 0014 00       		.byte	0
 1239 0015 02       		.uleb128 0x2
 1240 0016 24       		.uleb128 0x24
 1241 0017 00       		.byte	0
 1242 0018 0B       		.uleb128 0xb
 1243 0019 0B       		.uleb128 0xb
 1244 001a 3E       		.uleb128 0x3e
 1245 001b 0B       		.uleb128 0xb
 1246 001c 03       		.uleb128 0x3
 1247 001d 0E       		.uleb128 0xe
 1248 001e 00       		.byte	0
ARM GAS  /var/folders/ng/s8655sgx1ys_4lf9jzm2w6n00000gn/T//ccdQObGS.s 			page 23


 1249 001f 00       		.byte	0
 1250 0020 03       		.uleb128 0x3
 1251 0021 16       		.uleb128 0x16
 1252 0022 00       		.byte	0
 1253 0023 03       		.uleb128 0x3
 1254 0024 0E       		.uleb128 0xe
 1255 0025 3A       		.uleb128 0x3a
 1256 0026 0B       		.uleb128 0xb
 1257 0027 3B       		.uleb128 0x3b
 1258 0028 0B       		.uleb128 0xb
 1259 0029 49       		.uleb128 0x49
 1260 002a 13       		.uleb128 0x13
 1261 002b 00       		.byte	0
 1262 002c 00       		.byte	0
 1263 002d 04       		.uleb128 0x4
 1264 002e 24       		.uleb128 0x24
 1265 002f 00       		.byte	0
 1266 0030 0B       		.uleb128 0xb
 1267 0031 0B       		.uleb128 0xb
 1268 0032 3E       		.uleb128 0x3e
 1269 0033 0B       		.uleb128 0xb
 1270 0034 03       		.uleb128 0x3
 1271 0035 08       		.uleb128 0x8
 1272 0036 00       		.byte	0
 1273 0037 00       		.byte	0
 1274 0038 05       		.uleb128 0x5
 1275 0039 35       		.uleb128 0x35
 1276 003a 00       		.byte	0
 1277 003b 49       		.uleb128 0x49
 1278 003c 13       		.uleb128 0x13
 1279 003d 00       		.byte	0
 1280 003e 00       		.byte	0
 1281 003f 06       		.uleb128 0x6
 1282 0040 04       		.uleb128 0x4
 1283 0041 01       		.byte	0x1
 1284 0042 0B       		.uleb128 0xb
 1285 0043 0B       		.uleb128 0xb
 1286 0044 3A       		.uleb128 0x3a
 1287 0045 0B       		.uleb128 0xb
 1288 0046 3B       		.uleb128 0x3b
 1289 0047 0B       		.uleb128 0xb
 1290 0048 01       		.uleb128 0x1
 1291 0049 13       		.uleb128 0x13
 1292 004a 00       		.byte	0
 1293 004b 00       		.byte	0
 1294 004c 07       		.uleb128 0x7
 1295 004d 28       		.uleb128 0x28
 1296 004e 00       		.byte	0
 1297 004f 03       		.uleb128 0x3
 1298 0050 0E       		.uleb128 0xe
 1299 0051 1C       		.uleb128 0x1c
 1300 0052 0D       		.uleb128 0xd
 1301 0053 00       		.byte	0
 1302 0054 00       		.byte	0
 1303 0055 08       		.uleb128 0x8
 1304 0056 2E       		.uleb128 0x2e
 1305 0057 01       		.byte	0x1
ARM GAS  /var/folders/ng/s8655sgx1ys_4lf9jzm2w6n00000gn/T//ccdQObGS.s 			page 24


 1306 0058 3F       		.uleb128 0x3f
 1307 0059 0C       		.uleb128 0xc
 1308 005a 03       		.uleb128 0x3
 1309 005b 0E       		.uleb128 0xe
 1310 005c 3A       		.uleb128 0x3a
 1311 005d 0B       		.uleb128 0xb
 1312 005e 3B       		.uleb128 0x3b
 1313 005f 0B       		.uleb128 0xb
 1314 0060 27       		.uleb128 0x27
 1315 0061 0C       		.uleb128 0xc
 1316 0062 11       		.uleb128 0x11
 1317 0063 01       		.uleb128 0x1
 1318 0064 12       		.uleb128 0x12
 1319 0065 01       		.uleb128 0x1
 1320 0066 40       		.uleb128 0x40
 1321 0067 06       		.uleb128 0x6
 1322 0068 9742     		.uleb128 0x2117
 1323 006a 0C       		.uleb128 0xc
 1324 006b 01       		.uleb128 0x1
 1325 006c 13       		.uleb128 0x13
 1326 006d 00       		.byte	0
 1327 006e 00       		.byte	0
 1328 006f 09       		.uleb128 0x9
 1329 0070 898201   		.uleb128 0x4109
 1330 0073 00       		.byte	0
 1331 0074 11       		.uleb128 0x11
 1332 0075 01       		.uleb128 0x1
 1333 0076 31       		.uleb128 0x31
 1334 0077 13       		.uleb128 0x13
 1335 0078 00       		.byte	0
 1336 0079 00       		.byte	0
 1337 007a 0A       		.uleb128 0xa
 1338 007b 898201   		.uleb128 0x4109
 1339 007e 01       		.byte	0x1
 1340 007f 11       		.uleb128 0x11
 1341 0080 01       		.uleb128 0x1
 1342 0081 9542     		.uleb128 0x2115
 1343 0083 0C       		.uleb128 0xc
 1344 0084 31       		.uleb128 0x31
 1345 0085 13       		.uleb128 0x13
 1346 0086 00       		.byte	0
 1347 0087 00       		.byte	0
 1348 0088 0B       		.uleb128 0xb
 1349 0089 8A8201   		.uleb128 0x410a
 1350 008c 00       		.byte	0
 1351 008d 02       		.uleb128 0x2
 1352 008e 0A       		.uleb128 0xa
 1353 008f 9142     		.uleb128 0x2111
 1354 0091 0A       		.uleb128 0xa
 1355 0092 00       		.byte	0
 1356 0093 00       		.byte	0
 1357 0094 0C       		.uleb128 0xc
 1358 0095 2E       		.uleb128 0x2e
 1359 0096 00       		.byte	0
 1360 0097 3F       		.uleb128 0x3f
 1361 0098 0C       		.uleb128 0xc
 1362 0099 03       		.uleb128 0x3
ARM GAS  /var/folders/ng/s8655sgx1ys_4lf9jzm2w6n00000gn/T//ccdQObGS.s 			page 25


 1363 009a 0E       		.uleb128 0xe
 1364 009b 3A       		.uleb128 0x3a
 1365 009c 0B       		.uleb128 0xb
 1366 009d 3B       		.uleb128 0x3b
 1367 009e 0B       		.uleb128 0xb
 1368 009f 27       		.uleb128 0x27
 1369 00a0 0C       		.uleb128 0xc
 1370 00a1 49       		.uleb128 0x49
 1371 00a2 13       		.uleb128 0x13
 1372 00a3 11       		.uleb128 0x11
 1373 00a4 01       		.uleb128 0x1
 1374 00a5 12       		.uleb128 0x12
 1375 00a6 01       		.uleb128 0x1
 1376 00a7 40       		.uleb128 0x40
 1377 00a8 0A       		.uleb128 0xa
 1378 00a9 9742     		.uleb128 0x2117
 1379 00ab 0C       		.uleb128 0xc
 1380 00ac 00       		.byte	0
 1381 00ad 00       		.byte	0
 1382 00ae 0D       		.uleb128 0xd
 1383 00af 2E       		.uleb128 0x2e
 1384 00b0 01       		.byte	0x1
 1385 00b1 3F       		.uleb128 0x3f
 1386 00b2 0C       		.uleb128 0xc
 1387 00b3 03       		.uleb128 0x3
 1388 00b4 0E       		.uleb128 0xe
 1389 00b5 3A       		.uleb128 0x3a
 1390 00b6 0B       		.uleb128 0xb
 1391 00b7 3B       		.uleb128 0x3b
 1392 00b8 0B       		.uleb128 0xb
 1393 00b9 27       		.uleb128 0x27
 1394 00ba 0C       		.uleb128 0xc
 1395 00bb 49       		.uleb128 0x49
 1396 00bc 13       		.uleb128 0x13
 1397 00bd 11       		.uleb128 0x11
 1398 00be 01       		.uleb128 0x1
 1399 00bf 12       		.uleb128 0x12
 1400 00c0 01       		.uleb128 0x1
 1401 00c1 40       		.uleb128 0x40
 1402 00c2 06       		.uleb128 0x6
 1403 00c3 9742     		.uleb128 0x2117
 1404 00c5 0C       		.uleb128 0xc
 1405 00c6 01       		.uleb128 0x1
 1406 00c7 13       		.uleb128 0x13
 1407 00c8 00       		.byte	0
 1408 00c9 00       		.byte	0
 1409 00ca 0E       		.uleb128 0xe
 1410 00cb 05       		.uleb128 0x5
 1411 00cc 00       		.byte	0
 1412 00cd 03       		.uleb128 0x3
 1413 00ce 0E       		.uleb128 0xe
 1414 00cf 3A       		.uleb128 0x3a
 1415 00d0 0B       		.uleb128 0xb
 1416 00d1 3B       		.uleb128 0x3b
 1417 00d2 0B       		.uleb128 0xb
 1418 00d3 49       		.uleb128 0x49
 1419 00d4 13       		.uleb128 0x13
ARM GAS  /var/folders/ng/s8655sgx1ys_4lf9jzm2w6n00000gn/T//ccdQObGS.s 			page 26


 1420 00d5 02       		.uleb128 0x2
 1421 00d6 06       		.uleb128 0x6
 1422 00d7 00       		.byte	0
 1423 00d8 00       		.byte	0
 1424 00d9 0F       		.uleb128 0xf
 1425 00da 34       		.uleb128 0x34
 1426 00db 00       		.byte	0
 1427 00dc 03       		.uleb128 0x3
 1428 00dd 0E       		.uleb128 0xe
 1429 00de 3A       		.uleb128 0x3a
 1430 00df 0B       		.uleb128 0xb
 1431 00e0 3B       		.uleb128 0x3b
 1432 00e1 0B       		.uleb128 0xb
 1433 00e2 49       		.uleb128 0x49
 1434 00e3 13       		.uleb128 0x13
 1435 00e4 02       		.uleb128 0x2
 1436 00e5 06       		.uleb128 0x6
 1437 00e6 00       		.byte	0
 1438 00e7 00       		.byte	0
 1439 00e8 10       		.uleb128 0x10
 1440 00e9 898201   		.uleb128 0x4109
 1441 00ec 01       		.byte	0x1
 1442 00ed 11       		.uleb128 0x11
 1443 00ee 01       		.uleb128 0x1
 1444 00ef 31       		.uleb128 0x31
 1445 00f0 13       		.uleb128 0x13
 1446 00f1 01       		.uleb128 0x1
 1447 00f2 13       		.uleb128 0x13
 1448 00f3 00       		.byte	0
 1449 00f4 00       		.byte	0
 1450 00f5 11       		.uleb128 0x11
 1451 00f6 34       		.uleb128 0x34
 1452 00f7 00       		.byte	0
 1453 00f8 03       		.uleb128 0x3
 1454 00f9 08       		.uleb128 0x8
 1455 00fa 3A       		.uleb128 0x3a
 1456 00fb 0B       		.uleb128 0xb
 1457 00fc 3B       		.uleb128 0x3b
 1458 00fd 0B       		.uleb128 0xb
 1459 00fe 49       		.uleb128 0x49
 1460 00ff 13       		.uleb128 0x13
 1461 0100 02       		.uleb128 0x2
 1462 0101 06       		.uleb128 0x6
 1463 0102 00       		.byte	0
 1464 0103 00       		.byte	0
 1465 0104 12       		.uleb128 0x12
 1466 0105 898201   		.uleb128 0x4109
 1467 0108 01       		.byte	0x1
 1468 0109 11       		.uleb128 0x11
 1469 010a 01       		.uleb128 0x1
 1470 010b 31       		.uleb128 0x31
 1471 010c 13       		.uleb128 0x13
 1472 010d 00       		.byte	0
 1473 010e 00       		.byte	0
 1474 010f 13       		.uleb128 0x13
 1475 0110 0F       		.uleb128 0xf
 1476 0111 00       		.byte	0
ARM GAS  /var/folders/ng/s8655sgx1ys_4lf9jzm2w6n00000gn/T//ccdQObGS.s 			page 27


 1477 0112 0B       		.uleb128 0xb
 1478 0113 0B       		.uleb128 0xb
 1479 0114 49       		.uleb128 0x49
 1480 0115 13       		.uleb128 0x13
 1481 0116 00       		.byte	0
 1482 0117 00       		.byte	0
 1483 0118 14       		.uleb128 0x14
 1484 0119 2E       		.uleb128 0x2e
 1485 011a 01       		.byte	0x1
 1486 011b 3F       		.uleb128 0x3f
 1487 011c 0C       		.uleb128 0xc
 1488 011d 03       		.uleb128 0x3
 1489 011e 0E       		.uleb128 0xe
 1490 011f 3A       		.uleb128 0x3a
 1491 0120 0B       		.uleb128 0xb
 1492 0121 3B       		.uleb128 0x3b
 1493 0122 0B       		.uleb128 0xb
 1494 0123 27       		.uleb128 0x27
 1495 0124 0C       		.uleb128 0xc
 1496 0125 49       		.uleb128 0x49
 1497 0126 13       		.uleb128 0x13
 1498 0127 11       		.uleb128 0x11
 1499 0128 01       		.uleb128 0x1
 1500 0129 12       		.uleb128 0x12
 1501 012a 01       		.uleb128 0x1
 1502 012b 40       		.uleb128 0x40
 1503 012c 0A       		.uleb128 0xa
 1504 012d 9742     		.uleb128 0x2117
 1505 012f 0C       		.uleb128 0xc
 1506 0130 01       		.uleb128 0x1
 1507 0131 13       		.uleb128 0x13
 1508 0132 00       		.byte	0
 1509 0133 00       		.byte	0
 1510 0134 15       		.uleb128 0x15
 1511 0135 34       		.uleb128 0x34
 1512 0136 00       		.byte	0
 1513 0137 03       		.uleb128 0x3
 1514 0138 0E       		.uleb128 0xe
 1515 0139 3A       		.uleb128 0x3a
 1516 013a 0B       		.uleb128 0xb
 1517 013b 3B       		.uleb128 0x3b
 1518 013c 0B       		.uleb128 0xb
 1519 013d 49       		.uleb128 0x49
 1520 013e 13       		.uleb128 0x13
 1521 013f 02       		.uleb128 0x2
 1522 0140 0A       		.uleb128 0xa
 1523 0141 00       		.byte	0
 1524 0142 00       		.byte	0
 1525 0143 16       		.uleb128 0x16
 1526 0144 34       		.uleb128 0x34
 1527 0145 00       		.byte	0
 1528 0146 03       		.uleb128 0x3
 1529 0147 0E       		.uleb128 0xe
 1530 0148 3A       		.uleb128 0x3a
 1531 0149 0B       		.uleb128 0xb
 1532 014a 3B       		.uleb128 0x3b
 1533 014b 05       		.uleb128 0x5
ARM GAS  /var/folders/ng/s8655sgx1ys_4lf9jzm2w6n00000gn/T//ccdQObGS.s 			page 28


 1534 014c 49       		.uleb128 0x49
 1535 014d 13       		.uleb128 0x13
 1536 014e 3F       		.uleb128 0x3f
 1537 014f 0C       		.uleb128 0xc
 1538 0150 3C       		.uleb128 0x3c
 1539 0151 0C       		.uleb128 0xc
 1540 0152 00       		.byte	0
 1541 0153 00       		.byte	0
 1542 0154 17       		.uleb128 0x17
 1543 0155 2E       		.uleb128 0x2e
 1544 0156 00       		.byte	0
 1545 0157 3F       		.uleb128 0x3f
 1546 0158 0C       		.uleb128 0xc
 1547 0159 03       		.uleb128 0x3
 1548 015a 0E       		.uleb128 0xe
 1549 015b 3A       		.uleb128 0x3a
 1550 015c 0B       		.uleb128 0xb
 1551 015d 3B       		.uleb128 0x3b
 1552 015e 0B       		.uleb128 0xb
 1553 015f 27       		.uleb128 0x27
 1554 0160 0C       		.uleb128 0xc
 1555 0161 3C       		.uleb128 0x3c
 1556 0162 0C       		.uleb128 0xc
 1557 0163 00       		.byte	0
 1558 0164 00       		.byte	0
 1559 0165 18       		.uleb128 0x18
 1560 0166 2E       		.uleb128 0x2e
 1561 0167 01       		.byte	0x1
 1562 0168 3F       		.uleb128 0x3f
 1563 0169 0C       		.uleb128 0xc
 1564 016a 03       		.uleb128 0x3
 1565 016b 0E       		.uleb128 0xe
 1566 016c 3A       		.uleb128 0x3a
 1567 016d 0B       		.uleb128 0xb
 1568 016e 3B       		.uleb128 0x3b
 1569 016f 0B       		.uleb128 0xb
 1570 0170 27       		.uleb128 0x27
 1571 0171 0C       		.uleb128 0xc
 1572 0172 3C       		.uleb128 0x3c
 1573 0173 0C       		.uleb128 0xc
 1574 0174 01       		.uleb128 0x1
 1575 0175 13       		.uleb128 0x13
 1576 0176 00       		.byte	0
 1577 0177 00       		.byte	0
 1578 0178 19       		.uleb128 0x19
 1579 0179 05       		.uleb128 0x5
 1580 017a 00       		.byte	0
 1581 017b 49       		.uleb128 0x49
 1582 017c 13       		.uleb128 0x13
 1583 017d 00       		.byte	0
 1584 017e 00       		.byte	0
 1585 017f 1A       		.uleb128 0x1a
 1586 0180 2E       		.uleb128 0x2e
 1587 0181 01       		.byte	0x1
 1588 0182 3F       		.uleb128 0x3f
 1589 0183 0C       		.uleb128 0xc
 1590 0184 03       		.uleb128 0x3
ARM GAS  /var/folders/ng/s8655sgx1ys_4lf9jzm2w6n00000gn/T//ccdQObGS.s 			page 29


 1591 0185 0E       		.uleb128 0xe
 1592 0186 3A       		.uleb128 0x3a
 1593 0187 0B       		.uleb128 0xb
 1594 0188 3B       		.uleb128 0x3b
 1595 0189 0B       		.uleb128 0xb
 1596 018a 27       		.uleb128 0x27
 1597 018b 0C       		.uleb128 0xc
 1598 018c 49       		.uleb128 0x49
 1599 018d 13       		.uleb128 0x13
 1600 018e 3C       		.uleb128 0x3c
 1601 018f 0C       		.uleb128 0xc
 1602 0190 01       		.uleb128 0x1
 1603 0191 13       		.uleb128 0x13
 1604 0192 00       		.byte	0
 1605 0193 00       		.byte	0
 1606 0194 1B       		.uleb128 0x1b
 1607 0195 2E       		.uleb128 0x2e
 1608 0196 00       		.byte	0
 1609 0197 3F       		.uleb128 0x3f
 1610 0198 0C       		.uleb128 0xc
 1611 0199 03       		.uleb128 0x3
 1612 019a 0E       		.uleb128 0xe
 1613 019b 3A       		.uleb128 0x3a
 1614 019c 0B       		.uleb128 0xb
 1615 019d 3B       		.uleb128 0x3b
 1616 019e 0B       		.uleb128 0xb
 1617 019f 27       		.uleb128 0x27
 1618 01a0 0C       		.uleb128 0xc
 1619 01a1 49       		.uleb128 0x49
 1620 01a2 13       		.uleb128 0x13
 1621 01a3 3C       		.uleb128 0x3c
 1622 01a4 0C       		.uleb128 0xc
 1623 01a5 00       		.byte	0
 1624 01a6 00       		.byte	0
 1625 01a7 1C       		.uleb128 0x1c
 1626 01a8 2E       		.uleb128 0x2e
 1627 01a9 01       		.byte	0x1
 1628 01aa 3F       		.uleb128 0x3f
 1629 01ab 0C       		.uleb128 0xc
 1630 01ac 03       		.uleb128 0x3
 1631 01ad 0E       		.uleb128 0xe
 1632 01ae 3A       		.uleb128 0x3a
 1633 01af 0B       		.uleb128 0xb
 1634 01b0 3B       		.uleb128 0x3b
 1635 01b1 0B       		.uleb128 0xb
 1636 01b2 27       		.uleb128 0x27
 1637 01b3 0C       		.uleb128 0xc
 1638 01b4 49       		.uleb128 0x49
 1639 01b5 13       		.uleb128 0x13
 1640 01b6 3C       		.uleb128 0x3c
 1641 01b7 0C       		.uleb128 0xc
 1642 01b8 00       		.byte	0
 1643 01b9 00       		.byte	0
 1644 01ba 00       		.byte	0
 1645              		.section	.debug_loc,"",%progbits
 1646              	.Ldebug_loc0:
 1647              	.LLST0:
ARM GAS  /var/folders/ng/s8655sgx1ys_4lf9jzm2w6n00000gn/T//ccdQObGS.s 			page 30


 1648 0000 00000000 		.4byte	.LFB111
 1649 0004 02000000 		.4byte	.LCFI0
 1650 0008 0200     		.2byte	0x2
 1651 000a 7D       		.byte	0x7d
 1652 000b 00       		.sleb128 0
 1653 000c 02000000 		.4byte	.LCFI0
 1654 0010 10000000 		.4byte	.LFE111
 1655 0014 0200     		.2byte	0x2
 1656 0016 7D       		.byte	0x7d
 1657 0017 08       		.sleb128 8
 1658 0018 00000000 		.4byte	0
 1659 001c 00000000 		.4byte	0
 1660              	.LLST1:
 1661 0020 00000000 		.4byte	.LFB113
 1662 0024 02000000 		.4byte	.LCFI1
 1663 0028 0200     		.2byte	0x2
 1664 002a 7D       		.byte	0x7d
 1665 002b 00       		.sleb128 0
 1666 002c 02000000 		.4byte	.LCFI1
 1667 0030 54000000 		.4byte	.LFE113
 1668 0034 0200     		.2byte	0x2
 1669 0036 7D       		.byte	0x7d
 1670 0037 10       		.sleb128 16
 1671 0038 00000000 		.4byte	0
 1672 003c 00000000 		.4byte	0
 1673              	.LLST2:
 1674 0040 00000000 		.4byte	.LVL2
 1675 0044 18000000 		.4byte	.LVL3
 1676 0048 0100     		.2byte	0x1
 1677 004a 50       		.byte	0x50
 1678 004b 18000000 		.4byte	.LVL3
 1679 004f 26000000 		.4byte	.LVL5
 1680 0053 0400     		.2byte	0x4
 1681 0055 F3       		.byte	0xf3
 1682 0056 01       		.uleb128 0x1
 1683 0057 50       		.byte	0x50
 1684 0058 9F       		.byte	0x9f
 1685 0059 26000000 		.4byte	.LVL5
 1686 005d 29000000 		.4byte	.LVL6-1
 1687 0061 0100     		.2byte	0x1
 1688 0063 50       		.byte	0x50
 1689 0064 29000000 		.4byte	.LVL6-1
 1690 0068 54000000 		.4byte	.LFE113
 1691 006c 0400     		.2byte	0x4
 1692 006e F3       		.byte	0xf3
 1693 006f 01       		.uleb128 0x1
 1694 0070 50       		.byte	0x50
 1695 0071 9F       		.byte	0x9f
 1696 0072 00000000 		.4byte	0
 1697 0076 00000000 		.4byte	0
 1698              	.LLST3:
 1699 007a 2A000000 		.4byte	.LVL6
 1700 007e 34000000 		.4byte	.LVL7
 1701 0082 0100     		.2byte	0x1
 1702 0084 50       		.byte	0x50
 1703 0085 3A000000 		.4byte	.LVL8
 1704 0089 3C000000 		.4byte	.LVL9
ARM GAS  /var/folders/ng/s8655sgx1ys_4lf9jzm2w6n00000gn/T//ccdQObGS.s 			page 31


 1705 008d 0100     		.2byte	0x1
 1706 008f 50       		.byte	0x50
 1707 0090 00000000 		.4byte	0
 1708 0094 00000000 		.4byte	0
 1709              	.LLST4:
 1710 0098 00000000 		.4byte	.LFB114
 1711 009c 06000000 		.4byte	.LCFI2
 1712 00a0 0200     		.2byte	0x2
 1713 00a2 7D       		.byte	0x7d
 1714 00a3 00       		.sleb128 0
 1715 00a4 06000000 		.4byte	.LCFI2
 1716 00a8 5E000000 		.4byte	.LFE114
 1717 00ac 0200     		.2byte	0x2
 1718 00ae 7D       		.byte	0x7d
 1719 00af 08       		.sleb128 8
 1720 00b0 00000000 		.4byte	0
 1721 00b4 00000000 		.4byte	0
 1722              	.LLST5:
 1723 00b8 00000000 		.4byte	.LVL10
 1724 00bc 0E000000 		.4byte	.LVL12
 1725 00c0 0300     		.2byte	0x3
 1726 00c2 08       		.byte	0x8
 1727 00c3 28       		.byte	0x28
 1728 00c4 9F       		.byte	0x9f
 1729 00c5 0E000000 		.4byte	.LVL12
 1730 00c9 1A000000 		.4byte	.LVL14
 1731 00cd 0300     		.2byte	0x3
 1732 00cf 08       		.byte	0x8
 1733 00d0 30       		.byte	0x30
 1734 00d1 9F       		.byte	0x9f
 1735 00d2 1A000000 		.4byte	.LVL14
 1736 00d6 26000000 		.4byte	.LVL16
 1737 00da 0300     		.2byte	0x3
 1738 00dc 08       		.byte	0x8
 1739 00dd 38       		.byte	0x38
 1740 00de 9F       		.byte	0x9f
 1741 00df 26000000 		.4byte	.LVL16
 1742 00e3 32000000 		.4byte	.LVL18
 1743 00e7 0300     		.2byte	0x3
 1744 00e9 08       		.byte	0x8
 1745 00ea 40       		.byte	0x40
 1746 00eb 9F       		.byte	0x9f
 1747 00ec 32000000 		.4byte	.LVL18
 1748 00f0 3E000000 		.4byte	.LVL20
 1749 00f4 0300     		.2byte	0x3
 1750 00f6 08       		.byte	0x8
 1751 00f7 48       		.byte	0x48
 1752 00f8 9F       		.byte	0x9f
 1753 00f9 3E000000 		.4byte	.LVL20
 1754 00fd 4A000000 		.4byte	.LVL22
 1755 0101 0300     		.2byte	0x3
 1756 0103 08       		.byte	0x8
 1757 0104 50       		.byte	0x50
 1758 0105 9F       		.byte	0x9f
 1759 0106 4A000000 		.4byte	.LVL22
 1760 010a 5A000000 		.4byte	.LVL24
 1761 010e 0300     		.2byte	0x3
ARM GAS  /var/folders/ng/s8655sgx1ys_4lf9jzm2w6n00000gn/T//ccdQObGS.s 			page 32


 1762 0110 08       		.byte	0x8
 1763 0111 58       		.byte	0x58
 1764 0112 9F       		.byte	0x9f
 1765 0113 00000000 		.4byte	0
 1766 0117 00000000 		.4byte	0
 1767              	.LLST6:
 1768 011b 00000000 		.4byte	.LFB115
 1769 011f 04000000 		.4byte	.LCFI3
 1770 0123 0200     		.2byte	0x2
 1771 0125 7D       		.byte	0x7d
 1772 0126 00       		.sleb128 0
 1773 0127 04000000 		.4byte	.LCFI3
 1774 012b B6000000 		.4byte	.LFE115
 1775 012f 0200     		.2byte	0x2
 1776 0131 7D       		.byte	0x7d
 1777 0132 20       		.sleb128 32
 1778 0133 00000000 		.4byte	0
 1779 0137 00000000 		.4byte	0
 1780              	.LLST7:
 1781 013b 00000000 		.4byte	.LVL25
 1782 013f 24000000 		.4byte	.LVL26
 1783 0143 0100     		.2byte	0x1
 1784 0145 50       		.byte	0x50
 1785 0146 24000000 		.4byte	.LVL26
 1786 014a B6000000 		.4byte	.LFE115
 1787 014e 0100     		.2byte	0x1
 1788 0150 54       		.byte	0x54
 1789 0151 00000000 		.4byte	0
 1790 0155 00000000 		.4byte	0
 1791              	.LLST8:
 1792 0159 00000000 		.4byte	.LVL25
 1793 015d 28000000 		.4byte	.LVL27
 1794 0161 0100     		.2byte	0x1
 1795 0163 51       		.byte	0x51
 1796 0164 28000000 		.4byte	.LVL27
 1797 0168 4A000000 		.4byte	.LVL30
 1798 016c 0300     		.2byte	0x3
 1799 016e 75       		.byte	0x75
 1800 016f 7C       		.sleb128 -4
 1801 0170 9F       		.byte	0x9f
 1802 0171 4A000000 		.4byte	.LVL30
 1803 0175 B6000000 		.4byte	.LFE115
 1804 0179 0400     		.2byte	0x4
 1805 017b F3       		.byte	0xf3
 1806 017c 01       		.uleb128 0x1
 1807 017d 51       		.byte	0x51
 1808 017e 9F       		.byte	0x9f
 1809 017f 00000000 		.4byte	0
 1810 0183 00000000 		.4byte	0
 1811              	.LLST9:
 1812 0187 00000000 		.4byte	.LVL25
 1813 018b 2B000000 		.4byte	.LVL28-1
 1814 018f 0100     		.2byte	0x1
 1815 0191 52       		.byte	0x52
 1816 0192 2B000000 		.4byte	.LVL28-1
 1817 0196 B6000000 		.4byte	.LFE115
 1818 019a 0100     		.2byte	0x1
ARM GAS  /var/folders/ng/s8655sgx1ys_4lf9jzm2w6n00000gn/T//ccdQObGS.s 			page 33


 1819 019c 59       		.byte	0x59
 1820 019d 00000000 		.4byte	0
 1821 01a1 00000000 		.4byte	0
 1822              	.LLST10:
 1823 01a5 00000000 		.4byte	.LVL25
 1824 01a9 46000000 		.4byte	.LVL29
 1825 01ad 0200     		.2byte	0x2
 1826 01af 30       		.byte	0x30
 1827 01b0 9F       		.byte	0x9f
 1828 01b1 46000000 		.4byte	.LVL29
 1829 01b5 4A000000 		.4byte	.LVL30
 1830 01b9 0100     		.2byte	0x1
 1831 01bb 57       		.byte	0x57
 1832 01bc 76000000 		.4byte	.LVL31
 1833 01c0 92000000 		.4byte	.LVL32
 1834 01c4 0100     		.2byte	0x1
 1835 01c6 57       		.byte	0x57
 1836 01c7 00000000 		.4byte	0
 1837 01cb 00000000 		.4byte	0
 1838              	.LLST11:
 1839 01cf 00000000 		.4byte	.LVL34
 1840 01d3 0A000000 		.4byte	.LVL35
 1841 01d7 0100     		.2byte	0x1
 1842 01d9 50       		.byte	0x50
 1843 01da 0A000000 		.4byte	.LVL35
 1844 01de 0C000000 		.4byte	.LVL36
 1845 01e2 0400     		.2byte	0x4
 1846 01e4 F3       		.byte	0xf3
 1847 01e5 01       		.uleb128 0x1
 1848 01e6 50       		.byte	0x50
 1849 01e7 9F       		.byte	0x9f
 1850 01e8 0C000000 		.4byte	.LVL36
 1851 01ec 26000000 		.4byte	.LVL37
 1852 01f0 0100     		.2byte	0x1
 1853 01f2 50       		.byte	0x50
 1854 01f3 26000000 		.4byte	.LVL37
 1855 01f7 28000000 		.4byte	.LVL38
 1856 01fb 0400     		.2byte	0x4
 1857 01fd F3       		.byte	0xf3
 1858 01fe 01       		.uleb128 0x1
 1859 01ff 50       		.byte	0x50
 1860 0200 9F       		.byte	0x9f
 1861 0201 28000000 		.4byte	.LVL38
 1862 0205 36000000 		.4byte	.LVL39
 1863 0209 0100     		.2byte	0x1
 1864 020b 50       		.byte	0x50
 1865 020c 36000000 		.4byte	.LVL39
 1866 0210 38000000 		.4byte	.LVL40
 1867 0214 0400     		.2byte	0x4
 1868 0216 F3       		.byte	0xf3
 1869 0217 01       		.uleb128 0x1
 1870 0218 50       		.byte	0x50
 1871 0219 9F       		.byte	0x9f
 1872 021a 38000000 		.4byte	.LVL40
 1873 021e 3A000000 		.4byte	.LVL41
 1874 0222 0100     		.2byte	0x1
 1875 0224 50       		.byte	0x50
ARM GAS  /var/folders/ng/s8655sgx1ys_4lf9jzm2w6n00000gn/T//ccdQObGS.s 			page 34


 1876 0225 3A000000 		.4byte	.LVL41
 1877 0229 3C000000 		.4byte	.LVL42
 1878 022d 0400     		.2byte	0x4
 1879 022f F3       		.byte	0xf3
 1880 0230 01       		.uleb128 0x1
 1881 0231 50       		.byte	0x50
 1882 0232 9F       		.byte	0x9f
 1883 0233 3C000000 		.4byte	.LVL42
 1884 0237 4A000000 		.4byte	.LVL43
 1885 023b 0100     		.2byte	0x1
 1886 023d 50       		.byte	0x50
 1887 023e 4A000000 		.4byte	.LVL43
 1888 0242 4C000000 		.4byte	.LVL44
 1889 0246 0400     		.2byte	0x4
 1890 0248 F3       		.byte	0xf3
 1891 0249 01       		.uleb128 0x1
 1892 024a 50       		.byte	0x50
 1893 024b 9F       		.byte	0x9f
 1894 024c 4C000000 		.4byte	.LVL44
 1895 0250 5A000000 		.4byte	.LVL45
 1896 0254 0100     		.2byte	0x1
 1897 0256 50       		.byte	0x50
 1898 0257 5A000000 		.4byte	.LVL45
 1899 025b 5C000000 		.4byte	.LVL46
 1900 025f 0400     		.2byte	0x4
 1901 0261 F3       		.byte	0xf3
 1902 0262 01       		.uleb128 0x1
 1903 0263 50       		.byte	0x50
 1904 0264 9F       		.byte	0x9f
 1905 0265 5C000000 		.4byte	.LVL46
 1906 0269 6A000000 		.4byte	.LVL47
 1907 026d 0100     		.2byte	0x1
 1908 026f 50       		.byte	0x50
 1909 0270 6A000000 		.4byte	.LVL47
 1910 0274 6C000000 		.4byte	.LVL48
 1911 0278 0400     		.2byte	0x4
 1912 027a F3       		.byte	0xf3
 1913 027b 01       		.uleb128 0x1
 1914 027c 50       		.byte	0x50
 1915 027d 9F       		.byte	0x9f
 1916 027e 6C000000 		.4byte	.LVL48
 1917 0282 7A000000 		.4byte	.LVL49
 1918 0286 0100     		.2byte	0x1
 1919 0288 50       		.byte	0x50
 1920 0289 7A000000 		.4byte	.LVL49
 1921 028d 7C000000 		.4byte	.LVL50
 1922 0291 0400     		.2byte	0x4
 1923 0293 F3       		.byte	0xf3
 1924 0294 01       		.uleb128 0x1
 1925 0295 50       		.byte	0x50
 1926 0296 9F       		.byte	0x9f
 1927 0297 7C000000 		.4byte	.LVL50
 1928 029b 8A000000 		.4byte	.LVL51
 1929 029f 0100     		.2byte	0x1
 1930 02a1 50       		.byte	0x50
 1931 02a2 8A000000 		.4byte	.LVL51
 1932 02a6 8C000000 		.4byte	.LVL52
ARM GAS  /var/folders/ng/s8655sgx1ys_4lf9jzm2w6n00000gn/T//ccdQObGS.s 			page 35


 1933 02aa 0400     		.2byte	0x4
 1934 02ac F3       		.byte	0xf3
 1935 02ad 01       		.uleb128 0x1
 1936 02ae 50       		.byte	0x50
 1937 02af 9F       		.byte	0x9f
 1938 02b0 8C000000 		.4byte	.LVL52
 1939 02b4 9A000000 		.4byte	.LVL53
 1940 02b8 0100     		.2byte	0x1
 1941 02ba 50       		.byte	0x50
 1942 02bb 9A000000 		.4byte	.LVL53
 1943 02bf 9C000000 		.4byte	.LVL54
 1944 02c3 0400     		.2byte	0x4
 1945 02c5 F3       		.byte	0xf3
 1946 02c6 01       		.uleb128 0x1
 1947 02c7 50       		.byte	0x50
 1948 02c8 9F       		.byte	0x9f
 1949 02c9 9C000000 		.4byte	.LVL54
 1950 02cd AA000000 		.4byte	.LVL55
 1951 02d1 0100     		.2byte	0x1
 1952 02d3 50       		.byte	0x50
 1953 02d4 AA000000 		.4byte	.LVL55
 1954 02d8 AC000000 		.4byte	.LVL56
 1955 02dc 0400     		.2byte	0x4
 1956 02de F3       		.byte	0xf3
 1957 02df 01       		.uleb128 0x1
 1958 02e0 50       		.byte	0x50
 1959 02e1 9F       		.byte	0x9f
 1960 02e2 AC000000 		.4byte	.LVL56
 1961 02e6 BA000000 		.4byte	.LVL57
 1962 02ea 0100     		.2byte	0x1
 1963 02ec 50       		.byte	0x50
 1964 02ed BA000000 		.4byte	.LVL57
 1965 02f1 BC000000 		.4byte	.LVL58
 1966 02f5 0400     		.2byte	0x4
 1967 02f7 F3       		.byte	0xf3
 1968 02f8 01       		.uleb128 0x1
 1969 02f9 50       		.byte	0x50
 1970 02fa 9F       		.byte	0x9f
 1971 02fb BC000000 		.4byte	.LVL58
 1972 02ff C4000000 		.4byte	.LVL59
 1973 0303 0100     		.2byte	0x1
 1974 0305 50       		.byte	0x50
 1975 0306 C4000000 		.4byte	.LVL59
 1976 030a C6000000 		.4byte	.LVL60
 1977 030e 0400     		.2byte	0x4
 1978 0310 F3       		.byte	0xf3
 1979 0311 01       		.uleb128 0x1
 1980 0312 50       		.byte	0x50
 1981 0313 9F       		.byte	0x9f
 1982 0314 C6000000 		.4byte	.LVL60
 1983 0318 D4000000 		.4byte	.LVL61
 1984 031c 0100     		.2byte	0x1
 1985 031e 50       		.byte	0x50
 1986 031f D4000000 		.4byte	.LVL61
 1987 0323 D6000000 		.4byte	.LVL62
 1988 0327 0400     		.2byte	0x4
 1989 0329 F3       		.byte	0xf3
ARM GAS  /var/folders/ng/s8655sgx1ys_4lf9jzm2w6n00000gn/T//ccdQObGS.s 			page 36


 1990 032a 01       		.uleb128 0x1
 1991 032b 50       		.byte	0x50
 1992 032c 9F       		.byte	0x9f
 1993 032d D6000000 		.4byte	.LVL62
 1994 0331 E4000000 		.4byte	.LVL63
 1995 0335 0100     		.2byte	0x1
 1996 0337 50       		.byte	0x50
 1997 0338 E4000000 		.4byte	.LVL63
 1998 033c E6000000 		.4byte	.LVL64
 1999 0340 0400     		.2byte	0x4
 2000 0342 F3       		.byte	0xf3
 2001 0343 01       		.uleb128 0x1
 2002 0344 50       		.byte	0x50
 2003 0345 9F       		.byte	0x9f
 2004 0346 E6000000 		.4byte	.LVL64
 2005 034a F4000000 		.4byte	.LVL65
 2006 034e 0100     		.2byte	0x1
 2007 0350 50       		.byte	0x50
 2008 0351 F4000000 		.4byte	.LVL65
 2009 0355 F6000000 		.4byte	.LVL66
 2010 0359 0400     		.2byte	0x4
 2011 035b F3       		.byte	0xf3
 2012 035c 01       		.uleb128 0x1
 2013 035d 50       		.byte	0x50
 2014 035e 9F       		.byte	0x9f
 2015 035f F6000000 		.4byte	.LVL66
 2016 0363 04010000 		.4byte	.LVL67
 2017 0367 0100     		.2byte	0x1
 2018 0369 50       		.byte	0x50
 2019 036a 04010000 		.4byte	.LVL67
 2020 036e 06010000 		.4byte	.LVL68
 2021 0372 0400     		.2byte	0x4
 2022 0374 F3       		.byte	0xf3
 2023 0375 01       		.uleb128 0x1
 2024 0376 50       		.byte	0x50
 2025 0377 9F       		.byte	0x9f
 2026 0378 06010000 		.4byte	.LVL68
 2027 037c 14010000 		.4byte	.LVL69
 2028 0380 0100     		.2byte	0x1
 2029 0382 50       		.byte	0x50
 2030 0383 14010000 		.4byte	.LVL69
 2031 0387 16010000 		.4byte	.LVL70
 2032 038b 0400     		.2byte	0x4
 2033 038d F3       		.byte	0xf3
 2034 038e 01       		.uleb128 0x1
 2035 038f 50       		.byte	0x50
 2036 0390 9F       		.byte	0x9f
 2037 0391 16010000 		.4byte	.LVL70
 2038 0395 24010000 		.4byte	.LVL71
 2039 0399 0100     		.2byte	0x1
 2040 039b 50       		.byte	0x50
 2041 039c 24010000 		.4byte	.LVL71
 2042 03a0 26010000 		.4byte	.LVL72
 2043 03a4 0400     		.2byte	0x4
 2044 03a6 F3       		.byte	0xf3
 2045 03a7 01       		.uleb128 0x1
 2046 03a8 50       		.byte	0x50
ARM GAS  /var/folders/ng/s8655sgx1ys_4lf9jzm2w6n00000gn/T//ccdQObGS.s 			page 37


 2047 03a9 9F       		.byte	0x9f
 2048 03aa 26010000 		.4byte	.LVL72
 2049 03ae 34010000 		.4byte	.LVL73
 2050 03b2 0100     		.2byte	0x1
 2051 03b4 50       		.byte	0x50
 2052 03b5 34010000 		.4byte	.LVL73
 2053 03b9 36010000 		.4byte	.LVL74
 2054 03bd 0400     		.2byte	0x4
 2055 03bf F3       		.byte	0xf3
 2056 03c0 01       		.uleb128 0x1
 2057 03c1 50       		.byte	0x50
 2058 03c2 9F       		.byte	0x9f
 2059 03c3 36010000 		.4byte	.LVL74
 2060 03c7 44010000 		.4byte	.LVL75
 2061 03cb 0100     		.2byte	0x1
 2062 03cd 50       		.byte	0x50
 2063 03ce 44010000 		.4byte	.LVL75
 2064 03d2 46010000 		.4byte	.LVL76
 2065 03d6 0400     		.2byte	0x4
 2066 03d8 F3       		.byte	0xf3
 2067 03d9 01       		.uleb128 0x1
 2068 03da 50       		.byte	0x50
 2069 03db 9F       		.byte	0x9f
 2070 03dc 46010000 		.4byte	.LVL76
 2071 03e0 54010000 		.4byte	.LVL77
 2072 03e4 0100     		.2byte	0x1
 2073 03e6 50       		.byte	0x50
 2074 03e7 54010000 		.4byte	.LVL77
 2075 03eb 56010000 		.4byte	.LVL78
 2076 03ef 0400     		.2byte	0x4
 2077 03f1 F3       		.byte	0xf3
 2078 03f2 01       		.uleb128 0x1
 2079 03f3 50       		.byte	0x50
 2080 03f4 9F       		.byte	0x9f
 2081 03f5 56010000 		.4byte	.LVL78
 2082 03f9 64010000 		.4byte	.LVL79
 2083 03fd 0100     		.2byte	0x1
 2084 03ff 50       		.byte	0x50
 2085 0400 64010000 		.4byte	.LVL79
 2086 0404 66010000 		.4byte	.LVL80
 2087 0408 0400     		.2byte	0x4
 2088 040a F3       		.byte	0xf3
 2089 040b 01       		.uleb128 0x1
 2090 040c 50       		.byte	0x50
 2091 040d 9F       		.byte	0x9f
 2092 040e 66010000 		.4byte	.LVL80
 2093 0412 74010000 		.4byte	.LVL81
 2094 0416 0100     		.2byte	0x1
 2095 0418 50       		.byte	0x50
 2096 0419 74010000 		.4byte	.LVL81
 2097 041d 76010000 		.4byte	.LVL82
 2098 0421 0400     		.2byte	0x4
 2099 0423 F3       		.byte	0xf3
 2100 0424 01       		.uleb128 0x1
 2101 0425 50       		.byte	0x50
 2102 0426 9F       		.byte	0x9f
 2103 0427 76010000 		.4byte	.LVL82
ARM GAS  /var/folders/ng/s8655sgx1ys_4lf9jzm2w6n00000gn/T//ccdQObGS.s 			page 38


 2104 042b 84010000 		.4byte	.LVL83
 2105 042f 0100     		.2byte	0x1
 2106 0431 50       		.byte	0x50
 2107 0432 84010000 		.4byte	.LVL83
 2108 0436 86010000 		.4byte	.LFE116
 2109 043a 0400     		.2byte	0x4
 2110 043c F3       		.byte	0xf3
 2111 043d 01       		.uleb128 0x1
 2112 043e 50       		.byte	0x50
 2113 043f 9F       		.byte	0x9f
 2114 0440 00000000 		.4byte	0
 2115 0444 00000000 		.4byte	0
 2116              		.section	.debug_aranges,"",%progbits
 2117 0000 44000000 		.4byte	0x44
 2118 0004 0200     		.2byte	0x2
 2119 0006 00000000 		.4byte	.Ldebug_info0
 2120 000a 04       		.byte	0x4
 2121 000b 00       		.byte	0
 2122 000c 0000     		.2byte	0
 2123 000e 0000     		.2byte	0
 2124 0010 00000000 		.4byte	.LFB111
 2125 0014 10000000 		.4byte	.LFE111-.LFB111
 2126 0018 00000000 		.4byte	.LFB112
 2127 001c 1C000000 		.4byte	.LFE112-.LFB112
 2128 0020 00000000 		.4byte	.LFB113
 2129 0024 54000000 		.4byte	.LFE113-.LFB113
 2130 0028 00000000 		.4byte	.LFB114
 2131 002c 5E000000 		.4byte	.LFE114-.LFB114
 2132 0030 00000000 		.4byte	.LFB115
 2133 0034 B6000000 		.4byte	.LFE115-.LFB115
 2134 0038 00000000 		.4byte	.LFB116
 2135 003c 86010000 		.4byte	.LFE116-.LFB116
 2136 0040 00000000 		.4byte	0
 2137 0044 00000000 		.4byte	0
 2138              		.section	.debug_ranges,"",%progbits
 2139              	.Ldebug_ranges0:
 2140 0000 00000000 		.4byte	.LFB111
 2141 0004 10000000 		.4byte	.LFE111
 2142 0008 00000000 		.4byte	.LFB112
 2143 000c 1C000000 		.4byte	.LFE112
 2144 0010 00000000 		.4byte	.LFB113
 2145 0014 54000000 		.4byte	.LFE113
 2146 0018 00000000 		.4byte	.LFB114
 2147 001c 5E000000 		.4byte	.LFE114
 2148 0020 00000000 		.4byte	.LFB115
 2149 0024 B6000000 		.4byte	.LFE115
 2150 0028 00000000 		.4byte	.LFB116
 2151 002c 86010000 		.4byte	.LFE116
 2152 0030 00000000 		.4byte	0
 2153 0034 00000000 		.4byte	0
 2154              		.section	.debug_line,"",%progbits
 2155              	.Ldebug_line0:
 2156 0000 00020000 		.section	.debug_str,"MS",%progbits,1
 2156      02000001 
 2156      00000201 
 2156      FB0E0D00 
 2156      01010101 
ARM GAS  /var/folders/ng/s8655sgx1ys_4lf9jzm2w6n00000gn/T//ccdQObGS.s 			page 39


 2157              	.LASF34:
 2158 0000 44617461 		.ascii	"DataLength\000"
 2158      4C656E67 
 2158      746800
 2159              	.LASF29:
 2160 000b 73746174 		.ascii	"status\000"
 2160      757300
 2161              	.LASF25:
 2162 0012 464C4153 		.ascii	"FLASH_ERASE_ERROR\000"
 2162      485F4552 
 2162      4153455F 
 2162      4552524F 
 2162      5200
 2163              	.LASF21:
 2164 0024 464C4153 		.ascii	"FLASH_COMPLETE\000"
 2164      485F434F 
 2164      4D504C45 
 2164      544500
 2165              	.LASF41:
 2166 0033 464C4153 		.ascii	"FLASH_ClearFlag\000"
 2166      485F436C 
 2166      65617246 
 2166      6C616700 
 2167              	.LASF26:
 2168 0043 464C4153 		.ascii	"FLASH_EraseResult\000"
 2168      485F4572 
 2168      61736552 
 2168      6573756C 
 2168      7400
 2169              	.LASF19:
 2170 0055 464C4153 		.ascii	"FLASH_ERROR_PROGRAM\000"
 2170      485F4552 
 2170      524F525F 
 2170      50524F47 
 2170      52414D00 
 2171              	.LASF42:
 2172 0069 464C4153 		.ascii	"FLASH_ProgramWord\000"
 2172      485F5072 
 2172      6F677261 
 2172      6D576F72 
 2172      6400
 2173              	.LASF40:
 2174 007b 464C4153 		.ascii	"FLASH_EraseSector\000"
 2174      485F4572 
 2174      61736553 
 2174      6563746F 
 2174      7200
 2175              	.LASF23:
 2176 008d 464C4153 		.ascii	"FLASH_ERASE_COMPLETE\000"
 2176      485F4552 
 2176      4153455F 
 2176      434F4D50 
 2176      4C455445 
 2177              	.LASF28:
 2178 00a2 464C4153 		.ascii	"FLASH_If_Erase\000"
 2178      485F4966 
 2178      5F457261 
ARM GAS  /var/folders/ng/s8655sgx1ys_4lf9jzm2w6n00000gn/T//ccdQObGS.s 			page 40


 2178      736500
 2179              	.LASF17:
 2180 00b1 464C4153 		.ascii	"FLASH_ERROR_PGA\000"
 2180      485F4552 
 2180      524F525F 
 2180      50474100 
 2181              	.LASF1:
 2182 00c1 756E7369 		.ascii	"unsigned char\000"
 2182      676E6564 
 2182      20636861 
 2182      7200
 2183              	.LASF9:
 2184 00cf 6C6F6E67 		.ascii	"long unsigned int\000"
 2184      20756E73 
 2184      69676E65 
 2184      6420696E 
 2184      7400
 2185              	.LASF36:
 2186 00e1 61646472 		.ascii	"addr\000"
 2186      00
 2187              	.LASF48:
 2188 00e6 49544D5F 		.ascii	"ITM_RxBuffer\000"
 2188      52784275 
 2188      66666572 
 2188      00
 2189              	.LASF16:
 2190 00f3 464C4153 		.ascii	"FLASH_ERROR_PGP\000"
 2190      485F4552 
 2190      524F525F 
 2190      50475000 
 2191              	.LASF43:
 2192 0103 474E5520 		.ascii	"GNU C 4.7.4 20130913 (release) [ARM/embedded-4_7-br"
 2192      4320342E 
 2192      372E3420 
 2192      32303133 
 2192      30393133 
 2193 0136 616E6368 		.ascii	"anch revision 202601]\000"
 2193      20726576 
 2193      6973696F 
 2193      6E203230 
 2193      32363031 
 2194              	.LASF15:
 2195 014c 464C4153 		.ascii	"FLASH_ERROR_PGS\000"
 2195      485F4552 
 2195      524F525F 
 2195      50475300 
 2196              	.LASF24:
 2197 015c 464C4153 		.ascii	"FLASH_ERASE_IN_PROGRESS\000"
 2197      485F4552 
 2197      4153455F 
 2197      494E5F50 
 2197      524F4752 
 2198              	.LASF35:
 2199 0174 464C4153 		.ascii	"FLASH_Addr_To_Sector\000"
 2199      485F4164 
 2199      64725F54 
 2199      6F5F5365 
ARM GAS  /var/folders/ng/s8655sgx1ys_4lf9jzm2w6n00000gn/T//ccdQObGS.s 			page 41


 2199      63746F72 
 2200              	.LASF2:
 2201 0189 73686F72 		.ascii	"short int\000"
 2201      7420696E 
 2201      7400
 2202              	.LASF31:
 2203 0193 656E6453 		.ascii	"endSector\000"
 2203      6563746F 
 2203      7200
 2204              	.LASF46:
 2205 019d 464C4153 		.ascii	"FLASH_If_Init\000"
 2205      485F4966 
 2205      5F496E69 
 2205      7400
 2206              	.LASF12:
 2207 01ab 756E7369 		.ascii	"unsigned int\000"
 2207      676E6564 
 2207      20696E74 
 2207      00
 2208              	.LASF44:
 2209 01b8 2E2E2F41 		.ascii	"../AithonLibrary/flash_if.c\000"
 2209      6974686F 
 2209      6E4C6962 
 2209      72617279 
 2209      2F666C61 
 2210              	.LASF11:
 2211 01d4 6C6F6E67 		.ascii	"long long unsigned int\000"
 2211      206C6F6E 
 2211      6720756E 
 2211      7369676E 
 2211      65642069 
 2212              	.LASF3:
 2213 01eb 75696E74 		.ascii	"uint8_t\000"
 2213      385F7400 
 2214              	.LASF33:
 2215 01f3 44617461 		.ascii	"Data\000"
 2215      00
 2216              	.LASF18:
 2217 01f8 464C4153 		.ascii	"FLASH_ERROR_WRP\000"
 2217      485F4552 
 2217      524F525F 
 2217      57525000 
 2218              	.LASF0:
 2219 0208 7369676E 		.ascii	"signed char\000"
 2219      65642063 
 2219      68617200 
 2220              	.LASF6:
 2221 0214 696E7433 		.ascii	"int32_t\000"
 2221      325F7400 
 2222              	.LASF13:
 2223 021c 73697A65 		.ascii	"sizetype\000"
 2223      74797065 
 2223      00
 2224              	.LASF5:
 2225 0225 73686F72 		.ascii	"short unsigned int\000"
 2225      7420756E 
 2225      7369676E 
ARM GAS  /var/folders/ng/s8655sgx1ys_4lf9jzm2w6n00000gn/T//ccdQObGS.s 			page 42


 2225      65642069 
 2225      6E7400
 2226              	.LASF10:
 2227 0238 6C6F6E67 		.ascii	"long long int\000"
 2227      206C6F6E 
 2227      6720696E 
 2227      7400
 2228              	.LASF22:
 2229 0246 464C4153 		.ascii	"FLASH_Status\000"
 2229      485F5374 
 2229      61747573 
 2229      00
 2230              	.LASF20:
 2231 0253 464C4153 		.ascii	"FLASH_ERROR_OPERATION\000"
 2231      485F4552 
 2231      524F525F 
 2231      4F504552 
 2231      4154494F 
 2232              	.LASF47:
 2233 0269 464C4153 		.ascii	"FLASH_If_Erase_Start\000"
 2233      485F4966 
 2233      5F457261 
 2233      73655F53 
 2233      74617274 
 2234              	.LASF45:
 2235 027e 2F557365 		.ascii	"/Users/jseng/aithon/DemoMode\000"
 2235      72732F6A 
 2235      73656E67 
 2235      2F616974 
 2235      686F6E2F 
 2236              	.LASF27:
 2237 029b 464C4153 		.ascii	"FLASH_If_Erase_Status\000"
 2237      485F4966 
 2237      5F457261 
 2237      73655F53 
 2237      74617475 
 2238              	.LASF38:
 2239 02b1 5F637572 		.ascii	"_currentEraseSector\000"
 2239      72656E74 
 2239      45726173 
 2239      65536563 
 2239      746F7200 
 2240              	.LASF4:
 2241 02c5 75696E74 		.ascii	"uint16_t\000"
 2241      31365F74 
 2241      00
 2242              	.LASF39:
 2243 02ce 464C4153 		.ascii	"FLASH_EraseSectorStart\000"
 2243      485F4572 
 2243      61736553 
 2243      6563746F 
 2243      72537461 
 2244              	.LASF37:
 2245 02e5 5F6E6578 		.ascii	"_nextEraseSector\000"
 2245      74457261 
 2245      73655365 
 2245      63746F72 
ARM GAS  /var/folders/ng/s8655sgx1ys_4lf9jzm2w6n00000gn/T//ccdQObGS.s 			page 43


 2245      00
 2246              	.LASF8:
 2247 02f6 75696E74 		.ascii	"uint32_t\000"
 2247      33325F74 
 2247      00
 2248              	.LASF7:
 2249 02ff 6C6F6E67 		.ascii	"long int\000"
 2249      20696E74 
 2249      00
 2250              	.LASF49:
 2251 0308 464C4153 		.ascii	"FLASH_Unlock\000"
 2251      485F556E 
 2251      6C6F636B 
 2251      00
 2252              	.LASF14:
 2253 0315 464C4153 		.ascii	"FLASH_BUSY\000"
 2253      485F4255 
 2253      535900
 2254              	.LASF50:
 2255 0320 464C4153 		.ascii	"FLASH_EraseSectorGetStatus\000"
 2255      485F4572 
 2255      61736553 
 2255      6563746F 
 2255      72476574 
 2256              	.LASF32:
 2257 033b 466C6173 		.ascii	"FlashAddress\000"
 2257      68416464 
 2257      72657373 
 2257      00
 2258              	.LASF30:
 2259 0348 464C4153 		.ascii	"FLASH_If_Write\000"
 2259      485F4966 
 2259      5F577269 
 2259      746500
 2260              		.ident	"GCC: (GNU Tools for ARM Embedded Processors) 4.7.4 20130913 (release) [ARM/embedded-4_7-br
ARM GAS  /var/folders/ng/s8655sgx1ys_4lf9jzm2w6n00000gn/T//ccdQObGS.s 			page 44


DEFINED SYMBOLS
                            *ABS*:0000000000000000 flash_if.c
/var/folders/ng/s8655sgx1ys_4lf9jzm2w6n00000gn/T//ccdQObGS.s:20     .text.FLASH_If_Init:0000000000000000 $t
/var/folders/ng/s8655sgx1ys_4lf9jzm2w6n00000gn/T//ccdQObGS.s:26     .text.FLASH_If_Init:0000000000000000 FLASH_If_Init
/var/folders/ng/s8655sgx1ys_4lf9jzm2w6n00000gn/T//ccdQObGS.s:52     .text.FLASH_If_Erase_Start:0000000000000000 $t
/var/folders/ng/s8655sgx1ys_4lf9jzm2w6n00000gn/T//ccdQObGS.s:58     .text.FLASH_If_Erase_Start:0000000000000000 FLASH_If_Erase_Start
/var/folders/ng/s8655sgx1ys_4lf9jzm2w6n00000gn/T//ccdQObGS.s:689    .data._nextEraseSector:0000000000000000 .LANCHOR0
/var/folders/ng/s8655sgx1ys_4lf9jzm2w6n00000gn/T//ccdQObGS.s:696    .bss._currentEraseSector:0000000000000000 .LANCHOR1
/var/folders/ng/s8655sgx1ys_4lf9jzm2w6n00000gn/T//ccdQObGS.s:87     .text.FLASH_If_Erase_Status:0000000000000000 $t
/var/folders/ng/s8655sgx1ys_4lf9jzm2w6n00000gn/T//ccdQObGS.s:93     .text.FLASH_If_Erase_Status:0000000000000000 FLASH_If_Erase_Status
/var/folders/ng/s8655sgx1ys_4lf9jzm2w6n00000gn/T//ccdQObGS.s:174    .text.FLASH_If_Erase_Status:000000000000004c $d
/var/folders/ng/s8655sgx1ys_4lf9jzm2w6n00000gn/T//ccdQObGS.s:180    .text.FLASH_If_Erase:0000000000000000 $t
/var/folders/ng/s8655sgx1ys_4lf9jzm2w6n00000gn/T//ccdQObGS.s:186    .text.FLASH_If_Erase:0000000000000000 FLASH_If_Erase
/var/folders/ng/s8655sgx1ys_4lf9jzm2w6n00000gn/T//ccdQObGS.s:261    .text.FLASH_If_Write:0000000000000000 $t
/var/folders/ng/s8655sgx1ys_4lf9jzm2w6n00000gn/T//ccdQObGS.s:267    .text.FLASH_If_Write:0000000000000000 FLASH_If_Write
/var/folders/ng/s8655sgx1ys_4lf9jzm2w6n00000gn/T//ccdQObGS.s:401    .text.FLASH_Addr_To_Sector:0000000000000000 $t
/var/folders/ng/s8655sgx1ys_4lf9jzm2w6n00000gn/T//ccdQObGS.s:407    .text.FLASH_Addr_To_Sector:0000000000000000 FLASH_Addr_To_Sector
/var/folders/ng/s8655sgx1ys_4lf9jzm2w6n00000gn/T//ccdQObGS.s:688    .data._nextEraseSector:0000000000000000 $d
/var/folders/ng/s8655sgx1ys_4lf9jzm2w6n00000gn/T//ccdQObGS.s:692    .data._nextEraseSector:0000000000000000 _nextEraseSector
/var/folders/ng/s8655sgx1ys_4lf9jzm2w6n00000gn/T//ccdQObGS.s:695    .bss._currentEraseSector:0000000000000000 $d
/var/folders/ng/s8655sgx1ys_4lf9jzm2w6n00000gn/T//ccdQObGS.s:699    .bss._currentEraseSector:0000000000000000 _currentEraseSector
                     .debug_frame:0000000000000010 $d
/var/folders/ng/s8655sgx1ys_4lf9jzm2w6n00000gn/T//ccdQObGS.s:179    .text.FLASH_If_Erase_Status:0000000000000054 $t

UNDEFINED SYMBOLS
FLASH_Unlock
FLASH_ClearFlag
FLASH_EraseSectorStart
FLASH_EraseSectorGetStatus
FLASH_EraseSector
FLASH_ProgramWord
