ARM GAS  /var/folders/ng/s8655sgx1ys_4lf9jzm2w6n00000gn/T//ccdQObGS.s 			page 1


   1              		.syntax unified
   2              		.cpu cortex-m4
   3              		.eabi_attribute 27, 3
   4              		.fpu fpv4-sp-d16
   5              		.eabi_attribute 20, 1
   6              		.eabi_attribute 21, 1
   7              		.eabi_attribute 23, 3
   8              		.eabi_attribute 24, 1
   9              		.eabi_attribute 25, 1
  10              		.eabi_attribute 26, 1
  11              		.eabi_attribute 30, 2
  12              		.eabi_attribute 34, 1
  13              		.eabi_attribute 18, 4
  14              		.thumb
  15              		.file	"flash_if.c"
  16              		.text
  17              	.Ltext0:
  18              		.cfi_sections	.debug_frame
  19              		.section	.text.FLASH_If_Init,"ax",%progbits
  20              		.align	2
  21              		.p2align 4,,15
  22              		.global	FLASH_If_Init
  23              		.thumb
  24              		.thumb_func
  25              		.type	FLASH_If_Init, %function
  26              	FLASH_If_Init:
  27              	.LFB111:
  28              		.file 1 "../AithonLibrary/flash_if.c"
  29              		.loc 1 42 0
  30              		.cfi_startproc
  31              		@ args = 0, pretend = 0, frame = 0
  32              		@ frame_needed = 0, uses_anonymous_args = 0
  33 0000 08B5     		push	{r3, lr}
  34              	.LCFI0:
  35              		.cfi_def_cfa_offset 8
  36              		.cfi_offset 3, -8
  37              		.cfi_offset 14, -4
  38              		.loc 1 43 0
  39 0002 FFF7FEFF 		bl	FLASH_Unlock
  40              	.LVL0:
  41              		.loc 1 46 0
  42 0006 F320     		movs	r0, #243
  43              		.loc 1 48 0
  44 0008 BDE80840 		pop	{r3, lr}
  45              		.loc 1 46 0
  46 000c FFF7FEBF 		b	FLASH_ClearFlag
  47              	.LVL1:
  48              		.cfi_endproc
  49              	.LFE111:
  50              		.size	FLASH_If_Init, .-FLASH_If_Init
  51              		.section	.text.FLASH_If_Erase_Start,"ax",%progbits
  52              		.align	2
  53              		.p2align 4,,15
  54              		.global	FLASH_If_Erase_Start
  55              		.thumb
  56              		.thumb_func
  57              		.type	FLASH_If_Erase_Start, %function
ARM GAS  /var/folders/ng/s8655sgx1ys_4lf9jzm2w6n00000gn/T//ccdQObGS.s 			page 2


  58              	FLASH_If_Erase_Start:
  59              	.LFB112:
  60              		.loc 1 54 0
  61              		.cfi_startproc
  62              		@ args = 0, pretend = 0, frame = 0
  63              		@ frame_needed = 0, uses_anonymous_args = 0
  64              		@ link register save eliminated.
  65              		.loc 1 55 0
  66 0000 40F20002 		movw	r2, #:lower16:.LANCHOR0
  67              		.loc 1 56 0
  68 0004 40F20003 		movw	r3, #:lower16:.LANCHOR1
  69              		.loc 1 55 0
  70 0008 C0F20002 		movt	r2, #:upper16:.LANCHOR0
  71              		.loc 1 56 0
  72 000c C0F20003 		movt	r3, #:upper16:.LANCHOR1
  73 0010 0020     		movs	r0, #0
  74              		.loc 1 55 0
  75 0012 2821     		movs	r1, #40
  76              		.loc 1 56 0
  77 0014 1860     		str	r0, [r3, #0]
  78              		.loc 1 55 0
  79 0016 1160     		str	r1, [r2, #0]
  80              		.loc 1 58 0
  81 0018 0120     		movs	r0, #1
  82 001a 7047     		bx	lr
  83              		.cfi_endproc
  84              	.LFE112:
  85              		.size	FLASH_If_Erase_Start, .-FLASH_If_Erase_Start
  86 001c AFF30080 		.section	.text.FLASH_If_Erase_Status,"ax",%progbits
  87              		.align	2
  88              		.p2align 4,,15
  89              		.global	FLASH_If_Erase_Status
  90              		.thumb
  91              		.thumb_func
  92              		.type	FLASH_If_Erase_Status, %function
  93              	FLASH_If_Erase_Status:
  94              	.LFB113:
  95              		.loc 1 60 0
  96              		.cfi_startproc
  97              		@ args = 0, pretend = 0, frame = 0
  98              		@ frame_needed = 0, uses_anonymous_args = 0
  99              	.LVL2:
 100 0000 38B5     		push	{r3, r4, r5, lr}
 101              	.LCFI1:
 102              		.cfi_def_cfa_offset 16
 103              		.cfi_offset 3, -16
 104              		.cfi_offset 4, -12
 105              		.cfi_offset 5, -8
 106              		.cfi_offset 14, -4
 107              		.loc 1 62 0
 108 0002 124C     		ldr	r4, .L13
 109 0004 2368     		ldr	r3, [r4, #0]
 110 0006 5A1C     		adds	r2, r3, #1
 111              		.loc 1 60 0
 112 0008 0546     		mov	r5, r0
 113              		.loc 1 62 0
 114 000a 0AD0     		beq	.L7
ARM GAS  /var/folders/ng/s8655sgx1ys_4lf9jzm2w6n00000gn/T//ccdQObGS.s 			page 3


 115              		.loc 1 66 0
 116 000c 104A     		ldr	r2, .L13+4
 117 000e 1168     		ldr	r1, [r2, #0]
 118 0010 8B42     		cmp	r3, r1
 119 0012 08D0     		beq	.L6
 120              		.loc 1 69 0
 121 0014 0221     		movs	r1, #2
 122 0016 1846     		mov	r0, r3
 123              	.LVL3:
 124              		.loc 1 68 0
 125 0018 1360     		str	r3, [r2, #0]
 126              		.loc 1 69 0
 127 001a FFF7FEFF 		bl	FLASH_EraseSectorStart
 128              	.LVL4:
 129 001e 0828     		cmp	r0, #8
 130 0020 09D0     		beq	.L11
 131              	.L7:
 132              		.loc 1 63 0
 133 0022 0220     		movs	r0, #2
 134 0024 38BD     		pop	{r3, r4, r5, pc}
 135              	.LVL5:
 136              	.L6:
 137              		.loc 1 75 0
 138 0026 FFF7FEFF 		bl	FLASH_EraseSectorGetStatus
 139              	.LVL6:
 140              		.loc 1 76 0
 141 002a 0128     		cmp	r0, #1
 142 002c 02D0     		beq	.L5
 143              		.loc 1 80 0
 144 002e 0828     		cmp	r0, #8
 145 0030 03D0     		beq	.L12
 146              		.loc 1 90 0
 147 0032 0020     		movs	r0, #0
 148              	.LVL7:
 149              	.L5:
 150              		.loc 1 92 0
 151 0034 38BD     		pop	{r3, r4, r5, pc}
 152              	.L11:
 153              		.loc 1 72 0
 154 0036 0120     		movs	r0, #1
 155 0038 38BD     		pop	{r3, r4, r5, pc}
 156              	.LVL8:
 157              	.L12:
 158              		.loc 1 82 0
 159 003a 2068     		ldr	r0, [r4, #0]
 160              	.LVL9:
 161 003c 0830     		adds	r0, r0, #8
 162              		.loc 1 63 0
 163 003e A842     		cmp	r0, r5
 164              		.loc 1 82 0
 165 0040 2060     		str	r0, [r4, #0]
 166              		.loc 1 63 0
 167 0042 CCBF     		ite	gt
 168 0044 0020     		movgt	r0, #0
 169 0046 0120     		movle	r0, #1
 170 0048 38BD     		pop	{r3, r4, r5, pc}
 171              	.L14:
ARM GAS  /var/folders/ng/s8655sgx1ys_4lf9jzm2w6n00000gn/T//ccdQObGS.s 			page 4


 172 004a 00BF     		.align	2
 173              	.L13:
 174 004c 00000000 		.word	.LANCHOR0
 175 0050 00000000 		.word	.LANCHOR1
 176              		.cfi_endproc
 177              	.LFE113:
 178              		.size	FLASH_If_Erase_Status, .-FLASH_If_Erase_Status
 179 0054 AFF30080 		.section	.text.FLASH_If_Erase,"ax",%progbits
 179      AFF30080 
 179      AFF30080 
 180              		.align	2
 181              		.p2align 4,,15
 182              		.global	FLASH_If_Erase
 183              		.thumb
 184              		.thumb_func
 185              		.type	FLASH_If_Erase, %function
 186              	FLASH_If_Erase:
 187              	.LFB114:
 188              		.loc 1 101 0
 189              		.cfi_startproc
 190              		@ args = 0, pretend = 0, frame = 0
 191              		@ frame_needed = 0, uses_anonymous_args = 0
 192              	.LVL10:
 193              		.loc 1 107 0
 194 0000 2820     		movs	r0, #40
 195 0002 0221     		movs	r1, #2
 196              		.loc 1 101 0
 197 0004 08B5     		push	{r3, lr}
 198              	.LCFI2:
 199              		.cfi_def_cfa_offset 8
 200              		.cfi_offset 3, -8
 201              		.cfi_offset 14, -4
 202              		.loc 1 107 0
 203 0006 FFF7FEFF 		bl	FLASH_EraseSector
 204              	.LVL11:
 205 000a 0828     		cmp	r0, #8
 206 000c 25D1     		bne	.L22
 207              	.LVL12:
 208 000e 3020     		movs	r0, #48
 209 0010 0221     		movs	r1, #2
 210 0012 FFF7FEFF 		bl	FLASH_EraseSector
 211              	.LVL13:
 212 0016 0828     		cmp	r0, #8
 213 0018 1FD1     		bne	.L22
 214              	.LVL14:
 215 001a 3820     		movs	r0, #56
 216 001c 0221     		movs	r1, #2
 217 001e FFF7FEFF 		bl	FLASH_EraseSector
 218              	.LVL15:
 219 0022 0828     		cmp	r0, #8
 220 0024 19D1     		bne	.L22
 221              	.LVL16:
 222 0026 4020     		movs	r0, #64
 223 0028 0221     		movs	r1, #2
 224 002a FFF7FEFF 		bl	FLASH_EraseSector
 225              	.LVL17:
 226 002e 0828     		cmp	r0, #8
ARM GAS  /var/folders/ng/s8655sgx1ys_4lf9jzm2w6n00000gn/T//ccdQObGS.s 			page 5


 227 0030 13D1     		bne	.L22
 228              	.LVL18:
 229 0032 4820     		movs	r0, #72
 230 0034 0221     		movs	r1, #2
 231 0036 FFF7FEFF 		bl	FLASH_EraseSector
 232              	.LVL19:
 233 003a 0828     		cmp	r0, #8
 234 003c 0DD1     		bne	.L22
 235              	.LVL20:
 236 003e 5020     		movs	r0, #80
 237 0040 0221     		movs	r1, #2
 238 0042 FFF7FEFF 		bl	FLASH_EraseSector
 239              	.LVL21:
 240 0046 0828     		cmp	r0, #8
 241 0048 07D1     		bne	.L22
 242              	.LVL22:
 243 004a 0221     		movs	r1, #2
 244 004c 5820     		movs	r0, #88
 245 004e FFF7FEFF 		bl	FLASH_EraseSector
 246              	.LVL23:
 247 0052 0838     		subs	r0, r0, #8
 248 0054 18BF     		it	ne
 249 0056 0120     		movne	r0, #1
 250 0058 08BD     		pop	{r3, pc}
 251              	.LVL24:
 252              	.L22:
 253              		.loc 1 110 0
 254 005a 0120     		movs	r0, #1
 255              		.loc 1 115 0
 256 005c 08BD     		pop	{r3, pc}
 257              		.cfi_endproc
 258              	.LFE114:
 259              		.size	FLASH_If_Erase, .-FLASH_If_Erase
 260 005e 00BF     		.section	.text.FLASH_If_Write,"ax",%progbits
 261              		.align	2
 262              		.p2align 4,,15
 263              		.global	FLASH_If_Write
 264              		.thumb
 265              		.thumb_func
 266              		.type	FLASH_If_Write, %function
 267              	FLASH_If_Write:
 268              	.LFB115:
 269              		.loc 1 128 0
 270              		.cfi_startproc
 271              		@ args = 0, pretend = 0, frame = 0
 272              		@ frame_needed = 0, uses_anonymous_args = 0
 273              	.LVL25:
 274 0000 2DE9F843 		push	{r3, r4, r5, r6, r7, r8, r9, lr}
 275              	.LCFI3:
 276              		.cfi_def_cfa_offset 32
 277              		.cfi_offset 3, -32
 278              		.cfi_offset 4, -28
 279              		.cfi_offset 5, -24
 280              		.cfi_offset 6, -20
 281              		.cfi_offset 7, -16
 282              		.cfi_offset 8, -12
 283              		.cfi_offset 9, -8
ARM GAS  /var/folders/ng/s8655sgx1ys_4lf9jzm2w6n00000gn/T//ccdQObGS.s 			page 6


 284              		.cfi_offset 14, -4
 285              		.loc 1 131 0
 286 0004 9146     		mov	r9, r2
 287              		.loc 1 128 0
 288 0006 0446     		mov	r4, r0
 289              		.loc 1 131 0
 290 0008 FAB1     		cbz	r2, .L26
 291 000a 0368     		ldr	r3, [r0, #0]
 292 000c 4FF6FB78 		movw	r8, #65531
 293 0010 C0F60F08 		movt	r8, 2063
 294 0014 4345     		cmp	r3, r8
 295 0016 18D8     		bhi	.L26
 296 0018 0027     		movs	r7, #0
 297 001a 12F0010F 		tst	r2, #1
 298 001e 0D46     		mov	r5, r1
 299 0020 37D1     		bne	.L27
 300              		.loc 1 135 0
 301 0022 0068     		ldr	r0, [r0, #0]
 302              	.LVL26:
 303 0024 55F8041B 		ldr	r1, [r5], #4
 304              	.LVL27:
 305 0028 FFF7FEFF 		bl	FLASH_ProgramWord
 306              	.LVL28:
 307 002c 0828     		cmp	r0, #8
 308 002e 3CD1     		bne	.L28
 309              		.loc 1 138 0
 310 0030 2268     		ldr	r2, [r4, #0]
 311 0032 55F8040C 		ldr	r0, [r5, #-4]
 312 0036 1168     		ldr	r1, [r2, #0]
 313 0038 8142     		cmp	r1, r0
 314 003a 39D1     		bne	.L29
 315              		.loc 1 144 0
 316 003c 2768     		ldr	r7, [r4, #0]
 317 003e 3B1D     		adds	r3, r7, #4
 318 0040 2360     		str	r3, [r4, #0]
 319              		.loc 1 131 0
 320 0042 2268     		ldr	r2, [r4, #0]
 321 0044 0127     		movs	r7, #1
 322              	.LVL29:
 323 0046 4245     		cmp	r2, r8
 324 0048 23D9     		bls	.L27
 325              	.LVL30:
 326              	.L26:
 327              		.loc 1 153 0
 328 004a 0020     		movs	r0, #0
 329 004c BDE8F883 		pop	{r3, r4, r5, r6, r7, r8, r9, pc}
 330              	.L39:
 331              		.loc 1 138 0
 332 0050 2068     		ldr	r0, [r4, #0]
 333 0052 56F8042C 		ldr	r2, [r6, #-4]
 334 0056 0168     		ldr	r1, [r0, #0]
 335 0058 9142     		cmp	r1, r2
 336 005a 29D1     		bne	.L29
 337              		.loc 1 144 0
 338 005c 2068     		ldr	r0, [r4, #0]
 339 005e 021D     		adds	r2, r0, #4
 340              		.loc 1 131 0
ARM GAS  /var/folders/ng/s8655sgx1ys_4lf9jzm2w6n00000gn/T//ccdQObGS.s 			page 7


 341 0060 4B45     		cmp	r3, r9
 342              		.loc 1 144 0
 343 0062 2260     		str	r2, [r4, #0]
 344              		.loc 1 131 0
 345 0064 F1D0     		beq	.L26
 346              		.loc 1 131 0 is_stmt 0 discriminator 2
 347 0066 2368     		ldr	r3, [r4, #0]
 348 0068 4345     		cmp	r3, r8
 349 006a EED8     		bhi	.L26
 350              		.loc 1 135 0 is_stmt 1
 351 006c 2068     		ldr	r0, [r4, #0]
 352 006e 55F8041B 		ldr	r1, [r5], #4
 353 0072 FFF7FEFF 		bl	FLASH_ProgramWord
 354              	.LVL31:
 355 0076 0828     		cmp	r0, #8
 356 0078 17D1     		bne	.L28
 357              		.loc 1 138 0
 358 007a 2168     		ldr	r1, [r4, #0]
 359 007c 55F8040C 		ldr	r0, [r5, #-4]
 360 0080 0A68     		ldr	r2, [r1, #0]
 361 0082 8242     		cmp	r2, r0
 362 0084 14D1     		bne	.L29
 363              		.loc 1 144 0
 364 0086 2368     		ldr	r3, [r4, #0]
 365 0088 191D     		adds	r1, r3, #4
 366 008a 2160     		str	r1, [r4, #0]
 367              		.loc 1 131 0
 368 008c 2068     		ldr	r0, [r4, #0]
 369 008e 4045     		cmp	r0, r8
 370 0090 DBD8     		bhi	.L26
 371              	.LVL32:
 372              	.L27:
 373              		.loc 1 135 0
 374 0092 2E46     		mov	r6, r5
 375 0094 2068     		ldr	r0, [r4, #0]
 376 0096 56F8041B 		ldr	r1, [r6], #4
 377 009a FFF7FEFF 		bl	FLASH_ProgramWord
 378              	.LVL33:
 379              		.loc 1 131 0
 380 009e 7B1C     		adds	r3, r7, #1
 381              		.loc 1 135 0
 382 00a0 0828     		cmp	r0, #8
 383 00a2 3546     		mov	r5, r6
 384              		.loc 1 131 0
 385 00a4 07F10207 		add	r7, r7, #2
 386              		.loc 1 135 0
 387 00a8 D2D0     		beq	.L39
 388              	.L28:
 389              		.loc 1 149 0
 390 00aa 0120     		movs	r0, #1
 391 00ac BDE8F883 		pop	{r3, r4, r5, r6, r7, r8, r9, pc}
 392              	.L29:
 393              		.loc 1 141 0
 394 00b0 0220     		movs	r0, #2
 395              		.loc 1 154 0
 396 00b2 BDE8F883 		pop	{r3, r4, r5, r6, r7, r8, r9, pc}
 397              		.cfi_endproc
ARM GAS  /var/folders/ng/s8655sgx1ys_4lf9jzm2w6n00000gn/T//ccdQObGS.s 			page 8


 398              	.LFE115:
 399              		.size	FLASH_If_Write, .-FLASH_If_Write
 400 00b6 00BFAFF3 		.section	.text.FLASH_Addr_To_Sector,"ax",%progbits
 400      0080AFF3 
 400      0080
 401              		.align	2
 402              		.p2align 4,,15
 403              		.global	FLASH_Addr_To_Sector
 404              		.thumb
 405              		.thumb_func
 406              		.type	FLASH_Addr_To_Sector, %function
 407              	FLASH_Addr_To_Sector:
 408              	.LFB116:
 409              		.loc 1 157 0
 410              		.cfi_startproc
 411              		@ args = 0, pretend = 0, frame = 0
 412              		@ frame_needed = 0, uses_anonymous_args = 0
 413              		@ link register save eliminated.
 414              	.LVL34:
 415              		.loc 1 158 0
 416 0000 B0F1006F 		cmp	r0, #134217728
 417 0004 02D2     		bcs	.L67
 418              		.loc 1 159 0
 419 0006 4FF6FF70 		movw	r0, #65535
 420              	.LVL35:
 421 000a 7047     		bx	lr
 422              	.LVL36:
 423              	.L67:
 424              		.loc 1 160 0
 425 000c 43F6FF73 		movw	r3, #16383
 426 0010 C0F60003 		movt	r3, 2048
 427 0014 9842     		cmp	r0, r3
 428 0016 0FD9     		bls	.L43
 429              		.loc 1 162 0
 430 0018 47F6FF71 		movw	r1, #32767
 431 001c C0F60001 		movt	r1, 2048
 432 0020 8842     		cmp	r0, r1
 433 0022 01D8     		bhi	.L68
 434              		.loc 1 163 0
 435 0024 0820     		movs	r0, #8
 436              	.LVL37:
 437 0026 7047     		bx	lr
 438              	.LVL38:
 439              	.L68:
 440              		.loc 1 164 0
 441 0028 4BF6FF72 		movw	r2, #49151
 442 002c C0F60002 		movt	r2, 2048
 443 0030 9042     		cmp	r0, r2
 444 0032 03D8     		bhi	.L69
 445              		.loc 1 165 0
 446 0034 1020     		movs	r0, #16
 447              	.LVL39:
 448 0036 7047     		bx	lr
 449              	.LVL40:
 450              	.L43:
 451              		.loc 1 161 0
 452 0038 0020     		movs	r0, #0
ARM GAS  /var/folders/ng/s8655sgx1ys_4lf9jzm2w6n00000gn/T//ccdQObGS.s 			page 9


 453              	.LVL41:
 454 003a 7047     		bx	lr
 455              	.LVL42:
 456              	.L69:
 457              		.loc 1 166 0
 458 003c 4FF6FF73 		movw	r3, #65535
 459 0040 C0F60003 		movt	r3, 2048
 460 0044 9842     		cmp	r0, r3
 461 0046 01D8     		bhi	.L70
 462              		.loc 1 167 0
 463 0048 1820     		movs	r0, #24
 464              	.LVL43:
 465 004a 7047     		bx	lr
 466              	.LVL44:
 467              	.L70:
 468              		.loc 1 168 0
 469 004c 4FF6FF71 		movw	r1, #65535
 470 0050 C0F60101 		movt	r1, 2049
 471 0054 8842     		cmp	r0, r1
 472 0056 01D8     		bhi	.L71
 473              		.loc 1 169 0
 474 0058 2020     		movs	r0, #32
 475              	.LVL45:
 476 005a 7047     		bx	lr
 477              	.LVL46:
 478              	.L71:
 479              		.loc 1 170 0
 480 005c 4FF6FF72 		movw	r2, #65535
 481 0060 C0F60302 		movt	r2, 2051
 482 0064 9042     		cmp	r0, r2
 483 0066 01D8     		bhi	.L72
 484              		.loc 1 171 0
 485 0068 2820     		movs	r0, #40
 486              	.LVL47:
 487 006a 7047     		bx	lr
 488              	.LVL48:
 489              	.L72:
 490              		.loc 1 172 0
 491 006c 4FF6FF73 		movw	r3, #65535
 492 0070 C0F60503 		movt	r3, 2053
 493 0074 9842     		cmp	r0, r3
 494 0076 01D8     		bhi	.L73
 495              		.loc 1 173 0
 496 0078 3020     		movs	r0, #48
 497              	.LVL49:
 498 007a 7047     		bx	lr
 499              	.LVL50:
 500              	.L73:
 501              		.loc 1 174 0
 502 007c 4FF6FF71 		movw	r1, #65535
 503 0080 C0F60701 		movt	r1, 2055
 504 0084 8842     		cmp	r0, r1
 505 0086 01D8     		bhi	.L74
 506              		.loc 1 175 0
 507 0088 3820     		movs	r0, #56
 508              	.LVL51:
 509 008a 7047     		bx	lr
ARM GAS  /var/folders/ng/s8655sgx1ys_4lf9jzm2w6n00000gn/T//ccdQObGS.s 			page 10


 510              	.LVL52:
 511              	.L74:
 512              		.loc 1 176 0
 513 008c 4FF6FF72 		movw	r2, #65535
 514 0090 C0F60902 		movt	r2, 2057
 515 0094 9042     		cmp	r0, r2
 516 0096 01D8     		bhi	.L75
 517              		.loc 1 177 0
 518 0098 4020     		movs	r0, #64
 519              	.LVL53:
 520 009a 7047     		bx	lr
 521              	.LVL54:
 522              	.L75:
 523              		.loc 1 178 0
 524 009c 4FF6FF73 		movw	r3, #65535
 525 00a0 C0F60B03 		movt	r3, 2059
 526 00a4 9842     		cmp	r0, r3
 527 00a6 01D8     		bhi	.L76
 528              		.loc 1 179 0
 529 00a8 4820     		movs	r0, #72
 530              	.LVL55:
 531 00aa 7047     		bx	lr
 532              	.LVL56:
 533              	.L76:
 534              		.loc 1 180 0
 535 00ac 4FF6FF71 		movw	r1, #65535
 536 00b0 C0F60D01 		movt	r1, 2061
 537 00b4 8842     		cmp	r0, r1
 538 00b6 01D8     		bhi	.L77
 539              		.loc 1 181 0
 540 00b8 5020     		movs	r0, #80
 541              	.LVL57:
 542 00ba 7047     		bx	lr
 543              	.LVL58:
 544              	.L77:
 545              		.loc 1 182 0
 546 00bc B0F1016F 		cmp	r0, #135266304
 547 00c0 01D2     		bcs	.L78
 548              		.loc 1 183 0
 549 00c2 5820     		movs	r0, #88
 550              	.LVL59:
 551 00c4 7047     		bx	lr
 552              	.LVL60:
 553              	.L78:
 554              		.loc 1 184 0
 555 00c6 43F6FF72 		movw	r2, #16383
 556 00ca C0F61002 		movt	r2, 2064
 557 00ce 9042     		cmp	r0, r2
 558 00d0 01D8     		bhi	.L79
 559              		.loc 1 185 0
 560 00d2 6020     		movs	r0, #96
 561              	.LVL61:
 562 00d4 7047     		bx	lr
 563              	.LVL62:
 564              	.L79:
 565              		.loc 1 186 0
 566 00d6 47F6FF73 		movw	r3, #32767
ARM GAS  /var/folders/ng/s8655sgx1ys_4lf9jzm2w6n00000gn/T//ccdQObGS.s 			page 11


 567 00da C0F61003 		movt	r3, 2064
 568 00de 9842     		cmp	r0, r3
 569 00e0 01D8     		bhi	.L80
 570              		.loc 1 187 0
 571 00e2 6820     		movs	r0, #104
 572              	.LVL63:
 573 00e4 7047     		bx	lr
 574              	.LVL64:
 575              	.L80:
 576              		.loc 1 188 0
 577 00e6 4BF6FF71 		movw	r1, #49151
 578 00ea C0F61001 		movt	r1, 2064
 579 00ee 8842     		cmp	r0, r1
 580 00f0 01D8     		bhi	.L81
 581              		.loc 1 189 0
 582 00f2 7020     		movs	r0, #112
 583              	.LVL65:
 584 00f4 7047     		bx	lr
 585              	.LVL66:
 586              	.L81:
 587              		.loc 1 190 0
 588 00f6 4FF6FF72 		movw	r2, #65535
 589 00fa C0F61002 		movt	r2, 2064
 590 00fe 9042     		cmp	r0, r2
 591 0100 01D8     		bhi	.L82
 592              		.loc 1 191 0
 593 0102 7820     		movs	r0, #120
 594              	.LVL67:
 595 0104 7047     		bx	lr
 596              	.LVL68:
 597              	.L82:
 598              		.loc 1 192 0
 599 0106 4FF6FF73 		movw	r3, #65535
 600 010a C0F61103 		movt	r3, 2065
 601 010e 9842     		cmp	r0, r3
 602 0110 01D8     		bhi	.L83
 603              		.loc 1 193 0
 604 0112 8020     		movs	r0, #128
 605              	.LVL69:
 606 0114 7047     		bx	lr
 607              	.LVL70:
 608              	.L83:
 609              		.loc 1 194 0
 610 0116 4FF6FF71 		movw	r1, #65535
 611 011a C0F61301 		movt	r1, 2067
 612 011e 8842     		cmp	r0, r1
 613 0120 01D8     		bhi	.L84
 614              		.loc 1 195 0
 615 0122 8820     		movs	r0, #136
 616              	.LVL71:
 617 0124 7047     		bx	lr
 618              	.LVL72:
 619              	.L84:
 620              		.loc 1 196 0
 621 0126 4FF6FF72 		movw	r2, #65535
 622 012a C0F61502 		movt	r2, 2069
 623 012e 9042     		cmp	r0, r2
ARM GAS  /var/folders/ng/s8655sgx1ys_4lf9jzm2w6n00000gn/T//ccdQObGS.s 			page 12


 624 0130 01D8     		bhi	.L85
 625              		.loc 1 197 0
 626 0132 9020     		movs	r0, #144
 627              	.LVL73:
 628 0134 7047     		bx	lr
 629              	.LVL74:
 630              	.L85:
 631              		.loc 1 198 0
 632 0136 4FF6FF73 		movw	r3, #65535
 633 013a C0F61703 		movt	r3, 2071
 634 013e 9842     		cmp	r0, r3
 635 0140 01D8     		bhi	.L86
 636              		.loc 1 199 0
 637 0142 9820     		movs	r0, #152
 638              	.LVL75:
 639 0144 7047     		bx	lr
 640              	.LVL76:
 641              	.L86:
 642              		.loc 1 200 0
 643 0146 4FF6FF71 		movw	r1, #65535
 644 014a C0F61901 		movt	r1, 2073
 645 014e 8842     		cmp	r0, r1
 646 0150 01D8     		bhi	.L87
 647              		.loc 1 201 0
 648 0152 A020     		movs	r0, #160
 649              	.LVL77:
 650 0154 7047     		bx	lr
 651              	.LVL78:
 652              	.L87:
 653              		.loc 1 202 0
 654 0156 4FF6FF72 		movw	r2, #65535
 655 015a C0F61B02 		movt	r2, 2075
 656 015e 9042     		cmp	r0, r2
 657 0160 01D8     		bhi	.L88
 658              		.loc 1 203 0
 659 0162 A820     		movs	r0, #168
 660              	.LVL79:
 661 0164 7047     		bx	lr
 662              	.LVL80:
 663              	.L88:
 664              		.loc 1 204 0
 665 0166 4FF6FF73 		movw	r3, #65535
 666 016a C0F61D03 		movt	r3, 2077
 667 016e 9842     		cmp	r0, r3
 668 0170 01D8     		bhi	.L89
 669              		.loc 1 205 0
 670 0172 B020     		movs	r0, #176
 671              	.LVL81:
 672              		.loc 1 210 0
 673 0174 7047     		bx	lr
 674              	.LVL82:
 675              	.L89:
 676              		.loc 1 207 0
 677 0176 4FF6FF71 		movw	r1, #65535
 678 017a B0F1026F 		cmp	r0, #136314880
 679 017e 2CBF     		ite	cs
 680 0180 0846     		movcs	r0, r1
ARM GAS  /var/folders/ng/s8655sgx1ys_4lf9jzm2w6n00000gn/T//ccdQObGS.s 			page 13


 681 0182 B820     		movcc	r0, #184
 682              	.LVL83:
 683 0184 7047     		bx	lr
 684              		.cfi_endproc
 685              	.LFE116:
 686              		.size	FLASH_Addr_To_Sector, .-FLASH_Addr_To_Sector
 687 0186 00BFAFF3 		.section	.data._nextEraseSector,"aw",%progbits
 687      0080AFF3 
 687      0080
 688              		.align	2
 689              		.set	.LANCHOR0,. + 0
 690              		.type	_nextEraseSector, %object
 691              		.size	_nextEraseSector, 4
 692              	_nextEraseSector:
 693 0000 FFFFFFFF 		.word	-1
 694              		.section	.bss._currentEraseSector,"aw",%nobits
 695              		.align	2
 696              		.set	.LANCHOR1,. + 0
 697              		.type	_currentEraseSector, %object
 698              		.size	_currentEraseSector, 4
 699              	_currentEraseSector:
 700 0000 00000000 		.space	4
 701              		.text
 702              	.Letext0:
 703              		.file 2 "/Users/jseng/gccarm/bin/../lib/gcc/arm-none-eabi/4.7.4/../../../../arm-none-eabi/include/
 704              		.file 3 "../AithonLibrary/stm_flash.h"
 705              		.file 4 "../AithonLibrary/flash_if.h"
 706              		.file 5 "../AithonLibrary/ChibiOS/os/ports/common/ARMCMx/CMSIS/include/core_cm4.h"