ARM GAS  /var/folders/ng/s8655sgx1ys_4lf9jzm2w6n00000gn/T//ccwziM2t.s 			page 1


   1              		.syntax unified
   2              		.cpu cortex-m4
   3              		.eabi_attribute 27, 3
   4              		.fpu fpv4-sp-d16
   5              		.eabi_attribute 20, 1
   6              		.eabi_attribute 21, 1
   7              		.eabi_attribute 23, 3
   8              		.eabi_attribute 24, 1
   9              		.eabi_attribute 25, 1
  10              		.eabi_attribute 26, 1
  11              		.eabi_attribute 30, 2
  12              		.eabi_attribute 34, 1
  13              		.eabi_attribute 18, 4
  14              		.thumb
  15              		.file	"hal.c"
  16              		.text
  17              	.Ltext0:
  18              		.cfi_sections	.debug_frame
  19              		.section	.text.halInit,"ax",%progbits
  20              		.align	2
  21              		.p2align 4,,15
  22              		.global	halInit
  23              		.thumb
  24              		.thumb_func
  25              		.type	halInit, %function
  26              	halInit:
  27              	.LFB118:
  28              		.file 1 "../AithonLibrary/ChibiOS/os/hal/src/hal.c"
  29              		.loc 1 68 0
  30              		.cfi_startproc
  31              		@ args = 0, pretend = 0, frame = 0
  32              		@ frame_needed = 0, uses_anonymous_args = 0
  33 0000 08B5     		push	{r3, lr}
  34              	.LCFI0:
  35              		.cfi_def_cfa_offset 8
  36              		.cfi_offset 3, -8
  37              		.cfi_offset 14, -4
  38              		.loc 1 70 0
  39 0002 FFF7FEFF 		bl	hal_lld_init
  40              	.LVL0:
  41              		.loc 1 73 0
  42 0006 FFF7FEFF 		bl	tmInit
  43              	.LVL1:
  44              		.loc 1 76 0
  45 000a 40F20000 		movw	r0, #:lower16:pal_default_config
  46 000e C0F20000 		movt	r0, #:upper16:pal_default_config
  47 0012 FFF7FEFF 		bl	_pal_lld_init
  48              	.LVL2:
  49              		.loc 1 79 0
  50 0016 FFF7FEFF 		bl	adcInit
  51              	.LVL3:
  52              		.loc 1 94 0
  53 001a FFF7FEFF 		bl	i2cInit
  54              	.LVL4:
  55              		.loc 1 103 0
  56 001e FFF7FEFF 		bl	pwmInit
  57              	.LVL5:
ARM GAS  /var/folders/ng/s8655sgx1ys_4lf9jzm2w6n00000gn/T//ccwziM2t.s 			page 2


  58              		.loc 1 106 0
  59 0022 FFF7FEFF 		bl	sdInit
  60              	.LVL6:
  61              		.loc 1 112 0
  62 0026 FFF7FEFF 		bl	spiInit
  63              	.LVL7:
  64              		.loc 1 118 0
  65 002a FFF7FEFF 		bl	usbInit
  66              	.LVL8:
  67              		.loc 1 121 0
  68 002e FFF7FEFF 		bl	mmcInit
  69              	.LVL9:
  70              		.loc 1 124 0
  71 0032 FFF7FEFF 		bl	sduInit
  72              	.LVL10:
  73              		.loc 1 131 0
  74 0036 BDE80840 		pop	{r3, lr}
  75              		.loc 1 130 0
  76 003a FFF7FEBF 		b	boardInit
  77              	.LVL11:
  78              		.cfi_endproc
  79              	.LFE118:
  80              		.size	halInit, .-halInit
  81 003e 00BF     		.section	.text.halIsCounterWithin,"ax",%progbits
  82              		.align	2
  83              		.p2align 4,,15
  84              		.global	halIsCounterWithin
  85              		.thumb
  86              		.thumb_func
  87              		.type	halIsCounterWithin, %function
  88              	halIsCounterWithin:
  89              	.LFB119:
  90              		.loc 1 177 0
  91              		.cfi_startproc
  92              		@ args = 0, pretend = 0, frame = 0
  93              		@ frame_needed = 0, uses_anonymous_args = 0
  94              		@ link register save eliminated.
  95              	.LVL12:
  96              		.loc 1 178 0
  97 0000 4FF48053 		mov	r3, #4096
  98 0004 CEF20003 		movt	r3, 57344
  99              		.loc 1 180 0
 100 0008 8142     		cmp	r1, r0
 101              		.loc 1 178 0
 102 000a 5A68     		ldr	r2, [r3, #4]
 103              	.LVL13:
 104              		.loc 1 180 0
 105 000c 06D9     		bls	.L3
 106              		.loc 1 180 0 is_stmt 0 discriminator 1
 107 000e 8242     		cmp	r2, r0
 108 0010 08D3     		bcc	.L7
 109              	.L9:
 110              		.loc 1 181 0 is_stmt 1 discriminator 2
 111 0012 8A42     		cmp	r2, r1
 112 0014 2CBF     		ite	cs
 113 0016 0020     		movcs	r0, #0
 114              	.LVL14:
ARM GAS  /var/folders/ng/s8655sgx1ys_4lf9jzm2w6n00000gn/T//ccwziM2t.s 			page 3


 115 0018 0120     		movcc	r0, #1
 116 001a 7047     		bx	lr
 117              	.LVL15:
 118              	.L3:
 119              		.loc 1 181 0 is_stmt 0
 120 001c 8242     		cmp	r2, r0
 121 001e F8D3     		bcc	.L9
 122 0020 0120     		movs	r0, #1
 123              	.LVL16:
 124              		.loc 1 182 0 is_stmt 1
 125 0022 7047     		bx	lr
 126              	.LVL17:
 127              	.L7:
 128              		.loc 1 180 0
 129 0024 0020     		movs	r0, #0
 130              	.LVL18:
 131 0026 7047     		bx	lr
 132              		.cfi_endproc
 133              	.LFE119:
 134              		.size	halIsCounterWithin, .-halIsCounterWithin
 135 0028 AFF30080 		.section	.text.halPolledDelay,"ax",%progbits
 135      AFF30080 
 136              		.align	2
 137              		.p2align 4,,15
 138              		.global	halPolledDelay
 139              		.thumb
 140              		.thumb_func
 141              		.type	halPolledDelay, %function
 142              	halPolledDelay:
 143              	.LFB120:
 144              		.loc 1 196 0
 145              		.cfi_startproc
 146              		@ args = 0, pretend = 0, frame = 0
 147              		@ frame_needed = 0, uses_anonymous_args = 0
 148              		@ link register save eliminated.
 149              	.LVL19:
 150              		.loc 1 197 0
 151 0000 4FF48053 		mov	r3, #4096
 152 0004 CEF20003 		movt	r3, 57344
 153              	.LBB4:
 154              	.LBB5:
 155              		.loc 1 178 0
 156 0008 1946     		mov	r1, r3
 157              	.LBE5:
 158              	.LBE4:
 159              		.loc 1 197 0
 160 000a 5A68     		ldr	r2, [r3, #4]
 161              	.LVL20:
 162              		.loc 1 198 0
 163 000c 8018     		adds	r0, r0, r2
 164              	.LVL21:
 165              	.L21:
 166              	.LBB7:
 167              	.LBB6:
 168              		.loc 1 180 0 discriminator 1
 169 000e 8242     		cmp	r2, r0
 170              		.loc 1 178 0 discriminator 1
ARM GAS  /var/folders/ng/s8655sgx1ys_4lf9jzm2w6n00000gn/T//ccwziM2t.s 			page 4


 171 0010 4B68     		ldr	r3, [r1, #4]
 172              	.LVL22:
 173              		.loc 1 180 0 discriminator 1
 174 0012 02D2     		bcs	.L12
 175              		.loc 1 180 0 is_stmt 0
 176 0014 9A42     		cmp	r2, r3
 177 0016 02D9     		bls	.L22
 178 0018 7047     		bx	lr
 179              	.L12:
 180              		.loc 1 181 0 is_stmt 1
 181 001a 9A42     		cmp	r2, r3
 182 001c F7D9     		bls	.L21
 183              	.L22:
 184 001e 9842     		cmp	r0, r3
 185 0020 94BF     		ite	ls
 186 0022 0023     		movls	r3, #0
 187              	.LVL23:
 188 0024 0123     		movhi	r3, #1
 189              	.LBE6:
 190              	.LBE7:
 191              		.loc 1 199 0
 192 0026 002B     		cmp	r3, #0
 193 0028 F1D1     		bne	.L21
 194 002a 7047     		bx	lr
 195              		.cfi_endproc
 196              	.LFE120:
 197              		.size	halPolledDelay, .-halPolledDelay
 198 002c AFF30080 		.text
 199              	.Letext0:
 200              		.file 2 "/Users/jseng/gccarm/bin/../lib/gcc/arm-none-eabi/4.7.4/../../../../arm-none-eabi/include/
 201              		.file 3 "../AithonLibrary/ChibiOS/os/ports/GCC/ARMCMx/chtypes.h"
 202              		.file 4 "../AithonLibrary/ChibiOS/os/ports/common/ARMCMx/nvic.h"
 203              		.file 5 "../AithonLibrary/ChibiOS/os/hal/platforms/STM32F4xx/hal_lld.h"
 204              		.file 6 "../AithonLibrary/ChibiOS/os/hal/platforms/STM32/GPIOv2/pal_lld.h"
 205              		.file 7 "../AithonLibrary/ChibiOS/os/ports/common/ARMCMx/CMSIS/include/core_cm4.h"
 206              		.file 8 "../AithonLibrary/ChibiOS/os/hal/include/tm.h"
 207              		.file 9 "../AithonLibrary/ChibiOS/os/hal/include/adc.h"
 208              		.file 10 "../AithonLibrary/ChibiOS/os/hal/include/i2c.h"
 209              		.file 11 "../AithonLibrary/ChibiOS/os/hal/include/pwm.h"
 210              		.file 12 "../AithonLibrary/ChibiOS/os/hal/include/serial.h"
 211              		.file 13 "../AithonLibrary/ChibiOS/os/hal/include/spi.h"
 212              		.file 14 "../AithonLibrary/ChibiOS/os/hal/include/usb.h"
 213              		.file 15 "../AithonLibrary/ChibiOS/os/hal/include/mmc_spi.h"
 214              		.file 16 "../AithonLibrary/ChibiOS/os/hal/include/serial_usb.h"
 215              		.file 17 "../AithonLibrary/Board_v01/board.h"