ARM GAS  /var/folders/ng/s8655sgx1ys_4lf9jzm2w6n00000gn/T//cc85cRS6.s 			page 1


   1              		.syntax unified
   2              		.cpu cortex-m4
   3              		.eabi_attribute 27, 3
   4              		.fpu fpv4-sp-d16
   5              		.eabi_attribute 20, 1
   6              		.eabi_attribute 21, 1
   7              		.eabi_attribute 23, 3
   8              		.eabi_attribute 24, 1
   9              		.eabi_attribute 25, 1
  10              		.eabi_attribute 26, 1
  11              		.eabi_attribute 30, 2
  12              		.eabi_attribute 34, 1
  13              		.eabi_attribute 18, 4
  14              		.thumb
  15              		.file	"imu.c"
  16              		.text
  17              	.Ltext0:
  18              		.cfi_sections	.debug_frame
  19              		.section	.text._imu_write,"ax",%progbits
  20              		.align	2
  21              		.p2align 4,,15
  22              		.global	_imu_write
  23              		.thumb
  24              		.thumb_func
  25              		.type	_imu_write, %function
  26              	_imu_write:
  27              	.LFB119:
  28              		.file 1 "../AithonLibrary/imu.c"
  29              		.loc 1 23 0
  30              		.cfi_startproc
  31              		@ args = 0, pretend = 0, frame = 8
  32              		@ frame_needed = 0, uses_anonymous_args = 0
  33              	.LVL0:
  34 0000 10B5     		push	{r4, lr}
  35              	.LCFI0:
  36              		.cfi_def_cfa_offset 8
  37              		.cfi_offset 4, -8
  38              		.cfi_offset 14, -4
  39 0002 86B0     		sub	sp, sp, #24
  40              	.LCFI1:
  41              		.cfi_def_cfa_offset 32
  42              		.loc 1 23 0
  43 0004 0446     		mov	r4, r0
  44              		.loc 1 25 0
  45 0006 4FF0FF30 		mov	r0, #-1
  46              	.LVL1:
  47 000a 0023     		movs	r3, #0
  48 000c 0290     		str	r0, [sp, #8]
  49 000e 40F20000 		movw	r0, #:lower16:I2CD1
  50              		.loc 1 24 0
  51 0012 8DF81410 		strb	r1, [sp, #20]
  52 0016 8DF81520 		strb	r2, [sp, #21]
  53              		.loc 1 25 0
  54 001a 0093     		str	r3, [sp, #0]
  55 001c 0193     		str	r3, [sp, #4]
  56 001e 2146     		mov	r1, r4
  57              	.LVL2:
ARM GAS  /var/folders/ng/s8655sgx1ys_4lf9jzm2w6n00000gn/T//cc85cRS6.s 			page 2


  58 0020 05AA     		add	r2, sp, #20
  59              	.LVL3:
  60 0022 0223     		movs	r3, #2
  61 0024 C0F20000 		movt	r0, #:upper16:I2CD1
  62 0028 FFF7FEFF 		bl	i2cMasterTransmitTimeout
  63              	.LVL4:
  64              		.loc 1 26 0
  65 002c 06B0     		add	sp, sp, #24
  66 002e 10BD     		pop	{r4, pc}
  67              		.cfi_endproc
  68              	.LFE119:
  69              		.size	_imu_write, .-_imu_write
  70              		.section	.text._imu_read,"ax",%progbits
  71              		.align	2
  72              		.p2align 4,,15
  73              		.global	_imu_read
  74              		.thumb
  75              		.thumb_func
  76              		.type	_imu_read, %function
  77              	_imu_read:
  78              	.LFB120:
  79              		.loc 1 29 0
  80              		.cfi_startproc
  81              		@ args = 0, pretend = 0, frame = 16
  82              		@ frame_needed = 0, uses_anonymous_args = 0
  83              	.LVL5:
  84 0000 10B5     		push	{r4, lr}
  85              	.LCFI2:
  86              		.cfi_def_cfa_offset 8
  87              		.cfi_offset 4, -8
  88              		.cfi_offset 14, -4
  89 0002 88B0     		sub	sp, sp, #32
  90              	.LCFI3:
  91              		.cfi_def_cfa_offset 40
  92              		.loc 1 31 0
  93 0004 0123     		movs	r3, #1
  94              		.loc 1 29 0
  95 0006 8DF81710 		strb	r1, [sp, #23]
  96              		.loc 1 31 0
  97 000a 0DF11F01 		add	r1, sp, #31
  98              	.LVL6:
  99              		.loc 1 29 0
 100 000e 0246     		mov	r2, r0
 101              		.loc 1 31 0
 102 0010 8DE80A00 		stmia	sp, {r1, r3}
 103 0014 40F20000 		movw	r0, #:lower16:I2CD1
 104              	.LVL7:
 105 0018 4FF0FF31 		mov	r1, #-1
 106 001c 0291     		str	r1, [sp, #8]
 107              		.loc 1 30 0
 108 001e 0024     		movs	r4, #0
 109              		.loc 1 31 0
 110 0020 1146     		mov	r1, r2
 111 0022 C0F20000 		movt	r0, #:upper16:I2CD1
 112 0026 0DF11702 		add	r2, sp, #23
 113              		.loc 1 30 0
 114 002a 8DF81F40 		strb	r4, [sp, #31]
ARM GAS  /var/folders/ng/s8655sgx1ys_4lf9jzm2w6n00000gn/T//cc85cRS6.s 			page 3


 115              	.LVL8:
 116              		.loc 1 31 0
 117 002e FFF7FEFF 		bl	i2cMasterTransmitTimeout
 118              	.LVL9:
 119              		.loc 1 33 0
 120 0032 9DF81F00 		ldrb	r0, [sp, #31]	@ zero_extendqisi2
 121 0036 08B0     		add	sp, sp, #32
 122 0038 10BD     		pop	{r4, pc}
 123              		.cfi_endproc
 124              	.LFE120:
 125              		.size	_imu_read, .-_imu_read
 126 003a 00BFAFF3 		.section	.text._imu_init,"ax",%progbits
 126      0080
 127              		.align	2
 128              		.p2align 4,,15
 129              		.global	_imu_init
 130              		.thumb
 131              		.thumb_func
 132              		.type	_imu_init, %function
 133              	_imu_init:
 134              	.LFB121:
 135              		.loc 1 43 0
 136              		.cfi_startproc
 137              		@ args = 0, pretend = 0, frame = 0
 138              		@ frame_needed = 0, uses_anonymous_args = 0
 139 0000 08B5     		push	{r3, lr}
 140              	.LCFI4:
 141              		.cfi_def_cfa_offset 8
 142              		.cfi_offset 3, -8
 143              		.cfi_offset 14, -4
 144              		.loc 1 44 0
 145 0002 FFF7FEFF 		bl	i2cInit
 146              	.LVL10:
 147              		.loc 1 45 0
 148 0006 40F20000 		movw	r0, #:lower16:I2CD1
 149 000a 40F20001 		movw	r1, #:lower16:.LANCHOR0
 150 000e C0F20000 		movt	r0, #:upper16:I2CD1
 151 0012 C0F20001 		movt	r1, #:upper16:.LANCHOR0
 152 0016 FFF7FEFF 		bl	i2cStart
 153              	.LVL11:
 154              		.loc 1 46 0
 155 001a 0020     		movs	r0, #0
 156 001c 2021     		movs	r1, #32
 157 001e 7722     		movs	r2, #119
 158 0020 FFF7FEFF 		bl	_imu_write
 159              	.LVL12:
 160              		.loc 1 47 0
 161 0024 0020     		movs	r0, #0
 162 0026 2321     		movs	r1, #35
 163 0028 0822     		movs	r2, #8
 164 002a FFF7FEFF 		bl	_imu_write
 165              	.LVL13:
 166              		.loc 1 48 0
 167 002e 0120     		movs	r0, #1
 168 0030 2021     		movs	r1, #32
 169 0032 8F22     		movs	r2, #143
 170              		.loc 1 49 0
ARM GAS  /var/folders/ng/s8655sgx1ys_4lf9jzm2w6n00000gn/T//cc85cRS6.s 			page 4


 171 0034 BDE80840 		pop	{r3, lr}
 172              		.loc 1 48 0
 173 0038 FFF7FEBF 		b	_imu_write
 174              	.LVL14:
 175              		.cfi_endproc
 176              	.LFE121:
 177              		.size	_imu_init, .-_imu_init
 178 003c AFF30080 		.section	.text.imu_getReading,"ax",%progbits
 179              		.align	2
 180              		.p2align 4,,15
 181              		.global	imu_getReading
 182              		.thumb
 183              		.thumb_func
 184              		.type	imu_getReading, %function
 185              	imu_getReading:
 186              	.LFB122:
 187              		.loc 1 52 0
 188              		.cfi_startproc
 189              		@ args = 0, pretend = 0, frame = 0
 190              		@ frame_needed = 0, uses_anonymous_args = 0
 191              	.LVL15:
 192 0000 2DE9F041 		push	{r4, r5, r6, r7, r8, lr}
 193              	.LCFI5:
 194              		.cfi_def_cfa_offset 24
 195              		.cfi_offset 4, -24
 196              		.cfi_offset 5, -20
 197              		.cfi_offset 6, -16
 198              		.cfi_offset 7, -12
 199              		.cfi_offset 8, -8
 200              		.cfi_offset 14, -4
 201              		.loc 1 52 0
 202 0004 0446     		mov	r4, r0
 203              		.loc 1 55 0
 204 0006 0029     		cmp	r1, #0
 205 0008 32D0     		beq	.L7
 206              		.loc 1 57 0
 207 000a 0129     		cmp	r1, #1
 208 000c 06D0     		beq	.L8
 209              		.loc 1 60 0
 210 000e 0023     		movs	r3, #0
 211 0010 0380     		strh	r3, [r0, #0]	@ movhi
 212 0012 4380     		strh	r3, [r0, #2]	@ movhi
 213 0014 8380     		strh	r3, [r0, #4]	@ movhi
 214              		.loc 1 66 0
 215 0016 2046     		mov	r0, r4
 216 0018 BDE8F081 		pop	{r4, r5, r6, r7, r8, pc}
 217              	.L8:
 218              		.loc 1 58 0
 219 001c 6A25     		movs	r5, #106
 220              	.L5:
 221              	.LVL16:
 222              		.loc 1 62 0
 223 001e 2921     		movs	r1, #41
 224              	.LVL17:
 225 0020 2846     		mov	r0, r5
 226 0022 FFF7FEFF 		bl	_imu_read
 227              	.LVL18:
ARM GAS  /var/folders/ng/s8655sgx1ys_4lf9jzm2w6n00000gn/T//cc85cRS6.s 			page 5


 228 0026 2821     		movs	r1, #40
 229 0028 0746     		mov	r7, r0
 230 002a 2846     		mov	r0, r5
 231 002c FFF7FEFF 		bl	_imu_read
 232              	.LVL19:
 233              		.loc 1 63 0
 234 0030 2B21     		movs	r1, #43
 235              		.loc 1 62 0
 236 0032 40EA0722 		orr	r2, r0, r7, lsl #8
 237              		.loc 1 63 0
 238 0036 2846     		mov	r0, r5
 239              		.loc 1 62 0
 240 0038 97B2     		uxth	r7, r2
 241              	.LVL20:
 242              		.loc 1 63 0
 243 003a FFF7FEFF 		bl	_imu_read
 244              	.LVL21:
 245 003e 2A21     		movs	r1, #42
 246 0040 0646     		mov	r6, r0
 247 0042 2846     		mov	r0, r5
 248 0044 FFF7FEFF 		bl	_imu_read
 249              	.LVL22:
 250              		.loc 1 64 0
 251 0048 2D21     		movs	r1, #45
 252              		.loc 1 63 0
 253 004a 40EA0623 		orr	r3, r0, r6, lsl #8
 254              		.loc 1 64 0
 255 004e 2846     		mov	r0, r5
 256              		.loc 1 63 0
 257 0050 9EB2     		uxth	r6, r3
 258              	.LVL23:
 259              		.loc 1 64 0
 260 0052 FFF7FEFF 		bl	_imu_read
 261              	.LVL24:
 262 0056 2C21     		movs	r1, #44
 263 0058 8046     		mov	r8, r0
 264 005a 2846     		mov	r0, r5
 265 005c FFF7FEFF 		bl	_imu_read
 266              	.LVL25:
 267 0060 40EA0820 		orr	r0, r0, r8, lsl #8
 268              	.LVL26:
 269              		.loc 1 65 0
 270 0064 A080     		strh	r0, [r4, #4]	@ movhi
 271 0066 2780     		strh	r7, [r4, #0]	@ movhi
 272 0068 6680     		strh	r6, [r4, #2]	@ movhi
 273              		.loc 1 66 0
 274 006a 2046     		mov	r0, r4
 275 006c BDE8F081 		pop	{r4, r5, r6, r7, r8, pc}
 276              	.LVL27:
 277              	.L7:
 278              		.loc 1 56 0
 279 0070 1925     		movs	r5, #25
 280 0072 D4E7     		b	.L5
 281              		.cfi_endproc
 282              	.LFE122:
 283              		.size	imu_getReading, .-imu_getReading
 284 0074 AFF30080 		.section	.text.imu_getTemp,"ax",%progbits
ARM GAS  /var/folders/ng/s8655sgx1ys_4lf9jzm2w6n00000gn/T//cc85cRS6.s 			page 6


 284      AFF30080 
 284      AFF30080 
 285              		.align	2
 286              		.p2align 4,,15
 287              		.global	imu_getTemp
 288              		.thumb
 289              		.thumb_func
 290              		.type	imu_getTemp, %function
 291              	imu_getTemp:
 292              	.LFB123:
 293              		.loc 1 69 0
 294              		.cfi_startproc
 295              		@ args = 0, pretend = 0, frame = 0
 296              		@ frame_needed = 0, uses_anonymous_args = 0
 297 0000 08B5     		push	{r3, lr}
 298              	.LCFI6:
 299              		.cfi_def_cfa_offset 8
 300              		.cfi_offset 3, -8
 301              		.cfi_offset 14, -4
 302              		.loc 1 70 0
 303 0002 6A20     		movs	r0, #106
 304 0004 2621     		movs	r1, #38
 305 0006 FFF7FEFF 		bl	_imu_read
 306              	.LVL28:
 307              		.loc 1 71 0
 308 000a 40B2     		sxtb	r0, r0
 309 000c 08BD     		pop	{r3, pc}
 310              		.cfi_endproc
 311              	.LFE123:
 312              		.size	imu_getTemp, .-imu_getTemp
 313 000e 00BF     		.section	.rodata.imu_config,"a",%progbits
 314              		.align	2
 315              		.set	.LANCHOR0,. + 0
 316              		.type	imu_config, %object
 317              		.size	imu_config, 12
 318              	imu_config:
 319 0000 01       		.byte	1
 320 0001 000000   		.space	3
 321 0004 A0860100 		.word	100000
 322 0008 01       		.byte	1
 323 0009 000000   		.space	3
 324              		.text
 325              	.Letext0:
 326              		.file 2 "/Users/jseng/gccarm/bin/../lib/gcc/arm-none-eabi/4.7.4/include/stddef.h"
 327              		.file 3 "/Users/jseng/gccarm/bin/../lib/gcc/arm-none-eabi/4.7.4/../../../../arm-none-eabi/include/
 328              		.file 4 "../AithonLibrary/ChibiOS/os/ports/GCC/ARMCMx/chtypes.h"
 329              		.file 5 "../AithonLibrary/ChibiOS/os/kernel/include/chlists.h"
 330              		.file 6 "../AithonLibrary/ChibiOS/os/kernel/include/chthreads.h"
 331              		.file 7 "../AithonLibrary/ChibiOS/os/ports/GCC/ARMCMx/chcore_v7m.h"
 332              		.file 8 "../AithonLibrary/ChibiOS/os/kernel/include/chmtx.h"
 333              		.file 9 "../AithonLibrary/ChibiOS/os/hal/platforms/STM32F4xx/stm32f4xx.h"
 334              		.file 10 "../AithonLibrary/ChibiOS/os/hal/platforms/STM32F4xx/stm32_dma.h"
 335              		.file 11 "../AithonLibrary/ChibiOS/os/hal/include/i2c.h"
 336              		.file 12 "../AithonLibrary/ChibiOS/os/hal/platforms/STM32/I2Cv1/i2c_lld.h"
 337              		.file 13 "../AithonLibrary/Aithon.h"
 338              		.file 14 "../AithonLibrary/ChibiOS/os/ports/common/ARMCMx/CMSIS/include/core_cm4.h"