ARM GAS  /var/folders/ng/s8655sgx1ys_4lf9jzm2w6n00000gn/T//cc85cRS6.s 			page 1


   1              		.syntax unified
   2              		.cpu cortex-m4
   3              		.eabi_attribute 27, 3
   4              		.fpu fpv4-sp-d16
   5              		.eabi_attribute 20, 1
   6              		.eabi_attribute 21, 1
   7              		.eabi_attribute 23, 3
   8              		.eabi_attribute 24, 1
   9              		.eabi_attribute 25, 1
  10              		.eabi_attribute 26, 1
  11              		.eabi_attribute 30, 2
  12              		.eabi_attribute 34, 1
  13              		.eabi_attribute 18, 4
  14              		.thumb
  15              		.file	"imu.c"
  16              		.text
  17              	.Ltext0:
  18              		.cfi_sections	.debug_frame
  19              		.section	.text._imu_write,"ax",%progbits
  20              		.align	2
  21              		.p2align 4,,15
  22              		.global	_imu_write
  23              		.thumb
  24              		.thumb_func
  25              		.type	_imu_write, %function
  26              	_imu_write:
  27              	.LFB119:
  28              		.file 1 "../AithonLibrary/imu.c"
  29              		.loc 1 23 0
  30              		.cfi_startproc
  31              		@ args = 0, pretend = 0, frame = 8
  32              		@ frame_needed = 0, uses_anonymous_args = 0
  33              	.LVL0:
  34 0000 10B5     		push	{r4, lr}
  35              	.LCFI0:
  36              		.cfi_def_cfa_offset 8
  37              		.cfi_offset 4, -8
  38              		.cfi_offset 14, -4
  39 0002 86B0     		sub	sp, sp, #24
  40              	.LCFI1:
  41              		.cfi_def_cfa_offset 32
  42              		.loc 1 23 0
  43 0004 0446     		mov	r4, r0
  44              		.loc 1 25 0
  45 0006 4FF0FF30 		mov	r0, #-1
  46              	.LVL1:
  47 000a 0023     		movs	r3, #0
  48 000c 0290     		str	r0, [sp, #8]
  49 000e 40F20000 		movw	r0, #:lower16:I2CD1
  50              		.loc 1 24 0
  51 0012 8DF81410 		strb	r1, [sp, #20]
  52 0016 8DF81520 		strb	r2, [sp, #21]
  53              		.loc 1 25 0
  54 001a 0093     		str	r3, [sp, #0]
  55 001c 0193     		str	r3, [sp, #4]
  56 001e 2146     		mov	r1, r4
  57              	.LVL2:
ARM GAS  /var/folders/ng/s8655sgx1ys_4lf9jzm2w6n00000gn/T//cc85cRS6.s 			page 2


  58 0020 05AA     		add	r2, sp, #20
  59              	.LVL3:
  60 0022 0223     		movs	r3, #2
  61 0024 C0F20000 		movt	r0, #:upper16:I2CD1
  62 0028 FFF7FEFF 		bl	i2cMasterTransmitTimeout
  63              	.LVL4:
  64              		.loc 1 26 0
  65 002c 06B0     		add	sp, sp, #24
  66 002e 10BD     		pop	{r4, pc}
  67              		.cfi_endproc
  68              	.LFE119:
  69              		.size	_imu_write, .-_imu_write
  70              		.section	.text._imu_read,"ax",%progbits
  71              		.align	2
  72              		.p2align 4,,15
  73              		.global	_imu_read
  74              		.thumb
  75              		.thumb_func
  76              		.type	_imu_read, %function
  77              	_imu_read:
  78              	.LFB120:
  79              		.loc 1 29 0
  80              		.cfi_startproc
  81              		@ args = 0, pretend = 0, frame = 16
  82              		@ frame_needed = 0, uses_anonymous_args = 0
  83              	.LVL5:
  84 0000 10B5     		push	{r4, lr}
  85              	.LCFI2:
  86              		.cfi_def_cfa_offset 8
  87              		.cfi_offset 4, -8
  88              		.cfi_offset 14, -4
  89 0002 88B0     		sub	sp, sp, #32
  90              	.LCFI3:
  91              		.cfi_def_cfa_offset 40
  92              		.loc 1 31 0
  93 0004 0123     		movs	r3, #1
  94              		.loc 1 29 0
  95 0006 8DF81710 		strb	r1, [sp, #23]
  96              		.loc 1 31 0
  97 000a 0DF11F01 		add	r1, sp, #31
  98              	.LVL6:
  99              		.loc 1 29 0
 100 000e 0246     		mov	r2, r0
 101              		.loc 1 31 0
 102 0010 8DE80A00 		stmia	sp, {r1, r3}
 103 0014 40F20000 		movw	r0, #:lower16:I2CD1
 104              	.LVL7:
 105 0018 4FF0FF31 		mov	r1, #-1
 106 001c 0291     		str	r1, [sp, #8]
 107              		.loc 1 30 0
 108 001e 0024     		movs	r4, #0
 109              		.loc 1 31 0
 110 0020 1146     		mov	r1, r2
 111 0022 C0F20000 		movt	r0, #:upper16:I2CD1
 112 0026 0DF11702 		add	r2, sp, #23
 113              		.loc 1 30 0
 114 002a 8DF81F40 		strb	r4, [sp, #31]
ARM GAS  /var/folders/ng/s8655sgx1ys_4lf9jzm2w6n00000gn/T//cc85cRS6.s 			page 3


 115              	.LVL8:
 116              		.loc 1 31 0
 117 002e FFF7FEFF 		bl	i2cMasterTransmitTimeout
 118              	.LVL9:
 119              		.loc 1 33 0
 120 0032 9DF81F00 		ldrb	r0, [sp, #31]	@ zero_extendqisi2
 121 0036 08B0     		add	sp, sp, #32
 122 0038 10BD     		pop	{r4, pc}
 123              		.cfi_endproc
 124              	.LFE120:
 125              		.size	_imu_read, .-_imu_read
 126 003a 00BFAFF3 		.section	.text._imu_init,"ax",%progbits
 126      0080
 127              		.align	2
 128              		.p2align 4,,15
 129              		.global	_imu_init
 130              		.thumb
 131              		.thumb_func
 132              		.type	_imu_init, %function
 133              	_imu_init:
 134              	.LFB121:
 135              		.loc 1 43 0
 136              		.cfi_startproc
 137              		@ args = 0, pretend = 0, frame = 0
 138              		@ frame_needed = 0, uses_anonymous_args = 0
 139 0000 08B5     		push	{r3, lr}
 140              	.LCFI4:
 141              		.cfi_def_cfa_offset 8
 142              		.cfi_offset 3, -8
 143              		.cfi_offset 14, -4
 144              		.loc 1 44 0
 145 0002 FFF7FEFF 		bl	i2cInit
 146              	.LVL10:
 147              		.loc 1 45 0
 148 0006 40F20000 		movw	r0, #:lower16:I2CD1
 149 000a 40F20001 		movw	r1, #:lower16:.LANCHOR0
 150 000e C0F20000 		movt	r0, #:upper16:I2CD1
 151 0012 C0F20001 		movt	r1, #:upper16:.LANCHOR0
 152 0016 FFF7FEFF 		bl	i2cStart
 153              	.LVL11:
 154              		.loc 1 46 0
 155 001a 0020     		movs	r0, #0
 156 001c 2021     		movs	r1, #32
 157 001e 7722     		movs	r2, #119
 158 0020 FFF7FEFF 		bl	_imu_write
 159              	.LVL12:
 160              		.loc 1 47 0
 161 0024 0020     		movs	r0, #0
 162 0026 2321     		movs	r1, #35
 163 0028 0822     		movs	r2, #8
 164 002a FFF7FEFF 		bl	_imu_write
 165              	.LVL13:
 166              		.loc 1 48 0
 167 002e 0120     		movs	r0, #1
 168 0030 2021     		movs	r1, #32
 169 0032 8F22     		movs	r2, #143
 170              		.loc 1 49 0
ARM GAS  /var/folders/ng/s8655sgx1ys_4lf9jzm2w6n00000gn/T//cc85cRS6.s 			page 4


 171 0034 BDE80840 		pop	{r3, lr}
 172              		.loc 1 48 0
 173 0038 FFF7FEBF 		b	_imu_write
 174              	.LVL14:
 175              		.cfi_endproc
 176              	.LFE121:
 177              		.size	_imu_init, .-_imu_init
 178 003c AFF30080 		.section	.text.imu_getReading,"ax",%progbits
 179              		.align	2
 180              		.p2align 4,,15
 181              		.global	imu_getReading
 182              		.thumb
 183              		.thumb_func
 184              		.type	imu_getReading, %function
 185              	imu_getReading:
 186              	.LFB122:
 187              		.loc 1 52 0
 188              		.cfi_startproc
 189              		@ args = 0, pretend = 0, frame = 0
 190              		@ frame_needed = 0, uses_anonymous_args = 0
 191              	.LVL15:
 192 0000 2DE9F041 		push	{r4, r5, r6, r7, r8, lr}
 193              	.LCFI5:
 194              		.cfi_def_cfa_offset 24
 195              		.cfi_offset 4, -24
 196              		.cfi_offset 5, -20
 197              		.cfi_offset 6, -16
 198              		.cfi_offset 7, -12
 199              		.cfi_offset 8, -8
 200              		.cfi_offset 14, -4
 201              		.loc 1 52 0
 202 0004 0446     		mov	r4, r0
 203              		.loc 1 55 0
 204 0006 0029     		cmp	r1, #0
 205 0008 32D0     		beq	.L7
 206              		.loc 1 57 0
 207 000a 0129     		cmp	r1, #1
 208 000c 06D0     		beq	.L8
 209              		.loc 1 60 0
 210 000e 0023     		movs	r3, #0
 211 0010 0380     		strh	r3, [r0, #0]	@ movhi
 212 0012 4380     		strh	r3, [r0, #2]	@ movhi
 213 0014 8380     		strh	r3, [r0, #4]	@ movhi
 214              		.loc 1 66 0
 215 0016 2046     		mov	r0, r4
 216 0018 BDE8F081 		pop	{r4, r5, r6, r7, r8, pc}
 217              	.L8:
 218              		.loc 1 58 0
 219 001c 6A25     		movs	r5, #106
 220              	.L5:
 221              	.LVL16:
 222              		.loc 1 62 0
 223 001e 2921     		movs	r1, #41
 224              	.LVL17:
 225 0020 2846     		mov	r0, r5
 226 0022 FFF7FEFF 		bl	_imu_read
 227              	.LVL18:
ARM GAS  /var/folders/ng/s8655sgx1ys_4lf9jzm2w6n00000gn/T//cc85cRS6.s 			page 5


 228 0026 2821     		movs	r1, #40
 229 0028 0746     		mov	r7, r0
 230 002a 2846     		mov	r0, r5
 231 002c FFF7FEFF 		bl	_imu_read
 232              	.LVL19:
 233              		.loc 1 63 0
 234 0030 2B21     		movs	r1, #43
 235              		.loc 1 62 0
 236 0032 40EA0722 		orr	r2, r0, r7, lsl #8
 237              		.loc 1 63 0
 238 0036 2846     		mov	r0, r5
 239              		.loc 1 62 0
 240 0038 97B2     		uxth	r7, r2
 241              	.LVL20:
 242              		.loc 1 63 0
 243 003a FFF7FEFF 		bl	_imu_read
 244              	.LVL21:
 245 003e 2A21     		movs	r1, #42
 246 0040 0646     		mov	r6, r0
 247 0042 2846     		mov	r0, r5
 248 0044 FFF7FEFF 		bl	_imu_read
 249              	.LVL22:
 250              		.loc 1 64 0
 251 0048 2D21     		movs	r1, #45
 252              		.loc 1 63 0
 253 004a 40EA0623 		orr	r3, r0, r6, lsl #8
 254              		.loc 1 64 0
 255 004e 2846     		mov	r0, r5
 256              		.loc 1 63 0
 257 0050 9EB2     		uxth	r6, r3
 258              	.LVL23:
 259              		.loc 1 64 0
 260 0052 FFF7FEFF 		bl	_imu_read
 261              	.LVL24:
 262 0056 2C21     		movs	r1, #44
 263 0058 8046     		mov	r8, r0
 264 005a 2846     		mov	r0, r5
 265 005c FFF7FEFF 		bl	_imu_read
 266              	.LVL25:
 267 0060 40EA0820 		orr	r0, r0, r8, lsl #8
 268              	.LVL26:
 269              		.loc 1 65 0
 270 0064 A080     		strh	r0, [r4, #4]	@ movhi
 271 0066 2780     		strh	r7, [r4, #0]	@ movhi
 272 0068 6680     		strh	r6, [r4, #2]	@ movhi
 273              		.loc 1 66 0
 274 006a 2046     		mov	r0, r4
 275 006c BDE8F081 		pop	{r4, r5, r6, r7, r8, pc}
 276              	.LVL27:
 277              	.L7:
 278              		.loc 1 56 0
 279 0070 1925     		movs	r5, #25
 280 0072 D4E7     		b	.L5
 281              		.cfi_endproc
 282              	.LFE122:
 283              		.size	imu_getReading, .-imu_getReading
 284 0074 AFF30080 		.section	.text.imu_getTemp,"ax",%progbits
ARM GAS  /var/folders/ng/s8655sgx1ys_4lf9jzm2w6n00000gn/T//cc85cRS6.s 			page 6


 284      AFF30080 
 284      AFF30080 
 285              		.align	2
 286              		.p2align 4,,15
 287              		.global	imu_getTemp
 288              		.thumb
 289              		.thumb_func
 290              		.type	imu_getTemp, %function
 291              	imu_getTemp:
 292              	.LFB123:
 293              		.loc 1 69 0
 294              		.cfi_startproc
 295              		@ args = 0, pretend = 0, frame = 0
 296              		@ frame_needed = 0, uses_anonymous_args = 0
 297 0000 08B5     		push	{r3, lr}
 298              	.LCFI6:
 299              		.cfi_def_cfa_offset 8
 300              		.cfi_offset 3, -8
 301              		.cfi_offset 14, -4
 302              		.loc 1 70 0
 303 0002 6A20     		movs	r0, #106
 304 0004 2621     		movs	r1, #38
 305 0006 FFF7FEFF 		bl	_imu_read
 306              	.LVL28:
 307              		.loc 1 71 0
 308 000a 40B2     		sxtb	r0, r0
 309 000c 08BD     		pop	{r3, pc}
 310              		.cfi_endproc
 311              	.LFE123:
 312              		.size	imu_getTemp, .-imu_getTemp
 313 000e 00BF     		.section	.rodata.imu_config,"a",%progbits
 314              		.align	2
 315              		.set	.LANCHOR0,. + 0
 316              		.type	imu_config, %object
 317              		.size	imu_config, 12
 318              	imu_config:
 319 0000 01       		.byte	1
 320 0001 000000   		.space	3
 321 0004 A0860100 		.word	100000
 322 0008 01       		.byte	1
 323 0009 000000   		.space	3
 324              		.text
 325              	.Letext0:
 326              		.file 2 "/Users/jseng/gccarm/bin/../lib/gcc/arm-none-eabi/4.7.4/include/stddef.h"
 327              		.file 3 "/Users/jseng/gccarm/bin/../lib/gcc/arm-none-eabi/4.7.4/../../../../arm-none-eabi/include/
 328              		.file 4 "../AithonLibrary/ChibiOS/os/ports/GCC/ARMCMx/chtypes.h"
 329              		.file 5 "../AithonLibrary/ChibiOS/os/kernel/include/chlists.h"
 330              		.file 6 "../AithonLibrary/ChibiOS/os/kernel/include/chthreads.h"
 331              		.file 7 "../AithonLibrary/ChibiOS/os/ports/GCC/ARMCMx/chcore_v7m.h"
 332              		.file 8 "../AithonLibrary/ChibiOS/os/kernel/include/chmtx.h"
 333              		.file 9 "../AithonLibrary/ChibiOS/os/hal/platforms/STM32F4xx/stm32f4xx.h"
 334              		.file 10 "../AithonLibrary/ChibiOS/os/hal/platforms/STM32F4xx/stm32_dma.h"
 335              		.file 11 "../AithonLibrary/ChibiOS/os/hal/include/i2c.h"
 336              		.file 12 "../AithonLibrary/ChibiOS/os/hal/platforms/STM32/I2Cv1/i2c_lld.h"
 337              		.file 13 "../AithonLibrary/Aithon.h"
 338              		.file 14 "../AithonLibrary/ChibiOS/os/ports/common/ARMCMx/CMSIS/include/core_cm4.h"
 339              		.section	.debug_info,"",%progbits
ARM GAS  /var/folders/ng/s8655sgx1ys_4lf9jzm2w6n00000gn/T//cc85cRS6.s 			page 7


 340              	.Ldebug_info0:
 341 0000 780C0000 		.4byte	0xc78
 342 0004 0200     		.2byte	0x2
 343 0006 00000000 		.4byte	.Ldebug_abbrev0
 344 000a 04       		.byte	0x4
 345 000b 01       		.uleb128 0x1
 346 000c 13010000 		.4byte	.LASF134
 347 0010 01       		.byte	0x1
 348 0011 4E040000 		.4byte	.LASF135
 349 0015 F0020000 		.4byte	.LASF136
 350 0019 00000000 		.4byte	.Ldebug_ranges0+0
 351 001d 00000000 		.4byte	0
 352 0021 00000000 		.4byte	0
 353 0025 00000000 		.4byte	.Ldebug_line0
 354 0029 02       		.uleb128 0x2
 355 002a 04       		.byte	0x4
 356 002b 05       		.byte	0x5
 357 002c 696E7400 		.ascii	"int\000"
 358 0030 03       		.uleb128 0x3
 359 0031 DE020000 		.4byte	.LASF1
 360 0035 02       		.byte	0x2
 361 0036 D5       		.byte	0xd5
 362 0037 3B000000 		.4byte	0x3b
 363 003b 04       		.uleb128 0x4
 364 003c 04       		.byte	0x4
 365 003d 07       		.byte	0x7
 366 003e D2010000 		.4byte	.LASF0
 367 0042 03       		.uleb128 0x3
 368 0043 84020000 		.4byte	.LASF2
 369 0047 03       		.byte	0x3
 370 0048 29       		.byte	0x29
 371 0049 4D000000 		.4byte	0x4d
 372 004d 04       		.uleb128 0x4
 373 004e 01       		.byte	0x1
 374 004f 06       		.byte	0x6
 375 0050 27000000 		.4byte	.LASF3
 376 0054 03       		.uleb128 0x3
 377 0055 40050000 		.4byte	.LASF4
 378 0059 03       		.byte	0x3
 379 005a 2A       		.byte	0x2a
 380 005b 5F000000 		.4byte	0x5f
 381 005f 04       		.uleb128 0x4
 382 0060 01       		.byte	0x1
 383 0061 08       		.byte	0x8
 384 0062 C2030000 		.4byte	.LASF5
 385 0066 03       		.uleb128 0x3
 386 0067 B2000000 		.4byte	.LASF6
 387 006b 03       		.byte	0x3
 388 006c 35       		.byte	0x35
 389 006d 71000000 		.4byte	0x71
 390 0071 04       		.uleb128 0x4
 391 0072 02       		.byte	0x2
 392 0073 05       		.byte	0x5
 393 0074 6A020000 		.4byte	.LASF7
 394 0078 03       		.uleb128 0x3
 395 0079 DF010000 		.4byte	.LASF8
 396 007d 03       		.byte	0x3
ARM GAS  /var/folders/ng/s8655sgx1ys_4lf9jzm2w6n00000gn/T//cc85cRS6.s 			page 8


 397 007e 36       		.byte	0x36
 398 007f 83000000 		.4byte	0x83
 399 0083 04       		.uleb128 0x4
 400 0084 02       		.byte	0x2
 401 0085 07       		.byte	0x7
 402 0086 0F020000 		.4byte	.LASF9
 403 008a 03       		.uleb128 0x3
 404 008b BA030000 		.4byte	.LASF10
 405 008f 03       		.byte	0x3
 406 0090 4F       		.byte	0x4f
 407 0091 95000000 		.4byte	0x95
 408 0095 04       		.uleb128 0x4
 409 0096 04       		.byte	0x4
 410 0097 05       		.byte	0x5
 411 0098 4B000000 		.4byte	.LASF11
 412 009c 03       		.uleb128 0x3
 413 009d 65040000 		.4byte	.LASF12
 414 00a1 03       		.byte	0x3
 415 00a2 50       		.byte	0x50
 416 00a3 A7000000 		.4byte	0xa7
 417 00a7 04       		.uleb128 0x4
 418 00a8 04       		.byte	0x4
 419 00a9 07       		.byte	0x7
 420 00aa 9C040000 		.4byte	.LASF13
 421 00ae 04       		.uleb128 0x4
 422 00af 08       		.byte	0x8
 423 00b0 05       		.byte	0x5
 424 00b1 BA000000 		.4byte	.LASF14
 425 00b5 04       		.uleb128 0x4
 426 00b6 08       		.byte	0x8
 427 00b7 07       		.byte	0x7
 428 00b8 E5000000 		.4byte	.LASF15
 429 00bc 04       		.uleb128 0x4
 430 00bd 01       		.byte	0x1
 431 00be 02       		.byte	0x2
 432 00bf B4030000 		.4byte	.LASF16
 433 00c3 03       		.uleb128 0x3
 434 00c4 47020000 		.4byte	.LASF17
 435 00c8 04       		.byte	0x4
 436 00c9 2C       		.byte	0x2c
 437 00ca 54000000 		.4byte	0x54
 438 00ce 03       		.uleb128 0x3
 439 00cf 72010000 		.4byte	.LASF18
 440 00d3 04       		.byte	0x4
 441 00d4 2D       		.byte	0x2d
 442 00d5 54000000 		.4byte	0x54
 443 00d9 03       		.uleb128 0x3
 444 00da 18030000 		.4byte	.LASF19
 445 00de 04       		.byte	0x4
 446 00df 2E       		.byte	0x2e
 447 00e0 54000000 		.4byte	0x54
 448 00e4 03       		.uleb128 0x3
 449 00e5 09010000 		.4byte	.LASF20
 450 00e9 04       		.byte	0x4
 451 00ea 2F       		.byte	0x2f
 452 00eb 54000000 		.4byte	0x54
 453 00ef 03       		.uleb128 0x3
ARM GAS  /var/folders/ng/s8655sgx1ys_4lf9jzm2w6n00000gn/T//cc85cRS6.s 			page 9


 454 00f0 8C030000 		.4byte	.LASF21
 455 00f4 04       		.byte	0x4
 456 00f5 30       		.byte	0x30
 457 00f6 9C000000 		.4byte	0x9c
 458 00fa 03       		.uleb128 0x3
 459 00fb 2C020000 		.4byte	.LASF22
 460 00ff 04       		.byte	0x4
 461 0100 31       		.byte	0x31
 462 0101 8A000000 		.4byte	0x8a
 463 0105 03       		.uleb128 0x3
 464 0106 5E020000 		.4byte	.LASF23
 465 010a 04       		.byte	0x4
 466 010b 33       		.byte	0x33
 467 010c 9C000000 		.4byte	0x9c
 468 0110 03       		.uleb128 0x3
 469 0111 CC040000 		.4byte	.LASF24
 470 0115 04       		.byte	0x4
 471 0116 35       		.byte	0x35
 472 0117 9C000000 		.4byte	0x9c
 473 011b 03       		.uleb128 0x3
 474 011c 18040000 		.4byte	.LASF25
 475 0120 05       		.byte	0x5
 476 0121 2A       		.byte	0x2a
 477 0122 26010000 		.4byte	0x126
 478 0126 05       		.uleb128 0x5
 479 0127 18040000 		.4byte	.LASF25
 480 012b 48       		.byte	0x48
 481 012c 06       		.byte	0x6
 482 012d 5E       		.byte	0x5e
 483 012e 4B020000 		.4byte	0x24b
 484 0132 06       		.uleb128 0x6
 485 0133 FF030000 		.4byte	.LASF26
 486 0137 06       		.byte	0x6
 487 0138 5F       		.byte	0x5f
 488 0139 70020000 		.4byte	0x270
 489 013d 02       		.byte	0x2
 490 013e 23       		.byte	0x23
 491 013f 00       		.uleb128 0
 492 0140 06       		.uleb128 0x6
 493 0141 5E030000 		.4byte	.LASF27
 494 0145 06       		.byte	0x6
 495 0146 61       		.byte	0x61
 496 0147 70020000 		.4byte	0x270
 497 014b 02       		.byte	0x2
 498 014c 23       		.byte	0x23
 499 014d 04       		.uleb128 0x4
 500 014e 06       		.uleb128 0x6
 501 014f B6020000 		.4byte	.LASF28
 502 0153 06       		.byte	0x6
 503 0154 63       		.byte	0x63
 504 0155 EF000000 		.4byte	0xef
 505 0159 02       		.byte	0x2
 506 015a 23       		.byte	0x23
 507 015b 08       		.uleb128 0x8
 508 015c 06       		.uleb128 0x6
 509 015d 9B050000 		.4byte	.LASF29
 510 0161 06       		.byte	0x6
ARM GAS  /var/folders/ng/s8655sgx1ys_4lf9jzm2w6n00000gn/T//cc85cRS6.s 			page 10


 511 0162 64       		.byte	0x64
 512 0163 2E040000 		.4byte	0x42e
 513 0167 02       		.byte	0x2
 514 0168 23       		.byte	0x23
 515 0169 0C       		.uleb128 0xc
 516 016a 06       		.uleb128 0x6
 517 016b 96010000 		.4byte	.LASF30
 518 016f 06       		.byte	0x6
 519 0170 66       		.byte	0x66
 520 0171 70020000 		.4byte	0x270
 521 0175 02       		.byte	0x2
 522 0176 23       		.byte	0x23
 523 0177 10       		.uleb128 0x10
 524 0178 06       		.uleb128 0x6
 525 0179 BD020000 		.4byte	.LASF31
 526 017d 06       		.byte	0x6
 527 017e 67       		.byte	0x67
 528 017f 70020000 		.4byte	0x270
 529 0183 02       		.byte	0x2
 530 0184 23       		.byte	0x23
 531 0185 14       		.uleb128 0x14
 532 0186 06       		.uleb128 0x6
 533 0187 63050000 		.4byte	.LASF32
 534 018b 06       		.byte	0x6
 535 018c 6E       		.byte	0x6e
 536 018d DF040000 		.4byte	0x4df
 537 0191 02       		.byte	0x2
 538 0192 23       		.byte	0x23
 539 0193 18       		.uleb128 0x18
 540 0194 06       		.uleb128 0x6
 541 0195 E6030000 		.4byte	.LASF33
 542 0199 06       		.byte	0x6
 543 019a 79       		.byte	0x79
 544 019b CE000000 		.4byte	0xce
 545 019f 02       		.byte	0x2
 546 01a0 23       		.byte	0x23
 547 01a1 1C       		.uleb128 0x1c
 548 01a2 06       		.uleb128 0x6
 549 01a3 06040000 		.4byte	.LASF34
 550 01a7 06       		.byte	0x6
 551 01a8 7D       		.byte	0x7d
 552 01a9 C3000000 		.4byte	0xc3
 553 01ad 02       		.byte	0x2
 554 01ae 23       		.byte	0x23
 555 01af 1D       		.uleb128 0x1d
 556 01b0 06       		.uleb128 0x6
 557 01b1 39050000 		.4byte	.LASF35
 558 01b5 06       		.byte	0x6
 559 01b6 82       		.byte	0x82
 560 01b7 D9000000 		.4byte	0xd9
 561 01bb 02       		.byte	0x2
 562 01bc 23       		.byte	0x23
 563 01bd 1E       		.uleb128 0x1e
 564 01be 06       		.uleb128 0x6
 565 01bf EE030000 		.4byte	.LASF36
 566 01c3 06       		.byte	0x6
 567 01c4 88       		.byte	0x88
ARM GAS  /var/folders/ng/s8655sgx1ys_4lf9jzm2w6n00000gn/T//cc85cRS6.s 			page 11


 568 01c5 E4000000 		.4byte	0xe4
 569 01c9 02       		.byte	0x2
 570 01ca 23       		.byte	0x23
 571 01cb 1F       		.uleb128 0x1f
 572 01cc 06       		.uleb128 0x6
 573 01cd 05050000 		.4byte	.LASF37
 574 01d1 06       		.byte	0x6
 575 01d2 8F       		.byte	0x8f
 576 01d3 5D040000 		.4byte	0x45d
 577 01d7 02       		.byte	0x2
 578 01d8 23       		.byte	0x23
 579 01d9 20       		.uleb128 0x20
 580 01da 07       		.uleb128 0x7
 581 01db 705F7500 		.ascii	"p_u\000"
 582 01df 06       		.byte	0x6
 583 01e0 B4       		.byte	0xb4
 584 01e1 AA040000 		.4byte	0x4aa
 585 01e5 02       		.byte	0x2
 586 01e6 23       		.byte	0x23
 587 01e7 24       		.uleb128 0x24
 588 01e8 06       		.uleb128 0x6
 589 01e9 A1050000 		.4byte	.LASF38
 590 01ed 06       		.byte	0x6
 591 01ee B9       		.byte	0xb9
 592 01ef 98020000 		.4byte	0x298
 593 01f3 02       		.byte	0x2
 594 01f4 23       		.byte	0x23
 595 01f5 28       		.uleb128 0x28
 596 01f6 06       		.uleb128 0x6
 597 01f7 1F050000 		.4byte	.LASF39
 598 01fb 06       		.byte	0x6
 599 01fc BF       		.byte	0xbf
 600 01fd 76020000 		.4byte	0x276
 601 0201 02       		.byte	0x2
 602 0202 23       		.byte	0x23
 603 0203 2C       		.uleb128 0x2c
 604 0204 06       		.uleb128 0x6
 605 0205 7A050000 		.4byte	.LASF40
 606 0209 06       		.byte	0x6
 607 020a C3       		.byte	0xc3
 608 020b FA000000 		.4byte	0xfa
 609 020f 02       		.byte	0x2
 610 0210 23       		.byte	0x23
 611 0211 34       		.uleb128 0x34
 612 0212 06       		.uleb128 0x6
 613 0213 34040000 		.4byte	.LASF41
 614 0217 06       		.byte	0x6
 615 0218 C9       		.byte	0xc9
 616 0219 05010000 		.4byte	0x105
 617 021d 02       		.byte	0x2
 618 021e 23       		.byte	0x23
 619 021f 38       		.uleb128 0x38
 620 0220 06       		.uleb128 0x6
 621 0221 D0030000 		.4byte	.LASF42
 622 0225 06       		.byte	0x6
 623 0226 D0       		.byte	0xd0
 624 0227 F1040000 		.4byte	0x4f1
ARM GAS  /var/folders/ng/s8655sgx1ys_4lf9jzm2w6n00000gn/T//cc85cRS6.s 			page 12


 625 022b 02       		.byte	0x2
 626 022c 23       		.byte	0x23
 627 022d 3C       		.uleb128 0x3c
 628 022e 06       		.uleb128 0x6
 629 022f D6040000 		.4byte	.LASF43
 630 0233 06       		.byte	0x6
 631 0234 D4       		.byte	0xd4
 632 0235 EF000000 		.4byte	0xef
 633 0239 02       		.byte	0x2
 634 023a 23       		.byte	0x23
 635 023b 40       		.uleb128 0x40
 636 023c 06       		.uleb128 0x6
 637 023d DD000000 		.4byte	.LASF44
 638 0241 06       		.byte	0x6
 639 0242 DA       		.byte	0xda
 640 0243 AE020000 		.4byte	0x2ae
 641 0247 02       		.byte	0x2
 642 0248 23       		.byte	0x23
 643 0249 44       		.uleb128 0x44
 644 024a 00       		.byte	0
 645 024b 08       		.uleb128 0x8
 646 024c 08       		.byte	0x8
 647 024d 05       		.byte	0x5
 648 024e 61       		.byte	0x61
 649 024f 70020000 		.4byte	0x270
 650 0253 06       		.uleb128 0x6
 651 0254 FF030000 		.4byte	.LASF26
 652 0258 05       		.byte	0x5
 653 0259 62       		.byte	0x62
 654 025a 70020000 		.4byte	0x270
 655 025e 02       		.byte	0x2
 656 025f 23       		.byte	0x23
 657 0260 00       		.uleb128 0
 658 0261 06       		.uleb128 0x6
 659 0262 5E030000 		.4byte	.LASF27
 660 0266 05       		.byte	0x5
 661 0267 64       		.byte	0x64
 662 0268 70020000 		.4byte	0x270
 663 026c 02       		.byte	0x2
 664 026d 23       		.byte	0x23
 665 026e 04       		.uleb128 0x4
 666 026f 00       		.byte	0
 667 0270 09       		.uleb128 0x9
 668 0271 04       		.byte	0x4
 669 0272 1B010000 		.4byte	0x11b
 670 0276 03       		.uleb128 0x3
 671 0277 54000000 		.4byte	.LASF45
 672 027b 05       		.byte	0x5
 673 027c 66       		.byte	0x66
 674 027d 4B020000 		.4byte	0x24b
 675 0281 08       		.uleb128 0x8
 676 0282 04       		.byte	0x4
 677 0283 05       		.byte	0x5
 678 0284 6B       		.byte	0x6b
 679 0285 98020000 		.4byte	0x298
 680 0289 06       		.uleb128 0x6
 681 028a FF030000 		.4byte	.LASF26
ARM GAS  /var/folders/ng/s8655sgx1ys_4lf9jzm2w6n00000gn/T//cc85cRS6.s 			page 13


 682 028e 05       		.byte	0x5
 683 028f 6D       		.byte	0x6d
 684 0290 70020000 		.4byte	0x270
 685 0294 02       		.byte	0x2
 686 0295 23       		.byte	0x23
 687 0296 00       		.uleb128 0
 688 0297 00       		.byte	0
 689 0298 03       		.uleb128 0x3
 690 0299 E6040000 		.4byte	.LASF46
 691 029d 05       		.byte	0x5
 692 029e 70       		.byte	0x70
 693 029f 81020000 		.4byte	0x281
 694 02a3 03       		.uleb128 0x3
 695 02a4 6E040000 		.4byte	.LASF47
 696 02a8 07       		.byte	0x7
 697 02a9 E5       		.byte	0xe5
 698 02aa AE020000 		.4byte	0x2ae
 699 02ae 0A       		.uleb128 0xa
 700 02af 04       		.byte	0x4
 701 02b0 0B       		.uleb128 0xb
 702 02b1 18050000 		.4byte	.LASF48
 703 02b5 64       		.byte	0x64
 704 02b6 07       		.byte	0x7
 705 02b7 0C01     		.2byte	0x10c
 706 02b9 2E040000 		.4byte	0x42e
 707 02bd 0C       		.uleb128 0xc
 708 02be 73313600 		.ascii	"s16\000"
 709 02c2 07       		.byte	0x7
 710 02c3 0E01     		.2byte	0x10e
 711 02c5 A3020000 		.4byte	0x2a3
 712 02c9 02       		.byte	0x2
 713 02ca 23       		.byte	0x23
 714 02cb 00       		.uleb128 0
 715 02cc 0C       		.uleb128 0xc
 716 02cd 73313700 		.ascii	"s17\000"
 717 02d1 07       		.byte	0x7
 718 02d2 0F01     		.2byte	0x10f
 719 02d4 A3020000 		.4byte	0x2a3
 720 02d8 02       		.byte	0x2
 721 02d9 23       		.byte	0x23
 722 02da 04       		.uleb128 0x4
 723 02db 0C       		.uleb128 0xc
 724 02dc 73313800 		.ascii	"s18\000"
 725 02e0 07       		.byte	0x7
 726 02e1 1001     		.2byte	0x110
 727 02e3 A3020000 		.4byte	0x2a3
 728 02e7 02       		.byte	0x2
 729 02e8 23       		.byte	0x23
 730 02e9 08       		.uleb128 0x8
 731 02ea 0C       		.uleb128 0xc
 732 02eb 73313900 		.ascii	"s19\000"
 733 02ef 07       		.byte	0x7
 734 02f0 1101     		.2byte	0x111
 735 02f2 A3020000 		.4byte	0x2a3
 736 02f6 02       		.byte	0x2
 737 02f7 23       		.byte	0x23
 738 02f8 0C       		.uleb128 0xc
ARM GAS  /var/folders/ng/s8655sgx1ys_4lf9jzm2w6n00000gn/T//cc85cRS6.s 			page 14


 739 02f9 0C       		.uleb128 0xc
 740 02fa 73323000 		.ascii	"s20\000"
 741 02fe 07       		.byte	0x7
 742 02ff 1201     		.2byte	0x112
 743 0301 A3020000 		.4byte	0x2a3
 744 0305 02       		.byte	0x2
 745 0306 23       		.byte	0x23
 746 0307 10       		.uleb128 0x10
 747 0308 0C       		.uleb128 0xc
 748 0309 73323100 		.ascii	"s21\000"
 749 030d 07       		.byte	0x7
 750 030e 1301     		.2byte	0x113
 751 0310 A3020000 		.4byte	0x2a3
 752 0314 02       		.byte	0x2
 753 0315 23       		.byte	0x23
 754 0316 14       		.uleb128 0x14
 755 0317 0C       		.uleb128 0xc
 756 0318 73323200 		.ascii	"s22\000"
 757 031c 07       		.byte	0x7
 758 031d 1401     		.2byte	0x114
 759 031f A3020000 		.4byte	0x2a3
 760 0323 02       		.byte	0x2
 761 0324 23       		.byte	0x23
 762 0325 18       		.uleb128 0x18
 763 0326 0C       		.uleb128 0xc
 764 0327 73323300 		.ascii	"s23\000"
 765 032b 07       		.byte	0x7
 766 032c 1501     		.2byte	0x115
 767 032e A3020000 		.4byte	0x2a3
 768 0332 02       		.byte	0x2
 769 0333 23       		.byte	0x23
 770 0334 1C       		.uleb128 0x1c
 771 0335 0C       		.uleb128 0xc
 772 0336 73323400 		.ascii	"s24\000"
 773 033a 07       		.byte	0x7
 774 033b 1601     		.2byte	0x116
 775 033d A3020000 		.4byte	0x2a3
 776 0341 02       		.byte	0x2
 777 0342 23       		.byte	0x23
 778 0343 20       		.uleb128 0x20
 779 0344 0C       		.uleb128 0xc
 780 0345 73323500 		.ascii	"s25\000"
 781 0349 07       		.byte	0x7
 782 034a 1701     		.2byte	0x117
 783 034c A3020000 		.4byte	0x2a3
 784 0350 02       		.byte	0x2
 785 0351 23       		.byte	0x23
 786 0352 24       		.uleb128 0x24
 787 0353 0C       		.uleb128 0xc
 788 0354 73323600 		.ascii	"s26\000"
 789 0358 07       		.byte	0x7
 790 0359 1801     		.2byte	0x118
 791 035b A3020000 		.4byte	0x2a3
 792 035f 02       		.byte	0x2
 793 0360 23       		.byte	0x23
 794 0361 28       		.uleb128 0x28
 795 0362 0C       		.uleb128 0xc
ARM GAS  /var/folders/ng/s8655sgx1ys_4lf9jzm2w6n00000gn/T//cc85cRS6.s 			page 15


 796 0363 73323700 		.ascii	"s27\000"
 797 0367 07       		.byte	0x7
 798 0368 1901     		.2byte	0x119
 799 036a A3020000 		.4byte	0x2a3
 800 036e 02       		.byte	0x2
 801 036f 23       		.byte	0x23
 802 0370 2C       		.uleb128 0x2c
 803 0371 0C       		.uleb128 0xc
 804 0372 73323800 		.ascii	"s28\000"
 805 0376 07       		.byte	0x7
 806 0377 1A01     		.2byte	0x11a
 807 0379 A3020000 		.4byte	0x2a3
 808 037d 02       		.byte	0x2
 809 037e 23       		.byte	0x23
 810 037f 30       		.uleb128 0x30
 811 0380 0C       		.uleb128 0xc
 812 0381 73323900 		.ascii	"s29\000"
 813 0385 07       		.byte	0x7
 814 0386 1B01     		.2byte	0x11b
 815 0388 A3020000 		.4byte	0x2a3
 816 038c 02       		.byte	0x2
 817 038d 23       		.byte	0x23
 818 038e 34       		.uleb128 0x34
 819 038f 0C       		.uleb128 0xc
 820 0390 73333000 		.ascii	"s30\000"
 821 0394 07       		.byte	0x7
 822 0395 1C01     		.2byte	0x11c
 823 0397 A3020000 		.4byte	0x2a3
 824 039b 02       		.byte	0x2
 825 039c 23       		.byte	0x23
 826 039d 38       		.uleb128 0x38
 827 039e 0C       		.uleb128 0xc
 828 039f 73333100 		.ascii	"s31\000"
 829 03a3 07       		.byte	0x7
 830 03a4 1D01     		.2byte	0x11d
 831 03a6 A3020000 		.4byte	0x2a3
 832 03aa 02       		.byte	0x2
 833 03ab 23       		.byte	0x23
 834 03ac 3C       		.uleb128 0x3c
 835 03ad 0C       		.uleb128 0xc
 836 03ae 723400   		.ascii	"r4\000"
 837 03b1 07       		.byte	0x7
 838 03b2 1F01     		.2byte	0x11f
 839 03b4 A3020000 		.4byte	0x2a3
 840 03b8 02       		.byte	0x2
 841 03b9 23       		.byte	0x23
 842 03ba 40       		.uleb128 0x40
 843 03bb 0C       		.uleb128 0xc
 844 03bc 723500   		.ascii	"r5\000"
 845 03bf 07       		.byte	0x7
 846 03c0 2001     		.2byte	0x120
 847 03c2 A3020000 		.4byte	0x2a3
 848 03c6 02       		.byte	0x2
 849 03c7 23       		.byte	0x23
 850 03c8 44       		.uleb128 0x44
 851 03c9 0C       		.uleb128 0xc
 852 03ca 723600   		.ascii	"r6\000"
ARM GAS  /var/folders/ng/s8655sgx1ys_4lf9jzm2w6n00000gn/T//cc85cRS6.s 			page 16


 853 03cd 07       		.byte	0x7
 854 03ce 2101     		.2byte	0x121
 855 03d0 A3020000 		.4byte	0x2a3
 856 03d4 02       		.byte	0x2
 857 03d5 23       		.byte	0x23
 858 03d6 48       		.uleb128 0x48
 859 03d7 0C       		.uleb128 0xc
 860 03d8 723700   		.ascii	"r7\000"
 861 03db 07       		.byte	0x7
 862 03dc 2201     		.2byte	0x122
 863 03de A3020000 		.4byte	0x2a3
 864 03e2 02       		.byte	0x2
 865 03e3 23       		.byte	0x23
 866 03e4 4C       		.uleb128 0x4c
 867 03e5 0C       		.uleb128 0xc
 868 03e6 723800   		.ascii	"r8\000"
 869 03e9 07       		.byte	0x7
 870 03ea 2301     		.2byte	0x123
 871 03ec A3020000 		.4byte	0x2a3
 872 03f0 02       		.byte	0x2
 873 03f1 23       		.byte	0x23
 874 03f2 50       		.uleb128 0x50
 875 03f3 0C       		.uleb128 0xc
 876 03f4 723900   		.ascii	"r9\000"
 877 03f7 07       		.byte	0x7
 878 03f8 2401     		.2byte	0x124
 879 03fa A3020000 		.4byte	0x2a3
 880 03fe 02       		.byte	0x2
 881 03ff 23       		.byte	0x23
 882 0400 54       		.uleb128 0x54
 883 0401 0C       		.uleb128 0xc
 884 0402 72313000 		.ascii	"r10\000"
 885 0406 07       		.byte	0x7
 886 0407 2501     		.2byte	0x125
 887 0409 A3020000 		.4byte	0x2a3
 888 040d 02       		.byte	0x2
 889 040e 23       		.byte	0x23
 890 040f 58       		.uleb128 0x58
 891 0410 0C       		.uleb128 0xc
 892 0411 72313100 		.ascii	"r11\000"
 893 0415 07       		.byte	0x7
 894 0416 2601     		.2byte	0x126
 895 0418 A3020000 		.4byte	0x2a3
 896 041c 02       		.byte	0x2
 897 041d 23       		.byte	0x23
 898 041e 5C       		.uleb128 0x5c
 899 041f 0C       		.uleb128 0xc
 900 0420 6C7200   		.ascii	"lr\000"
 901 0423 07       		.byte	0x7
 902 0424 2701     		.2byte	0x127
 903 0426 A3020000 		.4byte	0x2a3
 904 042a 02       		.byte	0x2
 905 042b 23       		.byte	0x23
 906 042c 60       		.uleb128 0x60
 907 042d 00       		.byte	0
 908 042e 0B       		.uleb128 0xb
 909 042f 6A050000 		.4byte	.LASF49
ARM GAS  /var/folders/ng/s8655sgx1ys_4lf9jzm2w6n00000gn/T//cc85cRS6.s 			page 17


 910 0433 04       		.byte	0x4
 911 0434 07       		.byte	0x7
 912 0435 3101     		.2byte	0x131
 913 0437 4B040000 		.4byte	0x44b
 914 043b 0C       		.uleb128 0xc
 915 043c 72313300 		.ascii	"r13\000"
 916 0440 07       		.byte	0x7
 917 0441 3201     		.2byte	0x132
 918 0443 4B040000 		.4byte	0x44b
 919 0447 02       		.byte	0x2
 920 0448 23       		.byte	0x23
 921 0449 00       		.uleb128 0
 922 044a 00       		.byte	0
 923 044b 09       		.uleb128 0x9
 924 044c 04       		.byte	0x4
 925 044d B0020000 		.4byte	0x2b0
 926 0451 0D       		.uleb128 0xd
 927 0452 9C000000 		.4byte	0x9c
 928 0456 04       		.uleb128 0x4
 929 0457 04       		.byte	0x4
 930 0458 07       		.byte	0x7
 931 0459 94020000 		.4byte	.LASF50
 932 045d 0D       		.uleb128 0xd
 933 045e 10010000 		.4byte	0x110
 934 0462 05       		.uleb128 0x5
 935 0463 74020000 		.4byte	.LASF51
 936 0467 10       		.byte	0x10
 937 0468 08       		.byte	0x8
 938 0469 2C       		.byte	0x2c
 939 046a 99040000 		.4byte	0x499
 940 046e 06       		.uleb128 0x6
 941 046f FC000000 		.4byte	.LASF52
 942 0473 08       		.byte	0x8
 943 0474 2D       		.byte	0x2d
 944 0475 76020000 		.4byte	0x276
 945 0479 02       		.byte	0x2
 946 047a 23       		.byte	0x23
 947 047b 00       		.uleb128 0
 948 047c 06       		.uleb128 0x6
 949 047d 93050000 		.4byte	.LASF53
 950 0481 08       		.byte	0x8
 951 0482 2F       		.byte	0x2f
 952 0483 70020000 		.4byte	0x270
 953 0487 02       		.byte	0x2
 954 0488 23       		.byte	0x23
 955 0489 08       		.uleb128 0x8
 956 048a 06       		.uleb128 0x6
 957 048b C5040000 		.4byte	.LASF54
 958 048f 08       		.byte	0x8
 959 0490 31       		.byte	0x31
 960 0491 99040000 		.4byte	0x499
 961 0495 02       		.byte	0x2
 962 0496 23       		.byte	0x23
 963 0497 0C       		.uleb128 0xc
 964 0498 00       		.byte	0
 965 0499 09       		.uleb128 0x9
 966 049a 04       		.byte	0x4
ARM GAS  /var/folders/ng/s8655sgx1ys_4lf9jzm2w6n00000gn/T//cc85cRS6.s 			page 18


 967 049b 62040000 		.4byte	0x462
 968 049f 03       		.uleb128 0x3
 969 04a0 74020000 		.4byte	.LASF51
 970 04a4 08       		.byte	0x8
 971 04a5 33       		.byte	0x33
 972 04a6 62040000 		.4byte	0x462
 973 04aa 0E       		.uleb128 0xe
 974 04ab 04       		.byte	0x4
 975 04ac 06       		.byte	0x6
 976 04ad 96       		.byte	0x96
 977 04ae DF040000 		.4byte	0x4df
 978 04b2 0F       		.uleb128 0xf
 979 04b3 20000000 		.4byte	.LASF55
 980 04b7 06       		.byte	0x6
 981 04b8 9D       		.byte	0x9d
 982 04b9 FA000000 		.4byte	0xfa
 983 04bd 0F       		.uleb128 0xf
 984 04be 3E020000 		.4byte	.LASF56
 985 04c2 06       		.byte	0x6
 986 04c3 A4       		.byte	0xa4
 987 04c4 FA000000 		.4byte	0xfa
 988 04c8 0F       		.uleb128 0xf
 989 04c9 5C050000 		.4byte	.LASF57
 990 04cd 06       		.byte	0x6
 991 04ce AB       		.byte	0xab
 992 04cf AE020000 		.4byte	0x2ae
 993 04d3 0F       		.uleb128 0xf
 994 04d4 F8030000 		.4byte	.LASF58
 995 04d8 06       		.byte	0x6
 996 04d9 B2       		.byte	0xb2
 997 04da 05010000 		.4byte	0x105
 998 04de 00       		.byte	0
 999 04df 09       		.uleb128 0x9
 1000 04e0 04       		.byte	0x4
 1001 04e1 E5040000 		.4byte	0x4e5
 1002 04e5 10       		.uleb128 0x10
 1003 04e6 EA040000 		.4byte	0x4ea
 1004 04ea 04       		.uleb128 0x4
 1005 04eb 01       		.byte	0x1
 1006 04ec 08       		.byte	0x8
 1007 04ed AE040000 		.4byte	.LASF59
 1008 04f1 09       		.uleb128 0x9
 1009 04f2 04       		.byte	0x4
 1010 04f3 9F040000 		.4byte	0x49f
 1011 04f7 09       		.uleb128 0x9
 1012 04f8 04       		.byte	0x4
 1013 04f9 54000000 		.4byte	0x54
 1014 04fd 09       		.uleb128 0x9
 1015 04fe 04       		.byte	0x4
 1016 04ff 03050000 		.4byte	0x503
 1017 0503 10       		.uleb128 0x10
 1018 0504 54000000 		.4byte	0x54
 1019 0508 0D       		.uleb128 0xd
 1020 0509 78000000 		.4byte	0x78
 1021 050d 0D       		.uleb128 0xd
 1022 050e 8A000000 		.4byte	0x8a
 1023 0512 11       		.uleb128 0x11
ARM GAS  /var/folders/ng/s8655sgx1ys_4lf9jzm2w6n00000gn/T//cc85cRS6.s 			page 19


 1024 0513 18       		.byte	0x18
 1025 0514 09       		.byte	0x9
 1026 0515 B102     		.2byte	0x2b1
 1027 0517 75050000 		.4byte	0x575
 1028 051b 0C       		.uleb128 0xc
 1029 051c 435200   		.ascii	"CR\000"
 1030 051f 09       		.byte	0x9
 1031 0520 B302     		.2byte	0x2b3
 1032 0522 51040000 		.4byte	0x451
 1033 0526 02       		.byte	0x2
 1034 0527 23       		.byte	0x23
 1035 0528 00       		.uleb128 0
 1036 0529 12       		.uleb128 0x12
 1037 052a E1040000 		.4byte	.LASF60
 1038 052e 09       		.byte	0x9
 1039 052f B402     		.2byte	0x2b4
 1040 0531 51040000 		.4byte	0x451
 1041 0535 02       		.byte	0x2
 1042 0536 23       		.byte	0x23
 1043 0537 04       		.uleb128 0x4
 1044 0538 0C       		.uleb128 0xc
 1045 0539 50415200 		.ascii	"PAR\000"
 1046 053d 09       		.byte	0x9
 1047 053e B502     		.2byte	0x2b5
 1048 0540 51040000 		.4byte	0x451
 1049 0544 02       		.byte	0x2
 1050 0545 23       		.byte	0x23
 1051 0546 08       		.uleb128 0x8
 1052 0547 12       		.uleb128 0x12
 1053 0548 15000000 		.4byte	.LASF61
 1054 054c 09       		.byte	0x9
 1055 054d B602     		.2byte	0x2b6
 1056 054f 51040000 		.4byte	0x451
 1057 0553 02       		.byte	0x2
 1058 0554 23       		.byte	0x23
 1059 0555 0C       		.uleb128 0xc
 1060 0556 12       		.uleb128 0x12
 1061 0557 2A050000 		.4byte	.LASF62
 1062 055b 09       		.byte	0x9
 1063 055c B702     		.2byte	0x2b7
 1064 055e 51040000 		.4byte	0x451
 1065 0562 02       		.byte	0x2
 1066 0563 23       		.byte	0x23
 1067 0564 10       		.uleb128 0x10
 1068 0565 0C       		.uleb128 0xc
 1069 0566 46435200 		.ascii	"FCR\000"
 1070 056a 09       		.byte	0x9
 1071 056b B802     		.2byte	0x2b8
 1072 056d 51040000 		.4byte	0x451
 1073 0571 02       		.byte	0x2
 1074 0572 23       		.byte	0x23
 1075 0573 14       		.uleb128 0x14
 1076 0574 00       		.byte	0
 1077 0575 13       		.uleb128 0x13
 1078 0576 F2040000 		.4byte	.LASF63
 1079 057a 09       		.byte	0x9
 1080 057b B902     		.2byte	0x2b9
ARM GAS  /var/folders/ng/s8655sgx1ys_4lf9jzm2w6n00000gn/T//cc85cRS6.s 			page 20


 1081 057d 12050000 		.4byte	0x512
 1082 0581 11       		.uleb128 0x11
 1083 0582 28       		.byte	0x28
 1084 0583 09       		.byte	0x9
 1085 0584 F603     		.2byte	0x3f6
 1086 0586 B6060000 		.4byte	0x6b6
 1087 058a 0C       		.uleb128 0xc
 1088 058b 43523100 		.ascii	"CR1\000"
 1089 058f 09       		.byte	0x9
 1090 0590 F803     		.2byte	0x3f8
 1091 0592 08050000 		.4byte	0x508
 1092 0596 02       		.byte	0x2
 1093 0597 23       		.byte	0x23
 1094 0598 00       		.uleb128 0
 1095 0599 12       		.uleb128 0x12
 1096 059a 0E040000 		.4byte	.LASF64
 1097 059e 09       		.byte	0x9
 1098 059f F903     		.2byte	0x3f9
 1099 05a1 78000000 		.4byte	0x78
 1100 05a5 02       		.byte	0x2
 1101 05a6 23       		.byte	0x23
 1102 05a7 02       		.uleb128 0x2
 1103 05a8 0C       		.uleb128 0xc
 1104 05a9 43523200 		.ascii	"CR2\000"
 1105 05ad 09       		.byte	0x9
 1106 05ae FA03     		.2byte	0x3fa
 1107 05b0 08050000 		.4byte	0x508
 1108 05b4 02       		.byte	0x2
 1109 05b5 23       		.byte	0x23
 1110 05b6 04       		.uleb128 0x4
 1111 05b7 12       		.uleb128 0x12
 1112 05b8 1F040000 		.4byte	.LASF65
 1113 05bc 09       		.byte	0x9
 1114 05bd FB03     		.2byte	0x3fb
 1115 05bf 78000000 		.4byte	0x78
 1116 05c3 02       		.byte	0x2
 1117 05c4 23       		.byte	0x23
 1118 05c5 06       		.uleb128 0x6
 1119 05c6 12       		.uleb128 0x12
 1120 05c7 48050000 		.4byte	.LASF66
 1121 05cb 09       		.byte	0x9
 1122 05cc FC03     		.2byte	0x3fc
 1123 05ce 08050000 		.4byte	0x508
 1124 05d2 02       		.byte	0x2
 1125 05d3 23       		.byte	0x23
 1126 05d4 08       		.uleb128 0x8
 1127 05d5 12       		.uleb128 0x12
 1128 05d6 40030000 		.4byte	.LASF67
 1129 05da 09       		.byte	0x9
 1130 05db FD03     		.2byte	0x3fd
 1131 05dd 78000000 		.4byte	0x78
 1132 05e1 02       		.byte	0x2
 1133 05e2 23       		.byte	0x23
 1134 05e3 0A       		.uleb128 0xa
 1135 05e4 12       		.uleb128 0x12
 1136 05e5 4D050000 		.4byte	.LASF68
 1137 05e9 09       		.byte	0x9
ARM GAS  /var/folders/ng/s8655sgx1ys_4lf9jzm2w6n00000gn/T//cc85cRS6.s 			page 21


 1138 05ea FE03     		.2byte	0x3fe
 1139 05ec 08050000 		.4byte	0x508
 1140 05f0 02       		.byte	0x2
 1141 05f1 23       		.byte	0x23
 1142 05f2 0C       		.uleb128 0xc
 1143 05f3 12       		.uleb128 0x12
 1144 05f4 4A030000 		.4byte	.LASF69
 1145 05f8 09       		.byte	0x9
 1146 05f9 FF03     		.2byte	0x3ff
 1147 05fb 78000000 		.4byte	0x78
 1148 05ff 02       		.byte	0x2
 1149 0600 23       		.byte	0x23
 1150 0601 0E       		.uleb128 0xe
 1151 0602 0C       		.uleb128 0xc
 1152 0603 445200   		.ascii	"DR\000"
 1153 0606 09       		.byte	0x9
 1154 0607 0004     		.2byte	0x400
 1155 0609 08050000 		.4byte	0x508
 1156 060d 02       		.byte	0x2
 1157 060e 23       		.byte	0x23
 1158 060f 10       		.uleb128 0x10
 1159 0610 12       		.uleb128 0x12
 1160 0611 54030000 		.4byte	.LASF70
 1161 0615 09       		.byte	0x9
 1162 0616 0104     		.2byte	0x401
 1163 0618 78000000 		.4byte	0x78
 1164 061c 02       		.byte	0x2
 1165 061d 23       		.byte	0x23
 1166 061e 12       		.uleb128 0x12
 1167 061f 0C       		.uleb128 0xc
 1168 0620 53523100 		.ascii	"SR1\000"
 1169 0624 09       		.byte	0x9
 1170 0625 0204     		.2byte	0x402
 1171 0627 08050000 		.4byte	0x508
 1172 062b 02       		.byte	0x2
 1173 062c 23       		.byte	0x23
 1174 062d 14       		.uleb128 0x14
 1175 062e 12       		.uleb128 0x12
 1176 062f 44040000 		.4byte	.LASF71
 1177 0633 09       		.byte	0x9
 1178 0634 0304     		.2byte	0x403
 1179 0636 78000000 		.4byte	0x78
 1180 063a 02       		.byte	0x2
 1181 063b 23       		.byte	0x23
 1182 063c 16       		.uleb128 0x16
 1183 063d 0C       		.uleb128 0xc
 1184 063e 53523200 		.ascii	"SR2\000"
 1185 0642 09       		.byte	0x9
 1186 0643 0404     		.2byte	0x404
 1187 0645 08050000 		.4byte	0x508
 1188 0649 02       		.byte	0x2
 1189 064a 23       		.byte	0x23
 1190 064b 18       		.uleb128 0x18
 1191 064c 12       		.uleb128 0x12
 1192 064d 65030000 		.4byte	.LASF72
 1193 0651 09       		.byte	0x9
 1194 0652 0504     		.2byte	0x405
ARM GAS  /var/folders/ng/s8655sgx1ys_4lf9jzm2w6n00000gn/T//cc85cRS6.s 			page 22


 1195 0654 78000000 		.4byte	0x78
 1196 0658 02       		.byte	0x2
 1197 0659 23       		.byte	0x23
 1198 065a 1A       		.uleb128 0x1a
 1199 065b 0C       		.uleb128 0xc
 1200 065c 43435200 		.ascii	"CCR\000"
 1201 0660 09       		.byte	0x9
 1202 0661 0604     		.2byte	0x406
 1203 0663 08050000 		.4byte	0x508
 1204 0667 02       		.byte	0x2
 1205 0668 23       		.byte	0x23
 1206 0669 1C       		.uleb128 0x1c
 1207 066a 12       		.uleb128 0x12
 1208 066b 2F050000 		.4byte	.LASF73
 1209 066f 09       		.byte	0x9
 1210 0670 0704     		.2byte	0x407
 1211 0672 78000000 		.4byte	0x78
 1212 0676 02       		.byte	0x2
 1213 0677 23       		.byte	0x23
 1214 0678 1E       		.uleb128 0x1e
 1215 0679 12       		.uleb128 0x12
 1216 067a 45000000 		.4byte	.LASF74
 1217 067e 09       		.byte	0x9
 1218 067f 0804     		.2byte	0x408
 1219 0681 08050000 		.4byte	0x508
 1220 0685 02       		.byte	0x2
 1221 0686 23       		.byte	0x23
 1222 0687 20       		.uleb128 0x20
 1223 0688 12       		.uleb128 0x12
 1224 0689 82030000 		.4byte	.LASF75
 1225 068d 09       		.byte	0x9
 1226 068e 0904     		.2byte	0x409
 1227 0690 78000000 		.4byte	0x78
 1228 0694 02       		.byte	0x2
 1229 0695 23       		.byte	0x23
 1230 0696 22       		.uleb128 0x22
 1231 0697 12       		.uleb128 0x12
 1232 0698 85010000 		.4byte	.LASF76
 1233 069c 09       		.byte	0x9
 1234 069d 0A04     		.2byte	0x40a
 1235 069f 08050000 		.4byte	0x508
 1236 06a3 02       		.byte	0x2
 1237 06a4 23       		.byte	0x23
 1238 06a5 24       		.uleb128 0x24
 1239 06a6 12       		.uleb128 0x12
 1240 06a7 77040000 		.4byte	.LASF77
 1241 06ab 09       		.byte	0x9
 1242 06ac 0B04     		.2byte	0x40b
 1243 06ae 78000000 		.4byte	0x78
 1244 06b2 02       		.byte	0x2
 1245 06b3 23       		.byte	0x23
 1246 06b4 26       		.uleb128 0x26
 1247 06b5 00       		.byte	0
 1248 06b6 13       		.uleb128 0x13
 1249 06b7 80050000 		.4byte	.LASF78
 1250 06bb 09       		.byte	0x9
 1251 06bc 0C04     		.2byte	0x40c
ARM GAS  /var/folders/ng/s8655sgx1ys_4lf9jzm2w6n00000gn/T//cc85cRS6.s 			page 23


 1252 06be 81050000 		.4byte	0x581
 1253 06c2 08       		.uleb128 0x8
 1254 06c3 0C       		.byte	0xc
 1255 06c4 0A       		.byte	0xa
 1256 06c5 DA       		.byte	0xda
 1257 06c6 11070000 		.4byte	0x711
 1258 06ca 06       		.uleb128 0x6
 1259 06cb 87040000 		.4byte	.LASF79
 1260 06cf 0A       		.byte	0xa
 1261 06d0 DB       		.byte	0xdb
 1262 06d1 11070000 		.4byte	0x711
 1263 06d5 02       		.byte	0x2
 1264 06d6 23       		.byte	0x23
 1265 06d7 00       		.uleb128 0
 1266 06d8 06       		.uleb128 0x6
 1267 06d9 3F040000 		.4byte	.LASF80
 1268 06dd 0A       		.byte	0xa
 1269 06de DC       		.byte	0xdc
 1270 06df 17070000 		.4byte	0x717
 1271 06e3 02       		.byte	0x2
 1272 06e4 23       		.byte	0x23
 1273 06e5 04       		.uleb128 0x4
 1274 06e6 06       		.uleb128 0x6
 1275 06e7 EF010000 		.4byte	.LASF81
 1276 06eb 0A       		.byte	0xa
 1277 06ec DD       		.byte	0xdd
 1278 06ed 54000000 		.4byte	0x54
 1279 06f1 02       		.byte	0x2
 1280 06f2 23       		.byte	0x23
 1281 06f3 08       		.uleb128 0x8
 1282 06f4 06       		.uleb128 0x6
 1283 06f5 C0010000 		.4byte	.LASF82
 1284 06f9 0A       		.byte	0xa
 1285 06fa DF       		.byte	0xdf
 1286 06fb 54000000 		.4byte	0x54
 1287 06ff 02       		.byte	0x2
 1288 0700 23       		.byte	0x23
 1289 0701 09       		.uleb128 0x9
 1290 0702 06       		.uleb128 0x6
 1291 0703 69000000 		.4byte	.LASF83
 1292 0707 0A       		.byte	0xa
 1293 0708 E0       		.byte	0xe0
 1294 0709 54000000 		.4byte	0x54
 1295 070d 02       		.byte	0x2
 1296 070e 23       		.byte	0x23
 1297 070f 0A       		.uleb128 0xa
 1298 0710 00       		.byte	0
 1299 0711 09       		.uleb128 0x9
 1300 0712 04       		.byte	0x4
 1301 0713 75050000 		.4byte	0x575
 1302 0717 09       		.uleb128 0x9
 1303 0718 04       		.byte	0x4
 1304 0719 51040000 		.4byte	0x451
 1305 071d 03       		.uleb128 0x3
 1306 071e 6F030000 		.4byte	.LASF84
 1307 0722 0A       		.byte	0xa
 1308 0723 E1       		.byte	0xe1
ARM GAS  /var/folders/ng/s8655sgx1ys_4lf9jzm2w6n00000gn/T//cc85cRS6.s 			page 24


 1309 0724 C2060000 		.4byte	0x6c2
 1310 0728 09       		.uleb128 0x9
 1311 0729 04       		.byte	0x4
 1312 072a 2E070000 		.4byte	0x72e
 1313 072e 10       		.uleb128 0x10
 1314 072f 1D070000 		.4byte	0x71d
 1315 0733 14       		.uleb128 0x14
 1316 0734 01       		.byte	0x1
 1317 0735 0B       		.byte	0xb
 1318 0736 5A       		.byte	0x5a
 1319 0737 60070000 		.4byte	0x760
 1320 073b 15       		.uleb128 0x15
 1321 073c C8000000 		.4byte	.LASF85
 1322 0740 00       		.sleb128 0
 1323 0741 15       		.uleb128 0x15
 1324 0742 8B020000 		.4byte	.LASF86
 1325 0746 01       		.sleb128 1
 1326 0747 15       		.uleb128 0x15
 1327 0748 88000000 		.4byte	.LASF87
 1328 074c 02       		.sleb128 2
 1329 074d 15       		.uleb128 0x15
 1330 074e 94030000 		.4byte	.LASF88
 1331 0752 03       		.sleb128 3
 1332 0753 15       		.uleb128 0x15
 1333 0754 8E040000 		.4byte	.LASF89
 1334 0758 04       		.sleb128 4
 1335 0759 15       		.uleb128 0x15
 1336 075a 29040000 		.4byte	.LASF90
 1337 075e 05       		.sleb128 5
 1338 075f 00       		.byte	0
 1339 0760 03       		.uleb128 0x3
 1340 0761 20030000 		.4byte	.LASF91
 1341 0765 0B       		.byte	0xb
 1342 0766 61       		.byte	0x61
 1343 0767 33070000 		.4byte	0x733
 1344 076b 13       		.uleb128 0x13
 1345 076c 5C010000 		.4byte	.LASF92
 1346 0770 0C       		.byte	0xc
 1347 0771 3501     		.2byte	0x135
 1348 0773 78000000 		.4byte	0x78
 1349 0777 13       		.uleb128 0x13
 1350 0778 A2030000 		.4byte	.LASF93
 1351 077c 0C       		.byte	0xc
 1352 077d 3A01     		.2byte	0x13a
 1353 077f 9C000000 		.4byte	0x9c
 1354 0783 16       		.uleb128 0x16
 1355 0784 01       		.byte	0x1
 1356 0785 0C       		.byte	0xc
 1357 0786 3F01     		.2byte	0x13f
 1358 0788 9F070000 		.4byte	0x79f
 1359 078c 15       		.uleb128 0x15
 1360 078d E5020000 		.4byte	.LASF94
 1361 0791 01       		.sleb128 1
 1362 0792 15       		.uleb128 0x15
 1363 0793 FB010000 		.4byte	.LASF95
 1364 0797 02       		.sleb128 2
 1365 0798 15       		.uleb128 0x15
ARM GAS  /var/folders/ng/s8655sgx1ys_4lf9jzm2w6n00000gn/T//cc85cRS6.s 			page 25


 1366 0799 AE010000 		.4byte	.LASF96
 1367 079d 03       		.sleb128 3
 1368 079e 00       		.byte	0
 1369 079f 13       		.uleb128 0x13
 1370 07a0 8A010000 		.4byte	.LASF97
 1371 07a4 0C       		.byte	0xc
 1372 07a5 4301     		.2byte	0x143
 1373 07a7 83070000 		.4byte	0x783
 1374 07ab 16       		.uleb128 0x16
 1375 07ac 01       		.byte	0x1
 1376 07ad 0C       		.byte	0xc
 1377 07ae 4801     		.2byte	0x148
 1378 07b0 C7070000 		.4byte	0x7c7
 1379 07b4 15       		.uleb128 0x15
 1380 07b5 4F020000 		.4byte	.LASF98
 1381 07b9 01       		.sleb128 1
 1382 07ba 15       		.uleb128 0x15
 1383 07bb 33000000 		.4byte	.LASF99
 1384 07bf 02       		.sleb128 2
 1385 07c0 15       		.uleb128 0x15
 1386 07c1 2B030000 		.4byte	.LASF100
 1387 07c5 03       		.sleb128 3
 1388 07c6 00       		.byte	0
 1389 07c7 13       		.uleb128 0x13
 1390 07c8 06000000 		.4byte	.LASF101
 1391 07cc 0C       		.byte	0xc
 1392 07cd 4C01     		.2byte	0x14c
 1393 07cf AB070000 		.4byte	0x7ab
 1394 07d3 11       		.uleb128 0x11
 1395 07d4 0C       		.byte	0xc
 1396 07d5 0C       		.byte	0xc
 1397 07d6 5101     		.2byte	0x151
 1398 07d8 0A080000 		.4byte	0x80a
 1399 07dc 12       		.uleb128 0x12
 1400 07dd CA010000 		.4byte	.LASF102
 1401 07e1 0C       		.byte	0xc
 1402 07e2 5201     		.2byte	0x152
 1403 07e4 9F070000 		.4byte	0x79f
 1404 07e8 02       		.byte	0x2
 1405 07e9 23       		.byte	0x23
 1406 07ea 00       		.uleb128 0
 1407 07eb 12       		.uleb128 0x12
 1408 07ec DA030000 		.4byte	.LASF103
 1409 07f0 0C       		.byte	0xc
 1410 07f1 5301     		.2byte	0x153
 1411 07f3 9C000000 		.4byte	0x9c
 1412 07f7 02       		.byte	0x2
 1413 07f8 23       		.byte	0x23
 1414 07f9 04       		.uleb128 0x4
 1415 07fa 12       		.uleb128 0x12
 1416 07fb AB020000 		.4byte	.LASF104
 1417 07ff 0C       		.byte	0xc
 1418 0800 5601     		.2byte	0x156
 1419 0802 C7070000 		.4byte	0x7c7
 1420 0806 02       		.byte	0x2
 1421 0807 23       		.byte	0x23
 1422 0808 08       		.uleb128 0x8
ARM GAS  /var/folders/ng/s8655sgx1ys_4lf9jzm2w6n00000gn/T//cc85cRS6.s 			page 26


 1423 0809 00       		.byte	0
 1424 080a 13       		.uleb128 0x13
 1425 080b 7B010000 		.4byte	.LASF105
 1426 080f 0C       		.byte	0xc
 1427 0810 5801     		.2byte	0x158
 1428 0812 D3070000 		.4byte	0x7d3
 1429 0816 13       		.uleb128 0x13
 1430 0817 22020000 		.4byte	.LASF106
 1431 081b 0C       		.byte	0xc
 1432 081c 5D01     		.2byte	0x15d
 1433 081e 22080000 		.4byte	0x822
 1434 0822 0B       		.uleb128 0xb
 1435 0823 22020000 		.4byte	.LASF106
 1436 0827 38       		.byte	0x38
 1437 0828 0C       		.byte	0xc
 1438 0829 6201     		.2byte	0x162
 1439 082b D5080000 		.4byte	0x8d5
 1440 082f 12       		.uleb128 0x12
 1441 0830 66010000 		.4byte	.LASF107
 1442 0834 0C       		.byte	0xc
 1443 0835 6601     		.2byte	0x166
 1444 0837 60070000 		.4byte	0x760
 1445 083b 02       		.byte	0x2
 1446 083c 23       		.byte	0x23
 1447 083d 00       		.uleb128 0
 1448 083e 12       		.uleb128 0x12
 1449 083f B3040000 		.4byte	.LASF108
 1450 0843 0C       		.byte	0xc
 1451 0844 6A01     		.2byte	0x16a
 1452 0846 D5080000 		.4byte	0x8d5
 1453 084a 02       		.byte	0x2
 1454 084b 23       		.byte	0x23
 1455 084c 04       		.uleb128 0x4
 1456 084d 12       		.uleb128 0x12
 1457 084e E8010000 		.4byte	.LASF109
 1458 0852 0C       		.byte	0xc
 1459 0853 6E01     		.2byte	0x16e
 1460 0855 77070000 		.4byte	0x777
 1461 0859 02       		.byte	0x2
 1462 085a 23       		.byte	0x23
 1463 085b 08       		.uleb128 0x8
 1464 085c 12       		.uleb128 0x12
 1465 085d 6C010000 		.4byte	.LASF110
 1466 0861 0C       		.byte	0xc
 1467 0862 7401     		.2byte	0x174
 1468 0864 9F040000 		.4byte	0x49f
 1469 0868 02       		.byte	0x2
 1470 0869 23       		.byte	0x23
 1471 086a 0C       		.uleb128 0xc
 1472 086b 12       		.uleb128 0x12
 1473 086c AD030000 		.4byte	.LASF111
 1474 0870 0C       		.byte	0xc
 1475 0871 8001     		.2byte	0x180
 1476 0873 70020000 		.4byte	0x270
 1477 0877 02       		.byte	0x2
 1478 0878 23       		.byte	0x23
 1479 0879 1C       		.uleb128 0x1c
ARM GAS  /var/folders/ng/s8655sgx1ys_4lf9jzm2w6n00000gn/T//cc85cRS6.s 			page 27


 1480 087a 12       		.uleb128 0x12
 1481 087b 04010000 		.4byte	.LASF112
 1482 087f 0C       		.byte	0xc
 1483 0880 8401     		.2byte	0x184
 1484 0882 6B070000 		.4byte	0x76b
 1485 0886 02       		.byte	0x2
 1486 0887 23       		.byte	0x23
 1487 0888 20       		.uleb128 0x20
 1488 0889 12       		.uleb128 0x12
 1489 088a 9E010000 		.4byte	.LASF113
 1490 088e 0C       		.byte	0xc
 1491 088f 8801     		.2byte	0x188
 1492 0891 9C000000 		.4byte	0x9c
 1493 0895 02       		.byte	0x2
 1494 0896 23       		.byte	0x23
 1495 0897 24       		.uleb128 0x24
 1496 0898 12       		.uleb128 0x12
 1497 0899 D4020000 		.4byte	.LASF114
 1498 089d 0C       		.byte	0xc
 1499 089e 8C01     		.2byte	0x18c
 1500 08a0 9C000000 		.4byte	0x9c
 1501 08a4 02       		.byte	0x2
 1502 08a5 23       		.byte	0x23
 1503 08a6 28       		.uleb128 0x28
 1504 08a7 12       		.uleb128 0x12
 1505 08a8 00000000 		.4byte	.LASF115
 1506 08ac 0C       		.byte	0xc
 1507 08ad 9001     		.2byte	0x190
 1508 08af 28070000 		.4byte	0x728
 1509 08b3 02       		.byte	0x2
 1510 08b4 23       		.byte	0x23
 1511 08b5 2C       		.uleb128 0x2c
 1512 08b6 12       		.uleb128 0x12
 1513 08b7 A8010000 		.4byte	.LASF116
 1514 08bb 0C       		.byte	0xc
 1515 08bc 9401     		.2byte	0x194
 1516 08be 28070000 		.4byte	0x728
 1517 08c2 02       		.byte	0x2
 1518 08c3 23       		.byte	0x23
 1519 08c4 30       		.uleb128 0x30
 1520 08c5 0C       		.uleb128 0xc
 1521 08c6 69326300 		.ascii	"i2c\000"
 1522 08ca 0C       		.byte	0xc
 1523 08cb 9801     		.2byte	0x198
 1524 08cd E0080000 		.4byte	0x8e0
 1525 08d1 02       		.byte	0x2
 1526 08d2 23       		.byte	0x23
 1527 08d3 34       		.uleb128 0x34
 1528 08d4 00       		.byte	0
 1529 08d5 09       		.uleb128 0x9
 1530 08d6 04       		.byte	0x4
 1531 08d7 DB080000 		.4byte	0x8db
 1532 08db 10       		.uleb128 0x10
 1533 08dc 0A080000 		.4byte	0x80a
 1534 08e0 09       		.uleb128 0x9
 1535 08e1 04       		.byte	0x4
 1536 08e2 B6060000 		.4byte	0x6b6
ARM GAS  /var/folders/ng/s8655sgx1ys_4lf9jzm2w6n00000gn/T//cc85cRS6.s 			page 28


 1537 08e6 14       		.uleb128 0x14
 1538 08e7 01       		.byte	0x1
 1539 08e8 0D       		.byte	0xd
 1540 08e9 37       		.byte	0x37
 1541 08ea FB080000 		.4byte	0x8fb
 1542 08ee 15       		.uleb128 0x15
 1543 08ef 1A000000 		.4byte	.LASF117
 1544 08f3 00       		.sleb128 0
 1545 08f4 15       		.uleb128 0x15
 1546 08f5 9D020000 		.4byte	.LASF118
 1547 08f9 01       		.sleb128 1
 1548 08fa 00       		.byte	0
 1549 08fb 03       		.uleb128 0x3
 1550 08fc D3000000 		.4byte	.LASF119
 1551 0900 0D       		.byte	0xd
 1552 0901 3A       		.byte	0x3a
 1553 0902 E6080000 		.4byte	0x8e6
 1554 0906 08       		.uleb128 0x8
 1555 0907 06       		.byte	0x6
 1556 0908 0D       		.byte	0xd
 1557 0909 3C       		.byte	0x3c
 1558 090a 33090000 		.4byte	0x933
 1559 090e 07       		.uleb128 0x7
 1560 090f 7800     		.ascii	"x\000"
 1561 0911 0D       		.byte	0xd
 1562 0912 3D       		.byte	0x3d
 1563 0913 66000000 		.4byte	0x66
 1564 0917 02       		.byte	0x2
 1565 0918 23       		.byte	0x23
 1566 0919 00       		.uleb128 0
 1567 091a 07       		.uleb128 0x7
 1568 091b 7900     		.ascii	"y\000"
 1569 091d 0D       		.byte	0xd
 1570 091e 3E       		.byte	0x3e
 1571 091f 66000000 		.4byte	0x66
 1572 0923 02       		.byte	0x2
 1573 0924 23       		.byte	0x23
 1574 0925 02       		.uleb128 0x2
 1575 0926 07       		.uleb128 0x7
 1576 0927 7A00     		.ascii	"z\000"
 1577 0929 0D       		.byte	0xd
 1578 092a 3F       		.byte	0x3f
 1579 092b 66000000 		.4byte	0x66
 1580 092f 02       		.byte	0x2
 1581 0930 23       		.byte	0x23
 1582 0931 04       		.uleb128 0x4
 1583 0932 00       		.byte	0
 1584 0933 03       		.uleb128 0x3
 1585 0934 70000000 		.4byte	.LASF120
 1586 0938 0D       		.byte	0xd
 1587 0939 40       		.byte	0x40
 1588 093a 06090000 		.4byte	0x906
 1589 093e 17       		.uleb128 0x17
 1590 093f 01       		.byte	0x1
 1591 0940 BA040000 		.4byte	.LASF124
 1592 0944 01       		.byte	0x1
 1593 0945 16       		.byte	0x16
ARM GAS  /var/folders/ng/s8655sgx1ys_4lf9jzm2w6n00000gn/T//cc85cRS6.s 			page 29


 1594 0946 01       		.byte	0x1
 1595 0947 00000000 		.4byte	.LFB119
 1596 094b 30000000 		.4byte	.LFE119
 1597 094f 00000000 		.4byte	.LLST0
 1598 0953 01       		.byte	0x1
 1599 0954 C2090000 		.4byte	0x9c2
 1600 0958 18       		.uleb128 0x18
 1601 0959 32020000 		.4byte	.LASF121
 1602 095d 01       		.byte	0x1
 1603 095e 16       		.byte	0x16
 1604 095f 54000000 		.4byte	0x54
 1605 0963 2C000000 		.4byte	.LLST1
 1606 0967 18       		.uleb128 0x18
 1607 0968 04010000 		.4byte	.LASF112
 1608 096c 01       		.byte	0x1
 1609 096d 16       		.byte	0x16
 1610 096e 54000000 		.4byte	0x54
 1611 0972 4D000000 		.4byte	.LLST2
 1612 0976 18       		.uleb128 0x18
 1613 0977 F6010000 		.4byte	.LASF122
 1614 097b 01       		.byte	0x1
 1615 097c 16       		.byte	0x16
 1616 097d 54000000 		.4byte	0x54
 1617 0981 86000000 		.4byte	.LLST3
 1618 0985 19       		.uleb128 0x19
 1619 0986 8C050000 		.4byte	.LASF123
 1620 098a 01       		.byte	0x1
 1621 098b 18       		.byte	0x18
 1622 098c C2090000 		.4byte	0x9c2
 1623 0990 02       		.byte	0x2
 1624 0991 91       		.byte	0x91
 1625 0992 74       		.sleb128 -12
 1626 0993 1A       		.uleb128 0x1a
 1627 0994 2C000000 		.4byte	.LVL4
 1628 0998 200C0000 		.4byte	0xc20
 1629 099c 1B       		.uleb128 0x1b
 1630 099d 01       		.byte	0x1
 1631 099e 53       		.byte	0x53
 1632 099f 01       		.byte	0x1
 1633 09a0 32       		.byte	0x32
 1634 09a1 1B       		.uleb128 0x1b
 1635 09a2 01       		.byte	0x1
 1636 09a3 52       		.byte	0x52
 1637 09a4 02       		.byte	0x2
 1638 09a5 91       		.byte	0x91
 1639 09a6 74       		.sleb128 -12
 1640 09a7 1B       		.uleb128 0x1b
 1641 09a8 01       		.byte	0x1
 1642 09a9 51       		.byte	0x51
 1643 09aa 02       		.byte	0x2
 1644 09ab 74       		.byte	0x74
 1645 09ac 00       		.sleb128 0
 1646 09ad 1B       		.uleb128 0x1b
 1647 09ae 02       		.byte	0x2
 1648 09af 7D       		.byte	0x7d
 1649 09b0 08       		.sleb128 8
 1650 09b1 02       		.byte	0x2
ARM GAS  /var/folders/ng/s8655sgx1ys_4lf9jzm2w6n00000gn/T//cc85cRS6.s 			page 30


 1651 09b2 09       		.byte	0x9
 1652 09b3 FF       		.byte	0xff
 1653 09b4 1B       		.uleb128 0x1b
 1654 09b5 02       		.byte	0x2
 1655 09b6 7D       		.byte	0x7d
 1656 09b7 04       		.sleb128 4
 1657 09b8 01       		.byte	0x1
 1658 09b9 30       		.byte	0x30
 1659 09ba 1B       		.uleb128 0x1b
 1660 09bb 02       		.byte	0x2
 1661 09bc 7D       		.byte	0x7d
 1662 09bd 00       		.sleb128 0
 1663 09be 01       		.byte	0x1
 1664 09bf 30       		.byte	0x30
 1665 09c0 00       		.byte	0
 1666 09c1 00       		.byte	0
 1667 09c2 1C       		.uleb128 0x1c
 1668 09c3 54000000 		.4byte	0x54
 1669 09c7 D2090000 		.4byte	0x9d2
 1670 09cb 1D       		.uleb128 0x1d
 1671 09cc 56040000 		.4byte	0x456
 1672 09d0 01       		.byte	0x1
 1673 09d1 00       		.byte	0
 1674 09d2 1E       		.uleb128 0x1e
 1675 09d3 01       		.byte	0x1
 1676 09d4 7A020000 		.4byte	.LASF126
 1677 09d8 01       		.byte	0x1
 1678 09d9 1C       		.byte	0x1c
 1679 09da 01       		.byte	0x1
 1680 09db 54000000 		.4byte	0x54
 1681 09df 00000000 		.4byte	.LFB120
 1682 09e3 3A000000 		.4byte	.LFE120
 1683 09e7 B3000000 		.4byte	.LLST4
 1684 09eb 01       		.byte	0x1
 1685 09ec 460A0000 		.4byte	0xa46
 1686 09f0 18       		.uleb128 0x18
 1687 09f1 32020000 		.4byte	.LASF121
 1688 09f5 01       		.byte	0x1
 1689 09f6 1C       		.byte	0x1c
 1690 09f7 54000000 		.4byte	0x54
 1691 09fb DF000000 		.4byte	.LLST5
 1692 09ff 18       		.uleb128 0x18
 1693 0a00 04010000 		.4byte	.LASF112
 1694 0a04 01       		.byte	0x1
 1695 0a05 1C       		.byte	0x1c
 1696 0a06 54000000 		.4byte	0x54
 1697 0a0a 00010000 		.4byte	.LLST6
 1698 0a0e 19       		.uleb128 0x19
 1699 0a0f F6010000 		.4byte	.LASF122
 1700 0a13 01       		.byte	0x1
 1701 0a14 1E       		.byte	0x1e
 1702 0a15 54000000 		.4byte	0x54
 1703 0a19 02       		.byte	0x2
 1704 0a1a 91       		.byte	0x91
 1705 0a1b 77       		.sleb128 -9
 1706 0a1c 1A       		.uleb128 0x1a
 1707 0a1d 32000000 		.4byte	.LVL9
ARM GAS  /var/folders/ng/s8655sgx1ys_4lf9jzm2w6n00000gn/T//cc85cRS6.s 			page 31


 1708 0a21 200C0000 		.4byte	0xc20
 1709 0a25 1B       		.uleb128 0x1b
 1710 0a26 01       		.byte	0x1
 1711 0a27 53       		.byte	0x53
 1712 0a28 01       		.byte	0x1
 1713 0a29 31       		.byte	0x31
 1714 0a2a 1B       		.uleb128 0x1b
 1715 0a2b 01       		.byte	0x1
 1716 0a2c 52       		.byte	0x52
 1717 0a2d 02       		.byte	0x2
 1718 0a2e 91       		.byte	0x91
 1719 0a2f 6F       		.sleb128 -17
 1720 0a30 1B       		.uleb128 0x1b
 1721 0a31 02       		.byte	0x2
 1722 0a32 7D       		.byte	0x7d
 1723 0a33 08       		.sleb128 8
 1724 0a34 02       		.byte	0x2
 1725 0a35 09       		.byte	0x9
 1726 0a36 FF       		.byte	0xff
 1727 0a37 1B       		.uleb128 0x1b
 1728 0a38 02       		.byte	0x2
 1729 0a39 7D       		.byte	0x7d
 1730 0a3a 04       		.sleb128 4
 1731 0a3b 01       		.byte	0x1
 1732 0a3c 31       		.byte	0x31
 1733 0a3d 1B       		.uleb128 0x1b
 1734 0a3e 02       		.byte	0x2
 1735 0a3f 7D       		.byte	0x7d
 1736 0a40 00       		.sleb128 0
 1737 0a41 02       		.byte	0x2
 1738 0a42 91       		.byte	0x91
 1739 0a43 77       		.sleb128 -9
 1740 0a44 00       		.byte	0
 1741 0a45 00       		.byte	0
 1742 0a46 17       		.uleb128 0x17
 1743 0a47 01       		.byte	0x1
 1744 0a48 52050000 		.4byte	.LASF125
 1745 0a4c 01       		.byte	0x1
 1746 0a4d 2A       		.byte	0x2a
 1747 0a4e 01       		.byte	0x1
 1748 0a4f 00000000 		.4byte	.LFB121
 1749 0a53 3C000000 		.4byte	.LFE121
 1750 0a57 1F010000 		.4byte	.LLST7
 1751 0a5b 01       		.byte	0x1
 1752 0a5c DA0A0000 		.4byte	0xada
 1753 0a60 1F       		.uleb128 0x1f
 1754 0a61 06000000 		.4byte	.LVL10
 1755 0a65 5C0C0000 		.4byte	0xc5c
 1756 0a69 20       		.uleb128 0x20
 1757 0a6a 1A000000 		.4byte	.LVL11
 1758 0a6e 660C0000 		.4byte	0xc66
 1759 0a72 800A0000 		.4byte	0xa80
 1760 0a76 1B       		.uleb128 0x1b
 1761 0a77 01       		.byte	0x1
 1762 0a78 51       		.byte	0x51
 1763 0a79 05       		.byte	0x5
 1764 0a7a 03       		.byte	0x3
ARM GAS  /var/folders/ng/s8655sgx1ys_4lf9jzm2w6n00000gn/T//cc85cRS6.s 			page 32


 1765 0a7b 00000000 		.4byte	.LANCHOR0
 1766 0a7f 00       		.byte	0
 1767 0a80 20       		.uleb128 0x20
 1768 0a81 24000000 		.4byte	.LVL12
 1769 0a85 3E090000 		.4byte	0x93e
 1770 0a89 9F0A0000 		.4byte	0xa9f
 1771 0a8d 1B       		.uleb128 0x1b
 1772 0a8e 01       		.byte	0x1
 1773 0a8f 52       		.byte	0x52
 1774 0a90 02       		.byte	0x2
 1775 0a91 08       		.byte	0x8
 1776 0a92 77       		.byte	0x77
 1777 0a93 1B       		.uleb128 0x1b
 1778 0a94 01       		.byte	0x1
 1779 0a95 51       		.byte	0x51
 1780 0a96 02       		.byte	0x2
 1781 0a97 08       		.byte	0x8
 1782 0a98 20       		.byte	0x20
 1783 0a99 1B       		.uleb128 0x1b
 1784 0a9a 01       		.byte	0x1
 1785 0a9b 50       		.byte	0x50
 1786 0a9c 01       		.byte	0x1
 1787 0a9d 30       		.byte	0x30
 1788 0a9e 00       		.byte	0
 1789 0a9f 20       		.uleb128 0x20
 1790 0aa0 2E000000 		.4byte	.LVL13
 1791 0aa4 3E090000 		.4byte	0x93e
 1792 0aa8 BD0A0000 		.4byte	0xabd
 1793 0aac 1B       		.uleb128 0x1b
 1794 0aad 01       		.byte	0x1
 1795 0aae 52       		.byte	0x52
 1796 0aaf 01       		.byte	0x1
 1797 0ab0 38       		.byte	0x38
 1798 0ab1 1B       		.uleb128 0x1b
 1799 0ab2 01       		.byte	0x1
 1800 0ab3 51       		.byte	0x51
 1801 0ab4 02       		.byte	0x2
 1802 0ab5 08       		.byte	0x8
 1803 0ab6 23       		.byte	0x23
 1804 0ab7 1B       		.uleb128 0x1b
 1805 0ab8 01       		.byte	0x1
 1806 0ab9 50       		.byte	0x50
 1807 0aba 01       		.byte	0x1
 1808 0abb 30       		.byte	0x30
 1809 0abc 00       		.byte	0
 1810 0abd 21       		.uleb128 0x21
 1811 0abe 3C000000 		.4byte	.LVL14
 1812 0ac2 01       		.byte	0x1
 1813 0ac3 3E090000 		.4byte	0x93e
 1814 0ac7 1B       		.uleb128 0x1b
 1815 0ac8 01       		.byte	0x1
 1816 0ac9 52       		.byte	0x52
 1817 0aca 02       		.byte	0x2
 1818 0acb 09       		.byte	0x9
 1819 0acc 8F       		.byte	0x8f
 1820 0acd 1B       		.uleb128 0x1b
 1821 0ace 01       		.byte	0x1
ARM GAS  /var/folders/ng/s8655sgx1ys_4lf9jzm2w6n00000gn/T//cc85cRS6.s 			page 33


 1822 0acf 51       		.byte	0x51
 1823 0ad0 02       		.byte	0x2
 1824 0ad1 08       		.byte	0x8
 1825 0ad2 20       		.byte	0x20
 1826 0ad3 1B       		.uleb128 0x1b
 1827 0ad4 01       		.byte	0x1
 1828 0ad5 50       		.byte	0x50
 1829 0ad6 01       		.byte	0x1
 1830 0ad7 31       		.byte	0x31
 1831 0ad8 00       		.byte	0
 1832 0ad9 00       		.byte	0
 1833 0ada 1E       		.uleb128 0x1e
 1834 0adb 01       		.byte	0x1
 1835 0adc C5020000 		.4byte	.LASF127
 1836 0ae0 01       		.byte	0x1
 1837 0ae1 33       		.byte	0x33
 1838 0ae2 01       		.byte	0x1
 1839 0ae3 33090000 		.4byte	0x933
 1840 0ae7 00000000 		.4byte	.LFB122
 1841 0aeb 74000000 		.4byte	.LFE122
 1842 0aef 3F010000 		.4byte	.LLST8
 1843 0af3 01       		.byte	0x1
 1844 0af4 BE0B0000 		.4byte	0xbbe
 1845 0af8 18       		.uleb128 0x18
 1846 0af9 AB000000 		.4byte	.LASF128
 1847 0afd 01       		.byte	0x1
 1848 0afe 33       		.byte	0x33
 1849 0aff FB080000 		.4byte	0x8fb
 1850 0b03 5F010000 		.4byte	.LLST9
 1851 0b07 22       		.uleb128 0x22
 1852 0b08 61000000 		.4byte	.LASF129
 1853 0b0c 01       		.byte	0x1
 1854 0b0d 35       		.byte	0x35
 1855 0b0e 33090000 		.4byte	0x933
 1856 0b12 8B010000 		.4byte	.LLST10
 1857 0b16 22       		.uleb128 0x22
 1858 0b17 32020000 		.4byte	.LASF121
 1859 0b1b 01       		.byte	0x1
 1860 0b1c 36       		.byte	0x36
 1861 0b1d 54000000 		.4byte	0x54
 1862 0b21 43020000 		.4byte	.LLST11
 1863 0b25 20       		.uleb128 0x20
 1864 0b26 26000000 		.4byte	.LVL18
 1865 0b2a D2090000 		.4byte	0x9d2
 1866 0b2e 3F0B0000 		.4byte	0xb3f
 1867 0b32 1B       		.uleb128 0x1b
 1868 0b33 01       		.byte	0x1
 1869 0b34 51       		.byte	0x51
 1870 0b35 02       		.byte	0x2
 1871 0b36 08       		.byte	0x8
 1872 0b37 29       		.byte	0x29
 1873 0b38 1B       		.uleb128 0x1b
 1874 0b39 01       		.byte	0x1
 1875 0b3a 50       		.byte	0x50
 1876 0b3b 02       		.byte	0x2
 1877 0b3c 75       		.byte	0x75
 1878 0b3d 00       		.sleb128 0
ARM GAS  /var/folders/ng/s8655sgx1ys_4lf9jzm2w6n00000gn/T//cc85cRS6.s 			page 34


 1879 0b3e 00       		.byte	0
 1880 0b3f 20       		.uleb128 0x20
 1881 0b40 30000000 		.4byte	.LVL19
 1882 0b44 D2090000 		.4byte	0x9d2
 1883 0b48 590B0000 		.4byte	0xb59
 1884 0b4c 1B       		.uleb128 0x1b
 1885 0b4d 01       		.byte	0x1
 1886 0b4e 51       		.byte	0x51
 1887 0b4f 02       		.byte	0x2
 1888 0b50 08       		.byte	0x8
 1889 0b51 28       		.byte	0x28
 1890 0b52 1B       		.uleb128 0x1b
 1891 0b53 01       		.byte	0x1
 1892 0b54 50       		.byte	0x50
 1893 0b55 02       		.byte	0x2
 1894 0b56 75       		.byte	0x75
 1895 0b57 00       		.sleb128 0
 1896 0b58 00       		.byte	0
 1897 0b59 20       		.uleb128 0x20
 1898 0b5a 3E000000 		.4byte	.LVL21
 1899 0b5e D2090000 		.4byte	0x9d2
 1900 0b62 730B0000 		.4byte	0xb73
 1901 0b66 1B       		.uleb128 0x1b
 1902 0b67 01       		.byte	0x1
 1903 0b68 51       		.byte	0x51
 1904 0b69 02       		.byte	0x2
 1905 0b6a 08       		.byte	0x8
 1906 0b6b 2B       		.byte	0x2b
 1907 0b6c 1B       		.uleb128 0x1b
 1908 0b6d 01       		.byte	0x1
 1909 0b6e 50       		.byte	0x50
 1910 0b6f 02       		.byte	0x2
 1911 0b70 75       		.byte	0x75
 1912 0b71 00       		.sleb128 0
 1913 0b72 00       		.byte	0
 1914 0b73 20       		.uleb128 0x20
 1915 0b74 48000000 		.4byte	.LVL22
 1916 0b78 D2090000 		.4byte	0x9d2
 1917 0b7c 8D0B0000 		.4byte	0xb8d
 1918 0b80 1B       		.uleb128 0x1b
 1919 0b81 01       		.byte	0x1
 1920 0b82 51       		.byte	0x51
 1921 0b83 02       		.byte	0x2
 1922 0b84 08       		.byte	0x8
 1923 0b85 2A       		.byte	0x2a
 1924 0b86 1B       		.uleb128 0x1b
 1925 0b87 01       		.byte	0x1
 1926 0b88 50       		.byte	0x50
 1927 0b89 02       		.byte	0x2
 1928 0b8a 75       		.byte	0x75
 1929 0b8b 00       		.sleb128 0
 1930 0b8c 00       		.byte	0
 1931 0b8d 20       		.uleb128 0x20
 1932 0b8e 56000000 		.4byte	.LVL24
 1933 0b92 D2090000 		.4byte	0x9d2
 1934 0b96 A70B0000 		.4byte	0xba7
 1935 0b9a 1B       		.uleb128 0x1b
ARM GAS  /var/folders/ng/s8655sgx1ys_4lf9jzm2w6n00000gn/T//cc85cRS6.s 			page 35


 1936 0b9b 01       		.byte	0x1
 1937 0b9c 51       		.byte	0x51
 1938 0b9d 02       		.byte	0x2
 1939 0b9e 08       		.byte	0x8
 1940 0b9f 2D       		.byte	0x2d
 1941 0ba0 1B       		.uleb128 0x1b
 1942 0ba1 01       		.byte	0x1
 1943 0ba2 50       		.byte	0x50
 1944 0ba3 02       		.byte	0x2
 1945 0ba4 75       		.byte	0x75
 1946 0ba5 00       		.sleb128 0
 1947 0ba6 00       		.byte	0
 1948 0ba7 1A       		.uleb128 0x1a
 1949 0ba8 60000000 		.4byte	.LVL25
 1950 0bac D2090000 		.4byte	0x9d2
 1951 0bb0 1B       		.uleb128 0x1b
 1952 0bb1 01       		.byte	0x1
 1953 0bb2 51       		.byte	0x51
 1954 0bb3 02       		.byte	0x2
 1955 0bb4 08       		.byte	0x8
 1956 0bb5 2C       		.byte	0x2c
 1957 0bb6 1B       		.uleb128 0x1b
 1958 0bb7 01       		.byte	0x1
 1959 0bb8 50       		.byte	0x50
 1960 0bb9 02       		.byte	0x2
 1961 0bba 75       		.byte	0x75
 1962 0bbb 00       		.sleb128 0
 1963 0bbc 00       		.byte	0
 1964 0bbd 00       		.byte	0
 1965 0bbe 1E       		.uleb128 0x1e
 1966 0bbf 01       		.byte	0x1
 1967 0bc0 0C050000 		.4byte	.LASF130
 1968 0bc4 01       		.byte	0x1
 1969 0bc5 44       		.byte	0x44
 1970 0bc6 01       		.byte	0x1
 1971 0bc7 42000000 		.4byte	0x42
 1972 0bcb 00000000 		.4byte	.LFB123
 1973 0bcf 0E000000 		.4byte	.LFE123
 1974 0bd3 6E020000 		.4byte	.LLST12
 1975 0bd7 01       		.byte	0x1
 1976 0bd8 F30B0000 		.4byte	0xbf3
 1977 0bdc 1A       		.uleb128 0x1a
 1978 0bdd 0A000000 		.4byte	.LVL28
 1979 0be1 D2090000 		.4byte	0x9d2
 1980 0be5 1B       		.uleb128 0x1b
 1981 0be6 01       		.byte	0x1
 1982 0be7 51       		.byte	0x51
 1983 0be8 02       		.byte	0x2
 1984 0be9 08       		.byte	0x8
 1985 0bea 26       		.byte	0x26
 1986 0beb 1B       		.uleb128 0x1b
 1987 0bec 01       		.byte	0x1
 1988 0bed 50       		.byte	0x50
 1989 0bee 02       		.byte	0x2
 1990 0bef 08       		.byte	0x8
 1991 0bf0 6A       		.byte	0x6a
 1992 0bf1 00       		.byte	0
ARM GAS  /var/folders/ng/s8655sgx1ys_4lf9jzm2w6n00000gn/T//cc85cRS6.s 			page 36


 1993 0bf2 00       		.byte	0
 1994 0bf3 19       		.uleb128 0x19
 1995 0bf4 0D030000 		.4byte	.LASF131
 1996 0bf8 01       		.byte	0x1
 1997 0bf9 10       		.byte	0x10
 1998 0bfa DB080000 		.4byte	0x8db
 1999 0bfe 05       		.byte	0x5
 2000 0bff 03       		.byte	0x3
 2001 0c00 00000000 		.4byte	imu_config
 2002 0c04 23       		.uleb128 0x23
 2003 0c05 7B000000 		.4byte	.LASF132
 2004 0c09 0E       		.byte	0xe
 2005 0c0a 9806     		.2byte	0x698
 2006 0c0c 0D050000 		.4byte	0x50d
 2007 0c10 01       		.byte	0x1
 2008 0c11 01       		.byte	0x1
 2009 0c12 23       		.uleb128 0x23
 2010 0c13 81040000 		.4byte	.LASF133
 2011 0c17 0C       		.byte	0xc
 2012 0c18 AE01     		.2byte	0x1ae
 2013 0c1a 16080000 		.4byte	0x816
 2014 0c1e 01       		.byte	0x1
 2015 0c1f 01       		.byte	0x1
 2016 0c20 24       		.uleb128 0x24
 2017 0c21 01       		.byte	0x1
 2018 0c22 92000000 		.4byte	.LASF137
 2019 0c26 0B       		.byte	0xb
 2020 0c27 84       		.byte	0x84
 2021 0c28 01       		.byte	0x1
 2022 0c29 FA000000 		.4byte	0xfa
 2023 0c2d 01       		.byte	0x1
 2024 0c2e 560C0000 		.4byte	0xc56
 2025 0c32 25       		.uleb128 0x25
 2026 0c33 560C0000 		.4byte	0xc56
 2027 0c37 25       		.uleb128 0x25
 2028 0c38 6B070000 		.4byte	0x76b
 2029 0c3c 25       		.uleb128 0x25
 2030 0c3d FD040000 		.4byte	0x4fd
 2031 0c41 25       		.uleb128 0x25
 2032 0c42 30000000 		.4byte	0x30
 2033 0c46 25       		.uleb128 0x25
 2034 0c47 F7040000 		.4byte	0x4f7
 2035 0c4b 25       		.uleb128 0x25
 2036 0c4c 30000000 		.4byte	0x30
 2037 0c50 25       		.uleb128 0x25
 2038 0c51 10010000 		.4byte	0x110
 2039 0c55 00       		.byte	0
 2040 0c56 09       		.uleb128 0x9
 2041 0c57 04       		.byte	0x4
 2042 0c58 16080000 		.4byte	0x816
 2043 0c5c 26       		.uleb128 0x26
 2044 0c5d 01       		.byte	0x1
 2045 0c5e 72050000 		.4byte	.LASF138
 2046 0c62 0B       		.byte	0xb
 2047 0c63 7F       		.byte	0x7f
 2048 0c64 01       		.byte	0x1
 2049 0c65 01       		.byte	0x1
ARM GAS  /var/folders/ng/s8655sgx1ys_4lf9jzm2w6n00000gn/T//cc85cRS6.s 			page 37


 2050 0c66 27       		.uleb128 0x27
 2051 0c67 01       		.byte	0x1
 2052 0c68 A2020000 		.4byte	.LASF139
 2053 0c6c 0B       		.byte	0xb
 2054 0c6d 81       		.byte	0x81
 2055 0c6e 01       		.byte	0x1
 2056 0c6f 01       		.byte	0x1
 2057 0c70 25       		.uleb128 0x25
 2058 0c71 560C0000 		.4byte	0xc56
 2059 0c75 25       		.uleb128 0x25
 2060 0c76 D5080000 		.4byte	0x8d5
 2061 0c7a 00       		.byte	0
 2062 0c7b 00       		.byte	0
 2063              		.section	.debug_abbrev,"",%progbits
 2064              	.Ldebug_abbrev0:
 2065 0000 01       		.uleb128 0x1
 2066 0001 11       		.uleb128 0x11
 2067 0002 01       		.byte	0x1
 2068 0003 25       		.uleb128 0x25
 2069 0004 0E       		.uleb128 0xe
 2070 0005 13       		.uleb128 0x13
 2071 0006 0B       		.uleb128 0xb
 2072 0007 03       		.uleb128 0x3
 2073 0008 0E       		.uleb128 0xe
 2074 0009 1B       		.uleb128 0x1b
 2075 000a 0E       		.uleb128 0xe
 2076 000b 55       		.uleb128 0x55
 2077 000c 06       		.uleb128 0x6
 2078 000d 11       		.uleb128 0x11
 2079 000e 01       		.uleb128 0x1
 2080 000f 52       		.uleb128 0x52
 2081 0010 01       		.uleb128 0x1
 2082 0011 10       		.uleb128 0x10
 2083 0012 06       		.uleb128 0x6
 2084 0013 00       		.byte	0
 2085 0014 00       		.byte	0
 2086 0015 02       		.uleb128 0x2
 2087 0016 24       		.uleb128 0x24
 2088 0017 00       		.byte	0
 2089 0018 0B       		.uleb128 0xb
 2090 0019 0B       		.uleb128 0xb
 2091 001a 3E       		.uleb128 0x3e
 2092 001b 0B       		.uleb128 0xb
 2093 001c 03       		.uleb128 0x3
 2094 001d 08       		.uleb128 0x8
 2095 001e 00       		.byte	0
 2096 001f 00       		.byte	0
 2097 0020 03       		.uleb128 0x3
 2098 0021 16       		.uleb128 0x16
 2099 0022 00       		.byte	0
 2100 0023 03       		.uleb128 0x3
 2101 0024 0E       		.uleb128 0xe
 2102 0025 3A       		.uleb128 0x3a
 2103 0026 0B       		.uleb128 0xb
 2104 0027 3B       		.uleb128 0x3b
 2105 0028 0B       		.uleb128 0xb
 2106 0029 49       		.uleb128 0x49
ARM GAS  /var/folders/ng/s8655sgx1ys_4lf9jzm2w6n00000gn/T//cc85cRS6.s 			page 38


 2107 002a 13       		.uleb128 0x13
 2108 002b 00       		.byte	0
 2109 002c 00       		.byte	0
 2110 002d 04       		.uleb128 0x4
 2111 002e 24       		.uleb128 0x24
 2112 002f 00       		.byte	0
 2113 0030 0B       		.uleb128 0xb
 2114 0031 0B       		.uleb128 0xb
 2115 0032 3E       		.uleb128 0x3e
 2116 0033 0B       		.uleb128 0xb
 2117 0034 03       		.uleb128 0x3
 2118 0035 0E       		.uleb128 0xe
 2119 0036 00       		.byte	0
 2120 0037 00       		.byte	0
 2121 0038 05       		.uleb128 0x5
 2122 0039 13       		.uleb128 0x13
 2123 003a 01       		.byte	0x1
 2124 003b 03       		.uleb128 0x3
 2125 003c 0E       		.uleb128 0xe
 2126 003d 0B       		.uleb128 0xb
 2127 003e 0B       		.uleb128 0xb
 2128 003f 3A       		.uleb128 0x3a
 2129 0040 0B       		.uleb128 0xb
 2130 0041 3B       		.uleb128 0x3b
 2131 0042 0B       		.uleb128 0xb
 2132 0043 01       		.uleb128 0x1
 2133 0044 13       		.uleb128 0x13
 2134 0045 00       		.byte	0
 2135 0046 00       		.byte	0
 2136 0047 06       		.uleb128 0x6
 2137 0048 0D       		.uleb128 0xd
 2138 0049 00       		.byte	0
 2139 004a 03       		.uleb128 0x3
 2140 004b 0E       		.uleb128 0xe
 2141 004c 3A       		.uleb128 0x3a
 2142 004d 0B       		.uleb128 0xb
 2143 004e 3B       		.uleb128 0x3b
 2144 004f 0B       		.uleb128 0xb
 2145 0050 49       		.uleb128 0x49
 2146 0051 13       		.uleb128 0x13
 2147 0052 38       		.uleb128 0x38
 2148 0053 0A       		.uleb128 0xa
 2149 0054 00       		.byte	0
 2150 0055 00       		.byte	0
 2151 0056 07       		.uleb128 0x7
 2152 0057 0D       		.uleb128 0xd
 2153 0058 00       		.byte	0
 2154 0059 03       		.uleb128 0x3
 2155 005a 08       		.uleb128 0x8
 2156 005b 3A       		.uleb128 0x3a
 2157 005c 0B       		.uleb128 0xb
 2158 005d 3B       		.uleb128 0x3b
 2159 005e 0B       		.uleb128 0xb
 2160 005f 49       		.uleb128 0x49
 2161 0060 13       		.uleb128 0x13
 2162 0061 38       		.uleb128 0x38
 2163 0062 0A       		.uleb128 0xa
ARM GAS  /var/folders/ng/s8655sgx1ys_4lf9jzm2w6n00000gn/T//cc85cRS6.s 			page 39


 2164 0063 00       		.byte	0
 2165 0064 00       		.byte	0
 2166 0065 08       		.uleb128 0x8
 2167 0066 13       		.uleb128 0x13
 2168 0067 01       		.byte	0x1
 2169 0068 0B       		.uleb128 0xb
 2170 0069 0B       		.uleb128 0xb
 2171 006a 3A       		.uleb128 0x3a
 2172 006b 0B       		.uleb128 0xb
 2173 006c 3B       		.uleb128 0x3b
 2174 006d 0B       		.uleb128 0xb
 2175 006e 01       		.uleb128 0x1
 2176 006f 13       		.uleb128 0x13
 2177 0070 00       		.byte	0
 2178 0071 00       		.byte	0
 2179 0072 09       		.uleb128 0x9
 2180 0073 0F       		.uleb128 0xf
 2181 0074 00       		.byte	0
 2182 0075 0B       		.uleb128 0xb
 2183 0076 0B       		.uleb128 0xb
 2184 0077 49       		.uleb128 0x49
 2185 0078 13       		.uleb128 0x13
 2186 0079 00       		.byte	0
 2187 007a 00       		.byte	0
 2188 007b 0A       		.uleb128 0xa
 2189 007c 0F       		.uleb128 0xf
 2190 007d 00       		.byte	0
 2191 007e 0B       		.uleb128 0xb
 2192 007f 0B       		.uleb128 0xb
 2193 0080 00       		.byte	0
 2194 0081 00       		.byte	0
 2195 0082 0B       		.uleb128 0xb
 2196 0083 13       		.uleb128 0x13
 2197 0084 01       		.byte	0x1
 2198 0085 03       		.uleb128 0x3
 2199 0086 0E       		.uleb128 0xe
 2200 0087 0B       		.uleb128 0xb
 2201 0088 0B       		.uleb128 0xb
 2202 0089 3A       		.uleb128 0x3a
 2203 008a 0B       		.uleb128 0xb
 2204 008b 3B       		.uleb128 0x3b
 2205 008c 05       		.uleb128 0x5
 2206 008d 01       		.uleb128 0x1
 2207 008e 13       		.uleb128 0x13
 2208 008f 00       		.byte	0
 2209 0090 00       		.byte	0
 2210 0091 0C       		.uleb128 0xc
 2211 0092 0D       		.uleb128 0xd
 2212 0093 00       		.byte	0
 2213 0094 03       		.uleb128 0x3
 2214 0095 08       		.uleb128 0x8
 2215 0096 3A       		.uleb128 0x3a
 2216 0097 0B       		.uleb128 0xb
 2217 0098 3B       		.uleb128 0x3b
 2218 0099 05       		.uleb128 0x5
 2219 009a 49       		.uleb128 0x49
 2220 009b 13       		.uleb128 0x13
ARM GAS  /var/folders/ng/s8655sgx1ys_4lf9jzm2w6n00000gn/T//cc85cRS6.s 			page 40


 2221 009c 38       		.uleb128 0x38
 2222 009d 0A       		.uleb128 0xa
 2223 009e 00       		.byte	0
 2224 009f 00       		.byte	0
 2225 00a0 0D       		.uleb128 0xd
 2226 00a1 35       		.uleb128 0x35
 2227 00a2 00       		.byte	0
 2228 00a3 49       		.uleb128 0x49
 2229 00a4 13       		.uleb128 0x13
 2230 00a5 00       		.byte	0
 2231 00a6 00       		.byte	0
 2232 00a7 0E       		.uleb128 0xe
 2233 00a8 17       		.uleb128 0x17
 2234 00a9 01       		.byte	0x1
 2235 00aa 0B       		.uleb128 0xb
 2236 00ab 0B       		.uleb128 0xb
 2237 00ac 3A       		.uleb128 0x3a
 2238 00ad 0B       		.uleb128 0xb
 2239 00ae 3B       		.uleb128 0x3b
 2240 00af 0B       		.uleb128 0xb
 2241 00b0 01       		.uleb128 0x1
 2242 00b1 13       		.uleb128 0x13
 2243 00b2 00       		.byte	0
 2244 00b3 00       		.byte	0
 2245 00b4 0F       		.uleb128 0xf
 2246 00b5 0D       		.uleb128 0xd
 2247 00b6 00       		.byte	0
 2248 00b7 03       		.uleb128 0x3
 2249 00b8 0E       		.uleb128 0xe
 2250 00b9 3A       		.uleb128 0x3a
 2251 00ba 0B       		.uleb128 0xb
 2252 00bb 3B       		.uleb128 0x3b
 2253 00bc 0B       		.uleb128 0xb
 2254 00bd 49       		.uleb128 0x49
 2255 00be 13       		.uleb128 0x13
 2256 00bf 00       		.byte	0
 2257 00c0 00       		.byte	0
 2258 00c1 10       		.uleb128 0x10
 2259 00c2 26       		.uleb128 0x26
 2260 00c3 00       		.byte	0
 2261 00c4 49       		.uleb128 0x49
 2262 00c5 13       		.uleb128 0x13
 2263 00c6 00       		.byte	0
 2264 00c7 00       		.byte	0
 2265 00c8 11       		.uleb128 0x11
 2266 00c9 13       		.uleb128 0x13
 2267 00ca 01       		.byte	0x1
 2268 00cb 0B       		.uleb128 0xb
 2269 00cc 0B       		.uleb128 0xb
 2270 00cd 3A       		.uleb128 0x3a
 2271 00ce 0B       		.uleb128 0xb
 2272 00cf 3B       		.uleb128 0x3b
 2273 00d0 05       		.uleb128 0x5
 2274 00d1 01       		.uleb128 0x1
 2275 00d2 13       		.uleb128 0x13
 2276 00d3 00       		.byte	0
 2277 00d4 00       		.byte	0
ARM GAS  /var/folders/ng/s8655sgx1ys_4lf9jzm2w6n00000gn/T//cc85cRS6.s 			page 41


 2278 00d5 12       		.uleb128 0x12
 2279 00d6 0D       		.uleb128 0xd
 2280 00d7 00       		.byte	0
 2281 00d8 03       		.uleb128 0x3
 2282 00d9 0E       		.uleb128 0xe
 2283 00da 3A       		.uleb128 0x3a
 2284 00db 0B       		.uleb128 0xb
 2285 00dc 3B       		.uleb128 0x3b
 2286 00dd 05       		.uleb128 0x5
 2287 00de 49       		.uleb128 0x49
 2288 00df 13       		.uleb128 0x13
 2289 00e0 38       		.uleb128 0x38
 2290 00e1 0A       		.uleb128 0xa
 2291 00e2 00       		.byte	0
 2292 00e3 00       		.byte	0
 2293 00e4 13       		.uleb128 0x13
 2294 00e5 16       		.uleb128 0x16
 2295 00e6 00       		.byte	0
 2296 00e7 03       		.uleb128 0x3
 2297 00e8 0E       		.uleb128 0xe
 2298 00e9 3A       		.uleb128 0x3a
 2299 00ea 0B       		.uleb128 0xb
 2300 00eb 3B       		.uleb128 0x3b
 2301 00ec 05       		.uleb128 0x5
 2302 00ed 49       		.uleb128 0x49
 2303 00ee 13       		.uleb128 0x13
 2304 00ef 00       		.byte	0
 2305 00f0 00       		.byte	0
 2306 00f1 14       		.uleb128 0x14
 2307 00f2 04       		.uleb128 0x4
 2308 00f3 01       		.byte	0x1
 2309 00f4 0B       		.uleb128 0xb
 2310 00f5 0B       		.uleb128 0xb
 2311 00f6 3A       		.uleb128 0x3a
 2312 00f7 0B       		.uleb128 0xb
 2313 00f8 3B       		.uleb128 0x3b
 2314 00f9 0B       		.uleb128 0xb
 2315 00fa 01       		.uleb128 0x1
 2316 00fb 13       		.uleb128 0x13
 2317 00fc 00       		.byte	0
 2318 00fd 00       		.byte	0
 2319 00fe 15       		.uleb128 0x15
 2320 00ff 28       		.uleb128 0x28
 2321 0100 00       		.byte	0
 2322 0101 03       		.uleb128 0x3
 2323 0102 0E       		.uleb128 0xe
 2324 0103 1C       		.uleb128 0x1c
 2325 0104 0D       		.uleb128 0xd
 2326 0105 00       		.byte	0
 2327 0106 00       		.byte	0
 2328 0107 16       		.uleb128 0x16
 2329 0108 04       		.uleb128 0x4
 2330 0109 01       		.byte	0x1
 2331 010a 0B       		.uleb128 0xb
 2332 010b 0B       		.uleb128 0xb
 2333 010c 3A       		.uleb128 0x3a
 2334 010d 0B       		.uleb128 0xb
ARM GAS  /var/folders/ng/s8655sgx1ys_4lf9jzm2w6n00000gn/T//cc85cRS6.s 			page 42


 2335 010e 3B       		.uleb128 0x3b
 2336 010f 05       		.uleb128 0x5
 2337 0110 01       		.uleb128 0x1
 2338 0111 13       		.uleb128 0x13
 2339 0112 00       		.byte	0
 2340 0113 00       		.byte	0
 2341 0114 17       		.uleb128 0x17
 2342 0115 2E       		.uleb128 0x2e
 2343 0116 01       		.byte	0x1
 2344 0117 3F       		.uleb128 0x3f
 2345 0118 0C       		.uleb128 0xc
 2346 0119 03       		.uleb128 0x3
 2347 011a 0E       		.uleb128 0xe
 2348 011b 3A       		.uleb128 0x3a
 2349 011c 0B       		.uleb128 0xb
 2350 011d 3B       		.uleb128 0x3b
 2351 011e 0B       		.uleb128 0xb
 2352 011f 27       		.uleb128 0x27
 2353 0120 0C       		.uleb128 0xc
 2354 0121 11       		.uleb128 0x11
 2355 0122 01       		.uleb128 0x1
 2356 0123 12       		.uleb128 0x12
 2357 0124 01       		.uleb128 0x1
 2358 0125 40       		.uleb128 0x40
 2359 0126 06       		.uleb128 0x6
 2360 0127 9742     		.uleb128 0x2117
 2361 0129 0C       		.uleb128 0xc
 2362 012a 01       		.uleb128 0x1
 2363 012b 13       		.uleb128 0x13
 2364 012c 00       		.byte	0
 2365 012d 00       		.byte	0
 2366 012e 18       		.uleb128 0x18
 2367 012f 05       		.uleb128 0x5
 2368 0130 00       		.byte	0
 2369 0131 03       		.uleb128 0x3
 2370 0132 0E       		.uleb128 0xe
 2371 0133 3A       		.uleb128 0x3a
 2372 0134 0B       		.uleb128 0xb
 2373 0135 3B       		.uleb128 0x3b
 2374 0136 0B       		.uleb128 0xb
 2375 0137 49       		.uleb128 0x49
 2376 0138 13       		.uleb128 0x13
 2377 0139 02       		.uleb128 0x2
 2378 013a 06       		.uleb128 0x6
 2379 013b 00       		.byte	0
 2380 013c 00       		.byte	0
 2381 013d 19       		.uleb128 0x19
 2382 013e 34       		.uleb128 0x34
 2383 013f 00       		.byte	0
 2384 0140 03       		.uleb128 0x3
 2385 0141 0E       		.uleb128 0xe
 2386 0142 3A       		.uleb128 0x3a
 2387 0143 0B       		.uleb128 0xb
 2388 0144 3B       		.uleb128 0x3b
 2389 0145 0B       		.uleb128 0xb
 2390 0146 49       		.uleb128 0x49
 2391 0147 13       		.uleb128 0x13
ARM GAS  /var/folders/ng/s8655sgx1ys_4lf9jzm2w6n00000gn/T//cc85cRS6.s 			page 43


 2392 0148 02       		.uleb128 0x2
 2393 0149 0A       		.uleb128 0xa
 2394 014a 00       		.byte	0
 2395 014b 00       		.byte	0
 2396 014c 1A       		.uleb128 0x1a
 2397 014d 898201   		.uleb128 0x4109
 2398 0150 01       		.byte	0x1
 2399 0151 11       		.uleb128 0x11
 2400 0152 01       		.uleb128 0x1
 2401 0153 31       		.uleb128 0x31
 2402 0154 13       		.uleb128 0x13
 2403 0155 00       		.byte	0
 2404 0156 00       		.byte	0
 2405 0157 1B       		.uleb128 0x1b
 2406 0158 8A8201   		.uleb128 0x410a
 2407 015b 00       		.byte	0
 2408 015c 02       		.uleb128 0x2
 2409 015d 0A       		.uleb128 0xa
 2410 015e 9142     		.uleb128 0x2111
 2411 0160 0A       		.uleb128 0xa
 2412 0161 00       		.byte	0
 2413 0162 00       		.byte	0
 2414 0163 1C       		.uleb128 0x1c
 2415 0164 01       		.uleb128 0x1
 2416 0165 01       		.byte	0x1
 2417 0166 49       		.uleb128 0x49
 2418 0167 13       		.uleb128 0x13
 2419 0168 01       		.uleb128 0x1
 2420 0169 13       		.uleb128 0x13
 2421 016a 00       		.byte	0
 2422 016b 00       		.byte	0
 2423 016c 1D       		.uleb128 0x1d
 2424 016d 21       		.uleb128 0x21
 2425 016e 00       		.byte	0
 2426 016f 49       		.uleb128 0x49
 2427 0170 13       		.uleb128 0x13
 2428 0171 2F       		.uleb128 0x2f
 2429 0172 0B       		.uleb128 0xb
 2430 0173 00       		.byte	0
 2431 0174 00       		.byte	0
 2432 0175 1E       		.uleb128 0x1e
 2433 0176 2E       		.uleb128 0x2e
 2434 0177 01       		.byte	0x1
 2435 0178 3F       		.uleb128 0x3f
 2436 0179 0C       		.uleb128 0xc
 2437 017a 03       		.uleb128 0x3
 2438 017b 0E       		.uleb128 0xe
 2439 017c 3A       		.uleb128 0x3a
 2440 017d 0B       		.uleb128 0xb
 2441 017e 3B       		.uleb128 0x3b
 2442 017f 0B       		.uleb128 0xb
 2443 0180 27       		.uleb128 0x27
 2444 0181 0C       		.uleb128 0xc
 2445 0182 49       		.uleb128 0x49
 2446 0183 13       		.uleb128 0x13
 2447 0184 11       		.uleb128 0x11
 2448 0185 01       		.uleb128 0x1
ARM GAS  /var/folders/ng/s8655sgx1ys_4lf9jzm2w6n00000gn/T//cc85cRS6.s 			page 44


 2449 0186 12       		.uleb128 0x12
 2450 0187 01       		.uleb128 0x1
 2451 0188 40       		.uleb128 0x40
 2452 0189 06       		.uleb128 0x6
 2453 018a 9742     		.uleb128 0x2117
 2454 018c 0C       		.uleb128 0xc
 2455 018d 01       		.uleb128 0x1
 2456 018e 13       		.uleb128 0x13
 2457 018f 00       		.byte	0
 2458 0190 00       		.byte	0
 2459 0191 1F       		.uleb128 0x1f
 2460 0192 898201   		.uleb128 0x4109
 2461 0195 00       		.byte	0
 2462 0196 11       		.uleb128 0x11
 2463 0197 01       		.uleb128 0x1
 2464 0198 31       		.uleb128 0x31
 2465 0199 13       		.uleb128 0x13
 2466 019a 00       		.byte	0
 2467 019b 00       		.byte	0
 2468 019c 20       		.uleb128 0x20
 2469 019d 898201   		.uleb128 0x4109
 2470 01a0 01       		.byte	0x1
 2471 01a1 11       		.uleb128 0x11
 2472 01a2 01       		.uleb128 0x1
 2473 01a3 31       		.uleb128 0x31
 2474 01a4 13       		.uleb128 0x13
 2475 01a5 01       		.uleb128 0x1
 2476 01a6 13       		.uleb128 0x13
 2477 01a7 00       		.byte	0
 2478 01a8 00       		.byte	0
 2479 01a9 21       		.uleb128 0x21
 2480 01aa 898201   		.uleb128 0x4109
 2481 01ad 01       		.byte	0x1
 2482 01ae 11       		.uleb128 0x11
 2483 01af 01       		.uleb128 0x1
 2484 01b0 9542     		.uleb128 0x2115
 2485 01b2 0C       		.uleb128 0xc
 2486 01b3 31       		.uleb128 0x31
 2487 01b4 13       		.uleb128 0x13
 2488 01b5 00       		.byte	0
 2489 01b6 00       		.byte	0
 2490 01b7 22       		.uleb128 0x22
 2491 01b8 34       		.uleb128 0x34
 2492 01b9 00       		.byte	0
 2493 01ba 03       		.uleb128 0x3
 2494 01bb 0E       		.uleb128 0xe
 2495 01bc 3A       		.uleb128 0x3a
 2496 01bd 0B       		.uleb128 0xb
 2497 01be 3B       		.uleb128 0x3b
 2498 01bf 0B       		.uleb128 0xb
 2499 01c0 49       		.uleb128 0x49
 2500 01c1 13       		.uleb128 0x13
 2501 01c2 02       		.uleb128 0x2
 2502 01c3 06       		.uleb128 0x6
 2503 01c4 00       		.byte	0
 2504 01c5 00       		.byte	0
 2505 01c6 23       		.uleb128 0x23
ARM GAS  /var/folders/ng/s8655sgx1ys_4lf9jzm2w6n00000gn/T//cc85cRS6.s 			page 45


 2506 01c7 34       		.uleb128 0x34
 2507 01c8 00       		.byte	0
 2508 01c9 03       		.uleb128 0x3
 2509 01ca 0E       		.uleb128 0xe
 2510 01cb 3A       		.uleb128 0x3a
 2511 01cc 0B       		.uleb128 0xb
 2512 01cd 3B       		.uleb128 0x3b
 2513 01ce 05       		.uleb128 0x5
 2514 01cf 49       		.uleb128 0x49
 2515 01d0 13       		.uleb128 0x13
 2516 01d1 3F       		.uleb128 0x3f
 2517 01d2 0C       		.uleb128 0xc
 2518 01d3 3C       		.uleb128 0x3c
 2519 01d4 0C       		.uleb128 0xc
 2520 01d5 00       		.byte	0
 2521 01d6 00       		.byte	0
 2522 01d7 24       		.uleb128 0x24
 2523 01d8 2E       		.uleb128 0x2e
 2524 01d9 01       		.byte	0x1
 2525 01da 3F       		.uleb128 0x3f
 2526 01db 0C       		.uleb128 0xc
 2527 01dc 03       		.uleb128 0x3
 2528 01dd 0E       		.uleb128 0xe
 2529 01de 3A       		.uleb128 0x3a
 2530 01df 0B       		.uleb128 0xb
 2531 01e0 3B       		.uleb128 0x3b
 2532 01e1 0B       		.uleb128 0xb
 2533 01e2 27       		.uleb128 0x27
 2534 01e3 0C       		.uleb128 0xc
 2535 01e4 49       		.uleb128 0x49
 2536 01e5 13       		.uleb128 0x13
 2537 01e6 3C       		.uleb128 0x3c
 2538 01e7 0C       		.uleb128 0xc
 2539 01e8 01       		.uleb128 0x1
 2540 01e9 13       		.uleb128 0x13
 2541 01ea 00       		.byte	0
 2542 01eb 00       		.byte	0
 2543 01ec 25       		.uleb128 0x25
 2544 01ed 05       		.uleb128 0x5
 2545 01ee 00       		.byte	0
 2546 01ef 49       		.uleb128 0x49
 2547 01f0 13       		.uleb128 0x13
 2548 01f1 00       		.byte	0
 2549 01f2 00       		.byte	0
 2550 01f3 26       		.uleb128 0x26
 2551 01f4 2E       		.uleb128 0x2e
 2552 01f5 00       		.byte	0
 2553 01f6 3F       		.uleb128 0x3f
 2554 01f7 0C       		.uleb128 0xc
 2555 01f8 03       		.uleb128 0x3
 2556 01f9 0E       		.uleb128 0xe
 2557 01fa 3A       		.uleb128 0x3a
 2558 01fb 0B       		.uleb128 0xb
 2559 01fc 3B       		.uleb128 0x3b
 2560 01fd 0B       		.uleb128 0xb
 2561 01fe 27       		.uleb128 0x27
 2562 01ff 0C       		.uleb128 0xc
ARM GAS  /var/folders/ng/s8655sgx1ys_4lf9jzm2w6n00000gn/T//cc85cRS6.s 			page 46


 2563 0200 3C       		.uleb128 0x3c
 2564 0201 0C       		.uleb128 0xc
 2565 0202 00       		.byte	0
 2566 0203 00       		.byte	0
 2567 0204 27       		.uleb128 0x27
 2568 0205 2E       		.uleb128 0x2e
 2569 0206 01       		.byte	0x1
 2570 0207 3F       		.uleb128 0x3f
 2571 0208 0C       		.uleb128 0xc
 2572 0209 03       		.uleb128 0x3
 2573 020a 0E       		.uleb128 0xe
 2574 020b 3A       		.uleb128 0x3a
 2575 020c 0B       		.uleb128 0xb
 2576 020d 3B       		.uleb128 0x3b
 2577 020e 0B       		.uleb128 0xb
 2578 020f 27       		.uleb128 0x27
 2579 0210 0C       		.uleb128 0xc
 2580 0211 3C       		.uleb128 0x3c
 2581 0212 0C       		.uleb128 0xc
 2582 0213 00       		.byte	0
 2583 0214 00       		.byte	0
 2584 0215 00       		.byte	0
 2585              		.section	.debug_loc,"",%progbits
 2586              	.Ldebug_loc0:
 2587              	.LLST0:
 2588 0000 00000000 		.4byte	.LFB119
 2589 0004 02000000 		.4byte	.LCFI0
 2590 0008 0200     		.2byte	0x2
 2591 000a 7D       		.byte	0x7d
 2592 000b 00       		.sleb128 0
 2593 000c 02000000 		.4byte	.LCFI0
 2594 0010 04000000 		.4byte	.LCFI1
 2595 0014 0200     		.2byte	0x2
 2596 0016 7D       		.byte	0x7d
 2597 0017 08       		.sleb128 8
 2598 0018 04000000 		.4byte	.LCFI1
 2599 001c 30000000 		.4byte	.LFE119
 2600 0020 0200     		.2byte	0x2
 2601 0022 7D       		.byte	0x7d
 2602 0023 20       		.sleb128 32
 2603 0024 00000000 		.4byte	0
 2604 0028 00000000 		.4byte	0
 2605              	.LLST1:
 2606 002c 00000000 		.4byte	.LVL0
 2607 0030 0A000000 		.4byte	.LVL1
 2608 0034 0100     		.2byte	0x1
 2609 0036 50       		.byte	0x50
 2610 0037 0A000000 		.4byte	.LVL1
 2611 003b 30000000 		.4byte	.LFE119
 2612 003f 0400     		.2byte	0x4
 2613 0041 F3       		.byte	0xf3
 2614 0042 01       		.uleb128 0x1
 2615 0043 50       		.byte	0x50
 2616 0044 9F       		.byte	0x9f
 2617 0045 00000000 		.4byte	0
 2618 0049 00000000 		.4byte	0
 2619              	.LLST2:
ARM GAS  /var/folders/ng/s8655sgx1ys_4lf9jzm2w6n00000gn/T//cc85cRS6.s 			page 47


 2620 004d 00000000 		.4byte	.LVL0
 2621 0051 20000000 		.4byte	.LVL2
 2622 0055 0100     		.2byte	0x1
 2623 0057 51       		.byte	0x51
 2624 0058 20000000 		.4byte	.LVL2
 2625 005c 22000000 		.4byte	.LVL3
 2626 0060 0200     		.2byte	0x2
 2627 0062 91       		.byte	0x91
 2628 0063 74       		.sleb128 -12
 2629 0064 22000000 		.4byte	.LVL3
 2630 0068 2B000000 		.4byte	.LVL4-1
 2631 006c 0200     		.2byte	0x2
 2632 006e 72       		.byte	0x72
 2633 006f 00       		.sleb128 0
 2634 0070 2B000000 		.4byte	.LVL4-1
 2635 0074 30000000 		.4byte	.LFE119
 2636 0078 0400     		.2byte	0x4
 2637 007a F3       		.byte	0xf3
 2638 007b 01       		.uleb128 0x1
 2639 007c 51       		.byte	0x51
 2640 007d 9F       		.byte	0x9f
 2641 007e 00000000 		.4byte	0
 2642 0082 00000000 		.4byte	0
 2643              	.LLST3:
 2644 0086 00000000 		.4byte	.LVL0
 2645 008a 22000000 		.4byte	.LVL3
 2646 008e 0100     		.2byte	0x1
 2647 0090 52       		.byte	0x52
 2648 0091 22000000 		.4byte	.LVL3
 2649 0095 2B000000 		.4byte	.LVL4-1
 2650 0099 0200     		.2byte	0x2
 2651 009b 91       		.byte	0x91
 2652 009c 75       		.sleb128 -11
 2653 009d 2B000000 		.4byte	.LVL4-1
 2654 00a1 30000000 		.4byte	.LFE119
 2655 00a5 0400     		.2byte	0x4
 2656 00a7 F3       		.byte	0xf3
 2657 00a8 01       		.uleb128 0x1
 2658 00a9 52       		.byte	0x52
 2659 00aa 9F       		.byte	0x9f
 2660 00ab 00000000 		.4byte	0
 2661 00af 00000000 		.4byte	0
 2662              	.LLST4:
 2663 00b3 00000000 		.4byte	.LFB120
 2664 00b7 02000000 		.4byte	.LCFI2
 2665 00bb 0200     		.2byte	0x2
 2666 00bd 7D       		.byte	0x7d
 2667 00be 00       		.sleb128 0
 2668 00bf 02000000 		.4byte	.LCFI2
 2669 00c3 04000000 		.4byte	.LCFI3
 2670 00c7 0200     		.2byte	0x2
 2671 00c9 7D       		.byte	0x7d
 2672 00ca 08       		.sleb128 8
 2673 00cb 04000000 		.4byte	.LCFI3
 2674 00cf 3A000000 		.4byte	.LFE120
 2675 00d3 0200     		.2byte	0x2
 2676 00d5 7D       		.byte	0x7d
ARM GAS  /var/folders/ng/s8655sgx1ys_4lf9jzm2w6n00000gn/T//cc85cRS6.s 			page 48


 2677 00d6 28       		.sleb128 40
 2678 00d7 00000000 		.4byte	0
 2679 00db 00000000 		.4byte	0
 2680              	.LLST5:
 2681 00df 00000000 		.4byte	.LVL5
 2682 00e3 18000000 		.4byte	.LVL7
 2683 00e7 0100     		.2byte	0x1
 2684 00e9 50       		.byte	0x50
 2685 00ea 18000000 		.4byte	.LVL7
 2686 00ee 3A000000 		.4byte	.LFE120
 2687 00f2 0400     		.2byte	0x4
 2688 00f4 F3       		.byte	0xf3
 2689 00f5 01       		.uleb128 0x1
 2690 00f6 50       		.byte	0x50
 2691 00f7 9F       		.byte	0x9f
 2692 00f8 00000000 		.4byte	0
 2693 00fc 00000000 		.4byte	0
 2694              	.LLST6:
 2695 0100 00000000 		.4byte	.LVL5
 2696 0104 0E000000 		.4byte	.LVL6
 2697 0108 0100     		.2byte	0x1
 2698 010a 51       		.byte	0x51
 2699 010b 0E000000 		.4byte	.LVL6
 2700 010f 3A000000 		.4byte	.LFE120
 2701 0113 0200     		.2byte	0x2
 2702 0115 91       		.byte	0x91
 2703 0116 6F       		.sleb128 -17
 2704 0117 00000000 		.4byte	0
 2705 011b 00000000 		.4byte	0
 2706              	.LLST7:
 2707 011f 00000000 		.4byte	.LFB121
 2708 0123 02000000 		.4byte	.LCFI4
 2709 0127 0200     		.2byte	0x2
 2710 0129 7D       		.byte	0x7d
 2711 012a 00       		.sleb128 0
 2712 012b 02000000 		.4byte	.LCFI4
 2713 012f 3C000000 		.4byte	.LFE121
 2714 0133 0200     		.2byte	0x2
 2715 0135 7D       		.byte	0x7d
 2716 0136 08       		.sleb128 8
 2717 0137 00000000 		.4byte	0
 2718 013b 00000000 		.4byte	0
 2719              	.LLST8:
 2720 013f 00000000 		.4byte	.LFB122
 2721 0143 04000000 		.4byte	.LCFI5
 2722 0147 0200     		.2byte	0x2
 2723 0149 7D       		.byte	0x7d
 2724 014a 00       		.sleb128 0
 2725 014b 04000000 		.4byte	.LCFI5
 2726 014f 74000000 		.4byte	.LFE122
 2727 0153 0200     		.2byte	0x2
 2728 0155 7D       		.byte	0x7d
 2729 0156 18       		.sleb128 24
 2730 0157 00000000 		.4byte	0
 2731 015b 00000000 		.4byte	0
 2732              	.LLST9:
 2733 015f 00000000 		.4byte	.LVL15
ARM GAS  /var/folders/ng/s8655sgx1ys_4lf9jzm2w6n00000gn/T//cc85cRS6.s 			page 49


 2734 0163 20000000 		.4byte	.LVL17
 2735 0167 0100     		.2byte	0x1
 2736 0169 51       		.byte	0x51
 2737 016a 20000000 		.4byte	.LVL17
 2738 016e 70000000 		.4byte	.LVL27
 2739 0172 0400     		.2byte	0x4
 2740 0174 F3       		.byte	0xf3
 2741 0175 01       		.uleb128 0x1
 2742 0176 51       		.byte	0x51
 2743 0177 9F       		.byte	0x9f
 2744 0178 70000000 		.4byte	.LVL27
 2745 017c 74000000 		.4byte	.LFE122
 2746 0180 0100     		.2byte	0x1
 2747 0182 51       		.byte	0x51
 2748 0183 00000000 		.4byte	0
 2749 0187 00000000 		.4byte	0
 2750              	.LLST10:
 2751 018b 00000000 		.4byte	.LVL15
 2752 018f 3A000000 		.4byte	.LVL20
 2753 0193 0C00     		.2byte	0xc
 2754 0195 30       		.byte	0x30
 2755 0196 9F       		.byte	0x9f
 2756 0197 93       		.byte	0x93
 2757 0198 02       		.uleb128 0x2
 2758 0199 30       		.byte	0x30
 2759 019a 9F       		.byte	0x9f
 2760 019b 93       		.byte	0x93
 2761 019c 02       		.uleb128 0x2
 2762 019d 30       		.byte	0x30
 2763 019e 9F       		.byte	0x9f
 2764 019f 93       		.byte	0x93
 2765 01a0 02       		.uleb128 0x2
 2766 01a1 3A000000 		.4byte	.LVL20
 2767 01a5 3D000000 		.4byte	.LVL21-1
 2768 01a9 0B00     		.2byte	0xb
 2769 01ab 52       		.byte	0x52
 2770 01ac 93       		.byte	0x93
 2771 01ad 02       		.uleb128 0x2
 2772 01ae 30       		.byte	0x30
 2773 01af 9F       		.byte	0x9f
 2774 01b0 93       		.byte	0x93
 2775 01b1 02       		.uleb128 0x2
 2776 01b2 30       		.byte	0x30
 2777 01b3 9F       		.byte	0x9f
 2778 01b4 93       		.byte	0x93
 2779 01b5 02       		.uleb128 0x2
 2780 01b6 3D000000 		.4byte	.LVL21-1
 2781 01ba 52000000 		.4byte	.LVL23
 2782 01be 0B00     		.2byte	0xb
 2783 01c0 57       		.byte	0x57
 2784 01c1 93       		.byte	0x93
 2785 01c2 02       		.uleb128 0x2
 2786 01c3 30       		.byte	0x30
 2787 01c4 9F       		.byte	0x9f
 2788 01c5 93       		.byte	0x93
 2789 01c6 02       		.uleb128 0x2
 2790 01c7 30       		.byte	0x30
ARM GAS  /var/folders/ng/s8655sgx1ys_4lf9jzm2w6n00000gn/T//cc85cRS6.s 			page 50


 2791 01c8 9F       		.byte	0x9f
 2792 01c9 93       		.byte	0x93
 2793 01ca 02       		.uleb128 0x2
 2794 01cb 52000000 		.4byte	.LVL23
 2795 01cf 55000000 		.4byte	.LVL24-1
 2796 01d3 0A00     		.2byte	0xa
 2797 01d5 57       		.byte	0x57
 2798 01d6 93       		.byte	0x93
 2799 01d7 02       		.uleb128 0x2
 2800 01d8 53       		.byte	0x53
 2801 01d9 93       		.byte	0x93
 2802 01da 02       		.uleb128 0x2
 2803 01db 30       		.byte	0x30
 2804 01dc 9F       		.byte	0x9f
 2805 01dd 93       		.byte	0x93
 2806 01de 02       		.uleb128 0x2
 2807 01df 55000000 		.4byte	.LVL24-1
 2808 01e3 60000000 		.4byte	.LVL25
 2809 01e7 0A00     		.2byte	0xa
 2810 01e9 57       		.byte	0x57
 2811 01ea 93       		.byte	0x93
 2812 01eb 02       		.uleb128 0x2
 2813 01ec 56       		.byte	0x56
 2814 01ed 93       		.byte	0x93
 2815 01ee 02       		.uleb128 0x2
 2816 01ef 30       		.byte	0x30
 2817 01f0 9F       		.byte	0x9f
 2818 01f1 93       		.byte	0x93
 2819 01f2 02       		.uleb128 0x2
 2820 01f3 60000000 		.4byte	.LVL25
 2821 01f7 64000000 		.4byte	.LVL26
 2822 01fb 1600     		.2byte	0x16
 2823 01fd 57       		.byte	0x57
 2824 01fe 93       		.byte	0x93
 2825 01ff 02       		.uleb128 0x2
 2826 0200 56       		.byte	0x56
 2827 0201 93       		.byte	0x93
 2828 0202 02       		.uleb128 0x2
 2829 0203 78       		.byte	0x78
 2830 0204 00       		.sleb128 0
 2831 0205 08       		.byte	0x8
 2832 0206 FF       		.byte	0xff
 2833 0207 1A       		.byte	0x1a
 2834 0208 38       		.byte	0x38
 2835 0209 24       		.byte	0x24
 2836 020a 70       		.byte	0x70
 2837 020b 00       		.sleb128 0
 2838 020c 08       		.byte	0x8
 2839 020d FF       		.byte	0xff
 2840 020e 1A       		.byte	0x1a
 2841 020f 21       		.byte	0x21
 2842 0210 9F       		.byte	0x9f
 2843 0211 93       		.byte	0x93
 2844 0212 02       		.uleb128 0x2
 2845 0213 64000000 		.4byte	.LVL26
 2846 0217 70000000 		.4byte	.LVL27
 2847 021b 0800     		.2byte	0x8
ARM GAS  /var/folders/ng/s8655sgx1ys_4lf9jzm2w6n00000gn/T//cc85cRS6.s 			page 51


 2848 021d 57       		.byte	0x57
 2849 021e 93       		.byte	0x93
 2850 021f 02       		.uleb128 0x2
 2851 0220 56       		.byte	0x56
 2852 0221 93       		.byte	0x93
 2853 0222 02       		.uleb128 0x2
 2854 0223 93       		.byte	0x93
 2855 0224 02       		.uleb128 0x2
 2856 0225 70000000 		.4byte	.LVL27
 2857 0229 74000000 		.4byte	.LFE122
 2858 022d 0C00     		.2byte	0xc
 2859 022f 30       		.byte	0x30
 2860 0230 9F       		.byte	0x9f
 2861 0231 93       		.byte	0x93
 2862 0232 02       		.uleb128 0x2
 2863 0233 30       		.byte	0x30
 2864 0234 9F       		.byte	0x9f
 2865 0235 93       		.byte	0x93
 2866 0236 02       		.uleb128 0x2
 2867 0237 30       		.byte	0x30
 2868 0238 9F       		.byte	0x9f
 2869 0239 93       		.byte	0x93
 2870 023a 02       		.uleb128 0x2
 2871 023b 00000000 		.4byte	0
 2872 023f 00000000 		.4byte	0
 2873              	.LLST11:
 2874 0243 00000000 		.4byte	.LVL15
 2875 0247 1E000000 		.4byte	.LVL16
 2876 024b 0200     		.2byte	0x2
 2877 024d 30       		.byte	0x30
 2878 024e 9F       		.byte	0x9f
 2879 024f 1E000000 		.4byte	.LVL16
 2880 0253 70000000 		.4byte	.LVL27
 2881 0257 0100     		.2byte	0x1
 2882 0259 55       		.byte	0x55
 2883 025a 70000000 		.4byte	.LVL27
 2884 025e 74000000 		.4byte	.LFE122
 2885 0262 0200     		.2byte	0x2
 2886 0264 30       		.byte	0x30
 2887 0265 9F       		.byte	0x9f
 2888 0266 00000000 		.4byte	0
 2889 026a 00000000 		.4byte	0
 2890              	.LLST12:
 2891 026e 00000000 		.4byte	.LFB123
 2892 0272 02000000 		.4byte	.LCFI6
 2893 0276 0200     		.2byte	0x2
 2894 0278 7D       		.byte	0x7d
 2895 0279 00       		.sleb128 0
 2896 027a 02000000 		.4byte	.LCFI6
 2897 027e 0E000000 		.4byte	.LFE123
 2898 0282 0200     		.2byte	0x2
 2899 0284 7D       		.byte	0x7d
 2900 0285 08       		.sleb128 8
 2901 0286 00000000 		.4byte	0
 2902 028a 00000000 		.4byte	0
 2903              		.section	.debug_aranges,"",%progbits
 2904 0000 3C000000 		.4byte	0x3c
ARM GAS  /var/folders/ng/s8655sgx1ys_4lf9jzm2w6n00000gn/T//cc85cRS6.s 			page 52


 2905 0004 0200     		.2byte	0x2
 2906 0006 00000000 		.4byte	.Ldebug_info0
 2907 000a 04       		.byte	0x4
 2908 000b 00       		.byte	0
 2909 000c 0000     		.2byte	0
 2910 000e 0000     		.2byte	0
 2911 0010 00000000 		.4byte	.LFB119
 2912 0014 30000000 		.4byte	.LFE119-.LFB119
 2913 0018 00000000 		.4byte	.LFB120
 2914 001c 3A000000 		.4byte	.LFE120-.LFB120
 2915 0020 00000000 		.4byte	.LFB121
 2916 0024 3C000000 		.4byte	.LFE121-.LFB121
 2917 0028 00000000 		.4byte	.LFB122
 2918 002c 74000000 		.4byte	.LFE122-.LFB122
 2919 0030 00000000 		.4byte	.LFB123
 2920 0034 0E000000 		.4byte	.LFE123-.LFB123
 2921 0038 00000000 		.4byte	0
 2922 003c 00000000 		.4byte	0
 2923              		.section	.debug_ranges,"",%progbits
 2924              	.Ldebug_ranges0:
 2925 0000 00000000 		.4byte	.LFB119
 2926 0004 30000000 		.4byte	.LFE119
 2927 0008 00000000 		.4byte	.LFB120
 2928 000c 3A000000 		.4byte	.LFE120
 2929 0010 00000000 		.4byte	.LFB121
 2930 0014 3C000000 		.4byte	.LFE121
 2931 0018 00000000 		.4byte	.LFB122
 2932 001c 74000000 		.4byte	.LFE122
 2933 0020 00000000 		.4byte	.LFB123
 2934 0024 0E000000 		.4byte	.LFE123
 2935 0028 00000000 		.4byte	0
 2936 002c 00000000 		.4byte	0
 2937              		.section	.debug_line,"",%progbits
 2938              	.Ldebug_line0:
 2939 0000 19030000 		.section	.debug_str,"MS",%progbits,1
 2939      02009702 
 2939      00000201 
 2939      FB0E0D00 
 2939      01010101 
 2940              	.LASF115:
 2941 0000 646D6172 		.ascii	"dmarx\000"
 2941      7800
 2942              	.LASF101:
 2943 0006 69326364 		.ascii	"i2cdutycycle_t\000"
 2943      75747963 
 2943      79636C65 
 2943      5F7400
 2944              	.LASF61:
 2945 0015 4D304152 		.ascii	"M0AR\000"
 2945      00
 2946              	.LASF117:
 2947 001a 41434345 		.ascii	"ACCEL\000"
 2947      4C00
 2948              	.LASF55:
 2949 0020 7264796D 		.ascii	"rdymsg\000"
 2949      736700
 2950              	.LASF3:
ARM GAS  /var/folders/ng/s8655sgx1ys_4lf9jzm2w6n00000gn/T//cc85cRS6.s 			page 53


 2951 0027 7369676E 		.ascii	"signed char\000"
 2951      65642063 
 2951      68617200 
 2952              	.LASF99:
 2953 0033 46415354 		.ascii	"FAST_DUTY_CYCLE_2\000"
 2953      5F445554 
 2953      595F4359 
 2953      434C455F 
 2953      3200
 2954              	.LASF74:
 2955 0045 54524953 		.ascii	"TRISE\000"
 2955      4500
 2956              	.LASF11:
 2957 004b 6C6F6E67 		.ascii	"long int\000"
 2957      20696E74 
 2957      00
 2958              	.LASF45:
 2959 0054 54687265 		.ascii	"ThreadsQueue\000"
 2959      61647351 
 2959      75657565 
 2959      00
 2960              	.LASF129:
 2961 0061 72656164 		.ascii	"reading\000"
 2961      696E6700 
 2962              	.LASF83:
 2963 0069 76656374 		.ascii	"vector\000"
 2963      6F7200
 2964              	.LASF120:
 2965 0070 494D5552 		.ascii	"IMUReading\000"
 2965      65616469 
 2965      6E6700
 2966              	.LASF132:
 2967 007b 49544D5F 		.ascii	"ITM_RxBuffer\000"
 2967      52784275 
 2967      66666572 
 2967      00
 2968              	.LASF87:
 2969 0088 4932435F 		.ascii	"I2C_READY\000"
 2969      52454144 
 2969      5900
 2970              	.LASF137:
 2971 0092 6932634D 		.ascii	"i2cMasterTransmitTimeout\000"
 2971      61737465 
 2971      72547261 
 2971      6E736D69 
 2971      7454696D 
 2972              	.LASF128:
 2973 00ab 64657669 		.ascii	"device\000"
 2973      636500
 2974              	.LASF6:
 2975 00b2 696E7431 		.ascii	"int16_t\000"
 2975      365F7400 
 2976              	.LASF14:
 2977 00ba 6C6F6E67 		.ascii	"long long int\000"
 2977      206C6F6E 
 2977      6720696E 
 2977      7400
ARM GAS  /var/folders/ng/s8655sgx1ys_4lf9jzm2w6n00000gn/T//cc85cRS6.s 			page 54


 2978              	.LASF85:
 2979 00c8 4932435F 		.ascii	"I2C_UNINIT\000"
 2979      554E494E 
 2979      495400
 2980              	.LASF119:
 2981 00d3 494D5544 		.ascii	"IMUDevice\000"
 2981      65766963 
 2981      6500
 2982              	.LASF44:
 2983 00dd 705F6D70 		.ascii	"p_mpool\000"
 2983      6F6F6C00 
 2984              	.LASF15:
 2985 00e5 6C6F6E67 		.ascii	"long long unsigned int\000"
 2985      206C6F6E 
 2985      6720756E 
 2985      7369676E 
 2985      65642069 
 2986              	.LASF52:
 2987 00fc 6D5F7175 		.ascii	"m_queue\000"
 2987      65756500 
 2988              	.LASF112:
 2989 0104 61646472 		.ascii	"addr\000"
 2989      00
 2990              	.LASF20:
 2991 0109 74736C69 		.ascii	"tslices_t\000"
 2991      6365735F 
 2991      7400
 2992              	.LASF134:
 2993 0113 474E5520 		.ascii	"GNU C 4.7.4 20130913 (release) [ARM/embedded-4_7-br"
 2993      4320342E 
 2993      372E3420 
 2993      32303133 
 2993      30393133 
 2994 0146 616E6368 		.ascii	"anch revision 202601]\000"
 2994      20726576 
 2994      6973696F 
 2994      6E203230 
 2994      32363031 
 2995              	.LASF92:
 2996 015c 69326361 		.ascii	"i2caddr_t\000"
 2996      6464725F 
 2996      7400
 2997              	.LASF107:
 2998 0166 73746174 		.ascii	"state\000"
 2998      6500
 2999              	.LASF110:
 3000 016c 6D757465 		.ascii	"mutex\000"
 3000      7800
 3001              	.LASF18:
 3002 0172 74737461 		.ascii	"tstate_t\000"
 3002      74655F74 
 3002      00
 3003              	.LASF105:
 3004 017b 49324343 		.ascii	"I2CConfig\000"
 3004      6F6E6669 
 3004      6700
 3005              	.LASF76:
ARM GAS  /var/folders/ng/s8655sgx1ys_4lf9jzm2w6n00000gn/T//cc85cRS6.s 			page 55


 3006 0185 464C5452 		.ascii	"FLTR\000"
 3006      00
 3007              	.LASF97:
 3008 018a 6932636F 		.ascii	"i2copmode_t\000"
 3008      706D6F64 
 3008      655F7400 
 3009              	.LASF30:
 3010 0196 705F6E65 		.ascii	"p_newer\000"
 3010      77657200 
 3011              	.LASF113:
 3012 019e 7278646D 		.ascii	"rxdmamode\000"
 3012      616D6F64 
 3012      6500
 3013              	.LASF116:
 3014 01a8 646D6174 		.ascii	"dmatx\000"
 3014      7800
 3015              	.LASF96:
 3016 01ae 4F504D4F 		.ascii	"OPMODE_SMBUS_HOST\000"
 3016      44455F53 
 3016      4D425553 
 3016      5F484F53 
 3016      5400
 3017              	.LASF82:
 3018 01c0 73656C66 		.ascii	"selfindex\000"
 3018      696E6465 
 3018      7800
 3019              	.LASF102:
 3020 01ca 6F705F6D 		.ascii	"op_mode\000"
 3020      6F646500 
 3021              	.LASF0:
 3022 01d2 756E7369 		.ascii	"unsigned int\000"
 3022      676E6564 
 3022      20696E74 
 3022      00
 3023              	.LASF8:
 3024 01df 75696E74 		.ascii	"uint16_t\000"
 3024      31365F74 
 3024      00
 3025              	.LASF109:
 3026 01e8 6572726F 		.ascii	"errors\000"
 3026      727300
 3027              	.LASF81:
 3028 01ef 69736869 		.ascii	"ishift\000"
 3028      667400
 3029              	.LASF122:
 3030 01f6 64617461 		.ascii	"data\000"
 3030      00
 3031              	.LASF95:
 3032 01fb 4F504D4F 		.ascii	"OPMODE_SMBUS_DEVICE\000"
 3032      44455F53 
 3032      4D425553 
 3032      5F444556 
 3032      49434500 
 3033              	.LASF9:
 3034 020f 73686F72 		.ascii	"short unsigned int\000"
 3034      7420756E 
 3034      7369676E 
ARM GAS  /var/folders/ng/s8655sgx1ys_4lf9jzm2w6n00000gn/T//cc85cRS6.s 			page 56


 3034      65642069 
 3034      6E7400
 3035              	.LASF106:
 3036 0222 49324344 		.ascii	"I2CDriver\000"
 3036      72697665 
 3036      7200
 3037              	.LASF22:
 3038 022c 6D73675F 		.ascii	"msg_t\000"
 3038      7400
 3039              	.LASF121:
 3040 0232 64657669 		.ascii	"device_addr\000"
 3040      63655F61 
 3040      64647200 
 3041              	.LASF56:
 3042 023e 65786974 		.ascii	"exitcode\000"
 3042      636F6465 
 3042      00
 3043              	.LASF17:
 3044 0247 746D6F64 		.ascii	"tmode_t\000"
 3044      655F7400 
 3045              	.LASF98:
 3046 024f 5354445F 		.ascii	"STD_DUTY_CYCLE\000"
 3046      44555459 
 3046      5F435943 
 3046      4C4500
 3047              	.LASF23:
 3048 025e 6576656E 		.ascii	"eventmask_t\000"
 3048      746D6173 
 3048      6B5F7400 
 3049              	.LASF7:
 3050 026a 73686F72 		.ascii	"short int\000"
 3050      7420696E 
 3050      7400
 3051              	.LASF51:
 3052 0274 4D757465 		.ascii	"Mutex\000"
 3052      7800
 3053              	.LASF126:
 3054 027a 5F696D75 		.ascii	"_imu_read\000"
 3054      5F726561 
 3054      6400
 3055              	.LASF2:
 3056 0284 696E7438 		.ascii	"int8_t\000"
 3056      5F7400
 3057              	.LASF86:
 3058 028b 4932435F 		.ascii	"I2C_STOP\000"
 3058      53544F50 
 3058      00
 3059              	.LASF50:
 3060 0294 73697A65 		.ascii	"sizetype\000"
 3060      74797065 
 3060      00
 3061              	.LASF118:
 3062 029d 4759524F 		.ascii	"GYRO\000"
 3062      00
 3063              	.LASF139:
 3064 02a2 69326353 		.ascii	"i2cStart\000"
 3064      74617274 
ARM GAS  /var/folders/ng/s8655sgx1ys_4lf9jzm2w6n00000gn/T//cc85cRS6.s 			page 57


 3064      00
 3065              	.LASF104:
 3066 02ab 64757479 		.ascii	"duty_cycle\000"
 3066      5F637963 
 3066      6C6500
 3067              	.LASF28:
 3068 02b6 705F7072 		.ascii	"p_prio\000"
 3068      696F00
 3069              	.LASF31:
 3070 02bd 705F6F6C 		.ascii	"p_older\000"
 3070      64657200 
 3071              	.LASF127:
 3072 02c5 696D755F 		.ascii	"imu_getReading\000"
 3072      67657452 
 3072      65616469 
 3072      6E6700
 3073              	.LASF114:
 3074 02d4 7478646D 		.ascii	"txdmamode\000"
 3074      616D6F64 
 3074      6500
 3075              	.LASF1:
 3076 02de 73697A65 		.ascii	"size_t\000"
 3076      5F7400
 3077              	.LASF94:
 3078 02e5 4F504D4F 		.ascii	"OPMODE_I2C\000"
 3078      44455F49 
 3078      324300
 3079              	.LASF136:
 3080 02f0 2F557365 		.ascii	"/Users/jseng/aithon/DemoMode\000"
 3080      72732F6A 
 3080      73656E67 
 3080      2F616974 
 3080      686F6E2F 
 3081              	.LASF131:
 3082 030d 696D755F 		.ascii	"imu_config\000"
 3082      636F6E66 
 3082      696700
 3083              	.LASF19:
 3084 0318 74726566 		.ascii	"trefs_t\000"
 3084      735F7400 
 3085              	.LASF91:
 3086 0320 69326373 		.ascii	"i2cstate_t\000"
 3086      74617465 
 3086      5F7400
 3087              	.LASF100:
 3088 032b 46415354 		.ascii	"FAST_DUTY_CYCLE_16_9\000"
 3088      5F445554 
 3088      595F4359 
 3088      434C455F 
 3088      31365F39 
 3089              	.LASF67:
 3090 0340 52455345 		.ascii	"RESERVED2\000"
 3090      52564544 
 3090      3200
 3091              	.LASF69:
 3092 034a 52455345 		.ascii	"RESERVED3\000"
 3092      52564544 
ARM GAS  /var/folders/ng/s8655sgx1ys_4lf9jzm2w6n00000gn/T//cc85cRS6.s 			page 58


 3092      3300
 3093              	.LASF70:
 3094 0354 52455345 		.ascii	"RESERVED4\000"
 3094      52564544 
 3094      3400
 3095              	.LASF27:
 3096 035e 705F7072 		.ascii	"p_prev\000"
 3096      657600
 3097              	.LASF72:
 3098 0365 52455345 		.ascii	"RESERVED6\000"
 3098      52564544 
 3098      3600
 3099              	.LASF84:
 3100 036f 73746D33 		.ascii	"stm32_dma_stream_t\000"
 3100      325F646D 
 3100      615F7374 
 3100      7265616D 
 3100      5F7400
 3101              	.LASF75:
 3102 0382 52455345 		.ascii	"RESERVED8\000"
 3102      52564544 
 3102      3800
 3103              	.LASF21:
 3104 038c 74707269 		.ascii	"tprio_t\000"
 3104      6F5F7400 
 3105              	.LASF88:
 3106 0394 4932435F 		.ascii	"I2C_ACTIVE_TX\000"
 3106      41435449 
 3106      56455F54 
 3106      5800
 3107              	.LASF93:
 3108 03a2 69326366 		.ascii	"i2cflags_t\000"
 3108      6C616773 
 3108      5F7400
 3109              	.LASF111:
 3110 03ad 74687265 		.ascii	"thread\000"
 3110      616400
 3111              	.LASF16:
 3112 03b4 5F426F6F 		.ascii	"_Bool\000"
 3112      6C00
 3113              	.LASF10:
 3114 03ba 696E7433 		.ascii	"int32_t\000"
 3114      325F7400 
 3115              	.LASF5:
 3116 03c2 756E7369 		.ascii	"unsigned char\000"
 3116      676E6564 
 3116      20636861 
 3116      7200
 3117              	.LASF42:
 3118 03d0 705F6D74 		.ascii	"p_mtxlist\000"
 3118      786C6973 
 3118      7400
 3119              	.LASF103:
 3120 03da 636C6F63 		.ascii	"clock_speed\000"
 3120      6B5F7370 
 3120      65656400 
 3121              	.LASF33:
ARM GAS  /var/folders/ng/s8655sgx1ys_4lf9jzm2w6n00000gn/T//cc85cRS6.s 			page 59


 3122 03e6 705F7374 		.ascii	"p_state\000"
 3122      61746500 
 3123              	.LASF36:
 3124 03ee 705F7072 		.ascii	"p_preempt\000"
 3124      65656D70 
 3124      7400
 3125              	.LASF58:
 3126 03f8 65776D61 		.ascii	"ewmask\000"
 3126      736B00
 3127              	.LASF26:
 3128 03ff 705F6E65 		.ascii	"p_next\000"
 3128      787400
 3129              	.LASF34:
 3130 0406 705F666C 		.ascii	"p_flags\000"
 3130      61677300 
 3131              	.LASF64:
 3132 040e 52455345 		.ascii	"RESERVED0\000"
 3132      52564544 
 3132      3000
 3133              	.LASF25:
 3134 0418 54687265 		.ascii	"Thread\000"
 3134      616400
 3135              	.LASF65:
 3136 041f 52455345 		.ascii	"RESERVED1\000"
 3136      52564544 
 3136      3100
 3137              	.LASF90:
 3138 0429 4932435F 		.ascii	"I2C_LOCKED\000"
 3138      4C4F434B 
 3138      454400
 3139              	.LASF41:
 3140 0434 705F6570 		.ascii	"p_epending\000"
 3140      656E6469 
 3140      6E6700
 3141              	.LASF80:
 3142 043f 69666372 		.ascii	"ifcr\000"
 3142      00
 3143              	.LASF71:
 3144 0444 52455345 		.ascii	"RESERVED5\000"
 3144      52564544 
 3144      3500
 3145              	.LASF135:
 3146 044e 2E2E2F41 		.ascii	"../AithonLibrary/imu.c\000"
 3146      6974686F 
 3146      6E4C6962 
 3146      72617279 
 3146      2F696D75 
 3147              	.LASF12:
 3148 0465 75696E74 		.ascii	"uint32_t\000"
 3148      33325F74 
 3148      00
 3149              	.LASF47:
 3150 046e 72656761 		.ascii	"regarm_t\000"
 3150      726D5F74 
 3150      00
 3151              	.LASF77:
 3152 0477 52455345 		.ascii	"RESERVED9\000"
ARM GAS  /var/folders/ng/s8655sgx1ys_4lf9jzm2w6n00000gn/T//cc85cRS6.s 			page 60


 3152      52564544 
 3152      3900
 3153              	.LASF133:
 3154 0481 49324344 		.ascii	"I2CD1\000"
 3154      3100
 3155              	.LASF79:
 3156 0487 73747265 		.ascii	"stream\000"
 3156      616D00
 3157              	.LASF89:
 3158 048e 4932435F 		.ascii	"I2C_ACTIVE_RX\000"
 3158      41435449 
 3158      56455F52 
 3158      5800
 3159              	.LASF13:
 3160 049c 6C6F6E67 		.ascii	"long unsigned int\000"
 3160      20756E73 
 3160      69676E65 
 3160      6420696E 
 3160      7400
 3161              	.LASF59:
 3162 04ae 63686172 		.ascii	"char\000"
 3162      00
 3163              	.LASF108:
 3164 04b3 636F6E66 		.ascii	"config\000"
 3164      696700
 3165              	.LASF124:
 3166 04ba 5F696D75 		.ascii	"_imu_write\000"
 3166      5F777269 
 3166      746500
 3167              	.LASF54:
 3168 04c5 6D5F6E65 		.ascii	"m_next\000"
 3168      787400
 3169              	.LASF24:
 3170 04cc 73797374 		.ascii	"systime_t\000"
 3170      696D655F 
 3170      7400
 3171              	.LASF43:
 3172 04d6 705F7265 		.ascii	"p_realprio\000"
 3172      616C7072 
 3172      696F00
 3173              	.LASF60:
 3174 04e1 4E445452 		.ascii	"NDTR\000"
 3174      00
 3175              	.LASF46:
 3176 04e6 54687265 		.ascii	"ThreadsList\000"
 3176      6164734C 
 3176      69737400 
 3177              	.LASF63:
 3178 04f2 444D415F 		.ascii	"DMA_Stream_TypeDef\000"
 3178      53747265 
 3178      616D5F54 
 3178      79706544 
 3178      656600
 3179              	.LASF37:
 3180 0505 705F7469 		.ascii	"p_time\000"
 3180      6D6500
 3181              	.LASF130:
ARM GAS  /var/folders/ng/s8655sgx1ys_4lf9jzm2w6n00000gn/T//cc85cRS6.s 			page 61


 3182 050c 696D755F 		.ascii	"imu_getTemp\000"
 3182      67657454 
 3182      656D7000 
 3183              	.LASF48:
 3184 0518 696E7463 		.ascii	"intctx\000"
 3184      747800
 3185              	.LASF39:
 3186 051f 705F6D73 		.ascii	"p_msgqueue\000"
 3186      67717565 
 3186      756500
 3187              	.LASF62:
 3188 052a 4D314152 		.ascii	"M1AR\000"
 3188      00
 3189              	.LASF73:
 3190 052f 52455345 		.ascii	"RESERVED7\000"
 3190      52564544 
 3190      3700
 3191              	.LASF35:
 3192 0539 705F7265 		.ascii	"p_refs\000"
 3192      667300
 3193              	.LASF4:
 3194 0540 75696E74 		.ascii	"uint8_t\000"
 3194      385F7400 
 3195              	.LASF66:
 3196 0548 4F415231 		.ascii	"OAR1\000"
 3196      00
 3197              	.LASF68:
 3198 054d 4F415232 		.ascii	"OAR2\000"
 3198      00
 3199              	.LASF125:
 3200 0552 5F696D75 		.ascii	"_imu_init\000"
 3200      5F696E69 
 3200      7400
 3201              	.LASF57:
 3202 055c 77746F62 		.ascii	"wtobjp\000"
 3202      6A7000
 3203              	.LASF32:
 3204 0563 705F6E61 		.ascii	"p_name\000"
 3204      6D6500
 3205              	.LASF49:
 3206 056a 636F6E74 		.ascii	"context\000"
 3206      65787400 
 3207              	.LASF138:
 3208 0572 69326349 		.ascii	"i2cInit\000"
 3208      6E697400 
 3209              	.LASF40:
 3210 057a 705F6D73 		.ascii	"p_msg\000"
 3210      6700
 3211              	.LASF78:
 3212 0580 4932435F 		.ascii	"I2C_TypeDef\000"
 3212      54797065 
 3212      44656600 
 3213              	.LASF123:
 3214 058c 74785F62 		.ascii	"tx_buf\000"
 3214      756600
 3215              	.LASF53:
 3216 0593 6D5F6F77 		.ascii	"m_owner\000"
ARM GAS  /var/folders/ng/s8655sgx1ys_4lf9jzm2w6n00000gn/T//cc85cRS6.s 			page 62


 3216      6E657200 
 3217              	.LASF29:
 3218 059b 705F6374 		.ascii	"p_ctx\000"
 3218      7800
 3219              	.LASF38:
 3220 05a1 705F7761 		.ascii	"p_waiting\000"
 3220      6974696E 
 3220      6700
 3221              		.ident	"GCC: (GNU Tools for ARM Embedded Processors) 4.7.4 20130913 (release) [ARM/embedded-4_7-br
ARM GAS  /var/folders/ng/s8655sgx1ys_4lf9jzm2w6n00000gn/T//cc85cRS6.s 			page 63


DEFINED SYMBOLS
                            *ABS*:0000000000000000 imu.c
/var/folders/ng/s8655sgx1ys_4lf9jzm2w6n00000gn/T//cc85cRS6.s:20     .text._imu_write:0000000000000000 $t
/var/folders/ng/s8655sgx1ys_4lf9jzm2w6n00000gn/T//cc85cRS6.s:26     .text._imu_write:0000000000000000 _imu_write
/var/folders/ng/s8655sgx1ys_4lf9jzm2w6n00000gn/T//cc85cRS6.s:71     .text._imu_read:0000000000000000 $t
/var/folders/ng/s8655sgx1ys_4lf9jzm2w6n00000gn/T//cc85cRS6.s:77     .text._imu_read:0000000000000000 _imu_read
/var/folders/ng/s8655sgx1ys_4lf9jzm2w6n00000gn/T//cc85cRS6.s:127    .text._imu_init:0000000000000000 $t
/var/folders/ng/s8655sgx1ys_4lf9jzm2w6n00000gn/T//cc85cRS6.s:133    .text._imu_init:0000000000000000 _imu_init
/var/folders/ng/s8655sgx1ys_4lf9jzm2w6n00000gn/T//cc85cRS6.s:315    .rodata.imu_config:0000000000000000 .LANCHOR0
/var/folders/ng/s8655sgx1ys_4lf9jzm2w6n00000gn/T//cc85cRS6.s:179    .text.imu_getReading:0000000000000000 $t
/var/folders/ng/s8655sgx1ys_4lf9jzm2w6n00000gn/T//cc85cRS6.s:185    .text.imu_getReading:0000000000000000 imu_getReading
/var/folders/ng/s8655sgx1ys_4lf9jzm2w6n00000gn/T//cc85cRS6.s:285    .text.imu_getTemp:0000000000000000 $t
/var/folders/ng/s8655sgx1ys_4lf9jzm2w6n00000gn/T//cc85cRS6.s:291    .text.imu_getTemp:0000000000000000 imu_getTemp
/var/folders/ng/s8655sgx1ys_4lf9jzm2w6n00000gn/T//cc85cRS6.s:314    .rodata.imu_config:0000000000000000 $d
/var/folders/ng/s8655sgx1ys_4lf9jzm2w6n00000gn/T//cc85cRS6.s:318    .rodata.imu_config:0000000000000000 imu_config
                     .debug_frame:0000000000000010 $d

UNDEFINED SYMBOLS
I2CD1
i2cMasterTransmitTimeout
i2cInit
i2cStart
