ARM GAS  /var/folders/ng/s8655sgx1ys_4lf9jzm2w6n00000gn/T//ccoB4Kch.s 			page 1


   1              		.syntax unified
   2              		.cpu cortex-m4
   3              		.eabi_attribute 27, 3
   4              		.fpu fpv4-sp-d16
   5              		.eabi_attribute 20, 1
   6              		.eabi_attribute 21, 1
   7              		.eabi_attribute 23, 3
   8              		.eabi_attribute 24, 1
   9              		.eabi_attribute 25, 1
  10              		.eabi_attribute 26, 1
  11              		.eabi_attribute 30, 2
  12              		.eabi_attribute 34, 1
  13              		.eabi_attribute 18, 4
  14              		.thumb
  15              		.file	"lcd.c"
  16              		.text
  17              	.Ltext0:
  18              		.cfi_sections	.debug_frame
  19              		.section	.text._write_byte,"ax",%progbits
  20              		.align	2
  21              		.p2align 4,,15
  22              		.global	_write_byte
  23              		.thumb
  24              		.thumb_func
  25              		.type	_write_byte, %function
  26              	_write_byte:
  27              	.LFB120:
  28              		.file 1 "../AithonLibrary/lcd.c"
  29              		.loc 1 46 0
  30              		.cfi_startproc
  31              		@ args = 0, pretend = 0, frame = 0
  32              		@ frame_needed = 0, uses_anonymous_args = 0
  33              	.LVL0:
  34              		.loc 1 48 0
  35 0000 4FF44062 		mov	r2, #3072
  36              		.loc 1 53 0
  37 0004 0023     		movs	r3, #0
  38              		.loc 1 48 0
  39 0006 C4F20202 		movt	r2, 16386
  40              		.loc 1 54 0
  41 000a 00F08001 		and	r1, r0, #128
  42              		.loc 1 53 0
  43 000e C4F20203 		movt	r3, 16386
  44              		.loc 1 46 0
  45 0012 70B5     		push	{r4, r5, r6, lr}
  46              	.LCFI0:
  47              		.cfi_def_cfa_offset 16
  48              		.cfi_offset 4, -16
  49              		.cfi_offset 5, -12
  50              		.cfi_offset 6, -8
  51              		.cfi_offset 14, -4
  52              		.loc 1 46 0
  53 0014 0446     		mov	r4, r0
  54              		.loc 1 53 0
  55 0016 4FF48066 		mov	r6, #1024
  56              		.loc 1 48 0
  57 001a 0120     		movs	r0, #1
ARM GAS  /var/folders/ng/s8655sgx1ys_4lf9jzm2w6n00000gn/T//ccoB4Kch.s 			page 2


  58              	.LVL1:
  59              		.loc 1 54 0
  60 001c CDB2     		uxtb	r5, r1
  61              		.loc 1 48 0
  62 001e 1083     		strh	r0, [r2, #24]	@ movhi
  63              	.LVL2:
  64              		.loc 1 53 0
  65 0020 5E83     		strh	r6, [r3, #26]	@ movhi
  66              		.loc 1 55 0
  67 0022 4FF48072 		mov	r2, #256
  68              		.loc 1 54 0
  69 0026 002D     		cmp	r5, #0
  70 0028 40F08D80 		bne	.L2
  71              		.loc 1 57 0
  72 002c 5A83     		strh	r2, [r3, #26]	@ movhi
  73              	.L3:
  74              		.loc 1 58 0
  75 002e 0025     		movs	r5, #0
  76 0030 C4F20205 		movt	r5, 16386
  77 0034 4FF48066 		mov	r6, #1024
  78 0038 2E83     		strh	r6, [r5, #24]	@ movhi
  79              		.loc 1 59 0
  80 003a A820     		movs	r0, #168
  81 003c FFF7FEFF 		bl	halPolledDelay
  82              	.LVL3:
  83              		.loc 1 54 0
  84 0040 04F04003 		and	r3, r4, #64
  85 0044 D9B2     		uxtb	r1, r3
  86              		.loc 1 53 0
  87 0046 6E83     		strh	r6, [r5, #26]	@ movhi
  88              		.loc 1 54 0
  89 0048 0029     		cmp	r1, #0
  90 004a 40F09280 		bne	.L4
  91              		.loc 1 57 0
  92 004e 4FF48070 		mov	r0, #256
  93 0052 6883     		strh	r0, [r5, #26]	@ movhi
  94              	.L5:
  95              		.loc 1 58 0
  96 0054 0025     		movs	r5, #0
  97 0056 C4F20205 		movt	r5, 16386
  98 005a 4FF48066 		mov	r6, #1024
  99 005e 2E83     		strh	r6, [r5, #24]	@ movhi
 100              		.loc 1 59 0
 101 0060 A820     		movs	r0, #168
 102 0062 FFF7FEFF 		bl	halPolledDelay
 103              	.LVL4:
 104              		.loc 1 54 0
 105 0066 04F02003 		and	r3, r4, #32
 106 006a D9B2     		uxtb	r1, r3
 107              		.loc 1 53 0
 108 006c 6E83     		strh	r6, [r5, #26]	@ movhi
 109              		.loc 1 54 0
 110 006e 0029     		cmp	r1, #0
 111 0070 7BD1     		bne	.L6
 112              		.loc 1 57 0
 113 0072 4FF48070 		mov	r0, #256
 114 0076 6883     		strh	r0, [r5, #26]	@ movhi
ARM GAS  /var/folders/ng/s8655sgx1ys_4lf9jzm2w6n00000gn/T//ccoB4Kch.s 			page 3


 115              	.L7:
 116              		.loc 1 58 0
 117 0078 0025     		movs	r5, #0
 118 007a C4F20205 		movt	r5, 16386
 119 007e 4FF48066 		mov	r6, #1024
 120 0082 2E83     		strh	r6, [r5, #24]	@ movhi
 121              		.loc 1 59 0
 122 0084 A820     		movs	r0, #168
 123 0086 FFF7FEFF 		bl	halPolledDelay
 124              	.LVL5:
 125              		.loc 1 54 0
 126 008a 04F01003 		and	r3, r4, #16
 127 008e D9B2     		uxtb	r1, r3
 128              		.loc 1 53 0
 129 0090 6E83     		strh	r6, [r5, #26]	@ movhi
 130              		.loc 1 54 0
 131 0092 0029     		cmp	r1, #0
 132 0094 65D1     		bne	.L8
 133              		.loc 1 57 0
 134 0096 4FF48070 		mov	r0, #256
 135 009a 6883     		strh	r0, [r5, #26]	@ movhi
 136              	.L9:
 137              		.loc 1 58 0
 138 009c 0025     		movs	r5, #0
 139 009e C4F20205 		movt	r5, 16386
 140 00a2 4FF48066 		mov	r6, #1024
 141 00a6 2E83     		strh	r6, [r5, #24]	@ movhi
 142              		.loc 1 59 0
 143 00a8 A820     		movs	r0, #168
 144 00aa FFF7FEFF 		bl	halPolledDelay
 145              	.LVL6:
 146              		.loc 1 54 0
 147 00ae 04F00803 		and	r3, r4, #8
 148 00b2 D9B2     		uxtb	r1, r3
 149              		.loc 1 53 0
 150 00b4 6E83     		strh	r6, [r5, #26]	@ movhi
 151              		.loc 1 54 0
 152 00b6 0029     		cmp	r1, #0
 153 00b8 4FD1     		bne	.L10
 154              		.loc 1 57 0
 155 00ba 4FF48070 		mov	r0, #256
 156 00be 6883     		strh	r0, [r5, #26]	@ movhi
 157              	.L11:
 158              		.loc 1 58 0
 159 00c0 0025     		movs	r5, #0
 160 00c2 C4F20205 		movt	r5, 16386
 161 00c6 4FF48066 		mov	r6, #1024
 162 00ca 2E83     		strh	r6, [r5, #24]	@ movhi
 163              		.loc 1 59 0
 164 00cc A820     		movs	r0, #168
 165 00ce FFF7FEFF 		bl	halPolledDelay
 166              	.LVL7:
 167              		.loc 1 54 0
 168 00d2 04F00403 		and	r3, r4, #4
 169 00d6 D9B2     		uxtb	r1, r3
 170              		.loc 1 53 0
 171 00d8 6E83     		strh	r6, [r5, #26]	@ movhi
ARM GAS  /var/folders/ng/s8655sgx1ys_4lf9jzm2w6n00000gn/T//ccoB4Kch.s 			page 4


 172              		.loc 1 54 0
 173 00da 0029     		cmp	r1, #0
 174 00dc 39D1     		bne	.L12
 175              		.loc 1 57 0
 176 00de 4FF48070 		mov	r0, #256
 177 00e2 6883     		strh	r0, [r5, #26]	@ movhi
 178              	.L13:
 179              		.loc 1 58 0
 180 00e4 0025     		movs	r5, #0
 181 00e6 C4F20205 		movt	r5, 16386
 182 00ea 4FF48066 		mov	r6, #1024
 183 00ee 2E83     		strh	r6, [r5, #24]	@ movhi
 184              		.loc 1 59 0
 185 00f0 A820     		movs	r0, #168
 186 00f2 FFF7FEFF 		bl	halPolledDelay
 187              	.LVL8:
 188              		.loc 1 54 0
 189 00f6 04F00203 		and	r3, r4, #2
 190 00fa D9B2     		uxtb	r1, r3
 191              		.loc 1 53 0
 192 00fc 6E83     		strh	r6, [r5, #26]	@ movhi
 193              		.loc 1 54 0
 194 00fe 21BB     		cbnz	r1, .L14
 195              		.loc 1 57 0
 196 0100 4FF48070 		mov	r0, #256
 197 0104 6883     		strh	r0, [r5, #26]	@ movhi
 198              	.L15:
 199              		.loc 1 58 0
 200 0106 0025     		movs	r5, #0
 201 0108 C4F20205 		movt	r5, 16386
 202 010c 4FF48066 		mov	r6, #1024
 203              		.loc 1 59 0
 204 0110 A820     		movs	r0, #168
 205              		.loc 1 58 0
 206 0112 2E83     		strh	r6, [r5, #24]	@ movhi
 207              		.loc 1 59 0
 208 0114 FFF7FEFF 		bl	halPolledDelay
 209              	.LVL9:
 210              		.loc 1 54 0
 211 0118 E207     		lsls	r2, r4, #31
 212              		.loc 1 55 0
 213 011a 4FF48073 		mov	r3, #256
 214              		.loc 1 53 0
 215 011e 6E83     		strh	r6, [r5, #26]	@ movhi
 216              		.loc 1 55 0
 217 0120 4CBF     		ite	mi
 218 0122 2B83     		strhmi	r3, [r5, #24]	@ movhi
 219              		.loc 1 57 0
 220 0124 6B83     		strhpl	r3, [r5, #26]	@ movhi
 221              		.loc 1 58 0
 222 0126 0021     		movs	r1, #0
 223 0128 C4F20201 		movt	r1, 16386
 224 012c 4FF48060 		mov	r0, #1024
 225 0130 0883     		strh	r0, [r1, #24]	@ movhi
 226              		.loc 1 59 0
 227 0132 A820     		movs	r0, #168
 228 0134 FFF7FEFF 		bl	halPolledDelay
ARM GAS  /var/folders/ng/s8655sgx1ys_4lf9jzm2w6n00000gn/T//ccoB4Kch.s 			page 5


 229              	.LVL10:
 230              		.loc 1 62 0
 231 0138 4FF44063 		mov	r3, #3072
 232 013c C4F20203 		movt	r3, 16386
 233 0140 0122     		movs	r2, #1
 234 0142 5A83     		strh	r2, [r3, #26]	@ movhi
 235 0144 70BD     		pop	{r4, r5, r6, pc}
 236              	.LVL11:
 237              	.L2:
 238              		.loc 1 55 0
 239 0146 1A83     		strh	r2, [r3, #24]	@ movhi
 240 0148 71E7     		b	.L3
 241              	.LVL12:
 242              	.L14:
 243 014a 4FF48072 		mov	r2, #256
 244 014e 2A83     		strh	r2, [r5, #24]	@ movhi
 245 0150 D9E7     		b	.L15
 246              	.LVL13:
 247              	.L12:
 248 0152 4FF48072 		mov	r2, #256
 249 0156 2A83     		strh	r2, [r5, #24]	@ movhi
 250 0158 C4E7     		b	.L13
 251              	.LVL14:
 252              	.L10:
 253 015a 4FF48072 		mov	r2, #256
 254 015e 2A83     		strh	r2, [r5, #24]	@ movhi
 255 0160 AEE7     		b	.L11
 256              	.LVL15:
 257              	.L8:
 258 0162 4FF48072 		mov	r2, #256
 259 0166 2A83     		strh	r2, [r5, #24]	@ movhi
 260 0168 98E7     		b	.L9
 261              	.LVL16:
 262              	.L6:
 263 016a 4FF48072 		mov	r2, #256
 264 016e 2A83     		strh	r2, [r5, #24]	@ movhi
 265 0170 82E7     		b	.L7
 266              	.LVL17:
 267              	.L4:
 268 0172 4FF48072 		mov	r2, #256
 269 0176 2A83     		strh	r2, [r5, #24]	@ movhi
 270 0178 6CE7     		b	.L5
 271              		.cfi_endproc
 272              	.LFE120:
 273              		.size	_write_byte, .-_write_byte
 274 017a 00BFAFF3 		.section	.text._write_data,"ax",%progbits
 274      0080
 275              		.align	2
 276              		.p2align 4,,15
 277              		.global	_write_data
 278              		.thumb
 279              		.thumb_func
 280              		.type	_write_data, %function
 281              	_write_data:
 282              	.LFB121:
 283              		.loc 1 66 0
 284              		.cfi_startproc
ARM GAS  /var/folders/ng/s8655sgx1ys_4lf9jzm2w6n00000gn/T//ccoB4Kch.s 			page 6


 285              		@ args = 0, pretend = 0, frame = 0
 286              		@ frame_needed = 0, uses_anonymous_args = 0
 287              	.LVL18:
 288 0000 08B5     		push	{r3, lr}
 289              	.LCFI1:
 290              		.cfi_def_cfa_offset 8
 291              		.cfi_offset 3, -8
 292              		.cfi_offset 14, -4
 293              		.loc 1 68 0
 294 0002 4FF44063 		mov	r3, #3072
 295 0006 C4F20203 		movt	r3, 16386
 296 000a 0222     		movs	r2, #2
 297 000c 1A83     		strh	r2, [r3, #24]	@ movhi
 298              		.loc 1 69 0
 299 000e FFF7FEFF 		bl	_write_byte
 300              	.LVL19:
 301              		.loc 1 70 0
 302 0012 42F2D000 		movw	r0, #8400
 303              		.loc 1 71 0
 304 0016 BDE80840 		pop	{r3, lr}
 305              		.loc 1 70 0
 306 001a FFF7FEBF 		b	halPolledDelay
 307              	.LVL20:
 308              		.cfi_endproc
 309              	.LFE121:
 310              		.size	_write_data, .-_write_data
 311 001e 00BF     		.section	.text._write_control,"ax",%progbits
 312              		.align	2
 313              		.p2align 4,,15
 314              		.global	_write_control
 315              		.thumb
 316              		.thumb_func
 317              		.type	_write_control, %function
 318              	_write_control:
 319              	.LFB122:
 320              		.loc 1 75 0
 321              		.cfi_startproc
 322              		@ args = 0, pretend = 0, frame = 0
 323              		@ frame_needed = 0, uses_anonymous_args = 0
 324              	.LVL21:
 325 0000 08B5     		push	{r3, lr}
 326              	.LCFI2:
 327              		.cfi_def_cfa_offset 8
 328              		.cfi_offset 3, -8
 329              		.cfi_offset 14, -4
 330              		.loc 1 77 0
 331 0002 4FF44063 		mov	r3, #3072
 332 0006 C4F20203 		movt	r3, 16386
 333 000a 0222     		movs	r2, #2
 334 000c 5A83     		strh	r2, [r3, #26]	@ movhi
 335              		.loc 1 78 0
 336 000e FFF7FEFF 		bl	_write_byte
 337              	.LVL22:
 338              		.loc 1 80 0
 339 0012 44F2A010 		movw	r0, #16800
 340              		.loc 1 81 0
 341 0016 BDE80840 		pop	{r3, lr}
ARM GAS  /var/folders/ng/s8655sgx1ys_4lf9jzm2w6n00000gn/T//ccoB4Kch.s 			page 7


 342              		.loc 1 80 0
 343 001a FFF7FEBF 		b	halPolledDelay
 344              	.LVL23:
 345              		.cfi_endproc
 346              	.LFE122:
 347              		.size	_write_control, .-_write_control
 348 001e 00BF     		.section	.text.lcd_clear,"ax",%progbits
 349              		.align	2
 350              		.p2align 4,,15
 351              		.global	lcd_clear
 352              		.thumb
 353              		.thumb_func
 354              		.type	lcd_clear, %function
 355              	lcd_clear:
 356              	.LFB124:
 357              		.loc 1 120 0
 358              		.cfi_startproc
 359              		@ args = 0, pretend = 0, frame = 0
 360              		@ frame_needed = 0, uses_anonymous_args = 0
 361 0000 08B5     		push	{r3, lr}
 362              	.LCFI3:
 363              		.cfi_def_cfa_offset 8
 364              		.cfi_offset 3, -8
 365              		.cfi_offset 14, -4
 366              		.loc 1 121 0
 367 0002 0120     		movs	r0, #1
 368 0004 FFF7FEFF 		bl	_write_control
 369              	.LVL24:
 370              		.loc 1 122 0
 371 0008 47F2A050 		movw	r0, #30112
 372 000c C0F20800 		movt	r0, 8
 373              		.loc 1 123 0
 374 0010 BDE80840 		pop	{r3, lr}
 375              		.loc 1 122 0
 376 0014 FFF7FEBF 		b	halPolledDelay
 377              	.LVL25:
 378              		.cfi_endproc
 379              	.LFE124:
 380              		.size	lcd_clear, .-lcd_clear
 381 0018 AFF30080 		.section	.text.lcd_on,"ax",%progbits
 381      AFF30080 
 382              		.align	2
 383              		.p2align 4,,15
 384              		.global	lcd_on
 385              		.thumb
 386              		.thumb_func
 387              		.type	lcd_on, %function
 388              	lcd_on:
 389              	.LFB125:
 390              		.loc 1 127 0
 391              		.cfi_startproc
 392              		@ args = 0, pretend = 0, frame = 0
 393              		@ frame_needed = 0, uses_anonymous_args = 0
 394              		@ link register save eliminated.
 395              		.loc 1 128 0
 396 0000 0C20     		movs	r0, #12
 397              		.loc 1 129 0
ARM GAS  /var/folders/ng/s8655sgx1ys_4lf9jzm2w6n00000gn/T//ccoB4Kch.s 			page 8


 398              		.loc 1 128 0
 399 0002 FFF7FEBF 		b	_write_control
 400              	.LVL26:
 401              		.cfi_endproc
 402              	.LFE125:
 403              		.size	lcd_on, .-lcd_on
 404 0006 00BFAFF3 		.section	.text.lcd_off,"ax",%progbits
 404      0080AFF3 
 404      0080
 405              		.align	2
 406              		.p2align 4,,15
 407              		.global	lcd_off
 408              		.thumb
 409              		.thumb_func
 410              		.type	lcd_off, %function
 411              	lcd_off:
 412              	.LFB126:
 413              		.loc 1 133 0
 414              		.cfi_startproc
 415              		@ args = 0, pretend = 0, frame = 0
 416              		@ frame_needed = 0, uses_anonymous_args = 0
 417              		@ link register save eliminated.
 418              		.loc 1 134 0
 419 0000 0820     		movs	r0, #8
 420              		.loc 1 135 0
 421              		.loc 1 134 0
 422 0002 FFF7FEBF 		b	_write_control
 423              	.LVL27:
 424              		.cfi_endproc
 425              	.LFE126:
 426              		.size	lcd_off, .-lcd_off
 427 0006 00BFAFF3 		.section	.text._lcd_init,"ax",%progbits
 427      0080AFF3 
 427      0080
 428              		.align	2
 429              		.p2align 4,,15
 430              		.global	_lcd_init
 431              		.thumb
 432              		.thumb_func
 433              		.type	_lcd_init, %function
 434              	_lcd_init:
 435              	.LFB123:
 436              		.loc 1 85 0
 437              		.cfi_startproc
 438              		@ args = 0, pretend = 0, frame = 0
 439              		@ frame_needed = 0, uses_anonymous_args = 0
 440 0000 08B5     		push	{r3, lr}
 441              	.LCFI4:
 442              		.cfi_def_cfa_offset 8
 443              		.cfi_offset 3, -8
 444              		.cfi_offset 14, -4
 445              		.loc 1 86 0
 446 0002 40F20003 		movw	r3, #:lower16:.LANCHOR0
 447 0006 C0F20003 		movt	r3, #:upper16:.LANCHOR0
 448              		.loc 1 89 0
 449 000a 4FF44062 		mov	r2, #3072
 450              		.loc 1 86 0
ARM GAS  /var/folders/ng/s8655sgx1ys_4lf9jzm2w6n00000gn/T//ccoB4Kch.s 			page 9


 451 000e 40F20001 		movw	r1, #:lower16:.LANCHOR1
 452              		.loc 1 89 0
 453 0012 C4F20202 		movt	r2, 16386
 454              		.loc 1 86 0
 455 0016 C0F20001 		movt	r1, #:upper16:.LANCHOR1
 456 001a 1960     		str	r1, [r3, #0]
 457              		.loc 1 89 0
 458 001c 0123     		movs	r3, #1
 459 001e 5383     		strh	r3, [r2, #26]	@ movhi
 460              		.loc 1 92 0
 461 0020 0F20     		movs	r0, #15
 462 0022 FFF7FEFF 		bl	chThdSleep
 463              	.LVL28:
 464              		.loc 1 95 0
 465 0026 3820     		movs	r0, #56
 466 0028 FFF7FEFF 		bl	_write_control
 467              	.LVL29:
 468              		.loc 1 96 0
 469 002c 48F6A070 		movw	r0, #36768
 470 0030 C0F20C00 		movt	r0, 12
 471 0034 FFF7FEFF 		bl	halPolledDelay
 472              	.LVL30:
 473              		.loc 1 97 0
 474 0038 3820     		movs	r0, #56
 475 003a FFF7FEFF 		bl	_write_control
 476              	.LVL31:
 477              		.loc 1 98 0
 478 003e 42F2D000 		movw	r0, #8400
 479 0042 FFF7FEFF 		bl	halPolledDelay
 480              	.LVL32:
 481              		.loc 1 99 0
 482 0046 3820     		movs	r0, #56
 483 0048 FFF7FEFF 		bl	_write_control
 484              	.LVL33:
 485              		.loc 1 102 0
 486 004c 3820     		movs	r0, #56
 487 004e FFF7FEFF 		bl	_write_control
 488              	.LVL34:
 489              		.loc 1 105 0
 490 0052 FFF7FEFF 		bl	lcd_off
 491              	.LVL35:
 492              		.loc 1 108 0
 493 0056 FFF7FEFF 		bl	lcd_clear
 494              	.LVL36:
 495              		.loc 1 111 0
 496 005a 0620     		movs	r0, #6
 497 005c FFF7FEFF 		bl	_write_control
 498              	.LVL37:
 499              		.loc 1 115 0
 500 0060 BDE80840 		pop	{r3, lr}
 501              		.loc 1 114 0
 502 0064 FFF7FEBF 		b	lcd_on
 503              	.LVL38:
 504              		.cfi_endproc
 505              	.LFE123:
 506              		.size	_lcd_init, .-_lcd_init
 507 0068 AFF30080 		.section	.text.lcd_cursor,"ax",%progbits
ARM GAS  /var/folders/ng/s8655sgx1ys_4lf9jzm2w6n00000gn/T//ccoB4Kch.s 			page 10


 507      AFF30080 
 508              		.align	2
 509              		.p2align 4,,15
 510              		.global	lcd_cursor
 511              		.thumb
 512              		.thumb_func
 513              		.type	lcd_cursor, %function
 514              	lcd_cursor:
 515              	.LFB127:
 516              		.loc 1 139 0
 517              		.cfi_startproc
 518              		@ args = 0, pretend = 0, frame = 0
 519              		@ frame_needed = 0, uses_anonymous_args = 0
 520              		@ link register save eliminated.
 521              	.LVL39:
 522              		.loc 1 140 0
 523 0000 0F28     		cmp	r0, #15
 524 0002 01D8     		bhi	.L25
 525              		.loc 1 140 0 is_stmt 0 discriminator 1
 526 0004 0129     		cmp	r1, #1
 527 0006 00D9     		bls	.L27
 528              	.L25:
 529 0008 7047     		bx	lr
 530              	.L27:
 531              	.LVL40:
 532              	.LBB6:
 533              	.LBB7:
 534              		.loc 1 145 0 is_stmt 1
 535 000a 0231     		adds	r1, r1, #2
 536              	.LVL41:
 537 000c 00EB8110 		add	r0, r0, r1, lsl #6
 538              	.LVL42:
 539              		.loc 1 146 0
 540 0010 C0B2     		uxtb	r0, r0
 541              	.LBE7:
 542              	.LBE6:
 543              		.loc 1 147 0
 544              	.LBB9:
 545              	.LBB8:
 546              		.loc 1 146 0
 547 0012 FFF7FEBF 		b	_write_control
 548              	.LVL43:
 549              	.LBE8:
 550              	.LBE9:
 551              		.cfi_endproc
 552              	.LFE127:
 553              		.size	lcd_cursor, .-lcd_cursor
 554 0016 00BFAFF3 		.section	.text.lcd_printChar,"ax",%progbits
 554      0080AFF3 
 554      0080
 555              		.align	2
 556              		.p2align 4,,15
 557              		.global	lcd_printChar
 558              		.thumb
 559              		.thumb_func
 560              		.type	lcd_printChar, %function
 561              	lcd_printChar:
ARM GAS  /var/folders/ng/s8655sgx1ys_4lf9jzm2w6n00000gn/T//ccoB4Kch.s 			page 11


 562              	.LFB128:
 563              		.loc 1 151 0
 564              		.cfi_startproc
 565              		@ args = 0, pretend = 0, frame = 0
 566              		@ frame_needed = 0, uses_anonymous_args = 0
 567              		@ link register save eliminated.
 568              	.LVL44:
 569              		.loc 1 152 0
 570 0000 0A28     		cmp	r0, #10
 571 0002 01D0     		beq	.L30
 572              		.loc 1 158 0
 573              		.loc 1 157 0
 574 0004 FFF7FEBF 		b	_write_data
 575              	.LVL45:
 576              	.L30:
 577              	.LBB16:
 578              	.LBB17:
 579              	.LBB18:
 580              	.LBB19:
 581              	.LBB20:
 582              	.LBB21:
 583              		.loc 1 146 0
 584 0008 C020     		movs	r0, #192
 585              	.LVL46:
 586              	.LBE21:
 587              	.LBE20:
 588              	.LBE19:
 589              	.LBE18:
 590              	.LBE17:
 591              	.LBE16:
 592              		.loc 1 158 0
 593              	.LBB27:
 594              	.LBB26:
 595              	.LBB25:
 596              	.LBB24:
 597              	.LBB23:
 598              	.LBB22:
 599              		.loc 1 146 0
 600 000a FFF7FEBF 		b	_write_control
 601              	.LVL47:
 602              	.LBE22:
 603              	.LBE23:
 604              	.LBE24:
 605              	.LBE25:
 606              	.LBE26:
 607              	.LBE27:
 608              		.cfi_endproc
 609              	.LFE128:
 610              		.size	lcd_printChar, .-lcd_printChar
 611 000e 00BF     		.section	.text.scrollingThread,"ax",%progbits
 612              		.align	2
 613              		.p2align 4,,15
 614              		.thumb
 615              		.thumb_func
 616              		.type	scrollingThread, %function
 617              	scrollingThread:
 618              	.LFB129:
ARM GAS  /var/folders/ng/s8655sgx1ys_4lf9jzm2w6n00000gn/T//ccoB4Kch.s 			page 12


 619              		.loc 1 162 0
 620              		.cfi_startproc
 621              		@ args = 0, pretend = 0, frame = 8
 622              		@ frame_needed = 0, uses_anonymous_args = 0
 623              	.LVL48:
 624 0000 2DE9F04F 		push	{r4, r5, r6, r7, r8, r9, sl, fp, lr}
 625              	.LCFI5:
 626              		.cfi_def_cfa_offset 36
 627              		.cfi_offset 4, -36
 628              		.cfi_offset 5, -32
 629              		.cfi_offset 6, -28
 630              		.cfi_offset 7, -24
 631              		.cfi_offset 8, -20
 632              		.cfi_offset 9, -16
 633              		.cfi_offset 10, -12
 634              		.cfi_offset 11, -8
 635              		.cfi_offset 14, -4
 636              		.loc 1 171 0
 637 0004 DFF80481 		ldr	r8, .L51+20
 638 0008 D8F80030 		ldr	r3, [r8, #0]
 639              		.loc 1 162 0
 640 000c 83B0     		sub	sp, sp, #12
 641              	.LCFI6:
 642              		.cfi_def_cfa_offset 48
 643              		.loc 1 171 0
 644 000e 002B     		cmp	r3, #0
 645 0010 60D0     		beq	.L49
 646 0012 0020     		movs	r0, #0
 647              	.LVL49:
 648 0014 0322     		movs	r2, #3
 649 0016 384F     		ldr	r7, .L51
 650 0018 DFF8F490 		ldr	r9, .L51+24
 651 001c 374C     		ldr	r4, .L51+4
 652              		.loc 1 193 0
 653 001e 384E     		ldr	r6, .L51+8
 654              		.loc 1 171 0
 655 0020 8DE80500 		stmia	sp, {r0, r2}
 656 0024 16E0     		b	.L32
 657              	.LVL50:
 658              	.L33:
 659              		.loc 1 181 0
 660 0026 012B     		cmp	r3, #1
 661 0028 23D0     		beq	.L50
 662              	.LVL51:
 663              	.L34:
 664              		.loc 1 214 0
 665 002a D9F80010 		ldr	r1, [r9, #0]
 666 002e 4FF47A70 		mov	r0, #1000
 667 0032 00FB01F2 		mul	r2, r0, r1
 668 0036 44F6D353 		movw	r3, #19923
 669 003a 511E     		subs	r1, r2, #1
 670 003c C1F26203 		movt	r3, 4194
 671 0040 A3FB0110 		umull	r1, r0, r3, r1
 672 0044 8209     		lsrs	r2, r0, #6
 673 0046 501C     		adds	r0, r2, #1
 674 0048 FFF7FEFF 		bl	chThdSleep
 675              	.LVL52:
ARM GAS  /var/folders/ng/s8655sgx1ys_4lf9jzm2w6n00000gn/T//ccoB4Kch.s 			page 13


 676              		.loc 1 171 0
 677 004c D8F80030 		ldr	r3, [r8, #0]
 678 0050 002B     		cmp	r3, #0
 679 0052 3FD0     		beq	.L49
 680              	.LVL53:
 681              	.L32:
 682              		.loc 1 174 0
 683 0054 3A68     		ldr	r2, [r7, #0]
 684 0056 012A     		cmp	r2, #1
 685 0058 E5D1     		bne	.L33
 686              		.loc 1 176 0
 687 005a 40F20001 		movw	r1, #:lower16:.LANCHOR3
 688 005e C0F20001 		movt	r1, #:upper16:.LANCHOR3
 689 0062 0220     		movs	r0, #2
 690              		.loc 1 177 0
 691 0064 0322     		movs	r2, #3
 692              		.loc 1 176 0
 693 0066 0860     		str	r0, [r1, #0]
 694              	.LVL54:
 695              		.loc 1 177 0
 696 0068 0021     		movs	r1, #0
 697              		.loc 1 181 0
 698 006a 012B     		cmp	r3, #1
 699              		.loc 1 177 0
 700 006c 8DE80600 		stmia	sp, {r1, r2}
 701              	.LVL55:
 702              		.loc 1 181 0
 703 0070 DBD1     		bne	.L34
 704              	.LVL56:
 705              	.L50:
 706              		.loc 1 183 0
 707 0072 2448     		ldr	r0, .L51+12
 708              		.loc 1 197 0
 709 0074 244D     		ldr	r5, .L51+16
 710              		.loc 1 183 0
 711 0076 FFF7FEFF 		bl	chMtxLock
 712              	.LVL57:
 713              		.loc 1 185 0
 714 007a 40F20003 		movw	r3, #:lower16:.LANCHOR5
 715 007e 40F20002 		movw	r2, #:lower16:.LANCHOR6
 716 0082 C0F20003 		movt	r3, #:upper16:.LANCHOR5
 717 0086 C0F20002 		movt	r2, #:upper16:.LANCHOR6
 718 008a 1878     		ldrb	r0, [r3, #0]	@ zero_extendqisi2
 719 008c 1178     		ldrb	r1, [r2, #0]	@ zero_extendqisi2
 720 008e FFF7FEFF 		bl	lcd_cursor
 721              	.LVL58:
 722              		.loc 1 188 0
 723 0092 4FF0000B 		mov	fp, #0
 724              		.loc 1 187 0
 725 0096 DDF800A0 		ldr	sl, [sp, #0]
 726              		.loc 1 191 0
 727 009a 0CE0     		b	.L48
 728              	.LVL59:
 729              	.L37:
 730              		.loc 1 193 0
 731 009c 16F80A00 		ldrb	r0, [r6, sl]	@ zero_extendqisi2
 732 00a0 FFF7FEFF 		bl	lcd_printChar
ARM GAS  /var/folders/ng/s8655sgx1ys_4lf9jzm2w6n00000gn/T//ccoB4Kch.s 			page 14


 733              	.LVL60:
 734              		.loc 1 197 0
 735 00a4 2968     		ldr	r1, [r5, #0]
 736              		.loc 1 194 0
 737 00a6 0AF1010A 		add	sl, sl, #1
 738              	.LVL61:
 739              		.loc 1 197 0
 740 00aa 8A45     		cmp	sl, r1
 741              		.loc 1 198 0
 742 00ac 04BF     		itt	eq
 743 00ae 9AFBFAF1 		sdiveq	r1, sl, sl
 744 00b2 0AFB11AA 		mlseq	sl, sl, r1, sl
 745              	.LVL62:
 746              	.L48:
 747              		.loc 1 191 0 discriminator 1
 748 00b6 2068     		ldr	r0, [r4, #0]
 749 00b8 8345     		cmp	fp, r0
 750              		.loc 1 195 0 discriminator 1
 751 00ba 0BF1010B 		add	fp, fp, #1
 752              	.LVL63:
 753              		.loc 1 191 0 discriminator 1
 754 00be EDDB     		blt	.L37
 755              		.loc 1 201 0
 756 00c0 FFF7FEFF 		bl	chMtxUnlock
 757              	.LVL64:
 758              		.loc 1 203 0
 759 00c4 3968     		ldr	r1, [r7, #0]
 760 00c6 49B1     		cbz	r1, .L38
 761              		.loc 1 203 0 is_stmt 0 discriminator 1
 762 00c8 019B     		ldr	r3, [sp, #4]
 763 00ca 002B     		cmp	r3, #0
 764 00cc 06DD     		ble	.L38
 765              		.loc 1 205 0 is_stmt 1
 766 00ce 5A1E     		subs	r2, r3, #1
 767 00d0 0192     		str	r2, [sp, #4]
 768              	.LVL65:
 769 00d2 AAE7     		b	.L34
 770              	.LVL66:
 771              	.L49:
 772              		.loc 1 218 0
 773 00d4 0020     		movs	r0, #0
 774 00d6 03B0     		add	sp, sp, #12
 775 00d8 BDE8F08F 		pop	{r4, r5, r6, r7, r8, r9, sl, fp, pc}
 776              	.LVL67:
 777              	.L38:
 778              		.loc 1 209 0
 779 00dc 0A4A     		ldr	r2, .L51+16
 780              		.loc 1 208 0
 781 00de 0099     		ldr	r1, [sp, #0]
 782              		.loc 1 209 0
 783 00e0 1068     		ldr	r0, [r2, #0]
 784              		.loc 1 207 0
 785 00e2 0023     		movs	r3, #0
 786              		.loc 1 208 0
 787 00e4 01F1010A 		add	sl, r1, #1
 788              	.LVL68:
 789              		.loc 1 210 0
ARM GAS  /var/folders/ng/s8655sgx1ys_4lf9jzm2w6n00000gn/T//ccoB4Kch.s 			page 15


 790 00e8 8245     		cmp	sl, r0
 791 00ea 08BF     		it	eq
 792 00ec 9A46     		moveq	sl, r3
 793              		.loc 1 207 0
 794 00ee 3B60     		str	r3, [r7, #0]
 795              	.LVL69:
 796              		.loc 1 210 0
 797 00f0 CDF800A0 		str	sl, [sp, #0]
 798 00f4 99E7     		b	.L34
 799              	.L52:
 800 00f6 00BF     		.align	2
 801              	.L51:
 802 00f8 00000000 		.word	.LANCHOR3
 803 00fc 00000000 		.word	.LANCHOR9
 804 0100 00000000 		.word	.LANCHOR7
 805 0104 00000000 		.word	.LANCHOR4
 806 0108 00000000 		.word	.LANCHOR8
 807 010c 00000000 		.word	.LANCHOR2
 808 0110 00000000 		.word	.LANCHOR10
 809              		.cfi_endproc
 810              	.LFE129:
 811              		.size	scrollingThread, .-scrollingThread
 812 0114 AFF30080 		.section	.text._put,"ax",%progbits
 812      AFF30080 
 812      AFF30080 
 813              		.align	2
 814              		.p2align 4,,15
 815              		.thumb
 816              		.thumb_func
 817              		.type	_put, %function
 818              	_put:
 819              	.LFB119:
 820              		.loc 1 36 0
 821              		.cfi_startproc
 822              		@ args = 0, pretend = 0, frame = 0
 823              		@ frame_needed = 0, uses_anonymous_args = 0
 824              	.LVL70:
 825              		.loc 1 38 0
 826 0000 0846     		mov	r0, r1
 827              	.LVL71:
 828              		.loc 1 36 0
 829 0002 08B5     		push	{r3, lr}
 830              	.LCFI7:
 831              		.cfi_def_cfa_offset 8
 832              		.cfi_offset 3, -8
 833              		.cfi_offset 14, -4
 834              		.loc 1 38 0
 835 0004 FFF7FEFF 		bl	lcd_printChar
 836              	.LVL72:
 837              		.loc 1 40 0
 838 0008 0020     		movs	r0, #0
 839 000a 08BD     		pop	{r3, pc}
 840              		.cfi_endproc
 841              	.LFE119:
 842              		.size	_put, .-_put
 843 000c AFF30080 		.section	.text.scroll_init,"ax",%progbits
 844              		.align	2
ARM GAS  /var/folders/ng/s8655sgx1ys_4lf9jzm2w6n00000gn/T//ccoB4Kch.s 			page 16


 845              		.p2align 4,,15
 846              		.global	scroll_init
 847              		.thumb
 848              		.thumb_func
 849              		.type	scroll_init, %function
 850              	scroll_init:
 851              	.LFB130:
 852              		.loc 1 222 0
 853              		.cfi_startproc
 854              		@ args = 0, pretend = 0, frame = 0
 855              		@ frame_needed = 0, uses_anonymous_args = 0
 856 0000 00B5     		push	{lr}
 857              	.LCFI8:
 858              		.cfi_def_cfa_offset 4
 859              		.cfi_offset 14, -4
 860              		.loc 1 223 0
 861 0002 40F20000 		movw	r0, #:lower16:.LANCHOR4
 862              		.loc 1 222 0
 863 0006 83B0     		sub	sp, sp, #12
 864              	.LCFI9:
 865              		.cfi_def_cfa_offset 16
 866              		.loc 1 223 0
 867 0008 C0F20000 		movt	r0, #:upper16:.LANCHOR4
 868 000c FFF7FEFF 		bl	chMtxInit
 869              	.LVL73:
 870              		.loc 1 225 0
 871 0010 0023     		movs	r3, #0
 872 0012 0093     		str	r3, [sp, #0]
 873 0014 40F20000 		movw	r0, #:lower16:.LANCHOR11
 874 0018 40F20003 		movw	r3, #:lower16:scrollingThread
 875 001c 4FF4DC71 		mov	r1, #440
 876 0020 4022     		movs	r2, #64
 877 0022 C0F20003 		movt	r3, #:upper16:scrollingThread
 878 0026 C0F20000 		movt	r0, #:upper16:.LANCHOR11
 879 002a FFF7FEFF 		bl	chThdCreateStatic
 880              	.LVL74:
 881              		.loc 1 228 0
 882 002e 03B0     		add	sp, sp, #12
 883 0030 00BD     		pop	{pc}
 884              		.cfi_endproc
 885              	.LFE130:
 886              		.size	scroll_init, .-scroll_init
 887 0032 00BFAFF3 		.section	.text.scrollSetCursor,"ax",%progbits
 887      0080AFF3 
 887      0080AFF3 
 887      0080
 888              		.align	2
 889              		.p2align 4,,15
 890              		.global	scrollSetCursor
 891              		.thumb
 892              		.thumb_func
 893              		.type	scrollSetCursor, %function
 894              	scrollSetCursor:
 895              	.LFB131:
 896              		.loc 1 232 0
 897              		.cfi_startproc
 898              		@ args = 0, pretend = 0, frame = 0
ARM GAS  /var/folders/ng/s8655sgx1ys_4lf9jzm2w6n00000gn/T//ccoB4Kch.s 			page 17


 899              		@ frame_needed = 0, uses_anonymous_args = 0
 900              		@ link register save eliminated.
 901              	.LVL75:
 902              		.loc 1 233 0
 903 0000 40F20002 		movw	r2, #:lower16:.LANCHOR6
 904              		.loc 1 234 0
 905 0004 40F20003 		movw	r3, #:lower16:.LANCHOR5
 906              		.loc 1 233 0
 907 0008 C0F20002 		movt	r2, #:upper16:.LANCHOR6
 908              		.loc 1 234 0
 909 000c C0F20003 		movt	r3, #:upper16:.LANCHOR5
 910              		.loc 1 233 0
 911 0010 1060     		str	r0, [r2, #0]
 912              		.loc 1 234 0
 913 0012 1960     		str	r1, [r3, #0]
 914 0014 7047     		bx	lr
 915              		.cfi_endproc
 916              	.LFE131:
 917              		.size	scrollSetCursor, .-scrollSetCursor
 918 0016 00BFAFF3 		.section	.text.scrollSetDelay,"ax",%progbits
 918      0080AFF3 
 918      0080
 919              		.align	2
 920              		.p2align 4,,15
 921              		.global	scrollSetDelay
 922              		.thumb
 923              		.thumb_func
 924              		.type	scrollSetDelay, %function
 925              	scrollSetDelay:
 926              	.LFB132:
 927              		.loc 1 237 0
 928              		.cfi_startproc
 929              		@ args = 0, pretend = 0, frame = 0
 930              		@ frame_needed = 0, uses_anonymous_args = 0
 931              		@ link register save eliminated.
 932              	.LVL76:
 933              		.loc 1 238 0
 934 0000 40F20003 		movw	r3, #:lower16:.LANCHOR10
 935 0004 C0F20003 		movt	r3, #:upper16:.LANCHOR10
 936 0008 1860     		str	r0, [r3, #0]
 937 000a 7047     		bx	lr
 938              		.cfi_endproc
 939              	.LFE132:
 940              		.size	scrollSetDelay, .-scrollSetDelay
 941 000c AFF30080 		.section	.text.scrollEnable,"ax",%progbits
 942              		.align	2
 943              		.p2align 4,,15
 944              		.global	scrollEnable
 945              		.thumb
 946              		.thumb_func
 947              		.type	scrollEnable, %function
 948              	scrollEnable:
 949              	.LFB133:
 950              		.loc 1 242 0
 951              		.cfi_startproc
 952              		@ args = 0, pretend = 0, frame = 0
 953              		@ frame_needed = 0, uses_anonymous_args = 0
ARM GAS  /var/folders/ng/s8655sgx1ys_4lf9jzm2w6n00000gn/T//ccoB4Kch.s 			page 18


 954              		@ link register save eliminated.
 955              		.loc 1 243 0
 956 0000 40F20003 		movw	r3, #:lower16:.LANCHOR2
 957 0004 C0F20003 		movt	r3, #:upper16:.LANCHOR2
 958 0008 0122     		movs	r2, #1
 959 000a 1A60     		str	r2, [r3, #0]
 960 000c 7047     		bx	lr
 961              		.cfi_endproc
 962              	.LFE133:
 963              		.size	scrollEnable, .-scrollEnable
 964 000e 00BF     		.section	.text.scrollPause,"ax",%progbits
 965              		.align	2
 966              		.p2align 4,,15
 967              		.global	scrollPause
 968              		.thumb
 969              		.thumb_func
 970              		.type	scrollPause, %function
 971              	scrollPause:
 972              	.LFB134:
 973              		.loc 1 247 0
 974              		.cfi_startproc
 975              		@ args = 0, pretend = 0, frame = 0
 976              		@ frame_needed = 0, uses_anonymous_args = 0
 977              		@ link register save eliminated.
 978              		.loc 1 248 0
 979 0000 40F20003 		movw	r3, #:lower16:.LANCHOR2
 980 0004 C0F20003 		movt	r3, #:upper16:.LANCHOR2
 981 0008 0222     		movs	r2, #2
 982 000a 1A60     		str	r2, [r3, #0]
 983 000c 7047     		bx	lr
 984              		.cfi_endproc
 985              	.LFE134:
 986              		.size	scrollPause, .-scrollPause
 987 000e 00BF     		.section	.text.scrollExit,"ax",%progbits
 988              		.align	2
 989              		.p2align 4,,15
 990              		.global	scrollExit
 991              		.thumb
 992              		.thumb_func
 993              		.type	scrollExit, %function
 994              	scrollExit:
 995              	.LFB135:
 996              		.loc 1 252 0
 997              		.cfi_startproc
 998              		@ args = 0, pretend = 0, frame = 0
 999              		@ frame_needed = 0, uses_anonymous_args = 0
 1000              		@ link register save eliminated.
 1001              		.loc 1 253 0
 1002 0000 40F20003 		movw	r3, #:lower16:.LANCHOR2
 1003 0004 C0F20003 		movt	r3, #:upper16:.LANCHOR2
 1004 0008 0022     		movs	r2, #0
 1005 000a 1A60     		str	r2, [r3, #0]
 1006 000c 7047     		bx	lr
 1007              		.cfi_endproc
 1008              	.LFE135:
 1009              		.size	scrollExit, .-scrollExit
 1010 000e 00BF     		.section	.text.scrollMessage,"ax",%progbits
ARM GAS  /var/folders/ng/s8655sgx1ys_4lf9jzm2w6n00000gn/T//ccoB4Kch.s 			page 19


 1011              		.align	2
 1012              		.p2align 4,,15
 1013              		.global	scrollMessage
 1014              		.thumb
 1015              		.thumb_func
 1016              		.type	scrollMessage, %function
 1017              	scrollMessage:
 1018              	.LFB136:
 1019              		.loc 1 266 0
 1020              		.cfi_startproc
 1021              		@ args = 0, pretend = 0, frame = 0
 1022              		@ frame_needed = 0, uses_anonymous_args = 0
 1023              		@ link register save eliminated.
 1024              	.LVL77:
 1025 0000 2DE9F003 		push	{r4, r5, r6, r7, r8, r9}
 1026              	.LCFI10:
 1027              		.cfi_def_cfa_offset 24
 1028              		.cfi_offset 4, -24
 1029              		.cfi_offset 5, -20
 1030              		.cfi_offset 6, -16
 1031              		.cfi_offset 7, -12
 1032              		.cfi_offset 8, -8
 1033              		.cfi_offset 9, -4
 1034              		.loc 1 271 0
 1035 0004 0578     		ldrb	r5, [r0, #0]	@ zero_extendqisi2
 1036 0006 002D     		cmp	r5, #0
 1037 0008 2AD0     		beq	.L64
 1038 000a 1A4F     		ldr	r7, .L66
 1039 000c 0646     		mov	r6, r0
 1040              		.loc 1 267 0
 1041 000e 0024     		movs	r4, #0
 1042              	.LVL78:
 1043              	.L62:
 1044              		.loc 1 273 0
 1045 0010 3D55     		strb	r5, [r7, r4]
 1046              		.loc 1 271 0
 1047 0012 16F8015F 		ldrb	r5, [r6, #1]!	@ zero_extendqisi2
 1048              		.loc 1 274 0
 1049 0016 0134     		adds	r4, r4, #1
 1050              	.LVL79:
 1051              		.loc 1 271 0
 1052 0018 002D     		cmp	r5, #0
 1053 001a F9D1     		bne	.L62
 1054 001c E61C     		adds	r6, r4, #3
 1055 001e B446     		mov	ip, r6
 1056 0020 04F10109 		add	r9, r4, #1
 1057 0024 04F10208 		add	r8, r4, #2
 1058              	.LVL80:
 1059              	.L61:
 1060              		.loc 1 280 0 discriminator 1
 1061 0028 2025     		movs	r5, #32
 1062 002a 3D55     		strb	r5, [r7, r4]
 1063              	.LVL81:
 1064 002c 07F80950 		strb	r5, [r7, r9]
 1065              	.LVL82:
 1066              		.loc 1 285 0 discriminator 1
 1067 0030 114C     		ldr	r4, .L66+4
ARM GAS  /var/folders/ng/s8655sgx1ys_4lf9jzm2w6n00000gn/T//ccoB4Kch.s 			page 20


 1068              		.loc 1 280 0 discriminator 1
 1069 0032 07F80850 		strb	r5, [r7, r8]
 1070              	.LVL83:
 1071              		.loc 1 284 0 discriminator 1
 1072 0036 10F80C00 		ldrb	r0, [r0, ip]	@ zero_extendqisi2
 1073              	.LVL84:
 1074              		.loc 1 285 0 discriminator 1
 1075 003a 2660     		str	r6, [r4, #0]
 1076              	.LVL85:
 1077              	.LBB28:
 1078              	.LBB29:
 1079              		.loc 1 233 0 discriminator 1
 1080 003c 0F4C     		ldr	r4, .L66+8
 1081              	.LBE29:
 1082              	.LBE28:
 1083              		.loc 1 284 0 discriminator 1
 1084 003e B855     		strb	r0, [r7, r6]
 1085              	.LBB33:
 1086              	.LBB30:
 1087              		.loc 1 233 0 discriminator 1
 1088 0040 2160     		str	r1, [r4, #0]
 1089              	.LBE30:
 1090              	.LBE33:
 1091              		.loc 1 289 0 discriminator 1
 1092 0042 D018     		adds	r0, r2, r3
 1093              	.LBB34:
 1094              	.LBB31:
 1095              		.loc 1 234 0 discriminator 1
 1096 0044 0E49     		ldr	r1, .L66+12
 1097              	.LVL86:
 1098              	.LBE31:
 1099              	.LBE34:
 1100              		.loc 1 289 0 discriminator 1
 1101 0046 1028     		cmp	r0, #16
 1102              		.loc 1 291 0 discriminator 1
 1103 0048 C8BF     		it	gt
 1104 004a C2F11003 		rsbgt	r3, r2, #16
 1105              	.LVL87:
 1106              	.LBB35:
 1107              	.LBB32:
 1108              		.loc 1 234 0 discriminator 1
 1109 004e 0A60     		str	r2, [r1, #0]
 1110              	.LBE32:
 1111              	.LBE35:
 1112              		.loc 1 294 0 discriminator 1
 1113 0050 0C4A     		ldr	r2, .L66+16
 1114              	.LVL88:
 1115 0052 1360     		str	r3, [r2, #0]
 1116              		.loc 1 295 0 discriminator 1
 1117 0054 0C4B     		ldr	r3, .L66+20
 1118              	.LVL89:
 1119 0056 0120     		movs	r0, #1
 1120 0058 1860     		str	r0, [r3, #0]
 1121              		.loc 1 296 0 discriminator 1
 1122 005a BDE8F003 		pop	{r4, r5, r6, r7, r8, r9}
 1123 005e 7047     		bx	lr
 1124              	.LVL90:
ARM GAS  /var/folders/ng/s8655sgx1ys_4lf9jzm2w6n00000gn/T//ccoB4Kch.s 			page 21


 1125              	.L64:
 1126              		.loc 1 271 0
 1127 0060 0326     		movs	r6, #3
 1128 0062 044F     		ldr	r7, .L66
 1129 0064 4FF00208 		mov	r8, #2
 1130 0068 4FF00109 		mov	r9, #1
 1131 006c B446     		mov	ip, r6
 1132              		.loc 1 267 0
 1133 006e 2C46     		mov	r4, r5
 1134 0070 DAE7     		b	.L61
 1135              	.L67:
 1136 0072 00BF     		.align	2
 1137              	.L66:
 1138 0074 00000000 		.word	.LANCHOR7
 1139 0078 00000000 		.word	.LANCHOR8
 1140 007c 00000000 		.word	.LANCHOR6
 1141 0080 00000000 		.word	.LANCHOR5
 1142 0084 00000000 		.word	.LANCHOR9
 1143 0088 00000000 		.word	.LANCHOR3
 1144              		.cfi_endproc
 1145              	.LFE136:
 1146              		.size	scrollMessage, .-scrollMessage
 1147              		.global	LCD
 1148              		.global	_scrollBuf
 1149              		.global	_scrollStart
 1150              		.global	_scrollStatus
 1151              		.global	_scrollMsgLen
 1152              		.global	_scrollWidth
 1153              		.global	_scrollDelay
 1154              		.global	_scrollCol
 1155              		.global	_scrollRow
 1156              		.global	_scrollMtx
 1157 008c AFF30080 		.section	.bss._scrollMsgLen,"aw",%nobits
 1158              		.align	2
 1159              		.set	.LANCHOR8,. + 0
 1160              		.type	_scrollMsgLen, %object
 1161              		.size	_scrollMsgLen, 4
 1162              	_scrollMsgLen:
 1163 0000 00000000 		.space	4
 1164              		.section	.data._scrollDelay,"aw",%progbits
 1165              		.align	2
 1166              		.set	.LANCHOR10,. + 0
 1167              		.type	_scrollDelay, %object
 1168              		.size	_scrollDelay, 4
 1169              	_scrollDelay:
 1170 0000 2C010000 		.word	300
 1171              		.section	.data._scrollStatus,"aw",%progbits
 1172              		.align	2
 1173              		.set	.LANCHOR2,. + 0
 1174              		.type	_scrollStatus, %object
 1175              		.size	_scrollStatus, 4
 1176              	_scrollStatus:
 1177 0000 01000000 		.word	1
 1178              		.section	.bss._scrollBuf,"aw",%nobits
 1179              		.align	2
 1180              		.set	.LANCHOR7,. + 0
 1181              		.type	_scrollBuf, %object
ARM GAS  /var/folders/ng/s8655sgx1ys_4lf9jzm2w6n00000gn/T//ccoB4Kch.s 			page 22


 1182              		.size	_scrollBuf, 100
 1183              	_scrollBuf:
 1184 0000 00000000 		.space	100
 1184      00000000 
 1184      00000000 
 1184      00000000 
 1184      00000000 
 1185              		.section	.bss._scrollCol,"aw",%nobits
 1186              		.align	2
 1187              		.set	.LANCHOR5,. + 0
 1188              		.type	_scrollCol, %object
 1189              		.size	_scrollCol, 4
 1190              	_scrollCol:
 1191 0000 00000000 		.space	4
 1192              		.section	.data._scrollStart,"aw",%progbits
 1193              		.align	2
 1194              		.set	.LANCHOR3,. + 0
 1195              		.type	_scrollStart, %object
 1196              		.size	_scrollStart, 4
 1197              	_scrollStart:
 1198 0000 01000000 		.word	1
 1199              		.section	.data._scrollWidth,"aw",%progbits
 1200              		.align	2
 1201              		.set	.LANCHOR9,. + 0
 1202              		.type	_scrollWidth, %object
 1203              		.size	_scrollWidth, 4
 1204              	_scrollWidth:
 1205 0000 10000000 		.word	16
 1206              		.section	.bss._scrollMtx,"aw",%nobits
 1207              		.align	2
 1208              		.set	.LANCHOR4,. + 0
 1209              		.type	_scrollMtx, %object
 1210              		.size	_scrollMtx, 16
 1211              	_scrollMtx:
 1212 0000 00000000 		.space	16
 1212      00000000 
 1212      00000000 
 1212      00000000 
 1213              		.section	.bss.scrollingThreadWorkingArea,"aw",%nobits
 1214              		.align	3
 1215              		.set	.LANCHOR11,. + 0
 1216              		.type	scrollingThreadWorkingArea, %object
 1217              		.size	scrollingThreadWorkingArea, 440
 1218              	scrollingThreadWorkingArea:
 1219 0000 00000000 		.space	440
 1219      00000000 
 1219      00000000 
 1219      00000000 
 1219      00000000 
 1220              		.section	.data._vmt,"aw",%progbits
 1221              		.align	2
 1222              		.set	.LANCHOR1,. + 0
 1223              		.type	_vmt, %object
 1224              		.size	_vmt, 16
 1225              	_vmt:
 1226 0000 00000000 		.word	0
 1227 0004 00000000 		.word	0
ARM GAS  /var/folders/ng/s8655sgx1ys_4lf9jzm2w6n00000gn/T//ccoB4Kch.s 			page 23


 1228 0008 00000000 		.word	_put
 1229 000c 00000000 		.word	0
 1230              		.section	.bss._scrollRow,"aw",%nobits
 1231              		.align	2
 1232              		.set	.LANCHOR6,. + 0
 1233              		.type	_scrollRow, %object
 1234              		.size	_scrollRow, 4
 1235              	_scrollRow:
 1236 0000 00000000 		.space	4
 1237              		.section	.bss.LCD,"aw",%nobits
 1238              		.align	2
 1239              		.set	.LANCHOR0,. + 0
 1240              		.type	LCD, %object
 1241              		.size	LCD, 4
 1242              	LCD:
 1243 0000 00000000 		.space	4
 1244              		.text
 1245              	.Letext0:
 1246              		.file 2 "/Users/jseng/gccarm/bin/../lib/gcc/arm-none-eabi/4.7.4/include/stddef.h"
 1247              		.file 3 "/Users/jseng/gccarm/bin/../lib/gcc/arm-none-eabi/4.7.4/../../../../arm-none-eabi/include/
 1248              		.file 4 "../AithonLibrary/ChibiOS/os/ports/GCC/ARMCMx/chtypes.h"
 1249              		.file 5 "../AithonLibrary/ChibiOS/os/kernel/include/chlists.h"
 1250              		.file 6 "../AithonLibrary/ChibiOS/os/kernel/include/chthreads.h"
 1251              		.file 7 "../AithonLibrary/ChibiOS/os/ports/GCC/ARMCMx/chcore_v7m.h"
 1252              		.file 8 "../AithonLibrary/ChibiOS/os/kernel/include/chmtx.h"
 1253              		.file 9 "../AithonLibrary/ChibiOS/os/kernel/include/chstreams.h"
 1254              		.file 10 "../AithonLibrary/ChibiOS/os/hal/platforms/STM32F4xx/hal_lld.h"
 1255              		.file 11 "../AithonLibrary/ChibiOS/os/hal/platforms/STM32/GPIOv2/pal_lld.h"
 1256              		.file 12 "../AithonLibrary/ChibiOS/os/ports/common/ARMCMx/CMSIS/include/core_cm4.h"
 1257              		.file 13 "../AithonLibrary/ChibiOS/os/hal/include/hal.h"
 1258              		.section	.debug_info,"",%progbits
 1259              	.Ldebug_info0:
 1260 0000 200F0000 		.4byte	0xf20
 1261 0004 0200     		.2byte	0x2
 1262 0006 00000000 		.4byte	.Ldebug_abbrev0
 1263 000a 04       		.byte	0x4
 1264 000b 01       		.uleb128 0x1
 1265 000c F5000000 		.4byte	.LASF118
 1266 0010 01       		.byte	0x1
 1267 0011 3C040000 		.4byte	.LASF119
 1268 0015 07030000 		.4byte	.LASF120
 1269 0019 E8000000 		.4byte	.Ldebug_ranges0+0xe8
 1270 001d 00000000 		.4byte	0
 1271 0021 00000000 		.4byte	0
 1272 0025 00000000 		.4byte	.Ldebug_line0
 1273 0029 02       		.uleb128 0x2
 1274 002a 04       		.byte	0x4
 1275 002b 05       		.byte	0x5
 1276 002c 696E7400 		.ascii	"int\000"
 1277 0030 03       		.uleb128 0x3
 1278 0031 15000000 		.4byte	.LASF2
 1279 0035 02       		.byte	0x2
 1280 0036 D5       		.byte	0xd5
 1281 0037 3B000000 		.4byte	0x3b
 1282 003b 04       		.uleb128 0x4
 1283 003c 04       		.byte	0x4
 1284 003d 07       		.byte	0x7
ARM GAS  /var/folders/ng/s8655sgx1ys_4lf9jzm2w6n00000gn/T//ccoB4Kch.s 			page 24


 1285 003e D5010000 		.4byte	.LASF0
 1286 0042 04       		.uleb128 0x4
 1287 0043 01       		.byte	0x1
 1288 0044 06       		.byte	0x6
 1289 0045 AD000000 		.4byte	.LASF1
 1290 0049 03       		.uleb128 0x3
 1291 004a D9040000 		.4byte	.LASF3
 1292 004e 03       		.byte	0x3
 1293 004f 2A       		.byte	0x2a
 1294 0050 54000000 		.4byte	0x54
 1295 0054 04       		.uleb128 0x4
 1296 0055 01       		.byte	0x1
 1297 0056 08       		.byte	0x8
 1298 0057 7D030000 		.4byte	.LASF4
 1299 005b 04       		.uleb128 0x4
 1300 005c 02       		.byte	0x2
 1301 005d 05       		.byte	0x5
 1302 005e AF030000 		.4byte	.LASF5
 1303 0062 03       		.uleb128 0x3
 1304 0063 61010000 		.4byte	.LASF6
 1305 0067 03       		.byte	0x3
 1306 0068 36       		.byte	0x36
 1307 0069 6D000000 		.4byte	0x6d
 1308 006d 04       		.uleb128 0x4
 1309 006e 02       		.byte	0x2
 1310 006f 07       		.byte	0x7
 1311 0070 2E020000 		.4byte	.LASF7
 1312 0074 03       		.uleb128 0x3
 1313 0075 75030000 		.4byte	.LASF8
 1314 0079 03       		.byte	0x3
 1315 007a 4F       		.byte	0x4f
 1316 007b 7F000000 		.4byte	0x7f
 1317 007f 04       		.uleb128 0x4
 1318 0080 04       		.byte	0x4
 1319 0081 05       		.byte	0x5
 1320 0082 4F010000 		.4byte	.LASF9
 1321 0086 03       		.uleb128 0x3
 1322 0087 EE030000 		.4byte	.LASF10
 1323 008b 03       		.byte	0x3
 1324 008c 50       		.byte	0x50
 1325 008d 91000000 		.4byte	0x91
 1326 0091 04       		.uleb128 0x4
 1327 0092 04       		.byte	0x4
 1328 0093 07       		.byte	0x7
 1329 0094 F7030000 		.4byte	.LASF11
 1330 0098 04       		.uleb128 0x4
 1331 0099 08       		.byte	0x8
 1332 009a 05       		.byte	0x5
 1333 009b AB020000 		.4byte	.LASF12
 1334 009f 03       		.uleb128 0x3
 1335 00a0 23000000 		.4byte	.LASF13
 1336 00a4 03       		.byte	0x3
 1337 00a5 78       		.byte	0x78
 1338 00a6 AA000000 		.4byte	0xaa
 1339 00aa 04       		.uleb128 0x4
 1340 00ab 08       		.byte	0x8
 1341 00ac 07       		.byte	0x7
ARM GAS  /var/folders/ng/s8655sgx1ys_4lf9jzm2w6n00000gn/T//ccoB4Kch.s 			page 25


 1342 00ad A9010000 		.4byte	.LASF14
 1343 00b1 04       		.uleb128 0x4
 1344 00b2 01       		.byte	0x1
 1345 00b3 02       		.byte	0x2
 1346 00b4 6F030000 		.4byte	.LASF15
 1347 00b8 03       		.uleb128 0x3
 1348 00b9 53020000 		.4byte	.LASF16
 1349 00bd 04       		.byte	0x4
 1350 00be 2C       		.byte	0x2c
 1351 00bf 49000000 		.4byte	0x49
 1352 00c3 03       		.uleb128 0x3
 1353 00c4 58010000 		.4byte	.LASF17
 1354 00c8 04       		.byte	0x4
 1355 00c9 2D       		.byte	0x2d
 1356 00ca 49000000 		.4byte	0x49
 1357 00ce 03       		.uleb128 0x3
 1358 00cf 53030000 		.4byte	.LASF18
 1359 00d3 04       		.byte	0x4
 1360 00d4 2E       		.byte	0x2e
 1361 00d5 49000000 		.4byte	0x49
 1362 00d9 03       		.uleb128 0x3
 1363 00da EB000000 		.4byte	.LASF19
 1364 00de 04       		.byte	0x4
 1365 00df 2F       		.byte	0x2f
 1366 00e0 49000000 		.4byte	0x49
 1367 00e4 03       		.uleb128 0x3
 1368 00e5 62030000 		.4byte	.LASF20
 1369 00e9 04       		.byte	0x4
 1370 00ea 30       		.byte	0x30
 1371 00eb 86000000 		.4byte	0x86
 1372 00ef 03       		.uleb128 0x3
 1373 00f0 4D020000 		.4byte	.LASF21
 1374 00f4 04       		.byte	0x4
 1375 00f5 31       		.byte	0x31
 1376 00f6 74000000 		.4byte	0x74
 1377 00fa 03       		.uleb128 0x3
 1378 00fb 6E020000 		.4byte	.LASF22
 1379 00ff 04       		.byte	0x4
 1380 0100 33       		.byte	0x33
 1381 0101 86000000 		.4byte	0x86
 1382 0105 03       		.uleb128 0x3
 1383 0106 5A040000 		.4byte	.LASF23
 1384 010a 04       		.byte	0x4
 1385 010b 35       		.byte	0x35
 1386 010c 86000000 		.4byte	0x86
 1387 0110 03       		.uleb128 0x3
 1388 0111 DC030000 		.4byte	.LASF24
 1389 0115 05       		.byte	0x5
 1390 0116 2A       		.byte	0x2a
 1391 0117 1B010000 		.4byte	0x11b
 1392 011b 05       		.uleb128 0x5
 1393 011c DC030000 		.4byte	.LASF24
 1394 0120 48       		.byte	0x48
 1395 0121 06       		.byte	0x6
 1396 0122 5E       		.byte	0x5e
 1397 0123 40020000 		.4byte	0x240
 1398 0127 06       		.uleb128 0x6
ARM GAS  /var/folders/ng/s8655sgx1ys_4lf9jzm2w6n00000gn/T//ccoB4Kch.s 			page 26


 1399 0128 C3030000 		.4byte	.LASF25
 1400 012c 06       		.byte	0x6
 1401 012d 5F       		.byte	0x5f
 1402 012e 65020000 		.4byte	0x265
 1403 0132 02       		.byte	0x2
 1404 0133 23       		.byte	0x23
 1405 0134 00       		.uleb128 0
 1406 0135 06       		.uleb128 0x6
 1407 0136 5B030000 		.4byte	.LASF26
 1408 013a 06       		.byte	0x6
 1409 013b 61       		.byte	0x61
 1410 013c 65020000 		.4byte	0x265
 1411 0140 02       		.byte	0x2
 1412 0141 23       		.byte	0x23
 1413 0142 04       		.uleb128 0x4
 1414 0143 06       		.uleb128 0x6
 1415 0144 82000000 		.4byte	.LASF27
 1416 0148 06       		.byte	0x6
 1417 0149 63       		.byte	0x63
 1418 014a E4000000 		.4byte	0xe4
 1419 014e 02       		.byte	0x2
 1420 014f 23       		.byte	0x23
 1421 0150 08       		.uleb128 0x8
 1422 0151 06       		.uleb128 0x6
 1423 0152 20050000 		.4byte	.LASF28
 1424 0156 06       		.byte	0x6
 1425 0157 64       		.byte	0x64
 1426 0158 2E040000 		.4byte	0x42e
 1427 015c 02       		.byte	0x2
 1428 015d 23       		.byte	0x23
 1429 015e 0C       		.uleb128 0xc
 1430 015f 06       		.uleb128 0x6
 1431 0160 6A010000 		.4byte	.LASF29
 1432 0164 06       		.byte	0x6
 1433 0165 66       		.byte	0x66
 1434 0166 65020000 		.4byte	0x265
 1435 016a 02       		.byte	0x2
 1436 016b 23       		.byte	0x23
 1437 016c 10       		.uleb128 0x10
 1438 016d 06       		.uleb128 0x6
 1439 016e F3020000 		.4byte	.LASF30
 1440 0172 06       		.byte	0x6
 1441 0173 67       		.byte	0x67
 1442 0174 65020000 		.4byte	0x265
 1443 0178 02       		.byte	0x2
 1444 0179 23       		.byte	0x23
 1445 017a 14       		.uleb128 0x14
 1446 017b 06       		.uleb128 0x6
 1447 017c 6F040000 		.4byte	.LASF31
 1448 0180 06       		.byte	0x6
 1449 0181 6E       		.byte	0x6e
 1450 0182 DF040000 		.4byte	0x4df
 1451 0186 02       		.byte	0x2
 1452 0187 23       		.byte	0x23
 1453 0188 18       		.uleb128 0x18
 1454 0189 06       		.uleb128 0x6
 1455 018a 9D030000 		.4byte	.LASF32
ARM GAS  /var/folders/ng/s8655sgx1ys_4lf9jzm2w6n00000gn/T//ccoB4Kch.s 			page 27


 1456 018e 06       		.byte	0x6
 1457 018f 79       		.byte	0x79
 1458 0190 C3000000 		.4byte	0xc3
 1459 0194 02       		.byte	0x2
 1460 0195 23       		.byte	0x23
 1461 0196 1C       		.uleb128 0x1c
 1462 0197 06       		.uleb128 0x6
 1463 0198 CA030000 		.4byte	.LASF33
 1464 019c 06       		.byte	0x6
 1465 019d 7D       		.byte	0x7d
 1466 019e B8000000 		.4byte	0xb8
 1467 01a2 02       		.byte	0x2
 1468 01a3 23       		.byte	0x23
 1469 01a4 1D       		.uleb128 0x1d
 1470 01a5 06       		.uleb128 0x6
 1471 01a6 C1040000 		.4byte	.LASF34
 1472 01aa 06       		.byte	0x6
 1473 01ab 82       		.byte	0x82
 1474 01ac CE000000 		.4byte	0xce
 1475 01b0 02       		.byte	0x2
 1476 01b1 23       		.byte	0x23
 1477 01b2 1E       		.uleb128 0x1e
 1478 01b3 06       		.uleb128 0x6
 1479 01b4 B9030000 		.4byte	.LASF35
 1480 01b8 06       		.byte	0x6
 1481 01b9 88       		.byte	0x88
 1482 01ba D9000000 		.4byte	0xd9
 1483 01be 02       		.byte	0x2
 1484 01bf 23       		.byte	0x23
 1485 01c0 1F       		.uleb128 0x1f
 1486 01c1 06       		.uleb128 0x6
 1487 01c2 7B040000 		.4byte	.LASF36
 1488 01c6 06       		.byte	0x6
 1489 01c7 8F       		.byte	0x8f
 1490 01c8 5D040000 		.4byte	0x45d
 1491 01cc 02       		.byte	0x2
 1492 01cd 23       		.byte	0x23
 1493 01ce 20       		.uleb128 0x20
 1494 01cf 07       		.uleb128 0x7
 1495 01d0 705F7500 		.ascii	"p_u\000"
 1496 01d4 06       		.byte	0x6
 1497 01d5 B4       		.byte	0xb4
 1498 01d6 AA040000 		.4byte	0x4aa
 1499 01da 02       		.byte	0x2
 1500 01db 23       		.byte	0x23
 1501 01dc 24       		.uleb128 0x24
 1502 01dd 06       		.uleb128 0x6
 1503 01de 26050000 		.4byte	.LASF37
 1504 01e2 06       		.byte	0x6
 1505 01e3 B9       		.byte	0xb9
 1506 01e4 8D020000 		.4byte	0x28d
 1507 01e8 02       		.byte	0x2
 1508 01e9 23       		.byte	0x23
 1509 01ea 28       		.uleb128 0x28
 1510 01eb 06       		.uleb128 0x6
 1511 01ec 94040000 		.4byte	.LASF38
 1512 01f0 06       		.byte	0x6
ARM GAS  /var/folders/ng/s8655sgx1ys_4lf9jzm2w6n00000gn/T//ccoB4Kch.s 			page 28


 1513 01f1 BF       		.byte	0xbf
 1514 01f2 6B020000 		.4byte	0x26b
 1515 01f6 02       		.byte	0x2
 1516 01f7 23       		.byte	0x23
 1517 01f8 2C       		.uleb128 0x2c
 1518 01f9 06       		.uleb128 0x6
 1519 01fa D3040000 		.4byte	.LASF39
 1520 01fe 06       		.byte	0x6
 1521 01ff C3       		.byte	0xc3
 1522 0200 EF000000 		.4byte	0xef
 1523 0204 02       		.byte	0x2
 1524 0205 23       		.byte	0x23
 1525 0206 34       		.uleb128 0x34
 1526 0207 06       		.uleb128 0x6
 1527 0208 E3030000 		.4byte	.LASF40
 1528 020c 06       		.byte	0x6
 1529 020d C9       		.byte	0xc9
 1530 020e FA000000 		.4byte	0xfa
 1531 0212 02       		.byte	0x2
 1532 0213 23       		.byte	0x23
 1533 0214 38       		.uleb128 0x38
 1534 0215 06       		.uleb128 0x6
 1535 0216 A5030000 		.4byte	.LASF41
 1536 021a 06       		.byte	0x6
 1537 021b D0       		.byte	0xd0
 1538 021c F1040000 		.4byte	0x4f1
 1539 0220 02       		.byte	0x2
 1540 0221 23       		.byte	0x23
 1541 0222 3C       		.uleb128 0x3c
 1542 0223 06       		.uleb128 0x6
 1543 0224 64040000 		.4byte	.LASF42
 1544 0228 06       		.byte	0x6
 1545 0229 D4       		.byte	0xd4
 1546 022a E4000000 		.4byte	0xe4
 1547 022e 02       		.byte	0x2
 1548 022f 23       		.byte	0x23
 1549 0230 40       		.uleb128 0x40
 1550 0231 06       		.uleb128 0x6
 1551 0232 BE000000 		.4byte	.LASF43
 1552 0236 06       		.byte	0x6
 1553 0237 DA       		.byte	0xda
 1554 0238 A3020000 		.4byte	0x2a3
 1555 023c 02       		.byte	0x2
 1556 023d 23       		.byte	0x23
 1557 023e 44       		.uleb128 0x44
 1558 023f 00       		.byte	0
 1559 0240 08       		.uleb128 0x8
 1560 0241 08       		.byte	0x8
 1561 0242 05       		.byte	0x5
 1562 0243 61       		.byte	0x61
 1563 0244 65020000 		.4byte	0x265
 1564 0248 06       		.uleb128 0x6
 1565 0249 C3030000 		.4byte	.LASF25
 1566 024d 05       		.byte	0x5
 1567 024e 62       		.byte	0x62
 1568 024f 65020000 		.4byte	0x265
 1569 0253 02       		.byte	0x2
ARM GAS  /var/folders/ng/s8655sgx1ys_4lf9jzm2w6n00000gn/T//ccoB4Kch.s 			page 29


 1570 0254 23       		.byte	0x23
 1571 0255 00       		.uleb128 0
 1572 0256 06       		.uleb128 0x6
 1573 0257 5B030000 		.4byte	.LASF26
 1574 025b 05       		.byte	0x5
 1575 025c 64       		.byte	0x64
 1576 025d 65020000 		.4byte	0x265
 1577 0261 02       		.byte	0x2
 1578 0262 23       		.byte	0x23
 1579 0263 04       		.uleb128 0x4
 1580 0264 00       		.byte	0
 1581 0265 09       		.uleb128 0x9
 1582 0266 04       		.byte	0x4
 1583 0267 10010000 		.4byte	0x110
 1584 026b 03       		.uleb128 0x3
 1585 026c 68000000 		.4byte	.LASF44
 1586 0270 05       		.byte	0x5
 1587 0271 66       		.byte	0x66
 1588 0272 40020000 		.4byte	0x240
 1589 0276 08       		.uleb128 0x8
 1590 0277 04       		.byte	0x4
 1591 0278 05       		.byte	0x5
 1592 0279 6B       		.byte	0x6b
 1593 027a 8D020000 		.4byte	0x28d
 1594 027e 06       		.uleb128 0x6
 1595 027f C3030000 		.4byte	.LASF25
 1596 0283 05       		.byte	0x5
 1597 0284 6D       		.byte	0x6d
 1598 0285 65020000 		.4byte	0x265
 1599 0289 02       		.byte	0x2
 1600 028a 23       		.byte	0x23
 1601 028b 00       		.uleb128 0
 1602 028c 00       		.byte	0
 1603 028d 03       		.uleb128 0x3
 1604 028e 62020000 		.4byte	.LASF45
 1605 0292 05       		.byte	0x5
 1606 0293 70       		.byte	0x70
 1607 0294 76020000 		.4byte	0x276
 1608 0298 03       		.uleb128 0x3
 1609 0299 A0010000 		.4byte	.LASF46
 1610 029d 07       		.byte	0x7
 1611 029e E5       		.byte	0xe5
 1612 029f A3020000 		.4byte	0x2a3
 1613 02a3 0A       		.uleb128 0xa
 1614 02a4 04       		.byte	0x4
 1615 02a5 03       		.uleb128 0x3
 1616 02a6 8E020000 		.4byte	.LASF47
 1617 02aa 07       		.byte	0x7
 1618 02ab EB       		.byte	0xeb
 1619 02ac 9F000000 		.4byte	0x9f
 1620 02b0 0B       		.uleb128 0xb
 1621 02b1 8D040000 		.4byte	.LASF48
 1622 02b5 64       		.byte	0x64
 1623 02b6 07       		.byte	0x7
 1624 02b7 0C01     		.2byte	0x10c
 1625 02b9 2E040000 		.4byte	0x42e
 1626 02bd 0C       		.uleb128 0xc
ARM GAS  /var/folders/ng/s8655sgx1ys_4lf9jzm2w6n00000gn/T//ccoB4Kch.s 			page 30


 1627 02be 73313600 		.ascii	"s16\000"
 1628 02c2 07       		.byte	0x7
 1629 02c3 0E01     		.2byte	0x10e
 1630 02c5 98020000 		.4byte	0x298
 1631 02c9 02       		.byte	0x2
 1632 02ca 23       		.byte	0x23
 1633 02cb 00       		.uleb128 0
 1634 02cc 0C       		.uleb128 0xc
 1635 02cd 73313700 		.ascii	"s17\000"
 1636 02d1 07       		.byte	0x7
 1637 02d2 0F01     		.2byte	0x10f
 1638 02d4 98020000 		.4byte	0x298
 1639 02d8 02       		.byte	0x2
 1640 02d9 23       		.byte	0x23
 1641 02da 04       		.uleb128 0x4
 1642 02db 0C       		.uleb128 0xc
 1643 02dc 73313800 		.ascii	"s18\000"
 1644 02e0 07       		.byte	0x7
 1645 02e1 1001     		.2byte	0x110
 1646 02e3 98020000 		.4byte	0x298
 1647 02e7 02       		.byte	0x2
 1648 02e8 23       		.byte	0x23
 1649 02e9 08       		.uleb128 0x8
 1650 02ea 0C       		.uleb128 0xc
 1651 02eb 73313900 		.ascii	"s19\000"
 1652 02ef 07       		.byte	0x7
 1653 02f0 1101     		.2byte	0x111
 1654 02f2 98020000 		.4byte	0x298
 1655 02f6 02       		.byte	0x2
 1656 02f7 23       		.byte	0x23
 1657 02f8 0C       		.uleb128 0xc
 1658 02f9 0C       		.uleb128 0xc
 1659 02fa 73323000 		.ascii	"s20\000"
 1660 02fe 07       		.byte	0x7
 1661 02ff 1201     		.2byte	0x112
 1662 0301 98020000 		.4byte	0x298
 1663 0305 02       		.byte	0x2
 1664 0306 23       		.byte	0x23
 1665 0307 10       		.uleb128 0x10
 1666 0308 0C       		.uleb128 0xc
 1667 0309 73323100 		.ascii	"s21\000"
 1668 030d 07       		.byte	0x7
 1669 030e 1301     		.2byte	0x113
 1670 0310 98020000 		.4byte	0x298
 1671 0314 02       		.byte	0x2
 1672 0315 23       		.byte	0x23
 1673 0316 14       		.uleb128 0x14
 1674 0317 0C       		.uleb128 0xc
 1675 0318 73323200 		.ascii	"s22\000"
 1676 031c 07       		.byte	0x7
 1677 031d 1401     		.2byte	0x114
 1678 031f 98020000 		.4byte	0x298
 1679 0323 02       		.byte	0x2
 1680 0324 23       		.byte	0x23
 1681 0325 18       		.uleb128 0x18
 1682 0326 0C       		.uleb128 0xc
 1683 0327 73323300 		.ascii	"s23\000"
ARM GAS  /var/folders/ng/s8655sgx1ys_4lf9jzm2w6n00000gn/T//ccoB4Kch.s 			page 31


 1684 032b 07       		.byte	0x7
 1685 032c 1501     		.2byte	0x115
 1686 032e 98020000 		.4byte	0x298
 1687 0332 02       		.byte	0x2
 1688 0333 23       		.byte	0x23
 1689 0334 1C       		.uleb128 0x1c
 1690 0335 0C       		.uleb128 0xc
 1691 0336 73323400 		.ascii	"s24\000"
 1692 033a 07       		.byte	0x7
 1693 033b 1601     		.2byte	0x116
 1694 033d 98020000 		.4byte	0x298
 1695 0341 02       		.byte	0x2
 1696 0342 23       		.byte	0x23
 1697 0343 20       		.uleb128 0x20
 1698 0344 0C       		.uleb128 0xc
 1699 0345 73323500 		.ascii	"s25\000"
 1700 0349 07       		.byte	0x7
 1701 034a 1701     		.2byte	0x117
 1702 034c 98020000 		.4byte	0x298
 1703 0350 02       		.byte	0x2
 1704 0351 23       		.byte	0x23
 1705 0352 24       		.uleb128 0x24
 1706 0353 0C       		.uleb128 0xc
 1707 0354 73323600 		.ascii	"s26\000"
 1708 0358 07       		.byte	0x7
 1709 0359 1801     		.2byte	0x118
 1710 035b 98020000 		.4byte	0x298
 1711 035f 02       		.byte	0x2
 1712 0360 23       		.byte	0x23
 1713 0361 28       		.uleb128 0x28
 1714 0362 0C       		.uleb128 0xc
 1715 0363 73323700 		.ascii	"s27\000"
 1716 0367 07       		.byte	0x7
 1717 0368 1901     		.2byte	0x119
 1718 036a 98020000 		.4byte	0x298
 1719 036e 02       		.byte	0x2
 1720 036f 23       		.byte	0x23
 1721 0370 2C       		.uleb128 0x2c
 1722 0371 0C       		.uleb128 0xc
 1723 0372 73323800 		.ascii	"s28\000"
 1724 0376 07       		.byte	0x7
 1725 0377 1A01     		.2byte	0x11a
 1726 0379 98020000 		.4byte	0x298
 1727 037d 02       		.byte	0x2
 1728 037e 23       		.byte	0x23
 1729 037f 30       		.uleb128 0x30
 1730 0380 0C       		.uleb128 0xc
 1731 0381 73323900 		.ascii	"s29\000"
 1732 0385 07       		.byte	0x7
 1733 0386 1B01     		.2byte	0x11b
 1734 0388 98020000 		.4byte	0x298
 1735 038c 02       		.byte	0x2
 1736 038d 23       		.byte	0x23
 1737 038e 34       		.uleb128 0x34
 1738 038f 0C       		.uleb128 0xc
 1739 0390 73333000 		.ascii	"s30\000"
 1740 0394 07       		.byte	0x7
ARM GAS  /var/folders/ng/s8655sgx1ys_4lf9jzm2w6n00000gn/T//ccoB4Kch.s 			page 32


 1741 0395 1C01     		.2byte	0x11c
 1742 0397 98020000 		.4byte	0x298
 1743 039b 02       		.byte	0x2
 1744 039c 23       		.byte	0x23
 1745 039d 38       		.uleb128 0x38
 1746 039e 0C       		.uleb128 0xc
 1747 039f 73333100 		.ascii	"s31\000"
 1748 03a3 07       		.byte	0x7
 1749 03a4 1D01     		.2byte	0x11d
 1750 03a6 98020000 		.4byte	0x298
 1751 03aa 02       		.byte	0x2
 1752 03ab 23       		.byte	0x23
 1753 03ac 3C       		.uleb128 0x3c
 1754 03ad 0C       		.uleb128 0xc
 1755 03ae 723400   		.ascii	"r4\000"
 1756 03b1 07       		.byte	0x7
 1757 03b2 1F01     		.2byte	0x11f
 1758 03b4 98020000 		.4byte	0x298
 1759 03b8 02       		.byte	0x2
 1760 03b9 23       		.byte	0x23
 1761 03ba 40       		.uleb128 0x40
 1762 03bb 0C       		.uleb128 0xc
 1763 03bc 723500   		.ascii	"r5\000"
 1764 03bf 07       		.byte	0x7
 1765 03c0 2001     		.2byte	0x120
 1766 03c2 98020000 		.4byte	0x298
 1767 03c6 02       		.byte	0x2
 1768 03c7 23       		.byte	0x23
 1769 03c8 44       		.uleb128 0x44
 1770 03c9 0C       		.uleb128 0xc
 1771 03ca 723600   		.ascii	"r6\000"
 1772 03cd 07       		.byte	0x7
 1773 03ce 2101     		.2byte	0x121
 1774 03d0 98020000 		.4byte	0x298
 1775 03d4 02       		.byte	0x2
 1776 03d5 23       		.byte	0x23
 1777 03d6 48       		.uleb128 0x48
 1778 03d7 0C       		.uleb128 0xc
 1779 03d8 723700   		.ascii	"r7\000"
 1780 03db 07       		.byte	0x7
 1781 03dc 2201     		.2byte	0x122
 1782 03de 98020000 		.4byte	0x298
 1783 03e2 02       		.byte	0x2
 1784 03e3 23       		.byte	0x23
 1785 03e4 4C       		.uleb128 0x4c
 1786 03e5 0C       		.uleb128 0xc
 1787 03e6 723800   		.ascii	"r8\000"
 1788 03e9 07       		.byte	0x7
 1789 03ea 2301     		.2byte	0x123
 1790 03ec 98020000 		.4byte	0x298
 1791 03f0 02       		.byte	0x2
 1792 03f1 23       		.byte	0x23
 1793 03f2 50       		.uleb128 0x50
 1794 03f3 0C       		.uleb128 0xc
 1795 03f4 723900   		.ascii	"r9\000"
 1796 03f7 07       		.byte	0x7
 1797 03f8 2401     		.2byte	0x124
ARM GAS  /var/folders/ng/s8655sgx1ys_4lf9jzm2w6n00000gn/T//ccoB4Kch.s 			page 33


 1798 03fa 98020000 		.4byte	0x298
 1799 03fe 02       		.byte	0x2
 1800 03ff 23       		.byte	0x23
 1801 0400 54       		.uleb128 0x54
 1802 0401 0C       		.uleb128 0xc
 1803 0402 72313000 		.ascii	"r10\000"
 1804 0406 07       		.byte	0x7
 1805 0407 2501     		.2byte	0x125
 1806 0409 98020000 		.4byte	0x298
 1807 040d 02       		.byte	0x2
 1808 040e 23       		.byte	0x23
 1809 040f 58       		.uleb128 0x58
 1810 0410 0C       		.uleb128 0xc
 1811 0411 72313100 		.ascii	"r11\000"
 1812 0415 07       		.byte	0x7
 1813 0416 2601     		.2byte	0x126
 1814 0418 98020000 		.4byte	0x298
 1815 041c 02       		.byte	0x2
 1816 041d 23       		.byte	0x23
 1817 041e 5C       		.uleb128 0x5c
 1818 041f 0C       		.uleb128 0xc
 1819 0420 6C7200   		.ascii	"lr\000"
 1820 0423 07       		.byte	0x7
 1821 0424 2701     		.2byte	0x127
 1822 0426 98020000 		.4byte	0x298
 1823 042a 02       		.byte	0x2
 1824 042b 23       		.byte	0x23
 1825 042c 60       		.uleb128 0x60
 1826 042d 00       		.byte	0
 1827 042e 0B       		.uleb128 0xb
 1828 042f 26020000 		.4byte	.LASF49
 1829 0433 04       		.byte	0x4
 1830 0434 07       		.byte	0x7
 1831 0435 3101     		.2byte	0x131
 1832 0437 4B040000 		.4byte	0x44b
 1833 043b 0C       		.uleb128 0xc
 1834 043c 72313300 		.ascii	"r13\000"
 1835 0440 07       		.byte	0x7
 1836 0441 3201     		.2byte	0x132
 1837 0443 4B040000 		.4byte	0x44b
 1838 0447 02       		.byte	0x2
 1839 0448 23       		.byte	0x23
 1840 0449 00       		.uleb128 0
 1841 044a 00       		.byte	0
 1842 044b 09       		.uleb128 0x9
 1843 044c 04       		.byte	0x4
 1844 044d B0020000 		.4byte	0x2b0
 1845 0451 0D       		.uleb128 0xd
 1846 0452 86000000 		.4byte	0x86
 1847 0456 04       		.uleb128 0x4
 1848 0457 04       		.byte	0x4
 1849 0458 07       		.byte	0x7
 1850 0459 BF020000 		.4byte	.LASF50
 1851 045d 0D       		.uleb128 0xd
 1852 045e 05010000 		.4byte	0x105
 1853 0462 05       		.uleb128 0x5
 1854 0463 7A020000 		.4byte	.LASF51
ARM GAS  /var/folders/ng/s8655sgx1ys_4lf9jzm2w6n00000gn/T//ccoB4Kch.s 			page 34


 1855 0467 10       		.byte	0x10
 1856 0468 08       		.byte	0x8
 1857 0469 2C       		.byte	0x2c
 1858 046a 99040000 		.4byte	0x499
 1859 046e 06       		.uleb128 0x6
 1860 046f D0000000 		.4byte	.LASF52
 1861 0473 08       		.byte	0x8
 1862 0474 2D       		.byte	0x2d
 1863 0475 6B020000 		.4byte	0x26b
 1864 0479 02       		.byte	0x2
 1865 047a 23       		.byte	0x23
 1866 047b 00       		.uleb128 0
 1867 047c 06       		.uleb128 0x6
 1868 047d 18050000 		.4byte	.LASF53
 1869 0481 08       		.byte	0x8
 1870 0482 2F       		.byte	0x2f
 1871 0483 65020000 		.4byte	0x265
 1872 0487 02       		.byte	0x2
 1873 0488 23       		.byte	0x23
 1874 0489 08       		.uleb128 0x8
 1875 048a 06       		.uleb128 0x6
 1876 048b 53040000 		.4byte	.LASF54
 1877 048f 08       		.byte	0x8
 1878 0490 31       		.byte	0x31
 1879 0491 99040000 		.4byte	0x499
 1880 0495 02       		.byte	0x2
 1881 0496 23       		.byte	0x23
 1882 0497 0C       		.uleb128 0xc
 1883 0498 00       		.byte	0
 1884 0499 09       		.uleb128 0x9
 1885 049a 04       		.byte	0x4
 1886 049b 62040000 		.4byte	0x462
 1887 049f 03       		.uleb128 0x3
 1888 04a0 7A020000 		.4byte	.LASF51
 1889 04a4 08       		.byte	0x8
 1890 04a5 33       		.byte	0x33
 1891 04a6 62040000 		.4byte	0x462
 1892 04aa 0E       		.uleb128 0xe
 1893 04ab 04       		.byte	0x4
 1894 04ac 06       		.byte	0x6
 1895 04ad 96       		.byte	0x96
 1896 04ae DF040000 		.4byte	0x4df
 1897 04b2 0F       		.uleb128 0xf
 1898 04b3 1C000000 		.4byte	.LASF55
 1899 04b7 06       		.byte	0x6
 1900 04b8 9D       		.byte	0x9d
 1901 04b9 EF000000 		.4byte	0xef
 1902 04bd 0F       		.uleb128 0xf
 1903 04be 77010000 		.4byte	.LASF56
 1904 04c2 06       		.byte	0x6
 1905 04c3 A4       		.byte	0xa4
 1906 04c4 EF000000 		.4byte	0xef
 1907 04c8 0F       		.uleb128 0xf
 1908 04c9 E4000000 		.4byte	.LASF57
 1909 04cd 06       		.byte	0x6
 1910 04ce AB       		.byte	0xab
 1911 04cf A3020000 		.4byte	0x2a3
ARM GAS  /var/folders/ng/s8655sgx1ys_4lf9jzm2w6n00000gn/T//ccoB4Kch.s 			page 35


 1912 04d3 0F       		.uleb128 0xf
 1913 04d4 FE040000 		.4byte	.LASF58
 1914 04d8 06       		.byte	0x6
 1915 04d9 B2       		.byte	0xb2
 1916 04da FA000000 		.4byte	0xfa
 1917 04de 00       		.byte	0
 1918 04df 09       		.uleb128 0x9
 1919 04e0 04       		.byte	0x4
 1920 04e1 E5040000 		.4byte	0x4e5
 1921 04e5 10       		.uleb128 0x10
 1922 04e6 EA040000 		.4byte	0x4ea
 1923 04ea 04       		.uleb128 0x4
 1924 04eb 01       		.byte	0x1
 1925 04ec 08       		.byte	0x8
 1926 04ed 14040000 		.4byte	.LASF59
 1927 04f1 09       		.uleb128 0x9
 1928 04f2 04       		.byte	0x4
 1929 04f3 9F040000 		.4byte	0x49f
 1930 04f7 03       		.uleb128 0x3
 1931 04f8 0D000000 		.4byte	.LASF60
 1932 04fc 06       		.byte	0x6
 1933 04fd E5       		.byte	0xe5
 1934 04fe 02050000 		.4byte	0x502
 1935 0502 09       		.uleb128 0x9
 1936 0503 04       		.byte	0x4
 1937 0504 08050000 		.4byte	0x508
 1938 0508 11       		.uleb128 0x11
 1939 0509 01       		.byte	0x1
 1940 050a EF000000 		.4byte	0xef
 1941 050e 18050000 		.4byte	0x518
 1942 0512 12       		.uleb128 0x12
 1943 0513 A3020000 		.4byte	0x2a3
 1944 0517 00       		.byte	0
 1945 0518 09       		.uleb128 0x9
 1946 0519 04       		.byte	0x4
 1947 051a 49000000 		.4byte	0x49
 1948 051e 05       		.uleb128 0x5
 1949 051f 24040000 		.4byte	.LASF61
 1950 0523 10       		.byte	0x10
 1951 0524 09       		.byte	0x9
 1952 0525 48       		.byte	0x48
 1953 0526 63050000 		.4byte	0x563
 1954 052a 06       		.uleb128 0x6
 1955 052b B9020000 		.4byte	.LASF62
 1956 052f 09       		.byte	0x9
 1957 0530 49       		.byte	0x49
 1958 0531 88050000 		.4byte	0x588
 1959 0535 02       		.byte	0x2
 1960 0536 23       		.byte	0x23
 1961 0537 00       		.uleb128 0
 1962 0538 06       		.uleb128 0x6
 1963 0539 05050000 		.4byte	.LASF63
 1964 053d 09       		.byte	0x9
 1965 053e 49       		.byte	0x49
 1966 053f A8050000 		.4byte	0x5a8
 1967 0543 02       		.byte	0x2
 1968 0544 23       		.byte	0x23
ARM GAS  /var/folders/ng/s8655sgx1ys_4lf9jzm2w6n00000gn/T//ccoB4Kch.s 			page 36


 1969 0545 04       		.uleb128 0x4
 1970 0546 07       		.uleb128 0x7
 1971 0547 70757400 		.ascii	"put\000"
 1972 054b 09       		.byte	0x9
 1973 054c 49       		.byte	0x49
 1974 054d C3050000 		.4byte	0x5c3
 1975 0551 02       		.byte	0x2
 1976 0552 23       		.byte	0x23
 1977 0553 08       		.uleb128 0x8
 1978 0554 07       		.uleb128 0x7
 1979 0555 67657400 		.ascii	"get\000"
 1980 0559 09       		.byte	0x9
 1981 055a 49       		.byte	0x49
 1982 055b 02050000 		.4byte	0x502
 1983 055f 02       		.byte	0x2
 1984 0560 23       		.byte	0x23
 1985 0561 0C       		.uleb128 0xc
 1986 0562 00       		.byte	0
 1987 0563 11       		.uleb128 0x11
 1988 0564 01       		.byte	0x1
 1989 0565 30000000 		.4byte	0x30
 1990 0569 7D050000 		.4byte	0x57d
 1991 056d 12       		.uleb128 0x12
 1992 056e A3020000 		.4byte	0x2a3
 1993 0572 12       		.uleb128 0x12
 1994 0573 7D050000 		.4byte	0x57d
 1995 0577 12       		.uleb128 0x12
 1996 0578 30000000 		.4byte	0x30
 1997 057c 00       		.byte	0
 1998 057d 09       		.uleb128 0x9
 1999 057e 04       		.byte	0x4
 2000 057f 83050000 		.4byte	0x583
 2001 0583 10       		.uleb128 0x10
 2002 0584 49000000 		.4byte	0x49
 2003 0588 09       		.uleb128 0x9
 2004 0589 04       		.byte	0x4
 2005 058a 63050000 		.4byte	0x563
 2006 058e 11       		.uleb128 0x11
 2007 058f 01       		.byte	0x1
 2008 0590 30000000 		.4byte	0x30
 2009 0594 A8050000 		.4byte	0x5a8
 2010 0598 12       		.uleb128 0x12
 2011 0599 A3020000 		.4byte	0x2a3
 2012 059d 12       		.uleb128 0x12
 2013 059e 18050000 		.4byte	0x518
 2014 05a2 12       		.uleb128 0x12
 2015 05a3 30000000 		.4byte	0x30
 2016 05a7 00       		.byte	0
 2017 05a8 09       		.uleb128 0x9
 2018 05a9 04       		.byte	0x4
 2019 05aa 8E050000 		.4byte	0x58e
 2020 05ae 11       		.uleb128 0x11
 2021 05af 01       		.byte	0x1
 2022 05b0 EF000000 		.4byte	0xef
 2023 05b4 C3050000 		.4byte	0x5c3
 2024 05b8 12       		.uleb128 0x12
 2025 05b9 A3020000 		.4byte	0x2a3
ARM GAS  /var/folders/ng/s8655sgx1ys_4lf9jzm2w6n00000gn/T//ccoB4Kch.s 			page 37


 2026 05bd 12       		.uleb128 0x12
 2027 05be 49000000 		.4byte	0x49
 2028 05c2 00       		.byte	0
 2029 05c3 09       		.uleb128 0x9
 2030 05c4 04       		.byte	0x4
 2031 05c5 AE050000 		.4byte	0x5ae
 2032 05c9 08       		.uleb128 0x8
 2033 05ca 04       		.byte	0x4
 2034 05cb 09       		.byte	0x9
 2035 05cc 51       		.byte	0x51
 2036 05cd E0050000 		.4byte	0x5e0
 2037 05d1 07       		.uleb128 0x7
 2038 05d2 766D7400 		.ascii	"vmt\000"
 2039 05d6 09       		.byte	0x9
 2040 05d7 53       		.byte	0x53
 2041 05d8 E0050000 		.4byte	0x5e0
 2042 05dc 02       		.byte	0x2
 2043 05dd 23       		.byte	0x23
 2044 05de 00       		.uleb128 0
 2045 05df 00       		.byte	0
 2046 05e0 09       		.uleb128 0x9
 2047 05e1 04       		.byte	0x4
 2048 05e2 E6050000 		.4byte	0x5e6
 2049 05e6 10       		.uleb128 0x10
 2050 05e7 1E050000 		.4byte	0x51e
 2051 05eb 03       		.uleb128 0x3
 2052 05ec C0010000 		.4byte	.LASF64
 2053 05f0 09       		.byte	0x9
 2054 05f1 55       		.byte	0x55
 2055 05f2 C9050000 		.4byte	0x5c9
 2056 05f6 0D       		.uleb128 0xd
 2057 05f7 74000000 		.4byte	0x74
 2058 05fb 13       		.uleb128 0x13
 2059 05fc 3F000000 		.4byte	.LASF65
 2060 0600 0A       		.byte	0xa
 2061 0601 A406     		.2byte	0x6a4
 2062 0603 86000000 		.4byte	0x86
 2063 0607 08       		.uleb128 0x8
 2064 0608 04       		.byte	0x4
 2065 0609 0B       		.byte	0xb
 2066 060a 96       		.byte	0x96
 2067 060b 2C060000 		.4byte	0x62c
 2068 060f 07       		.uleb128 0x7
 2069 0610 73657400 		.ascii	"set\000"
 2070 0614 0B       		.byte	0xb
 2071 0615 97       		.byte	0x97
 2072 0616 62000000 		.4byte	0x62
 2073 061a 02       		.byte	0x2
 2074 061b 23       		.byte	0x23
 2075 061c 00       		.uleb128 0
 2076 061d 06       		.uleb128 0x6
 2077 061e E3020000 		.4byte	.LASF66
 2078 0622 0B       		.byte	0xb
 2079 0623 98       		.byte	0x98
 2080 0624 62000000 		.4byte	0x62
 2081 0628 02       		.byte	0x2
 2082 0629 23       		.byte	0x23
ARM GAS  /var/folders/ng/s8655sgx1ys_4lf9jzm2w6n00000gn/T//ccoB4Kch.s 			page 38


 2083 062a 02       		.uleb128 0x2
 2084 062b 00       		.byte	0
 2085 062c 0E       		.uleb128 0xe
 2086 062d 04       		.byte	0x4
 2087 062e 0B       		.byte	0xb
 2088 062f 94       		.byte	0x94
 2089 0630 47060000 		.4byte	0x647
 2090 0634 14       		.uleb128 0x14
 2091 0635 5700     		.ascii	"W\000"
 2092 0637 0B       		.byte	0xb
 2093 0638 95       		.byte	0x95
 2094 0639 86000000 		.4byte	0x86
 2095 063d 14       		.uleb128 0x14
 2096 063e 4800     		.ascii	"H\000"
 2097 0640 0B       		.byte	0xb
 2098 0641 99       		.byte	0x99
 2099 0642 07060000 		.4byte	0x607
 2100 0646 00       		.byte	0
 2101 0647 08       		.uleb128 0x8
 2102 0648 28       		.byte	0x28
 2103 0649 0B       		.byte	0xb
 2104 064a 8C       		.byte	0x8c
 2105 064b DC060000 		.4byte	0x6dc
 2106 064f 06       		.uleb128 0x6
 2107 0650 62000000 		.4byte	.LASF67
 2108 0654 0B       		.byte	0xb
 2109 0655 8E       		.byte	0x8e
 2110 0656 51040000 		.4byte	0x451
 2111 065a 02       		.byte	0x2
 2112 065b 23       		.byte	0x23
 2113 065c 00       		.uleb128 0
 2114 065d 06       		.uleb128 0x6
 2115 065e 2C000000 		.4byte	.LASF68
 2116 0662 0B       		.byte	0xb
 2117 0663 8F       		.byte	0x8f
 2118 0664 51040000 		.4byte	0x451
 2119 0668 02       		.byte	0x2
 2120 0669 23       		.byte	0x23
 2121 066a 04       		.uleb128 0x4
 2122 066b 06       		.uleb128 0x6
 2123 066c 8E010000 		.4byte	.LASF69
 2124 0670 0B       		.byte	0xb
 2125 0671 90       		.byte	0x90
 2126 0672 51040000 		.4byte	0x451
 2127 0676 02       		.byte	0x2
 2128 0677 23       		.byte	0x23
 2129 0678 08       		.uleb128 0x8
 2130 0679 06       		.uleb128 0x6
 2131 067a 3E010000 		.4byte	.LASF70
 2132 067e 0B       		.byte	0xb
 2133 067f 91       		.byte	0x91
 2134 0680 51040000 		.4byte	0x451
 2135 0684 02       		.byte	0x2
 2136 0685 23       		.byte	0x23
 2137 0686 0C       		.uleb128 0xc
 2138 0687 07       		.uleb128 0x7
 2139 0688 49445200 		.ascii	"IDR\000"
ARM GAS  /var/folders/ng/s8655sgx1ys_4lf9jzm2w6n00000gn/T//ccoB4Kch.s 			page 39


 2140 068c 0B       		.byte	0xb
 2141 068d 92       		.byte	0x92
 2142 068e 51040000 		.4byte	0x451
 2143 0692 02       		.byte	0x2
 2144 0693 23       		.byte	0x23
 2145 0694 10       		.uleb128 0x10
 2146 0695 07       		.uleb128 0x7
 2147 0696 4F445200 		.ascii	"ODR\000"
 2148 069a 0B       		.byte	0xb
 2149 069b 93       		.byte	0x93
 2150 069c 51040000 		.4byte	0x451
 2151 06a0 02       		.byte	0x2
 2152 06a1 23       		.byte	0x23
 2153 06a2 14       		.uleb128 0x14
 2154 06a3 06       		.uleb128 0x6
 2155 06a4 B9000000 		.4byte	.LASF71
 2156 06a8 0B       		.byte	0xb
 2157 06a9 9A       		.byte	0x9a
 2158 06aa DC060000 		.4byte	0x6dc
 2159 06ae 02       		.byte	0x2
 2160 06af 23       		.byte	0x23
 2161 06b0 18       		.uleb128 0x18
 2162 06b1 06       		.uleb128 0x6
 2163 06b2 0E020000 		.4byte	.LASF72
 2164 06b6 0B       		.byte	0xb
 2165 06b7 9B       		.byte	0x9b
 2166 06b8 51040000 		.4byte	0x451
 2167 06bc 02       		.byte	0x2
 2168 06bd 23       		.byte	0x23
 2169 06be 1C       		.uleb128 0x1c
 2170 06bf 06       		.uleb128 0x6
 2171 06c0 21020000 		.4byte	.LASF73
 2172 06c4 0B       		.byte	0xb
 2173 06c5 9C       		.byte	0x9c
 2174 06c6 51040000 		.4byte	0x451
 2175 06ca 02       		.byte	0x2
 2176 06cb 23       		.byte	0x23
 2177 06cc 20       		.uleb128 0x20
 2178 06cd 06       		.uleb128 0x6
 2179 06ce 41030000 		.4byte	.LASF74
 2180 06d2 0B       		.byte	0xb
 2181 06d3 9D       		.byte	0x9d
 2182 06d4 51040000 		.4byte	0x451
 2183 06d8 02       		.byte	0x2
 2184 06d9 23       		.byte	0x23
 2185 06da 24       		.uleb128 0x24
 2186 06db 00       		.byte	0
 2187 06dc 0D       		.uleb128 0xd
 2188 06dd 2C060000 		.4byte	0x62c
 2189 06e1 03       		.uleb128 0x3
 2190 06e2 01020000 		.4byte	.LASF75
 2191 06e6 0B       		.byte	0xb
 2192 06e7 9E       		.byte	0x9e
 2193 06e8 47060000 		.4byte	0x647
 2194 06ec 03       		.uleb128 0x3
 2195 06ed 55000000 		.4byte	.LASF76
 2196 06f1 0B       		.byte	0xb
ARM GAS  /var/folders/ng/s8655sgx1ys_4lf9jzm2w6n00000gn/T//ccoB4Kch.s 			page 40


 2197 06f2 F0       		.byte	0xf0
 2198 06f3 86000000 		.4byte	0x86
 2199 06f7 15       		.uleb128 0x15
 2200 06f8 A5020000 		.4byte	0x2a5
 2201 06fc 07070000 		.4byte	0x707
 2202 0700 16       		.uleb128 0x16
 2203 0701 56040000 		.4byte	0x456
 2204 0705 36       		.byte	0x36
 2205 0706 00       		.byte	0
 2206 0707 09       		.uleb128 0x9
 2207 0708 04       		.byte	0x4
 2208 0709 EA040000 		.4byte	0x4ea
 2209 070d 17       		.uleb128 0x17
 2210 070e 01       		.byte	0x1
 2211 070f 19040000 		.4byte	.LASF77
 2212 0713 01       		.byte	0x1
 2213 0714 8A       		.byte	0x8a
 2214 0715 01       		.byte	0x1
 2215 0716 01       		.byte	0x1
 2216 0717 3D070000 		.4byte	0x73d
 2217 071b 18       		.uleb128 0x18
 2218 071c 636F6C00 		.ascii	"col\000"
 2219 0720 01       		.byte	0x1
 2220 0721 8A       		.byte	0x8a
 2221 0722 49000000 		.4byte	0x49
 2222 0726 18       		.uleb128 0x18
 2223 0727 726F7700 		.ascii	"row\000"
 2224 072b 01       		.byte	0x1
 2225 072c 8A       		.byte	0x8a
 2226 072d 49000000 		.4byte	0x49
 2227 0731 19       		.uleb128 0x19
 2228 0732 6A030000 		.4byte	.LASF121
 2229 0736 01       		.byte	0x1
 2230 0737 91       		.byte	0x91
 2231 0738 49000000 		.4byte	0x49
 2232 073c 00       		.byte	0
 2233 073d 17       		.uleb128 0x17
 2234 073e 01       		.byte	0x1
 2235 073f 13020000 		.4byte	.LASF78
 2236 0743 01       		.byte	0x1
 2237 0744 96       		.byte	0x96
 2238 0745 01       		.byte	0x1
 2239 0746 01       		.byte	0x1
 2240 0747 57070000 		.4byte	0x757
 2241 074b 1A       		.uleb128 0x1a
 2242 074c 76040000 		.4byte	.LASF79
 2243 0750 01       		.byte	0x1
 2244 0751 96       		.byte	0x96
 2245 0752 EA040000 		.4byte	0x4ea
 2246 0756 00       		.byte	0
 2247 0757 17       		.uleb128 0x17
 2248 0758 01       		.byte	0x1
 2249 0759 F1010000 		.4byte	.LASF80
 2250 075d 01       		.byte	0x1
 2251 075e E7       		.byte	0xe7
 2252 075f 01       		.byte	0x1
 2253 0760 01       		.byte	0x1
ARM GAS  /var/folders/ng/s8655sgx1ys_4lf9jzm2w6n00000gn/T//ccoB4Kch.s 			page 41


 2254 0761 7C070000 		.4byte	0x77c
 2255 0765 18       		.uleb128 0x18
 2256 0766 726F7700 		.ascii	"row\000"
 2257 076a 01       		.byte	0x1
 2258 076b E7       		.byte	0xe7
 2259 076c 29000000 		.4byte	0x29
 2260 0770 18       		.uleb128 0x18
 2261 0771 636F6C00 		.ascii	"col\000"
 2262 0775 01       		.byte	0x1
 2263 0776 E7       		.byte	0xe7
 2264 0777 29000000 		.4byte	0x29
 2265 077b 00       		.byte	0
 2266 077c 1B       		.uleb128 0x1b
 2267 077d 01       		.byte	0x1
 2268 077e FB020000 		.4byte	.LASF81
 2269 0782 01       		.byte	0x1
 2270 0783 2D       		.byte	0x2d
 2271 0784 01       		.byte	0x1
 2272 0785 00000000 		.4byte	.LFB120
 2273 0789 7A010000 		.4byte	.LFE120
 2274 078d 00000000 		.4byte	.LLST0
 2275 0791 01       		.byte	0x1
 2276 0792 4F080000 		.4byte	0x84f
 2277 0796 1C       		.uleb128 0x1c
 2278 0797 76040000 		.4byte	.LASF79
 2279 079b 01       		.byte	0x1
 2280 079c 2D       		.byte	0x2d
 2281 079d 49000000 		.4byte	0x49
 2282 07a1 20000000 		.4byte	.LLST1
 2283 07a5 1D       		.uleb128 0x1d
 2284 07a6 6900     		.ascii	"i\000"
 2285 07a8 01       		.byte	0x1
 2286 07a9 32       		.byte	0x32
 2287 07aa 29000000 		.4byte	0x29
 2288 07ae 41000000 		.4byte	.LLST2
 2289 07b2 1E       		.uleb128 0x1e
 2290 07b3 40000000 		.4byte	.LVL3
 2291 07b7 9B0E0000 		.4byte	0xe9b
 2292 07bb C6070000 		.4byte	0x7c6
 2293 07bf 1F       		.uleb128 0x1f
 2294 07c0 01       		.byte	0x1
 2295 07c1 50       		.byte	0x50
 2296 07c2 02       		.byte	0x2
 2297 07c3 08       		.byte	0x8
 2298 07c4 A8       		.byte	0xa8
 2299 07c5 00       		.byte	0
 2300 07c6 1E       		.uleb128 0x1e
 2301 07c7 66000000 		.4byte	.LVL4
 2302 07cb 9B0E0000 		.4byte	0xe9b
 2303 07cf DA070000 		.4byte	0x7da
 2304 07d3 1F       		.uleb128 0x1f
 2305 07d4 01       		.byte	0x1
 2306 07d5 50       		.byte	0x50
 2307 07d6 02       		.byte	0x2
 2308 07d7 08       		.byte	0x8
 2309 07d8 A8       		.byte	0xa8
 2310 07d9 00       		.byte	0
ARM GAS  /var/folders/ng/s8655sgx1ys_4lf9jzm2w6n00000gn/T//ccoB4Kch.s 			page 42


 2311 07da 1E       		.uleb128 0x1e
 2312 07db 8A000000 		.4byte	.LVL5
 2313 07df 9B0E0000 		.4byte	0xe9b
 2314 07e3 EE070000 		.4byte	0x7ee
 2315 07e7 1F       		.uleb128 0x1f
 2316 07e8 01       		.byte	0x1
 2317 07e9 50       		.byte	0x50
 2318 07ea 02       		.byte	0x2
 2319 07eb 08       		.byte	0x8
 2320 07ec A8       		.byte	0xa8
 2321 07ed 00       		.byte	0
 2322 07ee 1E       		.uleb128 0x1e
 2323 07ef AE000000 		.4byte	.LVL6
 2324 07f3 9B0E0000 		.4byte	0xe9b
 2325 07f7 02080000 		.4byte	0x802
 2326 07fb 1F       		.uleb128 0x1f
 2327 07fc 01       		.byte	0x1
 2328 07fd 50       		.byte	0x50
 2329 07fe 02       		.byte	0x2
 2330 07ff 08       		.byte	0x8
 2331 0800 A8       		.byte	0xa8
 2332 0801 00       		.byte	0
 2333 0802 1E       		.uleb128 0x1e
 2334 0803 D2000000 		.4byte	.LVL7
 2335 0807 9B0E0000 		.4byte	0xe9b
 2336 080b 16080000 		.4byte	0x816
 2337 080f 1F       		.uleb128 0x1f
 2338 0810 01       		.byte	0x1
 2339 0811 50       		.byte	0x50
 2340 0812 02       		.byte	0x2
 2341 0813 08       		.byte	0x8
 2342 0814 A8       		.byte	0xa8
 2343 0815 00       		.byte	0
 2344 0816 1E       		.uleb128 0x1e
 2345 0817 F6000000 		.4byte	.LVL8
 2346 081b 9B0E0000 		.4byte	0xe9b
 2347 081f 2A080000 		.4byte	0x82a
 2348 0823 1F       		.uleb128 0x1f
 2349 0824 01       		.byte	0x1
 2350 0825 50       		.byte	0x50
 2351 0826 02       		.byte	0x2
 2352 0827 08       		.byte	0x8
 2353 0828 A8       		.byte	0xa8
 2354 0829 00       		.byte	0
 2355 082a 1E       		.uleb128 0x1e
 2356 082b 18010000 		.4byte	.LVL9
 2357 082f 9B0E0000 		.4byte	0xe9b
 2358 0833 3E080000 		.4byte	0x83e
 2359 0837 1F       		.uleb128 0x1f
 2360 0838 01       		.byte	0x1
 2361 0839 50       		.byte	0x50
 2362 083a 02       		.byte	0x2
 2363 083b 08       		.byte	0x8
 2364 083c A8       		.byte	0xa8
 2365 083d 00       		.byte	0
 2366 083e 20       		.uleb128 0x20
 2367 083f 38010000 		.4byte	.LVL10
ARM GAS  /var/folders/ng/s8655sgx1ys_4lf9jzm2w6n00000gn/T//ccoB4Kch.s 			page 43


 2368 0843 9B0E0000 		.4byte	0xe9b
 2369 0847 1F       		.uleb128 0x1f
 2370 0848 01       		.byte	0x1
 2371 0849 50       		.byte	0x50
 2372 084a 02       		.byte	0x2
 2373 084b 08       		.byte	0x8
 2374 084c A8       		.byte	0xa8
 2375 084d 00       		.byte	0
 2376 084e 00       		.byte	0
 2377 084f 1B       		.uleb128 0x1b
 2378 0850 01       		.byte	0x1
 2379 0851 8B030000 		.4byte	.LASF82
 2380 0855 01       		.byte	0x1
 2381 0856 41       		.byte	0x41
 2382 0857 01       		.byte	0x1
 2383 0858 00000000 		.4byte	.LFB121
 2384 085c 1E000000 		.4byte	.LFE121
 2385 0860 09010000 		.4byte	.LLST3
 2386 0864 01       		.byte	0x1
 2387 0865 94080000 		.4byte	0x894
 2388 0869 1C       		.uleb128 0x1c
 2389 086a 76040000 		.4byte	.LASF79
 2390 086e 01       		.byte	0x1
 2391 086f 41       		.byte	0x41
 2392 0870 49000000 		.4byte	0x49
 2393 0874 29010000 		.4byte	.LLST4
 2394 0878 21       		.uleb128 0x21
 2395 0879 12000000 		.4byte	.LVL19
 2396 087d 7C070000 		.4byte	0x77c
 2397 0881 22       		.uleb128 0x22
 2398 0882 1E000000 		.4byte	.LVL20
 2399 0886 01       		.byte	0x1
 2400 0887 9B0E0000 		.4byte	0xe9b
 2401 088b 1F       		.uleb128 0x1f
 2402 088c 01       		.byte	0x1
 2403 088d 50       		.byte	0x50
 2404 088e 03       		.byte	0x3
 2405 088f 0A       		.byte	0xa
 2406 0890 D020     		.2byte	0x20d0
 2407 0892 00       		.byte	0
 2408 0893 00       		.byte	0
 2409 0894 1B       		.uleb128 0x1b
 2410 0895 01       		.byte	0x1
 2411 0896 E2010000 		.4byte	.LASF83
 2412 089a 01       		.byte	0x1
 2413 089b 4A       		.byte	0x4a
 2414 089c 01       		.byte	0x1
 2415 089d 00000000 		.4byte	.LFB122
 2416 08a1 1E000000 		.4byte	.LFE122
 2417 08a5 4A010000 		.4byte	.LLST5
 2418 08a9 01       		.byte	0x1
 2419 08aa D9080000 		.4byte	0x8d9
 2420 08ae 1C       		.uleb128 0x1c
 2421 08af 76040000 		.4byte	.LASF79
 2422 08b3 01       		.byte	0x1
 2423 08b4 4A       		.byte	0x4a
 2424 08b5 49000000 		.4byte	0x49
ARM GAS  /var/folders/ng/s8655sgx1ys_4lf9jzm2w6n00000gn/T//ccoB4Kch.s 			page 44


 2425 08b9 6A010000 		.4byte	.LLST6
 2426 08bd 21       		.uleb128 0x21
 2427 08be 12000000 		.4byte	.LVL22
 2428 08c2 7C070000 		.4byte	0x77c
 2429 08c6 22       		.uleb128 0x22
 2430 08c7 1E000000 		.4byte	.LVL23
 2431 08cb 01       		.byte	0x1
 2432 08cc 9B0E0000 		.4byte	0xe9b
 2433 08d0 1F       		.uleb128 0x1f
 2434 08d1 01       		.byte	0x1
 2435 08d2 50       		.byte	0x50
 2436 08d3 03       		.byte	0x3
 2437 08d4 0A       		.byte	0xa
 2438 08d5 A041     		.2byte	0x41a0
 2439 08d7 00       		.byte	0
 2440 08d8 00       		.byte	0
 2441 08d9 1B       		.uleb128 0x1b
 2442 08da 01       		.byte	0x1
 2443 08db D2030000 		.4byte	.LASF84
 2444 08df 01       		.byte	0x1
 2445 08e0 77       		.byte	0x77
 2446 08e1 01       		.byte	0x1
 2447 08e2 00000000 		.4byte	.LFB124
 2448 08e6 18000000 		.4byte	.LFE124
 2449 08ea 8B010000 		.4byte	.LLST7
 2450 08ee 01       		.byte	0x1
 2451 08ef 11090000 		.4byte	0x911
 2452 08f3 1E       		.uleb128 0x1e
 2453 08f4 08000000 		.4byte	.LVL24
 2454 08f8 94080000 		.4byte	0x894
 2455 08fc 06090000 		.4byte	0x906
 2456 0900 1F       		.uleb128 0x1f
 2457 0901 01       		.byte	0x1
 2458 0902 50       		.byte	0x50
 2459 0903 01       		.byte	0x1
 2460 0904 31       		.byte	0x31
 2461 0905 00       		.byte	0
 2462 0906 23       		.uleb128 0x23
 2463 0907 18000000 		.4byte	.LVL25
 2464 090b 01       		.byte	0x1
 2465 090c 9B0E0000 		.4byte	0xe9b
 2466 0910 00       		.byte	0
 2467 0911 24       		.uleb128 0x24
 2468 0912 01       		.byte	0x1
 2469 0913 46020000 		.4byte	.LASF85
 2470 0917 01       		.byte	0x1
 2471 0918 7E       		.byte	0x7e
 2472 0919 01       		.byte	0x1
 2473 091a 00000000 		.4byte	.LFB125
 2474 091e 06000000 		.4byte	.LFE125
 2475 0922 02       		.byte	0x2
 2476 0923 7D       		.byte	0x7d
 2477 0924 00       		.sleb128 0
 2478 0925 01       		.byte	0x1
 2479 0926 3B090000 		.4byte	0x93b
 2480 092a 22       		.uleb128 0x22
 2481 092b 06000000 		.4byte	.LVL26
ARM GAS  /var/folders/ng/s8655sgx1ys_4lf9jzm2w6n00000gn/T//ccoB4Kch.s 			page 45


 2482 092f 01       		.byte	0x1
 2483 0930 94080000 		.4byte	0x894
 2484 0934 1F       		.uleb128 0x1f
 2485 0935 01       		.byte	0x1
 2486 0936 50       		.byte	0x50
 2487 0937 01       		.byte	0x1
 2488 0938 3C       		.byte	0x3c
 2489 0939 00       		.byte	0
 2490 093a 00       		.byte	0
 2491 093b 24       		.uleb128 0x24
 2492 093c 01       		.byte	0x1
 2493 093d F0040000 		.4byte	.LASF86
 2494 0941 01       		.byte	0x1
 2495 0942 84       		.byte	0x84
 2496 0943 01       		.byte	0x1
 2497 0944 00000000 		.4byte	.LFB126
 2498 0948 06000000 		.4byte	.LFE126
 2499 094c 02       		.byte	0x2
 2500 094d 7D       		.byte	0x7d
 2501 094e 00       		.sleb128 0
 2502 094f 01       		.byte	0x1
 2503 0950 65090000 		.4byte	0x965
 2504 0954 22       		.uleb128 0x22
 2505 0955 06000000 		.4byte	.LVL27
 2506 0959 01       		.byte	0x1
 2507 095a 94080000 		.4byte	0x894
 2508 095e 1F       		.uleb128 0x1f
 2509 095f 01       		.byte	0x1
 2510 0960 50       		.byte	0x50
 2511 0961 01       		.byte	0x1
 2512 0962 38       		.byte	0x38
 2513 0963 00       		.byte	0
 2514 0964 00       		.byte	0
 2515 0965 1B       		.uleb128 0x1b
 2516 0966 01       		.byte	0x1
 2517 0967 96010000 		.4byte	.LASF87
 2518 096b 01       		.byte	0x1
 2519 096c 54       		.byte	0x54
 2520 096d 01       		.byte	0x1
 2521 096e 00000000 		.4byte	.LFB123
 2522 0972 68000000 		.4byte	.LFE123
 2523 0976 AB010000 		.4byte	.LLST8
 2524 097a 01       		.byte	0x1
 2525 097b 300A0000 		.4byte	0xa30
 2526 097f 1E       		.uleb128 0x1e
 2527 0980 26000000 		.4byte	.LVL28
 2528 0984 AF0E0000 		.4byte	0xeaf
 2529 0988 92090000 		.4byte	0x992
 2530 098c 1F       		.uleb128 0x1f
 2531 098d 01       		.byte	0x1
 2532 098e 50       		.byte	0x50
 2533 098f 01       		.byte	0x1
 2534 0990 3F       		.byte	0x3f
 2535 0991 00       		.byte	0
 2536 0992 1E       		.uleb128 0x1e
 2537 0993 2C000000 		.4byte	.LVL29
 2538 0997 94080000 		.4byte	0x894
ARM GAS  /var/folders/ng/s8655sgx1ys_4lf9jzm2w6n00000gn/T//ccoB4Kch.s 			page 46


 2539 099b A6090000 		.4byte	0x9a6
 2540 099f 1F       		.uleb128 0x1f
 2541 09a0 01       		.byte	0x1
 2542 09a1 50       		.byte	0x50
 2543 09a2 02       		.byte	0x2
 2544 09a3 08       		.byte	0x8
 2545 09a4 38       		.byte	0x38
 2546 09a5 00       		.byte	0
 2547 09a6 21       		.uleb128 0x21
 2548 09a7 38000000 		.4byte	.LVL30
 2549 09ab 9B0E0000 		.4byte	0xe9b
 2550 09af 1E       		.uleb128 0x1e
 2551 09b0 3E000000 		.4byte	.LVL31
 2552 09b4 94080000 		.4byte	0x894
 2553 09b8 C3090000 		.4byte	0x9c3
 2554 09bc 1F       		.uleb128 0x1f
 2555 09bd 01       		.byte	0x1
 2556 09be 50       		.byte	0x50
 2557 09bf 02       		.byte	0x2
 2558 09c0 08       		.byte	0x8
 2559 09c1 38       		.byte	0x38
 2560 09c2 00       		.byte	0
 2561 09c3 1E       		.uleb128 0x1e
 2562 09c4 46000000 		.4byte	.LVL32
 2563 09c8 9B0E0000 		.4byte	0xe9b
 2564 09cc D8090000 		.4byte	0x9d8
 2565 09d0 1F       		.uleb128 0x1f
 2566 09d1 01       		.byte	0x1
 2567 09d2 50       		.byte	0x50
 2568 09d3 03       		.byte	0x3
 2569 09d4 0A       		.byte	0xa
 2570 09d5 D020     		.2byte	0x20d0
 2571 09d7 00       		.byte	0
 2572 09d8 1E       		.uleb128 0x1e
 2573 09d9 4C000000 		.4byte	.LVL33
 2574 09dd 94080000 		.4byte	0x894
 2575 09e1 EC090000 		.4byte	0x9ec
 2576 09e5 1F       		.uleb128 0x1f
 2577 09e6 01       		.byte	0x1
 2578 09e7 50       		.byte	0x50
 2579 09e8 02       		.byte	0x2
 2580 09e9 08       		.byte	0x8
 2581 09ea 38       		.byte	0x38
 2582 09eb 00       		.byte	0
 2583 09ec 1E       		.uleb128 0x1e
 2584 09ed 52000000 		.4byte	.LVL34
 2585 09f1 94080000 		.4byte	0x894
 2586 09f5 000A0000 		.4byte	0xa00
 2587 09f9 1F       		.uleb128 0x1f
 2588 09fa 01       		.byte	0x1
 2589 09fb 50       		.byte	0x50
 2590 09fc 02       		.byte	0x2
 2591 09fd 08       		.byte	0x8
 2592 09fe 38       		.byte	0x38
 2593 09ff 00       		.byte	0
 2594 0a00 21       		.uleb128 0x21
 2595 0a01 56000000 		.4byte	.LVL35
ARM GAS  /var/folders/ng/s8655sgx1ys_4lf9jzm2w6n00000gn/T//ccoB4Kch.s 			page 47


 2596 0a05 3B090000 		.4byte	0x93b
 2597 0a09 21       		.uleb128 0x21
 2598 0a0a 5A000000 		.4byte	.LVL36
 2599 0a0e D9080000 		.4byte	0x8d9
 2600 0a12 1E       		.uleb128 0x1e
 2601 0a13 60000000 		.4byte	.LVL37
 2602 0a17 94080000 		.4byte	0x894
 2603 0a1b 250A0000 		.4byte	0xa25
 2604 0a1f 1F       		.uleb128 0x1f
 2605 0a20 01       		.byte	0x1
 2606 0a21 50       		.byte	0x50
 2607 0a22 01       		.byte	0x1
 2608 0a23 36       		.byte	0x36
 2609 0a24 00       		.byte	0
 2610 0a25 23       		.uleb128 0x23
 2611 0a26 68000000 		.4byte	.LVL38
 2612 0a2a 01       		.byte	0x1
 2613 0a2b 11090000 		.4byte	0x911
 2614 0a2f 00       		.byte	0
 2615 0a30 25       		.uleb128 0x25
 2616 0a31 0D070000 		.4byte	0x70d
 2617 0a35 00000000 		.4byte	.LFB127
 2618 0a39 16000000 		.4byte	.LFE127
 2619 0a3d 02       		.byte	0x2
 2620 0a3e 7D       		.byte	0x7d
 2621 0a3f 00       		.sleb128 0
 2622 0a40 01       		.byte	0x1
 2623 0a41 980A0000 		.4byte	0xa98
 2624 0a45 26       		.uleb128 0x26
 2625 0a46 1B070000 		.4byte	0x71b
 2626 0a4a CB010000 		.4byte	.LLST9
 2627 0a4e 26       		.uleb128 0x26
 2628 0a4f 26070000 		.4byte	0x726
 2629 0a53 EC010000 		.4byte	.LLST10
 2630 0a57 27       		.uleb128 0x27
 2631 0a58 31070000 		.4byte	0x731
 2632 0a5c 28       		.uleb128 0x28
 2633 0a5d 0D070000 		.4byte	0x70d
 2634 0a61 0A000000 		.4byte	.LBB6
 2635 0a65 00000000 		.4byte	.Ldebug_ranges0+0
 2636 0a69 01       		.byte	0x1
 2637 0a6a 8A       		.byte	0x8a
 2638 0a6b 26       		.uleb128 0x26
 2639 0a6c 26070000 		.4byte	0x726
 2640 0a70 0D020000 		.4byte	.LLST11
 2641 0a74 26       		.uleb128 0x26
 2642 0a75 1B070000 		.4byte	0x71b
 2643 0a79 2D020000 		.4byte	.LLST12
 2644 0a7d 29       		.uleb128 0x29
 2645 0a7e 18000000 		.4byte	.Ldebug_ranges0+0x18
 2646 0a82 2A       		.uleb128 0x2a
 2647 0a83 31070000 		.4byte	0x731
 2648 0a87 40020000 		.4byte	.LLST13
 2649 0a8b 23       		.uleb128 0x23
 2650 0a8c 16000000 		.4byte	.LVL43
 2651 0a90 01       		.byte	0x1
 2652 0a91 94080000 		.4byte	0x894
ARM GAS  /var/folders/ng/s8655sgx1ys_4lf9jzm2w6n00000gn/T//ccoB4Kch.s 			page 48


 2653 0a95 00       		.byte	0
 2654 0a96 00       		.byte	0
 2655 0a97 00       		.byte	0
 2656 0a98 25       		.uleb128 0x25
 2657 0a99 3D070000 		.4byte	0x73d
 2658 0a9d 00000000 		.4byte	.LFB128
 2659 0aa1 0E000000 		.4byte	.LFE128
 2660 0aa5 02       		.byte	0x2
 2661 0aa6 7D       		.byte	0x7d
 2662 0aa7 00       		.sleb128 0
 2663 0aa8 01       		.byte	0x1
 2664 0aa9 400B0000 		.4byte	0xb40
 2665 0aad 26       		.uleb128 0x26
 2666 0aae 4B070000 		.4byte	0x74b
 2667 0ab2 76020000 		.4byte	.LLST14
 2668 0ab6 2B       		.uleb128 0x2b
 2669 0ab7 3D070000 		.4byte	0x73d
 2670 0abb 08000000 		.4byte	.LBB16
 2671 0abf 30000000 		.4byte	.Ldebug_ranges0+0x30
 2672 0ac3 01       		.byte	0x1
 2673 0ac4 96       		.byte	0x96
 2674 0ac5 350B0000 		.4byte	0xb35
 2675 0ac9 29       		.uleb128 0x29
 2676 0aca 48000000 		.4byte	.Ldebug_ranges0+0x48
 2677 0ace 2C       		.uleb128 0x2c
 2678 0acf 4B070000 		.4byte	0x74b
 2679 0ad3 28       		.uleb128 0x28
 2680 0ad4 0D070000 		.4byte	0x70d
 2681 0ad8 08000000 		.4byte	.LBB18
 2682 0adc 60000000 		.4byte	.Ldebug_ranges0+0x60
 2683 0ae0 01       		.byte	0x1
 2684 0ae1 9A       		.byte	0x9a
 2685 0ae2 2D       		.uleb128 0x2d
 2686 0ae3 26070000 		.4byte	0x726
 2687 0ae7 01       		.byte	0x1
 2688 0ae8 2D       		.uleb128 0x2d
 2689 0ae9 1B070000 		.4byte	0x71b
 2690 0aed 00       		.byte	0
 2691 0aee 29       		.uleb128 0x29
 2692 0aef 78000000 		.4byte	.Ldebug_ranges0+0x78
 2693 0af3 27       		.uleb128 0x27
 2694 0af4 31070000 		.4byte	0x731
 2695 0af8 28       		.uleb128 0x28
 2696 0af9 0D070000 		.4byte	0x70d
 2697 0afd 08000000 		.4byte	.LBB20
 2698 0b01 90000000 		.4byte	.Ldebug_ranges0+0x90
 2699 0b05 01       		.byte	0x1
 2700 0b06 96       		.byte	0x96
 2701 0b07 2D       		.uleb128 0x2d
 2702 0b08 26070000 		.4byte	0x726
 2703 0b0c 01       		.byte	0x1
 2704 0b0d 2D       		.uleb128 0x2d
 2705 0b0e 1B070000 		.4byte	0x71b
 2706 0b12 00       		.byte	0
 2707 0b13 29       		.uleb128 0x29
 2708 0b14 A8000000 		.4byte	.Ldebug_ranges0+0xa8
 2709 0b18 2E       		.uleb128 0x2e
ARM GAS  /var/folders/ng/s8655sgx1ys_4lf9jzm2w6n00000gn/T//ccoB4Kch.s 			page 49


 2710 0b19 31070000 		.4byte	0x731
 2711 0b1d 40       		.sleb128 -64
 2712 0b1e 22       		.uleb128 0x22
 2713 0b1f 0E000000 		.4byte	.LVL47
 2714 0b23 01       		.byte	0x1
 2715 0b24 94080000 		.4byte	0x894
 2716 0b28 1F       		.uleb128 0x1f
 2717 0b29 01       		.byte	0x1
 2718 0b2a 50       		.byte	0x50
 2719 0b2b 02       		.byte	0x2
 2720 0b2c 09       		.byte	0x9
 2721 0b2d C0       		.byte	0xc0
 2722 0b2e 00       		.byte	0
 2723 0b2f 00       		.byte	0
 2724 0b30 00       		.byte	0
 2725 0b31 00       		.byte	0
 2726 0b32 00       		.byte	0
 2727 0b33 00       		.byte	0
 2728 0b34 00       		.byte	0
 2729 0b35 23       		.uleb128 0x23
 2730 0b36 08000000 		.4byte	.LVL45
 2731 0b3a 01       		.byte	0x1
 2732 0b3b 4F080000 		.4byte	0x84f
 2733 0b3f 00       		.byte	0
 2734 0b40 2F       		.uleb128 0x2f
 2735 0b41 24030000 		.4byte	.LASF90
 2736 0b45 01       		.byte	0x1
 2737 0b46 A1       		.byte	0xa1
 2738 0b47 01       		.byte	0x1
 2739 0b48 EF000000 		.4byte	0xef
 2740 0b4c 00000000 		.4byte	.LFB129
 2741 0b50 14010000 		.4byte	.LFE129
 2742 0b54 B0020000 		.4byte	.LLST15
 2743 0b58 01       		.byte	0x1
 2744 0b59 E00B0000 		.4byte	0xbe0
 2745 0b5d 30       		.uleb128 0x30
 2746 0b5e 61726700 		.ascii	"arg\000"
 2747 0b62 01       		.byte	0x1
 2748 0b63 A1       		.byte	0xa1
 2749 0b64 A3020000 		.4byte	0x2a3
 2750 0b68 DC020000 		.4byte	.LLST16
 2751 0b6c 31       		.uleb128 0x31
 2752 0b6d C6000000 		.4byte	.LASF88
 2753 0b71 01       		.byte	0x1
 2754 0b72 A4       		.byte	0xa4
 2755 0b73 29000000 		.4byte	0x29
 2756 0b77 FD020000 		.4byte	.LLST17
 2757 0b7b 1D       		.uleb128 0x1d
 2758 0b7c 6900     		.ascii	"i\000"
 2759 0b7e 01       		.byte	0x1
 2760 0b7f A5       		.byte	0xa5
 2761 0b80 29000000 		.4byte	0x29
 2762 0b84 57030000 		.4byte	.LLST18
 2763 0b88 1D       		.uleb128 0x1d
 2764 0b89 6A00     		.ascii	"j\000"
 2765 0b8b 01       		.byte	0x1
 2766 0b8c A6       		.byte	0xa6
ARM GAS  /var/folders/ng/s8655sgx1ys_4lf9jzm2w6n00000gn/T//ccoB4Kch.s 			page 50


 2767 0b8d 29000000 		.4byte	0x29
 2768 0b91 81030000 		.4byte	.LLST19
 2769 0b95 31       		.uleb128 0x31
 2770 0b96 F8040000 		.4byte	.LASF89
 2771 0b9a 01       		.byte	0x1
 2772 0b9b A7       		.byte	0xa7
 2773 0b9c 29000000 		.4byte	0x29
 2774 0ba0 DB030000 		.4byte	.LLST20
 2775 0ba4 21       		.uleb128 0x21
 2776 0ba5 4C000000 		.4byte	.LVL52
 2777 0ba9 AF0E0000 		.4byte	0xeaf
 2778 0bad 1E       		.uleb128 0x1e
 2779 0bae 7A000000 		.4byte	.LVL57
 2780 0bb2 C40E0000 		.4byte	0xec4
 2781 0bb6 C40B0000 		.4byte	0xbc4
 2782 0bba 1F       		.uleb128 0x1f
 2783 0bbb 01       		.byte	0x1
 2784 0bbc 50       		.byte	0x50
 2785 0bbd 05       		.byte	0x5
 2786 0bbe 03       		.byte	0x3
 2787 0bbf 00000000 		.4byte	.LANCHOR4
 2788 0bc3 00       		.byte	0
 2789 0bc4 21       		.uleb128 0x21
 2790 0bc5 92000000 		.4byte	.LVL58
 2791 0bc9 0D070000 		.4byte	0x70d
 2792 0bcd 21       		.uleb128 0x21
 2793 0bce A4000000 		.4byte	.LVL60
 2794 0bd2 3D070000 		.4byte	0x73d
 2795 0bd6 21       		.uleb128 0x21
 2796 0bd7 C4000000 		.4byte	.LVL64
 2797 0bdb D80E0000 		.4byte	0xed8
 2798 0bdf 00       		.byte	0
 2799 0be0 2F       		.uleb128 0x2f
 2800 0be1 41020000 		.4byte	.LASF91
 2801 0be5 01       		.byte	0x1
 2802 0be6 23       		.byte	0x23
 2803 0be7 01       		.byte	0x1
 2804 0be8 EF000000 		.4byte	0xef
 2805 0bec 00000000 		.4byte	.LFB119
 2806 0bf0 0C000000 		.4byte	.LFE119
 2807 0bf4 21040000 		.4byte	.LLST21
 2808 0bf8 01       		.byte	0x1
 2809 0bf9 230C0000 		.4byte	0xc23
 2810 0bfd 1C       		.uleb128 0x1c
 2811 0bfe 98000000 		.4byte	.LASF92
 2812 0c02 01       		.byte	0x1
 2813 0c03 23       		.byte	0x23
 2814 0c04 A3020000 		.4byte	0x2a3
 2815 0c08 41040000 		.4byte	.LLST22
 2816 0c0c 30       		.uleb128 0x30
 2817 0c0d 6200     		.ascii	"b\000"
 2818 0c0f 01       		.byte	0x1
 2819 0c10 23       		.byte	0x23
 2820 0c11 49000000 		.4byte	0x49
 2821 0c15 62040000 		.4byte	.LLST23
 2822 0c19 21       		.uleb128 0x21
 2823 0c1a 08000000 		.4byte	.LVL72
ARM GAS  /var/folders/ng/s8655sgx1ys_4lf9jzm2w6n00000gn/T//ccoB4Kch.s 			page 51


 2824 0c1e 3D070000 		.4byte	0x73d
 2825 0c22 00       		.byte	0
 2826 0c23 1B       		.uleb128 0x1b
 2827 0c24 01       		.byte	0x1
 2828 0c25 D8000000 		.4byte	.LASF93
 2829 0c29 01       		.byte	0x1
 2830 0c2a DD       		.byte	0xdd
 2831 0c2b 01       		.byte	0x1
 2832 0c2c 00000000 		.4byte	.LFB130
 2833 0c30 32000000 		.4byte	.LFE130
 2834 0c34 83040000 		.4byte	.LLST24
 2835 0c38 01       		.byte	0x1
 2836 0c39 840C0000 		.4byte	0xc84
 2837 0c3d 1E       		.uleb128 0x1e
 2838 0c3e 10000000 		.4byte	.LVL73
 2839 0c42 E60E0000 		.4byte	0xee6
 2840 0c46 540C0000 		.4byte	0xc54
 2841 0c4a 1F       		.uleb128 0x1f
 2842 0c4b 01       		.byte	0x1
 2843 0c4c 50       		.byte	0x50
 2844 0c4d 05       		.byte	0x5
 2845 0c4e 03       		.byte	0x3
 2846 0c4f 00000000 		.4byte	.LANCHOR4
 2847 0c53 00       		.byte	0
 2848 0c54 20       		.uleb128 0x20
 2849 0c55 2E000000 		.4byte	.LVL74
 2850 0c59 FA0E0000 		.4byte	0xefa
 2851 0c5d 1F       		.uleb128 0x1f
 2852 0c5e 01       		.byte	0x1
 2853 0c5f 53       		.byte	0x53
 2854 0c60 05       		.byte	0x5
 2855 0c61 03       		.byte	0x3
 2856 0c62 00000000 		.4byte	scrollingThread
 2857 0c66 1F       		.uleb128 0x1f
 2858 0c67 01       		.byte	0x1
 2859 0c68 52       		.byte	0x52
 2860 0c69 02       		.byte	0x2
 2861 0c6a 08       		.byte	0x8
 2862 0c6b 40       		.byte	0x40
 2863 0c6c 1F       		.uleb128 0x1f
 2864 0c6d 01       		.byte	0x1
 2865 0c6e 51       		.byte	0x51
 2866 0c6f 03       		.byte	0x3
 2867 0c70 0A       		.byte	0xa
 2868 0c71 B801     		.2byte	0x1b8
 2869 0c73 1F       		.uleb128 0x1f
 2870 0c74 01       		.byte	0x1
 2871 0c75 50       		.byte	0x50
 2872 0c76 05       		.byte	0x5
 2873 0c77 03       		.byte	0x3
 2874 0c78 00000000 		.4byte	.LANCHOR11
 2875 0c7c 1F       		.uleb128 0x1f
 2876 0c7d 02       		.byte	0x2
 2877 0c7e 7D       		.byte	0x7d
 2878 0c7f 00       		.sleb128 0
 2879 0c80 01       		.byte	0x1
 2880 0c81 30       		.byte	0x30
ARM GAS  /var/folders/ng/s8655sgx1ys_4lf9jzm2w6n00000gn/T//ccoB4Kch.s 			page 52


 2881 0c82 00       		.byte	0
 2882 0c83 00       		.byte	0
 2883 0c84 25       		.uleb128 0x25
 2884 0c85 57070000 		.4byte	0x757
 2885 0c89 00000000 		.4byte	.LFB131
 2886 0c8d 16000000 		.4byte	.LFE131
 2887 0c91 02       		.byte	0x2
 2888 0c92 7D       		.byte	0x7d
 2889 0c93 00       		.sleb128 0
 2890 0c94 01       		.byte	0x1
 2891 0c95 A80C0000 		.4byte	0xca8
 2892 0c99 32       		.uleb128 0x32
 2893 0c9a 65070000 		.4byte	0x765
 2894 0c9e 01       		.byte	0x1
 2895 0c9f 50       		.byte	0x50
 2896 0ca0 32       		.uleb128 0x32
 2897 0ca1 70070000 		.4byte	0x770
 2898 0ca5 01       		.byte	0x1
 2899 0ca6 51       		.byte	0x51
 2900 0ca7 00       		.byte	0
 2901 0ca8 24       		.uleb128 0x24
 2902 0ca9 01       		.byte	0x1
 2903 0caa 89000000 		.4byte	.LASF94
 2904 0cae 01       		.byte	0x1
 2905 0caf ED       		.byte	0xed
 2906 0cb0 01       		.byte	0x1
 2907 0cb1 00000000 		.4byte	.LFB132
 2908 0cb5 0C000000 		.4byte	.LFE132
 2909 0cb9 02       		.byte	0x2
 2910 0cba 7D       		.byte	0x7d
 2911 0cbb 00       		.sleb128 0
 2912 0cbc 01       		.byte	0x1
 2913 0cbd CF0C0000 		.4byte	0xccf
 2914 0cc1 33       		.uleb128 0x33
 2915 0cc2 97030000 		.4byte	.LASF95
 2916 0cc6 01       		.byte	0x1
 2917 0cc7 ED       		.byte	0xed
 2918 0cc8 29000000 		.4byte	0x29
 2919 0ccc 01       		.byte	0x1
 2920 0ccd 50       		.byte	0x50
 2921 0cce 00       		.byte	0
 2922 0ccf 34       		.uleb128 0x34
 2923 0cd0 01       		.byte	0x1
 2924 0cd1 46030000 		.4byte	.LASF96
 2925 0cd5 01       		.byte	0x1
 2926 0cd6 F2       		.byte	0xf2
 2927 0cd7 01       		.byte	0x1
 2928 0cd8 00000000 		.4byte	.LFB133
 2929 0cdc 0E000000 		.4byte	.LFE133
 2930 0ce0 02       		.byte	0x2
 2931 0ce1 7D       		.byte	0x7d
 2932 0ce2 00       		.sleb128 0
 2933 0ce3 01       		.byte	0x1
 2934 0ce4 34       		.uleb128 0x34
 2935 0ce5 01       		.byte	0x1
 2936 0ce6 33000000 		.4byte	.LASF97
 2937 0cea 01       		.byte	0x1
ARM GAS  /var/folders/ng/s8655sgx1ys_4lf9jzm2w6n00000gn/T//ccoB4Kch.s 			page 53


 2938 0ceb F7       		.byte	0xf7
 2939 0cec 01       		.byte	0x1
 2940 0ced 00000000 		.4byte	.LFB134
 2941 0cf1 0E000000 		.4byte	.LFE134
 2942 0cf5 02       		.byte	0x2
 2943 0cf6 7D       		.byte	0x7d
 2944 0cf7 00       		.sleb128 0
 2945 0cf8 01       		.byte	0x1
 2946 0cf9 34       		.uleb128 0x34
 2947 0cfa 01       		.byte	0x1
 2948 0cfb 09040000 		.4byte	.LASF98
 2949 0cff 01       		.byte	0x1
 2950 0d00 FC       		.byte	0xfc
 2951 0d01 01       		.byte	0x1
 2952 0d02 00000000 		.4byte	.LFB135
 2953 0d06 0E000000 		.4byte	.LFE135
 2954 0d0a 02       		.byte	0x2
 2955 0d0b 7D       		.byte	0x7d
 2956 0d0c 00       		.sleb128 0
 2957 0d0d 01       		.byte	0x1
 2958 0d0e 35       		.uleb128 0x35
 2959 0d0f 01       		.byte	0x1
 2960 0d10 80010000 		.4byte	.LASF99
 2961 0d14 01       		.byte	0x1
 2962 0d15 0901     		.2byte	0x109
 2963 0d17 01       		.byte	0x1
 2964 0d18 00000000 		.4byte	.LFB136
 2965 0d1c 8C000000 		.4byte	.LFE136
 2966 0d20 AF040000 		.4byte	.LLST25
 2967 0d24 01       		.byte	0x1
 2968 0d25 A70D0000 		.4byte	0xda7
 2969 0d29 36       		.uleb128 0x36
 2970 0d2a 6D00     		.ascii	"m\000"
 2971 0d2c 01       		.byte	0x1
 2972 0d2d 0901     		.2byte	0x109
 2973 0d2f 07070000 		.4byte	0x707
 2974 0d33 CF040000 		.4byte	.LLST26
 2975 0d37 36       		.uleb128 0x36
 2976 0d38 726F7700 		.ascii	"row\000"
 2977 0d3c 01       		.byte	0x1
 2978 0d3d 0901     		.2byte	0x109
 2979 0d3f 29000000 		.4byte	0x29
 2980 0d43 FB040000 		.4byte	.LLST27
 2981 0d47 36       		.uleb128 0x36
 2982 0d48 636F6C00 		.ascii	"col\000"
 2983 0d4c 01       		.byte	0x1
 2984 0d4d 0901     		.2byte	0x109
 2985 0d4f 29000000 		.4byte	0x29
 2986 0d53 28050000 		.4byte	.LLST28
 2987 0d57 37       		.uleb128 0x37
 2988 0d58 5B020000 		.4byte	.LASF100
 2989 0d5c 01       		.byte	0x1
 2990 0d5d 0901     		.2byte	0x109
 2991 0d5f 29000000 		.4byte	0x29
 2992 0d63 55050000 		.4byte	.LLST29
 2993 0d67 38       		.uleb128 0x38
 2994 0d68 6900     		.ascii	"i\000"
ARM GAS  /var/folders/ng/s8655sgx1ys_4lf9jzm2w6n00000gn/T//ccoB4Kch.s 			page 54


 2995 0d6a 01       		.byte	0x1
 2996 0d6b 0B01     		.2byte	0x10b
 2997 0d6d 29000000 		.4byte	0x29
 2998 0d71 8D050000 		.4byte	.LLST30
 2999 0d75 38       		.uleb128 0x38
 3000 0d76 6A00     		.ascii	"j\000"
 3001 0d78 01       		.byte	0x1
 3002 0d79 0C01     		.2byte	0x10c
 3003 0d7b 29000000 		.4byte	0x29
 3004 0d7f D9050000 		.4byte	.LLST31
 3005 0d83 39       		.uleb128 0x39
 3006 0d84 57070000 		.4byte	0x757
 3007 0d88 3C000000 		.4byte	.LBB28
 3008 0d8c C0000000 		.4byte	.Ldebug_ranges0+0xc0
 3009 0d90 01       		.byte	0x1
 3010 0d91 1E01     		.2byte	0x11e
 3011 0d93 26       		.uleb128 0x26
 3012 0d94 70070000 		.4byte	0x770
 3013 0d98 11060000 		.4byte	.LLST32
 3014 0d9c 26       		.uleb128 0x26
 3015 0d9d 65070000 		.4byte	0x765
 3016 0da1 33060000 		.4byte	.LLST33
 3017 0da5 00       		.byte	0
 3018 0da6 00       		.byte	0
 3019 0da7 3A       		.uleb128 0x3a
 3020 0da8 C8020000 		.4byte	.LASF101
 3021 0dac 01       		.byte	0x1
 3022 0dad 18       		.byte	0x18
 3023 0dae F7060000 		.4byte	0x6f7
 3024 0db2 05       		.byte	0x5
 3025 0db3 03       		.byte	0x3
 3026 0db4 00000000 		.4byte	scrollingThreadWorkingArea
 3027 0db8 3A       		.uleb128 0x3a
 3028 0db9 72010000 		.4byte	.LASF102
 3029 0dbd 01       		.byte	0x1
 3030 0dbe 29       		.byte	0x29
 3031 0dbf 1E050000 		.4byte	0x51e
 3032 0dc3 05       		.byte	0x5
 3033 0dc4 03       		.byte	0x3
 3034 0dc5 00000000 		.4byte	_vmt
 3035 0dc9 3B       		.uleb128 0x3b
 3036 0dca 75000000 		.4byte	.LASF103
 3037 0dce 0C       		.byte	0xc
 3038 0dcf 9806     		.2byte	0x698
 3039 0dd1 F6050000 		.4byte	0x5f6
 3040 0dd5 01       		.byte	0x1
 3041 0dd6 01       		.byte	0x1
 3042 0dd7 3C       		.uleb128 0x3c
 3043 0dd8 4C434400 		.ascii	"LCD\000"
 3044 0ddc 01       		.byte	0x1
 3045 0ddd 22       		.byte	0x22
 3046 0dde EB050000 		.4byte	0x5eb
 3047 0de2 01       		.byte	0x1
 3048 0de3 05       		.byte	0x5
 3049 0de4 03       		.byte	0x3
 3050 0de5 00000000 		.4byte	LCD
 3051 0de9 3D       		.uleb128 0x3d
ARM GAS  /var/folders/ng/s8655sgx1ys_4lf9jzm2w6n00000gn/T//ccoB4Kch.s 			page 55


 3052 0dea 4A000000 		.4byte	.LASF104
 3053 0dee 01       		.byte	0x1
 3054 0def 19       		.byte	0x19
 3055 0df0 9F040000 		.4byte	0x49f
 3056 0df4 01       		.byte	0x1
 3057 0df5 05       		.byte	0x5
 3058 0df6 03       		.byte	0x3
 3059 0df7 00000000 		.4byte	_scrollMtx
 3060 0dfb 3D       		.uleb128 0x3d
 3061 0dfc 44010000 		.4byte	.LASF105
 3062 0e00 01       		.byte	0x1
 3063 0e01 1A       		.byte	0x1a
 3064 0e02 29000000 		.4byte	0x29
 3065 0e06 01       		.byte	0x1
 3066 0e07 05       		.byte	0x5
 3067 0e08 03       		.byte	0x3
 3068 0e09 00000000 		.4byte	_scrollRow
 3069 0e0d 3D       		.uleb128 0x3d
 3070 0e0e C8040000 		.4byte	.LASF106
 3071 0e12 01       		.byte	0x1
 3072 0e13 1A       		.byte	0x1a
 3073 0e14 29000000 		.4byte	0x29
 3074 0e18 01       		.byte	0x1
 3075 0e19 05       		.byte	0x5
 3076 0e1a 03       		.byte	0x3
 3077 0e1b 00000000 		.4byte	_scrollCol
 3078 0e1f 3D       		.uleb128 0x3d
 3079 0e20 34030000 		.4byte	.LASF107
 3080 0e24 01       		.byte	0x1
 3081 0e25 1B       		.byte	0x1b
 3082 0e26 29000000 		.4byte	0x29
 3083 0e2a 01       		.byte	0x1
 3084 0e2b 05       		.byte	0x5
 3085 0e2c 03       		.byte	0x3
 3086 0e2d 00000000 		.4byte	_scrollDelay
 3087 0e31 3D       		.uleb128 0x3d
 3088 0e32 00000000 		.4byte	.LASF108
 3089 0e36 01       		.byte	0x1
 3090 0e37 1C       		.byte	0x1c
 3091 0e38 29000000 		.4byte	0x29
 3092 0e3c 01       		.byte	0x1
 3093 0e3d 05       		.byte	0x5
 3094 0e3e 03       		.byte	0x3
 3095 0e3f 00000000 		.4byte	_scrollWidth
 3096 0e43 3D       		.uleb128 0x3d
 3097 0e44 80020000 		.4byte	.LASF109
 3098 0e48 01       		.byte	0x1
 3099 0e49 1D       		.byte	0x1d
 3100 0e4a 29000000 		.4byte	0x29
 3101 0e4e 01       		.byte	0x1
 3102 0e4f 05       		.byte	0x5
 3103 0e50 03       		.byte	0x3
 3104 0e51 00000000 		.4byte	_scrollMsgLen
 3105 0e55 3D       		.uleb128 0x3d
 3106 0e56 0A050000 		.4byte	.LASF110
 3107 0e5a 01       		.byte	0x1
 3108 0e5b 1E       		.byte	0x1e
ARM GAS  /var/folders/ng/s8655sgx1ys_4lf9jzm2w6n00000gn/T//ccoB4Kch.s 			page 56


 3109 0e5c 29000000 		.4byte	0x29
 3110 0e60 01       		.byte	0x1
 3111 0e61 05       		.byte	0x5
 3112 0e62 03       		.byte	0x3
 3113 0e63 00000000 		.4byte	_scrollStatus
 3114 0e67 3D       		.uleb128 0x3d
 3115 0e68 B4040000 		.4byte	.LASF111
 3116 0e6c 01       		.byte	0x1
 3117 0e6d 1F       		.byte	0x1f
 3118 0e6e 29000000 		.4byte	0x29
 3119 0e72 01       		.byte	0x1
 3120 0e73 05       		.byte	0x5
 3121 0e74 03       		.byte	0x3
 3122 0e75 00000000 		.4byte	_scrollStart
 3123 0e79 15       		.uleb128 0x15
 3124 0e7a EA040000 		.4byte	0x4ea
 3125 0e7e 890E0000 		.4byte	0xe89
 3126 0e82 16       		.uleb128 0x16
 3127 0e83 56040000 		.4byte	0x456
 3128 0e87 63       		.byte	0x63
 3129 0e88 00       		.byte	0
 3130 0e89 3D       		.uleb128 0x3d
 3131 0e8a 82040000 		.4byte	.LASF112
 3132 0e8e 01       		.byte	0x1
 3133 0e8f 20       		.byte	0x20
 3134 0e90 790E0000 		.4byte	0xe79
 3135 0e94 01       		.byte	0x1
 3136 0e95 05       		.byte	0x5
 3137 0e96 03       		.byte	0x3
 3138 0e97 00000000 		.4byte	_scrollBuf
 3139 0e9b 3E       		.uleb128 0x3e
 3140 0e9c 01       		.byte	0x1
 3141 0e9d E1040000 		.4byte	.LASF113
 3142 0ea1 0D       		.byte	0xd
 3143 0ea2 D4       		.byte	0xd4
 3144 0ea3 01       		.byte	0x1
 3145 0ea4 01       		.byte	0x1
 3146 0ea5 AF0E0000 		.4byte	0xeaf
 3147 0ea9 12       		.uleb128 0x12
 3148 0eaa FB050000 		.4byte	0x5fb
 3149 0eae 00       		.byte	0
 3150 0eaf 3F       		.uleb128 0x3f
 3151 0eb0 01       		.byte	0x1
 3152 0eb1 A9040000 		.4byte	.LASF114
 3153 0eb5 06       		.byte	0x6
 3154 0eb6 7501     		.2byte	0x175
 3155 0eb8 01       		.byte	0x1
 3156 0eb9 01       		.byte	0x1
 3157 0eba C40E0000 		.4byte	0xec4
 3158 0ebe 12       		.uleb128 0x12
 3159 0ebf 05010000 		.4byte	0x105
 3160 0ec3 00       		.byte	0
 3161 0ec4 3E       		.uleb128 0x3e
 3162 0ec5 01       		.byte	0x1
 3163 0ec6 E9020000 		.4byte	.LASF115
 3164 0eca 08       		.byte	0x8
 3165 0ecb 39       		.byte	0x39
ARM GAS  /var/folders/ng/s8655sgx1ys_4lf9jzm2w6n00000gn/T//ccoB4Kch.s 			page 57


 3166 0ecc 01       		.byte	0x1
 3167 0ecd 01       		.byte	0x1
 3168 0ece D80E0000 		.4byte	0xed8
 3169 0ed2 12       		.uleb128 0x12
 3170 0ed3 F1040000 		.4byte	0x4f1
 3171 0ed7 00       		.byte	0
 3172 0ed8 40       		.uleb128 0x40
 3173 0ed9 01       		.byte	0x1
 3174 0eda A1000000 		.4byte	.LASF122
 3175 0ede 08       		.byte	0x8
 3176 0edf 3D       		.byte	0x3d
 3177 0ee0 01       		.byte	0x1
 3178 0ee1 F1040000 		.4byte	0x4f1
 3179 0ee5 01       		.byte	0x1
 3180 0ee6 3E       		.uleb128 0x3e
 3181 0ee7 01       		.byte	0x1
 3182 0ee8 9F040000 		.4byte	.LASF116
 3183 0eec 08       		.byte	0x8
 3184 0eed 38       		.byte	0x38
 3185 0eee 01       		.byte	0x1
 3186 0eef 01       		.byte	0x1
 3187 0ef0 FA0E0000 		.4byte	0xefa
 3188 0ef4 12       		.uleb128 0x12
 3189 0ef5 F1040000 		.4byte	0x4f1
 3190 0ef9 00       		.byte	0
 3191 0efa 41       		.uleb128 0x41
 3192 0efb 01       		.byte	0x1
 3193 0efc 99020000 		.4byte	.LASF117
 3194 0f00 06       		.byte	0x6
 3195 0f01 7001     		.2byte	0x170
 3196 0f03 01       		.byte	0x1
 3197 0f04 65020000 		.4byte	0x265
 3198 0f08 01       		.byte	0x1
 3199 0f09 12       		.uleb128 0x12
 3200 0f0a A3020000 		.4byte	0x2a3
 3201 0f0e 12       		.uleb128 0x12
 3202 0f0f 30000000 		.4byte	0x30
 3203 0f13 12       		.uleb128 0x12
 3204 0f14 E4000000 		.4byte	0xe4
 3205 0f18 12       		.uleb128 0x12
 3206 0f19 F7040000 		.4byte	0x4f7
 3207 0f1d 12       		.uleb128 0x12
 3208 0f1e A3020000 		.4byte	0x2a3
 3209 0f22 00       		.byte	0
 3210 0f23 00       		.byte	0
 3211              		.section	.debug_abbrev,"",%progbits
 3212              	.Ldebug_abbrev0:
 3213 0000 01       		.uleb128 0x1
 3214 0001 11       		.uleb128 0x11
 3215 0002 01       		.byte	0x1
 3216 0003 25       		.uleb128 0x25
 3217 0004 0E       		.uleb128 0xe
 3218 0005 13       		.uleb128 0x13
 3219 0006 0B       		.uleb128 0xb
 3220 0007 03       		.uleb128 0x3
 3221 0008 0E       		.uleb128 0xe
 3222 0009 1B       		.uleb128 0x1b
ARM GAS  /var/folders/ng/s8655sgx1ys_4lf9jzm2w6n00000gn/T//ccoB4Kch.s 			page 58


 3223 000a 0E       		.uleb128 0xe
 3224 000b 55       		.uleb128 0x55
 3225 000c 06       		.uleb128 0x6
 3226 000d 11       		.uleb128 0x11
 3227 000e 01       		.uleb128 0x1
 3228 000f 52       		.uleb128 0x52
 3229 0010 01       		.uleb128 0x1
 3230 0011 10       		.uleb128 0x10
 3231 0012 06       		.uleb128 0x6
 3232 0013 00       		.byte	0
 3233 0014 00       		.byte	0
 3234 0015 02       		.uleb128 0x2
 3235 0016 24       		.uleb128 0x24
 3236 0017 00       		.byte	0
 3237 0018 0B       		.uleb128 0xb
 3238 0019 0B       		.uleb128 0xb
 3239 001a 3E       		.uleb128 0x3e
 3240 001b 0B       		.uleb128 0xb
 3241 001c 03       		.uleb128 0x3
 3242 001d 08       		.uleb128 0x8
 3243 001e 00       		.byte	0
 3244 001f 00       		.byte	0
 3245 0020 03       		.uleb128 0x3
 3246 0021 16       		.uleb128 0x16
 3247 0022 00       		.byte	0
 3248 0023 03       		.uleb128 0x3
 3249 0024 0E       		.uleb128 0xe
 3250 0025 3A       		.uleb128 0x3a
 3251 0026 0B       		.uleb128 0xb
 3252 0027 3B       		.uleb128 0x3b
 3253 0028 0B       		.uleb128 0xb
 3254 0029 49       		.uleb128 0x49
 3255 002a 13       		.uleb128 0x13
 3256 002b 00       		.byte	0
 3257 002c 00       		.byte	0
 3258 002d 04       		.uleb128 0x4
 3259 002e 24       		.uleb128 0x24
 3260 002f 00       		.byte	0
 3261 0030 0B       		.uleb128 0xb
 3262 0031 0B       		.uleb128 0xb
 3263 0032 3E       		.uleb128 0x3e
 3264 0033 0B       		.uleb128 0xb
 3265 0034 03       		.uleb128 0x3
 3266 0035 0E       		.uleb128 0xe
 3267 0036 00       		.byte	0
 3268 0037 00       		.byte	0
 3269 0038 05       		.uleb128 0x5
 3270 0039 13       		.uleb128 0x13
 3271 003a 01       		.byte	0x1
 3272 003b 03       		.uleb128 0x3
 3273 003c 0E       		.uleb128 0xe
 3274 003d 0B       		.uleb128 0xb
 3275 003e 0B       		.uleb128 0xb
 3276 003f 3A       		.uleb128 0x3a
 3277 0040 0B       		.uleb128 0xb
 3278 0041 3B       		.uleb128 0x3b
 3279 0042 0B       		.uleb128 0xb
ARM GAS  /var/folders/ng/s8655sgx1ys_4lf9jzm2w6n00000gn/T//ccoB4Kch.s 			page 59


 3280 0043 01       		.uleb128 0x1
 3281 0044 13       		.uleb128 0x13
 3282 0045 00       		.byte	0
 3283 0046 00       		.byte	0
 3284 0047 06       		.uleb128 0x6
 3285 0048 0D       		.uleb128 0xd
 3286 0049 00       		.byte	0
 3287 004a 03       		.uleb128 0x3
 3288 004b 0E       		.uleb128 0xe
 3289 004c 3A       		.uleb128 0x3a
 3290 004d 0B       		.uleb128 0xb
 3291 004e 3B       		.uleb128 0x3b
 3292 004f 0B       		.uleb128 0xb
 3293 0050 49       		.uleb128 0x49
 3294 0051 13       		.uleb128 0x13
 3295 0052 38       		.uleb128 0x38
 3296 0053 0A       		.uleb128 0xa
 3297 0054 00       		.byte	0
 3298 0055 00       		.byte	0
 3299 0056 07       		.uleb128 0x7
 3300 0057 0D       		.uleb128 0xd
 3301 0058 00       		.byte	0
 3302 0059 03       		.uleb128 0x3
 3303 005a 08       		.uleb128 0x8
 3304 005b 3A       		.uleb128 0x3a
 3305 005c 0B       		.uleb128 0xb
 3306 005d 3B       		.uleb128 0x3b
 3307 005e 0B       		.uleb128 0xb
 3308 005f 49       		.uleb128 0x49
 3309 0060 13       		.uleb128 0x13
 3310 0061 38       		.uleb128 0x38
 3311 0062 0A       		.uleb128 0xa
 3312 0063 00       		.byte	0
 3313 0064 00       		.byte	0
 3314 0065 08       		.uleb128 0x8
 3315 0066 13       		.uleb128 0x13
 3316 0067 01       		.byte	0x1
 3317 0068 0B       		.uleb128 0xb
 3318 0069 0B       		.uleb128 0xb
 3319 006a 3A       		.uleb128 0x3a
 3320 006b 0B       		.uleb128 0xb
 3321 006c 3B       		.uleb128 0x3b
 3322 006d 0B       		.uleb128 0xb
 3323 006e 01       		.uleb128 0x1
 3324 006f 13       		.uleb128 0x13
 3325 0070 00       		.byte	0
 3326 0071 00       		.byte	0
 3327 0072 09       		.uleb128 0x9
 3328 0073 0F       		.uleb128 0xf
 3329 0074 00       		.byte	0
 3330 0075 0B       		.uleb128 0xb
 3331 0076 0B       		.uleb128 0xb
 3332 0077 49       		.uleb128 0x49
 3333 0078 13       		.uleb128 0x13
 3334 0079 00       		.byte	0
 3335 007a 00       		.byte	0
 3336 007b 0A       		.uleb128 0xa
ARM GAS  /var/folders/ng/s8655sgx1ys_4lf9jzm2w6n00000gn/T//ccoB4Kch.s 			page 60


 3337 007c 0F       		.uleb128 0xf
 3338 007d 00       		.byte	0
 3339 007e 0B       		.uleb128 0xb
 3340 007f 0B       		.uleb128 0xb
 3341 0080 00       		.byte	0
 3342 0081 00       		.byte	0
 3343 0082 0B       		.uleb128 0xb
 3344 0083 13       		.uleb128 0x13
 3345 0084 01       		.byte	0x1
 3346 0085 03       		.uleb128 0x3
 3347 0086 0E       		.uleb128 0xe
 3348 0087 0B       		.uleb128 0xb
 3349 0088 0B       		.uleb128 0xb
 3350 0089 3A       		.uleb128 0x3a
 3351 008a 0B       		.uleb128 0xb
 3352 008b 3B       		.uleb128 0x3b
 3353 008c 05       		.uleb128 0x5
 3354 008d 01       		.uleb128 0x1
 3355 008e 13       		.uleb128 0x13
 3356 008f 00       		.byte	0
 3357 0090 00       		.byte	0
 3358 0091 0C       		.uleb128 0xc
 3359 0092 0D       		.uleb128 0xd
 3360 0093 00       		.byte	0
 3361 0094 03       		.uleb128 0x3
 3362 0095 08       		.uleb128 0x8
 3363 0096 3A       		.uleb128 0x3a
 3364 0097 0B       		.uleb128 0xb
 3365 0098 3B       		.uleb128 0x3b
 3366 0099 05       		.uleb128 0x5
 3367 009a 49       		.uleb128 0x49
 3368 009b 13       		.uleb128 0x13
 3369 009c 38       		.uleb128 0x38
 3370 009d 0A       		.uleb128 0xa
 3371 009e 00       		.byte	0
 3372 009f 00       		.byte	0
 3373 00a0 0D       		.uleb128 0xd
 3374 00a1 35       		.uleb128 0x35
 3375 00a2 00       		.byte	0
 3376 00a3 49       		.uleb128 0x49
 3377 00a4 13       		.uleb128 0x13
 3378 00a5 00       		.byte	0
 3379 00a6 00       		.byte	0
 3380 00a7 0E       		.uleb128 0xe
 3381 00a8 17       		.uleb128 0x17
 3382 00a9 01       		.byte	0x1
 3383 00aa 0B       		.uleb128 0xb
 3384 00ab 0B       		.uleb128 0xb
 3385 00ac 3A       		.uleb128 0x3a
 3386 00ad 0B       		.uleb128 0xb
 3387 00ae 3B       		.uleb128 0x3b
 3388 00af 0B       		.uleb128 0xb
 3389 00b0 01       		.uleb128 0x1
 3390 00b1 13       		.uleb128 0x13
 3391 00b2 00       		.byte	0
 3392 00b3 00       		.byte	0
 3393 00b4 0F       		.uleb128 0xf
ARM GAS  /var/folders/ng/s8655sgx1ys_4lf9jzm2w6n00000gn/T//ccoB4Kch.s 			page 61


 3394 00b5 0D       		.uleb128 0xd
 3395 00b6 00       		.byte	0
 3396 00b7 03       		.uleb128 0x3
 3397 00b8 0E       		.uleb128 0xe
 3398 00b9 3A       		.uleb128 0x3a
 3399 00ba 0B       		.uleb128 0xb
 3400 00bb 3B       		.uleb128 0x3b
 3401 00bc 0B       		.uleb128 0xb
 3402 00bd 49       		.uleb128 0x49
 3403 00be 13       		.uleb128 0x13
 3404 00bf 00       		.byte	0
 3405 00c0 00       		.byte	0
 3406 00c1 10       		.uleb128 0x10
 3407 00c2 26       		.uleb128 0x26
 3408 00c3 00       		.byte	0
 3409 00c4 49       		.uleb128 0x49
 3410 00c5 13       		.uleb128 0x13
 3411 00c6 00       		.byte	0
 3412 00c7 00       		.byte	0
 3413 00c8 11       		.uleb128 0x11
 3414 00c9 15       		.uleb128 0x15
 3415 00ca 01       		.byte	0x1
 3416 00cb 27       		.uleb128 0x27
 3417 00cc 0C       		.uleb128 0xc
 3418 00cd 49       		.uleb128 0x49
 3419 00ce 13       		.uleb128 0x13
 3420 00cf 01       		.uleb128 0x1
 3421 00d0 13       		.uleb128 0x13
 3422 00d1 00       		.byte	0
 3423 00d2 00       		.byte	0
 3424 00d3 12       		.uleb128 0x12
 3425 00d4 05       		.uleb128 0x5
 3426 00d5 00       		.byte	0
 3427 00d6 49       		.uleb128 0x49
 3428 00d7 13       		.uleb128 0x13
 3429 00d8 00       		.byte	0
 3430 00d9 00       		.byte	0
 3431 00da 13       		.uleb128 0x13
 3432 00db 16       		.uleb128 0x16
 3433 00dc 00       		.byte	0
 3434 00dd 03       		.uleb128 0x3
 3435 00de 0E       		.uleb128 0xe
 3436 00df 3A       		.uleb128 0x3a
 3437 00e0 0B       		.uleb128 0xb
 3438 00e1 3B       		.uleb128 0x3b
 3439 00e2 05       		.uleb128 0x5
 3440 00e3 49       		.uleb128 0x49
 3441 00e4 13       		.uleb128 0x13
 3442 00e5 00       		.byte	0
 3443 00e6 00       		.byte	0
 3444 00e7 14       		.uleb128 0x14
 3445 00e8 0D       		.uleb128 0xd
 3446 00e9 00       		.byte	0
 3447 00ea 03       		.uleb128 0x3
 3448 00eb 08       		.uleb128 0x8
 3449 00ec 3A       		.uleb128 0x3a
 3450 00ed 0B       		.uleb128 0xb
ARM GAS  /var/folders/ng/s8655sgx1ys_4lf9jzm2w6n00000gn/T//ccoB4Kch.s 			page 62


 3451 00ee 3B       		.uleb128 0x3b
 3452 00ef 0B       		.uleb128 0xb
 3453 00f0 49       		.uleb128 0x49
 3454 00f1 13       		.uleb128 0x13
 3455 00f2 00       		.byte	0
 3456 00f3 00       		.byte	0
 3457 00f4 15       		.uleb128 0x15
 3458 00f5 01       		.uleb128 0x1
 3459 00f6 01       		.byte	0x1
 3460 00f7 49       		.uleb128 0x49
 3461 00f8 13       		.uleb128 0x13
 3462 00f9 01       		.uleb128 0x1
 3463 00fa 13       		.uleb128 0x13
 3464 00fb 00       		.byte	0
 3465 00fc 00       		.byte	0
 3466 00fd 16       		.uleb128 0x16
 3467 00fe 21       		.uleb128 0x21
 3468 00ff 00       		.byte	0
 3469 0100 49       		.uleb128 0x49
 3470 0101 13       		.uleb128 0x13
 3471 0102 2F       		.uleb128 0x2f
 3472 0103 0B       		.uleb128 0xb
 3473 0104 00       		.byte	0
 3474 0105 00       		.byte	0
 3475 0106 17       		.uleb128 0x17
 3476 0107 2E       		.uleb128 0x2e
 3477 0108 01       		.byte	0x1
 3478 0109 3F       		.uleb128 0x3f
 3479 010a 0C       		.uleb128 0xc
 3480 010b 03       		.uleb128 0x3
 3481 010c 0E       		.uleb128 0xe
 3482 010d 3A       		.uleb128 0x3a
 3483 010e 0B       		.uleb128 0xb
 3484 010f 3B       		.uleb128 0x3b
 3485 0110 0B       		.uleb128 0xb
 3486 0111 27       		.uleb128 0x27
 3487 0112 0C       		.uleb128 0xc
 3488 0113 20       		.uleb128 0x20
 3489 0114 0B       		.uleb128 0xb
 3490 0115 01       		.uleb128 0x1
 3491 0116 13       		.uleb128 0x13
 3492 0117 00       		.byte	0
 3493 0118 00       		.byte	0
 3494 0119 18       		.uleb128 0x18
 3495 011a 05       		.uleb128 0x5
 3496 011b 00       		.byte	0
 3497 011c 03       		.uleb128 0x3
 3498 011d 08       		.uleb128 0x8
 3499 011e 3A       		.uleb128 0x3a
 3500 011f 0B       		.uleb128 0xb
 3501 0120 3B       		.uleb128 0x3b
 3502 0121 0B       		.uleb128 0xb
 3503 0122 49       		.uleb128 0x49
 3504 0123 13       		.uleb128 0x13
 3505 0124 00       		.byte	0
 3506 0125 00       		.byte	0
 3507 0126 19       		.uleb128 0x19
ARM GAS  /var/folders/ng/s8655sgx1ys_4lf9jzm2w6n00000gn/T//ccoB4Kch.s 			page 63


 3508 0127 34       		.uleb128 0x34
 3509 0128 00       		.byte	0
 3510 0129 03       		.uleb128 0x3
 3511 012a 0E       		.uleb128 0xe
 3512 012b 3A       		.uleb128 0x3a
 3513 012c 0B       		.uleb128 0xb
 3514 012d 3B       		.uleb128 0x3b
 3515 012e 0B       		.uleb128 0xb
 3516 012f 49       		.uleb128 0x49
 3517 0130 13       		.uleb128 0x13
 3518 0131 00       		.byte	0
 3519 0132 00       		.byte	0
 3520 0133 1A       		.uleb128 0x1a
 3521 0134 05       		.uleb128 0x5
 3522 0135 00       		.byte	0
 3523 0136 03       		.uleb128 0x3
 3524 0137 0E       		.uleb128 0xe
 3525 0138 3A       		.uleb128 0x3a
 3526 0139 0B       		.uleb128 0xb
 3527 013a 3B       		.uleb128 0x3b
 3528 013b 0B       		.uleb128 0xb
 3529 013c 49       		.uleb128 0x49
 3530 013d 13       		.uleb128 0x13
 3531 013e 00       		.byte	0
 3532 013f 00       		.byte	0
 3533 0140 1B       		.uleb128 0x1b
 3534 0141 2E       		.uleb128 0x2e
 3535 0142 01       		.byte	0x1
 3536 0143 3F       		.uleb128 0x3f
 3537 0144 0C       		.uleb128 0xc
 3538 0145 03       		.uleb128 0x3
 3539 0146 0E       		.uleb128 0xe
 3540 0147 3A       		.uleb128 0x3a
 3541 0148 0B       		.uleb128 0xb
 3542 0149 3B       		.uleb128 0x3b
 3543 014a 0B       		.uleb128 0xb
 3544 014b 27       		.uleb128 0x27
 3545 014c 0C       		.uleb128 0xc
 3546 014d 11       		.uleb128 0x11
 3547 014e 01       		.uleb128 0x1
 3548 014f 12       		.uleb128 0x12
 3549 0150 01       		.uleb128 0x1
 3550 0151 40       		.uleb128 0x40
 3551 0152 06       		.uleb128 0x6
 3552 0153 9742     		.uleb128 0x2117
 3553 0155 0C       		.uleb128 0xc
 3554 0156 01       		.uleb128 0x1
 3555 0157 13       		.uleb128 0x13
 3556 0158 00       		.byte	0
 3557 0159 00       		.byte	0
 3558 015a 1C       		.uleb128 0x1c
 3559 015b 05       		.uleb128 0x5
 3560 015c 00       		.byte	0
 3561 015d 03       		.uleb128 0x3
 3562 015e 0E       		.uleb128 0xe
 3563 015f 3A       		.uleb128 0x3a
 3564 0160 0B       		.uleb128 0xb
ARM GAS  /var/folders/ng/s8655sgx1ys_4lf9jzm2w6n00000gn/T//ccoB4Kch.s 			page 64


 3565 0161 3B       		.uleb128 0x3b
 3566 0162 0B       		.uleb128 0xb
 3567 0163 49       		.uleb128 0x49
 3568 0164 13       		.uleb128 0x13
 3569 0165 02       		.uleb128 0x2
 3570 0166 06       		.uleb128 0x6
 3571 0167 00       		.byte	0
 3572 0168 00       		.byte	0
 3573 0169 1D       		.uleb128 0x1d
 3574 016a 34       		.uleb128 0x34
 3575 016b 00       		.byte	0
 3576 016c 03       		.uleb128 0x3
 3577 016d 08       		.uleb128 0x8
 3578 016e 3A       		.uleb128 0x3a
 3579 016f 0B       		.uleb128 0xb
 3580 0170 3B       		.uleb128 0x3b
 3581 0171 0B       		.uleb128 0xb
 3582 0172 49       		.uleb128 0x49
 3583 0173 13       		.uleb128 0x13
 3584 0174 02       		.uleb128 0x2
 3585 0175 06       		.uleb128 0x6
 3586 0176 00       		.byte	0
 3587 0177 00       		.byte	0
 3588 0178 1E       		.uleb128 0x1e
 3589 0179 898201   		.uleb128 0x4109
 3590 017c 01       		.byte	0x1
 3591 017d 11       		.uleb128 0x11
 3592 017e 01       		.uleb128 0x1
 3593 017f 31       		.uleb128 0x31
 3594 0180 13       		.uleb128 0x13
 3595 0181 01       		.uleb128 0x1
 3596 0182 13       		.uleb128 0x13
 3597 0183 00       		.byte	0
 3598 0184 00       		.byte	0
 3599 0185 1F       		.uleb128 0x1f
 3600 0186 8A8201   		.uleb128 0x410a
 3601 0189 00       		.byte	0
 3602 018a 02       		.uleb128 0x2
 3603 018b 0A       		.uleb128 0xa
 3604 018c 9142     		.uleb128 0x2111
 3605 018e 0A       		.uleb128 0xa
 3606 018f 00       		.byte	0
 3607 0190 00       		.byte	0
 3608 0191 20       		.uleb128 0x20
 3609 0192 898201   		.uleb128 0x4109
 3610 0195 01       		.byte	0x1
 3611 0196 11       		.uleb128 0x11
 3612 0197 01       		.uleb128 0x1
 3613 0198 31       		.uleb128 0x31
 3614 0199 13       		.uleb128 0x13
 3615 019a 00       		.byte	0
 3616 019b 00       		.byte	0
 3617 019c 21       		.uleb128 0x21
 3618 019d 898201   		.uleb128 0x4109
 3619 01a0 00       		.byte	0
 3620 01a1 11       		.uleb128 0x11
 3621 01a2 01       		.uleb128 0x1
ARM GAS  /var/folders/ng/s8655sgx1ys_4lf9jzm2w6n00000gn/T//ccoB4Kch.s 			page 65


 3622 01a3 31       		.uleb128 0x31
 3623 01a4 13       		.uleb128 0x13
 3624 01a5 00       		.byte	0
 3625 01a6 00       		.byte	0
 3626 01a7 22       		.uleb128 0x22
 3627 01a8 898201   		.uleb128 0x4109
 3628 01ab 01       		.byte	0x1
 3629 01ac 11       		.uleb128 0x11
 3630 01ad 01       		.uleb128 0x1
 3631 01ae 9542     		.uleb128 0x2115
 3632 01b0 0C       		.uleb128 0xc
 3633 01b1 31       		.uleb128 0x31
 3634 01b2 13       		.uleb128 0x13
 3635 01b3 00       		.byte	0
 3636 01b4 00       		.byte	0
 3637 01b5 23       		.uleb128 0x23
 3638 01b6 898201   		.uleb128 0x4109
 3639 01b9 00       		.byte	0
 3640 01ba 11       		.uleb128 0x11
 3641 01bb 01       		.uleb128 0x1
 3642 01bc 9542     		.uleb128 0x2115
 3643 01be 0C       		.uleb128 0xc
 3644 01bf 31       		.uleb128 0x31
 3645 01c0 13       		.uleb128 0x13
 3646 01c1 00       		.byte	0
 3647 01c2 00       		.byte	0
 3648 01c3 24       		.uleb128 0x24
 3649 01c4 2E       		.uleb128 0x2e
 3650 01c5 01       		.byte	0x1
 3651 01c6 3F       		.uleb128 0x3f
 3652 01c7 0C       		.uleb128 0xc
 3653 01c8 03       		.uleb128 0x3
 3654 01c9 0E       		.uleb128 0xe
 3655 01ca 3A       		.uleb128 0x3a
 3656 01cb 0B       		.uleb128 0xb
 3657 01cc 3B       		.uleb128 0x3b
 3658 01cd 0B       		.uleb128 0xb
 3659 01ce 27       		.uleb128 0x27
 3660 01cf 0C       		.uleb128 0xc
 3661 01d0 11       		.uleb128 0x11
 3662 01d1 01       		.uleb128 0x1
 3663 01d2 12       		.uleb128 0x12
 3664 01d3 01       		.uleb128 0x1
 3665 01d4 40       		.uleb128 0x40
 3666 01d5 0A       		.uleb128 0xa
 3667 01d6 9742     		.uleb128 0x2117
 3668 01d8 0C       		.uleb128 0xc
 3669 01d9 01       		.uleb128 0x1
 3670 01da 13       		.uleb128 0x13
 3671 01db 00       		.byte	0
 3672 01dc 00       		.byte	0
 3673 01dd 25       		.uleb128 0x25
 3674 01de 2E       		.uleb128 0x2e
 3675 01df 01       		.byte	0x1
 3676 01e0 31       		.uleb128 0x31
 3677 01e1 13       		.uleb128 0x13
 3678 01e2 11       		.uleb128 0x11
ARM GAS  /var/folders/ng/s8655sgx1ys_4lf9jzm2w6n00000gn/T//ccoB4Kch.s 			page 66


 3679 01e3 01       		.uleb128 0x1
 3680 01e4 12       		.uleb128 0x12
 3681 01e5 01       		.uleb128 0x1
 3682 01e6 40       		.uleb128 0x40
 3683 01e7 0A       		.uleb128 0xa
 3684 01e8 9742     		.uleb128 0x2117
 3685 01ea 0C       		.uleb128 0xc
 3686 01eb 01       		.uleb128 0x1
 3687 01ec 13       		.uleb128 0x13
 3688 01ed 00       		.byte	0
 3689 01ee 00       		.byte	0
 3690 01ef 26       		.uleb128 0x26
 3691 01f0 05       		.uleb128 0x5
 3692 01f1 00       		.byte	0
 3693 01f2 31       		.uleb128 0x31
 3694 01f3 13       		.uleb128 0x13
 3695 01f4 02       		.uleb128 0x2
 3696 01f5 06       		.uleb128 0x6
 3697 01f6 00       		.byte	0
 3698 01f7 00       		.byte	0
 3699 01f8 27       		.uleb128 0x27
 3700 01f9 34       		.uleb128 0x34
 3701 01fa 00       		.byte	0
 3702 01fb 31       		.uleb128 0x31
 3703 01fc 13       		.uleb128 0x13
 3704 01fd 00       		.byte	0
 3705 01fe 00       		.byte	0
 3706 01ff 28       		.uleb128 0x28
 3707 0200 1D       		.uleb128 0x1d
 3708 0201 01       		.byte	0x1
 3709 0202 31       		.uleb128 0x31
 3710 0203 13       		.uleb128 0x13
 3711 0204 52       		.uleb128 0x52
 3712 0205 01       		.uleb128 0x1
 3713 0206 55       		.uleb128 0x55
 3714 0207 06       		.uleb128 0x6
 3715 0208 58       		.uleb128 0x58
 3716 0209 0B       		.uleb128 0xb
 3717 020a 59       		.uleb128 0x59
 3718 020b 0B       		.uleb128 0xb
 3719 020c 00       		.byte	0
 3720 020d 00       		.byte	0
 3721 020e 29       		.uleb128 0x29
 3722 020f 0B       		.uleb128 0xb
 3723 0210 01       		.byte	0x1
 3724 0211 55       		.uleb128 0x55
 3725 0212 06       		.uleb128 0x6
 3726 0213 00       		.byte	0
 3727 0214 00       		.byte	0
 3728 0215 2A       		.uleb128 0x2a
 3729 0216 34       		.uleb128 0x34
 3730 0217 00       		.byte	0
 3731 0218 31       		.uleb128 0x31
 3732 0219 13       		.uleb128 0x13
 3733 021a 02       		.uleb128 0x2
 3734 021b 06       		.uleb128 0x6
 3735 021c 00       		.byte	0
ARM GAS  /var/folders/ng/s8655sgx1ys_4lf9jzm2w6n00000gn/T//ccoB4Kch.s 			page 67


 3736 021d 00       		.byte	0
 3737 021e 2B       		.uleb128 0x2b
 3738 021f 1D       		.uleb128 0x1d
 3739 0220 01       		.byte	0x1
 3740 0221 31       		.uleb128 0x31
 3741 0222 13       		.uleb128 0x13
 3742 0223 52       		.uleb128 0x52
 3743 0224 01       		.uleb128 0x1
 3744 0225 55       		.uleb128 0x55
 3745 0226 06       		.uleb128 0x6
 3746 0227 58       		.uleb128 0x58
 3747 0228 0B       		.uleb128 0xb
 3748 0229 59       		.uleb128 0x59
 3749 022a 0B       		.uleb128 0xb
 3750 022b 01       		.uleb128 0x1
 3751 022c 13       		.uleb128 0x13
 3752 022d 00       		.byte	0
 3753 022e 00       		.byte	0
 3754 022f 2C       		.uleb128 0x2c
 3755 0230 05       		.uleb128 0x5
 3756 0231 00       		.byte	0
 3757 0232 31       		.uleb128 0x31
 3758 0233 13       		.uleb128 0x13
 3759 0234 00       		.byte	0
 3760 0235 00       		.byte	0
 3761 0236 2D       		.uleb128 0x2d
 3762 0237 05       		.uleb128 0x5
 3763 0238 00       		.byte	0
 3764 0239 31       		.uleb128 0x31
 3765 023a 13       		.uleb128 0x13
 3766 023b 1C       		.uleb128 0x1c
 3767 023c 0B       		.uleb128 0xb
 3768 023d 00       		.byte	0
 3769 023e 00       		.byte	0
 3770 023f 2E       		.uleb128 0x2e
 3771 0240 34       		.uleb128 0x34
 3772 0241 00       		.byte	0
 3773 0242 31       		.uleb128 0x31
 3774 0243 13       		.uleb128 0x13
 3775 0244 1C       		.uleb128 0x1c
 3776 0245 0D       		.uleb128 0xd
 3777 0246 00       		.byte	0
 3778 0247 00       		.byte	0
 3779 0248 2F       		.uleb128 0x2f
 3780 0249 2E       		.uleb128 0x2e
 3781 024a 01       		.byte	0x1
 3782 024b 03       		.uleb128 0x3
 3783 024c 0E       		.uleb128 0xe
 3784 024d 3A       		.uleb128 0x3a
 3785 024e 0B       		.uleb128 0xb
 3786 024f 3B       		.uleb128 0x3b
 3787 0250 0B       		.uleb128 0xb
 3788 0251 27       		.uleb128 0x27
 3789 0252 0C       		.uleb128 0xc
 3790 0253 49       		.uleb128 0x49
 3791 0254 13       		.uleb128 0x13
 3792 0255 11       		.uleb128 0x11
ARM GAS  /var/folders/ng/s8655sgx1ys_4lf9jzm2w6n00000gn/T//ccoB4Kch.s 			page 68


 3793 0256 01       		.uleb128 0x1
 3794 0257 12       		.uleb128 0x12
 3795 0258 01       		.uleb128 0x1
 3796 0259 40       		.uleb128 0x40
 3797 025a 06       		.uleb128 0x6
 3798 025b 9742     		.uleb128 0x2117
 3799 025d 0C       		.uleb128 0xc
 3800 025e 01       		.uleb128 0x1
 3801 025f 13       		.uleb128 0x13
 3802 0260 00       		.byte	0
 3803 0261 00       		.byte	0
 3804 0262 30       		.uleb128 0x30
 3805 0263 05       		.uleb128 0x5
 3806 0264 00       		.byte	0
 3807 0265 03       		.uleb128 0x3
 3808 0266 08       		.uleb128 0x8
 3809 0267 3A       		.uleb128 0x3a
 3810 0268 0B       		.uleb128 0xb
 3811 0269 3B       		.uleb128 0x3b
 3812 026a 0B       		.uleb128 0xb
 3813 026b 49       		.uleb128 0x49
 3814 026c 13       		.uleb128 0x13
 3815 026d 02       		.uleb128 0x2
 3816 026e 06       		.uleb128 0x6
 3817 026f 00       		.byte	0
 3818 0270 00       		.byte	0
 3819 0271 31       		.uleb128 0x31
 3820 0272 34       		.uleb128 0x34
 3821 0273 00       		.byte	0
 3822 0274 03       		.uleb128 0x3
 3823 0275 0E       		.uleb128 0xe
 3824 0276 3A       		.uleb128 0x3a
 3825 0277 0B       		.uleb128 0xb
 3826 0278 3B       		.uleb128 0x3b
 3827 0279 0B       		.uleb128 0xb
 3828 027a 49       		.uleb128 0x49
 3829 027b 13       		.uleb128 0x13
 3830 027c 02       		.uleb128 0x2
 3831 027d 06       		.uleb128 0x6
 3832 027e 00       		.byte	0
 3833 027f 00       		.byte	0
 3834 0280 32       		.uleb128 0x32
 3835 0281 05       		.uleb128 0x5
 3836 0282 00       		.byte	0
 3837 0283 31       		.uleb128 0x31
 3838 0284 13       		.uleb128 0x13
 3839 0285 02       		.uleb128 0x2
 3840 0286 0A       		.uleb128 0xa
 3841 0287 00       		.byte	0
 3842 0288 00       		.byte	0
 3843 0289 33       		.uleb128 0x33
 3844 028a 05       		.uleb128 0x5
 3845 028b 00       		.byte	0
 3846 028c 03       		.uleb128 0x3
 3847 028d 0E       		.uleb128 0xe
 3848 028e 3A       		.uleb128 0x3a
 3849 028f 0B       		.uleb128 0xb
ARM GAS  /var/folders/ng/s8655sgx1ys_4lf9jzm2w6n00000gn/T//ccoB4Kch.s 			page 69


 3850 0290 3B       		.uleb128 0x3b
 3851 0291 0B       		.uleb128 0xb
 3852 0292 49       		.uleb128 0x49
 3853 0293 13       		.uleb128 0x13
 3854 0294 02       		.uleb128 0x2
 3855 0295 0A       		.uleb128 0xa
 3856 0296 00       		.byte	0
 3857 0297 00       		.byte	0
 3858 0298 34       		.uleb128 0x34
 3859 0299 2E       		.uleb128 0x2e
 3860 029a 00       		.byte	0
 3861 029b 3F       		.uleb128 0x3f
 3862 029c 0C       		.uleb128 0xc
 3863 029d 03       		.uleb128 0x3
 3864 029e 0E       		.uleb128 0xe
 3865 029f 3A       		.uleb128 0x3a
 3866 02a0 0B       		.uleb128 0xb
 3867 02a1 3B       		.uleb128 0x3b
 3868 02a2 0B       		.uleb128 0xb
 3869 02a3 27       		.uleb128 0x27
 3870 02a4 0C       		.uleb128 0xc
 3871 02a5 11       		.uleb128 0x11
 3872 02a6 01       		.uleb128 0x1
 3873 02a7 12       		.uleb128 0x12
 3874 02a8 01       		.uleb128 0x1
 3875 02a9 40       		.uleb128 0x40
 3876 02aa 0A       		.uleb128 0xa
 3877 02ab 9742     		.uleb128 0x2117
 3878 02ad 0C       		.uleb128 0xc
 3879 02ae 00       		.byte	0
 3880 02af 00       		.byte	0
 3881 02b0 35       		.uleb128 0x35
 3882 02b1 2E       		.uleb128 0x2e
 3883 02b2 01       		.byte	0x1
 3884 02b3 3F       		.uleb128 0x3f
 3885 02b4 0C       		.uleb128 0xc
 3886 02b5 03       		.uleb128 0x3
 3887 02b6 0E       		.uleb128 0xe
 3888 02b7 3A       		.uleb128 0x3a
 3889 02b8 0B       		.uleb128 0xb
 3890 02b9 3B       		.uleb128 0x3b
 3891 02ba 05       		.uleb128 0x5
 3892 02bb 27       		.uleb128 0x27
 3893 02bc 0C       		.uleb128 0xc
 3894 02bd 11       		.uleb128 0x11
 3895 02be 01       		.uleb128 0x1
 3896 02bf 12       		.uleb128 0x12
 3897 02c0 01       		.uleb128 0x1
 3898 02c1 40       		.uleb128 0x40
 3899 02c2 06       		.uleb128 0x6
 3900 02c3 9742     		.uleb128 0x2117
 3901 02c5 0C       		.uleb128 0xc
 3902 02c6 01       		.uleb128 0x1
 3903 02c7 13       		.uleb128 0x13
 3904 02c8 00       		.byte	0
 3905 02c9 00       		.byte	0
 3906 02ca 36       		.uleb128 0x36
ARM GAS  /var/folders/ng/s8655sgx1ys_4lf9jzm2w6n00000gn/T//ccoB4Kch.s 			page 70


 3907 02cb 05       		.uleb128 0x5
 3908 02cc 00       		.byte	0
 3909 02cd 03       		.uleb128 0x3
 3910 02ce 08       		.uleb128 0x8
 3911 02cf 3A       		.uleb128 0x3a
 3912 02d0 0B       		.uleb128 0xb
 3913 02d1 3B       		.uleb128 0x3b
 3914 02d2 05       		.uleb128 0x5
 3915 02d3 49       		.uleb128 0x49
 3916 02d4 13       		.uleb128 0x13
 3917 02d5 02       		.uleb128 0x2
 3918 02d6 06       		.uleb128 0x6
 3919 02d7 00       		.byte	0
 3920 02d8 00       		.byte	0
 3921 02d9 37       		.uleb128 0x37
 3922 02da 05       		.uleb128 0x5
 3923 02db 00       		.byte	0
 3924 02dc 03       		.uleb128 0x3
 3925 02dd 0E       		.uleb128 0xe
 3926 02de 3A       		.uleb128 0x3a
 3927 02df 0B       		.uleb128 0xb
 3928 02e0 3B       		.uleb128 0x3b
 3929 02e1 05       		.uleb128 0x5
 3930 02e2 49       		.uleb128 0x49
 3931 02e3 13       		.uleb128 0x13
 3932 02e4 02       		.uleb128 0x2
 3933 02e5 06       		.uleb128 0x6
 3934 02e6 00       		.byte	0
 3935 02e7 00       		.byte	0
 3936 02e8 38       		.uleb128 0x38
 3937 02e9 34       		.uleb128 0x34
 3938 02ea 00       		.byte	0
 3939 02eb 03       		.uleb128 0x3
 3940 02ec 08       		.uleb128 0x8
 3941 02ed 3A       		.uleb128 0x3a
 3942 02ee 0B       		.uleb128 0xb
 3943 02ef 3B       		.uleb128 0x3b
 3944 02f0 05       		.uleb128 0x5
 3945 02f1 49       		.uleb128 0x49
 3946 02f2 13       		.uleb128 0x13
 3947 02f3 02       		.uleb128 0x2
 3948 02f4 06       		.uleb128 0x6
 3949 02f5 00       		.byte	0
 3950 02f6 00       		.byte	0
 3951 02f7 39       		.uleb128 0x39
 3952 02f8 1D       		.uleb128 0x1d
 3953 02f9 01       		.byte	0x1
 3954 02fa 31       		.uleb128 0x31
 3955 02fb 13       		.uleb128 0x13
 3956 02fc 52       		.uleb128 0x52
 3957 02fd 01       		.uleb128 0x1
 3958 02fe 55       		.uleb128 0x55
 3959 02ff 06       		.uleb128 0x6
 3960 0300 58       		.uleb128 0x58
 3961 0301 0B       		.uleb128 0xb
 3962 0302 59       		.uleb128 0x59
 3963 0303 05       		.uleb128 0x5
ARM GAS  /var/folders/ng/s8655sgx1ys_4lf9jzm2w6n00000gn/T//ccoB4Kch.s 			page 71


 3964 0304 00       		.byte	0
 3965 0305 00       		.byte	0
 3966 0306 3A       		.uleb128 0x3a
 3967 0307 34       		.uleb128 0x34
 3968 0308 00       		.byte	0
 3969 0309 03       		.uleb128 0x3
 3970 030a 0E       		.uleb128 0xe
 3971 030b 3A       		.uleb128 0x3a
 3972 030c 0B       		.uleb128 0xb
 3973 030d 3B       		.uleb128 0x3b
 3974 030e 0B       		.uleb128 0xb
 3975 030f 49       		.uleb128 0x49
 3976 0310 13       		.uleb128 0x13
 3977 0311 02       		.uleb128 0x2
 3978 0312 0A       		.uleb128 0xa
 3979 0313 00       		.byte	0
 3980 0314 00       		.byte	0
 3981 0315 3B       		.uleb128 0x3b
 3982 0316 34       		.uleb128 0x34
 3983 0317 00       		.byte	0
 3984 0318 03       		.uleb128 0x3
 3985 0319 0E       		.uleb128 0xe
 3986 031a 3A       		.uleb128 0x3a
 3987 031b 0B       		.uleb128 0xb
 3988 031c 3B       		.uleb128 0x3b
 3989 031d 05       		.uleb128 0x5
 3990 031e 49       		.uleb128 0x49
 3991 031f 13       		.uleb128 0x13
 3992 0320 3F       		.uleb128 0x3f
 3993 0321 0C       		.uleb128 0xc
 3994 0322 3C       		.uleb128 0x3c
 3995 0323 0C       		.uleb128 0xc
 3996 0324 00       		.byte	0
 3997 0325 00       		.byte	0
 3998 0326 3C       		.uleb128 0x3c
 3999 0327 34       		.uleb128 0x34
 4000 0328 00       		.byte	0
 4001 0329 03       		.uleb128 0x3
 4002 032a 08       		.uleb128 0x8
 4003 032b 3A       		.uleb128 0x3a
 4004 032c 0B       		.uleb128 0xb
 4005 032d 3B       		.uleb128 0x3b
 4006 032e 0B       		.uleb128 0xb
 4007 032f 49       		.uleb128 0x49
 4008 0330 13       		.uleb128 0x13
 4009 0331 3F       		.uleb128 0x3f
 4010 0332 0C       		.uleb128 0xc
 4011 0333 02       		.uleb128 0x2
 4012 0334 0A       		.uleb128 0xa
 4013 0335 00       		.byte	0
 4014 0336 00       		.byte	0
 4015 0337 3D       		.uleb128 0x3d
 4016 0338 34       		.uleb128 0x34
 4017 0339 00       		.byte	0
 4018 033a 03       		.uleb128 0x3
 4019 033b 0E       		.uleb128 0xe
 4020 033c 3A       		.uleb128 0x3a
ARM GAS  /var/folders/ng/s8655sgx1ys_4lf9jzm2w6n00000gn/T//ccoB4Kch.s 			page 72


 4021 033d 0B       		.uleb128 0xb
 4022 033e 3B       		.uleb128 0x3b
 4023 033f 0B       		.uleb128 0xb
 4024 0340 49       		.uleb128 0x49
 4025 0341 13       		.uleb128 0x13
 4026 0342 3F       		.uleb128 0x3f
 4027 0343 0C       		.uleb128 0xc
 4028 0344 02       		.uleb128 0x2
 4029 0345 0A       		.uleb128 0xa
 4030 0346 00       		.byte	0
 4031 0347 00       		.byte	0
 4032 0348 3E       		.uleb128 0x3e
 4033 0349 2E       		.uleb128 0x2e
 4034 034a 01       		.byte	0x1
 4035 034b 3F       		.uleb128 0x3f
 4036 034c 0C       		.uleb128 0xc
 4037 034d 03       		.uleb128 0x3
 4038 034e 0E       		.uleb128 0xe
 4039 034f 3A       		.uleb128 0x3a
 4040 0350 0B       		.uleb128 0xb
 4041 0351 3B       		.uleb128 0x3b
 4042 0352 0B       		.uleb128 0xb
 4043 0353 27       		.uleb128 0x27
 4044 0354 0C       		.uleb128 0xc
 4045 0355 3C       		.uleb128 0x3c
 4046 0356 0C       		.uleb128 0xc
 4047 0357 01       		.uleb128 0x1
 4048 0358 13       		.uleb128 0x13
 4049 0359 00       		.byte	0
 4050 035a 00       		.byte	0
 4051 035b 3F       		.uleb128 0x3f
 4052 035c 2E       		.uleb128 0x2e
 4053 035d 01       		.byte	0x1
 4054 035e 3F       		.uleb128 0x3f
 4055 035f 0C       		.uleb128 0xc
 4056 0360 03       		.uleb128 0x3
 4057 0361 0E       		.uleb128 0xe
 4058 0362 3A       		.uleb128 0x3a
 4059 0363 0B       		.uleb128 0xb
 4060 0364 3B       		.uleb128 0x3b
 4061 0365 05       		.uleb128 0x5
 4062 0366 27       		.uleb128 0x27
 4063 0367 0C       		.uleb128 0xc
 4064 0368 3C       		.uleb128 0x3c
 4065 0369 0C       		.uleb128 0xc
 4066 036a 01       		.uleb128 0x1
 4067 036b 13       		.uleb128 0x13
 4068 036c 00       		.byte	0
 4069 036d 00       		.byte	0
 4070 036e 40       		.uleb128 0x40
 4071 036f 2E       		.uleb128 0x2e
 4072 0370 00       		.byte	0
 4073 0371 3F       		.uleb128 0x3f
 4074 0372 0C       		.uleb128 0xc
 4075 0373 03       		.uleb128 0x3
 4076 0374 0E       		.uleb128 0xe
 4077 0375 3A       		.uleb128 0x3a
ARM GAS  /var/folders/ng/s8655sgx1ys_4lf9jzm2w6n00000gn/T//ccoB4Kch.s 			page 73


 4078 0376 0B       		.uleb128 0xb
 4079 0377 3B       		.uleb128 0x3b
 4080 0378 0B       		.uleb128 0xb
 4081 0379 27       		.uleb128 0x27
 4082 037a 0C       		.uleb128 0xc
 4083 037b 49       		.uleb128 0x49
 4084 037c 13       		.uleb128 0x13
 4085 037d 3C       		.uleb128 0x3c
 4086 037e 0C       		.uleb128 0xc
 4087 037f 00       		.byte	0
 4088 0380 00       		.byte	0
 4089 0381 41       		.uleb128 0x41
 4090 0382 2E       		.uleb128 0x2e
 4091 0383 01       		.byte	0x1
 4092 0384 3F       		.uleb128 0x3f
 4093 0385 0C       		.uleb128 0xc
 4094 0386 03       		.uleb128 0x3
 4095 0387 0E       		.uleb128 0xe
 4096 0388 3A       		.uleb128 0x3a
 4097 0389 0B       		.uleb128 0xb
 4098 038a 3B       		.uleb128 0x3b
 4099 038b 05       		.uleb128 0x5
 4100 038c 27       		.uleb128 0x27
 4101 038d 0C       		.uleb128 0xc
 4102 038e 49       		.uleb128 0x49
 4103 038f 13       		.uleb128 0x13
 4104 0390 3C       		.uleb128 0x3c
 4105 0391 0C       		.uleb128 0xc
 4106 0392 00       		.byte	0
 4107 0393 00       		.byte	0
 4108 0394 00       		.byte	0
 4109              		.section	.debug_loc,"",%progbits
 4110              	.Ldebug_loc0:
 4111              	.LLST0:
 4112 0000 00000000 		.4byte	.LFB120
 4113 0004 14000000 		.4byte	.LCFI0
 4114 0008 0200     		.2byte	0x2
 4115 000a 7D       		.byte	0x7d
 4116 000b 00       		.sleb128 0
 4117 000c 14000000 		.4byte	.LCFI0
 4118 0010 7A010000 		.4byte	.LFE120
 4119 0014 0200     		.2byte	0x2
 4120 0016 7D       		.byte	0x7d
 4121 0017 10       		.sleb128 16
 4122 0018 00000000 		.4byte	0
 4123 001c 00000000 		.4byte	0
 4124              	.LLST1:
 4125 0020 00000000 		.4byte	.LVL0
 4126 0024 1C000000 		.4byte	.LVL1
 4127 0028 0100     		.2byte	0x1
 4128 002a 50       		.byte	0x50
 4129 002b 1C000000 		.4byte	.LVL1
 4130 002f 7A010000 		.4byte	.LFE120
 4131 0033 0400     		.2byte	0x4
 4132 0035 F3       		.byte	0xf3
 4133 0036 01       		.uleb128 0x1
 4134 0037 50       		.byte	0x50
ARM GAS  /var/folders/ng/s8655sgx1ys_4lf9jzm2w6n00000gn/T//ccoB4Kch.s 			page 74


 4135 0038 9F       		.byte	0x9f
 4136 0039 00000000 		.4byte	0
 4137 003d 00000000 		.4byte	0
 4138              	.LLST2:
 4139 0041 20000000 		.4byte	.LVL2
 4140 0045 40000000 		.4byte	.LVL3
 4141 0049 0200     		.2byte	0x2
 4142 004b 30       		.byte	0x30
 4143 004c 9F       		.byte	0x9f
 4144 004d 40000000 		.4byte	.LVL3
 4145 0051 66000000 		.4byte	.LVL4
 4146 0055 0200     		.2byte	0x2
 4147 0057 31       		.byte	0x31
 4148 0058 9F       		.byte	0x9f
 4149 0059 66000000 		.4byte	.LVL4
 4150 005d 8A000000 		.4byte	.LVL5
 4151 0061 0200     		.2byte	0x2
 4152 0063 32       		.byte	0x32
 4153 0064 9F       		.byte	0x9f
 4154 0065 8A000000 		.4byte	.LVL5
 4155 0069 AE000000 		.4byte	.LVL6
 4156 006d 0200     		.2byte	0x2
 4157 006f 33       		.byte	0x33
 4158 0070 9F       		.byte	0x9f
 4159 0071 AE000000 		.4byte	.LVL6
 4160 0075 D2000000 		.4byte	.LVL7
 4161 0079 0200     		.2byte	0x2
 4162 007b 34       		.byte	0x34
 4163 007c 9F       		.byte	0x9f
 4164 007d D2000000 		.4byte	.LVL7
 4165 0081 F6000000 		.4byte	.LVL8
 4166 0085 0200     		.2byte	0x2
 4167 0087 35       		.byte	0x35
 4168 0088 9F       		.byte	0x9f
 4169 0089 F6000000 		.4byte	.LVL8
 4170 008d 18010000 		.4byte	.LVL9
 4171 0091 0200     		.2byte	0x2
 4172 0093 36       		.byte	0x36
 4173 0094 9F       		.byte	0x9f
 4174 0095 18010000 		.4byte	.LVL9
 4175 0099 38010000 		.4byte	.LVL10
 4176 009d 0200     		.2byte	0x2
 4177 009f 37       		.byte	0x37
 4178 00a0 9F       		.byte	0x9f
 4179 00a1 38010000 		.4byte	.LVL10
 4180 00a5 46010000 		.4byte	.LVL11
 4181 00a9 0200     		.2byte	0x2
 4182 00ab 38       		.byte	0x38
 4183 00ac 9F       		.byte	0x9f
 4184 00ad 46010000 		.4byte	.LVL11
 4185 00b1 4A010000 		.4byte	.LVL12
 4186 00b5 0200     		.2byte	0x2
 4187 00b7 30       		.byte	0x30
 4188 00b8 9F       		.byte	0x9f
 4189 00b9 4A010000 		.4byte	.LVL12
 4190 00bd 52010000 		.4byte	.LVL13
 4191 00c1 0200     		.2byte	0x2
ARM GAS  /var/folders/ng/s8655sgx1ys_4lf9jzm2w6n00000gn/T//ccoB4Kch.s 			page 75


 4192 00c3 36       		.byte	0x36
 4193 00c4 9F       		.byte	0x9f
 4194 00c5 52010000 		.4byte	.LVL13
 4195 00c9 5A010000 		.4byte	.LVL14
 4196 00cd 0200     		.2byte	0x2
 4197 00cf 35       		.byte	0x35
 4198 00d0 9F       		.byte	0x9f
 4199 00d1 5A010000 		.4byte	.LVL14
 4200 00d5 62010000 		.4byte	.LVL15
 4201 00d9 0200     		.2byte	0x2
 4202 00db 34       		.byte	0x34
 4203 00dc 9F       		.byte	0x9f
 4204 00dd 62010000 		.4byte	.LVL15
 4205 00e1 6A010000 		.4byte	.LVL16
 4206 00e5 0200     		.2byte	0x2
 4207 00e7 33       		.byte	0x33
 4208 00e8 9F       		.byte	0x9f
 4209 00e9 6A010000 		.4byte	.LVL16
 4210 00ed 72010000 		.4byte	.LVL17
 4211 00f1 0200     		.2byte	0x2
 4212 00f3 32       		.byte	0x32
 4213 00f4 9F       		.byte	0x9f
 4214 00f5 72010000 		.4byte	.LVL17
 4215 00f9 7A010000 		.4byte	.LFE120
 4216 00fd 0200     		.2byte	0x2
 4217 00ff 31       		.byte	0x31
 4218 0100 9F       		.byte	0x9f
 4219 0101 00000000 		.4byte	0
 4220 0105 00000000 		.4byte	0
 4221              	.LLST3:
 4222 0109 00000000 		.4byte	.LFB121
 4223 010d 02000000 		.4byte	.LCFI1
 4224 0111 0200     		.2byte	0x2
 4225 0113 7D       		.byte	0x7d
 4226 0114 00       		.sleb128 0
 4227 0115 02000000 		.4byte	.LCFI1
 4228 0119 1E000000 		.4byte	.LFE121
 4229 011d 0200     		.2byte	0x2
 4230 011f 7D       		.byte	0x7d
 4231 0120 08       		.sleb128 8
 4232 0121 00000000 		.4byte	0
 4233 0125 00000000 		.4byte	0
 4234              	.LLST4:
 4235 0129 00000000 		.4byte	.LVL18
 4236 012d 11000000 		.4byte	.LVL19-1
 4237 0131 0100     		.2byte	0x1
 4238 0133 50       		.byte	0x50
 4239 0134 11000000 		.4byte	.LVL19-1
 4240 0138 1E000000 		.4byte	.LFE121
 4241 013c 0400     		.2byte	0x4
 4242 013e F3       		.byte	0xf3
 4243 013f 01       		.uleb128 0x1
 4244 0140 50       		.byte	0x50
 4245 0141 9F       		.byte	0x9f
 4246 0142 00000000 		.4byte	0
 4247 0146 00000000 		.4byte	0
 4248              	.LLST5:
ARM GAS  /var/folders/ng/s8655sgx1ys_4lf9jzm2w6n00000gn/T//ccoB4Kch.s 			page 76


 4249 014a 00000000 		.4byte	.LFB122
 4250 014e 02000000 		.4byte	.LCFI2
 4251 0152 0200     		.2byte	0x2
 4252 0154 7D       		.byte	0x7d
 4253 0155 00       		.sleb128 0
 4254 0156 02000000 		.4byte	.LCFI2
 4255 015a 1E000000 		.4byte	.LFE122
 4256 015e 0200     		.2byte	0x2
 4257 0160 7D       		.byte	0x7d
 4258 0161 08       		.sleb128 8
 4259 0162 00000000 		.4byte	0
 4260 0166 00000000 		.4byte	0
 4261              	.LLST6:
 4262 016a 00000000 		.4byte	.LVL21
 4263 016e 11000000 		.4byte	.LVL22-1
 4264 0172 0100     		.2byte	0x1
 4265 0174 50       		.byte	0x50
 4266 0175 11000000 		.4byte	.LVL22-1
 4267 0179 1E000000 		.4byte	.LFE122
 4268 017d 0400     		.2byte	0x4
 4269 017f F3       		.byte	0xf3
 4270 0180 01       		.uleb128 0x1
 4271 0181 50       		.byte	0x50
 4272 0182 9F       		.byte	0x9f
 4273 0183 00000000 		.4byte	0
 4274 0187 00000000 		.4byte	0
 4275              	.LLST7:
 4276 018b 00000000 		.4byte	.LFB124
 4277 018f 02000000 		.4byte	.LCFI3
 4278 0193 0200     		.2byte	0x2
 4279 0195 7D       		.byte	0x7d
 4280 0196 00       		.sleb128 0
 4281 0197 02000000 		.4byte	.LCFI3
 4282 019b 18000000 		.4byte	.LFE124
 4283 019f 0200     		.2byte	0x2
 4284 01a1 7D       		.byte	0x7d
 4285 01a2 08       		.sleb128 8
 4286 01a3 00000000 		.4byte	0
 4287 01a7 00000000 		.4byte	0
 4288              	.LLST8:
 4289 01ab 00000000 		.4byte	.LFB123
 4290 01af 02000000 		.4byte	.LCFI4
 4291 01b3 0200     		.2byte	0x2
 4292 01b5 7D       		.byte	0x7d
 4293 01b6 00       		.sleb128 0
 4294 01b7 02000000 		.4byte	.LCFI4
 4295 01bb 68000000 		.4byte	.LFE123
 4296 01bf 0200     		.2byte	0x2
 4297 01c1 7D       		.byte	0x7d
 4298 01c2 08       		.sleb128 8
 4299 01c3 00000000 		.4byte	0
 4300 01c7 00000000 		.4byte	0
 4301              	.LLST9:
 4302 01cb 00000000 		.4byte	.LVL39
 4303 01cf 10000000 		.4byte	.LVL42
 4304 01d3 0100     		.2byte	0x1
 4305 01d5 50       		.byte	0x50
ARM GAS  /var/folders/ng/s8655sgx1ys_4lf9jzm2w6n00000gn/T//ccoB4Kch.s 			page 77


 4306 01d6 10000000 		.4byte	.LVL42
 4307 01da 16000000 		.4byte	.LFE127
 4308 01de 0400     		.2byte	0x4
 4309 01e0 F3       		.byte	0xf3
 4310 01e1 01       		.uleb128 0x1
 4311 01e2 50       		.byte	0x50
 4312 01e3 9F       		.byte	0x9f
 4313 01e4 00000000 		.4byte	0
 4314 01e8 00000000 		.4byte	0
 4315              	.LLST10:
 4316 01ec 00000000 		.4byte	.LVL39
 4317 01f0 0C000000 		.4byte	.LVL41
 4318 01f4 0100     		.2byte	0x1
 4319 01f6 51       		.byte	0x51
 4320 01f7 0C000000 		.4byte	.LVL41
 4321 01fb 16000000 		.4byte	.LFE127
 4322 01ff 0400     		.2byte	0x4
 4323 0201 F3       		.byte	0xf3
 4324 0202 01       		.uleb128 0x1
 4325 0203 51       		.byte	0x51
 4326 0204 9F       		.byte	0x9f
 4327 0205 00000000 		.4byte	0
 4328 0209 00000000 		.4byte	0
 4329              	.LLST11:
 4330 020d 0A000000 		.4byte	.LVL40
 4331 0211 0C000000 		.4byte	.LVL41
 4332 0215 0100     		.2byte	0x1
 4333 0217 51       		.byte	0x51
 4334 0218 0C000000 		.4byte	.LVL41
 4335 021c 15000000 		.4byte	.LVL43-1
 4336 0220 0300     		.2byte	0x3
 4337 0222 71       		.byte	0x71
 4338 0223 7E       		.sleb128 -2
 4339 0224 9F       		.byte	0x9f
 4340 0225 00000000 		.4byte	0
 4341 0229 00000000 		.4byte	0
 4342              	.LLST12:
 4343 022d 0A000000 		.4byte	.LVL40
 4344 0231 10000000 		.4byte	.LVL42
 4345 0235 0100     		.2byte	0x1
 4346 0237 50       		.byte	0x50
 4347 0238 00000000 		.4byte	0
 4348 023c 00000000 		.4byte	0
 4349              	.LLST13:
 4350 0240 0A000000 		.4byte	.LVL40
 4351 0244 0C000000 		.4byte	.LVL41
 4352 0248 0D00     		.2byte	0xd
 4353 024a 71       		.byte	0x71
 4354 024b 00       		.sleb128 0
 4355 024c 08       		.byte	0x8
 4356 024d FF       		.byte	0xff
 4357 024e 1A       		.byte	0x1a
 4358 024f 23       		.byte	0x23
 4359 0250 02       		.uleb128 0x2
 4360 0251 36       		.byte	0x36
 4361 0252 24       		.byte	0x24
 4362 0253 70       		.byte	0x70
ARM GAS  /var/folders/ng/s8655sgx1ys_4lf9jzm2w6n00000gn/T//ccoB4Kch.s 			page 78


 4363 0254 00       		.sleb128 0
 4364 0255 22       		.byte	0x22
 4365 0256 9F       		.byte	0x9f
 4366 0257 0C000000 		.4byte	.LVL41
 4367 025b 10000000 		.4byte	.LVL42
 4368 025f 0D00     		.2byte	0xd
 4369 0261 71       		.byte	0x71
 4370 0262 7E       		.sleb128 -2
 4371 0263 08       		.byte	0x8
 4372 0264 FF       		.byte	0xff
 4373 0265 1A       		.byte	0x1a
 4374 0266 23       		.byte	0x23
 4375 0267 02       		.uleb128 0x2
 4376 0268 36       		.byte	0x36
 4377 0269 24       		.byte	0x24
 4378 026a 70       		.byte	0x70
 4379 026b 00       		.sleb128 0
 4380 026c 22       		.byte	0x22
 4381 026d 9F       		.byte	0x9f
 4382 026e 00000000 		.4byte	0
 4383 0272 00000000 		.4byte	0
 4384              	.LLST14:
 4385 0276 00000000 		.4byte	.LVL44
 4386 027a 07000000 		.4byte	.LVL45-1
 4387 027e 0100     		.2byte	0x1
 4388 0280 50       		.byte	0x50
 4389 0281 07000000 		.4byte	.LVL45-1
 4390 0285 08000000 		.4byte	.LVL45
 4391 0289 0400     		.2byte	0x4
 4392 028b F3       		.byte	0xf3
 4393 028c 01       		.uleb128 0x1
 4394 028d 50       		.byte	0x50
 4395 028e 9F       		.byte	0x9f
 4396 028f 08000000 		.4byte	.LVL45
 4397 0293 0A000000 		.4byte	.LVL46
 4398 0297 0100     		.2byte	0x1
 4399 0299 50       		.byte	0x50
 4400 029a 0A000000 		.4byte	.LVL46
 4401 029e 0E000000 		.4byte	.LFE128
 4402 02a2 0400     		.2byte	0x4
 4403 02a4 F3       		.byte	0xf3
 4404 02a5 01       		.uleb128 0x1
 4405 02a6 50       		.byte	0x50
 4406 02a7 9F       		.byte	0x9f
 4407 02a8 00000000 		.4byte	0
 4408 02ac 00000000 		.4byte	0
 4409              	.LLST15:
 4410 02b0 00000000 		.4byte	.LFB129
 4411 02b4 04000000 		.4byte	.LCFI5
 4412 02b8 0200     		.2byte	0x2
 4413 02ba 7D       		.byte	0x7d
 4414 02bb 00       		.sleb128 0
 4415 02bc 04000000 		.4byte	.LCFI5
 4416 02c0 0E000000 		.4byte	.LCFI6
 4417 02c4 0200     		.2byte	0x2
 4418 02c6 7D       		.byte	0x7d
 4419 02c7 24       		.sleb128 36
ARM GAS  /var/folders/ng/s8655sgx1ys_4lf9jzm2w6n00000gn/T//ccoB4Kch.s 			page 79


 4420 02c8 0E000000 		.4byte	.LCFI6
 4421 02cc 14010000 		.4byte	.LFE129
 4422 02d0 0200     		.2byte	0x2
 4423 02d2 7D       		.byte	0x7d
 4424 02d3 30       		.sleb128 48
 4425 02d4 00000000 		.4byte	0
 4426 02d8 00000000 		.4byte	0
 4427              	.LLST16:
 4428 02dc 00000000 		.4byte	.LVL48
 4429 02e0 14000000 		.4byte	.LVL49
 4430 02e4 0100     		.2byte	0x1
 4431 02e6 50       		.byte	0x50
 4432 02e7 14000000 		.4byte	.LVL49
 4433 02eb 14010000 		.4byte	.LFE129
 4434 02ef 0400     		.2byte	0x4
 4435 02f1 F3       		.byte	0xf3
 4436 02f2 01       		.uleb128 0x1
 4437 02f3 50       		.byte	0x50
 4438 02f4 9F       		.byte	0x9f
 4439 02f5 00000000 		.4byte	0
 4440 02f9 00000000 		.4byte	0
 4441              	.LLST17:
 4442 02fd 00000000 		.4byte	.LVL48
 4443 0301 26000000 		.4byte	.LVL50
 4444 0305 0200     		.2byte	0x2
 4445 0307 30       		.byte	0x30
 4446 0308 9F       		.byte	0x9f
 4447 0309 26000000 		.4byte	.LVL50
 4448 030d 54000000 		.4byte	.LVL53
 4449 0311 0200     		.2byte	0x2
 4450 0313 7D       		.byte	0x7d
 4451 0314 00       		.sleb128 0
 4452 0315 68000000 		.4byte	.LVL54
 4453 0319 70000000 		.4byte	.LVL55
 4454 031d 0200     		.2byte	0x2
 4455 031f 30       		.byte	0x30
 4456 0320 9F       		.byte	0x9f
 4457 0321 70000000 		.4byte	.LVL55
 4458 0325 72000000 		.4byte	.LVL56
 4459 0329 0100     		.2byte	0x1
 4460 032b 51       		.byte	0x51
 4461 032c 72000000 		.4byte	.LVL56
 4462 0330 D4000000 		.4byte	.LVL66
 4463 0334 0200     		.2byte	0x2
 4464 0336 7D       		.byte	0x7d
 4465 0337 00       		.sleb128 0
 4466 0338 DC000000 		.4byte	.LVL67
 4467 033c F0000000 		.4byte	.LVL69
 4468 0340 0200     		.2byte	0x2
 4469 0342 7D       		.byte	0x7d
 4470 0343 00       		.sleb128 0
 4471 0344 F0000000 		.4byte	.LVL69
 4472 0348 14010000 		.4byte	.LFE129
 4473 034c 0100     		.2byte	0x1
 4474 034e 51       		.byte	0x51
 4475 034f 00000000 		.4byte	0
 4476 0353 00000000 		.4byte	0
ARM GAS  /var/folders/ng/s8655sgx1ys_4lf9jzm2w6n00000gn/T//ccoB4Kch.s 			page 80


 4477              	.LLST18:
 4478 0357 92000000 		.4byte	.LVL58
 4479 035b 9C000000 		.4byte	.LVL59
 4480 035f 0200     		.2byte	0x2
 4481 0361 7D       		.byte	0x7d
 4482 0362 00       		.sleb128 0
 4483 0363 9C000000 		.4byte	.LVL59
 4484 0367 D4000000 		.4byte	.LVL66
 4485 036b 0100     		.2byte	0x1
 4486 036d 5A       		.byte	0x5a
 4487 036e DC000000 		.4byte	.LVL67
 4488 0372 E8000000 		.4byte	.LVL68
 4489 0376 0100     		.2byte	0x1
 4490 0378 5A       		.byte	0x5a
 4491 0379 00000000 		.4byte	0
 4492 037d 00000000 		.4byte	0
 4493              	.LLST19:
 4494 0381 00000000 		.4byte	.LVL48
 4495 0385 26000000 		.4byte	.LVL50
 4496 0389 0200     		.2byte	0x2
 4497 038b 33       		.byte	0x33
 4498 038c 9F       		.byte	0x9f
 4499 038d 26000000 		.4byte	.LVL50
 4500 0391 54000000 		.4byte	.LVL53
 4501 0395 0200     		.2byte	0x2
 4502 0397 91       		.byte	0x91
 4503 0398 54       		.sleb128 -44
 4504 0399 68000000 		.4byte	.LVL54
 4505 039d 70000000 		.4byte	.LVL55
 4506 03a1 0200     		.2byte	0x2
 4507 03a3 33       		.byte	0x33
 4508 03a4 9F       		.byte	0x9f
 4509 03a5 70000000 		.4byte	.LVL55
 4510 03a9 72000000 		.4byte	.LVL56
 4511 03ad 0100     		.2byte	0x1
 4512 03af 52       		.byte	0x52
 4513 03b0 72000000 		.4byte	.LVL56
 4514 03b4 D2000000 		.4byte	.LVL65
 4515 03b8 0200     		.2byte	0x2
 4516 03ba 91       		.byte	0x91
 4517 03bb 54       		.sleb128 -44
 4518 03bc D2000000 		.4byte	.LVL65
 4519 03c0 D4000000 		.4byte	.LVL66
 4520 03c4 0100     		.2byte	0x1
 4521 03c6 52       		.byte	0x52
 4522 03c7 DC000000 		.4byte	.LVL67
 4523 03cb 14010000 		.4byte	.LFE129
 4524 03cf 0200     		.2byte	0x2
 4525 03d1 91       		.byte	0x91
 4526 03d2 54       		.sleb128 -44
 4527 03d3 00000000 		.4byte	0
 4528 03d7 00000000 		.4byte	0
 4529              	.LLST20:
 4530 03db 92000000 		.4byte	.LVL58
 4531 03df 9C000000 		.4byte	.LVL59
 4532 03e3 0200     		.2byte	0x2
 4533 03e5 30       		.byte	0x30
ARM GAS  /var/folders/ng/s8655sgx1ys_4lf9jzm2w6n00000gn/T//ccoB4Kch.s 			page 81


 4534 03e6 9F       		.byte	0x9f
 4535 03e7 9C000000 		.4byte	.LVL59
 4536 03eb AA000000 		.4byte	.LVL61
 4537 03ef 0300     		.2byte	0x3
 4538 03f1 7B       		.byte	0x7b
 4539 03f2 7F       		.sleb128 -1
 4540 03f3 9F       		.byte	0x9f
 4541 03f4 AA000000 		.4byte	.LVL61
 4542 03f8 BE000000 		.4byte	.LVL63
 4543 03fc 0100     		.2byte	0x1
 4544 03fe 5B       		.byte	0x5b
 4545 03ff BE000000 		.4byte	.LVL63
 4546 0403 D4000000 		.4byte	.LVL66
 4547 0407 0300     		.2byte	0x3
 4548 0409 7B       		.byte	0x7b
 4549 040a 7F       		.sleb128 -1
 4550 040b 9F       		.byte	0x9f
 4551 040c DC000000 		.4byte	.LVL67
 4552 0410 14010000 		.4byte	.LFE129
 4553 0414 0300     		.2byte	0x3
 4554 0416 7B       		.byte	0x7b
 4555 0417 7F       		.sleb128 -1
 4556 0418 9F       		.byte	0x9f
 4557 0419 00000000 		.4byte	0
 4558 041d 00000000 		.4byte	0
 4559              	.LLST21:
 4560 0421 00000000 		.4byte	.LFB119
 4561 0425 04000000 		.4byte	.LCFI7
 4562 0429 0200     		.2byte	0x2
 4563 042b 7D       		.byte	0x7d
 4564 042c 00       		.sleb128 0
 4565 042d 04000000 		.4byte	.LCFI7
 4566 0431 0C000000 		.4byte	.LFE119
 4567 0435 0200     		.2byte	0x2
 4568 0437 7D       		.byte	0x7d
 4569 0438 08       		.sleb128 8
 4570 0439 00000000 		.4byte	0
 4571 043d 00000000 		.4byte	0
 4572              	.LLST22:
 4573 0441 00000000 		.4byte	.LVL70
 4574 0445 02000000 		.4byte	.LVL71
 4575 0449 0100     		.2byte	0x1
 4576 044b 50       		.byte	0x50
 4577 044c 02000000 		.4byte	.LVL71
 4578 0450 0C000000 		.4byte	.LFE119
 4579 0454 0400     		.2byte	0x4
 4580 0456 F3       		.byte	0xf3
 4581 0457 01       		.uleb128 0x1
 4582 0458 50       		.byte	0x50
 4583 0459 9F       		.byte	0x9f
 4584 045a 00000000 		.4byte	0
 4585 045e 00000000 		.4byte	0
 4586              	.LLST23:
 4587 0462 00000000 		.4byte	.LVL70
 4588 0466 07000000 		.4byte	.LVL72-1
 4589 046a 0100     		.2byte	0x1
 4590 046c 51       		.byte	0x51
ARM GAS  /var/folders/ng/s8655sgx1ys_4lf9jzm2w6n00000gn/T//ccoB4Kch.s 			page 82


 4591 046d 07000000 		.4byte	.LVL72-1
 4592 0471 0C000000 		.4byte	.LFE119
 4593 0475 0400     		.2byte	0x4
 4594 0477 F3       		.byte	0xf3
 4595 0478 01       		.uleb128 0x1
 4596 0479 51       		.byte	0x51
 4597 047a 9F       		.byte	0x9f
 4598 047b 00000000 		.4byte	0
 4599 047f 00000000 		.4byte	0
 4600              	.LLST24:
 4601 0483 00000000 		.4byte	.LFB130
 4602 0487 02000000 		.4byte	.LCFI8
 4603 048b 0200     		.2byte	0x2
 4604 048d 7D       		.byte	0x7d
 4605 048e 00       		.sleb128 0
 4606 048f 02000000 		.4byte	.LCFI8
 4607 0493 08000000 		.4byte	.LCFI9
 4608 0497 0200     		.2byte	0x2
 4609 0499 7D       		.byte	0x7d
 4610 049a 04       		.sleb128 4
 4611 049b 08000000 		.4byte	.LCFI9
 4612 049f 32000000 		.4byte	.LFE130
 4613 04a3 0200     		.2byte	0x2
 4614 04a5 7D       		.byte	0x7d
 4615 04a6 10       		.sleb128 16
 4616 04a7 00000000 		.4byte	0
 4617 04ab 00000000 		.4byte	0
 4618              	.LLST25:
 4619 04af 00000000 		.4byte	.LFB136
 4620 04b3 04000000 		.4byte	.LCFI10
 4621 04b7 0200     		.2byte	0x2
 4622 04b9 7D       		.byte	0x7d
 4623 04ba 00       		.sleb128 0
 4624 04bb 04000000 		.4byte	.LCFI10
 4625 04bf 8C000000 		.4byte	.LFE136
 4626 04c3 0200     		.2byte	0x2
 4627 04c5 7D       		.byte	0x7d
 4628 04c6 18       		.sleb128 24
 4629 04c7 00000000 		.4byte	0
 4630 04cb 00000000 		.4byte	0
 4631              	.LLST26:
 4632 04cf 00000000 		.4byte	.LVL77
 4633 04d3 3A000000 		.4byte	.LVL84
 4634 04d7 0100     		.2byte	0x1
 4635 04d9 50       		.byte	0x50
 4636 04da 3A000000 		.4byte	.LVL84
 4637 04de 60000000 		.4byte	.LVL90
 4638 04e2 0400     		.2byte	0x4
 4639 04e4 F3       		.byte	0xf3
 4640 04e5 01       		.uleb128 0x1
 4641 04e6 50       		.byte	0x50
 4642 04e7 9F       		.byte	0x9f
 4643 04e8 60000000 		.4byte	.LVL90
 4644 04ec 8C000000 		.4byte	.LFE136
 4645 04f0 0100     		.2byte	0x1
 4646 04f2 50       		.byte	0x50
 4647 04f3 00000000 		.4byte	0
ARM GAS  /var/folders/ng/s8655sgx1ys_4lf9jzm2w6n00000gn/T//ccoB4Kch.s 			page 83


 4648 04f7 00000000 		.4byte	0
 4649              	.LLST27:
 4650 04fb 00000000 		.4byte	.LVL77
 4651 04ff 46000000 		.4byte	.LVL86
 4652 0503 0100     		.2byte	0x1
 4653 0505 51       		.byte	0x51
 4654 0506 46000000 		.4byte	.LVL86
 4655 050a 60000000 		.4byte	.LVL90
 4656 050e 0500     		.2byte	0x5
 4657 0510 03       		.byte	0x3
 4658 0511 00000000 		.4byte	_scrollRow
 4659 0515 60000000 		.4byte	.LVL90
 4660 0519 8C000000 		.4byte	.LFE136
 4661 051d 0100     		.2byte	0x1
 4662 051f 51       		.byte	0x51
 4663 0520 00000000 		.4byte	0
 4664 0524 00000000 		.4byte	0
 4665              	.LLST28:
 4666 0528 00000000 		.4byte	.LVL77
 4667 052c 52000000 		.4byte	.LVL88
 4668 0530 0100     		.2byte	0x1
 4669 0532 52       		.byte	0x52
 4670 0533 52000000 		.4byte	.LVL88
 4671 0537 60000000 		.4byte	.LVL90
 4672 053b 0500     		.2byte	0x5
 4673 053d 03       		.byte	0x3
 4674 053e 00000000 		.4byte	_scrollCol
 4675 0542 60000000 		.4byte	.LVL90
 4676 0546 8C000000 		.4byte	.LFE136
 4677 054a 0100     		.2byte	0x1
 4678 054c 52       		.byte	0x52
 4679 054d 00000000 		.4byte	0
 4680 0551 00000000 		.4byte	0
 4681              	.LLST29:
 4682 0555 00000000 		.4byte	.LVL77
 4683 0559 4E000000 		.4byte	.LVL87
 4684 055d 0100     		.2byte	0x1
 4685 055f 53       		.byte	0x53
 4686 0560 4E000000 		.4byte	.LVL87
 4687 0564 56000000 		.4byte	.LVL89
 4688 0568 0100     		.2byte	0x1
 4689 056a 53       		.byte	0x53
 4690 056b 56000000 		.4byte	.LVL89
 4691 056f 60000000 		.4byte	.LVL90
 4692 0573 0500     		.2byte	0x5
 4693 0575 03       		.byte	0x3
 4694 0576 00000000 		.4byte	_scrollWidth
 4695 057a 60000000 		.4byte	.LVL90
 4696 057e 8C000000 		.4byte	.LFE136
 4697 0582 0100     		.2byte	0x1
 4698 0584 53       		.byte	0x53
 4699 0585 00000000 		.4byte	0
 4700 0589 00000000 		.4byte	0
 4701              	.LLST30:
 4702 058d 00000000 		.4byte	.LVL77
 4703 0591 10000000 		.4byte	.LVL78
 4704 0595 0200     		.2byte	0x2
ARM GAS  /var/folders/ng/s8655sgx1ys_4lf9jzm2w6n00000gn/T//ccoB4Kch.s 			page 84


 4705 0597 30       		.byte	0x30
 4706 0598 9F       		.byte	0x9f
 4707 0599 18000000 		.4byte	.LVL79
 4708 059d 2C000000 		.4byte	.LVL81
 4709 05a1 0100     		.2byte	0x1
 4710 05a3 54       		.byte	0x54
 4711 05a4 2C000000 		.4byte	.LVL81
 4712 05a8 30000000 		.4byte	.LVL82
 4713 05ac 0100     		.2byte	0x1
 4714 05ae 59       		.byte	0x59
 4715 05af 30000000 		.4byte	.LVL82
 4716 05b3 36000000 		.4byte	.LVL83
 4717 05b7 0100     		.2byte	0x1
 4718 05b9 58       		.byte	0x58
 4719 05ba 36000000 		.4byte	.LVL83
 4720 05be 60000000 		.4byte	.LVL90
 4721 05c2 0100     		.2byte	0x1
 4722 05c4 56       		.byte	0x56
 4723 05c5 60000000 		.4byte	.LVL90
 4724 05c9 8C000000 		.4byte	.LFE136
 4725 05cd 0200     		.2byte	0x2
 4726 05cf 30       		.byte	0x30
 4727 05d0 9F       		.byte	0x9f
 4728 05d1 00000000 		.4byte	0
 4729 05d5 00000000 		.4byte	0
 4730              	.LLST31:
 4731 05d9 28000000 		.4byte	.LVL80
 4732 05dd 2C000000 		.4byte	.LVL81
 4733 05e1 0200     		.2byte	0x2
 4734 05e3 30       		.byte	0x30
 4735 05e4 9F       		.byte	0x9f
 4736 05e5 2C000000 		.4byte	.LVL81
 4737 05e9 30000000 		.4byte	.LVL82
 4738 05ed 0200     		.2byte	0x2
 4739 05ef 31       		.byte	0x31
 4740 05f0 9F       		.byte	0x9f
 4741 05f1 30000000 		.4byte	.LVL82
 4742 05f5 36000000 		.4byte	.LVL83
 4743 05f9 0200     		.2byte	0x2
 4744 05fb 32       		.byte	0x32
 4745 05fc 9F       		.byte	0x9f
 4746 05fd 36000000 		.4byte	.LVL83
 4747 0601 60000000 		.4byte	.LVL90
 4748 0605 0200     		.2byte	0x2
 4749 0607 33       		.byte	0x33
 4750 0608 9F       		.byte	0x9f
 4751 0609 00000000 		.4byte	0
 4752 060d 00000000 		.4byte	0
 4753              	.LLST32:
 4754 0611 3C000000 		.4byte	.LVL85
 4755 0615 52000000 		.4byte	.LVL88
 4756 0619 0100     		.2byte	0x1
 4757 061b 52       		.byte	0x52
 4758 061c 52000000 		.4byte	.LVL88
 4759 0620 60000000 		.4byte	.LVL90
 4760 0624 0500     		.2byte	0x5
 4761 0626 03       		.byte	0x3
ARM GAS  /var/folders/ng/s8655sgx1ys_4lf9jzm2w6n00000gn/T//ccoB4Kch.s 			page 85


 4762 0627 00000000 		.4byte	_scrollCol
 4763 062b 00000000 		.4byte	0
 4764 062f 00000000 		.4byte	0
 4765              	.LLST33:
 4766 0633 3C000000 		.4byte	.LVL85
 4767 0637 46000000 		.4byte	.LVL86
 4768 063b 0100     		.2byte	0x1
 4769 063d 51       		.byte	0x51
 4770 063e 46000000 		.4byte	.LVL86
 4771 0642 60000000 		.4byte	.LVL90
 4772 0646 0500     		.2byte	0x5
 4773 0648 03       		.byte	0x3
 4774 0649 00000000 		.4byte	_scrollRow
 4775 064d 00000000 		.4byte	0
 4776 0651 00000000 		.4byte	0
 4777              		.section	.debug_aranges,"",%progbits
 4778 0000 A4000000 		.4byte	0xa4
 4779 0004 0200     		.2byte	0x2
 4780 0006 00000000 		.4byte	.Ldebug_info0
 4781 000a 04       		.byte	0x4
 4782 000b 00       		.byte	0
 4783 000c 0000     		.2byte	0
 4784 000e 0000     		.2byte	0
 4785 0010 00000000 		.4byte	.LFB120
 4786 0014 7A010000 		.4byte	.LFE120-.LFB120
 4787 0018 00000000 		.4byte	.LFB121
 4788 001c 1E000000 		.4byte	.LFE121-.LFB121
 4789 0020 00000000 		.4byte	.LFB122
 4790 0024 1E000000 		.4byte	.LFE122-.LFB122
 4791 0028 00000000 		.4byte	.LFB124
 4792 002c 18000000 		.4byte	.LFE124-.LFB124
 4793 0030 00000000 		.4byte	.LFB125
 4794 0034 06000000 		.4byte	.LFE125-.LFB125
 4795 0038 00000000 		.4byte	.LFB126
 4796 003c 06000000 		.4byte	.LFE126-.LFB126
 4797 0040 00000000 		.4byte	.LFB123
 4798 0044 68000000 		.4byte	.LFE123-.LFB123
 4799 0048 00000000 		.4byte	.LFB127
 4800 004c 16000000 		.4byte	.LFE127-.LFB127
 4801 0050 00000000 		.4byte	.LFB128
 4802 0054 0E000000 		.4byte	.LFE128-.LFB128
 4803 0058 00000000 		.4byte	.LFB129
 4804 005c 14010000 		.4byte	.LFE129-.LFB129
 4805 0060 00000000 		.4byte	.LFB119
 4806 0064 0C000000 		.4byte	.LFE119-.LFB119
 4807 0068 00000000 		.4byte	.LFB130
 4808 006c 32000000 		.4byte	.LFE130-.LFB130
 4809 0070 00000000 		.4byte	.LFB131
 4810 0074 16000000 		.4byte	.LFE131-.LFB131
 4811 0078 00000000 		.4byte	.LFB132
 4812 007c 0C000000 		.4byte	.LFE132-.LFB132
 4813 0080 00000000 		.4byte	.LFB133
 4814 0084 0E000000 		.4byte	.LFE133-.LFB133
 4815 0088 00000000 		.4byte	.LFB134
 4816 008c 0E000000 		.4byte	.LFE134-.LFB134
 4817 0090 00000000 		.4byte	.LFB135
 4818 0094 0E000000 		.4byte	.LFE135-.LFB135
ARM GAS  /var/folders/ng/s8655sgx1ys_4lf9jzm2w6n00000gn/T//ccoB4Kch.s 			page 86


 4819 0098 00000000 		.4byte	.LFB136
 4820 009c 8C000000 		.4byte	.LFE136-.LFB136
 4821 00a0 00000000 		.4byte	0
 4822 00a4 00000000 		.4byte	0
 4823              		.section	.debug_ranges,"",%progbits
 4824              	.Ldebug_ranges0:
 4825 0000 0A000000 		.4byte	.LBB6
 4826 0004 12000000 		.4byte	.LBE6
 4827 0008 12000000 		.4byte	.LBB9
 4828 000c 16000000 		.4byte	.LBE9
 4829 0010 00000000 		.4byte	0
 4830 0014 00000000 		.4byte	0
 4831 0018 0A000000 		.4byte	.LBB7
 4832 001c 12000000 		.4byte	.LBE7
 4833 0020 12000000 		.4byte	.LBB8
 4834 0024 16000000 		.4byte	.LBE8
 4835 0028 00000000 		.4byte	0
 4836 002c 00000000 		.4byte	0
 4837 0030 08000000 		.4byte	.LBB16
 4838 0034 0A000000 		.4byte	.LBE16
 4839 0038 0A000000 		.4byte	.LBB27
 4840 003c 0E000000 		.4byte	.LBE27
 4841 0040 00000000 		.4byte	0
 4842 0044 00000000 		.4byte	0
 4843 0048 08000000 		.4byte	.LBB17
 4844 004c 0A000000 		.4byte	.LBE17
 4845 0050 0A000000 		.4byte	.LBB26
 4846 0054 0E000000 		.4byte	.LBE26
 4847 0058 00000000 		.4byte	0
 4848 005c 00000000 		.4byte	0
 4849 0060 08000000 		.4byte	.LBB18
 4850 0064 0A000000 		.4byte	.LBE18
 4851 0068 0A000000 		.4byte	.LBB25
 4852 006c 0E000000 		.4byte	.LBE25
 4853 0070 00000000 		.4byte	0
 4854 0074 00000000 		.4byte	0
 4855 0078 08000000 		.4byte	.LBB19
 4856 007c 0A000000 		.4byte	.LBE19
 4857 0080 0A000000 		.4byte	.LBB24
 4858 0084 0E000000 		.4byte	.LBE24
 4859 0088 00000000 		.4byte	0
 4860 008c 00000000 		.4byte	0
 4861 0090 08000000 		.4byte	.LBB20
 4862 0094 0A000000 		.4byte	.LBE20
 4863 0098 0A000000 		.4byte	.LBB23
 4864 009c 0E000000 		.4byte	.LBE23
 4865 00a0 00000000 		.4byte	0
 4866 00a4 00000000 		.4byte	0
 4867 00a8 08000000 		.4byte	.LBB21
 4868 00ac 0A000000 		.4byte	.LBE21
 4869 00b0 0A000000 		.4byte	.LBB22
 4870 00b4 0E000000 		.4byte	.LBE22
 4871 00b8 00000000 		.4byte	0
 4872 00bc 00000000 		.4byte	0
 4873 00c0 3C000000 		.4byte	.LBB28
 4874 00c4 3E000000 		.4byte	.LBE28
 4875 00c8 40000000 		.4byte	.LBB33
ARM GAS  /var/folders/ng/s8655sgx1ys_4lf9jzm2w6n00000gn/T//ccoB4Kch.s 			page 87


 4876 00cc 42000000 		.4byte	.LBE33
 4877 00d0 44000000 		.4byte	.LBB34
 4878 00d4 46000000 		.4byte	.LBE34
 4879 00d8 4E000000 		.4byte	.LBB35
 4880 00dc 50000000 		.4byte	.LBE35
 4881 00e0 00000000 		.4byte	0
 4882 00e4 00000000 		.4byte	0
 4883 00e8 00000000 		.4byte	.LFB120
 4884 00ec 7A010000 		.4byte	.LFE120
 4885 00f0 00000000 		.4byte	.LFB121
 4886 00f4 1E000000 		.4byte	.LFE121
 4887 00f8 00000000 		.4byte	.LFB122
 4888 00fc 1E000000 		.4byte	.LFE122
 4889 0100 00000000 		.4byte	.LFB124
 4890 0104 18000000 		.4byte	.LFE124
 4891 0108 00000000 		.4byte	.LFB125
 4892 010c 06000000 		.4byte	.LFE125
 4893 0110 00000000 		.4byte	.LFB126
 4894 0114 06000000 		.4byte	.LFE126
 4895 0118 00000000 		.4byte	.LFB123
 4896 011c 68000000 		.4byte	.LFE123
 4897 0120 00000000 		.4byte	.LFB127
 4898 0124 16000000 		.4byte	.LFE127
 4899 0128 00000000 		.4byte	.LFB128
 4900 012c 0E000000 		.4byte	.LFE128
 4901 0130 00000000 		.4byte	.LFB129
 4902 0134 14010000 		.4byte	.LFE129
 4903 0138 00000000 		.4byte	.LFB119
 4904 013c 0C000000 		.4byte	.LFE119
 4905 0140 00000000 		.4byte	.LFB130
 4906 0144 32000000 		.4byte	.LFE130
 4907 0148 00000000 		.4byte	.LFB131
 4908 014c 16000000 		.4byte	.LFE131
 4909 0150 00000000 		.4byte	.LFB132
 4910 0154 0C000000 		.4byte	.LFE132
 4911 0158 00000000 		.4byte	.LFB133
 4912 015c 0E000000 		.4byte	.LFE133
 4913 0160 00000000 		.4byte	.LFB134
 4914 0164 0E000000 		.4byte	.LFE134
 4915 0168 00000000 		.4byte	.LFB135
 4916 016c 0E000000 		.4byte	.LFE135
 4917 0170 00000000 		.4byte	.LFB136
 4918 0174 8C000000 		.4byte	.LFE136
 4919 0178 00000000 		.4byte	0
 4920 017c 00000000 		.4byte	0
 4921              		.section	.debug_line,"",%progbits
 4922              	.Ldebug_line0:
 4923 0000 0C050000 		.section	.debug_str,"MS",%progbits,1
 4923      02008A02 
 4923      00000201 
 4923      FB0E0D00 
 4923      01010101 
 4924              	.LASF108:
 4925 0000 5F736372 		.ascii	"_scrollWidth\000"
 4925      6F6C6C57 
 4925      69647468 
 4925      00
ARM GAS  /var/folders/ng/s8655sgx1ys_4lf9jzm2w6n00000gn/T//ccoB4Kch.s 			page 88


 4926              	.LASF60:
 4927 000d 7466756E 		.ascii	"tfunc_t\000"
 4927      635F7400 
 4928              	.LASF2:
 4929 0015 73697A65 		.ascii	"size_t\000"
 4929      5F7400
 4930              	.LASF55:
 4931 001c 7264796D 		.ascii	"rdymsg\000"
 4931      736700
 4932              	.LASF13:
 4933 0023 75696E74 		.ascii	"uint64_t\000"
 4933      36345F74 
 4933      00
 4934              	.LASF68:
 4935 002c 4F545950 		.ascii	"OTYPER\000"
 4935      455200
 4936              	.LASF97:
 4937 0033 7363726F 		.ascii	"scrollPause\000"
 4937      6C6C5061 
 4937      75736500 
 4938              	.LASF65:
 4939 003f 68616C72 		.ascii	"halrtcnt_t\000"
 4939      74636E74 
 4939      5F7400
 4940              	.LASF104:
 4941 004a 5F736372 		.ascii	"_scrollMtx\000"
 4941      6F6C6C4D 
 4941      747800
 4942              	.LASF76:
 4943 0055 696F706F 		.ascii	"ioportmask_t\000"
 4943      72746D61 
 4943      736B5F74 
 4943      00
 4944              	.LASF67:
 4945 0062 4D4F4445 		.ascii	"MODER\000"
 4945      5200
 4946              	.LASF44:
 4947 0068 54687265 		.ascii	"ThreadsQueue\000"
 4947      61647351 
 4947      75657565 
 4947      00
 4948              	.LASF103:
 4949 0075 49544D5F 		.ascii	"ITM_RxBuffer\000"
 4949      52784275 
 4949      66666572 
 4949      00
 4950              	.LASF27:
 4951 0082 705F7072 		.ascii	"p_prio\000"
 4951      696F00
 4952              	.LASF94:
 4953 0089 7363726F 		.ascii	"scrollSetDelay\000"
 4953      6C6C5365 
 4953      7444656C 
 4953      617900
 4954              	.LASF92:
 4955 0098 696E7374 		.ascii	"instance\000"
 4955      616E6365 
ARM GAS  /var/folders/ng/s8655sgx1ys_4lf9jzm2w6n00000gn/T//ccoB4Kch.s 			page 89


 4955      00
 4956              	.LASF122:
 4957 00a1 63684D74 		.ascii	"chMtxUnlock\000"
 4957      78556E6C 
 4957      6F636B00 
 4958              	.LASF1:
 4959 00ad 7369676E 		.ascii	"signed char\000"
 4959      65642063 
 4959      68617200 
 4960              	.LASF71:
 4961 00b9 42535252 		.ascii	"BSRR\000"
 4961      00
 4962              	.LASF43:
 4963 00be 705F6D70 		.ascii	"p_mpool\000"
 4963      6F6F6C00 
 4964              	.LASF88:
 4965 00c6 6375725F 		.ascii	"cur_start\000"
 4965      73746172 
 4965      7400
 4966              	.LASF52:
 4967 00d0 6D5F7175 		.ascii	"m_queue\000"
 4967      65756500 
 4968              	.LASF93:
 4969 00d8 7363726F 		.ascii	"scroll_init\000"
 4969      6C6C5F69 
 4969      6E697400 
 4970              	.LASF57:
 4971 00e4 77746F62 		.ascii	"wtobjp\000"
 4971      6A7000
 4972              	.LASF19:
 4973 00eb 74736C69 		.ascii	"tslices_t\000"
 4973      6365735F 
 4973      7400
 4974              	.LASF118:
 4975 00f5 474E5520 		.ascii	"GNU C 4.7.4 20130913 (release) [ARM/embedded-4_7-br"
 4975      4320342E 
 4975      372E3420 
 4975      32303133 
 4975      30393133 
 4976 0128 616E6368 		.ascii	"anch revision 202601]\000"
 4976      20726576 
 4976      6973696F 
 4976      6E203230 
 4976      32363031 
 4977              	.LASF70:
 4978 013e 50555044 		.ascii	"PUPDR\000"
 4978      5200
 4979              	.LASF105:
 4980 0144 5F736372 		.ascii	"_scrollRow\000"
 4980      6F6C6C52 
 4980      6F7700
 4981              	.LASF9:
 4982 014f 6C6F6E67 		.ascii	"long int\000"
 4982      20696E74 
 4982      00
 4983              	.LASF17:
 4984 0158 74737461 		.ascii	"tstate_t\000"
ARM GAS  /var/folders/ng/s8655sgx1ys_4lf9jzm2w6n00000gn/T//ccoB4Kch.s 			page 90


 4984      74655F74 
 4984      00
 4985              	.LASF6:
 4986 0161 75696E74 		.ascii	"uint16_t\000"
 4986      31365F74 
 4986      00
 4987              	.LASF29:
 4988 016a 705F6E65 		.ascii	"p_newer\000"
 4988      77657200 
 4989              	.LASF102:
 4990 0172 5F766D74 		.ascii	"_vmt\000"
 4990      00
 4991              	.LASF56:
 4992 0177 65786974 		.ascii	"exitcode\000"
 4992      636F6465 
 4992      00
 4993              	.LASF99:
 4994 0180 7363726F 		.ascii	"scrollMessage\000"
 4994      6C6C4D65 
 4994      73736167 
 4994      6500
 4995              	.LASF69:
 4996 018e 4F535045 		.ascii	"OSPEEDR\000"
 4996      45445200 
 4997              	.LASF87:
 4998 0196 5F6C6364 		.ascii	"_lcd_init\000"
 4998      5F696E69 
 4998      7400
 4999              	.LASF46:
 5000 01a0 72656761 		.ascii	"regarm_t\000"
 5000      726D5F74 
 5000      00
 5001              	.LASF14:
 5002 01a9 6C6F6E67 		.ascii	"long long unsigned int\000"
 5002      206C6F6E 
 5002      6720756E 
 5002      7369676E 
 5002      65642069 
 5003              	.LASF64:
 5004 01c0 42617365 		.ascii	"BaseSequentialStream\000"
 5004      53657175 
 5004      656E7469 
 5004      616C5374 
 5004      7265616D 
 5005              	.LASF0:
 5006 01d5 756E7369 		.ascii	"unsigned int\000"
 5006      676E6564 
 5006      20696E74 
 5006      00
 5007              	.LASF83:
 5008 01e2 5F777269 		.ascii	"_write_control\000"
 5008      74655F63 
 5008      6F6E7472 
 5008      6F6C00
 5009              	.LASF80:
 5010 01f1 7363726F 		.ascii	"scrollSetCursor\000"
 5010      6C6C5365 
ARM GAS  /var/folders/ng/s8655sgx1ys_4lf9jzm2w6n00000gn/T//ccoB4Kch.s 			page 91


 5010      74437572 
 5010      736F7200 
 5011              	.LASF75:
 5012 0201 4750494F 		.ascii	"GPIO_TypeDef\000"
 5012      5F547970 
 5012      65446566 
 5012      00
 5013              	.LASF72:
 5014 020e 4C434B52 		.ascii	"LCKR\000"
 5014      00
 5015              	.LASF78:
 5016 0213 6C63645F 		.ascii	"lcd_printChar\000"
 5016      7072696E 
 5016      74436861 
 5016      7200
 5017              	.LASF73:
 5018 0221 4146524C 		.ascii	"AFRL\000"
 5018      00
 5019              	.LASF49:
 5020 0226 636F6E74 		.ascii	"context\000"
 5020      65787400 
 5021              	.LASF7:
 5022 022e 73686F72 		.ascii	"short unsigned int\000"
 5022      7420756E 
 5022      7369676E 
 5022      65642069 
 5022      6E7400
 5023              	.LASF91:
 5024 0241 5F707574 		.ascii	"_put\000"
 5024      00
 5025              	.LASF85:
 5026 0246 6C63645F 		.ascii	"lcd_on\000"
 5026      6F6E00
 5027              	.LASF21:
 5028 024d 6D73675F 		.ascii	"msg_t\000"
 5028      7400
 5029              	.LASF16:
 5030 0253 746D6F64 		.ascii	"tmode_t\000"
 5030      655F7400 
 5031              	.LASF100:
 5032 025b 77696E64 		.ascii	"window\000"
 5032      6F7700
 5033              	.LASF45:
 5034 0262 54687265 		.ascii	"ThreadsList\000"
 5034      6164734C 
 5034      69737400 
 5035              	.LASF22:
 5036 026e 6576656E 		.ascii	"eventmask_t\000"
 5036      746D6173 
 5036      6B5F7400 
 5037              	.LASF51:
 5038 027a 4D757465 		.ascii	"Mutex\000"
 5038      7800
 5039              	.LASF109:
 5040 0280 5F736372 		.ascii	"_scrollMsgLen\000"
 5040      6F6C6C4D 
 5040      73674C65 
ARM GAS  /var/folders/ng/s8655sgx1ys_4lf9jzm2w6n00000gn/T//ccoB4Kch.s 			page 92


 5040      6E00
 5041              	.LASF47:
 5042 028e 73746B61 		.ascii	"stkalign_t\000"
 5042      6C69676E 
 5042      5F7400
 5043              	.LASF117:
 5044 0299 63685468 		.ascii	"chThdCreateStatic\000"
 5044      64437265 
 5044      61746553 
 5044      74617469 
 5044      6300
 5045              	.LASF12:
 5046 02ab 6C6F6E67 		.ascii	"long long int\000"
 5046      206C6F6E 
 5046      6720696E 
 5046      7400
 5047              	.LASF62:
 5048 02b9 77726974 		.ascii	"write\000"
 5048      6500
 5049              	.LASF50:
 5050 02bf 73697A65 		.ascii	"sizetype\000"
 5050      74797065 
 5050      00
 5051              	.LASF101:
 5052 02c8 7363726F 		.ascii	"scrollingThreadWorkingArea\000"
 5052      6C6C696E 
 5052      67546872 
 5052      65616457 
 5052      6F726B69 
 5053              	.LASF66:
 5054 02e3 636C6561 		.ascii	"clear\000"
 5054      7200
 5055              	.LASF115:
 5056 02e9 63684D74 		.ascii	"chMtxLock\000"
 5056      784C6F63 
 5056      6B00
 5057              	.LASF30:
 5058 02f3 705F6F6C 		.ascii	"p_older\000"
 5058      64657200 
 5059              	.LASF81:
 5060 02fb 5F777269 		.ascii	"_write_byte\000"
 5060      74655F62 
 5060      79746500 
 5061              	.LASF120:
 5062 0307 2F557365 		.ascii	"/Users/jseng/aithon/DemoMode\000"
 5062      72732F6A 
 5062      73656E67 
 5062      2F616974 
 5062      686F6E2F 
 5063              	.LASF90:
 5064 0324 7363726F 		.ascii	"scrollingThread\000"
 5064      6C6C696E 
 5064      67546872 
 5064      65616400 
 5065              	.LASF107:
 5066 0334 5F736372 		.ascii	"_scrollDelay\000"
 5066      6F6C6C44 
ARM GAS  /var/folders/ng/s8655sgx1ys_4lf9jzm2w6n00000gn/T//ccoB4Kch.s 			page 93


 5066      656C6179 
 5066      00
 5067              	.LASF74:
 5068 0341 41465248 		.ascii	"AFRH\000"
 5068      00
 5069              	.LASF96:
 5070 0346 7363726F 		.ascii	"scrollEnable\000"
 5070      6C6C456E 
 5070      61626C65 
 5070      00
 5071              	.LASF18:
 5072 0353 74726566 		.ascii	"trefs_t\000"
 5072      735F7400 
 5073              	.LASF26:
 5074 035b 705F7072 		.ascii	"p_prev\000"
 5074      657600
 5075              	.LASF20:
 5076 0362 74707269 		.ascii	"tprio_t\000"
 5076      6F5F7400 
 5077              	.LASF121:
 5078 036a 61646472 		.ascii	"addr\000"
 5078      00
 5079              	.LASF15:
 5080 036f 5F426F6F 		.ascii	"_Bool\000"
 5080      6C00
 5081              	.LASF8:
 5082 0375 696E7433 		.ascii	"int32_t\000"
 5082      325F7400 
 5083              	.LASF4:
 5084 037d 756E7369 		.ascii	"unsigned char\000"
 5084      676E6564 
 5084      20636861 
 5084      7200
 5085              	.LASF82:
 5086 038b 5F777269 		.ascii	"_write_data\000"
 5086      74655F64 
 5086      61746100 
 5087              	.LASF95:
 5088 0397 64656C61 		.ascii	"delay\000"
 5088      7900
 5089              	.LASF32:
 5090 039d 705F7374 		.ascii	"p_state\000"
 5090      61746500 
 5091              	.LASF41:
 5092 03a5 705F6D74 		.ascii	"p_mtxlist\000"
 5092      786C6973 
 5092      7400
 5093              	.LASF5:
 5094 03af 73686F72 		.ascii	"short int\000"
 5094      7420696E 
 5094      7400
 5095              	.LASF35:
 5096 03b9 705F7072 		.ascii	"p_preempt\000"
 5096      65656D70 
 5096      7400
 5097              	.LASF25:
 5098 03c3 705F6E65 		.ascii	"p_next\000"
ARM GAS  /var/folders/ng/s8655sgx1ys_4lf9jzm2w6n00000gn/T//ccoB4Kch.s 			page 94


 5098      787400
 5099              	.LASF33:
 5100 03ca 705F666C 		.ascii	"p_flags\000"
 5100      61677300 
 5101              	.LASF84:
 5102 03d2 6C63645F 		.ascii	"lcd_clear\000"
 5102      636C6561 
 5102      7200
 5103              	.LASF24:
 5104 03dc 54687265 		.ascii	"Thread\000"
 5104      616400
 5105              	.LASF40:
 5106 03e3 705F6570 		.ascii	"p_epending\000"
 5106      656E6469 
 5106      6E6700
 5107              	.LASF10:
 5108 03ee 75696E74 		.ascii	"uint32_t\000"
 5108      33325F74 
 5108      00
 5109              	.LASF11:
 5110 03f7 6C6F6E67 		.ascii	"long unsigned int\000"
 5110      20756E73 
 5110      69676E65 
 5110      6420696E 
 5110      7400
 5111              	.LASF98:
 5112 0409 7363726F 		.ascii	"scrollExit\000"
 5112      6C6C4578 
 5112      697400
 5113              	.LASF59:
 5114 0414 63686172 		.ascii	"char\000"
 5114      00
 5115              	.LASF77:
 5116 0419 6C63645F 		.ascii	"lcd_cursor\000"
 5116      63757273 
 5116      6F7200
 5117              	.LASF61:
 5118 0424 42617365 		.ascii	"BaseSequentialStreamVMT\000"
 5118      53657175 
 5118      656E7469 
 5118      616C5374 
 5118      7265616D 
 5119              	.LASF119:
 5120 043c 2E2E2F41 		.ascii	"../AithonLibrary/lcd.c\000"
 5120      6974686F 
 5120      6E4C6962 
 5120      72617279 
 5120      2F6C6364 
 5121              	.LASF54:
 5122 0453 6D5F6E65 		.ascii	"m_next\000"
 5122      787400
 5123              	.LASF23:
 5124 045a 73797374 		.ascii	"systime_t\000"
 5124      696D655F 
 5124      7400
 5125              	.LASF42:
 5126 0464 705F7265 		.ascii	"p_realprio\000"
ARM GAS  /var/folders/ng/s8655sgx1ys_4lf9jzm2w6n00000gn/T//ccoB4Kch.s 			page 95


 5126      616C7072 
 5126      696F00
 5127              	.LASF31:
 5128 046f 705F6E61 		.ascii	"p_name\000"
 5128      6D6500
 5129              	.LASF79:
 5130 0476 64617461 		.ascii	"data\000"
 5130      00
 5131              	.LASF36:
 5132 047b 705F7469 		.ascii	"p_time\000"
 5132      6D6500
 5133              	.LASF112:
 5134 0482 5F736372 		.ascii	"_scrollBuf\000"
 5134      6F6C6C42 
 5134      756600
 5135              	.LASF48:
 5136 048d 696E7463 		.ascii	"intctx\000"
 5136      747800
 5137              	.LASF38:
 5138 0494 705F6D73 		.ascii	"p_msgqueue\000"
 5138      67717565 
 5138      756500
 5139              	.LASF116:
 5140 049f 63684D74 		.ascii	"chMtxInit\000"
 5140      78496E69 
 5140      7400
 5141              	.LASF114:
 5142 04a9 63685468 		.ascii	"chThdSleep\000"
 5142      64536C65 
 5142      657000
 5143              	.LASF111:
 5144 04b4 5F736372 		.ascii	"_scrollStart\000"
 5144      6F6C6C53 
 5144      74617274 
 5144      00
 5145              	.LASF34:
 5146 04c1 705F7265 		.ascii	"p_refs\000"
 5146      667300
 5147              	.LASF106:
 5148 04c8 5F736372 		.ascii	"_scrollCol\000"
 5148      6F6C6C43 
 5148      6F6C00
 5149              	.LASF39:
 5150 04d3 705F6D73 		.ascii	"p_msg\000"
 5150      6700
 5151              	.LASF3:
 5152 04d9 75696E74 		.ascii	"uint8_t\000"
 5152      385F7400 
 5153              	.LASF113:
 5154 04e1 68616C50 		.ascii	"halPolledDelay\000"
 5154      6F6C6C65 
 5154      6444656C 
 5154      617900
 5155              	.LASF86:
 5156 04f0 6C63645F 		.ascii	"lcd_off\000"
 5156      6F666600 
 5157              	.LASF89:
ARM GAS  /var/folders/ng/s8655sgx1ys_4lf9jzm2w6n00000gn/T//ccoB4Kch.s 			page 96


 5158 04f8 74696D65 		.ascii	"times\000"
 5158      7300
 5159              	.LASF58:
 5160 04fe 65776D61 		.ascii	"ewmask\000"
 5160      736B00
 5161              	.LASF63:
 5162 0505 72656164 		.ascii	"read\000"
 5162      00
 5163              	.LASF110:
 5164 050a 5F736372 		.ascii	"_scrollStatus\000"
 5164      6F6C6C53 
 5164      74617475 
 5164      7300
 5165              	.LASF53:
 5166 0518 6D5F6F77 		.ascii	"m_owner\000"
 5166      6E657200 
 5167              	.LASF28:
 5168 0520 705F6374 		.ascii	"p_ctx\000"
 5168      7800
 5169              	.LASF37:
 5170 0526 705F7761 		.ascii	"p_waiting\000"
 5170      6974696E 
 5170      6700
 5171              		.ident	"GCC: (GNU Tools for ARM Embedded Processors) 4.7.4 20130913 (release) [ARM/embedded-4_7-br
ARM GAS  /var/folders/ng/s8655sgx1ys_4lf9jzm2w6n00000gn/T//ccoB4Kch.s 			page 97


DEFINED SYMBOLS
                            *ABS*:0000000000000000 lcd.c
/var/folders/ng/s8655sgx1ys_4lf9jzm2w6n00000gn/T//ccoB4Kch.s:20     .text._write_byte:0000000000000000 $t
/var/folders/ng/s8655sgx1ys_4lf9jzm2w6n00000gn/T//ccoB4Kch.s:26     .text._write_byte:0000000000000000 _write_byte
/var/folders/ng/s8655sgx1ys_4lf9jzm2w6n00000gn/T//ccoB4Kch.s:275    .text._write_data:0000000000000000 $t
/var/folders/ng/s8655sgx1ys_4lf9jzm2w6n00000gn/T//ccoB4Kch.s:281    .text._write_data:0000000000000000 _write_data
/var/folders/ng/s8655sgx1ys_4lf9jzm2w6n00000gn/T//ccoB4Kch.s:312    .text._write_control:0000000000000000 $t
/var/folders/ng/s8655sgx1ys_4lf9jzm2w6n00000gn/T//ccoB4Kch.s:318    .text._write_control:0000000000000000 _write_control
/var/folders/ng/s8655sgx1ys_4lf9jzm2w6n00000gn/T//ccoB4Kch.s:349    .text.lcd_clear:0000000000000000 $t
/var/folders/ng/s8655sgx1ys_4lf9jzm2w6n00000gn/T//ccoB4Kch.s:355    .text.lcd_clear:0000000000000000 lcd_clear
/var/folders/ng/s8655sgx1ys_4lf9jzm2w6n00000gn/T//ccoB4Kch.s:382    .text.lcd_on:0000000000000000 $t
/var/folders/ng/s8655sgx1ys_4lf9jzm2w6n00000gn/T//ccoB4Kch.s:388    .text.lcd_on:0000000000000000 lcd_on
/var/folders/ng/s8655sgx1ys_4lf9jzm2w6n00000gn/T//ccoB4Kch.s:405    .text.lcd_off:0000000000000000 $t
/var/folders/ng/s8655sgx1ys_4lf9jzm2w6n00000gn/T//ccoB4Kch.s:411    .text.lcd_off:0000000000000000 lcd_off
/var/folders/ng/s8655sgx1ys_4lf9jzm2w6n00000gn/T//ccoB4Kch.s:428    .text._lcd_init:0000000000000000 $t
/var/folders/ng/s8655sgx1ys_4lf9jzm2w6n00000gn/T//ccoB4Kch.s:434    .text._lcd_init:0000000000000000 _lcd_init
/var/folders/ng/s8655sgx1ys_4lf9jzm2w6n00000gn/T//ccoB4Kch.s:1239   .bss.LCD:0000000000000000 .LANCHOR0
/var/folders/ng/s8655sgx1ys_4lf9jzm2w6n00000gn/T//ccoB4Kch.s:1222   .data._vmt:0000000000000000 .LANCHOR1
/var/folders/ng/s8655sgx1ys_4lf9jzm2w6n00000gn/T//ccoB4Kch.s:508    .text.lcd_cursor:0000000000000000 $t
/var/folders/ng/s8655sgx1ys_4lf9jzm2w6n00000gn/T//ccoB4Kch.s:514    .text.lcd_cursor:0000000000000000 lcd_cursor
/var/folders/ng/s8655sgx1ys_4lf9jzm2w6n00000gn/T//ccoB4Kch.s:555    .text.lcd_printChar:0000000000000000 $t
/var/folders/ng/s8655sgx1ys_4lf9jzm2w6n00000gn/T//ccoB4Kch.s:561    .text.lcd_printChar:0000000000000000 lcd_printChar
/var/folders/ng/s8655sgx1ys_4lf9jzm2w6n00000gn/T//ccoB4Kch.s:612    .text.scrollingThread:0000000000000000 $t
/var/folders/ng/s8655sgx1ys_4lf9jzm2w6n00000gn/T//ccoB4Kch.s:617    .text.scrollingThread:0000000000000000 scrollingThread
/var/folders/ng/s8655sgx1ys_4lf9jzm2w6n00000gn/T//ccoB4Kch.s:1194   .data._scrollStart:0000000000000000 .LANCHOR3
/var/folders/ng/s8655sgx1ys_4lf9jzm2w6n00000gn/T//ccoB4Kch.s:1187   .bss._scrollCol:0000000000000000 .LANCHOR5
/var/folders/ng/s8655sgx1ys_4lf9jzm2w6n00000gn/T//ccoB4Kch.s:1232   .bss._scrollRow:0000000000000000 .LANCHOR6
/var/folders/ng/s8655sgx1ys_4lf9jzm2w6n00000gn/T//ccoB4Kch.s:802    .text.scrollingThread:00000000000000f8 $d
/var/folders/ng/s8655sgx1ys_4lf9jzm2w6n00000gn/T//ccoB4Kch.s:813    .text._put:0000000000000000 $t
/var/folders/ng/s8655sgx1ys_4lf9jzm2w6n00000gn/T//ccoB4Kch.s:818    .text._put:0000000000000000 _put
/var/folders/ng/s8655sgx1ys_4lf9jzm2w6n00000gn/T//ccoB4Kch.s:844    .text.scroll_init:0000000000000000 $t
/var/folders/ng/s8655sgx1ys_4lf9jzm2w6n00000gn/T//ccoB4Kch.s:850    .text.scroll_init:0000000000000000 scroll_init
/var/folders/ng/s8655sgx1ys_4lf9jzm2w6n00000gn/T//ccoB4Kch.s:1208   .bss._scrollMtx:0000000000000000 .LANCHOR4
/var/folders/ng/s8655sgx1ys_4lf9jzm2w6n00000gn/T//ccoB4Kch.s:1215   .bss.scrollingThreadWorkingArea:0000000000000000 .LANCHOR11
/var/folders/ng/s8655sgx1ys_4lf9jzm2w6n00000gn/T//ccoB4Kch.s:888    .text.scrollSetCursor:0000000000000000 $t
/var/folders/ng/s8655sgx1ys_4lf9jzm2w6n00000gn/T//ccoB4Kch.s:894    .text.scrollSetCursor:0000000000000000 scrollSetCursor
/var/folders/ng/s8655sgx1ys_4lf9jzm2w6n00000gn/T//ccoB4Kch.s:919    .text.scrollSetDelay:0000000000000000 $t
/var/folders/ng/s8655sgx1ys_4lf9jzm2w6n00000gn/T//ccoB4Kch.s:925    .text.scrollSetDelay:0000000000000000 scrollSetDelay
/var/folders/ng/s8655sgx1ys_4lf9jzm2w6n00000gn/T//ccoB4Kch.s:1166   .data._scrollDelay:0000000000000000 .LANCHOR10
/var/folders/ng/s8655sgx1ys_4lf9jzm2w6n00000gn/T//ccoB4Kch.s:942    .text.scrollEnable:0000000000000000 $t
/var/folders/ng/s8655sgx1ys_4lf9jzm2w6n00000gn/T//ccoB4Kch.s:948    .text.scrollEnable:0000000000000000 scrollEnable
/var/folders/ng/s8655sgx1ys_4lf9jzm2w6n00000gn/T//ccoB4Kch.s:1173   .data._scrollStatus:0000000000000000 .LANCHOR2
/var/folders/ng/s8655sgx1ys_4lf9jzm2w6n00000gn/T//ccoB4Kch.s:965    .text.scrollPause:0000000000000000 $t
/var/folders/ng/s8655sgx1ys_4lf9jzm2w6n00000gn/T//ccoB4Kch.s:971    .text.scrollPause:0000000000000000 scrollPause
/var/folders/ng/s8655sgx1ys_4lf9jzm2w6n00000gn/T//ccoB4Kch.s:988    .text.scrollExit:0000000000000000 $t
/var/folders/ng/s8655sgx1ys_4lf9jzm2w6n00000gn/T//ccoB4Kch.s:994    .text.scrollExit:0000000000000000 scrollExit
/var/folders/ng/s8655sgx1ys_4lf9jzm2w6n00000gn/T//ccoB4Kch.s:1011   .text.scrollMessage:0000000000000000 $t
/var/folders/ng/s8655sgx1ys_4lf9jzm2w6n00000gn/T//ccoB4Kch.s:1017   .text.scrollMessage:0000000000000000 scrollMessage
/var/folders/ng/s8655sgx1ys_4lf9jzm2w6n00000gn/T//ccoB4Kch.s:1138   .text.scrollMessage:0000000000000074 $d
/var/folders/ng/s8655sgx1ys_4lf9jzm2w6n00000gn/T//ccoB4Kch.s:1242   .bss.LCD:0000000000000000 LCD
/var/folders/ng/s8655sgx1ys_4lf9jzm2w6n00000gn/T//ccoB4Kch.s:1183   .bss._scrollBuf:0000000000000000 _scrollBuf
/var/folders/ng/s8655sgx1ys_4lf9jzm2w6n00000gn/T//ccoB4Kch.s:1197   .data._scrollStart:0000000000000000 _scrollStart
/var/folders/ng/s8655sgx1ys_4lf9jzm2w6n00000gn/T//ccoB4Kch.s:1176   .data._scrollStatus:0000000000000000 _scrollStatus
/var/folders/ng/s8655sgx1ys_4lf9jzm2w6n00000gn/T//ccoB4Kch.s:1162   .bss._scrollMsgLen:0000000000000000 _scrollMsgLen
/var/folders/ng/s8655sgx1ys_4lf9jzm2w6n00000gn/T//ccoB4Kch.s:1204   .data._scrollWidth:0000000000000000 _scrollWidth
/var/folders/ng/s8655sgx1ys_4lf9jzm2w6n00000gn/T//ccoB4Kch.s:1169   .data._scrollDelay:0000000000000000 _scrollDelay
/var/folders/ng/s8655sgx1ys_4lf9jzm2w6n00000gn/T//ccoB4Kch.s:1190   .bss._scrollCol:0000000000000000 _scrollCol
ARM GAS  /var/folders/ng/s8655sgx1ys_4lf9jzm2w6n00000gn/T//ccoB4Kch.s 			page 98


/var/folders/ng/s8655sgx1ys_4lf9jzm2w6n00000gn/T//ccoB4Kch.s:1235   .bss._scrollRow:0000000000000000 _scrollRow
/var/folders/ng/s8655sgx1ys_4lf9jzm2w6n00000gn/T//ccoB4Kch.s:1211   .bss._scrollMtx:0000000000000000 _scrollMtx
/var/folders/ng/s8655sgx1ys_4lf9jzm2w6n00000gn/T//ccoB4Kch.s:1158   .bss._scrollMsgLen:0000000000000000 $d
/var/folders/ng/s8655sgx1ys_4lf9jzm2w6n00000gn/T//ccoB4Kch.s:1165   .data._scrollDelay:0000000000000000 $d
/var/folders/ng/s8655sgx1ys_4lf9jzm2w6n00000gn/T//ccoB4Kch.s:1172   .data._scrollStatus:0000000000000000 $d
/var/folders/ng/s8655sgx1ys_4lf9jzm2w6n00000gn/T//ccoB4Kch.s:1179   .bss._scrollBuf:0000000000000000 $d
/var/folders/ng/s8655sgx1ys_4lf9jzm2w6n00000gn/T//ccoB4Kch.s:1186   .bss._scrollCol:0000000000000000 $d
/var/folders/ng/s8655sgx1ys_4lf9jzm2w6n00000gn/T//ccoB4Kch.s:1193   .data._scrollStart:0000000000000000 $d
/var/folders/ng/s8655sgx1ys_4lf9jzm2w6n00000gn/T//ccoB4Kch.s:1200   .data._scrollWidth:0000000000000000 $d
/var/folders/ng/s8655sgx1ys_4lf9jzm2w6n00000gn/T//ccoB4Kch.s:1207   .bss._scrollMtx:0000000000000000 $d
/var/folders/ng/s8655sgx1ys_4lf9jzm2w6n00000gn/T//ccoB4Kch.s:1214   .bss.scrollingThreadWorkingArea:0000000000000000 $d
/var/folders/ng/s8655sgx1ys_4lf9jzm2w6n00000gn/T//ccoB4Kch.s:1218   .bss.scrollingThreadWorkingArea:0000000000000000 scrollingThreadWorkingArea
/var/folders/ng/s8655sgx1ys_4lf9jzm2w6n00000gn/T//ccoB4Kch.s:1221   .data._vmt:0000000000000000 $d
/var/folders/ng/s8655sgx1ys_4lf9jzm2w6n00000gn/T//ccoB4Kch.s:1225   .data._vmt:0000000000000000 _vmt
/var/folders/ng/s8655sgx1ys_4lf9jzm2w6n00000gn/T//ccoB4Kch.s:1231   .bss._scrollRow:0000000000000000 $d
/var/folders/ng/s8655sgx1ys_4lf9jzm2w6n00000gn/T//ccoB4Kch.s:1238   .bss.LCD:0000000000000000 $d
                     .debug_frame:0000000000000010 $d
/var/folders/ng/s8655sgx1ys_4lf9jzm2w6n00000gn/T//ccoB4Kch.s:812    .text.scrollingThread:0000000000000114 $t
/var/folders/ng/s8655sgx1ys_4lf9jzm2w6n00000gn/T//ccoB4Kch.s:1157   .text.scrollMessage:000000000000008c $t

UNDEFINED SYMBOLS
halPolledDelay
chThdSleep
chMtxLock
chMtxUnlock
chMtxInit
chThdCreateStatic
