ARM GAS  /var/folders/ng/s8655sgx1ys_4lf9jzm2w6n00000gn/T//ccoB4Kch.s 			page 1


   1              		.syntax unified
   2              		.cpu cortex-m4
   3              		.eabi_attribute 27, 3
   4              		.fpu fpv4-sp-d16
   5              		.eabi_attribute 20, 1
   6              		.eabi_attribute 21, 1
   7              		.eabi_attribute 23, 3
   8              		.eabi_attribute 24, 1
   9              		.eabi_attribute 25, 1
  10              		.eabi_attribute 26, 1
  11              		.eabi_attribute 30, 2
  12              		.eabi_attribute 34, 1
  13              		.eabi_attribute 18, 4
  14              		.thumb
  15              		.file	"lcd.c"
  16              		.text
  17              	.Ltext0:
  18              		.cfi_sections	.debug_frame
  19              		.section	.text._write_byte,"ax",%progbits
  20              		.align	2
  21              		.p2align 4,,15
  22              		.global	_write_byte
  23              		.thumb
  24              		.thumb_func
  25              		.type	_write_byte, %function
  26              	_write_byte:
  27              	.LFB120:
  28              		.file 1 "../AithonLibrary/lcd.c"
  29              		.loc 1 46 0
  30              		.cfi_startproc
  31              		@ args = 0, pretend = 0, frame = 0
  32              		@ frame_needed = 0, uses_anonymous_args = 0
  33              	.LVL0:
  34              		.loc 1 48 0
  35 0000 4FF44062 		mov	r2, #3072
  36              		.loc 1 53 0
  37 0004 0023     		movs	r3, #0
  38              		.loc 1 48 0
  39 0006 C4F20202 		movt	r2, 16386
  40              		.loc 1 54 0
  41 000a 00F08001 		and	r1, r0, #128
  42              		.loc 1 53 0
  43 000e C4F20203 		movt	r3, 16386
  44              		.loc 1 46 0
  45 0012 70B5     		push	{r4, r5, r6, lr}
  46              	.LCFI0:
  47              		.cfi_def_cfa_offset 16
  48              		.cfi_offset 4, -16
  49              		.cfi_offset 5, -12
  50              		.cfi_offset 6, -8
  51              		.cfi_offset 14, -4
  52              		.loc 1 46 0
  53 0014 0446     		mov	r4, r0
  54              		.loc 1 53 0
  55 0016 4FF48066 		mov	r6, #1024
  56              		.loc 1 48 0
  57 001a 0120     		movs	r0, #1
ARM GAS  /var/folders/ng/s8655sgx1ys_4lf9jzm2w6n00000gn/T//ccoB4Kch.s 			page 2


  58              	.LVL1:
  59              		.loc 1 54 0
  60 001c CDB2     		uxtb	r5, r1
  61              		.loc 1 48 0
  62 001e 1083     		strh	r0, [r2, #24]	@ movhi
  63              	.LVL2:
  64              		.loc 1 53 0
  65 0020 5E83     		strh	r6, [r3, #26]	@ movhi
  66              		.loc 1 55 0
  67 0022 4FF48072 		mov	r2, #256
  68              		.loc 1 54 0
  69 0026 002D     		cmp	r5, #0
  70 0028 40F08D80 		bne	.L2
  71              		.loc 1 57 0
  72 002c 5A83     		strh	r2, [r3, #26]	@ movhi
  73              	.L3:
  74              		.loc 1 58 0
  75 002e 0025     		movs	r5, #0
  76 0030 C4F20205 		movt	r5, 16386
  77 0034 4FF48066 		mov	r6, #1024
  78 0038 2E83     		strh	r6, [r5, #24]	@ movhi
  79              		.loc 1 59 0
  80 003a A820     		movs	r0, #168
  81 003c FFF7FEFF 		bl	halPolledDelay
  82              	.LVL3:
  83              		.loc 1 54 0
  84 0040 04F04003 		and	r3, r4, #64
  85 0044 D9B2     		uxtb	r1, r3
  86              		.loc 1 53 0
  87 0046 6E83     		strh	r6, [r5, #26]	@ movhi
  88              		.loc 1 54 0
  89 0048 0029     		cmp	r1, #0
  90 004a 40F09280 		bne	.L4
  91              		.loc 1 57 0
  92 004e 4FF48070 		mov	r0, #256
  93 0052 6883     		strh	r0, [r5, #26]	@ movhi
  94              	.L5:
  95              		.loc 1 58 0
  96 0054 0025     		movs	r5, #0
  97 0056 C4F20205 		movt	r5, 16386
  98 005a 4FF48066 		mov	r6, #1024
  99 005e 2E83     		strh	r6, [r5, #24]	@ movhi
 100              		.loc 1 59 0
 101 0060 A820     		movs	r0, #168
 102 0062 FFF7FEFF 		bl	halPolledDelay
 103              	.LVL4:
 104              		.loc 1 54 0
 105 0066 04F02003 		and	r3, r4, #32
 106 006a D9B2     		uxtb	r1, r3
 107              		.loc 1 53 0
 108 006c 6E83     		strh	r6, [r5, #26]	@ movhi
 109              		.loc 1 54 0
 110 006e 0029     		cmp	r1, #0
 111 0070 7BD1     		bne	.L6
 112              		.loc 1 57 0
 113 0072 4FF48070 		mov	r0, #256
 114 0076 6883     		strh	r0, [r5, #26]	@ movhi
ARM GAS  /var/folders/ng/s8655sgx1ys_4lf9jzm2w6n00000gn/T//ccoB4Kch.s 			page 3


 115              	.L7:
 116              		.loc 1 58 0
 117 0078 0025     		movs	r5, #0
 118 007a C4F20205 		movt	r5, 16386
 119 007e 4FF48066 		mov	r6, #1024
 120 0082 2E83     		strh	r6, [r5, #24]	@ movhi
 121              		.loc 1 59 0
 122 0084 A820     		movs	r0, #168
 123 0086 FFF7FEFF 		bl	halPolledDelay
 124              	.LVL5:
 125              		.loc 1 54 0
 126 008a 04F01003 		and	r3, r4, #16
 127 008e D9B2     		uxtb	r1, r3
 128              		.loc 1 53 0
 129 0090 6E83     		strh	r6, [r5, #26]	@ movhi
 130              		.loc 1 54 0
 131 0092 0029     		cmp	r1, #0
 132 0094 65D1     		bne	.L8
 133              		.loc 1 57 0
 134 0096 4FF48070 		mov	r0, #256
 135 009a 6883     		strh	r0, [r5, #26]	@ movhi
 136              	.L9:
 137              		.loc 1 58 0
 138 009c 0025     		movs	r5, #0
 139 009e C4F20205 		movt	r5, 16386
 140 00a2 4FF48066 		mov	r6, #1024
 141 00a6 2E83     		strh	r6, [r5, #24]	@ movhi
 142              		.loc 1 59 0
 143 00a8 A820     		movs	r0, #168
 144 00aa FFF7FEFF 		bl	halPolledDelay
 145              	.LVL6:
 146              		.loc 1 54 0
 147 00ae 04F00803 		and	r3, r4, #8
 148 00b2 D9B2     		uxtb	r1, r3
 149              		.loc 1 53 0
 150 00b4 6E83     		strh	r6, [r5, #26]	@ movhi
 151              		.loc 1 54 0
 152 00b6 0029     		cmp	r1, #0
 153 00b8 4FD1     		bne	.L10
 154              		.loc 1 57 0
 155 00ba 4FF48070 		mov	r0, #256
 156 00be 6883     		strh	r0, [r5, #26]	@ movhi
 157              	.L11:
 158              		.loc 1 58 0
 159 00c0 0025     		movs	r5, #0
 160 00c2 C4F20205 		movt	r5, 16386
 161 00c6 4FF48066 		mov	r6, #1024
 162 00ca 2E83     		strh	r6, [r5, #24]	@ movhi
 163              		.loc 1 59 0
 164 00cc A820     		movs	r0, #168
 165 00ce FFF7FEFF 		bl	halPolledDelay
 166              	.LVL7:
 167              		.loc 1 54 0
 168 00d2 04F00403 		and	r3, r4, #4
 169 00d6 D9B2     		uxtb	r1, r3
 170              		.loc 1 53 0
 171 00d8 6E83     		strh	r6, [r5, #26]	@ movhi
ARM GAS  /var/folders/ng/s8655sgx1ys_4lf9jzm2w6n00000gn/T//ccoB4Kch.s 			page 4


 172              		.loc 1 54 0
 173 00da 0029     		cmp	r1, #0
 174 00dc 39D1     		bne	.L12
 175              		.loc 1 57 0
 176 00de 4FF48070 		mov	r0, #256
 177 00e2 6883     		strh	r0, [r5, #26]	@ movhi
 178              	.L13:
 179              		.loc 1 58 0
 180 00e4 0025     		movs	r5, #0
 181 00e6 C4F20205 		movt	r5, 16386
 182 00ea 4FF48066 		mov	r6, #1024
 183 00ee 2E83     		strh	r6, [r5, #24]	@ movhi
 184              		.loc 1 59 0
 185 00f0 A820     		movs	r0, #168
 186 00f2 FFF7FEFF 		bl	halPolledDelay
 187              	.LVL8:
 188              		.loc 1 54 0
 189 00f6 04F00203 		and	r3, r4, #2
 190 00fa D9B2     		uxtb	r1, r3
 191              		.loc 1 53 0
 192 00fc 6E83     		strh	r6, [r5, #26]	@ movhi
 193              		.loc 1 54 0
 194 00fe 21BB     		cbnz	r1, .L14
 195              		.loc 1 57 0
 196 0100 4FF48070 		mov	r0, #256
 197 0104 6883     		strh	r0, [r5, #26]	@ movhi
 198              	.L15:
 199              		.loc 1 58 0
 200 0106 0025     		movs	r5, #0
 201 0108 C4F20205 		movt	r5, 16386
 202 010c 4FF48066 		mov	r6, #1024
 203              		.loc 1 59 0
 204 0110 A820     		movs	r0, #168
 205              		.loc 1 58 0
 206 0112 2E83     		strh	r6, [r5, #24]	@ movhi
 207              		.loc 1 59 0
 208 0114 FFF7FEFF 		bl	halPolledDelay
 209              	.LVL9:
 210              		.loc 1 54 0
 211 0118 E207     		lsls	r2, r4, #31
 212              		.loc 1 55 0
 213 011a 4FF48073 		mov	r3, #256
 214              		.loc 1 53 0
 215 011e 6E83     		strh	r6, [r5, #26]	@ movhi
 216              		.loc 1 55 0
 217 0120 4CBF     		ite	mi
 218 0122 2B83     		strhmi	r3, [r5, #24]	@ movhi
 219              		.loc 1 57 0
 220 0124 6B83     		strhpl	r3, [r5, #26]	@ movhi
 221              		.loc 1 58 0
 222 0126 0021     		movs	r1, #0
 223 0128 C4F20201 		movt	r1, 16386
 224 012c 4FF48060 		mov	r0, #1024
 225 0130 0883     		strh	r0, [r1, #24]	@ movhi
 226              		.loc 1 59 0
 227 0132 A820     		movs	r0, #168
 228 0134 FFF7FEFF 		bl	halPolledDelay
ARM GAS  /var/folders/ng/s8655sgx1ys_4lf9jzm2w6n00000gn/T//ccoB4Kch.s 			page 5


 229              	.LVL10:
 230              		.loc 1 62 0
 231 0138 4FF44063 		mov	r3, #3072
 232 013c C4F20203 		movt	r3, 16386
 233 0140 0122     		movs	r2, #1
 234 0142 5A83     		strh	r2, [r3, #26]	@ movhi
 235 0144 70BD     		pop	{r4, r5, r6, pc}
 236              	.LVL11:
 237              	.L2:
 238              		.loc 1 55 0
 239 0146 1A83     		strh	r2, [r3, #24]	@ movhi
 240 0148 71E7     		b	.L3
 241              	.LVL12:
 242              	.L14:
 243 014a 4FF48072 		mov	r2, #256
 244 014e 2A83     		strh	r2, [r5, #24]	@ movhi
 245 0150 D9E7     		b	.L15
 246              	.LVL13:
 247              	.L12:
 248 0152 4FF48072 		mov	r2, #256
 249 0156 2A83     		strh	r2, [r5, #24]	@ movhi
 250 0158 C4E7     		b	.L13
 251              	.LVL14:
 252              	.L10:
 253 015a 4FF48072 		mov	r2, #256
 254 015e 2A83     		strh	r2, [r5, #24]	@ movhi
 255 0160 AEE7     		b	.L11
 256              	.LVL15:
 257              	.L8:
 258 0162 4FF48072 		mov	r2, #256
 259 0166 2A83     		strh	r2, [r5, #24]	@ movhi
 260 0168 98E7     		b	.L9
 261              	.LVL16:
 262              	.L6:
 263 016a 4FF48072 		mov	r2, #256
 264 016e 2A83     		strh	r2, [r5, #24]	@ movhi
 265 0170 82E7     		b	.L7
 266              	.LVL17:
 267              	.L4:
 268 0172 4FF48072 		mov	r2, #256
 269 0176 2A83     		strh	r2, [r5, #24]	@ movhi
 270 0178 6CE7     		b	.L5
 271              		.cfi_endproc
 272              	.LFE120:
 273              		.size	_write_byte, .-_write_byte
 274 017a 00BFAFF3 		.section	.text._write_data,"ax",%progbits
 274      0080
 275              		.align	2
 276              		.p2align 4,,15
 277              		.global	_write_data
 278              		.thumb
 279              		.thumb_func
 280              		.type	_write_data, %function
 281              	_write_data:
 282              	.LFB121:
 283              		.loc 1 66 0
 284              		.cfi_startproc
ARM GAS  /var/folders/ng/s8655sgx1ys_4lf9jzm2w6n00000gn/T//ccoB4Kch.s 			page 6


 285              		@ args = 0, pretend = 0, frame = 0
 286              		@ frame_needed = 0, uses_anonymous_args = 0
 287              	.LVL18:
 288 0000 08B5     		push	{r3, lr}
 289              	.LCFI1:
 290              		.cfi_def_cfa_offset 8
 291              		.cfi_offset 3, -8
 292              		.cfi_offset 14, -4
 293              		.loc 1 68 0
 294 0002 4FF44063 		mov	r3, #3072
 295 0006 C4F20203 		movt	r3, 16386
 296 000a 0222     		movs	r2, #2
 297 000c 1A83     		strh	r2, [r3, #24]	@ movhi
 298              		.loc 1 69 0
 299 000e FFF7FEFF 		bl	_write_byte
 300              	.LVL19:
 301              		.loc 1 70 0
 302 0012 42F2D000 		movw	r0, #8400
 303              		.loc 1 71 0
 304 0016 BDE80840 		pop	{r3, lr}
 305              		.loc 1 70 0
 306 001a FFF7FEBF 		b	halPolledDelay
 307              	.LVL20:
 308              		.cfi_endproc
 309              	.LFE121:
 310              		.size	_write_data, .-_write_data
 311 001e 00BF     		.section	.text._write_control,"ax",%progbits
 312              		.align	2
 313              		.p2align 4,,15
 314              		.global	_write_control
 315              		.thumb
 316              		.thumb_func
 317              		.type	_write_control, %function
 318              	_write_control:
 319              	.LFB122:
 320              		.loc 1 75 0
 321              		.cfi_startproc
 322              		@ args = 0, pretend = 0, frame = 0
 323              		@ frame_needed = 0, uses_anonymous_args = 0
 324              	.LVL21:
 325 0000 08B5     		push	{r3, lr}
 326              	.LCFI2:
 327              		.cfi_def_cfa_offset 8
 328              		.cfi_offset 3, -8
 329              		.cfi_offset 14, -4
 330              		.loc 1 77 0
 331 0002 4FF44063 		mov	r3, #3072
 332 0006 C4F20203 		movt	r3, 16386
 333 000a 0222     		movs	r2, #2
 334 000c 5A83     		strh	r2, [r3, #26]	@ movhi
 335              		.loc 1 78 0
 336 000e FFF7FEFF 		bl	_write_byte
 337              	.LVL22:
 338              		.loc 1 80 0
 339 0012 44F2A010 		movw	r0, #16800
 340              		.loc 1 81 0
 341 0016 BDE80840 		pop	{r3, lr}
ARM GAS  /var/folders/ng/s8655sgx1ys_4lf9jzm2w6n00000gn/T//ccoB4Kch.s 			page 7


 342              		.loc 1 80 0
 343 001a FFF7FEBF 		b	halPolledDelay
 344              	.LVL23:
 345              		.cfi_endproc
 346              	.LFE122:
 347              		.size	_write_control, .-_write_control
 348 001e 00BF     		.section	.text.lcd_clear,"ax",%progbits
 349              		.align	2
 350              		.p2align 4,,15
 351              		.global	lcd_clear
 352              		.thumb
 353              		.thumb_func
 354              		.type	lcd_clear, %function
 355              	lcd_clear:
 356              	.LFB124:
 357              		.loc 1 120 0
 358              		.cfi_startproc
 359              		@ args = 0, pretend = 0, frame = 0
 360              		@ frame_needed = 0, uses_anonymous_args = 0
 361 0000 08B5     		push	{r3, lr}
 362              	.LCFI3:
 363              		.cfi_def_cfa_offset 8
 364              		.cfi_offset 3, -8
 365              		.cfi_offset 14, -4
 366              		.loc 1 121 0
 367 0002 0120     		movs	r0, #1
 368 0004 FFF7FEFF 		bl	_write_control
 369              	.LVL24:
 370              		.loc 1 122 0
 371 0008 47F2A050 		movw	r0, #30112
 372 000c C0F20800 		movt	r0, 8
 373              		.loc 1 123 0
 374 0010 BDE80840 		pop	{r3, lr}
 375              		.loc 1 122 0
 376 0014 FFF7FEBF 		b	halPolledDelay
 377              	.LVL25:
 378              		.cfi_endproc
 379              	.LFE124:
 380              		.size	lcd_clear, .-lcd_clear
 381 0018 AFF30080 		.section	.text.lcd_on,"ax",%progbits
 381      AFF30080 
 382              		.align	2
 383              		.p2align 4,,15
 384              		.global	lcd_on
 385              		.thumb
 386              		.thumb_func
 387              		.type	lcd_on, %function
 388              	lcd_on:
 389              	.LFB125:
 390              		.loc 1 127 0
 391              		.cfi_startproc
 392              		@ args = 0, pretend = 0, frame = 0
 393              		@ frame_needed = 0, uses_anonymous_args = 0
 394              		@ link register save eliminated.
 395              		.loc 1 128 0
 396 0000 0C20     		movs	r0, #12
 397              		.loc 1 129 0
ARM GAS  /var/folders/ng/s8655sgx1ys_4lf9jzm2w6n00000gn/T//ccoB4Kch.s 			page 8


 398              		.loc 1 128 0
 399 0002 FFF7FEBF 		b	_write_control
 400              	.LVL26:
 401              		.cfi_endproc
 402              	.LFE125:
 403              		.size	lcd_on, .-lcd_on
 404 0006 00BFAFF3 		.section	.text.lcd_off,"ax",%progbits
 404      0080AFF3 
 404      0080
 405              		.align	2
 406              		.p2align 4,,15
 407              		.global	lcd_off
 408              		.thumb
 409              		.thumb_func
 410              		.type	lcd_off, %function
 411              	lcd_off:
 412              	.LFB126:
 413              		.loc 1 133 0
 414              		.cfi_startproc
 415              		@ args = 0, pretend = 0, frame = 0
 416              		@ frame_needed = 0, uses_anonymous_args = 0
 417              		@ link register save eliminated.
 418              		.loc 1 134 0
 419 0000 0820     		movs	r0, #8
 420              		.loc 1 135 0
 421              		.loc 1 134 0
 422 0002 FFF7FEBF 		b	_write_control
 423              	.LVL27:
 424              		.cfi_endproc
 425              	.LFE126:
 426              		.size	lcd_off, .-lcd_off
 427 0006 00BFAFF3 		.section	.text._lcd_init,"ax",%progbits
 427      0080AFF3 
 427      0080
 428              		.align	2
 429              		.p2align 4,,15
 430              		.global	_lcd_init
 431              		.thumb
 432              		.thumb_func
 433              		.type	_lcd_init, %function
 434              	_lcd_init:
 435              	.LFB123:
 436              		.loc 1 85 0
 437              		.cfi_startproc
 438              		@ args = 0, pretend = 0, frame = 0
 439              		@ frame_needed = 0, uses_anonymous_args = 0
 440 0000 08B5     		push	{r3, lr}
 441              	.LCFI4:
 442              		.cfi_def_cfa_offset 8
 443              		.cfi_offset 3, -8
 444              		.cfi_offset 14, -4
 445              		.loc 1 86 0
 446 0002 40F20003 		movw	r3, #:lower16:.LANCHOR0
 447 0006 C0F20003 		movt	r3, #:upper16:.LANCHOR0
 448              		.loc 1 89 0
 449 000a 4FF44062 		mov	r2, #3072
 450              		.loc 1 86 0
ARM GAS  /var/folders/ng/s8655sgx1ys_4lf9jzm2w6n00000gn/T//ccoB4Kch.s 			page 9


 451 000e 40F20001 		movw	r1, #:lower16:.LANCHOR1
 452              		.loc 1 89 0
 453 0012 C4F20202 		movt	r2, 16386
 454              		.loc 1 86 0
 455 0016 C0F20001 		movt	r1, #:upper16:.LANCHOR1
 456 001a 1960     		str	r1, [r3, #0]
 457              		.loc 1 89 0
 458 001c 0123     		movs	r3, #1
 459 001e 5383     		strh	r3, [r2, #26]	@ movhi
 460              		.loc 1 92 0
 461 0020 0F20     		movs	r0, #15
 462 0022 FFF7FEFF 		bl	chThdSleep
 463              	.LVL28:
 464              		.loc 1 95 0
 465 0026 3820     		movs	r0, #56
 466 0028 FFF7FEFF 		bl	_write_control
 467              	.LVL29:
 468              		.loc 1 96 0
 469 002c 48F6A070 		movw	r0, #36768
 470 0030 C0F20C00 		movt	r0, 12
 471 0034 FFF7FEFF 		bl	halPolledDelay
 472              	.LVL30:
 473              		.loc 1 97 0
 474 0038 3820     		movs	r0, #56
 475 003a FFF7FEFF 		bl	_write_control
 476              	.LVL31:
 477              		.loc 1 98 0
 478 003e 42F2D000 		movw	r0, #8400
 479 0042 FFF7FEFF 		bl	halPolledDelay
 480              	.LVL32:
 481              		.loc 1 99 0
 482 0046 3820     		movs	r0, #56
 483 0048 FFF7FEFF 		bl	_write_control
 484              	.LVL33:
 485              		.loc 1 102 0
 486 004c 3820     		movs	r0, #56
 487 004e FFF7FEFF 		bl	_write_control
 488              	.LVL34:
 489              		.loc 1 105 0
 490 0052 FFF7FEFF 		bl	lcd_off
 491              	.LVL35:
 492              		.loc 1 108 0
 493 0056 FFF7FEFF 		bl	lcd_clear
 494              	.LVL36:
 495              		.loc 1 111 0
 496 005a 0620     		movs	r0, #6
 497 005c FFF7FEFF 		bl	_write_control
 498              	.LVL37:
 499              		.loc 1 115 0
 500 0060 BDE80840 		pop	{r3, lr}
 501              		.loc 1 114 0
 502 0064 FFF7FEBF 		b	lcd_on
 503              	.LVL38:
 504              		.cfi_endproc
 505              	.LFE123:
 506              		.size	_lcd_init, .-_lcd_init
 507 0068 AFF30080 		.section	.text.lcd_cursor,"ax",%progbits
ARM GAS  /var/folders/ng/s8655sgx1ys_4lf9jzm2w6n00000gn/T//ccoB4Kch.s 			page 10


 507      AFF30080 
 508              		.align	2
 509              		.p2align 4,,15
 510              		.global	lcd_cursor
 511              		.thumb
 512              		.thumb_func
 513              		.type	lcd_cursor, %function
 514              	lcd_cursor:
 515              	.LFB127:
 516              		.loc 1 139 0
 517              		.cfi_startproc
 518              		@ args = 0, pretend = 0, frame = 0
 519              		@ frame_needed = 0, uses_anonymous_args = 0
 520              		@ link register save eliminated.
 521              	.LVL39:
 522              		.loc 1 140 0
 523 0000 0F28     		cmp	r0, #15
 524 0002 01D8     		bhi	.L25
 525              		.loc 1 140 0 is_stmt 0 discriminator 1
 526 0004 0129     		cmp	r1, #1
 527 0006 00D9     		bls	.L27
 528              	.L25:
 529 0008 7047     		bx	lr
 530              	.L27:
 531              	.LVL40:
 532              	.LBB6:
 533              	.LBB7:
 534              		.loc 1 145 0 is_stmt 1
 535 000a 0231     		adds	r1, r1, #2
 536              	.LVL41:
 537 000c 00EB8110 		add	r0, r0, r1, lsl #6
 538              	.LVL42:
 539              		.loc 1 146 0
 540 0010 C0B2     		uxtb	r0, r0
 541              	.LBE7:
 542              	.LBE6:
 543              		.loc 1 147 0
 544              	.LBB9:
 545              	.LBB8:
 546              		.loc 1 146 0
 547 0012 FFF7FEBF 		b	_write_control
 548              	.LVL43:
 549              	.LBE8:
 550              	.LBE9:
 551              		.cfi_endproc
 552              	.LFE127:
 553              		.size	lcd_cursor, .-lcd_cursor
 554 0016 00BFAFF3 		.section	.text.lcd_printChar,"ax",%progbits
 554      0080AFF3 
 554      0080
 555              		.align	2
 556              		.p2align 4,,15
 557              		.global	lcd_printChar
 558              		.thumb
 559              		.thumb_func
 560              		.type	lcd_printChar, %function
 561              	lcd_printChar:
ARM GAS  /var/folders/ng/s8655sgx1ys_4lf9jzm2w6n00000gn/T//ccoB4Kch.s 			page 11


 562              	.LFB128:
 563              		.loc 1 151 0
 564              		.cfi_startproc
 565              		@ args = 0, pretend = 0, frame = 0
 566              		@ frame_needed = 0, uses_anonymous_args = 0
 567              		@ link register save eliminated.
 568              	.LVL44:
 569              		.loc 1 152 0
 570 0000 0A28     		cmp	r0, #10
 571 0002 01D0     		beq	.L30
 572              		.loc 1 158 0
 573              		.loc 1 157 0
 574 0004 FFF7FEBF 		b	_write_data
 575              	.LVL45:
 576              	.L30:
 577              	.LBB16:
 578              	.LBB17:
 579              	.LBB18:
 580              	.LBB19:
 581              	.LBB20:
 582              	.LBB21:
 583              		.loc 1 146 0
 584 0008 C020     		movs	r0, #192
 585              	.LVL46:
 586              	.LBE21:
 587              	.LBE20:
 588              	.LBE19:
 589              	.LBE18:
 590              	.LBE17:
 591              	.LBE16:
 592              		.loc 1 158 0
 593              	.LBB27:
 594              	.LBB26:
 595              	.LBB25:
 596              	.LBB24:
 597              	.LBB23:
 598              	.LBB22:
 599              		.loc 1 146 0
 600 000a FFF7FEBF 		b	_write_control
 601              	.LVL47:
 602              	.LBE22:
 603              	.LBE23:
 604              	.LBE24:
 605              	.LBE25:
 606              	.LBE26:
 607              	.LBE27:
 608              		.cfi_endproc
 609              	.LFE128:
 610              		.size	lcd_printChar, .-lcd_printChar
 611 000e 00BF     		.section	.text.scrollingThread,"ax",%progbits
 612              		.align	2
 613              		.p2align 4,,15
 614              		.thumb
 615              		.thumb_func
 616              		.type	scrollingThread, %function
 617              	scrollingThread:
 618              	.LFB129:
ARM GAS  /var/folders/ng/s8655sgx1ys_4lf9jzm2w6n00000gn/T//ccoB4Kch.s 			page 12


 619              		.loc 1 162 0
 620              		.cfi_startproc
 621              		@ args = 0, pretend = 0, frame = 8
 622              		@ frame_needed = 0, uses_anonymous_args = 0
 623              	.LVL48:
 624 0000 2DE9F04F 		push	{r4, r5, r6, r7, r8, r9, sl, fp, lr}
 625              	.LCFI5:
 626              		.cfi_def_cfa_offset 36
 627              		.cfi_offset 4, -36
 628              		.cfi_offset 5, -32
 629              		.cfi_offset 6, -28
 630              		.cfi_offset 7, -24
 631              		.cfi_offset 8, -20
 632              		.cfi_offset 9, -16
 633              		.cfi_offset 10, -12
 634              		.cfi_offset 11, -8
 635              		.cfi_offset 14, -4
 636              		.loc 1 171 0
 637 0004 DFF80481 		ldr	r8, .L51+20
 638 0008 D8F80030 		ldr	r3, [r8, #0]
 639              		.loc 1 162 0
 640 000c 83B0     		sub	sp, sp, #12
 641              	.LCFI6:
 642              		.cfi_def_cfa_offset 48
 643              		.loc 1 171 0
 644 000e 002B     		cmp	r3, #0
 645 0010 60D0     		beq	.L49
 646 0012 0020     		movs	r0, #0
 647              	.LVL49:
 648 0014 0322     		movs	r2, #3
 649 0016 384F     		ldr	r7, .L51
 650 0018 DFF8F490 		ldr	r9, .L51+24
 651 001c 374C     		ldr	r4, .L51+4
 652              		.loc 1 193 0
 653 001e 384E     		ldr	r6, .L51+8
 654              		.loc 1 171 0
 655 0020 8DE80500 		stmia	sp, {r0, r2}
 656 0024 16E0     		b	.L32
 657              	.LVL50:
 658              	.L33:
 659              		.loc 1 181 0
 660 0026 012B     		cmp	r3, #1
 661 0028 23D0     		beq	.L50
 662              	.LVL51:
 663              	.L34:
 664              		.loc 1 214 0
 665 002a D9F80010 		ldr	r1, [r9, #0]
 666 002e 4FF47A70 		mov	r0, #1000
 667 0032 00FB01F2 		mul	r2, r0, r1
 668 0036 44F6D353 		movw	r3, #19923
 669 003a 511E     		subs	r1, r2, #1
 670 003c C1F26203 		movt	r3, 4194
 671 0040 A3FB0110 		umull	r1, r0, r3, r1
 672 0044 8209     		lsrs	r2, r0, #6
 673 0046 501C     		adds	r0, r2, #1
 674 0048 FFF7FEFF 		bl	chThdSleep
 675              	.LVL52:
ARM GAS  /var/folders/ng/s8655sgx1ys_4lf9jzm2w6n00000gn/T//ccoB4Kch.s 			page 13


 676              		.loc 1 171 0
 677 004c D8F80030 		ldr	r3, [r8, #0]
 678 0050 002B     		cmp	r3, #0
 679 0052 3FD0     		beq	.L49
 680              	.LVL53:
 681              	.L32:
 682              		.loc 1 174 0
 683 0054 3A68     		ldr	r2, [r7, #0]
 684 0056 012A     		cmp	r2, #1
 685 0058 E5D1     		bne	.L33
 686              		.loc 1 176 0
 687 005a 40F20001 		movw	r1, #:lower16:.LANCHOR3
 688 005e C0F20001 		movt	r1, #:upper16:.LANCHOR3
 689 0062 0220     		movs	r0, #2
 690              		.loc 1 177 0
 691 0064 0322     		movs	r2, #3
 692              		.loc 1 176 0
 693 0066 0860     		str	r0, [r1, #0]
 694              	.LVL54:
 695              		.loc 1 177 0
 696 0068 0021     		movs	r1, #0
 697              		.loc 1 181 0
 698 006a 012B     		cmp	r3, #1
 699              		.loc 1 177 0
 700 006c 8DE80600 		stmia	sp, {r1, r2}
 701              	.LVL55:
 702              		.loc 1 181 0
 703 0070 DBD1     		bne	.L34
 704              	.LVL56:
 705              	.L50:
 706              		.loc 1 183 0
 707 0072 2448     		ldr	r0, .L51+12
 708              		.loc 1 197 0
 709 0074 244D     		ldr	r5, .L51+16
 710              		.loc 1 183 0
 711 0076 FFF7FEFF 		bl	chMtxLock
 712              	.LVL57:
 713              		.loc 1 185 0
 714 007a 40F20003 		movw	r3, #:lower16:.LANCHOR5
 715 007e 40F20002 		movw	r2, #:lower16:.LANCHOR6
 716 0082 C0F20003 		movt	r3, #:upper16:.LANCHOR5
 717 0086 C0F20002 		movt	r2, #:upper16:.LANCHOR6
 718 008a 1878     		ldrb	r0, [r3, #0]	@ zero_extendqisi2
 719 008c 1178     		ldrb	r1, [r2, #0]	@ zero_extendqisi2
 720 008e FFF7FEFF 		bl	lcd_cursor
 721              	.LVL58:
 722              		.loc 1 188 0
 723 0092 4FF0000B 		mov	fp, #0
 724              		.loc 1 187 0
 725 0096 DDF800A0 		ldr	sl, [sp, #0]
 726              		.loc 1 191 0
 727 009a 0CE0     		b	.L48
 728              	.LVL59:
 729              	.L37:
 730              		.loc 1 193 0
 731 009c 16F80A00 		ldrb	r0, [r6, sl]	@ zero_extendqisi2
 732 00a0 FFF7FEFF 		bl	lcd_printChar
ARM GAS  /var/folders/ng/s8655sgx1ys_4lf9jzm2w6n00000gn/T//ccoB4Kch.s 			page 14


 733              	.LVL60:
 734              		.loc 1 197 0
 735 00a4 2968     		ldr	r1, [r5, #0]
 736              		.loc 1 194 0
 737 00a6 0AF1010A 		add	sl, sl, #1
 738              	.LVL61:
 739              		.loc 1 197 0
 740 00aa 8A45     		cmp	sl, r1
 741              		.loc 1 198 0
 742 00ac 04BF     		itt	eq
 743 00ae 9AFBFAF1 		sdiveq	r1, sl, sl
 744 00b2 0AFB11AA 		mlseq	sl, sl, r1, sl
 745              	.LVL62:
 746              	.L48:
 747              		.loc 1 191 0 discriminator 1
 748 00b6 2068     		ldr	r0, [r4, #0]
 749 00b8 8345     		cmp	fp, r0
 750              		.loc 1 195 0 discriminator 1
 751 00ba 0BF1010B 		add	fp, fp, #1
 752              	.LVL63:
 753              		.loc 1 191 0 discriminator 1
 754 00be EDDB     		blt	.L37
 755              		.loc 1 201 0
 756 00c0 FFF7FEFF 		bl	chMtxUnlock
 757              	.LVL64:
 758              		.loc 1 203 0
 759 00c4 3968     		ldr	r1, [r7, #0]
 760 00c6 49B1     		cbz	r1, .L38
 761              		.loc 1 203 0 is_stmt 0 discriminator 1
 762 00c8 019B     		ldr	r3, [sp, #4]
 763 00ca 002B     		cmp	r3, #0
 764 00cc 06DD     		ble	.L38
 765              		.loc 1 205 0 is_stmt 1
 766 00ce 5A1E     		subs	r2, r3, #1
 767 00d0 0192     		str	r2, [sp, #4]
 768              	.LVL65:
 769 00d2 AAE7     		b	.L34
 770              	.LVL66:
 771              	.L49:
 772              		.loc 1 218 0
 773 00d4 0020     		movs	r0, #0
 774 00d6 03B0     		add	sp, sp, #12
 775 00d8 BDE8F08F 		pop	{r4, r5, r6, r7, r8, r9, sl, fp, pc}
 776              	.LVL67:
 777              	.L38:
 778              		.loc 1 209 0
 779 00dc 0A4A     		ldr	r2, .L51+16
 780              		.loc 1 208 0
 781 00de 0099     		ldr	r1, [sp, #0]
 782              		.loc 1 209 0
 783 00e0 1068     		ldr	r0, [r2, #0]
 784              		.loc 1 207 0
 785 00e2 0023     		movs	r3, #0
 786              		.loc 1 208 0
 787 00e4 01F1010A 		add	sl, r1, #1
 788              	.LVL68:
 789              		.loc 1 210 0
ARM GAS  /var/folders/ng/s8655sgx1ys_4lf9jzm2w6n00000gn/T//ccoB4Kch.s 			page 15


 790 00e8 8245     		cmp	sl, r0
 791 00ea 08BF     		it	eq
 792 00ec 9A46     		moveq	sl, r3
 793              		.loc 1 207 0
 794 00ee 3B60     		str	r3, [r7, #0]
 795              	.LVL69:
 796              		.loc 1 210 0
 797 00f0 CDF800A0 		str	sl, [sp, #0]
 798 00f4 99E7     		b	.L34
 799              	.L52:
 800 00f6 00BF     		.align	2
 801              	.L51:
 802 00f8 00000000 		.word	.LANCHOR3
 803 00fc 00000000 		.word	.LANCHOR9
 804 0100 00000000 		.word	.LANCHOR7
 805 0104 00000000 		.word	.LANCHOR4
 806 0108 00000000 		.word	.LANCHOR8
 807 010c 00000000 		.word	.LANCHOR2
 808 0110 00000000 		.word	.LANCHOR10
 809              		.cfi_endproc
 810              	.LFE129:
 811              		.size	scrollingThread, .-scrollingThread
 812 0114 AFF30080 		.section	.text._put,"ax",%progbits
 812      AFF30080 
 812      AFF30080 
 813              		.align	2
 814              		.p2align 4,,15
 815              		.thumb
 816              		.thumb_func
 817              		.type	_put, %function
 818              	_put:
 819              	.LFB119:
 820              		.loc 1 36 0
 821              		.cfi_startproc
 822              		@ args = 0, pretend = 0, frame = 0
 823              		@ frame_needed = 0, uses_anonymous_args = 0
 824              	.LVL70:
 825              		.loc 1 38 0
 826 0000 0846     		mov	r0, r1
 827              	.LVL71:
 828              		.loc 1 36 0
 829 0002 08B5     		push	{r3, lr}
 830              	.LCFI7:
 831              		.cfi_def_cfa_offset 8
 832              		.cfi_offset 3, -8
 833              		.cfi_offset 14, -4
 834              		.loc 1 38 0
 835 0004 FFF7FEFF 		bl	lcd_printChar
 836              	.LVL72:
 837              		.loc 1 40 0
 838 0008 0020     		movs	r0, #0
 839 000a 08BD     		pop	{r3, pc}
 840              		.cfi_endproc
 841              	.LFE119:
 842              		.size	_put, .-_put
 843 000c AFF30080 		.section	.text.scroll_init,"ax",%progbits
 844              		.align	2
ARM GAS  /var/folders/ng/s8655sgx1ys_4lf9jzm2w6n00000gn/T//ccoB4Kch.s 			page 16


 845              		.p2align 4,,15
 846              		.global	scroll_init
 847              		.thumb
 848              		.thumb_func
 849              		.type	scroll_init, %function
 850              	scroll_init:
 851              	.LFB130:
 852              		.loc 1 222 0
 853              		.cfi_startproc
 854              		@ args = 0, pretend = 0, frame = 0
 855              		@ frame_needed = 0, uses_anonymous_args = 0
 856 0000 00B5     		push	{lr}
 857              	.LCFI8:
 858              		.cfi_def_cfa_offset 4
 859              		.cfi_offset 14, -4
 860              		.loc 1 223 0
 861 0002 40F20000 		movw	r0, #:lower16:.LANCHOR4
 862              		.loc 1 222 0
 863 0006 83B0     		sub	sp, sp, #12
 864              	.LCFI9:
 865              		.cfi_def_cfa_offset 16
 866              		.loc 1 223 0
 867 0008 C0F20000 		movt	r0, #:upper16:.LANCHOR4
 868 000c FFF7FEFF 		bl	chMtxInit
 869              	.LVL73:
 870              		.loc 1 225 0
 871 0010 0023     		movs	r3, #0
 872 0012 0093     		str	r3, [sp, #0]
 873 0014 40F20000 		movw	r0, #:lower16:.LANCHOR11
 874 0018 40F20003 		movw	r3, #:lower16:scrollingThread
 875 001c 4FF4DC71 		mov	r1, #440
 876 0020 4022     		movs	r2, #64
 877 0022 C0F20003 		movt	r3, #:upper16:scrollingThread
 878 0026 C0F20000 		movt	r0, #:upper16:.LANCHOR11
 879 002a FFF7FEFF 		bl	chThdCreateStatic
 880              	.LVL74:
 881              		.loc 1 228 0
 882 002e 03B0     		add	sp, sp, #12
 883 0030 00BD     		pop	{pc}
 884              		.cfi_endproc
 885              	.LFE130:
 886              		.size	scroll_init, .-scroll_init
 887 0032 00BFAFF3 		.section	.text.scrollSetCursor,"ax",%progbits
 887      0080AFF3 
 887      0080AFF3 
 887      0080
 888              		.align	2
 889              		.p2align 4,,15
 890              		.global	scrollSetCursor
 891              		.thumb
 892              		.thumb_func
 893              		.type	scrollSetCursor, %function
 894              	scrollSetCursor:
 895              	.LFB131:
 896              		.loc 1 232 0
 897              		.cfi_startproc
 898              		@ args = 0, pretend = 0, frame = 0
ARM GAS  /var/folders/ng/s8655sgx1ys_4lf9jzm2w6n00000gn/T//ccoB4Kch.s 			page 17


 899              		@ frame_needed = 0, uses_anonymous_args = 0
 900              		@ link register save eliminated.
 901              	.LVL75:
 902              		.loc 1 233 0
 903 0000 40F20002 		movw	r2, #:lower16:.LANCHOR6
 904              		.loc 1 234 0
 905 0004 40F20003 		movw	r3, #:lower16:.LANCHOR5
 906              		.loc 1 233 0
 907 0008 C0F20002 		movt	r2, #:upper16:.LANCHOR6
 908              		.loc 1 234 0
 909 000c C0F20003 		movt	r3, #:upper16:.LANCHOR5
 910              		.loc 1 233 0
 911 0010 1060     		str	r0, [r2, #0]
 912              		.loc 1 234 0
 913 0012 1960     		str	r1, [r3, #0]
 914 0014 7047     		bx	lr
 915              		.cfi_endproc
 916              	.LFE131:
 917              		.size	scrollSetCursor, .-scrollSetCursor
 918 0016 00BFAFF3 		.section	.text.scrollSetDelay,"ax",%progbits
 918      0080AFF3 
 918      0080
 919              		.align	2
 920              		.p2align 4,,15
 921              		.global	scrollSetDelay
 922              		.thumb
 923              		.thumb_func
 924              		.type	scrollSetDelay, %function
 925              	scrollSetDelay:
 926              	.LFB132:
 927              		.loc 1 237 0
 928              		.cfi_startproc
 929              		@ args = 0, pretend = 0, frame = 0
 930              		@ frame_needed = 0, uses_anonymous_args = 0
 931              		@ link register save eliminated.
 932              	.LVL76:
 933              		.loc 1 238 0
 934 0000 40F20003 		movw	r3, #:lower16:.LANCHOR10
 935 0004 C0F20003 		movt	r3, #:upper16:.LANCHOR10
 936 0008 1860     		str	r0, [r3, #0]
 937 000a 7047     		bx	lr
 938              		.cfi_endproc
 939              	.LFE132:
 940              		.size	scrollSetDelay, .-scrollSetDelay
 941 000c AFF30080 		.section	.text.scrollEnable,"ax",%progbits
 942              		.align	2
 943              		.p2align 4,,15
 944              		.global	scrollEnable
 945              		.thumb
 946              		.thumb_func
 947              		.type	scrollEnable, %function
 948              	scrollEnable:
 949              	.LFB133:
 950              		.loc 1 242 0
 951              		.cfi_startproc
 952              		@ args = 0, pretend = 0, frame = 0
 953              		@ frame_needed = 0, uses_anonymous_args = 0
ARM GAS  /var/folders/ng/s8655sgx1ys_4lf9jzm2w6n00000gn/T//ccoB4Kch.s 			page 18


 954              		@ link register save eliminated.
 955              		.loc 1 243 0
 956 0000 40F20003 		movw	r3, #:lower16:.LANCHOR2
 957 0004 C0F20003 		movt	r3, #:upper16:.LANCHOR2
 958 0008 0122     		movs	r2, #1
 959 000a 1A60     		str	r2, [r3, #0]
 960 000c 7047     		bx	lr
 961              		.cfi_endproc
 962              	.LFE133:
 963              		.size	scrollEnable, .-scrollEnable
 964 000e 00BF     		.section	.text.scrollPause,"ax",%progbits
 965              		.align	2
 966              		.p2align 4,,15
 967              		.global	scrollPause
 968              		.thumb
 969              		.thumb_func
 970              		.type	scrollPause, %function
 971              	scrollPause:
 972              	.LFB134:
 973              		.loc 1 247 0
 974              		.cfi_startproc
 975              		@ args = 0, pretend = 0, frame = 0
 976              		@ frame_needed = 0, uses_anonymous_args = 0
 977              		@ link register save eliminated.
 978              		.loc 1 248 0
 979 0000 40F20003 		movw	r3, #:lower16:.LANCHOR2
 980 0004 C0F20003 		movt	r3, #:upper16:.LANCHOR2
 981 0008 0222     		movs	r2, #2
 982 000a 1A60     		str	r2, [r3, #0]
 983 000c 7047     		bx	lr
 984              		.cfi_endproc
 985              	.LFE134:
 986              		.size	scrollPause, .-scrollPause
 987 000e 00BF     		.section	.text.scrollExit,"ax",%progbits
 988              		.align	2
 989              		.p2align 4,,15
 990              		.global	scrollExit
 991              		.thumb
 992              		.thumb_func
 993              		.type	scrollExit, %function
 994              	scrollExit:
 995              	.LFB135:
 996              		.loc 1 252 0
 997              		.cfi_startproc
 998              		@ args = 0, pretend = 0, frame = 0
 999              		@ frame_needed = 0, uses_anonymous_args = 0
 1000              		@ link register save eliminated.
 1001              		.loc 1 253 0
 1002 0000 40F20003 		movw	r3, #:lower16:.LANCHOR2
 1003 0004 C0F20003 		movt	r3, #:upper16:.LANCHOR2
 1004 0008 0022     		movs	r2, #0
 1005 000a 1A60     		str	r2, [r3, #0]
 1006 000c 7047     		bx	lr
 1007              		.cfi_endproc
 1008              	.LFE135:
 1009              		.size	scrollExit, .-scrollExit
 1010 000e 00BF     		.section	.text.scrollMessage,"ax",%progbits
ARM GAS  /var/folders/ng/s8655sgx1ys_4lf9jzm2w6n00000gn/T//ccoB4Kch.s 			page 19


 1011              		.align	2
 1012              		.p2align 4,,15
 1013              		.global	scrollMessage
 1014              		.thumb
 1015              		.thumb_func
 1016              		.type	scrollMessage, %function
 1017              	scrollMessage:
 1018              	.LFB136:
 1019              		.loc 1 266 0
 1020              		.cfi_startproc
 1021              		@ args = 0, pretend = 0, frame = 0
 1022              		@ frame_needed = 0, uses_anonymous_args = 0
 1023              		@ link register save eliminated.
 1024              	.LVL77:
 1025 0000 2DE9F003 		push	{r4, r5, r6, r7, r8, r9}
 1026              	.LCFI10:
 1027              		.cfi_def_cfa_offset 24
 1028              		.cfi_offset 4, -24
 1029              		.cfi_offset 5, -20
 1030              		.cfi_offset 6, -16
 1031              		.cfi_offset 7, -12
 1032              		.cfi_offset 8, -8
 1033              		.cfi_offset 9, -4
 1034              		.loc 1 271 0
 1035 0004 0578     		ldrb	r5, [r0, #0]	@ zero_extendqisi2
 1036 0006 002D     		cmp	r5, #0
 1037 0008 2AD0     		beq	.L64
 1038 000a 1A4F     		ldr	r7, .L66
 1039 000c 0646     		mov	r6, r0
 1040              		.loc 1 267 0
 1041 000e 0024     		movs	r4, #0
 1042              	.LVL78:
 1043              	.L62:
 1044              		.loc 1 273 0
 1045 0010 3D55     		strb	r5, [r7, r4]
 1046              		.loc 1 271 0
 1047 0012 16F8015F 		ldrb	r5, [r6, #1]!	@ zero_extendqisi2
 1048              		.loc 1 274 0
 1049 0016 0134     		adds	r4, r4, #1
 1050              	.LVL79:
 1051              		.loc 1 271 0
 1052 0018 002D     		cmp	r5, #0
 1053 001a F9D1     		bne	.L62
 1054 001c E61C     		adds	r6, r4, #3
 1055 001e B446     		mov	ip, r6
 1056 0020 04F10109 		add	r9, r4, #1
 1057 0024 04F10208 		add	r8, r4, #2
 1058              	.LVL80:
 1059              	.L61:
 1060              		.loc 1 280 0 discriminator 1
 1061 0028 2025     		movs	r5, #32
 1062 002a 3D55     		strb	r5, [r7, r4]
 1063              	.LVL81:
 1064 002c 07F80950 		strb	r5, [r7, r9]
 1065              	.LVL82:
 1066              		.loc 1 285 0 discriminator 1
 1067 0030 114C     		ldr	r4, .L66+4
ARM GAS  /var/folders/ng/s8655sgx1ys_4lf9jzm2w6n00000gn/T//ccoB4Kch.s 			page 20


 1068              		.loc 1 280 0 discriminator 1
 1069 0032 07F80850 		strb	r5, [r7, r8]
 1070              	.LVL83:
 1071              		.loc 1 284 0 discriminator 1
 1072 0036 10F80C00 		ldrb	r0, [r0, ip]	@ zero_extendqisi2
 1073              	.LVL84:
 1074              		.loc 1 285 0 discriminator 1
 1075 003a 2660     		str	r6, [r4, #0]
 1076              	.LVL85:
 1077              	.LBB28:
 1078              	.LBB29:
 1079              		.loc 1 233 0 discriminator 1
 1080 003c 0F4C     		ldr	r4, .L66+8
 1081              	.LBE29:
 1082              	.LBE28:
 1083              		.loc 1 284 0 discriminator 1
 1084 003e B855     		strb	r0, [r7, r6]
 1085              	.LBB33:
 1086              	.LBB30:
 1087              		.loc 1 233 0 discriminator 1
 1088 0040 2160     		str	r1, [r4, #0]
 1089              	.LBE30:
 1090              	.LBE33:
 1091              		.loc 1 289 0 discriminator 1
 1092 0042 D018     		adds	r0, r2, r3
 1093              	.LBB34:
 1094              	.LBB31:
 1095              		.loc 1 234 0 discriminator 1
 1096 0044 0E49     		ldr	r1, .L66+12
 1097              	.LVL86:
 1098              	.LBE31:
 1099              	.LBE34:
 1100              		.loc 1 289 0 discriminator 1
 1101 0046 1028     		cmp	r0, #16
 1102              		.loc 1 291 0 discriminator 1
 1103 0048 C8BF     		it	gt
 1104 004a C2F11003 		rsbgt	r3, r2, #16
 1105              	.LVL87:
 1106              	.LBB35:
 1107              	.LBB32:
 1108              		.loc 1 234 0 discriminator 1
 1109 004e 0A60     		str	r2, [r1, #0]
 1110              	.LBE32:
 1111              	.LBE35:
 1112              		.loc 1 294 0 discriminator 1
 1113 0050 0C4A     		ldr	r2, .L66+16
 1114              	.LVL88:
 1115 0052 1360     		str	r3, [r2, #0]
 1116              		.loc 1 295 0 discriminator 1
 1117 0054 0C4B     		ldr	r3, .L66+20
 1118              	.LVL89:
 1119 0056 0120     		movs	r0, #1
 1120 0058 1860     		str	r0, [r3, #0]
 1121              		.loc 1 296 0 discriminator 1
 1122 005a BDE8F003 		pop	{r4, r5, r6, r7, r8, r9}
 1123 005e 7047     		bx	lr
 1124              	.LVL90:
ARM GAS  /var/folders/ng/s8655sgx1ys_4lf9jzm2w6n00000gn/T//ccoB4Kch.s 			page 21


 1125              	.L64:
 1126              		.loc 1 271 0
 1127 0060 0326     		movs	r6, #3
 1128 0062 044F     		ldr	r7, .L66
 1129 0064 4FF00208 		mov	r8, #2
 1130 0068 4FF00109 		mov	r9, #1
 1131 006c B446     		mov	ip, r6
 1132              		.loc 1 267 0
 1133 006e 2C46     		mov	r4, r5
 1134 0070 DAE7     		b	.L61
 1135              	.L67:
 1136 0072 00BF     		.align	2
 1137              	.L66:
 1138 0074 00000000 		.word	.LANCHOR7
 1139 0078 00000000 		.word	.LANCHOR8
 1140 007c 00000000 		.word	.LANCHOR6
 1141 0080 00000000 		.word	.LANCHOR5
 1142 0084 00000000 		.word	.LANCHOR9
 1143 0088 00000000 		.word	.LANCHOR3
 1144              		.cfi_endproc
 1145              	.LFE136:
 1146              		.size	scrollMessage, .-scrollMessage
 1147              		.global	LCD
 1148              		.global	_scrollBuf
 1149              		.global	_scrollStart
 1150              		.global	_scrollStatus
 1151              		.global	_scrollMsgLen
 1152              		.global	_scrollWidth
 1153              		.global	_scrollDelay
 1154              		.global	_scrollCol
 1155              		.global	_scrollRow
 1156              		.global	_scrollMtx
 1157 008c AFF30080 		.section	.bss._scrollMsgLen,"aw",%nobits
 1158              		.align	2
 1159              		.set	.LANCHOR8,. + 0
 1160              		.type	_scrollMsgLen, %object
 1161              		.size	_scrollMsgLen, 4
 1162              	_scrollMsgLen:
 1163 0000 00000000 		.space	4
 1164              		.section	.data._scrollDelay,"aw",%progbits
 1165              		.align	2
 1166              		.set	.LANCHOR10,. + 0
 1167              		.type	_scrollDelay, %object
 1168              		.size	_scrollDelay, 4
 1169              	_scrollDelay:
 1170 0000 2C010000 		.word	300
 1171              		.section	.data._scrollStatus,"aw",%progbits
 1172              		.align	2
 1173              		.set	.LANCHOR2,. + 0
 1174              		.type	_scrollStatus, %object
 1175              		.size	_scrollStatus, 4
 1176              	_scrollStatus:
 1177 0000 01000000 		.word	1
 1178              		.section	.bss._scrollBuf,"aw",%nobits
 1179              		.align	2
 1180              		.set	.LANCHOR7,. + 0
 1181              		.type	_scrollBuf, %object
ARM GAS  /var/folders/ng/s8655sgx1ys_4lf9jzm2w6n00000gn/T//ccoB4Kch.s 			page 22


 1182              		.size	_scrollBuf, 100
 1183              	_scrollBuf:
 1184 0000 00000000 		.space	100
 1184      00000000 
 1184      00000000 
 1184      00000000 
 1184      00000000 
 1185              		.section	.bss._scrollCol,"aw",%nobits
 1186              		.align	2
 1187              		.set	.LANCHOR5,. + 0
 1188              		.type	_scrollCol, %object
 1189              		.size	_scrollCol, 4
 1190              	_scrollCol:
 1191 0000 00000000 		.space	4
 1192              		.section	.data._scrollStart,"aw",%progbits
 1193              		.align	2
 1194              		.set	.LANCHOR3,. + 0
 1195              		.type	_scrollStart, %object
 1196              		.size	_scrollStart, 4
 1197              	_scrollStart:
 1198 0000 01000000 		.word	1
 1199              		.section	.data._scrollWidth,"aw",%progbits
 1200              		.align	2
 1201              		.set	.LANCHOR9,. + 0
 1202              		.type	_scrollWidth, %object
 1203              		.size	_scrollWidth, 4
 1204              	_scrollWidth:
 1205 0000 10000000 		.word	16
 1206              		.section	.bss._scrollMtx,"aw",%nobits
 1207              		.align	2
 1208              		.set	.LANCHOR4,. + 0
 1209              		.type	_scrollMtx, %object
 1210              		.size	_scrollMtx, 16
 1211              	_scrollMtx:
 1212 0000 00000000 		.space	16
 1212      00000000 
 1212      00000000 
 1212      00000000 
 1213              		.section	.bss.scrollingThreadWorkingArea,"aw",%nobits
 1214              		.align	3
 1215              		.set	.LANCHOR11,. + 0
 1216              		.type	scrollingThreadWorkingArea, %object
 1217              		.size	scrollingThreadWorkingArea, 440
 1218              	scrollingThreadWorkingArea:
 1219 0000 00000000 		.space	440
 1219      00000000 
 1219      00000000 
 1219      00000000 
 1219      00000000 
 1220              		.section	.data._vmt,"aw",%progbits
 1221              		.align	2
 1222              		.set	.LANCHOR1,. + 0
 1223              		.type	_vmt, %object
 1224              		.size	_vmt, 16
 1225              	_vmt:
 1226 0000 00000000 		.word	0
 1227 0004 00000000 		.word	0
ARM GAS  /var/folders/ng/s8655sgx1ys_4lf9jzm2w6n00000gn/T//ccoB4Kch.s 			page 23


 1228 0008 00000000 		.word	_put
 1229 000c 00000000 		.word	0
 1230              		.section	.bss._scrollRow,"aw",%nobits
 1231              		.align	2
 1232              		.set	.LANCHOR6,. + 0
 1233              		.type	_scrollRow, %object
 1234              		.size	_scrollRow, 4
 1235              	_scrollRow:
 1236 0000 00000000 		.space	4
 1237              		.section	.bss.LCD,"aw",%nobits
 1238              		.align	2
 1239              		.set	.LANCHOR0,. + 0
 1240              		.type	LCD, %object
 1241              		.size	LCD, 4
 1242              	LCD:
 1243 0000 00000000 		.space	4
 1244              		.text
 1245              	.Letext0:
 1246              		.file 2 "/Users/jseng/gccarm/bin/../lib/gcc/arm-none-eabi/4.7.4/include/stddef.h"
 1247              		.file 3 "/Users/jseng/gccarm/bin/../lib/gcc/arm-none-eabi/4.7.4/../../../../arm-none-eabi/include/
 1248              		.file 4 "../AithonLibrary/ChibiOS/os/ports/GCC/ARMCMx/chtypes.h"
 1249              		.file 5 "../AithonLibrary/ChibiOS/os/kernel/include/chlists.h"
 1250              		.file 6 "../AithonLibrary/ChibiOS/os/kernel/include/chthreads.h"
 1251              		.file 7 "../AithonLibrary/ChibiOS/os/ports/GCC/ARMCMx/chcore_v7m.h"
 1252              		.file 8 "../AithonLibrary/ChibiOS/os/kernel/include/chmtx.h"
 1253              		.file 9 "../AithonLibrary/ChibiOS/os/kernel/include/chstreams.h"
 1254              		.file 10 "../AithonLibrary/ChibiOS/os/hal/platforms/STM32F4xx/hal_lld.h"
 1255              		.file 11 "../AithonLibrary/ChibiOS/os/hal/platforms/STM32/GPIOv2/pal_lld.h"
 1256              		.file 12 "../AithonLibrary/ChibiOS/os/ports/common/ARMCMx/CMSIS/include/core_cm4.h"
 1257              		.file 13 "../AithonLibrary/ChibiOS/os/hal/include/hal.h"