ARM GAS  /var/folders/ng/s8655sgx1ys_4lf9jzm2w6n00000gn/T//ccwhj3mK.s 			page 1


   1              		.syntax unified
   2              		.cpu cortex-m4
   3              		.eabi_attribute 27, 3
   4              		.fpu fpv4-sp-d16
   5              		.eabi_attribute 20, 1
   6              		.eabi_attribute 21, 1
   7              		.eabi_attribute 23, 3
   8              		.eabi_attribute 24, 1
   9              		.eabi_attribute 25, 1
  10              		.eabi_attribute 26, 1
  11              		.eabi_attribute 30, 2
  12              		.eabi_attribute 34, 1
  13              		.eabi_attribute 18, 4
  14              		.thumb
  15              		.file	"main.c"
  16              		.text
  17              	.Ltext0:
  18              		.cfi_sections	.debug_frame
  19              		.section	.text.chprintf.constprop.0,"ax",%progbits
  20              		.align	2
  21              		.p2align 4,,15
  22              		.thumb
  23              		.thumb_func
  24              		.type	chprintf.constprop.0, %function
  25              	chprintf.constprop.0:
  26              	.LFB125:
  27              		.file 1 "../AithonLibrary/ChibiOS/os/various/chprintf.h"
  28              		.loc 1 69 0
  29              		.cfi_startproc
  30              		@ args = 4, pretend = 12, frame = 8
  31              		@ frame_needed = 0, uses_anonymous_args = 1
  32              	.LVL0:
  33 0000 0EB4     		push	{r1, r2, r3}
  34              	.LCFI0:
  35              		.cfi_def_cfa_offset 12
  36              		.cfi_offset 1, -12
  37              		.cfi_offset 2, -8
  38              		.cfi_offset 3, -4
  39 0002 00B5     		push	{lr}
  40              	.LCFI1:
  41              		.cfi_def_cfa_offset 16
  42              		.cfi_offset 14, -16
  43 0004 82B0     		sub	sp, sp, #8
  44              	.LCFI2:
  45              		.cfi_def_cfa_offset 24
  46              		.loc 1 69 0
  47 0006 03AB     		add	r3, sp, #12
  48              		.loc 1 73 0
  49 0008 40F20000 		movw	r0, #:lower16:LCD
  50              	.LVL1:
  51              		.loc 1 69 0
  52 000c 53F8041B 		ldr	r1, [r3], #4
  53              		.loc 1 73 0
  54 0010 C0F20000 		movt	r0, #:upper16:LCD
  55 0014 1A46     		mov	r2, r3
  56              		.loc 1 72 0
  57 0016 0193     		str	r3, [sp, #4]
ARM GAS  /var/folders/ng/s8655sgx1ys_4lf9jzm2w6n00000gn/T//ccwhj3mK.s 			page 2


  58              		.loc 1 73 0
  59 0018 FFF7FEFF 		bl	chvprintf
  60              	.LVL2:
  61              		.loc 1 75 0
  62 001c 02B0     		add	sp, sp, #8
  63 001e 5DF804EB 		pop	{lr}
  64 0022 03B0     		add	sp, sp, #12
  65 0024 7047     		bx	lr
  66              		.cfi_endproc
  67              	.LFE125:
  68              		.size	chprintf.constprop.0, .-chprintf.constprop.0
  69 0026 00BFAFF3 		.section	.text.sendResponse,"ax",%progbits
  69      0080AFF3 
  69      0080
  70              		.align	2
  71              		.p2align 4,,15
  72              		.global	sendResponse
  73              		.thumb
  74              		.thumb_func
  75              		.type	sendResponse, %function
  76              	sendResponse:
  77              	.LFB119:
  78              		.file 2 "main.c"
  79              		.loc 2 12 0
  80              		.cfi_startproc
  81              		@ args = 0, pretend = 0, frame = 0
  82              		@ frame_needed = 0, uses_anonymous_args = 0
  83              		@ link register save eliminated.
  84              	.LVL3:
  85              		.loc 2 13 0
  86 0000 40F20003 		movw	r3, #:lower16:.LANCHOR0
  87 0004 C0F20003 		movt	r3, #:upper16:.LANCHOR0
  88 0008 0143     		orrs	r1, r1, r0
  89              	.LVL4:
  90 000a 1868     		ldr	r0, [r3, #0]
  91              	.LVL5:
  92 000c 4FF0FF32 		mov	r2, #-1
  93 0010 3030     		adds	r0, r0, #48
  94              		.loc 2 14 0
  95              		.loc 2 13 0
  96 0012 FFF7FEBF 		b	chOQPutTimeout
  97              	.LVL6:
  98              		.cfi_endproc
  99              	.LFE119:
 100              		.size	sendResponse, .-sendResponse
 101 0016 00BFAFF3 		.section	.text.getByte,"ax",%progbits
 101      0080AFF3 
 101      0080
 102              		.align	2
 103              		.p2align 4,,15
 104              		.global	getByte
 105              		.thumb
 106              		.thumb_func
 107              		.type	getByte, %function
 108              	getByte:
 109              	.LFB120:
 110              		.loc 2 17 0
ARM GAS  /var/folders/ng/s8655sgx1ys_4lf9jzm2w6n00000gn/T//ccwhj3mK.s 			page 3


 111              		.cfi_startproc
 112              		@ args = 0, pretend = 0, frame = 0
 113              		@ frame_needed = 0, uses_anonymous_args = 0
 114              		@ link register save eliminated.
 115              		.loc 2 18 0
 116 0000 40F20003 		movw	r3, #:lower16:.LANCHOR0
 117 0004 C0F20003 		movt	r3, #:upper16:.LANCHOR0
 118 0008 4FF47A71 		mov	r1, #1000
 119 000c 1868     		ldr	r0, [r3, #0]
 120 000e 0C30     		adds	r0, r0, #12
 121              		.loc 2 22 0
 122              		.loc 2 18 0
 123 0010 FFF7FEBF 		b	chIQGetTimeout
 124              	.LVL7:
 125              		.cfi_endproc
 126              	.LFE120:
 127              		.size	getByte, .-getByte
 128 0014 AFF30080 		.section	.text.flushInterface,"ax",%progbits
 128      AFF30080 
 128      AFF30080 
 129              		.align	2
 130              		.p2align 4,,15
 131              		.global	flushInterface
 132              		.thumb
 133              		.thumb_func
 134              		.type	flushInterface, %function
 135              	flushInterface:
 136              	.LFB121:
 137              		.loc 2 25 0
 138              		.cfi_startproc
 139              		@ args = 0, pretend = 0, frame = 0
 140              		@ frame_needed = 0, uses_anonymous_args = 0
 141 0000 10B5     		push	{r4, lr}
 142              	.LCFI3:
 143              		.cfi_def_cfa_offset 8
 144              		.cfi_offset 4, -8
 145              		.cfi_offset 14, -4
 146              		.loc 2 27 0
 147 0002 0B4C     		ldr	r4, .L14
 148 0004 2368     		ldr	r3, [r4, #0]
 149 0006 986B     		ldr	r0, [r3, #56]
 150 0008 78B1     		cbz	r0, .L5
 151              		.loc 2 30 0
 152 000a 0120     		movs	r0, #1
 153 000c FFF7FEFF 		bl	chThdSleep
 154              	.LVL8:
 155              		.loc 2 33 0
 156 0010 2068     		ldr	r0, [r4, #0]
 157 0012 4169     		ldr	r1, [r0, #20]
 158 0014 51B1     		cbz	r1, .L4
 159              	.L10:
 160              		.loc 2 34 0
 161 0016 0C30     		adds	r0, r0, #12
 162 0018 4FF0FF31 		mov	r1, #-1
 163 001c FFF7FEFF 		bl	chIQGetTimeout
 164              	.LVL9:
 165              		.loc 2 33 0
ARM GAS  /var/folders/ng/s8655sgx1ys_4lf9jzm2w6n00000gn/T//ccwhj3mK.s 			page 4


 166 0020 2068     		ldr	r0, [r4, #0]
 167 0022 4269     		ldr	r2, [r0, #20]
 168 0024 002A     		cmp	r2, #0
 169 0026 F6D1     		bne	.L10
 170 0028 10BD     		pop	{r4, pc}
 171              	.L5:
 172 002a FEE7     		b	.L5
 173              	.L4:
 174 002c 10BD     		pop	{r4, pc}
 175              	.L15:
 176 002e 00BF     		.align	2
 177              	.L14:
 178 0030 00000000 		.word	.LANCHOR0
 179              		.cfi_endproc
 180              	.LFE121:
 181              		.size	flushInterface, .-flushInterface
 182 0034 AFF30080 		.section	.text.sendString,"ax",%progbits
 182      AFF30080 
 182      AFF30080 
 183              		.align	2
 184              		.p2align 4,,15
 185              		.global	sendString
 186              		.thumb
 187              		.thumb_func
 188              		.type	sendString, %function
 189              	sendString:
 190              	.LFB123:
 191              		.loc 2 44 0
 192              		.cfi_startproc
 193              		@ args = 0, pretend = 0, frame = 0
 194              		@ frame_needed = 0, uses_anonymous_args = 0
 195              	.LVL10:
 196 0000 38B5     		push	{r3, r4, r5, lr}
 197              	.LCFI4:
 198              		.cfi_def_cfa_offset 16
 199              		.cfi_offset 3, -16
 200              		.cfi_offset 4, -12
 201              		.cfi_offset 5, -8
 202              		.cfi_offset 14, -4
 203              		.loc 2 47 0
 204 0002 0178     		ldrb	r1, [r0, #0]	@ zero_extendqisi2
 205 0004 59B1     		cbz	r1, .L16
 206 0006 064D     		ldr	r5, .L21
 207 0008 0446     		mov	r4, r0
 208              	.LVL11:
 209              	.L18:
 210              		.loc 2 48 0
 211 000a 2868     		ldr	r0, [r5, #0]
 212 000c 4FF0FF32 		mov	r2, #-1
 213 0010 3030     		adds	r0, r0, #48
 214 0012 FFF7FEFF 		bl	chOQPutTimeout
 215              	.LVL12:
 216              		.loc 2 47 0
 217 0016 14F8011F 		ldrb	r1, [r4, #1]!	@ zero_extendqisi2
 218 001a 0029     		cmp	r1, #0
 219 001c F5D1     		bne	.L18
 220              	.L16:
ARM GAS  /var/folders/ng/s8655sgx1ys_4lf9jzm2w6n00000gn/T//ccwhj3mK.s 			page 5


 221 001e 38BD     		pop	{r3, r4, r5, pc}
 222              	.L22:
 223              		.align	2
 224              	.L21:
 225 0020 00000000 		.word	.LANCHOR0
 226              		.cfi_endproc
 227              	.LFE123:
 228              		.size	sendString, .-sendString
 229 0024 AFF30080 		.section	.text.runTests,"ax",%progbits
 229      AFF30080 
 229      AFF30080 
 230              		.align	2
 231              		.p2align 4,,15
 232              		.global	runTests
 233              		.thumb
 234              		.thumb_func
 235              		.type	runTests, %function
 236              	runTests:
 237              	.LFB124:
 238              		.loc 2 54 0
 239              		.cfi_startproc
 240              		@ args = 0, pretend = 0, frame = 24
 241              		@ frame_needed = 0, uses_anonymous_args = 0
 242              	.LVL13:
 243 0000 2DE9F043 		push	{r4, r5, r6, r7, r8, r9, lr}
 244              	.LCFI5:
 245              		.cfi_def_cfa_offset 28
 246              		.cfi_offset 4, -28
 247              		.cfi_offset 5, -24
 248              		.cfi_offset 6, -20
 249              		.cfi_offset 7, -16
 250              		.cfi_offset 8, -12
 251              		.cfi_offset 9, -8
 252              		.cfi_offset 14, -4
 253 0004 87B0     		sub	sp, sp, #28
 254              	.LCFI6:
 255              		.cfi_def_cfa_offset 56
 256              		.loc 2 65 0
 257 0006 FFF7FEFF 		bl	scrollPause
 258              	.LVL14:
 259              		.loc 2 66 0
 260 000a 0021     		movs	r1, #0
 261 000c 0A46     		mov	r2, r1
 262 000e 1023     		movs	r3, #16
 263 0010 9848     		ldr	r0, .L135
 264 0012 FFF7FEFF 		bl	scrollMessage
 265              	.LVL15:
 266              		.loc 2 67 0
 267 0016 C820     		movs	r0, #200
 268 0018 FFF7FEFF 		bl	scrollSetDelay
 269              	.LVL16:
 270              		.loc 2 68 0
 271 001c FFF7FEFF 		bl	scrollEnable
 272              	.LVL17:
 273              		.loc 2 69 0
 274 0020 9548     		ldr	r0, .L135+4
 275 0022 FFF7FEFF 		bl	chMtxLock
ARM GAS  /var/folders/ng/s8655sgx1ys_4lf9jzm2w6n00000gn/T//ccwhj3mK.s 			page 6


 276              	.LVL18:
 277              		.loc 2 70 0
 278 0026 FFF7FEFF 		bl	lcd_clear
 279              	.LVL19:
 280              		.loc 2 71 0
 281 002a FFF7FEFF 		bl	chMtxUnlock
 282              	.LVL20:
 283              		.loc 2 55 0
 284 002e 0125     		movs	r5, #1
 285 0030 0026     		movs	r6, #0
 286              	.LVL21:
 287              	.L90:
 288              		.loc 2 75 0
 289 0032 0020     		movs	r0, #0
 290 0034 FFF7FEFF 		bl	button_get
 291              	.LVL22:
 292 0038 D0B1     		cbz	r0, .L24
 293              		.loc 2 77 0
 294 003a 1420     		movs	r0, #20
 295 003c FFF7FEFF 		bl	chThdSleep
 296              	.LVL23:
 297              		.loc 2 80 0
 298 0040 01E0     		b	.L25
 299              	.L26:
 300              		.loc 2 82 0
 301 0042 FFF7FEFF 		bl	chThdSleep
 302              	.LVL24:
 303              	.L25:
 304              		.loc 2 80 0 discriminator 1
 305 0046 0020     		movs	r0, #0
 306 0048 FFF7FEFF 		bl	button_get
 307              	.LVL25:
 308 004c 0746     		mov	r7, r0
 309              		.loc 2 82 0 discriminator 1
 310 004e 0120     		movs	r0, #1
 311              		.loc 2 80 0 discriminator 1
 312 0050 002F     		cmp	r7, #0
 313 0052 F6D1     		bne	.L26
 314              		.loc 2 86 0
 315 0054 8848     		ldr	r0, .L135+4
 316 0056 FFF7FEFF 		bl	chMtxLock
 317              	.LVL26:
 318              		.loc 2 87 0
 319 005a 3846     		mov	r0, r7
 320 005c 0121     		movs	r1, #1
 321 005e FFF7FEFF 		bl	lcd_cursor
 322              	.LVL27:
 323              		.loc 2 88 0
 324 0062 052E     		cmp	r6, #5
 325 0064 0CD8     		bhi	.L27
 326 0066 DFE806F0 		tbb	[pc, r6]
 327              	.L34:
 328 006a 34       		.byte	(.L28-.L34)/2
 329 006b 2F       		.byte	(.L29-.L34)/2
 330 006c 2A       		.byte	(.L30-.L34)/2
 331 006d 25       		.byte	(.L31-.L34)/2
 332 006e 13       		.byte	(.L32-.L34)/2
ARM GAS  /var/folders/ng/s8655sgx1ys_4lf9jzm2w6n00000gn/T//ccwhj3mK.s 			page 7


 333 006f 1C       		.byte	(.L33-.L34)/2
 334              		.align	1
 335              	.L24:
 336              		.loc 2 116 0
 337 0070 0120     		movs	r0, #1
 338 0072 FFF7FEFF 		bl	button_get
 339              	.LVL28:
 340 0076 88BB     		cbnz	r0, .L121
 341              	.LVL29:
 342              	.L36:
 343              		.loc 2 434 0
 344 0078 0120     		movs	r0, #1
 345 007a FFF7FEFF 		bl	chThdSleep
 346              	.LVL30:
 347              		.loc 2 435 0
 348 007e D8E7     		b	.L90
 349              	.L27:
 350              		.loc 2 113 0
 351 0080 0135     		adds	r5, r5, #1
 352              	.LVL31:
 353              		.loc 2 111 0
 354 0082 FFF7FEFF 		bl	chMtxUnlock
 355              	.LVL32:
 356              		.loc 2 114 0
 357 0086 062D     		cmp	r5, #6
 358 0088 09DD     		ble	.L120
 359              		.loc 2 115 0
 360 008a 0125     		movs	r5, #1
 361              	.LVL33:
 362 008c 0026     		movs	r6, #0
 363 008e F3E7     		b	.L36
 364              	.LVL34:
 365              	.L32:
 366              		.loc 2 103 0
 367 0090 7A48     		ldr	r0, .L135+8
 368 0092 7B49     		ldr	r1, .L135+12
 369 0094 FFF7FEFF 		bl	chprintf.constprop.0
 370              	.LVL35:
 371              	.L35:
 372              		.loc 2 113 0
 373 0098 0135     		adds	r5, r5, #1
 374              	.LVL36:
 375              		.loc 2 111 0
 376 009a FFF7FEFF 		bl	chMtxUnlock
 377              	.LVL37:
 378              	.L120:
 379 009e 6E1E     		subs	r6, r5, #1
 380 00a0 EAE7     		b	.L36
 381              	.L33:
 382              		.loc 2 106 0
 383 00a2 7648     		ldr	r0, .L135+8
 384 00a4 7749     		ldr	r1, .L135+16
 385 00a6 FFF7FEFF 		bl	chprintf.constprop.0
 386              	.LVL38:
 387              		.loc 2 115 0
 388 00aa 0125     		movs	r5, #1
 389              	.LVL39:
ARM GAS  /var/folders/ng/s8655sgx1ys_4lf9jzm2w6n00000gn/T//ccwhj3mK.s 			page 8


 390              		.loc 2 111 0
 391 00ac FFF7FEFF 		bl	chMtxUnlock
 392              	.LVL40:
 393 00b0 0026     		movs	r6, #0
 394 00b2 E1E7     		b	.L36
 395              	.LVL41:
 396              	.L31:
 397              		.loc 2 100 0
 398 00b4 7148     		ldr	r0, .L135+8
 399 00b6 7449     		ldr	r1, .L135+20
 400 00b8 FFF7FEFF 		bl	chprintf.constprop.0
 401              	.LVL42:
 402              		.loc 2 101 0
 403 00bc ECE7     		b	.L35
 404              	.L30:
 405              		.loc 2 97 0
 406 00be 6F48     		ldr	r0, .L135+8
 407 00c0 7249     		ldr	r1, .L135+24
 408 00c2 FFF7FEFF 		bl	chprintf.constprop.0
 409              	.LVL43:
 410              		.loc 2 98 0
 411 00c6 E7E7     		b	.L35
 412              	.L29:
 413              		.loc 2 94 0
 414 00c8 6C48     		ldr	r0, .L135+8
 415 00ca 7149     		ldr	r1, .L135+28
 416 00cc FFF7FEFF 		bl	chprintf.constprop.0
 417              	.LVL44:
 418              		.loc 2 95 0
 419 00d0 E2E7     		b	.L35
 420              	.L28:
 421              		.loc 2 91 0
 422 00d2 6A48     		ldr	r0, .L135+8
 423 00d4 6F49     		ldr	r1, .L135+32
 424 00d6 FFF7FEFF 		bl	chprintf.constprop.0
 425              	.LVL45:
 426              		.loc 2 92 0
 427 00da DDE7     		b	.L35
 428              	.L121:
 429              		.loc 2 118 0
 430 00dc FFF7FEFF 		bl	scrollPause
 431              	.LVL46:
 432              		.loc 2 119 0
 433 00e0 1420     		movs	r0, #20
 434 00e2 FFF7FEFF 		bl	chThdSleep
 435              	.LVL47:
 436              		.loc 2 122 0
 437 00e6 02E0     		b	.L38
 438              	.L39:
 439              		.loc 2 123 0
 440 00e8 0120     		movs	r0, #1
 441 00ea FFF7FEFF 		bl	chThdSleep
 442              	.LVL48:
 443              	.L38:
 444              		.loc 2 122 0 discriminator 1
 445 00ee 0120     		movs	r0, #1
 446 00f0 FFF7FEFF 		bl	button_get
ARM GAS  /var/folders/ng/s8655sgx1ys_4lf9jzm2w6n00000gn/T//ccwhj3mK.s 			page 9


 447              	.LVL49:
 448 00f4 0028     		cmp	r0, #0
 449 00f6 F7D1     		bne	.L39
 450              		.loc 2 125 0
 451 00f8 3546     		mov	r5, r6
 452              	.LVL50:
 453              		.loc 2 126 0
 454 00fa 56B1     		cbz	r6, .L40
 455              		.loc 2 129 0
 456 00fc 013E     		subs	r6, r6, #1
 457 00fe 052E     		cmp	r6, #5
 458 0100 BAD8     		bhi	.L36
 459 0102 DFE816F0 		tbh	[pc, r6, lsl #1]
 460              	.L46:
 461 0106 3B03     		.2byte	(.L41-.L46)/2
 462 0108 A102     		.2byte	(.L42-.L46)/2
 463 010a EE01     		.2byte	(.L43-.L46)/2
 464 010c 4901     		.2byte	(.L44-.L46)/2
 465 010e 1000     		.2byte	(.L45-.L46)/2
 466 0110 0600     		.2byte	(.L40-.L46)/2
 467              	.L40:
 468              		.loc 2 422 0
 469 0112 FFF7FEFF 		bl	lcd_clear
 470              	.LVL51:
 471              		.loc 2 423 0
 472 0116 5948     		ldr	r0, .L135+8
 473 0118 5F49     		ldr	r1, .L135+36
 474 011a FFF7FEFF 		bl	chprintf.constprop.0
 475              	.LVL52:
 476              	.L89:
 477              		.loc 2 426 0 discriminator 1
 478 011e 0120     		movs	r0, #1
 479 0120 FFF7FEFF 		bl	chThdSleep
 480              	.LVL53:
 481 0124 FBE7     		b	.L89
 482              	.L45:
 483              		.loc 2 329 0
 484 0126 5D4B     		ldr	r3, .L135+40
 485 0128 5D4F     		ldr	r7, .L135+44
 486 012a 9868     		ldr	r0, [r3, #8]
 487 012c 3860     		str	r0, [r7, #0]
 488              		.loc 2 330 0
 489 012e FFF7FEFF 		bl	_motor_init
 490              	.LVL54:
 491              		.loc 2 331 0
 492 0132 FFF7FEFF 		bl	_servo_init
 493              	.LVL55:
 494              		.loc 2 332 0
 495 0136 FFF7FEFF 		bl	_analog_init
 496              	.LVL56:
 497              		.loc 2 334 0
 498 013a FFF7FEFF 		bl	lcd_clear
 499              	.LVL57:
 500              		.loc 2 335 0
 501 013e 0021     		movs	r1, #0
 502 0140 0A46     		mov	r2, r1
 503 0142 1023     		movs	r3, #16
ARM GAS  /var/folders/ng/s8655sgx1ys_4lf9jzm2w6n00000gn/T//ccwhj3mK.s 			page 10


 504 0144 5748     		ldr	r0, .L135+48
 505 0146 FFF7FEFF 		bl	scrollMessage
 506              	.LVL58:
 507              		.loc 2 336 0
 508 014a FFF7FEFF 		bl	scrollEnable
 509              	.LVL59:
 510              		.loc 2 337 0
 511 014e 5648     		ldr	r0, .L135+52
 512 0150 FFF7FEFF 		bl	sendString
 513              	.LVL60:
 514              		.loc 2 338 0
 515 0154 5548     		ldr	r0, .L135+56
 516 0156 FFF7FEFF 		bl	sendString
 517              	.LVL61:
 518              		.loc 2 339 0
 519 015a 5548     		ldr	r0, .L135+60
 520 015c FFF7FEFF 		bl	sendString
 521              	.LVL62:
 522 0160 01AD     		add	r5, sp, #4
 523              	.LVL63:
 524              	.L88:
 525              		.loc 2 282 0 discriminator 1
 526 0162 4FF0FF34 		mov	r4, #-1
 527              	.L77:
 528              	.LVL64:
 529              		.loc 2 347 0 discriminator 1
 530 0166 3868     		ldr	r0, [r7, #0]
 531 0168 DFF83481 		ldr	r8, .L135+44
 532              		.loc 2 346 0 discriminator 1
 533 016c 0134     		adds	r4, r4, #1
 534              	.LVL65:
 535              		.loc 2 347 0 discriminator 1
 536 016e 0C30     		adds	r0, r0, #12
 537 0170 0122     		movs	r2, #1
 538 0172 2919     		adds	r1, r5, r4
 539 0174 4FF0FF33 		mov	r3, #-1
 540 0178 FFF7FEFF 		bl	chIQReadTimeout
 541              	.LVL66:
 542              		.loc 2 348 0 discriminator 1
 543 017c 2E5D     		ldrb	r6, [r5, r4]	@ zero_extendqisi2
 544 017e 0D2E     		cmp	r6, #13
 545 0180 F1D1     		bne	.L77
 546              		.loc 2 349 0
 547 0182 06AA     		add	r2, sp, #24
 548 0184 1119     		adds	r1, r2, r4
 549 0186 0023     		movs	r3, #0
 550 0188 01F8143C 		strb	r3, [r1, #-20]
 551              		.loc 2 351 0
 552 018c 9DF80410 		ldrb	r1, [sp, #4]	@ zero_extendqisi2
 553 0190 6829     		cmp	r1, #104
 554 0192 25D0     		beq	.L78
 555              		.loc 2 351 0 is_stmt 0 discriminator 1
 556 0194 24B3     		cbz	r4, .L78
 557              		.loc 2 360 0 is_stmt 1
 558 0196 6D29     		cmp	r1, #109
 559 0198 38D0     		beq	.L122
 560              		.loc 2 376 0
ARM GAS  /var/folders/ng/s8655sgx1ys_4lf9jzm2w6n00000gn/T//ccwhj3mK.s 			page 11


 561 019a 7329     		cmp	r1, #115
 562 019c 52D0     		beq	.L123
 563              		.loc 2 389 0
 564 019e 6129     		cmp	r1, #97
 565 01a0 00F09480 		beq	.L84
 566              	.LVL67:
 567 01a4 2C46     		mov	r4, r5
 568              		.loc 2 409 0 discriminator 1
 569 01a6 49B1     		cbz	r1, .L87
 570              	.LVL68:
 571              	.L86:
 572              		.loc 2 410 0
 573 01a8 3868     		ldr	r0, [r7, #0]
 574 01aa 4FF0FF32 		mov	r2, #-1
 575 01ae 3030     		adds	r0, r0, #48
 576 01b0 FFF7FEFF 		bl	chOQPutTimeout
 577              	.LVL69:
 578              		.loc 2 409 0
 579 01b4 14F8011F 		ldrb	r1, [r4, #1]!	@ zero_extendqisi2
 580 01b8 0029     		cmp	r1, #0
 581 01ba F5D1     		bne	.L86
 582              	.L87:
 583              		.loc 2 413 0
 584 01bc 3868     		ldr	r0, [r7, #0]
 585 01be 0A21     		movs	r1, #10
 586 01c0 4FF0FF32 		mov	r2, #-1
 587 01c4 3030     		adds	r0, r0, #48
 588 01c6 FFF7FEFF 		bl	chOQPutTimeout
 589              	.LVL70:
 590              		.loc 2 414 0
 591 01ca 3868     		ldr	r0, [r7, #0]
 592 01cc 0D21     		movs	r1, #13
 593 01ce 3030     		adds	r0, r0, #48
 594 01d0 4FF0FF32 		mov	r2, #-1
 595 01d4 FFF7FEFF 		bl	chOQPutTimeout
 596              	.LVL71:
 597              	.L80:
 598              		.loc 2 416 0
 599 01d8 0120     		movs	r0, #1
 600 01da FFF7FEFF 		bl	chThdSleep
 601              	.LVL72:
 602              		.loc 2 417 0
 603 01de C0E7     		b	.L88
 604              	.LVL73:
 605              	.L78:
 606              		.loc 2 353 0
 607 01e0 3448     		ldr	r0, .L135+64
 608 01e2 FFF7FEFF 		bl	sendString
 609              	.LVL74:
 610              		.loc 2 354 0
 611 01e6 3148     		ldr	r0, .L135+56
 612 01e8 FFF7FEFF 		bl	sendString
 613              	.LVL75:
 614              		.loc 2 355 0
 615 01ec 3248     		ldr	r0, .L135+68
 616 01ee FFF7FEFF 		bl	sendString
 617              	.LVL76:
ARM GAS  /var/folders/ng/s8655sgx1ys_4lf9jzm2w6n00000gn/T//ccwhj3mK.s 			page 12


 618              		.loc 2 356 0
 619 01f2 3248     		ldr	r0, .L135+72
 620 01f4 FFF7FEFF 		bl	sendString
 621              	.LVL77:
 622              		.loc 2 357 0
 623 01f8 3148     		ldr	r0, .L135+76
 624 01fa FFF7FEFF 		bl	sendString
 625              	.LVL78:
 626              		.loc 2 358 0
 627 01fe 3148     		ldr	r0, .L135+80
 628 0200 FFF7FEFF 		bl	sendString
 629              	.LVL79:
 630              		.loc 2 359 0
 631 0204 3048     		ldr	r0, .L135+84
 632 0206 FFF7FEFF 		bl	sendString
 633              	.LVL80:
 634 020a E5E7     		b	.L80
 635              	.L122:
 636              	.LVL81:
 637              	.LBB2:
 638              		.loc 2 367 0 discriminator 1
 639 020c 9DF80730 		ldrb	r3, [sp, #7]	@ zero_extendqisi2
 640 0210 9DF80800 		ldrb	r0, [sp, #8]	@ zero_extendqisi2
 641              		.loc 2 370 0 discriminator 1
 642 0214 9DF80940 		ldrb	r4, [sp, #9]	@ zero_extendqisi2
 643              	.LVL82:
 644              		.loc 2 372 0 discriminator 1
 645 0218 9DF80620 		ldrb	r2, [sp, #6]	@ zero_extendqisi2
 646              		.loc 2 367 0 discriminator 1
 647 021c 303B     		subs	r3, r3, #48
 648              	.LVL83:
 649              		.loc 2 368 0 discriminator 1
 650 021e 03EB8306 		add	r6, r3, r3, lsl #2
 651              	.LVL84:
 652              		.loc 2 367 0 discriminator 1
 653 0222 3038     		subs	r0, r0, #48
 654 0224 00EB4601 		add	r1, r0, r6, lsl #1
 655              	.LVL85:
 656              		.loc 2 370 0 discriminator 1
 657 0228 303C     		subs	r4, r4, #48
 658              		.loc 2 368 0 discriminator 1
 659 022a 01EB8103 		add	r3, r1, r1, lsl #2
 660              	.LVL86:
 661              		.loc 2 375 0 discriminator 1
 662 022e 9DF80500 		ldrb	r0, [sp, #5]	@ zero_extendqisi2
 663              		.loc 2 372 0 discriminator 1
 664 0232 2D2A     		cmp	r2, #45
 665              		.loc 2 370 0 discriminator 1
 666 0234 04EB4301 		add	r1, r4, r3, lsl #1
 667              	.LVL87:
 668              		.loc 2 373 0 discriminator 1
 669 0238 08BF     		it	eq
 670 023a 4942     		negeq	r1, r1
 671              	.LVL88:
 672              		.loc 2 375 0 discriminator 1
 673 023c 3038     		subs	r0, r0, #48
 674 023e FFF7FEFF 		bl	motor_set
ARM GAS  /var/folders/ng/s8655sgx1ys_4lf9jzm2w6n00000gn/T//ccwhj3mK.s 			page 13


 675              	.LVL89:
 676 0242 C9E7     		b	.L80
 677              	.LVL90:
 678              	.L123:
 679              	.LBE2:
 680              	.LBB3:
 681              		.loc 2 383 0 discriminator 1
 682 0244 9DF80660 		ldrb	r6, [sp, #6]	@ zero_extendqisi2
 683 0248 9DF80710 		ldrb	r1, [sp, #7]	@ zero_extendqisi2
 684              		.loc 2 386 0 discriminator 1
 685 024c 9DF80820 		ldrb	r2, [sp, #8]	@ zero_extendqisi2
 686              		.loc 2 388 0 discriminator 1
 687 0250 9DF80500 		ldrb	r0, [sp, #5]	@ zero_extendqisi2
 688              		.loc 2 383 0 discriminator 1
 689 0254 303E     		subs	r6, r6, #48
 690              	.LVL91:
 691              		.loc 2 384 0 discriminator 1
 692 0256 06EB8603 		add	r3, r6, r6, lsl #2
 693              	.LVL92:
 694              		.loc 2 383 0 discriminator 1
 695 025a 3039     		subs	r1, r1, #48
 696 025c 01EB4304 		add	r4, r1, r3, lsl #1
 697              	.LVL93:
 698              		.loc 2 384 0 discriminator 1
 699 0260 04EB8406 		add	r6, r4, r4, lsl #2
 700              	.LVL94:
 701              		.loc 2 386 0 discriminator 1
 702 0264 A2F13001 		sub	r1, r2, #48
 703              		.loc 2 388 0 discriminator 1
 704 0268 3038     		subs	r0, r0, #48
 705 026a 01EB4601 		add	r1, r1, r6, lsl #1
 706 026e FFF7FEFF 		bl	servo_set
 707              	.LVL95:
 708 0272 B1E7     		b	.L80
 709              	.L136:
 710              		.align	2
 711              	.L135:
 712 0274 00000000 		.word	.LC0
 713 0278 00000000 		.word	_scrollMtx
 714 027c 00000000 		.word	LCD
 715 0280 7C000000 		.word	.LC5
 716 0284 90000000 		.word	.LC6
 717 0288 68000000 		.word	.LC4
 718 028c 54000000 		.word	.LC3
 719 0290 40000000 		.word	.LC2
 720 0294 2C000000 		.word	.LC1
 721 0298 08030000 		.word	.LC32
 722 029c 00000000 		.word	.LANCHOR1
 723 02a0 00000000 		.word	.LANCHOR0
 724 02a4 A0010000 		.word	.LC22
 725 02a8 C4010000 		.word	.LC23
 726 02ac E8010000 		.word	.LC24
 727 02b0 14020000 		.word	.LC25
 728 02b4 30020000 		.word	.LC26
 729 02b8 50020000 		.word	.LC27
 730 02bc 90020000 		.word	.LC28
 731 02c0 C0020000 		.word	.LC29
ARM GAS  /var/folders/ng/s8655sgx1ys_4lf9jzm2w6n00000gn/T//ccwhj3mK.s 			page 14


 732 02c4 D8020000 		.word	.LC30
 733 02c8 F0020000 		.word	.LC31
 734              	.LVL96:
 735              	.L84:
 736              	.LBE3:
 737              	.LBB4:
 738              		.loc 2 396 0
 739 02cc 9DF80500 		ldrb	r0, [sp, #5]	@ zero_extendqisi2
 740 02d0 3038     		subs	r0, r0, #48
 741              	.LVL97:
 742              		.loc 2 397 0
 743 02d2 C0B2     		uxtb	r0, r0
 744              	.LVL98:
 745 02d4 FFF7FEFF 		bl	analog_get
 746              	.LVL99:
 747              		.loc 2 400 0
 748 02d8 44F6D352 		movw	r2, #19923
 749 02dc C1F26202 		movt	r2, 4194
 750 02e0 C317     		asrs	r3, r0, #31
 751 02e2 82FB0021 		smull	r2, r1, r2, r0
 752 02e6 C3EBA119 		rsb	r9, r3, r1, asr #6
 753              		.loc 2 397 0
 754 02ea 0446     		mov	r4, r0
 755              	.LVL100:
 756              		.loc 2 400 0
 757 02ec D8F80000 		ldr	r0, [r8, #0]
 758              	.LVL101:
 759 02f0 09F13002 		add	r2, r9, #48
 760 02f4 D1B2     		uxtb	r1, r2
 761 02f6 3030     		adds	r0, r0, #48
 762 02f8 4FF0FF32 		mov	r2, #-1
 763 02fc FFF7FEFF 		bl	chOQPutTimeout
 764              	.LVL102:
 765              		.loc 2 401 0
 766 0300 4FF47A71 		mov	r1, #1000
 767              		.loc 2 400 0
 768 0304 48F21F50 		movw	r0, #34079
 769              		.loc 2 401 0
 770 0308 01FB1949 		mls	r9, r1, r9, r4
 771              	.LVL103:
 772              		.loc 2 400 0
 773 030c C5F2EB10 		movt	r0, 20971
 774 0310 80FB0924 		smull	r2, r4, r0, r9
 775 0314 4FEAE973 		asr	r3, r9, #31
 776 0318 C3EB6414 		rsb	r4, r3, r4, asr #5
 777 031c D8F80000 		ldr	r0, [r8, #0]
 778 0320 04F13002 		add	r2, r4, #48
 779 0324 D1B2     		uxtb	r1, r2
 780 0326 3030     		adds	r0, r0, #48
 781 0328 4FF0FF32 		mov	r2, #-1
 782 032c FFF7FEFF 		bl	chOQPutTimeout
 783              	.LVL104:
 784              		.loc 2 401 0
 785 0330 6421     		movs	r1, #100
 786              		.loc 2 400 0
 787 0332 46F26760 		movw	r0, #26215
 788              		.loc 2 401 0
ARM GAS  /var/folders/ng/s8655sgx1ys_4lf9jzm2w6n00000gn/T//ccwhj3mK.s 			page 15


 789 0336 01FB1494 		mls	r4, r1, r4, r9
 790              	.LVL105:
 791              		.loc 2 400 0
 792 033a C6F26660 		movt	r0, 26214
 793 033e 80FB0423 		smull	r2, r3, r0, r4
 794 0342 E217     		asrs	r2, r4, #31
 795 0344 C2EBA309 		rsb	r9, r2, r3, asr #2
 796 0348 D8F80000 		ldr	r0, [r8, #0]
 797 034c 09F13001 		add	r1, r9, #48
 798 0350 C9B2     		uxtb	r1, r1
 799 0352 3030     		adds	r0, r0, #48
 800 0354 4FF0FF32 		mov	r2, #-1
 801 0358 FFF7FEFF 		bl	chOQPutTimeout
 802              	.LVL106:
 803              		.loc 2 401 0
 804 035c 09EB8903 		add	r3, r9, r9, lsl #2
 805 0360 A4EB4304 		sub	r4, r4, r3, lsl #1
 806              	.LVL107:
 807              		.loc 2 400 0
 808 0364 D8F80000 		ldr	r0, [r8, #0]
 809 0368 3034     		adds	r4, r4, #48
 810 036a E1B2     		uxtb	r1, r4
 811 036c 3030     		adds	r0, r0, #48
 812 036e 4FF0FF32 		mov	r2, #-1
 813 0372 FFF7FEFF 		bl	chOQPutTimeout
 814              	.LVL108:
 815              		.loc 2 404 0
 816 0376 D8F80000 		ldr	r0, [r8, #0]
 817 037a 0A21     		movs	r1, #10
 818 037c 3030     		adds	r0, r0, #48
 819 037e 4FF0FF32 		mov	r2, #-1
 820 0382 FFF7FEFF 		bl	chOQPutTimeout
 821              	.LVL109:
 822              		.loc 2 405 0
 823 0386 D8F80000 		ldr	r0, [r8, #0]
 824 038a 3146     		mov	r1, r6
 825 038c 3030     		adds	r0, r0, #48
 826 038e 4FF0FF32 		mov	r2, #-1
 827 0392 FFF7FEFF 		bl	chOQPutTimeout
 828              	.LVL110:
 829 0396 1FE7     		b	.L80
 830              	.LVL111:
 831              	.L44:
 832              	.LBE4:
 833              		.loc 2 249 0
 834 0398 FFF7FEFF 		bl	_motor_init
 835              	.LVL112:
 836              		.loc 2 61 0
 837 039c 0024     		movs	r4, #0
 838              		.loc 2 250 0
 839 039e FFF7FEFF 		bl	lcd_clear
 840              	.LVL113:
 841              		.loc 2 251 0
 842 03a2 9D48     		ldr	r0, .L137
 843 03a4 0121     		movs	r1, #1
 844 03a6 0222     		movs	r2, #2
 845 03a8 0E23     		movs	r3, #14
ARM GAS  /var/folders/ng/s8655sgx1ys_4lf9jzm2w6n00000gn/T//ccwhj3mK.s 			page 16


 846 03aa FFF7FEFF 		bl	scrollMessage
 847              	.LVL114:
 848              		.loc 2 62 0
 849 03ae 0126     		movs	r6, #1
 850              		.loc 2 252 0
 851 03b0 FFF7FEFF 		bl	scrollEnable
 852              	.LVL115:
 853              		.loc 2 60 0
 854 03b4 2546     		mov	r5, r4
 855              	.LVL116:
 856 03b6 10E0     		b	.L76
 857              	.LVL117:
 858              	.L126:
 859              		.loc 2 265 0
 860 03b8 9849     		ldr	r1, .L137+4
 861 03ba FFF7FEFF 		bl	chprintf.constprop.0
 862              	.LVL118:
 863              		.loc 2 269 0
 864 03be FFF7FEFF 		bl	chMtxUnlock
 865              	.LVL119:
 866              		.loc 2 271 0
 867 03c2 0020     		movs	r0, #0
 868 03c4 FFF7FEFF 		bl	button_get
 869              	.LVL120:
 870 03c8 68BB     		cbnz	r0, .L124
 871              	.L65:
 872              		.loc 2 285 0
 873 03ca 0120     		movs	r0, #1
 874 03cc FFF7FEFF 		bl	button_get
 875              	.LVL121:
 876 03d0 0028     		cmp	r0, #0
 877 03d2 3FD1     		bne	.L125
 878              	.LVL122:
 879              	.L68:
 880              		.loc 2 324 0
 881 03d4 3220     		movs	r0, #50
 882 03d6 FFF7FEFF 		bl	chThdSleep
 883              	.LVL123:
 884              	.L76:
 885              		.loc 2 256 0
 886 03da 9148     		ldr	r0, .L137+8
 887 03dc FFF7FEFF 		bl	chMtxLock
 888              	.LVL124:
 889              		.loc 2 257 0
 890 03e0 0020     		movs	r0, #0
 891 03e2 0146     		mov	r1, r0
 892 03e4 FFF7FEFF 		bl	lcd_cursor
 893              	.LVL125:
 894              		.loc 2 258 0
 895 03e8 2A46     		mov	r2, r5
 896 03ea 8E48     		ldr	r0, .L137+12
 897 03ec 8E49     		ldr	r1, .L137+16
 898 03ee FFF7FEFF 		bl	chprintf.constprop.0
 899              	.LVL126:
 900              		.loc 2 259 0
 901 03f2 0920     		movs	r0, #9
 902 03f4 0021     		movs	r1, #0
ARM GAS  /var/folders/ng/s8655sgx1ys_4lf9jzm2w6n00000gn/T//ccwhj3mK.s 			page 17


 903 03f6 FFF7FEFF 		bl	lcd_cursor
 904              	.LVL127:
 905              		.loc 2 260 0
 906 03fa 8A48     		ldr	r0, .L137+12
 907 03fc 8B49     		ldr	r1, .L137+20
 908 03fe 2246     		mov	r2, r4
 909 0400 FFF7FEFF 		bl	chprintf.constprop.0
 910              	.LVL128:
 911              		.loc 2 261 0
 912 0404 0020     		movs	r0, #0
 913 0406 0121     		movs	r1, #1
 914 0408 FFF7FEFF 		bl	lcd_cursor
 915              	.LVL129:
 916              		.loc 2 265 0
 917 040c 8548     		ldr	r0, .L137+12
 918              		.loc 2 263 0
 919 040e 002E     		cmp	r6, #0
 920 0410 D2D1     		bne	.L126
 921              		.loc 2 267 0
 922 0412 8749     		ldr	r1, .L137+24
 923 0414 FFF7FEFF 		bl	chprintf.constprop.0
 924              	.LVL130:
 925              		.loc 2 269 0
 926 0418 FFF7FEFF 		bl	chMtxUnlock
 927              	.LVL131:
 928              		.loc 2 271 0
 929 041c 0020     		movs	r0, #0
 930 041e FFF7FEFF 		bl	button_get
 931              	.LVL132:
 932 0422 0028     		cmp	r0, #0
 933 0424 D1D0     		beq	.L65
 934              	.L124:
 935              		.loc 2 273 0
 936 0426 1420     		movs	r0, #20
 937 0428 FFF7FEFF 		bl	chThdSleep
 938              	.LVL133:
 939              		.loc 2 276 0
 940 042c 01E0     		b	.L66
 941              	.LVL134:
 942              	.L67:
 943              		.loc 2 277 0
 944 042e FFF7FEFF 		bl	chThdSleep
 945              	.LVL135:
 946              	.L66:
 947              		.loc 2 276 0 discriminator 1
 948 0432 0020     		movs	r0, #0
 949 0434 FFF7FEFF 		bl	button_get
 950              	.LVL136:
 951 0438 0446     		mov	r4, r0
 952              		.loc 2 277 0 discriminator 1
 953 043a 0120     		movs	r0, #1
 954              		.loc 2 276 0 discriminator 1
 955 043c 002C     		cmp	r4, #0
 956 043e F6D1     		bne	.L67
 957              	.LVL137:
 958              		.loc 2 281 0
 959 0440 8542     		cmp	r5, r0
ARM GAS  /var/folders/ng/s8655sgx1ys_4lf9jzm2w6n00000gn/T//ccwhj3mK.s 			page 18


 960              		.loc 2 280 0
 961 0442 0ABF     		itet	eq
 962 0444 2546     		moveq	r5, r4
 963              	.LVL138:
 964              		.loc 2 281 0
 965 0446 0546     		movne	r5, r0
 966              		.loc 2 282 0
 967 0448 2C46     		moveq	r4, r5
 968              	.LVL139:
 969              		.loc 2 285 0
 970 044a 0120     		movs	r0, #1
 971 044c FFF7FEFF 		bl	button_get
 972              	.LVL140:
 973 0450 0028     		cmp	r0, #0
 974 0452 BFD0     		beq	.L68
 975              	.L125:
 976              		.loc 2 287 0
 977 0454 FA20     		movs	r0, #250
 978 0456 FFF7FEFF 		bl	chThdSleep
 979              	.LVL141:
 980              		.loc 2 288 0
 981 045a 0120     		movs	r0, #1
 982 045c FFF7FEFF 		bl	button_get
 983              	.LVL142:
 984 0460 0746     		mov	r7, r0
 985 0462 48B3     		cbz	r0, .L127
 986 0464 6FF06307 		mvn	r7, #99
 987 0468 18E0     		b	.L119
 988              	.LVL143:
 989              	.L128:
 990 046a 642A     		cmp	r2, #100
 991 046c B4BF     		ite	lt
 992 046e 1446     		movlt	r4, r2
 993 0470 6424     		movge	r4, #100
 994              	.L74:
 995              	.LVL144:
 996              		.loc 2 314 0
 997 0472 6B48     		ldr	r0, .L137+8
 998 0474 FFF7FEFF 		bl	chMtxLock
 999              	.LVL145:
 1000              		.loc 2 315 0
 1001 0478 0920     		movs	r0, #9
 1002 047a 0021     		movs	r1, #0
 1003 047c FFF7FEFF 		bl	lcd_cursor
 1004              	.LVL146:
 1005              		.loc 2 316 0
 1006 0480 2246     		mov	r2, r4
 1007 0482 6C49     		ldr	r1, .L137+28
 1008 0484 6748     		ldr	r0, .L137+12
 1009 0486 FFF7FEFF 		bl	chprintf.constprop.0
 1010              	.LVL147:
 1011              		.loc 2 317 0
 1012 048a FFF7FEFF 		bl	chMtxUnlock
 1013              	.LVL148:
 1014              		.loc 2 318 0
 1015 048e 2846     		mov	r0, r5
 1016 0490 2146     		mov	r1, r4
ARM GAS  /var/folders/ng/s8655sgx1ys_4lf9jzm2w6n00000gn/T//ccwhj3mK.s 			page 19


 1017 0492 FFF7FEFF 		bl	motor_set
 1018              	.LVL149:
 1019              		.loc 2 319 0
 1020 0496 4B20     		movs	r0, #75
 1021 0498 FFF7FEFF 		bl	chThdSleep
 1022              	.LVL150:
 1023              	.L119:
 1024              		.loc 2 301 0 discriminator 1
 1025 049c 0120     		movs	r0, #1
 1026 049e FFF7FEFF 		bl	button_get
 1027              	.LVL151:
 1028              		.loc 2 305 0 discriminator 1
 1029 04a2 621C     		adds	r2, r4, #1
 1030              	.LVL152:
 1031              		.loc 2 309 0 discriminator 1
 1032 04a4 611E     		subs	r1, r4, #1
 1033              	.LVL153:
 1034              		.loc 2 301 0 discriminator 1
 1035 04a6 0028     		cmp	r0, #0
 1036 04a8 94D0     		beq	.L68
 1037              		.loc 2 303 0
 1038 04aa 002E     		cmp	r6, #0
 1039 04ac DDD1     		bne	.L128
 1040 04ae B942     		cmp	r1, r7
 1041 04b0 ACBF     		ite	ge
 1042 04b2 0C46     		movge	r4, r1
 1043 04b4 3C46     		movlt	r4, r7
 1044 04b6 DCE7     		b	.L74
 1045              	.LVL154:
 1046              	.L127:
 1047              		.loc 2 291 0
 1048 04b8 5948     		ldr	r0, .L137+8
 1049 04ba FFF7FEFF 		bl	chMtxLock
 1050              	.LVL155:
 1051 04be 86F00106 		eor	r6, r6, #1
 1052              	.LVL156:
 1053              		.loc 2 292 0
 1054 04c2 3846     		mov	r0, r7
 1055 04c4 0121     		movs	r1, #1
 1056 04c6 FFF7FEFF 		bl	lcd_cursor
 1057              	.LVL157:
 1058              		.loc 2 295 0
 1059 04ca 5648     		ldr	r0, .L137+12
 1060              		.loc 2 293 0
 1061 04cc 2EB1     		cbz	r6, .L71
 1062              		.loc 2 295 0
 1063 04ce 5349     		ldr	r1, .L137+4
 1064 04d0 FFF7FEFF 		bl	chprintf.constprop.0
 1065              	.LVL158:
 1066              	.L72:
 1067              		.loc 2 299 0
 1068 04d4 FFF7FEFF 		bl	chMtxUnlock
 1069              	.LVL159:
 1070 04d8 7CE7     		b	.L68
 1071              	.L71:
 1072              		.loc 2 297 0
 1073 04da 5549     		ldr	r1, .L137+24
ARM GAS  /var/folders/ng/s8655sgx1ys_4lf9jzm2w6n00000gn/T//ccwhj3mK.s 			page 20


 1074 04dc FFF7FEFF 		bl	chprintf.constprop.0
 1075              	.LVL160:
 1076 04e0 F8E7     		b	.L72
 1077              	.LVL161:
 1078              	.L43:
 1079              		.loc 2 175 0
 1080 04e2 FFF7FEFF 		bl	_servo_init
 1081              	.LVL162:
 1082              		.loc 2 176 0
 1083 04e6 FFF7FEFF 		bl	lcd_clear
 1084              	.LVL163:
 1085              		.loc 2 177 0
 1086 04ea 5348     		ldr	r0, .L137+32
 1087 04ec 0121     		movs	r1, #1
 1088 04ee 0222     		movs	r2, #2
 1089 04f0 0E23     		movs	r3, #14
 1090 04f2 FFF7FEFF 		bl	scrollMessage
 1091              	.LVL164:
 1092              		.loc 2 59 0
 1093 04f6 0126     		movs	r6, #1
 1094              		.loc 2 178 0
 1095 04f8 FFF7FEFF 		bl	scrollEnable
 1096              	.LVL165:
 1097              		.loc 2 58 0
 1098 04fc 4B24     		movs	r4, #75
 1099              		.loc 2 57 0
 1100 04fe 0025     		movs	r5, #0
 1101              	.LVL166:
 1102 0500 10E0     		b	.L62
 1103              	.LVL167:
 1104              	.L131:
 1105              		.loc 2 191 0
 1106 0502 4649     		ldr	r1, .L137+4
 1107 0504 FFF7FEFF 		bl	chprintf.constprop.0
 1108              	.LVL168:
 1109              		.loc 2 195 0
 1110 0508 FFF7FEFF 		bl	chMtxUnlock
 1111              	.LVL169:
 1112              		.loc 2 197 0
 1113 050c 0020     		movs	r0, #0
 1114 050e FFF7FEFF 		bl	button_get
 1115              	.LVL170:
 1116 0512 68BB     		cbnz	r0, .L129
 1117              	.L51:
 1118              		.loc 2 211 0
 1119 0514 0120     		movs	r0, #1
 1120 0516 FFF7FEFF 		bl	button_get
 1121              	.LVL171:
 1122 051a 0028     		cmp	r0, #0
 1123 051c 3FD1     		bne	.L130
 1124              	.L54:
 1125              		.loc 2 244 0
 1126 051e 3220     		movs	r0, #50
 1127 0520 FFF7FEFF 		bl	chThdSleep
 1128              	.LVL172:
 1129              	.L62:
 1130              		.loc 2 182 0
ARM GAS  /var/folders/ng/s8655sgx1ys_4lf9jzm2w6n00000gn/T//ccwhj3mK.s 			page 21


 1131 0524 3E48     		ldr	r0, .L137+8
 1132 0526 FFF7FEFF 		bl	chMtxLock
 1133              	.LVL173:
 1134              		.loc 2 183 0
 1135 052a 0020     		movs	r0, #0
 1136 052c 0146     		mov	r1, r0
 1137 052e FFF7FEFF 		bl	lcd_cursor
 1138              	.LVL174:
 1139              		.loc 2 184 0
 1140 0532 2A46     		mov	r2, r5
 1141 0534 3B48     		ldr	r0, .L137+12
 1142 0536 4149     		ldr	r1, .L137+36
 1143 0538 FFF7FEFF 		bl	chprintf.constprop.0
 1144              	.LVL175:
 1145              		.loc 2 185 0
 1146 053c 0920     		movs	r0, #9
 1147 053e 0021     		movs	r1, #0
 1148 0540 FFF7FEFF 		bl	lcd_cursor
 1149              	.LVL176:
 1150              		.loc 2 186 0
 1151 0544 3748     		ldr	r0, .L137+12
 1152 0546 3E49     		ldr	r1, .L137+40
 1153 0548 2246     		mov	r2, r4
 1154 054a FFF7FEFF 		bl	chprintf.constprop.0
 1155              	.LVL177:
 1156              		.loc 2 187 0
 1157 054e 0020     		movs	r0, #0
 1158 0550 0121     		movs	r1, #1
 1159 0552 FFF7FEFF 		bl	lcd_cursor
 1160              	.LVL178:
 1161              		.loc 2 191 0
 1162 0556 3348     		ldr	r0, .L137+12
 1163              		.loc 2 189 0
 1164 0558 002E     		cmp	r6, #0
 1165 055a D2D1     		bne	.L131
 1166              		.loc 2 193 0
 1167 055c 3449     		ldr	r1, .L137+24
 1168 055e FFF7FEFF 		bl	chprintf.constprop.0
 1169              	.LVL179:
 1170              		.loc 2 195 0
 1171 0562 FFF7FEFF 		bl	chMtxUnlock
 1172              	.LVL180:
 1173              		.loc 2 197 0
 1174 0566 0020     		movs	r0, #0
 1175 0568 FFF7FEFF 		bl	button_get
 1176              	.LVL181:
 1177 056c 0028     		cmp	r0, #0
 1178 056e D1D0     		beq	.L51
 1179              	.L129:
 1180              		.loc 2 199 0
 1181 0570 1420     		movs	r0, #20
 1182 0572 FFF7FEFF 		bl	chThdSleep
 1183              	.LVL182:
 1184              		.loc 2 202 0
 1185 0576 01E0     		b	.L52
 1186              	.L53:
 1187              		.loc 2 203 0
ARM GAS  /var/folders/ng/s8655sgx1ys_4lf9jzm2w6n00000gn/T//ccwhj3mK.s 			page 22


 1188 0578 FFF7FEFF 		bl	chThdSleep
 1189              	.LVL183:
 1190              	.L52:
 1191              		.loc 2 202 0 discriminator 1
 1192 057c 0020     		movs	r0, #0
 1193 057e FFF7FEFF 		bl	button_get
 1194              	.LVL184:
 1195 0582 0346     		mov	r3, r0
 1196              		.loc 2 203 0 discriminator 1
 1197 0584 0120     		movs	r0, #1
 1198              		.loc 2 202 0 discriminator 1
 1199 0586 002B     		cmp	r3, #0
 1200 0588 F6D1     		bne	.L53
 1201              		.loc 2 205 0
 1202 058a 2D18     		adds	r5, r5, r0
 1203              	.LVL185:
 1204              		.loc 2 206 0
 1205 058c 4B24     		movs	r4, #75
 1206              		.loc 2 207 0
 1207 058e 072D     		cmp	r5, #7
 1208              		.loc 2 208 0
 1209 0590 C8BF     		it	gt
 1210 0592 1D46     		movgt	r5, r3
 1211              	.LVL186:
 1212              		.loc 2 211 0
 1213 0594 0120     		movs	r0, #1
 1214 0596 FFF7FEFF 		bl	button_get
 1215              	.LVL187:
 1216 059a 0028     		cmp	r0, #0
 1217 059c BFD0     		beq	.L54
 1218              	.L130:
 1219              		.loc 2 213 0
 1220 059e FA20     		movs	r0, #250
 1221 05a0 FFF7FEFF 		bl	chThdSleep
 1222              	.LVL188:
 1223              		.loc 2 214 0
 1224 05a4 0120     		movs	r0, #1
 1225 05a6 FFF7FEFF 		bl	button_get
 1226              	.LVL189:
 1227 05aa 0746     		mov	r7, r0
 1228 05ac B0B9     		cbnz	r0, .L117
 1229 05ae 1EE0     		b	.L134
 1230              	.L133:
 1231              		.loc 2 230 0
 1232 05b0 0134     		adds	r4, r4, #1
 1233              	.LVL190:
 1234              	.L60:
 1235              		.loc 2 234 0
 1236 05b2 1B48     		ldr	r0, .L137+8
 1237 05b4 FFF7FEFF 		bl	chMtxLock
 1238              	.LVL191:
 1239              		.loc 2 235 0
 1240 05b8 0920     		movs	r0, #9
 1241 05ba 0021     		movs	r1, #0
 1242 05bc FFF7FEFF 		bl	lcd_cursor
 1243              	.LVL192:
 1244              		.loc 2 236 0
ARM GAS  /var/folders/ng/s8655sgx1ys_4lf9jzm2w6n00000gn/T//ccwhj3mK.s 			page 23


 1245 05c0 2246     		mov	r2, r4
 1246 05c2 2049     		ldr	r1, .L137+44
 1247 05c4 1748     		ldr	r0, .L137+12
 1248 05c6 FFF7FEFF 		bl	chprintf.constprop.0
 1249              	.LVL193:
 1250              		.loc 2 237 0
 1251 05ca FFF7FEFF 		bl	chMtxUnlock
 1252              	.LVL194:
 1253              		.loc 2 238 0
 1254 05ce 2846     		mov	r0, r5
 1255 05d0 2146     		mov	r1, r4
 1256 05d2 FFF7FEFF 		bl	servo_set
 1257              	.LVL195:
 1258              		.loc 2 239 0
 1259 05d6 AF20     		movs	r0, #175
 1260 05d8 FFF7FEFF 		bl	chThdSleep
 1261              	.LVL196:
 1262              	.L117:
 1263              		.loc 2 227 0 discriminator 1
 1264 05dc 0120     		movs	r0, #1
 1265 05de FFF7FEFF 		bl	button_get
 1266              	.LVL197:
 1267 05e2 0028     		cmp	r0, #0
 1268 05e4 9BD0     		beq	.L54
 1269              		.loc 2 229 0
 1270 05e6 002E     		cmp	r6, #0
 1271 05e8 E2D1     		bne	.L133
 1272              		.loc 2 232 0
 1273 05ea 013C     		subs	r4, r4, #1
 1274              	.LVL198:
 1275 05ec E1E7     		b	.L60
 1276              	.L134:
 1277              		.loc 2 217 0
 1278 05ee 0C48     		ldr	r0, .L137+8
 1279 05f0 FFF7FEFF 		bl	chMtxLock
 1280              	.LVL199:
 1281 05f4 86F00106 		eor	r6, r6, #1
 1282              	.LVL200:
 1283              		.loc 2 218 0
 1284 05f8 3846     		mov	r0, r7
 1285 05fa 0121     		movs	r1, #1
 1286 05fc FFF7FEFF 		bl	lcd_cursor
 1287              	.LVL201:
 1288              		.loc 2 221 0
 1289 0600 0848     		ldr	r0, .L137+12
 1290              		.loc 2 219 0
 1291 0602 2EB1     		cbz	r6, .L57
 1292              		.loc 2 221 0
 1293 0604 0549     		ldr	r1, .L137+4
 1294 0606 FFF7FEFF 		bl	chprintf.constprop.0
 1295              	.LVL202:
 1296              	.L58:
 1297              		.loc 2 225 0
 1298 060a FFF7FEFF 		bl	chMtxUnlock
 1299              	.LVL203:
 1300 060e 86E7     		b	.L54
 1301              	.L57:
ARM GAS  /var/folders/ng/s8655sgx1ys_4lf9jzm2w6n00000gn/T//ccwhj3mK.s 			page 24


 1302              		.loc 2 223 0
 1303 0610 0749     		ldr	r1, .L137+24
 1304 0612 FFF7FEFF 		bl	chprintf.constprop.0
 1305              	.LVL204:
 1306 0616 F8E7     		b	.L58
 1307              	.L138:
 1308              		.align	2
 1309              	.L137:
 1310 0618 30010000 		.word	.LC18
 1311 061c 1C010000 		.word	.LC15
 1312 0620 00000000 		.word	_scrollMtx
 1313 0624 00000000 		.word	LCD
 1314 0628 80010000 		.word	.LC19
 1315 062c 8C010000 		.word	.LC20
 1316 0630 20010000 		.word	.LC16
 1317 0634 94010000 		.word	.LC21
 1318 0638 B8000000 		.word	.LC12
 1319 063c 08010000 		.word	.LC13
 1320 0640 14010000 		.word	.LC14
 1321 0644 24010000 		.word	.LC17
 1322              	.LVL205:
 1323              	.L42:
 1324              		.loc 2 155 0
 1325 0648 FFF7FEFF 		bl	lcd_clear
 1326              	.LVL206:
 1327              		.loc 2 156 0
 1328 064c 0020     		movs	r0, #0
 1329 064e 0121     		movs	r1, #1
 1330 0650 FFF7FEFF 		bl	lcd_cursor
 1331              	.LVL207:
 1332              		.loc 2 157 0
 1333 0654 7148     		ldr	r0, .L139
 1334 0656 7249     		ldr	r1, .L139+4
 1335 0658 FFF7FEFF 		bl	chprintf.constprop.0
 1336              	.LVL208:
 1337              		.loc 2 158 0
 1338 065c 0720     		movs	r0, #7
 1339 065e 0121     		movs	r1, #1
 1340 0660 FFF7FEFF 		bl	lcd_cursor
 1341              	.LVL209:
 1342              		.loc 2 159 0
 1343 0664 6D48     		ldr	r0, .L139
 1344 0666 6F49     		ldr	r1, .L139+8
 1345 0668 FFF7FEFF 		bl	chprintf.constprop.0
 1346              	.LVL210:
 1347              		.loc 2 160 0
 1348 066c 0E20     		movs	r0, #14
 1349 066e 0121     		movs	r1, #1
 1350 0670 FFF7FEFF 		bl	lcd_cursor
 1351              	.LVL211:
 1352              		.loc 2 161 0
 1353 0674 6948     		ldr	r0, .L139
 1354 0676 6C49     		ldr	r1, .L139+12
 1355 0678 FFF7FEFF 		bl	chprintf.constprop.0
 1356              	.LVL212:
 1357              	.L48:
 1358              		.loc 2 165 0
ARM GAS  /var/folders/ng/s8655sgx1ys_4lf9jzm2w6n00000gn/T//ccwhj3mK.s 			page 25


 1359 067c 0020     		movs	r0, #0
 1360 067e 0146     		mov	r1, r0
 1361 0680 FFF7FEFF 		bl	lcd_cursor
 1362              	.LVL213:
 1363              		.loc 2 168 0
 1364 0684 0020     		movs	r0, #0
 1365 0686 FFF7FEFF 		bl	digital_get
 1366              	.LVL214:
 1367 068a 6849     		ldr	r1, .L139+16
 1368 068c 0246     		mov	r2, r0
 1369 068e 6348     		ldr	r0, .L139
 1370 0690 FFF7FEFF 		bl	chprintf.constprop.0
 1371              	.LVL215:
 1372 0694 0120     		movs	r0, #1
 1373 0696 FFF7FEFF 		bl	digital_get
 1374              	.LVL216:
 1375 069a 6449     		ldr	r1, .L139+16
 1376 069c 0246     		mov	r2, r0
 1377 069e 5F48     		ldr	r0, .L139
 1378 06a0 FFF7FEFF 		bl	chprintf.constprop.0
 1379              	.LVL217:
 1380 06a4 0220     		movs	r0, #2
 1381 06a6 FFF7FEFF 		bl	digital_get
 1382              	.LVL218:
 1383 06aa 6049     		ldr	r1, .L139+16
 1384 06ac 0246     		mov	r2, r0
 1385 06ae 5B48     		ldr	r0, .L139
 1386 06b0 FFF7FEFF 		bl	chprintf.constprop.0
 1387              	.LVL219:
 1388 06b4 0320     		movs	r0, #3
 1389 06b6 FFF7FEFF 		bl	digital_get
 1390              	.LVL220:
 1391 06ba 5C49     		ldr	r1, .L139+16
 1392 06bc 0246     		mov	r2, r0
 1393 06be 5748     		ldr	r0, .L139
 1394 06c0 FFF7FEFF 		bl	chprintf.constprop.0
 1395              	.LVL221:
 1396 06c4 0420     		movs	r0, #4
 1397 06c6 FFF7FEFF 		bl	digital_get
 1398              	.LVL222:
 1399 06ca 5849     		ldr	r1, .L139+16
 1400 06cc 0246     		mov	r2, r0
 1401 06ce 5348     		ldr	r0, .L139
 1402 06d0 FFF7FEFF 		bl	chprintf.constprop.0
 1403              	.LVL223:
 1404 06d4 0520     		movs	r0, #5
 1405 06d6 FFF7FEFF 		bl	digital_get
 1406              	.LVL224:
 1407 06da 5449     		ldr	r1, .L139+16
 1408 06dc 0246     		mov	r2, r0
 1409 06de 4F48     		ldr	r0, .L139
 1410 06e0 FFF7FEFF 		bl	chprintf.constprop.0
 1411              	.LVL225:
 1412 06e4 0620     		movs	r0, #6
 1413 06e6 FFF7FEFF 		bl	digital_get
 1414              	.LVL226:
 1415 06ea 5049     		ldr	r1, .L139+16
ARM GAS  /var/folders/ng/s8655sgx1ys_4lf9jzm2w6n00000gn/T//ccwhj3mK.s 			page 26


 1416 06ec 0246     		mov	r2, r0
 1417 06ee 4B48     		ldr	r0, .L139
 1418 06f0 FFF7FEFF 		bl	chprintf.constprop.0
 1419              	.LVL227:
 1420 06f4 0720     		movs	r0, #7
 1421 06f6 FFF7FEFF 		bl	digital_get
 1422              	.LVL228:
 1423 06fa 4C49     		ldr	r1, .L139+16
 1424 06fc 0246     		mov	r2, r0
 1425 06fe 4748     		ldr	r0, .L139
 1426 0700 FFF7FEFF 		bl	chprintf.constprop.0
 1427              	.LVL229:
 1428 0704 0820     		movs	r0, #8
 1429 0706 FFF7FEFF 		bl	digital_get
 1430              	.LVL230:
 1431 070a 4849     		ldr	r1, .L139+16
 1432 070c 0246     		mov	r2, r0
 1433 070e 4348     		ldr	r0, .L139
 1434 0710 FFF7FEFF 		bl	chprintf.constprop.0
 1435              	.LVL231:
 1436 0714 0920     		movs	r0, #9
 1437 0716 FFF7FEFF 		bl	digital_get
 1438              	.LVL232:
 1439 071a 4449     		ldr	r1, .L139+16
 1440 071c 0246     		mov	r2, r0
 1441 071e 3F48     		ldr	r0, .L139
 1442 0720 FFF7FEFF 		bl	chprintf.constprop.0
 1443              	.LVL233:
 1444 0724 0A20     		movs	r0, #10
 1445 0726 FFF7FEFF 		bl	digital_get
 1446              	.LVL234:
 1447 072a 4049     		ldr	r1, .L139+16
 1448 072c 0246     		mov	r2, r0
 1449 072e 3B48     		ldr	r0, .L139
 1450 0730 FFF7FEFF 		bl	chprintf.constprop.0
 1451              	.LVL235:
 1452 0734 0B20     		movs	r0, #11
 1453 0736 FFF7FEFF 		bl	digital_get
 1454              	.LVL236:
 1455 073a 3C49     		ldr	r1, .L139+16
 1456 073c 0246     		mov	r2, r0
 1457 073e 3748     		ldr	r0, .L139
 1458 0740 FFF7FEFF 		bl	chprintf.constprop.0
 1459              	.LVL237:
 1460 0744 0C20     		movs	r0, #12
 1461 0746 FFF7FEFF 		bl	digital_get
 1462              	.LVL238:
 1463 074a 3849     		ldr	r1, .L139+16
 1464 074c 0246     		mov	r2, r0
 1465 074e 3348     		ldr	r0, .L139
 1466 0750 FFF7FEFF 		bl	chprintf.constprop.0
 1467              	.LVL239:
 1468 0754 0D20     		movs	r0, #13
 1469 0756 FFF7FEFF 		bl	digital_get
 1470              	.LVL240:
 1471 075a 3449     		ldr	r1, .L139+16
 1472 075c 0246     		mov	r2, r0
ARM GAS  /var/folders/ng/s8655sgx1ys_4lf9jzm2w6n00000gn/T//ccwhj3mK.s 			page 27


 1473 075e 2F48     		ldr	r0, .L139
 1474 0760 FFF7FEFF 		bl	chprintf.constprop.0
 1475              	.LVL241:
 1476 0764 0E20     		movs	r0, #14
 1477 0766 FFF7FEFF 		bl	digital_get
 1478              	.LVL242:
 1479 076a 3049     		ldr	r1, .L139+16
 1480 076c 0246     		mov	r2, r0
 1481 076e 2B48     		ldr	r0, .L139
 1482 0770 FFF7FEFF 		bl	chprintf.constprop.0
 1483              	.LVL243:
 1484              		.loc 2 170 0
 1485 0774 6420     		movs	r0, #100
 1486 0776 FFF7FEFF 		bl	chThdSleep
 1487              	.LVL244:
 1488 077a 7FE7     		b	.L48
 1489              	.LVL245:
 1490              	.L41:
 1491              		.loc 2 133 0
 1492 077c FFF7FEFF 		bl	_analog_init
 1493              	.LVL246:
 1494              	.L47:
 1495              		.loc 2 137 0
 1496 0780 FFF7FEFF 		bl	lcd_clear
 1497              	.LVL247:
 1498              		.loc 2 138 0
 1499 0784 0020     		movs	r0, #0
 1500 0786 0146     		mov	r1, r0
 1501 0788 FFF7FEFF 		bl	lcd_cursor
 1502              	.LVL248:
 1503              		.loc 2 141 0
 1504 078c 0020     		movs	r0, #0
 1505 078e FFF7FEFF 		bl	analog_get
 1506              	.LVL249:
 1507 0792 2749     		ldr	r1, .L139+20
 1508 0794 0246     		mov	r2, r0
 1509 0796 2148     		ldr	r0, .L139
 1510 0798 FFF7FEFF 		bl	chprintf.constprop.0
 1511              	.LVL250:
 1512 079c 0120     		movs	r0, #1
 1513 079e FFF7FEFF 		bl	analog_get
 1514              	.LVL251:
 1515 07a2 2349     		ldr	r1, .L139+20
 1516 07a4 0246     		mov	r2, r0
 1517 07a6 1D48     		ldr	r0, .L139
 1518 07a8 FFF7FEFF 		bl	chprintf.constprop.0
 1519              	.LVL252:
 1520 07ac 0220     		movs	r0, #2
 1521 07ae FFF7FEFF 		bl	analog_get
 1522              	.LVL253:
 1523 07b2 1F49     		ldr	r1, .L139+20
 1524 07b4 0246     		mov	r2, r0
 1525 07b6 1948     		ldr	r0, .L139
 1526 07b8 FFF7FEFF 		bl	chprintf.constprop.0
 1527              	.LVL254:
 1528 07bc 0320     		movs	r0, #3
 1529 07be FFF7FEFF 		bl	analog_get
ARM GAS  /var/folders/ng/s8655sgx1ys_4lf9jzm2w6n00000gn/T//ccwhj3mK.s 			page 28


 1530              	.LVL255:
 1531 07c2 1B49     		ldr	r1, .L139+20
 1532 07c4 0246     		mov	r2, r0
 1533 07c6 1548     		ldr	r0, .L139
 1534 07c8 FFF7FEFF 		bl	chprintf.constprop.0
 1535              	.LVL256:
 1536              		.loc 2 144 0
 1537 07cc 0121     		movs	r1, #1
 1538 07ce 0020     		movs	r0, #0
 1539 07d0 FFF7FEFF 		bl	lcd_cursor
 1540              	.LVL257:
 1541              		.loc 2 147 0
 1542 07d4 0420     		movs	r0, #4
 1543 07d6 FFF7FEFF 		bl	analog_get
 1544              	.LVL258:
 1545 07da 1549     		ldr	r1, .L139+20
 1546 07dc 0246     		mov	r2, r0
 1547 07de 0F48     		ldr	r0, .L139
 1548 07e0 FFF7FEFF 		bl	chprintf.constprop.0
 1549              	.LVL259:
 1550 07e4 0520     		movs	r0, #5
 1551 07e6 FFF7FEFF 		bl	analog_get
 1552              	.LVL260:
 1553 07ea 1149     		ldr	r1, .L139+20
 1554 07ec 0246     		mov	r2, r0
 1555 07ee 0B48     		ldr	r0, .L139
 1556 07f0 FFF7FEFF 		bl	chprintf.constprop.0
 1557              	.LVL261:
 1558 07f4 0620     		movs	r0, #6
 1559 07f6 FFF7FEFF 		bl	analog_get
 1560              	.LVL262:
 1561 07fa 0D49     		ldr	r1, .L139+20
 1562 07fc 0246     		mov	r2, r0
 1563 07fe 0748     		ldr	r0, .L139
 1564 0800 FFF7FEFF 		bl	chprintf.constprop.0
 1565              	.LVL263:
 1566 0804 0720     		movs	r0, #7
 1567 0806 FFF7FEFF 		bl	analog_get
 1568              	.LVL264:
 1569 080a 0949     		ldr	r1, .L139+20
 1570 080c 0246     		mov	r2, r0
 1571 080e 0348     		ldr	r0, .L139
 1572 0810 FFF7FEFF 		bl	chprintf.constprop.0
 1573              	.LVL265:
 1574              		.loc 2 150 0
 1575 0814 6420     		movs	r0, #100
 1576 0816 FFF7FEFF 		bl	chThdSleep
 1577              	.LVL266:
 1578 081a B1E7     		b	.L47
 1579              	.L140:
 1580              		.align	2
 1581              	.L139:
 1582 081c 00000000 		.word	LCD
 1583 0820 A8000000 		.word	.LC8
 1584 0824 AC000000 		.word	.LC9
 1585 0828 B0000000 		.word	.LC10
 1586 082c B4000000 		.word	.LC11
ARM GAS  /var/folders/ng/s8655sgx1ys_4lf9jzm2w6n00000gn/T//ccwhj3mK.s 			page 29


 1587 0830 A4000000 		.word	.LC7
 1588              		.cfi_endproc
 1589              	.LFE124:
 1590              		.size	runTests, .-runTests
 1591 0834 AFF30080 		.section	.text.startup.main,"ax",%progbits
 1591      AFF30080 
 1591      AFF30080 
 1592              		.align	2
 1593              		.p2align 4,,15
 1594              		.global	main
 1595              		.thumb
 1596              		.thumb_func
 1597              		.type	main, %function
 1598              	main:
 1599              	.LFB122:
 1600              		.loc 2 38 0
 1601              		.cfi_startproc
 1602              		@ Volatile: function does not return.
 1603              		@ args = 0, pretend = 0, frame = 0
 1604              		@ frame_needed = 0, uses_anonymous_args = 0
 1605 0000 08B5     		push	{r3, lr}
 1606              	.LCFI7:
 1607              		.cfi_def_cfa_offset 8
 1608              		.cfi_offset 3, -8
 1609              		.cfi_offset 14, -4
 1610              		.loc 2 39 0
 1611 0002 FFF7FEFF 		bl	runTests
 1612              	.LVL267:
 1613              		.cfi_endproc
 1614              	.LFE122:
 1615              		.size	main, .-main
 1616              		.global	_buffer
 1617              		.global	_interface
 1618              		.global	_interfaces
 1619 0006 00BFAFF3 		.section	.bss._buffer,"aw",%nobits
 1619      0080AFF3 
 1619      0080
 1620              		.align	2
 1621              		.type	_buffer, %object
 1622              		.size	_buffer, 1024
 1623              	_buffer:
 1624 0000 00000000 		.space	1024
 1624      00000000 
 1624      00000000 
 1624      00000000 
 1624      00000000 
 1625              		.section	.bss._interface,"aw",%nobits
 1626              		.align	2
 1627              		.set	.LANCHOR0,. + 0
 1628              		.type	_interface, %object
 1629              		.size	_interface, 4
 1630              	_interface:
 1631 0000 00000000 		.space	4
 1632              		.section	.data._interfaces,"aw",%progbits
 1633              		.align	2
 1634              		.set	.LANCHOR1,. + 0
 1635              		.type	_interfaces, %object
ARM GAS  /var/folders/ng/s8655sgx1ys_4lf9jzm2w6n00000gn/T//ccwhj3mK.s 			page 30


 1636              		.size	_interfaces, 12
 1637              	_interfaces:
 1638 0000 00000000 		.word	SD1
 1639 0004 00000000 		.word	SD2
 1640 0008 00000000 		.word	SDU1
 1641              		.section	.rodata.str1.4,"aMS",%progbits,1
 1642              		.align	2
 1643              	.LC0:
 1644 0000 50726573 		.ascii	"Press BTN0 for next option, BTN1 to select\000"
 1644      73204254 
 1644      4E302066 
 1644      6F72206E 
 1644      65787420 
 1645 002b 00       		.space	1
 1646              	.LC1:
 1647 002c 416E616C 		.ascii	"Analog Test  1/6\000"
 1647      6F672054 
 1647      65737420 
 1647      20312F36 
 1647      00
 1648 003d 000000   		.space	3
 1649              	.LC2:
 1650 0040 44696769 		.ascii	"Digital Test 2/6\000"
 1650      74616C20 
 1650      54657374 
 1650      20322F36 
 1650      00
 1651 0051 000000   		.space	3
 1652              	.LC3:
 1653 0054 53657276 		.ascii	"Servo Test   3/6\000"
 1653      6F205465 
 1653      73742020 
 1653      20332F36 
 1653      00
 1654 0065 000000   		.space	3
 1655              	.LC4:
 1656 0068 4D6F746F 		.ascii	"Motor Test   4/6\000"
 1656      72205465 
 1656      73742020 
 1656      20342F36 
 1656      00
 1657 0079 000000   		.space	3
 1658              	.LC5:
 1659 007c 5465726D 		.ascii	"Terminal     5/6\000"
 1659      696E616C 
 1659      20202020 
 1659      20352F36 
 1659      00
 1660 008d 000000   		.space	3
 1661              	.LC6:
 1662 0090 4669726D 		.ascii	"Firmware Date6/6\000"
 1662      77617265 
 1662      20446174 
 1662      65362F36 
 1662      00
 1663 00a1 000000   		.space	3
 1664              	.LC7:
ARM GAS  /var/folders/ng/s8655sgx1ys_4lf9jzm2w6n00000gn/T//ccwhj3mK.s 			page 31


 1665 00a4 25346400 		.ascii	"%4d\000"
 1666              	.LC8:
 1667 00a8 3000     		.ascii	"0\000"
 1668 00aa 0000     		.space	2
 1669              	.LC9:
 1670 00ac 3700     		.ascii	"7\000"
 1671 00ae 0000     		.space	2
 1672              	.LC10:
 1673 00b0 313400   		.ascii	"14\000"
 1674 00b3 00       		.space	1
 1675              	.LC11:
 1676 00b4 256400   		.ascii	"%d\000"
 1677 00b7 00       		.space	1
 1678              	.LC12:
 1679 00b8 50726573 		.ascii	"Press BTN0 to change servo, tap BTN1 for direction,"
 1679      73204254 
 1679      4E302074 
 1679      6F206368 
 1679      616E6765 
 1680 00eb 20686F6C 		.ascii	" hold BTN1 to change value\000"
 1680      64204254 
 1680      4E312074 
 1680      6F206368 
 1680      616E6765 
 1681 0106 0000     		.space	2
 1682              	.LC13:
 1683 0108 53657276 		.ascii	"Servo: %d\000"
 1683      6F3A2025 
 1683      6400
 1684 0112 0000     		.space	2
 1685              	.LC14:
 1686 0114 506F733A 		.ascii	"Pos: %d\000"
 1686      20256400 
 1687              	.LC15:
 1688 011c 2B00     		.ascii	"+\000"
 1689 011e 0000     		.space	2
 1690              	.LC16:
 1691 0120 2D00     		.ascii	"-\000"
 1692 0122 0000     		.space	2
 1693              	.LC17:
 1694 0124 506F733A 		.ascii	"Pos: %d\012\000"
 1694      2025640A 
 1694      00
 1695 012d 000000   		.space	3
 1696              	.LC18:
 1697 0130 50726573 		.ascii	"Press BTN0 to change motor, tap BTN1 for direction,"
 1697      73204254 
 1697      4E302074 
 1697      6F206368 
 1697      616E6765 
 1698 0163 20686F6C 		.ascii	" hold BTN1 to change value\000"
 1698      64204254 
 1698      4E312074 
 1698      6F206368 
 1698      616E6765 
 1699 017e 0000     		.space	2
 1700              	.LC19:
ARM GAS  /var/folders/ng/s8655sgx1ys_4lf9jzm2w6n00000gn/T//ccwhj3mK.s 			page 32


 1701 0180 4D6F746F 		.ascii	"Motor: %d\000"
 1701      723A2025 
 1701      6400
 1702 018a 0000     		.space	2
 1703              	.LC20:
 1704 018c 5370643A 		.ascii	"Spd:%3d\000"
 1704      25336400 
 1705              	.LC21:
 1706 0194 5370643A 		.ascii	"Spd:%3d\012\000"
 1706      2533640A 
 1706      00
 1707 019d 000000   		.space	3
 1708              	.LC22:
 1709 01a0 5465726D 		.ascii	"Terminal Mode - 38400 Baud 8-N-1\000"
 1709      696E616C 
 1709      204D6F64 
 1709      65202D20 
 1709      33383430 
 1710 01c1 000000   		.space	3
 1711              	.LC23:
 1712 01c4 0A0D0A0D 		.ascii	"\012\015\012\015Welcome to the Aithon Board\012\015"
 1712      57656C63 
 1712      6F6D6520 
 1712      746F2074 
 1712      68652041 
 1713 01e5 00       		.ascii	"\000"
 1714 01e6 0000     		.space	2
 1715              	.LC24:
 1716 01e8 28636F6D 		.ascii	"(commands will not be echoed to terminal)\012\015\000"
 1716      6D616E64 
 1716      73207769 
 1716      6C6C206E 
 1716      6F742062 
 1717              	.LC25:
 1718 0214 73656E64 		.ascii	"send 'h' for help message\012\015\000"
 1718      20276827 
 1718      20666F72 
 1718      2068656C 
 1718      70206D65 
 1719              	.LC26:
 1720 0230 57656C63 		.ascii	"Welcome to the Aithon Board\012\015\000"
 1720      6F6D6520 
 1720      746F2074 
 1720      68652041 
 1720      6974686F 
 1721 024e 0000     		.space	2
 1722              	.LC27:
 1723 0250 6D786479 		.ascii	"mxdyyy (x=motor number, d=-/+ direction, yyy=3-digi"
 1723      79792028 
 1723      783D6D6F 
 1723      746F7220 
 1723      6E756D62 
 1724 0283 74207370 		.ascii	"t speed)\012\015\000"
 1724      65656429 
 1724      0A0D00
 1725 028e 0000     		.space	2
 1726              	.LC28:
ARM GAS  /var/folders/ng/s8655sgx1ys_4lf9jzm2w6n00000gn/T//ccwhj3mK.s 			page 33


 1727 0290 73787979 		.ascii	"sxyyy (x=servo number, yyy=3-digit position)\012\015"
 1727      79202878 
 1727      3D736572 
 1727      766F206E 
 1727      756D6265 
 1728 02be 00       		.ascii	"\000"
 1729 02bf 00       		.space	1
 1730              	.LC29:
 1731 02c0 61782028 		.ascii	"ax (x=analog input)\012\015\000"
 1731      783D616E 
 1731      616C6F67 
 1731      20696E70 
 1731      7574290A 
 1732 02d6 0000     		.space	2
 1733              	.LC30:
 1734 02d8 64782028 		.ascii	"dx (x=digital input)\012\015\000"
 1734      783D6469 
 1734      67697461 
 1734      6C20696E 
 1734      70757429 
 1735 02ef 00       		.space	1
 1736              	.LC31:
 1737 02f0 62782028 		.ascii	"bx (x=button number)\012\015\000"
 1737      783D6275 
 1737      74746F6E 
 1737      206E756D 
 1737      62657229 
 1738 0307 00       		.space	1
 1739              	.LC32:
 1740 0308 57656420 		.ascii	"Wed Feb 26 10:47:46 PST 2014\000"
 1740      46656220 
 1740      32362031 
 1740      303A3437 
 1740      3A343620 
 1741 0325 000000   		.text
 1742              	.Letext0:
 1743              		.file 3 "/Users/jseng/gccarm/bin/../lib/gcc/arm-none-eabi/4.7.4/include/stddef.h"
 1744              		.file 4 "/Users/jseng/gccarm/bin/../lib/gcc/arm-none-eabi/4.7.4/../../../../arm-none-eabi/include/
 1745              		.file 5 "../AithonLibrary/ChibiOS/os/ports/GCC/ARMCMx/chtypes.h"
 1746              		.file 6 "../AithonLibrary/ChibiOS/os/kernel/include/chlists.h"
 1747              		.file 7 "../AithonLibrary/ChibiOS/os/kernel/include/chthreads.h"
 1748              		.file 8 "../AithonLibrary/ChibiOS/os/ports/GCC/ARMCMx/chcore_v7m.h"
 1749              		.file 9 "../AithonLibrary/ChibiOS/os/kernel/include/chmtx.h"
 1750              		.file 10 "../AithonLibrary/ChibiOS/os/kernel/include/chevents.h"
 1751              		.file 11 "../AithonLibrary/ChibiOS/os/kernel/include/chqueues.h"
 1752              		.file 12 "../AithonLibrary/ChibiOS/os/kernel/include/chstreams.h"
 1753              		.file 13 "../AithonLibrary/ChibiOS/os/hal/platforms/STM32F4xx/stm32f4xx.h"
 1754              		.file 14 "../AithonLibrary/ChibiOS/os/hal/include/serial.h"
 1755              		.file 15 "../AithonLibrary/ChibiOS/os/hal/include/usb.h"
 1756              		.file 16 "../AithonLibrary/ChibiOS/os/hal/platforms/STM32/OTGv1/usb_lld.h"
 1757              		.file 17 "../AithonLibrary/ChibiOS/os/hal/platforms/STM32/OTGv1/stm32_otg.h"
 1758              		.file 18 "../AithonLibrary/ChibiOS/os/hal/include/serial_usb.h"
 1759              		.file 19 "/Users/jseng/gccarm/bin/../lib/gcc/arm-none-eabi/4.7.4/include/stdarg.h"
 1760              		.file 20 "<built-in>"
 1761              		.file 21 "../AithonLibrary/Aithon.h"
 1762              		.file 22 "../AithonLibrary/ChibiOS/os/hal/platforms/STM32/USARTv1/serial_lld.h"
 1763              		.file 23 "../AithonLibrary/aithon_private.h"
ARM GAS  /var/folders/ng/s8655sgx1ys_4lf9jzm2w6n00000gn/T//ccwhj3mK.s 			page 34


 1764              		.file 24 "../AithonLibrary/ChibiOS/os/ports/common/ARMCMx/CMSIS/include/core_cm4.h"
 1765              		.file 25 "main.h"