ARM GAS  /var/folders/ng/s8655sgx1ys_4lf9jzm2w6n00000gn/T//ccPS0mZc.s 			page 1


   1              		.syntax unified
   2              		.cpu cortex-m4
   3              		.eabi_attribute 27, 3
   4              		.fpu fpv4-sp-d16
   5              		.eabi_attribute 20, 1
   6              		.eabi_attribute 21, 1
   7              		.eabi_attribute 23, 3
   8              		.eabi_attribute 24, 1
   9              		.eabi_attribute 25, 1
  10              		.eabi_attribute 26, 1
  11              		.eabi_attribute 30, 2
  12              		.eabi_attribute 34, 1
  13              		.eabi_attribute 18, 4
  14              		.thumb
  15              		.file	"mmc_spi.c"
  16              		.text
  17              	.Ltext0:
  18              		.cfi_sections	.debug_frame
  19              		.section	.text.mmcGetInfo,"ax",%progbits
  20              		.align	2
  21              		.p2align 4,,15
  22              		.global	mmcGetInfo
  23              		.thumb
  24              		.thumb_func
  25              		.type	mmcGetInfo, %function
  26              	mmcGetInfo:
  27              	.LFB142:
  28              		.file 1 "../AithonLibrary/ChibiOS/os/hal/src/mmc_spi.c"
  29              		.loc 1 825 0
  30              		.cfi_startproc
  31              		@ args = 0, pretend = 0, frame = 0
  32              		@ frame_needed = 0, uses_anonymous_args = 0
  33              		@ link register save eliminated.
  34              	.LVL0:
  35              		.loc 1 829 0
  36 0000 0379     		ldrb	r3, [r0, #4]	@ zero_extendqisi2
  37 0002 052B     		cmp	r3, #5
  38 0004 01D0     		beq	.L5
  39              		.loc 1 830 0
  40 0006 0120     		movs	r0, #1
  41              	.LVL1:
  42              		.loc 1 836 0
  43 0008 7047     		bx	lr
  44              	.LVL2:
  45              	.L5:
  46              		.loc 1 832 0
  47 000a 806A     		ldr	r0, [r0, #40]
  48              	.LVL3:
  49              		.loc 1 833 0
  50 000c 4FF40072 		mov	r2, #512
  51              		.loc 1 832 0
  52 0010 4860     		str	r0, [r1, #4]
  53              		.loc 1 833 0
  54 0012 0A60     		str	r2, [r1, #0]
  55              		.loc 1 835 0
  56 0014 0020     		movs	r0, #0
  57 0016 7047     		bx	lr
ARM GAS  /var/folders/ng/s8655sgx1ys_4lf9jzm2w6n00000gn/T//ccPS0mZc.s 			page 2


  58              		.cfi_endproc
  59              	.LFE142:
  60              		.size	mmcGetInfo, .-mmcGetInfo
  61 0018 AFF30080 		.section	.text.recvr1,"ax",%progbits
  61      AFF30080 
  62              		.align	2
  63              		.p2align 4,,15
  64              		.thumb
  65              		.thumb_func
  66              		.type	recvr1, %function
  67              	recvr1:
  68              	.LFB123:
  69              		.loc 1 220 0
  70              		.cfi_startproc
  71              		@ args = 0, pretend = 0, frame = 8
  72              		@ frame_needed = 0, uses_anonymous_args = 0
  73              	.LVL4:
  74 0000 10B5     		push	{r4, lr}
  75              	.LCFI0:
  76              		.cfi_def_cfa_offset 8
  77              		.cfi_offset 4, -8
  78              		.cfi_offset 14, -4
  79              		.loc 1 225 0
  80 0002 C36A     		ldr	r3, [r0, #44]
  81              		.loc 1 220 0
  82 0004 82B0     		sub	sp, sp, #8
  83              	.LCFI1:
  84              		.cfi_def_cfa_offset 16
  85              		.loc 1 225 0
  86 0006 0121     		movs	r1, #1
  87              		.loc 1 220 0
  88 0008 0446     		mov	r4, r0
  89              		.loc 1 225 0
  90 000a 01AA     		add	r2, sp, #4
  91 000c 1868     		ldr	r0, [r3, #0]
  92              	.LVL5:
  93 000e FFF7FEFF 		bl	spiReceive
  94              	.LVL6:
  95              		.loc 1 226 0
  96 0012 9DF80400 		ldrb	r0, [sp, #4]	@ zero_extendqisi2
  97 0016 FF28     		cmp	r0, #255
  98 0018 4DD1     		bne	.L8
  99              	.LVL7:
 100              		.loc 1 225 0
 101 001a E06A     		ldr	r0, [r4, #44]
 102 001c 0121     		movs	r1, #1
 103 001e 0068     		ldr	r0, [r0, #0]
 104 0020 01AA     		add	r2, sp, #4
 105 0022 FFF7FEFF 		bl	spiReceive
 106              	.LVL8:
 107              		.loc 1 226 0
 108 0026 9DF80400 		ldrb	r0, [sp, #4]	@ zero_extendqisi2
 109 002a FF28     		cmp	r0, #255
 110 002c 43D1     		bne	.L8
 111              	.LVL9:
 112              		.loc 1 225 0
 113 002e E26A     		ldr	r2, [r4, #44]
ARM GAS  /var/folders/ng/s8655sgx1ys_4lf9jzm2w6n00000gn/T//ccPS0mZc.s 			page 3


 114 0030 0121     		movs	r1, #1
 115 0032 1068     		ldr	r0, [r2, #0]
 116 0034 01AA     		add	r2, sp, #4
 117 0036 FFF7FEFF 		bl	spiReceive
 118              	.LVL10:
 119              		.loc 1 226 0
 120 003a 9DF80400 		ldrb	r0, [sp, #4]	@ zero_extendqisi2
 121 003e FF28     		cmp	r0, #255
 122 0040 39D1     		bne	.L8
 123              	.LVL11:
 124              		.loc 1 225 0
 125 0042 E36A     		ldr	r3, [r4, #44]
 126 0044 0121     		movs	r1, #1
 127 0046 1868     		ldr	r0, [r3, #0]
 128 0048 01AA     		add	r2, sp, #4
 129 004a FFF7FEFF 		bl	spiReceive
 130              	.LVL12:
 131              		.loc 1 226 0
 132 004e 9DF80400 		ldrb	r0, [sp, #4]	@ zero_extendqisi2
 133 0052 FF28     		cmp	r0, #255
 134 0054 2FD1     		bne	.L8
 135              	.LVL13:
 136              		.loc 1 225 0
 137 0056 E06A     		ldr	r0, [r4, #44]
 138 0058 0121     		movs	r1, #1
 139 005a 0068     		ldr	r0, [r0, #0]
 140 005c 01AA     		add	r2, sp, #4
 141 005e FFF7FEFF 		bl	spiReceive
 142              	.LVL14:
 143              		.loc 1 226 0
 144 0062 9DF80400 		ldrb	r0, [sp, #4]	@ zero_extendqisi2
 145 0066 FF28     		cmp	r0, #255
 146 0068 25D1     		bne	.L8
 147              	.LVL15:
 148              		.loc 1 225 0
 149 006a E26A     		ldr	r2, [r4, #44]
 150 006c 0121     		movs	r1, #1
 151 006e 1068     		ldr	r0, [r2, #0]
 152 0070 01AA     		add	r2, sp, #4
 153 0072 FFF7FEFF 		bl	spiReceive
 154              	.LVL16:
 155              		.loc 1 226 0
 156 0076 9DF80400 		ldrb	r0, [sp, #4]	@ zero_extendqisi2
 157 007a FF28     		cmp	r0, #255
 158 007c 1BD1     		bne	.L8
 159              	.LVL17:
 160              		.loc 1 225 0
 161 007e E36A     		ldr	r3, [r4, #44]
 162 0080 0121     		movs	r1, #1
 163 0082 1868     		ldr	r0, [r3, #0]
 164 0084 01AA     		add	r2, sp, #4
 165 0086 FFF7FEFF 		bl	spiReceive
 166              	.LVL18:
 167              		.loc 1 226 0
 168 008a 9DF80400 		ldrb	r0, [sp, #4]	@ zero_extendqisi2
 169 008e FF28     		cmp	r0, #255
 170 0090 11D1     		bne	.L8
ARM GAS  /var/folders/ng/s8655sgx1ys_4lf9jzm2w6n00000gn/T//ccPS0mZc.s 			page 4


 171              	.LVL19:
 172              		.loc 1 225 0
 173 0092 E06A     		ldr	r0, [r4, #44]
 174 0094 0121     		movs	r1, #1
 175 0096 0068     		ldr	r0, [r0, #0]
 176 0098 01AA     		add	r2, sp, #4
 177 009a FFF7FEFF 		bl	spiReceive
 178              	.LVL20:
 179              		.loc 1 226 0
 180 009e 9DF80400 		ldrb	r0, [sp, #4]	@ zero_extendqisi2
 181 00a2 FF28     		cmp	r0, #255
 182 00a4 07D1     		bne	.L8
 183              	.LVL21:
 184              		.loc 1 225 0
 185 00a6 E26A     		ldr	r2, [r4, #44]
 186 00a8 0121     		movs	r1, #1
 187 00aa 1068     		ldr	r0, [r2, #0]
 188 00ac 01AA     		add	r2, sp, #4
 189 00ae FFF7FEFF 		bl	spiReceive
 190              	.LVL22:
 191              		.loc 1 226 0
 192 00b2 9DF80400 		ldrb	r0, [sp, #4]	@ zero_extendqisi2
 193              	.LVL23:
 194              	.L8:
 195              		.loc 1 230 0
 196 00b6 02B0     		add	sp, sp, #8
 197 00b8 10BD     		pop	{r4, pc}
 198              		.cfi_endproc
 199              	.LFE123:
 200              		.size	recvr1, .-recvr1
 201 00ba 00BFAFF3 		.section	.text.wait,"ax",%progbits
 201      0080
 202              		.align	2
 203              		.p2align 4,,15
 204              		.thumb
 205              		.thumb_func
 206              		.type	wait, %function
 207              	wait:
 208              	.LFB121:
 209              		.loc 1 164 0
 210              		.cfi_startproc
 211              		@ args = 0, pretend = 0, frame = 8
 212              		@ frame_needed = 0, uses_anonymous_args = 0
 213              	.LVL24:
 214 0000 10B5     		push	{r4, lr}
 215              	.LCFI2:
 216              		.cfi_def_cfa_offset 8
 217              		.cfi_offset 4, -8
 218              		.cfi_offset 14, -4
 219              		.loc 1 169 0
 220 0002 C36A     		ldr	r3, [r0, #44]
 221              		.loc 1 164 0
 222 0004 82B0     		sub	sp, sp, #8
 223              	.LCFI3:
 224              		.cfi_def_cfa_offset 16
 225              		.loc 1 169 0
 226 0006 0121     		movs	r1, #1
ARM GAS  /var/folders/ng/s8655sgx1ys_4lf9jzm2w6n00000gn/T//ccPS0mZc.s 			page 5


 227              		.loc 1 164 0
 228 0008 0446     		mov	r4, r0
 229              		.loc 1 169 0
 230 000a 01AA     		add	r2, sp, #4
 231 000c 1868     		ldr	r0, [r3, #0]
 232              	.LVL25:
 233 000e FFF7FEFF 		bl	spiReceive
 234              	.LVL26:
 235              		.loc 1 170 0
 236 0012 9DF80400 		ldrb	r0, [sp, #4]	@ zero_extendqisi2
 237 0016 FF28     		cmp	r0, #255
 238 0018 00F09880 		beq	.L9
 239              	.LVL27:
 240              		.loc 1 169 0
 241 001c E26A     		ldr	r2, [r4, #44]
 242 001e 0121     		movs	r1, #1
 243 0020 1068     		ldr	r0, [r2, #0]
 244 0022 01AA     		add	r2, sp, #4
 245 0024 FFF7FEFF 		bl	spiReceive
 246              	.LVL28:
 247              		.loc 1 170 0
 248 0028 9DF80410 		ldrb	r1, [sp, #4]	@ zero_extendqisi2
 249 002c FF29     		cmp	r1, #255
 250 002e 00F08D80 		beq	.L9
 251              	.LVL29:
 252              		.loc 1 169 0
 253 0032 E36A     		ldr	r3, [r4, #44]
 254 0034 0121     		movs	r1, #1
 255 0036 1868     		ldr	r0, [r3, #0]
 256 0038 01AA     		add	r2, sp, #4
 257 003a FFF7FEFF 		bl	spiReceive
 258              	.LVL30:
 259              		.loc 1 170 0
 260 003e 9DF80400 		ldrb	r0, [sp, #4]	@ zero_extendqisi2
 261 0042 FF28     		cmp	r0, #255
 262 0044 00F08280 		beq	.L9
 263              	.LVL31:
 264              		.loc 1 169 0
 265 0048 E26A     		ldr	r2, [r4, #44]
 266 004a 0121     		movs	r1, #1
 267 004c 1068     		ldr	r0, [r2, #0]
 268 004e 01AA     		add	r2, sp, #4
 269 0050 FFF7FEFF 		bl	spiReceive
 270              	.LVL32:
 271              		.loc 1 170 0
 272 0054 9DF80410 		ldrb	r1, [sp, #4]	@ zero_extendqisi2
 273 0058 FF29     		cmp	r1, #255
 274 005a 77D0     		beq	.L9
 275              	.LVL33:
 276              		.loc 1 169 0
 277 005c E36A     		ldr	r3, [r4, #44]
 278 005e 0121     		movs	r1, #1
 279 0060 1868     		ldr	r0, [r3, #0]
 280 0062 01AA     		add	r2, sp, #4
 281 0064 FFF7FEFF 		bl	spiReceive
 282              	.LVL34:
 283              		.loc 1 170 0
ARM GAS  /var/folders/ng/s8655sgx1ys_4lf9jzm2w6n00000gn/T//ccPS0mZc.s 			page 6


 284 0068 9DF80400 		ldrb	r0, [sp, #4]	@ zero_extendqisi2
 285 006c FF28     		cmp	r0, #255
 286 006e 6DD0     		beq	.L9
 287              	.LVL35:
 288              		.loc 1 169 0
 289 0070 E26A     		ldr	r2, [r4, #44]
 290 0072 0121     		movs	r1, #1
 291 0074 1068     		ldr	r0, [r2, #0]
 292 0076 01AA     		add	r2, sp, #4
 293 0078 FFF7FEFF 		bl	spiReceive
 294              	.LVL36:
 295              		.loc 1 170 0
 296 007c 9DF80410 		ldrb	r1, [sp, #4]	@ zero_extendqisi2
 297 0080 FF29     		cmp	r1, #255
 298 0082 63D0     		beq	.L9
 299              	.LVL37:
 300              		.loc 1 169 0
 301 0084 E36A     		ldr	r3, [r4, #44]
 302 0086 0121     		movs	r1, #1
 303 0088 1868     		ldr	r0, [r3, #0]
 304 008a 01AA     		add	r2, sp, #4
 305 008c FFF7FEFF 		bl	spiReceive
 306              	.LVL38:
 307              		.loc 1 170 0
 308 0090 9DF80400 		ldrb	r0, [sp, #4]	@ zero_extendqisi2
 309 0094 FF28     		cmp	r0, #255
 310 0096 59D0     		beq	.L9
 311              	.LVL39:
 312              		.loc 1 169 0
 313 0098 E26A     		ldr	r2, [r4, #44]
 314 009a 0121     		movs	r1, #1
 315 009c 1068     		ldr	r0, [r2, #0]
 316 009e 01AA     		add	r2, sp, #4
 317 00a0 FFF7FEFF 		bl	spiReceive
 318              	.LVL40:
 319              		.loc 1 170 0
 320 00a4 9DF80410 		ldrb	r1, [sp, #4]	@ zero_extendqisi2
 321 00a8 FF29     		cmp	r1, #255
 322 00aa 4FD0     		beq	.L9
 323              	.LVL41:
 324              		.loc 1 169 0
 325 00ac E36A     		ldr	r3, [r4, #44]
 326 00ae 0121     		movs	r1, #1
 327 00b0 1868     		ldr	r0, [r3, #0]
 328 00b2 01AA     		add	r2, sp, #4
 329 00b4 FFF7FEFF 		bl	spiReceive
 330              	.LVL42:
 331              		.loc 1 170 0
 332 00b8 9DF80400 		ldrb	r0, [sp, #4]	@ zero_extendqisi2
 333 00bc FF28     		cmp	r0, #255
 334 00be 45D0     		beq	.L9
 335              	.LVL43:
 336              		.loc 1 169 0
 337 00c0 E26A     		ldr	r2, [r4, #44]
 338 00c2 0121     		movs	r1, #1
 339 00c4 1068     		ldr	r0, [r2, #0]
 340 00c6 01AA     		add	r2, sp, #4
ARM GAS  /var/folders/ng/s8655sgx1ys_4lf9jzm2w6n00000gn/T//ccPS0mZc.s 			page 7


 341 00c8 FFF7FEFF 		bl	spiReceive
 342              	.LVL44:
 343              		.loc 1 170 0
 344 00cc 9DF80410 		ldrb	r1, [sp, #4]	@ zero_extendqisi2
 345 00d0 FF29     		cmp	r1, #255
 346 00d2 3BD0     		beq	.L9
 347              	.LVL45:
 348              		.loc 1 169 0
 349 00d4 E36A     		ldr	r3, [r4, #44]
 350 00d6 0121     		movs	r1, #1
 351 00d8 1868     		ldr	r0, [r3, #0]
 352 00da 01AA     		add	r2, sp, #4
 353 00dc FFF7FEFF 		bl	spiReceive
 354              	.LVL46:
 355              		.loc 1 170 0
 356 00e0 9DF80400 		ldrb	r0, [sp, #4]	@ zero_extendqisi2
 357 00e4 FF28     		cmp	r0, #255
 358 00e6 31D0     		beq	.L9
 359              	.LVL47:
 360              		.loc 1 169 0
 361 00e8 E26A     		ldr	r2, [r4, #44]
 362 00ea 0121     		movs	r1, #1
 363 00ec 1068     		ldr	r0, [r2, #0]
 364 00ee 01AA     		add	r2, sp, #4
 365 00f0 FFF7FEFF 		bl	spiReceive
 366              	.LVL48:
 367              		.loc 1 170 0
 368 00f4 9DF80410 		ldrb	r1, [sp, #4]	@ zero_extendqisi2
 369 00f8 FF29     		cmp	r1, #255
 370 00fa 27D0     		beq	.L9
 371              	.LVL49:
 372              		.loc 1 169 0
 373 00fc E36A     		ldr	r3, [r4, #44]
 374 00fe 0121     		movs	r1, #1
 375 0100 1868     		ldr	r0, [r3, #0]
 376 0102 01AA     		add	r2, sp, #4
 377 0104 FFF7FEFF 		bl	spiReceive
 378              	.LVL50:
 379              		.loc 1 170 0
 380 0108 9DF80400 		ldrb	r0, [sp, #4]	@ zero_extendqisi2
 381 010c FF28     		cmp	r0, #255
 382 010e 1DD0     		beq	.L9
 383              	.LVL51:
 384              		.loc 1 169 0
 385 0110 E26A     		ldr	r2, [r4, #44]
 386 0112 0121     		movs	r1, #1
 387 0114 1068     		ldr	r0, [r2, #0]
 388 0116 01AA     		add	r2, sp, #4
 389 0118 FFF7FEFF 		bl	spiReceive
 390              	.LVL52:
 391              		.loc 1 170 0
 392 011c 9DF80410 		ldrb	r1, [sp, #4]	@ zero_extendqisi2
 393 0120 FF29     		cmp	r1, #255
 394 0122 13D0     		beq	.L9
 395              	.LVL53:
 396              		.loc 1 169 0
 397 0124 E36A     		ldr	r3, [r4, #44]
ARM GAS  /var/folders/ng/s8655sgx1ys_4lf9jzm2w6n00000gn/T//ccPS0mZc.s 			page 8


 398 0126 0121     		movs	r1, #1
 399 0128 1868     		ldr	r0, [r3, #0]
 400 012a 01AA     		add	r2, sp, #4
 401 012c FFF7FEFF 		bl	spiReceive
 402              	.LVL54:
 403              		.loc 1 170 0
 404 0130 9DF80400 		ldrb	r0, [sp, #4]	@ zero_extendqisi2
 405 0134 FF28     		cmp	r0, #255
 406 0136 09D0     		beq	.L9
 407              	.LVL55:
 408              		.loc 1 169 0
 409 0138 E26A     		ldr	r2, [r4, #44]
 410 013a 0121     		movs	r1, #1
 411 013c 1068     		ldr	r0, [r2, #0]
 412 013e 01AA     		add	r2, sp, #4
 413 0140 FFF7FEFF 		bl	spiReceive
 414              	.LVL56:
 415              		.loc 1 170 0
 416 0144 9DF80410 		ldrb	r1, [sp, #4]	@ zero_extendqisi2
 417 0148 FF29     		cmp	r1, #255
 418 014a 04D1     		bne	.L65
 419              	.LVL57:
 420              	.L9:
 421              		.loc 1 183 0
 422 014c 02B0     		add	sp, sp, #8
 423 014e 10BD     		pop	{r4, pc}
 424              	.LVL58:
 425              	.L66:
 426              		.loc 1 180 0
 427 0150 0120     		movs	r0, #1
 428 0152 FFF7FEFF 		bl	chThdSleep
 429              	.LVL59:
 430              	.L65:
 431              		.loc 1 175 0
 432 0156 E36A     		ldr	r3, [r4, #44]
 433 0158 0121     		movs	r1, #1
 434 015a 1868     		ldr	r0, [r3, #0]
 435 015c 01AA     		add	r2, sp, #4
 436 015e FFF7FEFF 		bl	spiReceive
 437              	.LVL60:
 438              		.loc 1 176 0
 439 0162 9DF80400 		ldrb	r0, [sp, #4]	@ zero_extendqisi2
 440 0166 FF28     		cmp	r0, #255
 441 0168 F2D1     		bne	.L66
 442 016a EFE7     		b	.L9
 443              		.cfi_endproc
 444              	.LFE121:
 445              		.size	wait, .-wait
 446              		.section	.text.send_hdr,"ax",%progbits
 447              		.align	2
 448              		.p2align 4,,15
 449              		.thumb
 450              		.thumb_func
 451              		.type	send_hdr, %function
 452              	send_hdr:
 453              	.LFB122:
 454              		.loc 1 194 0
ARM GAS  /var/folders/ng/s8655sgx1ys_4lf9jzm2w6n00000gn/T//ccPS0mZc.s 			page 9


 455              		.cfi_startproc
 456              		@ args = 0, pretend = 0, frame = 8
 457              		@ frame_needed = 0, uses_anonymous_args = 0
 458              	.LVL61:
 459 0000 70B5     		push	{r4, r5, r6, lr}
 460              	.LCFI4:
 461              		.cfi_def_cfa_offset 16
 462              		.cfi_offset 4, -16
 463              		.cfi_offset 5, -12
 464              		.cfi_offset 6, -8
 465              		.cfi_offset 14, -4
 466 0002 82B0     		sub	sp, sp, #8
 467              	.LCFI5:
 468              		.cfi_def_cfa_offset 24
 469              		.loc 1 194 0
 470 0004 1446     		mov	r4, r2
 471 0006 0546     		mov	r5, r0
 472 0008 0E46     		mov	r6, r1
 473              		.loc 1 198 0
 474 000a FFF7FEFF 		bl	wait
 475              	.LVL62:
 476              	.LBB7:
 477              	.LBB8:
 478              		.loc 1 153 0
 479 000e 40F20003 		movw	r3, #:lower16:.LANCHOR0
 480 0012 C0F20003 		movt	r3, #:upper16:.LANCHOR0
 481              	.LBE8:
 482              	.LBE7:
 483              		.loc 1 200 0
 484 0016 46F04001 		orr	r1, r6, #64
 485              		.loc 1 201 0
 486 001a 220E     		lsrs	r2, r4, #24
 487              	.LBB16:
 488              	.LBB9:
 489              		.loc 1 153 0
 490 001c 5E5C     		ldrb	r6, [r3, r1]	@ zero_extendqisi2
 491              	.LBE9:
 492              	.LBE16:
 493              		.loc 1 208 0
 494 001e E86A     		ldr	r0, [r5, #44]
 495              		.loc 1 200 0
 496 0020 8DF80010 		strb	r1, [sp, #0]
 497              	.LBB17:
 498              	.LBB10:
 499              		.loc 1 153 0
 500 0024 82EA4605 		eor	r5, r2, r6, lsl #1
 501              	.LVL63:
 502              	.LBE10:
 503              	.LBE17:
 504              		.loc 1 202 0
 505 0028 210C     		lsrs	r1, r4, #16
 506              	.LBB18:
 507              	.LBB11:
 508              		.loc 1 153 0
 509 002a 5D5D     		ldrb	r5, [r3, r5]	@ zero_extendqisi2
 510              	.LBE11:
 511              	.LBE18:
ARM GAS  /var/folders/ng/s8655sgx1ys_4lf9jzm2w6n00000gn/T//ccPS0mZc.s 			page 10


 512              		.loc 1 201 0
 513 002c 8DF80120 		strb	r2, [sp, #1]
 514              	.LBB19:
 515              	.LBB12:
 516              		.loc 1 153 0
 517 0030 CAB2     		uxtb	r2, r1
 518 0032 82EA4505 		eor	r5, r2, r5, lsl #1
 519              	.LBE12:
 520              	.LBE19:
 521              		.loc 1 203 0
 522 0036 220A     		lsrs	r2, r4, #8
 523              	.LBB20:
 524              	.LBB13:
 525              		.loc 1 153 0
 526 0038 5D5D     		ldrb	r5, [r3, r5]	@ zero_extendqisi2
 527              	.LBE13:
 528              	.LBE20:
 529              		.loc 1 202 0
 530 003a 8DF80210 		strb	r1, [sp, #2]
 531              	.LBB21:
 532              	.LBB14:
 533              		.loc 1 153 0
 534 003e D1B2     		uxtb	r1, r2
 535 0040 81EA4505 		eor	r5, r1, r5, lsl #1
 536 0044 E1B2     		uxtb	r1, r4
 537 0046 5D5D     		ldrb	r5, [r3, r5]	@ zero_extendqisi2
 538              	.LBE14:
 539              	.LBE21:
 540              		.loc 1 203 0
 541 0048 8DF80320 		strb	r2, [sp, #3]
 542              	.LBB22:
 543              	.LBB15:
 544              		.loc 1 153 0
 545 004c 81EA4502 		eor	r2, r1, r5, lsl #1
 546              	.LBE15:
 547              	.LBE22:
 548              		.loc 1 204 0
 549 0050 8DF80440 		strb	r4, [sp, #4]
 550              	.LVL64:
 551              		.loc 1 206 0
 552 0054 9B5C     		ldrb	r3, [r3, r2]	@ zero_extendqisi2
 553 0056 5900     		lsls	r1, r3, #1
 554 0058 41F00102 		orr	r2, r1, #1
 555              	.LVL65:
 556 005c 8DF80520 		strb	r2, [sp, #5]
 557              		.loc 1 208 0
 558 0060 0068     		ldr	r0, [r0, #0]
 559 0062 0621     		movs	r1, #6
 560 0064 6A46     		mov	r2, sp
 561 0066 FFF7FEFF 		bl	spiSend
 562              	.LVL66:
 563              		.loc 1 209 0
 564 006a 02B0     		add	sp, sp, #8
 565 006c 70BD     		pop	{r4, r5, r6, pc}
 566              		.cfi_endproc
 567              	.LFE122:
 568              		.size	send_hdr, .-send_hdr
ARM GAS  /var/folders/ng/s8655sgx1ys_4lf9jzm2w6n00000gn/T//ccPS0mZc.s 			page 11


 569 006e 00BF     		.section	.text.send_command_R1,"ax",%progbits
 570              		.align	2
 571              		.p2align 4,,15
 572              		.thumb
 573              		.thumb_func
 574              		.type	send_command_R1, %function
 575              	send_command_R1:
 576              	.LFB125:
 577              		.loc 1 262 0
 578              		.cfi_startproc
 579              		@ args = 0, pretend = 0, frame = 0
 580              		@ frame_needed = 0, uses_anonymous_args = 0
 581              	.LVL67:
 582              		.loc 1 265 0
 583 0000 C36A     		ldr	r3, [r0, #44]
 584              		.loc 1 262 0
 585 0002 70B5     		push	{r4, r5, r6, lr}
 586              	.LCFI6:
 587              		.cfi_def_cfa_offset 16
 588              		.cfi_offset 4, -16
 589              		.cfi_offset 5, -12
 590              		.cfi_offset 6, -8
 591              		.cfi_offset 14, -4
 592              		.loc 1 262 0
 593 0004 0446     		mov	r4, r0
 594 0006 0E46     		mov	r6, r1
 595              		.loc 1 265 0
 596 0008 1868     		ldr	r0, [r3, #0]
 597              	.LVL68:
 598              		.loc 1 262 0
 599 000a 1546     		mov	r5, r2
 600              		.loc 1 265 0
 601 000c FFF7FEFF 		bl	spiSelect
 602              	.LVL69:
 603              		.loc 1 266 0
 604 0010 2A46     		mov	r2, r5
 605 0012 3146     		mov	r1, r6
 606 0014 2046     		mov	r0, r4
 607 0016 FFF7FEFF 		bl	send_hdr
 608              	.LVL70:
 609              		.loc 1 267 0
 610 001a 2046     		mov	r0, r4
 611 001c FFF7FEFF 		bl	recvr1
 612              	.LVL71:
 613 0020 0546     		mov	r5, r0
 614              	.LVL72:
 615              		.loc 1 268 0
 616 0022 E06A     		ldr	r0, [r4, #44]
 617              	.LVL73:
 618 0024 0068     		ldr	r0, [r0, #0]
 619 0026 FFF7FEFF 		bl	spiUnselect
 620              	.LVL74:
 621              		.loc 1 270 0
 622 002a 2846     		mov	r0, r5
 623 002c 70BD     		pop	{r4, r5, r6, pc}
 624              		.cfi_endproc
 625              	.LFE125:
ARM GAS  /var/folders/ng/s8655sgx1ys_4lf9jzm2w6n00000gn/T//ccPS0mZc.s 			page 12


 626              		.size	send_command_R1, .-send_command_R1
 627 002e 00BF     		.section	.text.send_command_R3,"ax",%progbits
 628              		.align	2
 629              		.p2align 4,,15
 630              		.thumb
 631              		.thumb_func
 632              		.type	send_command_R3, %function
 633              	send_command_R3:
 634              	.LFB126:
 635              		.loc 1 286 0
 636              		.cfi_startproc
 637              		@ args = 0, pretend = 0, frame = 0
 638              		@ frame_needed = 0, uses_anonymous_args = 0
 639              	.LVL75:
 640 0000 F8B5     		push	{r3, r4, r5, r6, r7, lr}
 641              	.LCFI7:
 642              		.cfi_def_cfa_offset 24
 643              		.cfi_offset 3, -24
 644              		.cfi_offset 4, -20
 645              		.cfi_offset 5, -16
 646              		.cfi_offset 6, -12
 647              		.cfi_offset 7, -8
 648              		.cfi_offset 14, -4
 649              		.loc 1 286 0
 650 0002 0446     		mov	r4, r0
 651              		.loc 1 289 0
 652 0004 C06A     		ldr	r0, [r0, #44]
 653              	.LVL76:
 654              		.loc 1 286 0
 655 0006 0E46     		mov	r6, r1
 656 0008 1546     		mov	r5, r2
 657              		.loc 1 289 0
 658 000a 0068     		ldr	r0, [r0, #0]
 659              		.loc 1 286 0
 660 000c 1F46     		mov	r7, r3
 661              		.loc 1 289 0
 662 000e FFF7FEFF 		bl	spiSelect
 663              	.LVL77:
 664              		.loc 1 290 0
 665 0012 3146     		mov	r1, r6
 666 0014 2A46     		mov	r2, r5
 667 0016 2046     		mov	r0, r4
 668 0018 FFF7FEFF 		bl	send_hdr
 669              	.LVL78:
 670              	.LBB25:
 671              	.LBB26:
 672              		.loc 1 245 0
 673 001c 2046     		mov	r0, r4
 674 001e FFF7FEFF 		bl	recvr1
 675              	.LVL79:
 676              		.loc 1 246 0
 677 0022 E56A     		ldr	r5, [r4, #44]
 678              	.LVL80:
 679              		.loc 1 245 0
 680 0024 0646     		mov	r6, r0
 681              	.LVL81:
 682              		.loc 1 246 0
ARM GAS  /var/folders/ng/s8655sgx1ys_4lf9jzm2w6n00000gn/T//ccPS0mZc.s 			page 13


 683 0026 0421     		movs	r1, #4
 684 0028 2868     		ldr	r0, [r5, #0]
 685              	.LVL82:
 686 002a 3A46     		mov	r2, r7
 687 002c FFF7FEFF 		bl	spiReceive
 688              	.LVL83:
 689              	.LBE26:
 690              	.LBE25:
 691              		.loc 1 292 0
 692 0030 E36A     		ldr	r3, [r4, #44]
 693 0032 1868     		ldr	r0, [r3, #0]
 694 0034 FFF7FEFF 		bl	spiUnselect
 695              	.LVL84:
 696              		.loc 1 294 0
 697 0038 3046     		mov	r0, r6
 698 003a F8BD     		pop	{r3, r4, r5, r6, r7, pc}
 699              		.cfi_endproc
 700              	.LFE126:
 701              		.size	send_command_R3, .-send_command_R3
 702 003c AFF30080 		.section	.text.sync,"ax",%progbits
 703              		.align	2
 704              		.p2align 4,,15
 705              		.thumb
 706              		.thumb_func
 707              		.type	sync, %function
 708              	sync:
 709              	.LFB128:
 710              		.loc 1 350 0
 711              		.cfi_startproc
 712              		@ args = 0, pretend = 0, frame = 8
 713              		@ frame_needed = 0, uses_anonymous_args = 0
 714              	.LVL85:
 715 0000 10B5     		push	{r4, lr}
 716              	.LCFI8:
 717              		.cfi_def_cfa_offset 8
 718              		.cfi_offset 4, -8
 719              		.cfi_offset 14, -4
 720              		.loc 1 353 0
 721 0002 C36A     		ldr	r3, [r0, #44]
 722              		.loc 1 350 0
 723 0004 0446     		mov	r4, r0
 724 0006 82B0     		sub	sp, sp, #8
 725              	.LCFI9:
 726              		.cfi_def_cfa_offset 16
 727              		.loc 1 353 0
 728 0008 1868     		ldr	r0, [r3, #0]
 729              	.LVL86:
 730 000a FFF7FEFF 		bl	spiSelect
 731              	.LVL87:
 732 000e 02E0     		b	.L72
 733              	.L73:
 734              		.loc 1 359 0
 735 0010 0120     		movs	r0, #1
 736 0012 FFF7FEFF 		bl	chThdSleep
 737              	.LVL88:
 738              	.L72:
 739              		.loc 1 355 0
ARM GAS  /var/folders/ng/s8655sgx1ys_4lf9jzm2w6n00000gn/T//ccPS0mZc.s 			page 14


 740 0016 E06A     		ldr	r0, [r4, #44]
 741 0018 0121     		movs	r1, #1
 742 001a 0068     		ldr	r0, [r0, #0]
 743 001c 01AA     		add	r2, sp, #4
 744 001e FFF7FEFF 		bl	spiReceive
 745              	.LVL89:
 746              		.loc 1 356 0
 747 0022 9DF80410 		ldrb	r1, [sp, #4]	@ zero_extendqisi2
 748 0026 FF29     		cmp	r1, #255
 749 0028 F2D1     		bne	.L73
 750              		.loc 1 362 0
 751 002a E26A     		ldr	r2, [r4, #44]
 752 002c 1068     		ldr	r0, [r2, #0]
 753 002e FFF7FEFF 		bl	spiUnselect
 754              	.LVL90:
 755              		.loc 1 363 0
 756 0032 02B0     		add	sp, sp, #8
 757 0034 10BD     		pop	{r4, pc}
 758              		.cfi_endproc
 759              	.LFE128:
 760              		.size	sync, .-sync
 761 0036 00BFAFF3 		.section	.text.read_CxD,"ax",%progbits
 761      0080AFF3 
 761      0080
 762              		.align	2
 763              		.p2align 4,,15
 764              		.thumb
 765              		.thumb_func
 766              		.type	read_CxD, %function
 767              	read_CxD:
 768              	.LFB127:
 769              		.loc 1 308 0
 770              		.cfi_startproc
 771              		@ args = 0, pretend = 0, frame = 40
 772              		@ frame_needed = 0, uses_anonymous_args = 0
 773              	.LVL91:
 774 0000 2DE9F04F 		push	{r4, r5, r6, r7, r8, r9, sl, fp, lr}
 775              	.LCFI10:
 776              		.cfi_def_cfa_offset 36
 777              		.cfi_offset 4, -36
 778              		.cfi_offset 5, -32
 779              		.cfi_offset 6, -28
 780              		.cfi_offset 7, -24
 781              		.cfi_offset 8, -20
 782              		.cfi_offset 9, -16
 783              		.cfi_offset 10, -12
 784              		.cfi_offset 11, -8
 785              		.cfi_offset 14, -4
 786              		.loc 1 312 0
 787 0004 C36A     		ldr	r3, [r0, #44]
 788              		.loc 1 308 0
 789 0006 8BB0     		sub	sp, sp, #44
 790              	.LCFI11:
 791              		.cfi_def_cfa_offset 80
 792              		.loc 1 308 0
 793 0008 0446     		mov	r4, r0
 794 000a 0E46     		mov	r6, r1
ARM GAS  /var/folders/ng/s8655sgx1ys_4lf9jzm2w6n00000gn/T//ccPS0mZc.s 			page 15


 795              		.loc 1 312 0
 796 000c 1868     		ldr	r0, [r3, #0]
 797              	.LVL92:
 798              		.loc 1 308 0
 799 000e 1546     		mov	r5, r2
 800              		.loc 1 312 0
 801 0010 FFF7FEFF 		bl	spiSelect
 802              	.LVL93:
 803              		.loc 1 313 0
 804 0014 2046     		mov	r0, r4
 805 0016 3146     		mov	r1, r6
 806 0018 0022     		movs	r2, #0
 807 001a FFF7FEFF 		bl	send_hdr
 808              	.LVL94:
 809              		.loc 1 314 0
 810 001e 2046     		mov	r0, r4
 811 0020 FFF7FEFF 		bl	recvr1
 812              	.LVL95:
 813 0024 0028     		cmp	r0, #0
 814 0026 7AD1     		bne	.L84
 815 0028 42F21076 		movw	r6, #10000
 816 002c 09E0     		b	.L75
 817              	.LVL96:
 818              	.L77:
 819              		.loc 1 321 0
 820 002e E06A     		ldr	r0, [r4, #44]
 821 0030 0068     		ldr	r0, [r0, #0]
 822 0032 FFF7FEFF 		bl	spiReceive
 823              	.LVL97:
 824              		.loc 1 322 0
 825 0036 9DF81810 		ldrb	r1, [sp, #24]	@ zero_extendqisi2
 826 003a FE29     		cmp	r1, #254
 827 003c 0FD0     		beq	.L82
 828              		.loc 1 320 0
 829 003e 013E     		subs	r6, r6, #1
 830 0040 73D0     		beq	.L85
 831              	.L75:
 832              		.loc 1 321 0
 833 0042 E06A     		ldr	r0, [r4, #44]
 834 0044 0121     		movs	r1, #1
 835 0046 06AA     		add	r2, sp, #24
 836 0048 0068     		ldr	r0, [r0, #0]
 837 004a FFF7FEFF 		bl	spiReceive
 838              	.LVL98:
 839              		.loc 1 322 0
 840 004e 9DF81830 		ldrb	r3, [sp, #24]	@ zero_extendqisi2
 841              		.loc 1 321 0
 842 0052 0121     		movs	r1, #1
 843              		.loc 1 322 0
 844 0054 FE2B     		cmp	r3, #254
 845              		.loc 1 321 0
 846 0056 06AA     		add	r2, sp, #24
 847 0058 06F1FF36 		add	r6, r6, #-1
 848              		.loc 1 322 0
 849 005c E7D1     		bne	.L77
 850              	.L82:
 851              	.LBB27:
ARM GAS  /var/folders/ng/s8655sgx1ys_4lf9jzm2w6n00000gn/T//ccPS0mZc.s 			page 16


 852              		.loc 1 325 0
 853 005e E76A     		ldr	r7, [r4, #44]
 854 0060 06AA     		add	r2, sp, #24
 855 0062 3868     		ldr	r0, [r7, #0]
 856 0064 1021     		movs	r1, #16
 857 0066 FFF7FEFF 		bl	spiReceive
 858              	.LVL99:
 859              		.loc 1 329 0
 860 006a 9DF81B20 		ldrb	r2, [sp, #27]	@ zero_extendqisi2
 861 006e 9DF81F30 		ldrb	r3, [sp, #31]	@ zero_extendqisi2
 862              		.loc 1 328 0
 863 0072 9DF82560 		ldrb	r6, [sp, #37]	@ zero_extendqisi2
 864 0076 9DF819A0 		ldrb	sl, [sp, #25]	@ zero_extendqisi2
 865 007a 9DF81D80 		ldrb	r8, [sp, #29]	@ zero_extendqisi2
 866 007e 9DF82470 		ldrb	r7, [sp, #36]	@ zero_extendqisi2
 867              		.loc 1 329 0
 868 0082 0292     		str	r2, [sp, #8]
 869 0084 0393     		str	r3, [sp, #12]
 870 0086 9DF82300 		ldrb	r0, [sp, #35]	@ zero_extendqisi2
 871 008a 9DF82710 		ldrb	r1, [sp, #39]	@ zero_extendqisi2
 872              		.loc 1 328 0
 873 008e 9DF818B0 		ldrb	fp, [sp, #24]	@ zero_extendqisi2
 874 0092 9DF81C90 		ldrb	r9, [sp, #28]	@ zero_extendqisi2
 875 0096 029B     		ldr	r3, [sp, #8]
 876 0098 9DF821E0 		ldrb	lr, [sp, #33]	@ zero_extendqisi2
 877              		.loc 1 329 0
 878 009c 0490     		str	r0, [sp, #16]
 879              		.loc 1 328 0
 880 009e 3604     		lsls	r6, r6, #16
 881 00a0 46EA0767 		orr	r7, r6, r7, lsl #24
 882 00a4 4FEA0A4A 		lsl	sl, sl, #16
 883 00a8 039E     		ldr	r6, [sp, #12]
 884              		.loc 1 329 0
 885 00aa 0591     		str	r1, [sp, #20]
 886              		.loc 1 328 0
 887 00ac 4FEA0848 		lsl	r8, r8, #16
 888              		.loc 1 329 0
 889 00b0 9DF81A20 		ldrb	r2, [sp, #26]	@ zero_extendqisi2
 890              		.loc 1 328 0
 891 00b4 9DF820C0 		ldrb	ip, [sp, #32]	@ zero_extendqisi2
 892              		.loc 1 329 0
 893 00b8 0192     		str	r2, [sp, #4]
 894              		.loc 1 328 0
 895 00ba 4AEA0B6A 		orr	sl, sl, fp, lsl #24
 896 00be 48EA0968 		orr	r8, r8, r9, lsl #24
 897 00c2 4FEA0E4E 		lsl	lr, lr, #16
 898 00c6 4AEA030A 		orr	sl, sl, r3
 899 00ca 48EA0608 		orr	r8, r8, r6
 900 00ce 049B     		ldr	r3, [sp, #16]
 901 00d0 059E     		ldr	r6, [sp, #20]
 902              		.loc 1 329 0
 903 00d2 9DF81E00 		ldrb	r0, [sp, #30]	@ zero_extendqisi2
 904 00d6 9DF82210 		ldrb	r1, [sp, #34]	@ zero_extendqisi2
 905 00da 9DF82620 		ldrb	r2, [sp, #38]	@ zero_extendqisi2
 906              		.loc 1 328 0
 907 00de 4EEA0C6C 		orr	ip, lr, ip, lsl #24
 908 00e2 4CEA030E 		orr	lr, ip, r3
ARM GAS  /var/folders/ng/s8655sgx1ys_4lf9jzm2w6n00000gn/T//ccPS0mZc.s 			page 17


 909 00e6 47EA060C 		orr	ip, r7, r6
 910              		.loc 1 329 0
 911 00ea 019F     		ldr	r7, [sp, #4]
 912 00ec 48EA0026 		orr	r6, r8, r0, lsl #8
 913              		.loc 1 334 0
 914 00f0 E06A     		ldr	r0, [r4, #44]
 915              		.loc 1 329 0
 916 00f2 4AEA0723 		orr	r3, sl, r7, lsl #8
 917 00f6 4CEA0222 		orr	r2, ip, r2, lsl #8
 918 00fa 4EEA0127 		orr	r7, lr, r1, lsl #8
 919              		.loc 1 334 0
 920 00fe 0068     		ldr	r0, [r0, #0]
 921              		.loc 1 328 0
 922 0100 EB60     		str	r3, [r5, #12]
 923              	.LVL100:
 924              		.loc 1 334 0
 925 0102 0221     		movs	r1, #2
 926              		.loc 1 328 0
 927 0104 85E88400 		stmia	r5, {r2, r7}
 928 0108 AE60     		str	r6, [r5, #8]
 929              	.LVL101:
 930              		.loc 1 334 0
 931 010a FFF7FEFF 		bl	spiIgnore
 932              	.LVL102:
 933              		.loc 1 335 0
 934 010e E16A     		ldr	r1, [r4, #44]
 935 0110 0868     		ldr	r0, [r1, #0]
 936 0112 FFF7FEFF 		bl	spiUnselect
 937              	.LVL103:
 938              		.loc 1 337 0
 939 0116 0020     		movs	r0, #0
 940              	.LVL104:
 941              	.L76:
 942              	.LBE27:
 943              		.loc 1 341 0
 944 0118 0BB0     		add	sp, sp, #44
 945 011a BDE8F08F 		pop	{r4, r5, r6, r7, r8, r9, sl, fp, pc}
 946              	.L84:
 947              		.loc 1 315 0
 948 011e E26A     		ldr	r2, [r4, #44]
 949 0120 1068     		ldr	r0, [r2, #0]
 950 0122 FFF7FEFF 		bl	spiUnselect
 951              	.LVL105:
 952              		.loc 1 316 0
 953 0126 0120     		movs	r0, #1
 954 0128 F6E7     		b	.L76
 955              	.L85:
 956              		.loc 1 340 0
 957 012a 0120     		movs	r0, #1
 958 012c F4E7     		b	.L76
 959              		.cfi_endproc
 960              	.LFE127:
 961              		.size	read_CxD, .-read_CxD
 962 012e 00BF     		.section	.text.mmcConnect,"ax",%progbits
 963              		.align	2
 964              		.p2align 4,,15
 965              		.global	mmcConnect
ARM GAS  /var/folders/ng/s8655sgx1ys_4lf9jzm2w6n00000gn/T//ccPS0mZc.s 			page 18


 966              		.thumb
 967              		.thumb_func
 968              		.type	mmcConnect, %function
 969              	mmcConnect:
 970              	.LFB133:
 971              		.loc 1 447 0
 972              		.cfi_startproc
 973              		@ args = 0, pretend = 0, frame = 8
 974              		@ frame_needed = 0, uses_anonymous_args = 0
 975              	.LVL106:
 976 0000 70B5     		push	{r4, r5, r6, lr}
 977              	.LCFI12:
 978              		.cfi_def_cfa_offset 16
 979              		.cfi_offset 4, -16
 980              		.cfi_offset 5, -12
 981              		.cfi_offset 6, -8
 982              		.cfi_offset 14, -4
 983              		.loc 1 460 0
 984 0002 C36A     		ldr	r3, [r0, #44]
 985              		.loc 1 457 0
 986 0004 0322     		movs	r2, #3
 987              		.loc 1 447 0
 988 0006 0446     		mov	r4, r0
 989              		.loc 1 457 0
 990 0008 0271     		strb	r2, [r0, #4]
 991              		.loc 1 447 0
 992 000a 82B0     		sub	sp, sp, #8
 993              	.LCFI13:
 994              		.cfi_def_cfa_offset 24
 995              		.loc 1 460 0
 996 000c 93E80300 		ldmia	r3, {r0, r1}
 997              	.LVL107:
 998 0010 FFF7FEFF 		bl	spiStart
 999              	.LVL108:
 1000              		.loc 1 461 0
 1001 0014 E06A     		ldr	r0, [r4, #44]
 1002 0016 1021     		movs	r1, #16
 1003 0018 0068     		ldr	r0, [r0, #0]
 1004 001a FFF7FEFF 		bl	spiIgnore
 1005              	.LVL109:
 1006              		.loc 1 466 0
 1007 001e 0021     		movs	r1, #0
 1008 0020 2046     		mov	r0, r4
 1009 0022 0A46     		mov	r2, r1
 1010 0024 FFF7FEFF 		bl	send_command_R1
 1011              	.LVL110:
 1012 0028 0128     		cmp	r0, #1
 1013 002a 62D0     		beq	.L87
 1014              	.LVL111:
 1015              		.loc 1 470 0
 1016 002c 0A20     		movs	r0, #10
 1017 002e FFF7FEFF 		bl	chThdSleep
 1018              	.LVL112:
 1019              		.loc 1 466 0
 1020 0032 0021     		movs	r1, #0
 1021 0034 2046     		mov	r0, r4
 1022 0036 0A46     		mov	r2, r1
ARM GAS  /var/folders/ng/s8655sgx1ys_4lf9jzm2w6n00000gn/T//ccPS0mZc.s 			page 19


 1023 0038 FFF7FEFF 		bl	send_command_R1
 1024              	.LVL113:
 1025 003c 0128     		cmp	r0, #1
 1026 003e 58D0     		beq	.L87
 1027              	.LVL114:
 1028              		.loc 1 470 0
 1029 0040 0A20     		movs	r0, #10
 1030 0042 FFF7FEFF 		bl	chThdSleep
 1031              	.LVL115:
 1032              		.loc 1 466 0
 1033 0046 0021     		movs	r1, #0
 1034 0048 2046     		mov	r0, r4
 1035 004a 0A46     		mov	r2, r1
 1036 004c FFF7FEFF 		bl	send_command_R1
 1037              	.LVL116:
 1038 0050 0128     		cmp	r0, #1
 1039 0052 4ED0     		beq	.L87
 1040              	.LVL117:
 1041              		.loc 1 470 0
 1042 0054 0A20     		movs	r0, #10
 1043 0056 FFF7FEFF 		bl	chThdSleep
 1044              	.LVL118:
 1045              		.loc 1 466 0
 1046 005a 0021     		movs	r1, #0
 1047 005c 2046     		mov	r0, r4
 1048 005e 0A46     		mov	r2, r1
 1049 0060 FFF7FEFF 		bl	send_command_R1
 1050              	.LVL119:
 1051 0064 0128     		cmp	r0, #1
 1052 0066 44D0     		beq	.L87
 1053              	.LVL120:
 1054              		.loc 1 470 0
 1055 0068 0A20     		movs	r0, #10
 1056 006a FFF7FEFF 		bl	chThdSleep
 1057              	.LVL121:
 1058              		.loc 1 466 0
 1059 006e 0021     		movs	r1, #0
 1060 0070 2046     		mov	r0, r4
 1061 0072 0A46     		mov	r2, r1
 1062 0074 FFF7FEFF 		bl	send_command_R1
 1063              	.LVL122:
 1064 0078 0128     		cmp	r0, #1
 1065 007a 3AD0     		beq	.L87
 1066              	.LVL123:
 1067              		.loc 1 470 0
 1068 007c 0A20     		movs	r0, #10
 1069 007e FFF7FEFF 		bl	chThdSleep
 1070              	.LVL124:
 1071              		.loc 1 466 0
 1072 0082 0021     		movs	r1, #0
 1073 0084 2046     		mov	r0, r4
 1074 0086 0A46     		mov	r2, r1
 1075 0088 FFF7FEFF 		bl	send_command_R1
 1076              	.LVL125:
 1077 008c 0128     		cmp	r0, #1
 1078 008e 30D0     		beq	.L87
 1079              	.LVL126:
ARM GAS  /var/folders/ng/s8655sgx1ys_4lf9jzm2w6n00000gn/T//ccPS0mZc.s 			page 20


 1080              		.loc 1 470 0
 1081 0090 0A20     		movs	r0, #10
 1082 0092 FFF7FEFF 		bl	chThdSleep
 1083              	.LVL127:
 1084              		.loc 1 466 0
 1085 0096 0021     		movs	r1, #0
 1086 0098 2046     		mov	r0, r4
 1087 009a 0A46     		mov	r2, r1
 1088 009c FFF7FEFF 		bl	send_command_R1
 1089              	.LVL128:
 1090 00a0 0128     		cmp	r0, #1
 1091 00a2 26D0     		beq	.L87
 1092              	.LVL129:
 1093              		.loc 1 470 0
 1094 00a4 0A20     		movs	r0, #10
 1095 00a6 FFF7FEFF 		bl	chThdSleep
 1096              	.LVL130:
 1097              		.loc 1 466 0
 1098 00aa 0021     		movs	r1, #0
 1099 00ac 2046     		mov	r0, r4
 1100 00ae 0A46     		mov	r2, r1
 1101 00b0 FFF7FEFF 		bl	send_command_R1
 1102              	.LVL131:
 1103 00b4 0128     		cmp	r0, #1
 1104 00b6 1CD0     		beq	.L87
 1105              	.LVL132:
 1106              		.loc 1 470 0
 1107 00b8 0A20     		movs	r0, #10
 1108 00ba FFF7FEFF 		bl	chThdSleep
 1109              	.LVL133:
 1110              		.loc 1 466 0
 1111 00be 0021     		movs	r1, #0
 1112 00c0 2046     		mov	r0, r4
 1113 00c2 0A46     		mov	r2, r1
 1114 00c4 FFF7FEFF 		bl	send_command_R1
 1115              	.LVL134:
 1116 00c8 0128     		cmp	r0, #1
 1117 00ca 12D0     		beq	.L87
 1118              	.LVL135:
 1119              		.loc 1 470 0
 1120 00cc 0A20     		movs	r0, #10
 1121 00ce FFF7FEFF 		bl	chThdSleep
 1122              	.LVL136:
 1123              		.loc 1 466 0
 1124 00d2 0021     		movs	r1, #0
 1125 00d4 2046     		mov	r0, r4
 1126 00d6 0A46     		mov	r2, r1
 1127 00d8 FFF7FEFF 		bl	send_command_R1
 1128              	.LVL137:
 1129 00dc 0128     		cmp	r0, #1
 1130 00de 08D0     		beq	.L87
 1131              	.LVL138:
 1132              	.L88:
 1133              	.LDL1:
 1134              		.loc 1 537 0
 1135 00e0 E26A     		ldr	r2, [r4, #44]
 1136 00e2 1068     		ldr	r0, [r2, #0]
ARM GAS  /var/folders/ng/s8655sgx1ys_4lf9jzm2w6n00000gn/T//ccPS0mZc.s 			page 21


 1137 00e4 FFF7FEFF 		bl	spiStop
 1138              	.LVL139:
 1139              		.loc 1 538 0
 1140 00e8 0221     		movs	r1, #2
 1141 00ea 2171     		strb	r1, [r4, #4]
 1142              		.loc 1 539 0
 1143 00ec 0120     		movs	r0, #1
 1144              	.L98:
 1145              		.loc 1 540 0
 1146 00ee 02B0     		add	sp, sp, #8
 1147 00f0 70BD     		pop	{r4, r5, r6, pc}
 1148              	.L87:
 1149              		.loc 1 477 0
 1150 00f2 0821     		movs	r1, #8
 1151 00f4 2046     		mov	r0, r4
 1152 00f6 4FF4D572 		mov	r2, #426
 1153 00fa 01AB     		add	r3, sp, #4
 1154 00fc FFF7FEFF 		bl	send_command_R3
 1155              	.LVL140:
 1156 0100 0528     		cmp	r0, #5
 1157 0102 3FD0     		beq	.L90
 1158 0104 6426     		movs	r6, #100
 1159 0106 1DE0     		b	.L89
 1160              	.L94:
 1161              		.loc 1 490 0
 1162 0108 0A20     		movs	r0, #10
 1163              		.loc 1 488 0
 1164 010a 013E     		subs	r6, r6, #1
 1165 010c E8D0     		beq	.L88
 1166              		.loc 1 490 0
 1167 010e FFF7FEFF 		bl	chThdSleep
 1168              	.LVL141:
 1169              		.loc 1 483 0
 1170 0112 3721     		movs	r1, #55
 1171 0114 0022     		movs	r2, #0
 1172 0116 2046     		mov	r0, r4
 1173 0118 FFF7FEFF 		bl	send_command_R1
 1174              	.LVL142:
 1175 011c 0128     		cmp	r0, #1
 1176 011e 0546     		mov	r5, r0
 1177 0120 00F08580 		beq	.L155
 1178              	.L152:
 1179              		.loc 1 490 0
 1180 0124 0A20     		movs	r0, #10
 1181 0126 FFF7FEFF 		bl	chThdSleep
 1182              	.LVL143:
 1183              		.loc 1 483 0
 1184 012a 3721     		movs	r1, #55
 1185 012c 0022     		movs	r2, #0
 1186 012e 2046     		mov	r0, r4
 1187 0130 FFF7FEFF 		bl	send_command_R1
 1188              	.LVL144:
 1189 0134 0128     		cmp	r0, #1
 1190 0136 0546     		mov	r5, r0
 1191 0138 00F08680 		beq	.L156
 1192              	.L154:
 1193              		.loc 1 490 0
ARM GAS  /var/folders/ng/s8655sgx1ys_4lf9jzm2w6n00000gn/T//ccPS0mZc.s 			page 22


 1194 013c 0A20     		movs	r0, #10
 1195 013e 023E     		subs	r6, r6, #2
 1196 0140 FFF7FEFF 		bl	chThdSleep
 1197              	.LVL145:
 1198              	.L89:
 1199              		.loc 1 483 0
 1200 0144 3721     		movs	r1, #55
 1201 0146 0022     		movs	r2, #0
 1202 0148 2046     		mov	r0, r4
 1203 014a FFF7FEFF 		bl	send_command_R1
 1204              	.LVL146:
 1205 014e 0128     		cmp	r0, #1
 1206 0150 0546     		mov	r5, r0
 1207 0152 D9D1     		bne	.L94
 1208              		.loc 1 484 0 discriminator 1
 1209 0154 4FF4D572 		mov	r2, #426
 1210 0158 01AB     		add	r3, sp, #4
 1211 015a 2046     		mov	r0, r4
 1212 015c 2921     		movs	r1, #41
 1213 015e C4F20002 		movt	r2, 16384
 1214 0162 FFF7FEFF 		bl	send_command_R3
 1215              	.LVL147:
 1216              		.loc 1 483 0 discriminator 1
 1217 0166 0028     		cmp	r0, #0
 1218 0168 CED1     		bne	.L94
 1219              	.L93:
 1220              		.loc 1 494 0
 1221 016a 3A21     		movs	r1, #58
 1222 016c 0022     		movs	r2, #0
 1223 016e 01AB     		add	r3, sp, #4
 1224 0170 2046     		mov	r0, r4
 1225 0172 FFF7FEFF 		bl	send_command_R3
 1226              	.LVL148:
 1227              		.loc 1 497 0
 1228 0176 9DF80410 		ldrb	r1, [sp, #4]	@ zero_extendqisi2
 1229 017a 01F04003 		and	r3, r1, #64
 1230 017e DAB2     		uxtb	r2, r3
 1231 0180 002A     		cmp	r2, #0
 1232 0182 6ED1     		bne	.L157
 1233              	.L90:
 1234              		.loc 1 477 0
 1235 0184 6426     		movs	r6, #100
 1236 0186 1EE0     		b	.L97
 1237              	.LVL149:
 1238              	.L158:
 1239              	.LBB28:
 1240              		.loc 1 507 0
 1241 0188 012D     		cmp	r5, #1
 1242 018a A9D1     		bne	.L88
 1243              		.loc 1 509 0
 1244 018c 012E     		cmp	r6, #1
 1245 018e A7D0     		beq	.L88
 1246              		.loc 1 511 0
 1247 0190 FFF7FEFF 		bl	chThdSleep
 1248              	.LVL150:
 1249              		.loc 1 504 0
 1250 0194 2946     		mov	r1, r5
ARM GAS  /var/folders/ng/s8655sgx1ys_4lf9jzm2w6n00000gn/T//ccPS0mZc.s 			page 23


 1251 0196 2046     		mov	r0, r4
 1252 0198 0022     		movs	r2, #0
 1253 019a FFF7FEFF 		bl	send_command_R1
 1254              	.LVL151:
 1255              		.loc 1 505 0
 1256 019e 0546     		mov	r5, r0
 1257              	.LVL152:
 1258              		.loc 1 511 0
 1259 01a0 0A20     		movs	r0, #10
 1260              		.loc 1 505 0
 1261 01a2 CDB1     		cbz	r5, .L96
 1262              		.loc 1 507 0
 1263 01a4 012D     		cmp	r5, #1
 1264 01a6 9BD1     		bne	.L88
 1265              		.loc 1 511 0
 1266 01a8 FFF7FEFF 		bl	chThdSleep
 1267              	.LVL153:
 1268              		.loc 1 504 0
 1269 01ac 2946     		mov	r1, r5
 1270 01ae 2046     		mov	r0, r4
 1271 01b0 0022     		movs	r2, #0
 1272 01b2 FFF7FEFF 		bl	send_command_R1
 1273              	.LVL154:
 1274              		.loc 1 505 0
 1275 01b6 0146     		mov	r1, r0
 1276              		.loc 1 511 0
 1277 01b8 0A20     		movs	r0, #10
 1278              		.loc 1 505 0
 1279 01ba 69B1     		cbz	r1, .L96
 1280              		.loc 1 507 0
 1281 01bc 0129     		cmp	r1, #1
 1282 01be 8FD1     		bne	.L88
 1283 01c0 033E     		subs	r6, r6, #3
 1284              		.loc 1 511 0
 1285 01c2 FFF7FEFF 		bl	chThdSleep
 1286              	.LVL155:
 1287              	.L97:
 1288              		.loc 1 504 0
 1289 01c6 0022     		movs	r2, #0
 1290 01c8 2046     		mov	r0, r4
 1291 01ca 0121     		movs	r1, #1
 1292 01cc FFF7FEFF 		bl	send_command_R1
 1293              	.LVL156:
 1294              		.loc 1 505 0
 1295 01d0 0546     		mov	r5, r0
 1296              		.loc 1 511 0
 1297 01d2 0A20     		movs	r0, #10
 1298              	.LVL157:
 1299              		.loc 1 505 0
 1300 01d4 002D     		cmp	r5, #0
 1301 01d6 D7D1     		bne	.L158
 1302              	.L96:
 1303              	.LBE28:
 1304              		.loc 1 515 0
 1305 01d8 E06A     		ldr	r0, [r4, #44]
 1306 01da 8168     		ldr	r1, [r0, #8]
 1307 01dc 0068     		ldr	r0, [r0, #0]
ARM GAS  /var/folders/ng/s8655sgx1ys_4lf9jzm2w6n00000gn/T//ccPS0mZc.s 			page 24


 1308 01de FFF7FEFF 		bl	spiStart
 1309              	.LVL158:
 1310              		.loc 1 518 0
 1311 01e2 2046     		mov	r0, r4
 1312 01e4 1021     		movs	r1, #16
 1313 01e6 4FF40072 		mov	r2, #512
 1314 01ea FFF7FEFF 		bl	send_command_R1
 1315              	.LVL159:
 1316 01ee 0028     		cmp	r0, #0
 1317 01f0 7FF476AF 		bne	.L88
 1318              		.loc 1 523 0
 1319 01f4 04F11805 		add	r5, r4, #24
 1320 01f8 2046     		mov	r0, r4
 1321 01fa 0921     		movs	r1, #9
 1322 01fc 2A46     		mov	r2, r5
 1323 01fe FFF7FEFF 		bl	read_CxD
 1324              	.LVL160:
 1325 0202 0028     		cmp	r0, #0
 1326 0204 7FF46CAF 		bne	.L88
 1327              		.loc 1 525 0
 1328 0208 2846     		mov	r0, r5
 1329 020a FFF7FEFF 		bl	mmcsdGetCapacity
 1330              	.LVL161:
 1331 020e A062     		str	r0, [r4, #40]
 1332              		.loc 1 526 0
 1333 0210 0028     		cmp	r0, #0
 1334 0212 3FF465AF 		beq	.L88
 1335              		.loc 1 529 0
 1336 0216 2046     		mov	r0, r4
 1337 0218 0A21     		movs	r1, #10
 1338 021a 04F10802 		add	r2, r4, #8
 1339 021e FFF7FEFF 		bl	read_CxD
 1340              	.LVL162:
 1341 0222 0028     		cmp	r0, #0
 1342 0224 7FF45CAF 		bne	.L88
 1343              		.loc 1 532 0
 1344 0228 0523     		movs	r3, #5
 1345 022a 2371     		strb	r3, [r4, #4]
 1346 022c 5FE7     		b	.L98
 1347              	.L155:
 1348              		.loc 1 484 0
 1349 022e 4FF4D572 		mov	r2, #426
 1350 0232 01AB     		add	r3, sp, #4
 1351 0234 2921     		movs	r1, #41
 1352 0236 C4F20002 		movt	r2, 16384
 1353 023a 2046     		mov	r0, r4
 1354 023c FFF7FEFF 		bl	send_command_R3
 1355              	.LVL163:
 1356              		.loc 1 483 0
 1357 0240 0028     		cmp	r0, #0
 1358 0242 7FF46FAF 		bne	.L152
 1359 0246 90E7     		b	.L93
 1360              	.L156:
 1361              		.loc 1 484 0
 1362 0248 4FF4D572 		mov	r2, #426
 1363 024c 2921     		movs	r1, #41
 1364 024e C4F20002 		movt	r2, 16384
ARM GAS  /var/folders/ng/s8655sgx1ys_4lf9jzm2w6n00000gn/T//ccPS0mZc.s 			page 25


 1365 0252 01AB     		add	r3, sp, #4
 1366 0254 2046     		mov	r0, r4
 1367 0256 FFF7FEFF 		bl	send_command_R3
 1368              	.LVL164:
 1369              		.loc 1 483 0
 1370 025a 0028     		cmp	r0, #0
 1371 025c 7FF46EAF 		bne	.L154
 1372 0260 83E7     		b	.L93
 1373              	.L157:
 1374              		.loc 1 498 0
 1375 0262 84F83050 		strb	r5, [r4, #48]
 1376 0266 8DE7     		b	.L90
 1377              		.cfi_endproc
 1378              	.LFE133:
 1379              		.size	mmcConnect, .-mmcConnect
 1380 0268 AFF30080 		.section	.text.mmcSync,"ax",%progbits
 1380      AFF30080 
 1381              		.align	2
 1382              		.p2align 4,,15
 1383              		.global	mmcSync
 1384              		.thumb
 1385              		.thumb_func
 1386              		.type	mmcSync, %function
 1387              	mmcSync:
 1388              	.LFB141:
 1389              		.loc 1 795 0
 1390              		.cfi_startproc
 1391              		@ args = 0, pretend = 0, frame = 0
 1392              		@ frame_needed = 0, uses_anonymous_args = 0
 1393              	.LVL165:
 1394 0000 38B5     		push	{r3, r4, r5, lr}
 1395              	.LCFI14:
 1396              		.cfi_def_cfa_offset 16
 1397              		.cfi_offset 3, -16
 1398              		.cfi_offset 4, -12
 1399              		.cfi_offset 5, -8
 1400              		.cfi_offset 14, -4
 1401              		.loc 1 799 0
 1402 0002 0579     		ldrb	r5, [r0, #4]	@ zero_extendqisi2
 1403 0004 052D     		cmp	r5, #5
 1404              		.loc 1 795 0
 1405 0006 0446     		mov	r4, r0
 1406              		.loc 1 799 0
 1407 0008 01D0     		beq	.L162
 1408              		.loc 1 800 0
 1409 000a 0120     		movs	r0, #1
 1410              	.LVL166:
 1411              		.loc 1 811 0
 1412 000c 38BD     		pop	{r3, r4, r5, pc}
 1413              	.LVL167:
 1414              	.L162:
 1415              	.LBB31:
 1416              	.LBB32:
 1417              		.loc 1 805 0
 1418 000e C36A     		ldr	r3, [r0, #44]
 1419              		.loc 1 803 0
 1420 0010 0822     		movs	r2, #8
ARM GAS  /var/folders/ng/s8655sgx1ys_4lf9jzm2w6n00000gn/T//ccPS0mZc.s 			page 26


 1421              		.loc 1 805 0
 1422 0012 9968     		ldr	r1, [r3, #8]
 1423              		.loc 1 803 0
 1424 0014 0271     		strb	r2, [r0, #4]
 1425              		.loc 1 805 0
 1426 0016 1868     		ldr	r0, [r3, #0]
 1427              	.LVL168:
 1428 0018 FFF7FEFF 		bl	spiStart
 1429              	.LVL169:
 1430              		.loc 1 806 0
 1431 001c 2046     		mov	r0, r4
 1432 001e FFF7FEFF 		bl	sync
 1433              	.LVL170:
 1434              		.loc 1 809 0
 1435 0022 2571     		strb	r5, [r4, #4]
 1436 0024 0020     		movs	r0, #0
 1437 0026 38BD     		pop	{r3, r4, r5, pc}
 1438              	.LBE32:
 1439              	.LBE31:
 1440              		.cfi_endproc
 1441              	.LFE141:
 1442              		.size	mmcSync, .-mmcSync
 1443 0028 AFF30080 		.section	.text.mmcDisconnect,"ax",%progbits
 1443      AFF30080 
 1444              		.align	2
 1445              		.p2align 4,,15
 1446              		.global	mmcDisconnect
 1447              		.thumb
 1448              		.thumb_func
 1449              		.type	mmcDisconnect, %function
 1450              	mmcDisconnect:
 1451              	.LFB134:
 1452              		.loc 1 554 0
 1453              		.cfi_startproc
 1454              		@ args = 0, pretend = 0, frame = 0
 1455              		@ frame_needed = 0, uses_anonymous_args = 0
 1456              	.LVL171:
 1457 0000 10B5     		push	{r4, lr}
 1458              	.LCFI15:
 1459              		.cfi_def_cfa_offset 8
 1460              		.cfi_offset 4, -8
 1461              		.cfi_offset 14, -4
 1462              	.LBB40:
 1463              		.loc 1 558 0
 1464 0002 2023     		movs	r3, #32
 1465              	.LVL172:
 1466              	.LBE40:
 1467              		.loc 1 554 0
 1468 0004 0446     		mov	r4, r0
 1469              	.LBB41:
 1470              		.loc 1 558 0
 1471              	@ 558 "../AithonLibrary/ChibiOS/os/hal/src/mmc_spi.c" 1
 1472 0006 83F31188 		msr     BASEPRI, r3
 1473              	@ 0 "" 2
 1474              	.LVL173:
 1475              		.thumb
 1476              	.LBE41:
ARM GAS  /var/folders/ng/s8655sgx1ys_4lf9jzm2w6n00000gn/T//ccPS0mZc.s 			page 27


 1477              		.loc 1 561 0
 1478 000a 0379     		ldrb	r3, [r0, #4]	@ zero_extendqisi2
 1479              	.LVL174:
 1480 000c 022B     		cmp	r3, #2
 1481 000e 14D0     		beq	.L166
 1482              	.LVL175:
 1483              	.LBB42:
 1484              	.LBB43:
 1485              		.loc 1 565 0
 1486 0010 0420     		movs	r0, #4
 1487              	.LVL176:
 1488 0012 2071     		strb	r0, [r4, #4]
 1489              	.LBB44:
 1490              		.loc 1 566 0
 1491 0014 0023     		movs	r3, #0
 1492              	.LVL177:
 1493              	@ 566 "../AithonLibrary/ChibiOS/os/hal/src/mmc_spi.c" 1
 1494 0016 83F31188 		msr     BASEPRI, r3
 1495              	@ 0 "" 2
 1496              	.LVL178:
 1497              		.thumb
 1498              	.LBE44:
 1499              		.loc 1 569 0
 1500 001a E26A     		ldr	r2, [r4, #44]
 1501 001c 9168     		ldr	r1, [r2, #8]
 1502 001e 1068     		ldr	r0, [r2, #0]
 1503 0020 FFF7FEFF 		bl	spiStart
 1504              	.LVL179:
 1505              		.loc 1 570 0
 1506 0024 2046     		mov	r0, r4
 1507 0026 FFF7FEFF 		bl	sync
 1508              	.LVL180:
 1509              		.loc 1 572 0
 1510 002a E16A     		ldr	r1, [r4, #44]
 1511 002c 0868     		ldr	r0, [r1, #0]
 1512 002e FFF7FEFF 		bl	spiStop
 1513              	.LVL181:
 1514              		.loc 1 573 0
 1515 0032 0223     		movs	r3, #2
 1516 0034 2371     		strb	r3, [r4, #4]
 1517              	.LBE43:
 1518              	.LBE42:
 1519              		.loc 1 575 0
 1520 0036 0020     		movs	r0, #0
 1521 0038 10BD     		pop	{r4, pc}
 1522              	.LVL182:
 1523              	.L166:
 1524              	.LBB45:
 1525              		.loc 1 562 0
 1526 003a 0023     		movs	r3, #0
 1527              	.LVL183:
 1528              	@ 562 "../AithonLibrary/ChibiOS/os/hal/src/mmc_spi.c" 1
 1529 003c 83F31188 		msr     BASEPRI, r3
 1530              	@ 0 "" 2
 1531              	.LVL184:
 1532              		.thumb
 1533              	.LBE45:
ARM GAS  /var/folders/ng/s8655sgx1ys_4lf9jzm2w6n00000gn/T//ccPS0mZc.s 			page 28


 1534              		.loc 1 575 0
 1535 0040 0020     		movs	r0, #0
 1536              	.LVL185:
 1537 0042 10BD     		pop	{r4, pc}
 1538              		.cfi_endproc
 1539              	.LFE134:
 1540              		.size	mmcDisconnect, .-mmcDisconnect
 1541 0044 AFF30080 		.section	.text.mmcInit,"ax",%progbits
 1541      AFF30080 
 1541      AFF30080 
 1542              		.align	2
 1543              		.p2align 4,,15
 1544              		.global	mmcInit
 1545              		.thumb
 1546              		.thumb_func
 1547              		.type	mmcInit, %function
 1548              	mmcInit:
 1549              	.LFB129:
 1550              		.loc 1 376 0
 1551              		.cfi_startproc
 1552              		@ args = 0, pretend = 0, frame = 0
 1553              		@ frame_needed = 0, uses_anonymous_args = 0
 1554              		@ link register save eliminated.
 1555 0000 7047     		bx	lr
 1556              		.cfi_endproc
 1557              	.LFE129:
 1558              		.size	mmcInit, .-mmcInit
 1559 0002 00BFAFF3 		.section	.text.mmcObjectInit,"ax",%progbits
 1559      0080AFF3 
 1559      0080AFF3 
 1559      0080
 1560              		.align	2
 1561              		.p2align 4,,15
 1562              		.global	mmcObjectInit
 1563              		.thumb
 1564              		.thumb_func
 1565              		.type	mmcObjectInit, %function
 1566              	mmcObjectInit:
 1567              	.LFB130:
 1568              		.loc 1 387 0
 1569              		.cfi_startproc
 1570              		@ args = 0, pretend = 0, frame = 0
 1571              		@ frame_needed = 0, uses_anonymous_args = 0
 1572              		@ link register save eliminated.
 1573              	.LVL186:
 1574              		.loc 1 389 0
 1575 0000 40F20002 		movw	r2, #:lower16:.LANCHOR1
 1576              		.loc 1 391 0
 1577 0004 0023     		movs	r3, #0
 1578              		.loc 1 389 0
 1579 0006 C0F20002 		movt	r2, #:upper16:.LANCHOR1
 1580              		.loc 1 390 0
 1581 000a 0121     		movs	r1, #1
 1582              		.loc 1 389 0
 1583 000c 0260     		str	r2, [r0, #0]
 1584              		.loc 1 390 0
 1585 000e 0171     		strb	r1, [r0, #4]
ARM GAS  /var/folders/ng/s8655sgx1ys_4lf9jzm2w6n00000gn/T//ccPS0mZc.s 			page 29


 1586              		.loc 1 391 0
 1587 0010 C362     		str	r3, [r0, #44]
 1588              		.loc 1 392 0
 1589 0012 80F83030 		strb	r3, [r0, #48]
 1590 0016 7047     		bx	lr
 1591              		.cfi_endproc
 1592              	.LFE130:
 1593              		.size	mmcObjectInit, .-mmcObjectInit
 1594 0018 AFF30080 		.section	.text.mmcStart,"ax",%progbits
 1594      AFF30080 
 1595              		.align	2
 1596              		.p2align 4,,15
 1597              		.global	mmcStart
 1598              		.thumb
 1599              		.thumb_func
 1600              		.type	mmcStart, %function
 1601              	mmcStart:
 1602              	.LFB131:
 1603              		.loc 1 403 0
 1604              		.cfi_startproc
 1605              		@ args = 0, pretend = 0, frame = 0
 1606              		@ frame_needed = 0, uses_anonymous_args = 0
 1607              		@ link register save eliminated.
 1608              	.LVL187:
 1609              		.loc 1 410 0
 1610 0000 0223     		movs	r3, #2
 1611              		.loc 1 409 0
 1612 0002 C162     		str	r1, [r0, #44]
 1613              		.loc 1 410 0
 1614 0004 0371     		strb	r3, [r0, #4]
 1615 0006 7047     		bx	lr
 1616              		.cfi_endproc
 1617              	.LFE131:
 1618              		.size	mmcStart, .-mmcStart
 1619 0008 AFF30080 		.section	.text.mmcStop,"ax",%progbits
 1619      AFF30080 
 1620              		.align	2
 1621              		.p2align 4,,15
 1622              		.global	mmcStop
 1623              		.thumb
 1624              		.thumb_func
 1625              		.type	mmcStop, %function
 1626              	mmcStop:
 1627              	.LFB132:
 1628              		.loc 1 420 0
 1629              		.cfi_startproc
 1630              		@ args = 0, pretend = 0, frame = 0
 1631              		@ frame_needed = 0, uses_anonymous_args = 0
 1632              	.LVL188:
 1633              		.loc 1 426 0
 1634 0000 C36A     		ldr	r3, [r0, #44]
 1635              		.loc 1 420 0
 1636 0002 10B5     		push	{r4, lr}
 1637              	.LCFI16:
 1638              		.cfi_def_cfa_offset 8
 1639              		.cfi_offset 4, -8
 1640              		.cfi_offset 14, -4
ARM GAS  /var/folders/ng/s8655sgx1ys_4lf9jzm2w6n00000gn/T//ccPS0mZc.s 			page 30


 1641              		.loc 1 420 0
 1642 0004 0446     		mov	r4, r0
 1643              		.loc 1 426 0
 1644 0006 1868     		ldr	r0, [r3, #0]
 1645              	.LVL189:
 1646 0008 FFF7FEFF 		bl	spiStop
 1647              	.LVL190:
 1648              		.loc 1 427 0
 1649 000c 0120     		movs	r0, #1
 1650 000e 2071     		strb	r0, [r4, #4]
 1651 0010 10BD     		pop	{r4, pc}
 1652              		.cfi_endproc
 1653              	.LFE132:
 1654              		.size	mmcStop, .-mmcStop
 1655 0012 00BFAFF3 		.section	.text.mmcStartSequentialRead,"ax",%progbits
 1655      0080AFF3 
 1655      0080AFF3 
 1655      0080
 1656              		.align	2
 1657              		.p2align 4,,15
 1658              		.global	mmcStartSequentialRead
 1659              		.thumb
 1660              		.thumb_func
 1661              		.type	mmcStartSequentialRead, %function
 1662              	mmcStartSequentialRead:
 1663              	.LFB135:
 1664              		.loc 1 589 0
 1665              		.cfi_startproc
 1666              		@ args = 0, pretend = 0, frame = 0
 1667              		@ frame_needed = 0, uses_anonymous_args = 0
 1668              	.LVL191:
 1669 0000 38B5     		push	{r3, r4, r5, lr}
 1670              	.LCFI17:
 1671              		.cfi_def_cfa_offset 16
 1672              		.cfi_offset 3, -16
 1673              		.cfi_offset 4, -12
 1674              		.cfi_offset 5, -8
 1675              		.cfi_offset 14, -4
 1676              		.loc 1 600 0
 1677 0002 C36A     		ldr	r3, [r0, #44]
 1678              		.loc 1 589 0
 1679 0004 0446     		mov	r4, r0
 1680              		.loc 1 596 0
 1681 0006 0622     		movs	r2, #6
 1682 0008 0271     		strb	r2, [r0, #4]
 1683              		.loc 1 589 0
 1684 000a 0D46     		mov	r5, r1
 1685              		.loc 1 600 0
 1686 000c 1868     		ldr	r0, [r3, #0]
 1687              	.LVL192:
 1688 000e 9968     		ldr	r1, [r3, #8]
 1689              	.LVL193:
 1690 0010 FFF7FEFF 		bl	spiStart
 1691              	.LVL194:
 1692              		.loc 1 601 0
 1693 0014 E06A     		ldr	r0, [r4, #44]
 1694 0016 0068     		ldr	r0, [r0, #0]
ARM GAS  /var/folders/ng/s8655sgx1ys_4lf9jzm2w6n00000gn/T//ccPS0mZc.s 			page 31


 1695 0018 FFF7FEFF 		bl	spiSelect
 1696              	.LVL195:
 1697              		.loc 1 603 0
 1698 001c 94F83030 		ldrb	r3, [r4, #48]	@ zero_extendqisi2
 1699              		.loc 1 604 0
 1700 0020 2046     		mov	r0, r4
 1701 0022 1221     		movs	r1, #18
 1702              		.loc 1 603 0
 1703 0024 73B1     		cbz	r3, .L172
 1704              		.loc 1 604 0
 1705 0026 2A46     		mov	r2, r5
 1706 0028 FFF7FEFF 		bl	send_hdr
 1707              	.LVL196:
 1708              	.L173:
 1709              		.loc 1 608 0
 1710 002c 2046     		mov	r0, r4
 1711 002e FFF7FEFF 		bl	recvr1
 1712              	.LVL197:
 1713 0032 30B1     		cbz	r0, .L174
 1714              		.loc 1 609 0
 1715 0034 E16A     		ldr	r1, [r4, #44]
 1716 0036 0868     		ldr	r0, [r1, #0]
 1717 0038 FFF7FEFF 		bl	spiStop
 1718              	.LVL198:
 1719              		.loc 1 610 0
 1720 003c 0522     		movs	r2, #5
 1721 003e 2271     		strb	r2, [r4, #4]
 1722              		.loc 1 611 0
 1723 0040 0120     		movs	r0, #1
 1724              	.L174:
 1725              		.loc 1 614 0
 1726 0042 38BD     		pop	{r3, r4, r5, pc}
 1727              	.LVL199:
 1728              	.L172:
 1729              		.loc 1 606 0
 1730 0044 6A02     		lsls	r2, r5, #9
 1731 0046 FFF7FEFF 		bl	send_hdr
 1732              	.LVL200:
 1733 004a EFE7     		b	.L173
 1734              		.cfi_endproc
 1735              	.LFE135:
 1736              		.size	mmcStartSequentialRead, .-mmcStartSequentialRead
 1737              		.section	.text.mmcSequentialRead,"ax",%progbits
 1738              		.align	2
 1739              		.p2align 4,,15
 1740              		.global	mmcSequentialRead
 1741              		.thumb
 1742              		.thumb_func
 1743              		.type	mmcSequentialRead, %function
 1744              	mmcSequentialRead:
 1745              	.LFB136:
 1746              		.loc 1 628 0
 1747              		.cfi_startproc
 1748              		@ args = 0, pretend = 0, frame = 0
 1749              		@ frame_needed = 0, uses_anonymous_args = 0
 1750              	.LVL201:
 1751              		.loc 1 633 0
ARM GAS  /var/folders/ng/s8655sgx1ys_4lf9jzm2w6n00000gn/T//ccPS0mZc.s 			page 32


 1752 0000 0379     		ldrb	r3, [r0, #4]	@ zero_extendqisi2
 1753 0002 062B     		cmp	r3, #6
 1754              		.loc 1 628 0
 1755 0004 70B5     		push	{r4, r5, r6, lr}
 1756              	.LCFI18:
 1757              		.cfi_def_cfa_offset 16
 1758              		.cfi_offset 4, -16
 1759              		.cfi_offset 5, -12
 1760              		.cfi_offset 6, -8
 1761              		.cfi_offset 14, -4
 1762              		.loc 1 628 0
 1763 0006 0646     		mov	r6, r0
 1764 0008 0C46     		mov	r4, r1
 1765              		.loc 1 633 0
 1766 000a 01D0     		beq	.L186
 1767              		.loc 1 634 0
 1768 000c 0120     		movs	r0, #1
 1769              	.LVL202:
 1770              		.loc 1 650 0
 1771 000e 70BD     		pop	{r4, r5, r6, pc}
 1772              	.LVL203:
 1773              	.L186:
 1774              		.loc 1 633 0
 1775 0010 42F21075 		movw	r5, #10000
 1776 0014 08E0     		b	.L179
 1777              	.LVL204:
 1778              	.L178:
 1779              		.loc 1 637 0
 1780 0016 F06A     		ldr	r0, [r6, #44]
 1781 0018 0068     		ldr	r0, [r0, #0]
 1782 001a FFF7FEFF 		bl	spiReceive
 1783              	.LVL205:
 1784              		.loc 1 638 0
 1785 001e 2178     		ldrb	r1, [r4, #0]	@ zero_extendqisi2
 1786 0020 FE29     		cmp	r1, #254
 1787 0022 0ED0     		beq	.L184
 1788              		.loc 1 636 0
 1789 0024 013D     		subs	r5, r5, #1
 1790 0026 1AD0     		beq	.L187
 1791              	.L179:
 1792              		.loc 1 637 0
 1793 0028 F06A     		ldr	r0, [r6, #44]
 1794 002a 0121     		movs	r1, #1
 1795 002c 2246     		mov	r2, r4
 1796 002e 0068     		ldr	r0, [r0, #0]
 1797 0030 FFF7FEFF 		bl	spiReceive
 1798              	.LVL206:
 1799              		.loc 1 638 0
 1800 0034 2378     		ldrb	r3, [r4, #0]	@ zero_extendqisi2
 1801              		.loc 1 637 0
 1802 0036 0121     		movs	r1, #1
 1803              		.loc 1 638 0
 1804 0038 FE2B     		cmp	r3, #254
 1805              		.loc 1 637 0
 1806 003a 2246     		mov	r2, r4
 1807 003c 05F1FF35 		add	r5, r5, #-1
 1808              		.loc 1 638 0
ARM GAS  /var/folders/ng/s8655sgx1ys_4lf9jzm2w6n00000gn/T//ccPS0mZc.s 			page 33


 1809 0040 E9D1     		bne	.L178
 1810              	.L184:
 1811              		.loc 1 639 0
 1812 0042 F26A     		ldr	r2, [r6, #44]
 1813 0044 4FF40071 		mov	r1, #512
 1814 0048 1068     		ldr	r0, [r2, #0]
 1815 004a 2246     		mov	r2, r4
 1816 004c FFF7FEFF 		bl	spiReceive
 1817              	.LVL207:
 1818              		.loc 1 641 0
 1819 0050 F36A     		ldr	r3, [r6, #44]
 1820 0052 0221     		movs	r1, #2
 1821 0054 1868     		ldr	r0, [r3, #0]
 1822 0056 FFF7FEFF 		bl	spiIgnore
 1823              	.LVL208:
 1824              		.loc 1 642 0
 1825 005a 0020     		movs	r0, #0
 1826 005c 70BD     		pop	{r4, r5, r6, pc}
 1827              	.L187:
 1828              		.loc 1 646 0
 1829 005e F26A     		ldr	r2, [r6, #44]
 1830 0060 1068     		ldr	r0, [r2, #0]
 1831 0062 FFF7FEFF 		bl	spiUnselect
 1832              	.LVL209:
 1833              		.loc 1 647 0
 1834 0066 F36A     		ldr	r3, [r6, #44]
 1835 0068 1868     		ldr	r0, [r3, #0]
 1836 006a FFF7FEFF 		bl	spiStop
 1837              	.LVL210:
 1838              		.loc 1 648 0
 1839 006e 0520     		movs	r0, #5
 1840 0070 3071     		strb	r0, [r6, #4]
 1841              		.loc 1 649 0
 1842 0072 0120     		movs	r0, #1
 1843 0074 70BD     		pop	{r4, r5, r6, pc}
 1844              		.cfi_endproc
 1845              	.LFE136:
 1846              		.size	mmcSequentialRead, .-mmcSequentialRead
 1847 0076 00BFAFF3 		.section	.text.mmcStopSequentialRead,"ax",%progbits
 1847      0080AFF3 
 1847      0080
 1848              		.align	2
 1849              		.p2align 4,,15
 1850              		.global	mmcStopSequentialRead
 1851              		.thumb
 1852              		.thumb_func
 1853              		.type	mmcStopSequentialRead, %function
 1854              	mmcStopSequentialRead:
 1855              	.LFB137:
 1856              		.loc 1 663 0
 1857              		.cfi_startproc
 1858              		@ args = 0, pretend = 0, frame = 0
 1859              		@ frame_needed = 0, uses_anonymous_args = 0
 1860              	.LVL211:
 1861              		.loc 1 669 0
 1862 0000 0379     		ldrb	r3, [r0, #4]	@ zero_extendqisi2
 1863 0002 062B     		cmp	r3, #6
ARM GAS  /var/folders/ng/s8655sgx1ys_4lf9jzm2w6n00000gn/T//ccPS0mZc.s 			page 34


 1864              		.loc 1 663 0
 1865 0004 10B5     		push	{r4, lr}
 1866              	.LCFI19:
 1867              		.cfi_def_cfa_offset 8
 1868              		.cfi_offset 4, -8
 1869              		.cfi_offset 14, -4
 1870              		.loc 1 663 0
 1871 0006 0446     		mov	r4, r0
 1872              		.loc 1 669 0
 1873 0008 01D0     		beq	.L191
 1874              		.loc 1 670 0
 1875 000a 0120     		movs	r0, #1
 1876              	.LVL212:
 1877              		.loc 1 681 0
 1878 000c 10BD     		pop	{r4, pc}
 1879              	.LVL213:
 1880              	.L191:
 1881              		.loc 1 672 0
 1882 000e C06A     		ldr	r0, [r0, #44]
 1883              	.LVL214:
 1884 0010 074A     		ldr	r2, .L192
 1885 0012 0068     		ldr	r0, [r0, #0]
 1886 0014 0721     		movs	r1, #7
 1887 0016 FFF7FEFF 		bl	spiSend
 1888              	.LVL215:
 1889              		.loc 1 675 0
 1890 001a 2046     		mov	r0, r4
 1891 001c FFF7FEFF 		bl	recvr1
 1892              	.LVL216:
 1893              		.loc 1 678 0
 1894 0020 E16A     		ldr	r1, [r4, #44]
 1895 0022 0868     		ldr	r0, [r1, #0]
 1896 0024 FFF7FEFF 		bl	spiUnselect
 1897              	.LVL217:
 1898              		.loc 1 679 0
 1899 0028 0522     		movs	r2, #5
 1900 002a 2271     		strb	r2, [r4, #4]
 1901              		.loc 1 680 0
 1902 002c 0020     		movs	r0, #0
 1903 002e 10BD     		pop	{r4, pc}
 1904              	.L193:
 1905              		.align	2
 1906              	.L192:
 1907 0030 00000000 		.word	.LANCHOR2
 1908              		.cfi_endproc
 1909              	.LFE137:
 1910              		.size	mmcStopSequentialRead, .-mmcStopSequentialRead
 1911 0034 AFF30080 		.section	.text.mmc_read,"ax",%progbits
 1911      AFF30080 
 1911      AFF30080 
 1912              		.align	2
 1913              		.p2align 4,,15
 1914              		.thumb
 1915              		.thumb_func
 1916              		.type	mmc_read, %function
 1917              	mmc_read:
 1918              	.LFB118:
ARM GAS  /var/folders/ng/s8655sgx1ys_4lf9jzm2w6n00000gn/T//ccPS0mZc.s 			page 35


 1919              		.loc 1 111 0
 1920              		.cfi_startproc
 1921              		@ args = 0, pretend = 0, frame = 0
 1922              		@ frame_needed = 0, uses_anonymous_args = 0
 1923              	.LVL218:
 1924 0000 F8B5     		push	{r3, r4, r5, r6, r7, lr}
 1925              	.LCFI20:
 1926              		.cfi_def_cfa_offset 24
 1927              		.cfi_offset 3, -24
 1928              		.cfi_offset 4, -20
 1929              		.cfi_offset 5, -16
 1930              		.cfi_offset 6, -12
 1931              		.cfi_offset 7, -8
 1932              		.cfi_offset 14, -4
 1933              		.loc 1 111 0
 1934 0002 0746     		mov	r7, r0
 1935 0004 1446     		mov	r4, r2
 1936 0006 1E46     		mov	r6, r3
 1937              		.loc 1 113 0
 1938 0008 FFF7FEFF 		bl	mmcStartSequentialRead
 1939              	.LVL219:
 1940 000c 0028     		cmp	r0, #0
 1941 000e 2DD1     		bne	.L196
 1942              		.loc 1 115 0 discriminator 1
 1943 0010 AEB1     		cbz	r6, .L200
 1944 0012 013E     		subs	r6, r6, #1
 1945              	.LVL220:
 1946              		.loc 1 116 0
 1947 0014 3846     		mov	r0, r7
 1948 0016 2146     		mov	r1, r4
 1949 0018 06F00105 		and	r5, r6, #1
 1950 001c FFF7FEFF 		bl	mmcSequentialRead
 1951              	.LVL221:
 1952 0020 0028     		cmp	r0, #0
 1953 0022 23D1     		bne	.L196
 1954              		.loc 1 118 0
 1955 0024 04F50074 		add	r4, r4, #512
 1956              	.LVL222:
 1957              		.loc 1 115 0
 1958 0028 4EB1     		cbz	r6, .L200
 1959 002a 9DB1     		cbz	r5, .L201
 1960              		.loc 1 116 0
 1961 002c 3846     		mov	r0, r7
 1962 002e 2146     		mov	r1, r4
 1963 0030 FFF7FEFF 		bl	mmcSequentialRead
 1964              	.LVL223:
 1965 0034 D0B9     		cbnz	r0, .L196
 1966              		.loc 1 115 0
 1967 0036 013E     		subs	r6, r6, #1
 1968              		.loc 1 118 0
 1969 0038 04F50074 		add	r4, r4, #512
 1970              	.LVL224:
 1971              		.loc 1 115 0
 1972 003c 0AD1     		bne	.L201
 1973              	.L200:
 1974              	.LVL225:
 1975              	.LBB48:
ARM GAS  /var/folders/ng/s8655sgx1ys_4lf9jzm2w6n00000gn/T//ccPS0mZc.s 			page 36


 1976              	.LBB49:
 1977              		.loc 1 121 0
 1978 003e 3846     		mov	r0, r7
 1979              	.LBE49:
 1980              	.LBE48:
 1981              		.loc 1 124 0
 1982 0040 BDE8F840 		pop	{r3, r4, r5, r6, r7, lr}
 1983              	.LBB51:
 1984              	.LBB50:
 1985              		.loc 1 121 0
 1986 0044 FFF7FEBF 		b	mmcStopSequentialRead
 1987              	.LVL226:
 1988              	.L212:
 1989              	.LBE50:
 1990              	.LBE51:
 1991              		.loc 1 116 0
 1992 0048 3846     		mov	r0, r7
 1993 004a FFF7FEFF 		bl	mmcSequentialRead
 1994              	.LVL227:
 1995 004e 68B9     		cbnz	r0, .L196
 1996              		.loc 1 115 0
 1997 0050 013E     		subs	r6, r6, #1
 1998 0052 F4D0     		beq	.L200
 1999              	.L201:
 2000              		.loc 1 116 0
 2001 0054 2146     		mov	r1, r4
 2002 0056 3846     		mov	r0, r7
 2003 0058 FFF7FEFF 		bl	mmcSequentialRead
 2004              	.LVL228:
 2005              		.loc 1 118 0
 2006 005c 04F50075 		add	r5, r4, #512
 2007              		.loc 1 116 0
 2008 0060 2946     		mov	r1, r5
 2009              		.loc 1 119 0
 2010 0062 013E     		subs	r6, r6, #1
 2011              		.loc 1 118 0
 2012 0064 04F58064 		add	r4, r4, #1024
 2013              		.loc 1 116 0
 2014 0068 0028     		cmp	r0, #0
 2015 006a EDD0     		beq	.L212
 2016              	.L196:
 2017              		.loc 1 124 0
 2018 006c 0120     		movs	r0, #1
 2019 006e F8BD     		pop	{r3, r4, r5, r6, r7, pc}
 2020              		.cfi_endproc
 2021              	.LFE118:
 2022              		.size	mmc_read, .-mmc_read
 2023              		.section	.text.mmcStartSequentialWrite,"ax",%progbits
 2024              		.align	2
 2025              		.p2align 4,,15
 2026              		.global	mmcStartSequentialWrite
 2027              		.thumb
 2028              		.thumb_func
 2029              		.type	mmcStartSequentialWrite, %function
 2030              	mmcStartSequentialWrite:
 2031              	.LFB138:
 2032              		.loc 1 695 0
ARM GAS  /var/folders/ng/s8655sgx1ys_4lf9jzm2w6n00000gn/T//ccPS0mZc.s 			page 37


 2033              		.cfi_startproc
 2034              		@ args = 0, pretend = 0, frame = 0
 2035              		@ frame_needed = 0, uses_anonymous_args = 0
 2036              	.LVL229:
 2037 0000 38B5     		push	{r3, r4, r5, lr}
 2038              	.LCFI21:
 2039              		.cfi_def_cfa_offset 16
 2040              		.cfi_offset 3, -16
 2041              		.cfi_offset 4, -12
 2042              		.cfi_offset 5, -8
 2043              		.cfi_offset 14, -4
 2044              		.loc 1 704 0
 2045 0002 C36A     		ldr	r3, [r0, #44]
 2046              		.loc 1 695 0
 2047 0004 0446     		mov	r4, r0
 2048              		.loc 1 702 0
 2049 0006 0722     		movs	r2, #7
 2050 0008 0271     		strb	r2, [r0, #4]
 2051              		.loc 1 695 0
 2052 000a 0D46     		mov	r5, r1
 2053              		.loc 1 704 0
 2054 000c 1868     		ldr	r0, [r3, #0]
 2055              	.LVL230:
 2056 000e 9968     		ldr	r1, [r3, #8]
 2057              	.LVL231:
 2058 0010 FFF7FEFF 		bl	spiStart
 2059              	.LVL232:
 2060              		.loc 1 705 0
 2061 0014 E06A     		ldr	r0, [r4, #44]
 2062 0016 0068     		ldr	r0, [r0, #0]
 2063 0018 FFF7FEFF 		bl	spiSelect
 2064              	.LVL233:
 2065              		.loc 1 706 0
 2066 001c 94F83030 		ldrb	r3, [r4, #48]	@ zero_extendqisi2
 2067              		.loc 1 707 0
 2068 0020 2046     		mov	r0, r4
 2069 0022 1921     		movs	r1, #25
 2070              		.loc 1 706 0
 2071 0024 73B1     		cbz	r3, .L214
 2072              		.loc 1 707 0
 2073 0026 2A46     		mov	r2, r5
 2074 0028 FFF7FEFF 		bl	send_hdr
 2075              	.LVL234:
 2076              	.L215:
 2077              		.loc 1 712 0
 2078 002c 2046     		mov	r0, r4
 2079 002e FFF7FEFF 		bl	recvr1
 2080              	.LVL235:
 2081 0032 30B1     		cbz	r0, .L216
 2082              		.loc 1 713 0
 2083 0034 E16A     		ldr	r1, [r4, #44]
 2084 0036 0868     		ldr	r0, [r1, #0]
 2085 0038 FFF7FEFF 		bl	spiStop
 2086              	.LVL236:
 2087              		.loc 1 714 0
 2088 003c 0522     		movs	r2, #5
 2089 003e 2271     		strb	r2, [r4, #4]
ARM GAS  /var/folders/ng/s8655sgx1ys_4lf9jzm2w6n00000gn/T//ccPS0mZc.s 			page 38


 2090              		.loc 1 715 0
 2091 0040 0120     		movs	r0, #1
 2092              	.L216:
 2093              		.loc 1 718 0
 2094 0042 38BD     		pop	{r3, r4, r5, pc}
 2095              	.LVL237:
 2096              	.L214:
 2097              		.loc 1 709 0
 2098 0044 6A02     		lsls	r2, r5, #9
 2099 0046 FFF7FEFF 		bl	send_hdr
 2100              	.LVL238:
 2101 004a EFE7     		b	.L215
 2102              		.cfi_endproc
 2103              	.LFE138:
 2104              		.size	mmcStartSequentialWrite, .-mmcStartSequentialWrite
 2105              		.section	.text.mmcSequentialWrite,"ax",%progbits
 2106              		.align	2
 2107              		.p2align 4,,15
 2108              		.global	mmcSequentialWrite
 2109              		.thumb
 2110              		.thumb_func
 2111              		.type	mmcSequentialWrite, %function
 2112              	mmcSequentialWrite:
 2113              	.LFB139:
 2114              		.loc 1 732 0
 2115              		.cfi_startproc
 2116              		@ args = 0, pretend = 0, frame = 8
 2117              		@ frame_needed = 0, uses_anonymous_args = 0
 2118              	.LVL239:
 2119 0000 30B5     		push	{r4, r5, lr}
 2120              	.LCFI22:
 2121              		.cfi_def_cfa_offset 12
 2122              		.cfi_offset 4, -12
 2123              		.cfi_offset 5, -8
 2124              		.cfi_offset 14, -4
 2125              		.loc 1 738 0
 2126 0002 0379     		ldrb	r3, [r0, #4]	@ zero_extendqisi2
 2127 0004 072B     		cmp	r3, #7
 2128              		.loc 1 732 0
 2129 0006 83B0     		sub	sp, sp, #12
 2130              	.LCFI23:
 2131              		.cfi_def_cfa_offset 24
 2132              		.loc 1 732 0
 2133 0008 0446     		mov	r4, r0
 2134 000a 0D46     		mov	r5, r1
 2135              		.loc 1 738 0
 2136 000c 02D0     		beq	.L222
 2137              		.loc 1 739 0
 2138 000e 0120     		movs	r0, #1
 2139              	.LVL240:
 2140              	.L219:
 2141              		.loc 1 755 0
 2142 0010 03B0     		add	sp, sp, #12
 2143 0012 30BD     		pop	{r4, r5, pc}
 2144              	.LVL241:
 2145              	.L222:
 2146              		.loc 1 741 0
ARM GAS  /var/folders/ng/s8655sgx1ys_4lf9jzm2w6n00000gn/T//ccPS0mZc.s 			page 39


 2147 0014 C06A     		ldr	r0, [r0, #44]
 2148              	.LVL242:
 2149 0016 174A     		ldr	r2, .L224
 2150 0018 0068     		ldr	r0, [r0, #0]
 2151 001a 0221     		movs	r1, #2
 2152              	.LVL243:
 2153 001c FFF7FEFF 		bl	spiSend
 2154              	.LVL244:
 2155              		.loc 1 742 0
 2156 0020 E16A     		ldr	r1, [r4, #44]
 2157 0022 2A46     		mov	r2, r5
 2158 0024 0868     		ldr	r0, [r1, #0]
 2159 0026 4FF40071 		mov	r1, #512
 2160 002a FFF7FEFF 		bl	spiSend
 2161              	.LVL245:
 2162              		.loc 1 743 0
 2163 002e E26A     		ldr	r2, [r4, #44]
 2164 0030 0221     		movs	r1, #2
 2165 0032 1068     		ldr	r0, [r2, #0]
 2166 0034 FFF7FEFF 		bl	spiIgnore
 2167              	.LVL246:
 2168              		.loc 1 744 0
 2169 0038 E36A     		ldr	r3, [r4, #44]
 2170 003a 0121     		movs	r1, #1
 2171 003c 1868     		ldr	r0, [r3, #0]
 2172 003e 01AA     		add	r2, sp, #4
 2173 0040 FFF7FEFF 		bl	spiReceive
 2174              	.LVL247:
 2175              		.loc 1 745 0
 2176 0044 9DF80400 		ldrb	r0, [sp, #4]	@ zero_extendqisi2
 2177 0048 00F01F01 		and	r1, r0, #31
 2178 004c 0529     		cmp	r1, #5
 2179 004e 0BD0     		beq	.L223
 2180              		.loc 1 751 0
 2181 0050 E26A     		ldr	r2, [r4, #44]
 2182 0052 1068     		ldr	r0, [r2, #0]
 2183 0054 FFF7FEFF 		bl	spiUnselect
 2184              	.LVL248:
 2185              		.loc 1 752 0
 2186 0058 E36A     		ldr	r3, [r4, #44]
 2187 005a 1868     		ldr	r0, [r3, #0]
 2188 005c FFF7FEFF 		bl	spiStop
 2189              	.LVL249:
 2190              		.loc 1 753 0
 2191 0060 0520     		movs	r0, #5
 2192 0062 2071     		strb	r0, [r4, #4]
 2193              		.loc 1 754 0
 2194 0064 0120     		movs	r0, #1
 2195 0066 D3E7     		b	.L219
 2196              	.L223:
 2197              		.loc 1 746 0
 2198 0068 2046     		mov	r0, r4
 2199 006a FFF7FEFF 		bl	wait
 2200              	.LVL250:
 2201              		.loc 1 747 0
 2202 006e 0020     		movs	r0, #0
 2203 0070 CEE7     		b	.L219
ARM GAS  /var/folders/ng/s8655sgx1ys_4lf9jzm2w6n00000gn/T//ccPS0mZc.s 			page 40


 2204              	.L225:
 2205 0072 00BF     		.align	2
 2206              	.L224:
 2207 0074 00000000 		.word	.LANCHOR3
 2208              		.cfi_endproc
 2209              	.LFE139:
 2210              		.size	mmcSequentialWrite, .-mmcSequentialWrite
 2211 0078 AFF30080 		.section	.text.mmcStopSequentialWrite,"ax",%progbits
 2211      AFF30080 
 2212              		.align	2
 2213              		.p2align 4,,15
 2214              		.global	mmcStopSequentialWrite
 2215              		.thumb
 2216              		.thumb_func
 2217              		.type	mmcStopSequentialWrite, %function
 2218              	mmcStopSequentialWrite:
 2219              	.LFB140:
 2220              		.loc 1 768 0
 2221              		.cfi_startproc
 2222              		@ args = 0, pretend = 0, frame = 0
 2223              		@ frame_needed = 0, uses_anonymous_args = 0
 2224              	.LVL251:
 2225              		.loc 1 773 0
 2226 0000 0379     		ldrb	r3, [r0, #4]	@ zero_extendqisi2
 2227 0002 072B     		cmp	r3, #7
 2228              		.loc 1 768 0
 2229 0004 10B5     		push	{r4, lr}
 2230              	.LCFI24:
 2231              		.cfi_def_cfa_offset 8
 2232              		.cfi_offset 4, -8
 2233              		.cfi_offset 14, -4
 2234              		.loc 1 768 0
 2235 0006 0446     		mov	r4, r0
 2236              		.loc 1 773 0
 2237 0008 01D0     		beq	.L229
 2238              		.loc 1 774 0
 2239 000a 0120     		movs	r0, #1
 2240              	.LVL252:
 2241              		.loc 1 782 0
 2242 000c 10BD     		pop	{r4, pc}
 2243              	.LVL253:
 2244              	.L229:
 2245              		.loc 1 776 0
 2246 000e C06A     		ldr	r0, [r0, #44]
 2247              	.LVL254:
 2248 0010 064A     		ldr	r2, .L230
 2249 0012 0068     		ldr	r0, [r0, #0]
 2250 0014 0221     		movs	r1, #2
 2251 0016 FFF7FEFF 		bl	spiSend
 2252              	.LVL255:
 2253              		.loc 1 777 0
 2254 001a E16A     		ldr	r1, [r4, #44]
 2255 001c 0868     		ldr	r0, [r1, #0]
 2256 001e FFF7FEFF 		bl	spiUnselect
 2257              	.LVL256:
 2258              		.loc 1 780 0
 2259 0022 0522     		movs	r2, #5
ARM GAS  /var/folders/ng/s8655sgx1ys_4lf9jzm2w6n00000gn/T//ccPS0mZc.s 			page 41


 2260 0024 2271     		strb	r2, [r4, #4]
 2261              		.loc 1 781 0
 2262 0026 0020     		movs	r0, #0
 2263 0028 10BD     		pop	{r4, pc}
 2264              	.L231:
 2265 002a 00BF     		.align	2
 2266              	.L230:
 2267 002c 00000000 		.word	.LANCHOR4
 2268              		.cfi_endproc
 2269              	.LFE140:
 2270              		.size	mmcStopSequentialWrite, .-mmcStopSequentialWrite
 2271              		.section	.text.mmc_write,"ax",%progbits
 2272              		.align	2
 2273              		.p2align 4,,15
 2274              		.thumb
 2275              		.thumb_func
 2276              		.type	mmc_write, %function
 2277              	mmc_write:
 2278              	.LFB119:
 2279              		.loc 1 127 0
 2280              		.cfi_startproc
 2281              		@ args = 0, pretend = 0, frame = 0
 2282              		@ frame_needed = 0, uses_anonymous_args = 0
 2283              	.LVL257:
 2284 0000 F8B5     		push	{r3, r4, r5, r6, r7, lr}
 2285              	.LCFI25:
 2286              		.cfi_def_cfa_offset 24
 2287              		.cfi_offset 3, -24
 2288              		.cfi_offset 4, -20
 2289              		.cfi_offset 5, -16
 2290              		.cfi_offset 6, -12
 2291              		.cfi_offset 7, -8
 2292              		.cfi_offset 14, -4
 2293              		.loc 1 127 0
 2294 0002 0746     		mov	r7, r0
 2295 0004 1446     		mov	r4, r2
 2296 0006 1E46     		mov	r6, r3
 2297              		.loc 1 129 0
 2298 0008 FFF7FEFF 		bl	mmcStartSequentialWrite
 2299              	.LVL258:
 2300 000c 0028     		cmp	r0, #0
 2301 000e 2DD1     		bne	.L234
 2302              		.loc 1 131 0 discriminator 1
 2303 0010 AEB1     		cbz	r6, .L238
 2304 0012 013E     		subs	r6, r6, #1
 2305              	.LVL259:
 2306              		.loc 1 132 0
 2307 0014 3846     		mov	r0, r7
 2308 0016 2146     		mov	r1, r4
 2309 0018 06F00105 		and	r5, r6, #1
 2310 001c FFF7FEFF 		bl	mmcSequentialWrite
 2311              	.LVL260:
 2312 0020 0028     		cmp	r0, #0
 2313 0022 23D1     		bne	.L234
 2314              		.loc 1 134 0
 2315 0024 04F50074 		add	r4, r4, #512
 2316              	.LVL261:
ARM GAS  /var/folders/ng/s8655sgx1ys_4lf9jzm2w6n00000gn/T//ccPS0mZc.s 			page 42


 2317              		.loc 1 131 0
 2318 0028 4EB1     		cbz	r6, .L238
 2319 002a 9DB1     		cbz	r5, .L239
 2320              		.loc 1 132 0
 2321 002c 3846     		mov	r0, r7
 2322 002e 2146     		mov	r1, r4
 2323 0030 FFF7FEFF 		bl	mmcSequentialWrite
 2324              	.LVL262:
 2325 0034 D0B9     		cbnz	r0, .L234
 2326              		.loc 1 131 0
 2327 0036 013E     		subs	r6, r6, #1
 2328              		.loc 1 134 0
 2329 0038 04F50074 		add	r4, r4, #512
 2330              	.LVL263:
 2331              		.loc 1 131 0
 2332 003c 0AD1     		bne	.L239
 2333              	.L238:
 2334              	.LVL264:
 2335              	.LBB54:
 2336              	.LBB55:
 2337              		.loc 1 137 0
 2338 003e 3846     		mov	r0, r7
 2339              	.LBE55:
 2340              	.LBE54:
 2341              		.loc 1 140 0
 2342 0040 BDE8F840 		pop	{r3, r4, r5, r6, r7, lr}
 2343              	.LBB57:
 2344              	.LBB56:
 2345              		.loc 1 137 0
 2346 0044 FFF7FEBF 		b	mmcStopSequentialWrite
 2347              	.LVL265:
 2348              	.L250:
 2349              	.LBE56:
 2350              	.LBE57:
 2351              		.loc 1 132 0
 2352 0048 3846     		mov	r0, r7
 2353 004a FFF7FEFF 		bl	mmcSequentialWrite
 2354              	.LVL266:
 2355 004e 68B9     		cbnz	r0, .L234
 2356              		.loc 1 131 0
 2357 0050 013E     		subs	r6, r6, #1
 2358 0052 F4D0     		beq	.L238
 2359              	.L239:
 2360              		.loc 1 132 0
 2361 0054 2146     		mov	r1, r4
 2362 0056 3846     		mov	r0, r7
 2363 0058 FFF7FEFF 		bl	mmcSequentialWrite
 2364              	.LVL267:
 2365              		.loc 1 134 0
 2366 005c 04F50075 		add	r5, r4, #512
 2367              		.loc 1 132 0
 2368 0060 2946     		mov	r1, r5
 2369              		.loc 1 135 0
 2370 0062 013E     		subs	r6, r6, #1
 2371              		.loc 1 134 0
 2372 0064 04F58064 		add	r4, r4, #1024
 2373              		.loc 1 132 0
ARM GAS  /var/folders/ng/s8655sgx1ys_4lf9jzm2w6n00000gn/T//ccPS0mZc.s 			page 43


 2374 0068 0028     		cmp	r0, #0
 2375 006a EDD0     		beq	.L250
 2376              	.L234:
 2377              		.loc 1 140 0
 2378 006c 0120     		movs	r0, #1
 2379 006e F8BD     		pop	{r3, r4, r5, r6, r7, pc}
 2380              		.cfi_endproc
 2381              	.LFE119:
 2382              		.size	mmc_write, .-mmc_write
 2383              		.section	.text.mmcErase,"ax",%progbits
 2384              		.align	2
 2385              		.p2align 4,,15
 2386              		.global	mmcErase
 2387              		.thumb
 2388              		.thumb_func
 2389              		.type	mmcErase, %function
 2390              	mmcErase:
 2391              	.LFB143:
 2392              		.loc 1 851 0
 2393              		.cfi_startproc
 2394              		@ args = 0, pretend = 0, frame = 0
 2395              		@ frame_needed = 0, uses_anonymous_args = 0
 2396              	.LVL268:
 2397 0000 38B5     		push	{r3, r4, r5, lr}
 2398              	.LCFI26:
 2399              		.cfi_def_cfa_offset 16
 2400              		.cfi_offset 3, -16
 2401              		.cfi_offset 4, -12
 2402              		.cfi_offset 5, -8
 2403              		.cfi_offset 14, -4
 2404              		.loc 1 851 0
 2405 0002 0446     		mov	r4, r0
 2406              		.loc 1 859 0
 2407 0004 90F83000 		ldrb	r0, [r0, #48]	@ zero_extendqisi2
 2408              	.LVL269:
 2409              		.loc 1 856 0
 2410 0008 0723     		movs	r3, #7
 2411 000a 2371     		strb	r3, [r4, #4]
 2412              		.loc 1 851 0
 2413 000c 1546     		mov	r5, r2
 2414 000e 0B46     		mov	r3, r1
 2415              		.loc 1 859 0
 2416 0010 08B9     		cbnz	r0, .L252
 2417              		.loc 1 860 0
 2418 0012 4B02     		lsls	r3, r1, #9
 2419              	.LVL270:
 2420              		.loc 1 861 0
 2421 0014 5502     		lsls	r5, r2, #9
 2422              	.LVL271:
 2423              	.L252:
 2424              		.loc 1 864 0
 2425 0016 2046     		mov	r0, r4
 2426 0018 2021     		movs	r1, #32
 2427 001a 1A46     		mov	r2, r3
 2428 001c FFF7FEFF 		bl	send_command_R1
 2429              	.LVL272:
 2430 0020 30B9     		cbnz	r0, .L253
ARM GAS  /var/folders/ng/s8655sgx1ys_4lf9jzm2w6n00000gn/T//ccPS0mZc.s 			page 44


 2431              		.loc 1 867 0
 2432 0022 2A46     		mov	r2, r5
 2433 0024 2046     		mov	r0, r4
 2434 0026 2121     		movs	r1, #33
 2435 0028 FFF7FEFF 		bl	send_command_R1
 2436              	.LVL273:
 2437 002c 0246     		mov	r2, r0
 2438 002e 38B1     		cbz	r0, .L255
 2439              	.L253:
 2440              	.LDL2:
 2441              		.loc 1 878 0
 2442 0030 E26A     		ldr	r2, [r4, #44]
 2443 0032 1068     		ldr	r0, [r2, #0]
 2444 0034 FFF7FEFF 		bl	spiStop
 2445              	.LVL274:
 2446              		.loc 1 879 0
 2447 0038 0520     		movs	r0, #5
 2448 003a 2071     		strb	r0, [r4, #4]
 2449              		.loc 1 880 0
 2450 003c 0120     		movs	r0, #1
 2451              		.loc 1 881 0
 2452 003e 38BD     		pop	{r3, r4, r5, pc}
 2453              	.L255:
 2454              		.loc 1 870 0
 2455 0040 2046     		mov	r0, r4
 2456 0042 2621     		movs	r1, #38
 2457 0044 FFF7FEFF 		bl	send_command_R1
 2458              	.LVL275:
 2459 0048 0028     		cmp	r0, #0
 2460 004a F1D1     		bne	.L253
 2461              		.loc 1 873 0
 2462 004c 0521     		movs	r1, #5
 2463 004e 2171     		strb	r1, [r4, #4]
 2464              		.loc 1 874 0
 2465 0050 38BD     		pop	{r3, r4, r5, pc}
 2466              		.cfi_endproc
 2467              	.LFE143:
 2468              		.size	mmcErase, .-mmcErase
 2469 0052 00BFAFF3 		.section	.rodata.crc7_lookup_table,"a",%progbits
 2469      0080AFF3 
 2469      0080AFF3 
 2469      0080
 2470              		.align	2
 2471              		.set	.LANCHOR0,. + 0
 2472              		.type	crc7_lookup_table, %object
 2473              		.size	crc7_lookup_table, 256
 2474              	crc7_lookup_table:
 2475 0000 00       		.byte	0
 2476 0001 09       		.byte	9
 2477 0002 12       		.byte	18
 2478 0003 1B       		.byte	27
 2479 0004 24       		.byte	36
 2480 0005 2D       		.byte	45
 2481 0006 36       		.byte	54
 2482 0007 3F       		.byte	63
 2483 0008 48       		.byte	72
 2484 0009 41       		.byte	65
ARM GAS  /var/folders/ng/s8655sgx1ys_4lf9jzm2w6n00000gn/T//ccPS0mZc.s 			page 45


 2485 000a 5A       		.byte	90
 2486 000b 53       		.byte	83
 2487 000c 6C       		.byte	108
 2488 000d 65       		.byte	101
 2489 000e 7E       		.byte	126
 2490 000f 77       		.byte	119
 2491 0010 19       		.byte	25
 2492 0011 10       		.byte	16
 2493 0012 0B       		.byte	11
 2494 0013 02       		.byte	2
 2495 0014 3D       		.byte	61
 2496 0015 34       		.byte	52
 2497 0016 2F       		.byte	47
 2498 0017 26       		.byte	38
 2499 0018 51       		.byte	81
 2500 0019 58       		.byte	88
 2501 001a 43       		.byte	67
 2502 001b 4A       		.byte	74
 2503 001c 75       		.byte	117
 2504 001d 7C       		.byte	124
 2505 001e 67       		.byte	103
 2506 001f 6E       		.byte	110
 2507 0020 32       		.byte	50
 2508 0021 3B       		.byte	59
 2509 0022 20       		.byte	32
 2510 0023 29       		.byte	41
 2511 0024 16       		.byte	22
 2512 0025 1F       		.byte	31
 2513 0026 04       		.byte	4
 2514 0027 0D       		.byte	13
 2515 0028 7A       		.byte	122
 2516 0029 73       		.byte	115
 2517 002a 68       		.byte	104
 2518 002b 61       		.byte	97
 2519 002c 5E       		.byte	94
 2520 002d 57       		.byte	87
 2521 002e 4C       		.byte	76
 2522 002f 45       		.byte	69
 2523 0030 2B       		.byte	43
 2524 0031 22       		.byte	34
 2525 0032 39       		.byte	57
 2526 0033 30       		.byte	48
 2527 0034 0F       		.byte	15
 2528 0035 06       		.byte	6
 2529 0036 1D       		.byte	29
 2530 0037 14       		.byte	20
 2531 0038 63       		.byte	99
 2532 0039 6A       		.byte	106
 2533 003a 71       		.byte	113
 2534 003b 78       		.byte	120
 2535 003c 47       		.byte	71
 2536 003d 4E       		.byte	78
 2537 003e 55       		.byte	85
 2538 003f 5C       		.byte	92
 2539 0040 64       		.byte	100
 2540 0041 6D       		.byte	109
 2541 0042 76       		.byte	118
ARM GAS  /var/folders/ng/s8655sgx1ys_4lf9jzm2w6n00000gn/T//ccPS0mZc.s 			page 46


 2542 0043 7F       		.byte	127
 2543 0044 40       		.byte	64
 2544 0045 49       		.byte	73
 2545 0046 52       		.byte	82
 2546 0047 5B       		.byte	91
 2547 0048 2C       		.byte	44
 2548 0049 25       		.byte	37
 2549 004a 3E       		.byte	62
 2550 004b 37       		.byte	55
 2551 004c 08       		.byte	8
 2552 004d 01       		.byte	1
 2553 004e 1A       		.byte	26
 2554 004f 13       		.byte	19
 2555 0050 7D       		.byte	125
 2556 0051 74       		.byte	116
 2557 0052 6F       		.byte	111
 2558 0053 66       		.byte	102
 2559 0054 59       		.byte	89
 2560 0055 50       		.byte	80
 2561 0056 4B       		.byte	75
 2562 0057 42       		.byte	66
 2563 0058 35       		.byte	53
 2564 0059 3C       		.byte	60
 2565 005a 27       		.byte	39
 2566 005b 2E       		.byte	46
 2567 005c 11       		.byte	17
 2568 005d 18       		.byte	24
 2569 005e 03       		.byte	3
 2570 005f 0A       		.byte	10
 2571 0060 56       		.byte	86
 2572 0061 5F       		.byte	95
 2573 0062 44       		.byte	68
 2574 0063 4D       		.byte	77
 2575 0064 72       		.byte	114
 2576 0065 7B       		.byte	123
 2577 0066 60       		.byte	96
 2578 0067 69       		.byte	105
 2579 0068 1E       		.byte	30
 2580 0069 17       		.byte	23
 2581 006a 0C       		.byte	12
 2582 006b 05       		.byte	5
 2583 006c 3A       		.byte	58
 2584 006d 33       		.byte	51
 2585 006e 28       		.byte	40
 2586 006f 21       		.byte	33
 2587 0070 4F       		.byte	79
 2588 0071 46       		.byte	70
 2589 0072 5D       		.byte	93
 2590 0073 54       		.byte	84
 2591 0074 6B       		.byte	107
 2592 0075 62       		.byte	98
 2593 0076 79       		.byte	121
 2594 0077 70       		.byte	112
 2595 0078 07       		.byte	7
 2596 0079 0E       		.byte	14
 2597 007a 15       		.byte	21
 2598 007b 1C       		.byte	28
ARM GAS  /var/folders/ng/s8655sgx1ys_4lf9jzm2w6n00000gn/T//ccPS0mZc.s 			page 47


 2599 007c 23       		.byte	35
 2600 007d 2A       		.byte	42
 2601 007e 31       		.byte	49
 2602 007f 38       		.byte	56
 2603 0080 41       		.byte	65
 2604 0081 48       		.byte	72
 2605 0082 53       		.byte	83
 2606 0083 5A       		.byte	90
 2607 0084 65       		.byte	101
 2608 0085 6C       		.byte	108
 2609 0086 77       		.byte	119
 2610 0087 7E       		.byte	126
 2611 0088 09       		.byte	9
 2612 0089 00       		.byte	0
 2613 008a 1B       		.byte	27
 2614 008b 12       		.byte	18
 2615 008c 2D       		.byte	45
 2616 008d 24       		.byte	36
 2617 008e 3F       		.byte	63
 2618 008f 36       		.byte	54
 2619 0090 58       		.byte	88
 2620 0091 51       		.byte	81
 2621 0092 4A       		.byte	74
 2622 0093 43       		.byte	67
 2623 0094 7C       		.byte	124
 2624 0095 75       		.byte	117
 2625 0096 6E       		.byte	110
 2626 0097 67       		.byte	103
 2627 0098 10       		.byte	16
 2628 0099 19       		.byte	25
 2629 009a 02       		.byte	2
 2630 009b 0B       		.byte	11
 2631 009c 34       		.byte	52
 2632 009d 3D       		.byte	61
 2633 009e 26       		.byte	38
 2634 009f 2F       		.byte	47
 2635 00a0 73       		.byte	115
 2636 00a1 7A       		.byte	122
 2637 00a2 61       		.byte	97
 2638 00a3 68       		.byte	104
 2639 00a4 57       		.byte	87
 2640 00a5 5E       		.byte	94
 2641 00a6 45       		.byte	69
 2642 00a7 4C       		.byte	76
 2643 00a8 3B       		.byte	59
 2644 00a9 32       		.byte	50
 2645 00aa 29       		.byte	41
 2646 00ab 20       		.byte	32
 2647 00ac 1F       		.byte	31
 2648 00ad 16       		.byte	22
 2649 00ae 0D       		.byte	13
 2650 00af 04       		.byte	4
 2651 00b0 6A       		.byte	106
 2652 00b1 63       		.byte	99
 2653 00b2 78       		.byte	120
 2654 00b3 71       		.byte	113
 2655 00b4 4E       		.byte	78
ARM GAS  /var/folders/ng/s8655sgx1ys_4lf9jzm2w6n00000gn/T//ccPS0mZc.s 			page 48


 2656 00b5 47       		.byte	71
 2657 00b6 5C       		.byte	92
 2658 00b7 55       		.byte	85
 2659 00b8 22       		.byte	34
 2660 00b9 2B       		.byte	43
 2661 00ba 30       		.byte	48
 2662 00bb 39       		.byte	57
 2663 00bc 06       		.byte	6
 2664 00bd 0F       		.byte	15
 2665 00be 14       		.byte	20
 2666 00bf 1D       		.byte	29
 2667 00c0 25       		.byte	37
 2668 00c1 2C       		.byte	44
 2669 00c2 37       		.byte	55
 2670 00c3 3E       		.byte	62
 2671 00c4 01       		.byte	1
 2672 00c5 08       		.byte	8
 2673 00c6 13       		.byte	19
 2674 00c7 1A       		.byte	26
 2675 00c8 6D       		.byte	109
 2676 00c9 64       		.byte	100
 2677 00ca 7F       		.byte	127
 2678 00cb 76       		.byte	118
 2679 00cc 49       		.byte	73
 2680 00cd 40       		.byte	64
 2681 00ce 5B       		.byte	91
 2682 00cf 52       		.byte	82
 2683 00d0 3C       		.byte	60
 2684 00d1 35       		.byte	53
 2685 00d2 2E       		.byte	46
 2686 00d3 27       		.byte	39
 2687 00d4 18       		.byte	24
 2688 00d5 11       		.byte	17
 2689 00d6 0A       		.byte	10
 2690 00d7 03       		.byte	3
 2691 00d8 74       		.byte	116
 2692 00d9 7D       		.byte	125
 2693 00da 66       		.byte	102
 2694 00db 6F       		.byte	111
 2695 00dc 50       		.byte	80
 2696 00dd 59       		.byte	89
 2697 00de 42       		.byte	66
 2698 00df 4B       		.byte	75
 2699 00e0 17       		.byte	23
 2700 00e1 1E       		.byte	30
 2701 00e2 05       		.byte	5
 2702 00e3 0C       		.byte	12
 2703 00e4 33       		.byte	51
 2704 00e5 3A       		.byte	58
 2705 00e6 21       		.byte	33
 2706 00e7 28       		.byte	40
 2707 00e8 5F       		.byte	95
 2708 00e9 56       		.byte	86
 2709 00ea 4D       		.byte	77
 2710 00eb 44       		.byte	68
 2711 00ec 7B       		.byte	123
 2712 00ed 72       		.byte	114
ARM GAS  /var/folders/ng/s8655sgx1ys_4lf9jzm2w6n00000gn/T//ccPS0mZc.s 			page 49


 2713 00ee 69       		.byte	105
 2714 00ef 60       		.byte	96
 2715 00f0 0E       		.byte	14
 2716 00f1 07       		.byte	7
 2717 00f2 1C       		.byte	28
 2718 00f3 15       		.byte	21
 2719 00f4 2A       		.byte	42
 2720 00f5 23       		.byte	35
 2721 00f6 38       		.byte	56
 2722 00f7 31       		.byte	49
 2723 00f8 46       		.byte	70
 2724 00f9 4F       		.byte	79
 2725 00fa 54       		.byte	84
 2726 00fb 5D       		.byte	93
 2727 00fc 62       		.byte	98
 2728 00fd 6B       		.byte	107
 2729 00fe 70       		.byte	112
 2730 00ff 79       		.byte	121
 2731              		.section	.rodata.mmc_vmt,"a",%progbits
 2732              		.align	2
 2733              		.set	.LANCHOR1,. + 0
 2734              		.type	mmc_vmt, %object
 2735              		.size	mmc_vmt, 32
 2736              	mmc_vmt:
 2737 0000 00000000 		.word	mmc_lld_is_card_inserted
 2738 0004 00000000 		.word	mmc_lld_is_write_protected
 2739 0008 00000000 		.word	mmcConnect
 2740 000c 00000000 		.word	mmcDisconnect
 2741 0010 00000000 		.word	mmc_read
 2742 0014 00000000 		.word	mmc_write
 2743 0018 00000000 		.word	mmcSync
 2744 001c 00000000 		.word	mmcGetInfo
 2745              		.section	.rodata.start.7907,"a",%progbits
 2746              		.align	2
 2747              		.set	.LANCHOR3,. + 0
 2748              		.type	start.7907, %object
 2749              		.size	start.7907, 2
 2750              	start.7907:
 2751 0000 FF       		.byte	-1
 2752 0001 FC       		.byte	-4
 2753 0002 0000     		.section	.rodata.stopcmd.7898,"a",%progbits
 2754              		.align	2
 2755              		.set	.LANCHOR2,. + 0
 2756              		.type	stopcmd.7898, %object
 2757              		.size	stopcmd.7898, 7
 2758              	stopcmd.7898:
 2759 0000 4C       		.byte	76
 2760 0001 00       		.byte	0
 2761 0002 00       		.byte	0
 2762 0003 00       		.byte	0
 2763 0004 00       		.byte	0
 2764 0005 01       		.byte	1
 2765 0006 FF       		.byte	-1
 2766 0007 00       		.section	.rodata.stop.7912,"a",%progbits
 2767              		.align	2
 2768              		.set	.LANCHOR4,. + 0
 2769              		.type	stop.7912, %object
ARM GAS  /var/folders/ng/s8655sgx1ys_4lf9jzm2w6n00000gn/T//ccPS0mZc.s 			page 50


 2770              		.size	stop.7912, 2
 2771              	stop.7912:
 2772 0000 FD       		.byte	-3
 2773 0001 FF       		.byte	-1
 2774 0002 0000     		.text
 2775              	.Letext0:
 2776              		.file 2 "/Users/jseng/gccarm/bin/../lib/gcc/arm-none-eabi/4.7.4/include/stddef.h"
 2777              		.file 3 "/Users/jseng/gccarm/bin/../lib/gcc/arm-none-eabi/4.7.4/../../../../arm-none-eabi/include/
 2778              		.file 4 "../AithonLibrary/ChibiOS/os/ports/GCC/ARMCMx/chtypes.h"
 2779              		.file 5 "../AithonLibrary/ChibiOS/os/kernel/include/chlists.h"
 2780              		.file 6 "../AithonLibrary/ChibiOS/os/kernel/include/chthreads.h"
 2781              		.file 7 "../AithonLibrary/ChibiOS/os/ports/GCC/ARMCMx/chcore_v7m.h"
 2782              		.file 8 "../AithonLibrary/ChibiOS/os/kernel/include/chmtx.h"
 2783              		.file 9 "../AithonLibrary/ChibiOS/os/hal/platforms/STM32F4xx/stm32f4xx.h"
 2784              		.file 10 "../AithonLibrary/ChibiOS/os/hal/platforms/STM32F4xx/stm32_dma.h"
 2785              		.file 11 "../AithonLibrary/ChibiOS/os/hal/include/io_block.h"
 2786              		.file 12 "../AithonLibrary/ChibiOS/os/hal/platforms/STM32/GPIOv2/pal_lld.h"
 2787              		.file 13 "../AithonLibrary/ChibiOS/os/hal/include/spi.h"
 2788              		.file 14 "../AithonLibrary/ChibiOS/os/hal/platforms/STM32/SPIv1/spi_lld.h"
 2789              		.file 15 "../AithonLibrary/ChibiOS/os/hal/include/mmc_spi.h"
 2790              		.file 16 "../AithonLibrary/ChibiOS/os/hal/include/mmcsd.h"
 2791              		.file 17 "../AithonLibrary/ChibiOS/os/ports/common/ARMCMx/CMSIS/include/core_cm4.h"