ARM GAS  /var/folders/ng/s8655sgx1ys_4lf9jzm2w6n00000gn/T//ccrXI726.s 			page 1


   1              		.syntax unified
   2              		.cpu cortex-m4
   3              		.eabi_attribute 27, 3
   4              		.fpu fpv4-sp-d16
   5              		.eabi_attribute 20, 1
   6              		.eabi_attribute 21, 1
   7              		.eabi_attribute 23, 3
   8              		.eabi_attribute 24, 1
   9              		.eabi_attribute 25, 1
  10              		.eabi_attribute 26, 1
  11              		.eabi_attribute 30, 2
  12              		.eabi_attribute 34, 1
  13              		.eabi_attribute 18, 4
  14              		.thumb
  15              		.file	"motor.c"
  16              		.text
  17              	.Ltext0:
  18              		.cfi_sections	.debug_frame
  19              		.section	.text._motor_init,"ax",%progbits
  20              		.align	2
  21              		.p2align 4,,15
  22              		.global	_motor_init
  23              		.thumb
  24              		.thumb_func
  25              		.type	_motor_init, %function
  26              	_motor_init:
  27              	.LFB119:
  28              		.file 1 "../AithonLibrary/motor.c"
  29              		.loc 1 24 0
  30              		.cfi_startproc
  31              		@ args = 0, pretend = 0, frame = 0
  32              		@ frame_needed = 0, uses_anonymous_args = 0
  33              		@ link register save eliminated.
  34              		.loc 1 25 0
  35 0000 40F20000 		movw	r0, #:lower16:PWMD1
  36 0004 40F20001 		movw	r1, #:lower16:.LANCHOR0
  37 0008 C0F20000 		movt	r0, #:upper16:PWMD1
  38 000c C0F20001 		movt	r1, #:upper16:.LANCHOR0
  39              		.loc 1 26 0
  40              		.loc 1 25 0
  41 0010 FFF7FEBF 		b	pwmStart
  42              	.LVL0:
  43              		.cfi_endproc
  44              	.LFE119:
  45              		.size	_motor_init, .-_motor_init
  46 0014 AFF30080 		.section	.text.motor_set,"ax",%progbits
  46      AFF30080 
  46      AFF30080 
  47              		.align	2
  48              		.p2align 4,,15
  49              		.global	motor_set
  50              		.thumb
  51              		.thumb_func
  52              		.type	motor_set, %function
  53              	motor_set:
  54              	.LFB120:
  55              		.loc 1 29 0
ARM GAS  /var/folders/ng/s8655sgx1ys_4lf9jzm2w6n00000gn/T//ccrXI726.s 			page 2


  56              		.cfi_startproc
  57              		@ args = 0, pretend = 0, frame = 0
  58              		@ frame_needed = 0, uses_anonymous_args = 0
  59              	.LVL1:
  60 0000 10B5     		push	{r4, lr}
  61              	.LCFI0:
  62              		.cfi_def_cfa_offset 8
  63              		.cfi_offset 4, -8
  64              		.cfi_offset 14, -4
  65              		.loc 1 30 0
  66 0002 0124     		movs	r4, #1
  67 0004 0019     		adds	r0, r0, r4
  68              	.LVL2:
  69 0006 C8F20004 		movt	r4, 32768
  70 000a 0440     		ands	r4, r4, r0
  71 000c 002C     		cmp	r4, #0
  72              		.loc 1 29 0
  73 000e 0A46     		mov	r2, r1
  74              		.loc 1 30 0
  75 0010 2BDB     		blt	.L9
  76              	.LVL3:
  77              	.L3:
  78              		.loc 1 31 0
  79 0012 002A     		cmp	r2, #0
  80 0014 18DC     		bgt	.L10
  81              		.loc 1 37 0
  82 0016 2DD1     		bne	.L11
  83              		.loc 1 45 0
  84 0018 2348     		ldr	r0, .L12
  85 001a E1B2     		uxtb	r1, r4
  86 001c FFF7FEFF 		bl	pwmEnableChannel
  87              	.LVL4:
  88              		.loc 1 46 0
  89 0020 224B     		ldr	r3, .L12+4
  90              		.loc 1 47 0
  91 0022 03EBC402 		add	r2, r3, r4, lsl #3
  92              		.loc 1 46 0
  93 0026 53F83410 		ldr	r1, [r3, r4, lsl #3]
  94              		.loc 1 47 0
  95 002a 5068     		ldr	r0, [r2, #4]
  96              		.loc 1 46 0
  97 002c 4FF48053 		mov	r3, #4096
  98 0030 0122     		movs	r2, #1
  99 0032 C4F20203 		movt	r3, 16386
 100 0036 1031     		adds	r1, r1, #16
 101              	.L7:
 102              		.loc 1 47 0
 103 0038 1030     		adds	r0, r0, #16
 104              		.loc 1 46 0
 105 003a 02FA01F1 		lsl	r1, r2, r1
 106              		.loc 1 47 0
 107 003e 02FA00F2 		lsl	r2, r2, r0
 108              		.loc 1 46 0
 109 0042 9961     		str	r1, [r3, #24]
 110              		.loc 1 47 0
 111 0044 9A61     		str	r2, [r3, #24]
 112 0046 10BD     		pop	{r4, pc}
ARM GAS  /var/folders/ng/s8655sgx1ys_4lf9jzm2w6n00000gn/T//ccrXI726.s 			page 3


 113              	.LVL5:
 114              	.L10:
 115              		.loc 1 33 0
 116 0048 1748     		ldr	r0, .L12
 117 004a E1B2     		uxtb	r1, r4
 118 004c 92B2     		uxth	r2, r2
 119              	.LVL6:
 120 004e FFF7FEFF 		bl	pwmEnableChannel
 121              	.LVL7:
 122              		.loc 1 34 0
 123 0052 1648     		ldr	r0, .L12+4
 124              		.loc 1 35 0
 125 0054 00EBC403 		add	r3, r0, r4, lsl #3
 126              		.loc 1 34 0
 127 0058 50F83410 		ldr	r1, [r0, r4, lsl #3]
 128              		.loc 1 35 0
 129 005c 5868     		ldr	r0, [r3, #4]
 130              		.loc 1 34 0
 131 005e 4FF48053 		mov	r3, #4096
 132 0062 0122     		movs	r2, #1
 133 0064 C4F20203 		movt	r3, 16386
 134 0068 E6E7     		b	.L7
 135              	.LVL8:
 136              	.L9:
 137              		.loc 1 30 0
 138 006a 013C     		subs	r4, r4, #1
 139 006c 64F00101 		orn	r1, r4, #1
 140              	.LVL9:
 141 0070 4C1C     		adds	r4, r1, #1
 142 0072 CEE7     		b	.L3
 143              	.LVL10:
 144              	.L11:
 145              		.loc 1 39 0
 146 0074 5342     		negs	r3, r2
 147 0076 9AB2     		uxth	r2, r3
 148              	.LVL11:
 149 0078 0B48     		ldr	r0, .L12
 150 007a E1B2     		uxtb	r1, r4
 151 007c FFF7FEFF 		bl	pwmEnableChannel
 152              	.LVL12:
 153              		.loc 1 40 0
 154 0080 0A49     		ldr	r1, .L12+4
 155              		.loc 1 41 0
 156 0082 01EBC400 		add	r0, r1, r4, lsl #3
 157              		.loc 1 40 0
 158 0086 51F83410 		ldr	r1, [r1, r4, lsl #3]
 159              		.loc 1 41 0
 160 008a 4068     		ldr	r0, [r0, #4]
 161              		.loc 1 40 0
 162 008c 4FF48053 		mov	r3, #4096
 163 0090 0122     		movs	r2, #1
 164 0092 C4F20203 		movt	r3, 16386
 165 0096 1031     		adds	r1, r1, #16
 166 0098 02FA01F1 		lsl	r1, r2, r1
 167              		.loc 1 41 0
 168 009c 02FA00F2 		lsl	r2, r2, r0
 169              		.loc 1 40 0
ARM GAS  /var/folders/ng/s8655sgx1ys_4lf9jzm2w6n00000gn/T//ccrXI726.s 			page 4


 170 00a0 9961     		str	r1, [r3, #24]
 171              		.loc 1 41 0
 172 00a2 9A61     		str	r2, [r3, #24]
 173 00a4 10BD     		pop	{r4, pc}
 174              	.L13:
 175 00a6 00BF     		.align	2
 176              	.L12:
 177 00a8 00000000 		.word	PWMD1
 178 00ac 00000000 		.word	.LANCHOR1
 179              		.cfi_endproc
 180              	.LFE120:
 181              		.size	motor_set, .-motor_set
 182              		.section	.text.motor_brake,"ax",%progbits
 183              		.align	2
 184              		.p2align 4,,15
 185              		.global	motor_brake
 186              		.thumb
 187              		.thumb_func
 188              		.type	motor_brake, %function
 189              	motor_brake:
 190              	.LFB121:
 191              		.loc 1 52 0
 192              		.cfi_startproc
 193              		@ args = 0, pretend = 0, frame = 0
 194              		@ frame_needed = 0, uses_anonymous_args = 0
 195              		@ link register save eliminated.
 196              	.LVL13:
 197              		.loc 1 53 0
 198 0000 0123     		movs	r3, #1
 199 0002 C018     		adds	r0, r0, r3
 200              	.LVL14:
 201 0004 C8F20003 		movt	r3, 32768
 202 0008 0340     		ands	r3, r3, r0
 203 000a 002B     		cmp	r3, #0
 204              		.loc 1 52 0
 205 000c F0B4     		push	{r4, r5, r6, r7}
 206              	.LCFI1:
 207              		.cfi_def_cfa_offset 16
 208              		.cfi_offset 4, -16
 209              		.cfi_offset 5, -12
 210              		.cfi_offset 6, -8
 211              		.cfi_offset 7, -4
 212              		.loc 1 53 0
 213 000e 1FDB     		blt	.L16
 214              	.L15:
 215              	.LVL15:
 216              		.loc 1 54 0
 217 0010 124C     		ldr	r4, .L17
 218              		.loc 1 56 0
 219 0012 1348     		ldr	r0, .L17+4
 220              		.loc 1 54 0
 221 0014 54F83370 		ldr	r7, [r4, r3, lsl #3]
 222              		.loc 1 55 0
 223 0018 04EBC305 		add	r5, r4, r3, lsl #3
 224              		.loc 1 56 0
 225 001c 01EB8101 		add	r1, r1, r1, lsl #2
 226              	.LVL16:
ARM GAS  /var/folders/ng/s8655sgx1ys_4lf9jzm2w6n00000gn/T//ccrXI726.s 			page 5


 227              		.loc 1 55 0
 228 0020 6E68     		ldr	r6, [r5, #4]
 229              		.loc 1 56 0
 230 0022 01EB8102 		add	r2, r1, r1, lsl #2
 231              		.loc 1 54 0
 232 0026 0125     		movs	r5, #1
 233              		.loc 1 55 0
 234 0028 1036     		adds	r6, r6, #16
 235              		.loc 1 54 0
 236 002a 1037     		adds	r7, r7, #16
 237 002c 4FF48054 		mov	r4, #4096
 238 0030 C4F20204 		movt	r4, 16386
 239 0034 05FA07F7 		lsl	r7, r5, r7
 240              		.loc 1 55 0
 241 0038 05FA06F5 		lsl	r5, r5, r6
 242              		.loc 1 56 0
 243 003c 9600     		lsls	r6, r2, #2
 244 003e 4FF6FC72 		movw	r2, #65532
 245 0042 D9B2     		uxtb	r1, r3
 246 0044 3240     		ands	r2, r2, r6
 247              		.loc 1 54 0
 248 0046 A761     		str	r7, [r4, #24]
 249              		.loc 1 55 0
 250 0048 A561     		str	r5, [r4, #24]
 251              		.loc 1 57 0
 252 004a F0BC     		pop	{r4, r5, r6, r7}
 253              		.loc 1 56 0
 254 004c FFF7FEBF 		b	pwmEnableChannel
 255              	.LVL17:
 256              	.L16:
 257              		.loc 1 53 0
 258 0050 013B     		subs	r3, r3, #1
 259 0052 63F00102 		orn	r2, r3, #1
 260 0056 531C     		adds	r3, r2, #1
 261 0058 DAE7     		b	.L15
 262              	.L18:
 263 005a 00BF     		.align	2
 264              	.L17:
 265 005c 00000000 		.word	.LANCHOR1
 266 0060 00000000 		.word	PWMD1
 267              		.cfi_endproc
 268              	.LFE121:
 269              		.size	motor_brake, .-motor_brake
 270 0064 AFF30080 		.section	.rodata.pwmcfg1,"a",%progbits
 270      AFF30080 
 270      AFF30080 
 271              		.align	2
 272              		.set	.LANCHOR0,. + 0
 273              		.type	pwmcfg1, %object
 274              		.size	pwmcfg1, 56
 275              	pwmcfg1:
 276 0000 C0C62D00 		.word	3000000
 277 0004 6400     		.short	100
 278 0006 0000     		.space	2
 279 0008 00000000 		.word	0
 280 000c 01000000 		.word	1
 281 0010 00000000 		.word	0
ARM GAS  /var/folders/ng/s8655sgx1ys_4lf9jzm2w6n00000gn/T//ccrXI726.s 			page 6


 282 0014 01000000 		.word	1
 283 0018 00000000 		.word	0
 284 001c 00000000 		.word	0
 285 0020 00000000 		.word	0
 286 0024 00000000 		.word	0
 287 0028 00000000 		.word	0
 288 002c 00000000 		.word	0
 289 0030 00000000 		.word	0
 290 0034 00000000 		.word	0
 291              		.section	.rodata.motorPins,"a",%progbits
 292              		.align	2
 293              		.set	.LANCHOR1,. + 0
 294              		.type	motorPins, %object
 295              		.size	motorPins, 16
 296              	motorPins:
 297 0000 07000000 		.word	7
 298 0004 08000000 		.word	8
 299 0008 0A000000 		.word	10
 300 000c 0C000000 		.word	12
 301              		.text
 302              	.Letext0:
 303              		.file 2 "/Users/jseng/gccarm/bin/../lib/gcc/arm-none-eabi/4.7.4/../../../../arm-none-eabi/include/
 304              		.file 3 "../AithonLibrary/ChibiOS/os/hal/platforms/STM32/GPIOv2/pal_lld.h"
 305              		.file 4 "../AithonLibrary/ChibiOS/os/hal/include/pwm.h"
 306              		.file 5 "../AithonLibrary/ChibiOS/os/hal/platforms/STM32/TIMv1/pwm_lld.h"
 307              		.file 6 "../AithonLibrary/ChibiOS/os/hal/platforms/STM32/TIMv1/stm32_tim.h"
 308              		.file 7 "../AithonLibrary/ChibiOS/os/ports/common/ARMCMx/CMSIS/include/core_cm4.h"
 309              		.section	.debug_info,"",%progbits
 310              	.Ldebug_info0:
 311 0000 2D060000 		.4byte	0x62d
 312 0004 0200     		.2byte	0x2
 313 0006 00000000 		.4byte	.Ldebug_abbrev0
 314 000a 04       		.byte	0x4
 315 000b 01       		.uleb128 0x1
 316 000c F0010000 		.4byte	.LASF67
 317 0010 01       		.byte	0x1
 318 0011 92020000 		.4byte	.LASF68
 319 0015 AD000000 		.4byte	.LASF69
 320 0019 00000000 		.4byte	.Ldebug_ranges0+0
 321 001d 00000000 		.4byte	0
 322 0021 00000000 		.4byte	0
 323 0025 00000000 		.4byte	.Ldebug_line0
 324 0029 02       		.uleb128 0x2
 325 002a 04       		.byte	0x4
 326 002b 05       		.byte	0x5
 327 002c 696E7400 		.ascii	"int\000"
 328 0030 03       		.uleb128 0x3
 329 0031 04       		.byte	0x4
 330 0032 07       		.byte	0x7
 331 0033 81010000 		.4byte	.LASF0
 332 0037 03       		.uleb128 0x3
 333 0038 01       		.byte	0x1
 334 0039 06       		.byte	0x6
 335 003a 55010000 		.4byte	.LASF1
 336 003e 04       		.uleb128 0x4
 337 003f 74000000 		.4byte	.LASF4
 338 0043 02       		.byte	0x2
ARM GAS  /var/folders/ng/s8655sgx1ys_4lf9jzm2w6n00000gn/T//ccrXI726.s 			page 7


 339 0044 2A       		.byte	0x2a
 340 0045 49000000 		.4byte	0x49
 341 0049 03       		.uleb128 0x3
 342 004a 01       		.byte	0x1
 343 004b 08       		.byte	0x8
 344 004c 42010000 		.4byte	.LASF2
 345 0050 03       		.uleb128 0x3
 346 0051 02       		.byte	0x2
 347 0052 05       		.byte	0x5
 348 0053 29000000 		.4byte	.LASF3
 349 0057 04       		.uleb128 0x4
 350 0058 8E010000 		.4byte	.LASF5
 351 005c 02       		.byte	0x2
 352 005d 36       		.byte	0x36
 353 005e 62000000 		.4byte	0x62
 354 0062 03       		.uleb128 0x3
 355 0063 02       		.byte	0x2
 356 0064 07       		.byte	0x7
 357 0065 BB010000 		.4byte	.LASF6
 358 0069 04       		.uleb128 0x4
 359 006a DC010000 		.4byte	.LASF7
 360 006e 02       		.byte	0x2
 361 006f 4F       		.byte	0x4f
 362 0070 74000000 		.4byte	0x74
 363 0074 03       		.uleb128 0x3
 364 0075 04       		.byte	0x4
 365 0076 05       		.byte	0x5
 366 0077 CE010000 		.4byte	.LASF8
 367 007b 04       		.uleb128 0x4
 368 007c 78010000 		.4byte	.LASF9
 369 0080 02       		.byte	0x2
 370 0081 50       		.byte	0x50
 371 0082 86000000 		.4byte	0x86
 372 0086 03       		.uleb128 0x3
 373 0087 04       		.byte	0x4
 374 0088 07       		.byte	0x7
 375 0089 47020000 		.4byte	.LASF10
 376 008d 03       		.uleb128 0x3
 377 008e 08       		.byte	0x8
 378 008f 05       		.byte	0x5
 379 0090 D3000000 		.4byte	.LASF11
 380 0094 03       		.uleb128 0x3
 381 0095 08       		.byte	0x8
 382 0096 07       		.byte	0x7
 383 0097 61010000 		.4byte	.LASF12
 384 009b 03       		.uleb128 0x3
 385 009c 01       		.byte	0x1
 386 009d 02       		.byte	0x2
 387 009e E4010000 		.4byte	.LASF13
 388 00a2 05       		.uleb128 0x5
 389 00a3 7B000000 		.4byte	0x7b
 390 00a7 03       		.uleb128 0x3
 391 00a8 04       		.byte	0x4
 392 00a9 07       		.byte	0x7
 393 00aa 41000000 		.4byte	.LASF14
 394 00ae 03       		.uleb128 0x3
 395 00af 01       		.byte	0x1
ARM GAS  /var/folders/ng/s8655sgx1ys_4lf9jzm2w6n00000gn/T//ccrXI726.s 			page 8


 396 00b0 08       		.byte	0x8
 397 00b1 E1000000 		.4byte	.LASF15
 398 00b5 06       		.uleb128 0x6
 399 00b6 7B000000 		.4byte	0x7b
 400 00ba C5000000 		.4byte	0xc5
 401 00be 07       		.uleb128 0x7
 402 00bf A7000000 		.4byte	0xa7
 403 00c3 03       		.byte	0x3
 404 00c4 00       		.byte	0
 405 00c5 05       		.uleb128 0x5
 406 00c6 69000000 		.4byte	0x69
 407 00ca 08       		.uleb128 0x8
 408 00cb 04       		.byte	0x4
 409 00cc 03       		.byte	0x3
 410 00cd 96       		.byte	0x96
 411 00ce EF000000 		.4byte	0xef
 412 00d2 09       		.uleb128 0x9
 413 00d3 73657400 		.ascii	"set\000"
 414 00d7 03       		.byte	0x3
 415 00d8 97       		.byte	0x97
 416 00d9 57000000 		.4byte	0x57
 417 00dd 02       		.byte	0x2
 418 00de 23       		.byte	0x23
 419 00df 00       		.uleb128 0
 420 00e0 0A       		.uleb128 0xa
 421 00e1 0F010000 		.4byte	.LASF16
 422 00e5 03       		.byte	0x3
 423 00e6 98       		.byte	0x98
 424 00e7 57000000 		.4byte	0x57
 425 00eb 02       		.byte	0x2
 426 00ec 23       		.byte	0x23
 427 00ed 02       		.uleb128 0x2
 428 00ee 00       		.byte	0
 429 00ef 0B       		.uleb128 0xb
 430 00f0 04       		.byte	0x4
 431 00f1 03       		.byte	0x3
 432 00f2 94       		.byte	0x94
 433 00f3 0A010000 		.4byte	0x10a
 434 00f7 0C       		.uleb128 0xc
 435 00f8 5700     		.ascii	"W\000"
 436 00fa 03       		.byte	0x3
 437 00fb 95       		.byte	0x95
 438 00fc 7B000000 		.4byte	0x7b
 439 0100 0C       		.uleb128 0xc
 440 0101 4800     		.ascii	"H\000"
 441 0103 03       		.byte	0x3
 442 0104 99       		.byte	0x99
 443 0105 CA000000 		.4byte	0xca
 444 0109 00       		.byte	0
 445 010a 08       		.uleb128 0x8
 446 010b 28       		.byte	0x28
 447 010c 03       		.byte	0x3
 448 010d 8C       		.byte	0x8c
 449 010e 9F010000 		.4byte	0x19f
 450 0112 0A       		.uleb128 0xa
 451 0113 09010000 		.4byte	.LASF17
 452 0117 03       		.byte	0x3
ARM GAS  /var/folders/ng/s8655sgx1ys_4lf9jzm2w6n00000gn/T//ccrXI726.s 			page 9


 453 0118 8E       		.byte	0x8e
 454 0119 A2000000 		.4byte	0xa2
 455 011d 02       		.byte	0x2
 456 011e 23       		.byte	0x23
 457 011f 00       		.uleb128 0
 458 0120 0A       		.uleb128 0xa
 459 0121 A6000000 		.4byte	.LASF18
 460 0125 03       		.byte	0x3
 461 0126 8F       		.byte	0x8f
 462 0127 A2000000 		.4byte	0xa2
 463 012b 02       		.byte	0x2
 464 012c 23       		.byte	0x23
 465 012d 04       		.uleb128 0x4
 466 012e 0A       		.uleb128 0xa
 467 012f 3F020000 		.4byte	.LASF19
 468 0133 03       		.byte	0x3
 469 0134 90       		.byte	0x90
 470 0135 A2000000 		.4byte	0xa2
 471 0139 02       		.byte	0x2
 472 013a 23       		.byte	0x23
 473 013b 08       		.uleb128 0x8
 474 013c 0A       		.uleb128 0xa
 475 013d B0010000 		.4byte	.LASF20
 476 0141 03       		.byte	0x3
 477 0142 91       		.byte	0x91
 478 0143 A2000000 		.4byte	0xa2
 479 0147 02       		.byte	0x2
 480 0148 23       		.byte	0x23
 481 0149 0C       		.uleb128 0xc
 482 014a 09       		.uleb128 0x9
 483 014b 49445200 		.ascii	"IDR\000"
 484 014f 03       		.byte	0x3
 485 0150 92       		.byte	0x92
 486 0151 A2000000 		.4byte	0xa2
 487 0155 02       		.byte	0x2
 488 0156 23       		.byte	0x23
 489 0157 10       		.uleb128 0x10
 490 0158 09       		.uleb128 0x9
 491 0159 4F445200 		.ascii	"ODR\000"
 492 015d 03       		.byte	0x3
 493 015e 93       		.byte	0x93
 494 015f A2000000 		.4byte	0xa2
 495 0163 02       		.byte	0x2
 496 0164 23       		.byte	0x23
 497 0165 14       		.uleb128 0x14
 498 0166 0A       		.uleb128 0xa
 499 0167 FD000000 		.4byte	.LASF21
 500 016b 03       		.byte	0x3
 501 016c 9A       		.byte	0x9a
 502 016d 9F010000 		.4byte	0x19f
 503 0171 02       		.byte	0x2
 504 0172 23       		.byte	0x23
 505 0173 18       		.uleb128 0x18
 506 0174 0A       		.uleb128 0xa
 507 0175 97000000 		.4byte	.LASF22
 508 0179 03       		.byte	0x3
 509 017a 9B       		.byte	0x9b
ARM GAS  /var/folders/ng/s8655sgx1ys_4lf9jzm2w6n00000gn/T//ccrXI726.s 			page 10


 510 017b A2000000 		.4byte	0xa2
 511 017f 02       		.byte	0x2
 512 0180 23       		.byte	0x23
 513 0181 1C       		.uleb128 0x1c
 514 0182 0A       		.uleb128 0xa
 515 0183 B6010000 		.4byte	.LASF23
 516 0187 03       		.byte	0x3
 517 0188 9C       		.byte	0x9c
 518 0189 A2000000 		.4byte	0xa2
 519 018d 02       		.byte	0x2
 520 018e 23       		.byte	0x23
 521 018f 20       		.uleb128 0x20
 522 0190 0A       		.uleb128 0xa
 523 0191 3C000000 		.4byte	.LASF24
 524 0195 03       		.byte	0x3
 525 0196 9D       		.byte	0x9d
 526 0197 A2000000 		.4byte	0xa2
 527 019b 02       		.byte	0x2
 528 019c 23       		.byte	0x23
 529 019d 24       		.uleb128 0x24
 530 019e 00       		.byte	0
 531 019f 05       		.uleb128 0x5
 532 01a0 EF000000 		.4byte	0xef
 533 01a4 04       		.uleb128 0x4
 534 01a5 00000000 		.4byte	.LASF25
 535 01a9 03       		.byte	0x3
 536 01aa 9E       		.byte	0x9e
 537 01ab 0A010000 		.4byte	0x10a
 538 01af 0D       		.uleb128 0xd
 539 01b0 01       		.byte	0x1
 540 01b1 04       		.byte	0x4
 541 01b2 55       		.byte	0x55
 542 01b3 CA010000 		.4byte	0x1ca
 543 01b7 0E       		.uleb128 0xe
 544 01b8 37010000 		.4byte	.LASF26
 545 01bc 00       		.sleb128 0
 546 01bd 0E       		.uleb128 0xe
 547 01be 7A020000 		.4byte	.LASF27
 548 01c2 01       		.sleb128 1
 549 01c3 0E       		.uleb128 0xe
 550 01c4 64020000 		.4byte	.LASF28
 551 01c8 02       		.sleb128 2
 552 01c9 00       		.byte	0
 553 01ca 04       		.uleb128 0x4
 554 01cb 59020000 		.4byte	.LASF29
 555 01cf 04       		.byte	0x4
 556 01d0 59       		.byte	0x59
 557 01d1 AF010000 		.4byte	0x1af
 558 01d5 04       		.uleb128 0x4
 559 01d6 97010000 		.4byte	.LASF30
 560 01da 04       		.byte	0x4
 561 01db 5E       		.byte	0x5e
 562 01dc E0010000 		.4byte	0x1e0
 563 01e0 0F       		.uleb128 0xf
 564 01e1 97010000 		.4byte	.LASF30
 565 01e5 14       		.byte	0x14
 566 01e6 05       		.byte	0x5
ARM GAS  /var/folders/ng/s8655sgx1ys_4lf9jzm2w6n00000gn/T//ccrXI726.s 			page 11


 567 01e7 6F01     		.2byte	0x16f
 568 01e9 39020000 		.4byte	0x239
 569 01ed 10       		.uleb128 0x10
 570 01ee 1B010000 		.4byte	.LASF31
 571 01f2 05       		.byte	0x5
 572 01f3 7301     		.2byte	0x173
 573 01f5 CA010000 		.4byte	0x1ca
 574 01f9 02       		.byte	0x2
 575 01fa 23       		.byte	0x23
 576 01fb 00       		.uleb128 0
 577 01fc 10       		.uleb128 0x10
 578 01fd 65000000 		.4byte	.LASF32
 579 0201 05       		.byte	0x5
 580 0202 7701     		.2byte	0x177
 581 0204 97040000 		.4byte	0x497
 582 0208 02       		.byte	0x2
 583 0209 23       		.byte	0x23
 584 020a 04       		.uleb128 0x4
 585 020b 10       		.uleb128 0x10
 586 020c 02010000 		.4byte	.LASF33
 587 0210 05       		.byte	0x5
 588 0211 7B01     		.2byte	0x17b
 589 0213 C8030000 		.4byte	0x3c8
 590 0217 02       		.byte	0x2
 591 0218 23       		.byte	0x23
 592 0219 08       		.uleb128 0x8
 593 021a 10       		.uleb128 0x10
 594 021b F2000000 		.4byte	.LASF34
 595 021f 05       		.byte	0x5
 596 0220 8301     		.2byte	0x183
 597 0222 7B000000 		.4byte	0x7b
 598 0226 02       		.byte	0x2
 599 0227 23       		.byte	0x23
 600 0228 0C       		.uleb128 0xc
 601 0229 11       		.uleb128 0x11
 602 022a 74696D00 		.ascii	"tim\000"
 603 022e 05       		.byte	0x5
 604 022f 8701     		.2byte	0x187
 605 0231 A2040000 		.4byte	0x4a2
 606 0235 02       		.byte	0x2
 607 0236 23       		.byte	0x23
 608 0237 10       		.uleb128 0x10
 609 0238 00       		.byte	0
 610 0239 04       		.uleb128 0x4
 611 023a D3020000 		.4byte	.LASF35
 612 023e 04       		.byte	0x4
 613 023f 65       		.byte	0x65
 614 0240 44020000 		.4byte	0x244
 615 0244 12       		.uleb128 0x12
 616 0245 04       		.byte	0x4
 617 0246 4A020000 		.4byte	0x24a
 618 024a 13       		.uleb128 0x13
 619 024b 01       		.byte	0x1
 620 024c 56020000 		.4byte	0x256
 621 0250 14       		.uleb128 0x14
 622 0251 56020000 		.4byte	0x256
 623 0255 00       		.byte	0
ARM GAS  /var/folders/ng/s8655sgx1ys_4lf9jzm2w6n00000gn/T//ccrXI726.s 			page 12


 624 0256 12       		.uleb128 0x12
 625 0257 04       		.byte	0x4
 626 0258 D5010000 		.4byte	0x1d5
 627 025c 15       		.uleb128 0x15
 628 025d 60       		.byte	0x60
 629 025e 06       		.byte	0x6
 630 025f 9E01     		.2byte	0x19e
 631 0261 9F030000 		.4byte	0x39f
 632 0265 11       		.uleb128 0x11
 633 0266 43523100 		.ascii	"CR1\000"
 634 026a 06       		.byte	0x6
 635 026b 9F01     		.2byte	0x19f
 636 026d A2000000 		.4byte	0xa2
 637 0271 02       		.byte	0x2
 638 0272 23       		.byte	0x23
 639 0273 00       		.uleb128 0
 640 0274 11       		.uleb128 0x11
 641 0275 43523200 		.ascii	"CR2\000"
 642 0279 06       		.byte	0x6
 643 027a A001     		.2byte	0x1a0
 644 027c A2000000 		.4byte	0xa2
 645 0280 02       		.byte	0x2
 646 0281 23       		.byte	0x23
 647 0282 04       		.uleb128 0x4
 648 0283 10       		.uleb128 0x10
 649 0284 32010000 		.4byte	.LASF36
 650 0288 06       		.byte	0x6
 651 0289 A101     		.2byte	0x1a1
 652 028b A2000000 		.4byte	0xa2
 653 028f 02       		.byte	0x2
 654 0290 23       		.byte	0x23
 655 0291 08       		.uleb128 0x8
 656 0292 10       		.uleb128 0x10
 657 0293 AB010000 		.4byte	.LASF37
 658 0297 06       		.byte	0x6
 659 0298 A201     		.2byte	0x1a2
 660 029a A2000000 		.4byte	0xa2
 661 029e 02       		.byte	0x2
 662 029f 23       		.byte	0x23
 663 02a0 0C       		.uleb128 0xc
 664 02a1 11       		.uleb128 0x11
 665 02a2 535200   		.ascii	"SR\000"
 666 02a5 06       		.byte	0x6
 667 02a6 A301     		.2byte	0x1a3
 668 02a8 A2000000 		.4byte	0xa2
 669 02ac 02       		.byte	0x2
 670 02ad 23       		.byte	0x23
 671 02ae 10       		.uleb128 0x10
 672 02af 11       		.uleb128 0x11
 673 02b0 45475200 		.ascii	"EGR\000"
 674 02b4 06       		.byte	0x6
 675 02b5 A401     		.2byte	0x1a4
 676 02b7 A2000000 		.4byte	0xa2
 677 02bb 02       		.byte	0x2
 678 02bc 23       		.byte	0x23
 679 02bd 14       		.uleb128 0x14
 680 02be 10       		.uleb128 0x10
ARM GAS  /var/folders/ng/s8655sgx1ys_4lf9jzm2w6n00000gn/T//ccrXI726.s 			page 13


 681 02bf 15010000 		.4byte	.LASF38
 682 02c3 06       		.byte	0x6
 683 02c4 A501     		.2byte	0x1a5
 684 02c6 A2000000 		.4byte	0xa2
 685 02ca 02       		.byte	0x2
 686 02cb 23       		.byte	0x23
 687 02cc 18       		.uleb128 0x18
 688 02cd 10       		.uleb128 0x10
 689 02ce 1D000000 		.4byte	.LASF39
 690 02d2 06       		.byte	0x6
 691 02d3 A601     		.2byte	0x1a6
 692 02d5 A2000000 		.4byte	0xa2
 693 02d9 02       		.byte	0x2
 694 02da 23       		.byte	0x23
 695 02db 1C       		.uleb128 0x1c
 696 02dc 10       		.uleb128 0x10
 697 02dd 0D000000 		.4byte	.LASF40
 698 02e1 06       		.byte	0x6
 699 02e2 A701     		.2byte	0x1a7
 700 02e4 A2000000 		.4byte	0xa2
 701 02e8 02       		.byte	0x2
 702 02e9 23       		.byte	0x23
 703 02ea 20       		.uleb128 0x20
 704 02eb 11       		.uleb128 0x11
 705 02ec 434E5400 		.ascii	"CNT\000"
 706 02f0 06       		.byte	0x6
 707 02f1 A801     		.2byte	0x1a8
 708 02f3 A2000000 		.4byte	0xa2
 709 02f7 02       		.byte	0x2
 710 02f8 23       		.byte	0x23
 711 02f9 24       		.uleb128 0x24
 712 02fa 11       		.uleb128 0x11
 713 02fb 50534300 		.ascii	"PSC\000"
 714 02ff 06       		.byte	0x6
 715 0300 A901     		.2byte	0x1a9
 716 0302 A2000000 		.4byte	0xa2
 717 0306 02       		.byte	0x2
 718 0307 23       		.byte	0x23
 719 0308 28       		.uleb128 0x28
 720 0309 11       		.uleb128 0x11
 721 030a 41525200 		.ascii	"ARR\000"
 722 030e 06       		.byte	0x6
 723 030f AA01     		.2byte	0x1aa
 724 0311 A2000000 		.4byte	0xa2
 725 0315 02       		.byte	0x2
 726 0316 23       		.byte	0x23
 727 0317 2C       		.uleb128 0x2c
 728 0318 11       		.uleb128 0x11
 729 0319 52435200 		.ascii	"RCR\000"
 730 031d 06       		.byte	0x6
 731 031e AB01     		.2byte	0x1ab
 732 0320 A2000000 		.4byte	0xa2
 733 0324 02       		.byte	0x2
 734 0325 23       		.byte	0x23
 735 0326 30       		.uleb128 0x30
 736 0327 11       		.uleb128 0x11
 737 0328 43435200 		.ascii	"CCR\000"
ARM GAS  /var/folders/ng/s8655sgx1ys_4lf9jzm2w6n00000gn/T//ccrXI726.s 			page 14


 738 032c 06       		.byte	0x6
 739 032d AC01     		.2byte	0x1ac
 740 032f 9F030000 		.4byte	0x39f
 741 0333 02       		.byte	0x2
 742 0334 23       		.byte	0x23
 743 0335 34       		.uleb128 0x34
 744 0336 10       		.uleb128 0x10
 745 0337 D7010000 		.4byte	.LASF41
 746 033b 06       		.byte	0x6
 747 033c AD01     		.2byte	0x1ad
 748 033e A2000000 		.4byte	0xa2
 749 0342 02       		.byte	0x2
 750 0343 23       		.byte	0x23
 751 0344 44       		.uleb128 0x44
 752 0345 11       		.uleb128 0x11
 753 0346 44435200 		.ascii	"DCR\000"
 754 034a 06       		.byte	0x6
 755 034b AE01     		.2byte	0x1ae
 756 034d A2000000 		.4byte	0xa2
 757 0351 02       		.byte	0x2
 758 0352 23       		.byte	0x23
 759 0353 48       		.uleb128 0x48
 760 0354 10       		.uleb128 0x10
 761 0355 12000000 		.4byte	.LASF42
 762 0359 06       		.byte	0x6
 763 035a AF01     		.2byte	0x1af
 764 035c A2000000 		.4byte	0xa2
 765 0360 02       		.byte	0x2
 766 0361 23       		.byte	0x23
 767 0362 4C       		.uleb128 0x4c
 768 0363 11       		.uleb128 0x11
 769 0364 4F5200   		.ascii	"OR\000"
 770 0367 06       		.byte	0x6
 771 0368 B001     		.2byte	0x1b0
 772 036a A2000000 		.4byte	0xa2
 773 036e 02       		.byte	0x2
 774 036f 23       		.byte	0x23
 775 0370 50       		.uleb128 0x50
 776 0371 10       		.uleb128 0x10
 777 0372 23000000 		.4byte	.LASF43
 778 0376 06       		.byte	0x6
 779 0377 B101     		.2byte	0x1b1
 780 0379 A2000000 		.4byte	0xa2
 781 037d 02       		.byte	0x2
 782 037e 23       		.byte	0x23
 783 037f 54       		.uleb128 0x54
 784 0380 10       		.uleb128 0x10
 785 0381 50010000 		.4byte	.LASF44
 786 0385 06       		.byte	0x6
 787 0386 B201     		.2byte	0x1b2
 788 0388 A2000000 		.4byte	0xa2
 789 038c 02       		.byte	0x2
 790 038d 23       		.byte	0x23
 791 038e 58       		.uleb128 0x58
 792 038f 10       		.uleb128 0x10
 793 0390 F8000000 		.4byte	.LASF45
 794 0394 06       		.byte	0x6
ARM GAS  /var/folders/ng/s8655sgx1ys_4lf9jzm2w6n00000gn/T//ccrXI726.s 			page 15


 795 0395 B301     		.2byte	0x1b3
 796 0397 A2000000 		.4byte	0xa2
 797 039b 02       		.byte	0x2
 798 039c 23       		.byte	0x23
 799 039d 5C       		.uleb128 0x5c
 800 039e 00       		.byte	0
 801 039f 05       		.uleb128 0x5
 802 03a0 B5000000 		.4byte	0xb5
 803 03a4 16       		.uleb128 0x16
 804 03a5 BA020000 		.4byte	.LASF46
 805 03a9 06       		.byte	0x6
 806 03aa B401     		.2byte	0x1b4
 807 03ac 5C020000 		.4byte	0x25c
 808 03b0 16       		.uleb128 0x16
 809 03b1 AB020000 		.4byte	.LASF47
 810 03b5 05       		.byte	0x5
 811 03b6 2001     		.2byte	0x120
 812 03b8 7B000000 		.4byte	0x7b
 813 03bc 16       		.uleb128 0x16
 814 03bd 4A000000 		.4byte	.LASF48
 815 03c1 05       		.byte	0x5
 816 03c2 2501     		.2byte	0x125
 817 03c4 3E000000 		.4byte	0x3e
 818 03c8 16       		.uleb128 0x16
 819 03c9 33000000 		.4byte	.LASF49
 820 03cd 05       		.byte	0x5
 821 03ce 2A01     		.2byte	0x12a
 822 03d0 57000000 		.4byte	0x57
 823 03d4 15       		.uleb128 0x15
 824 03d5 08       		.byte	0x8
 825 03d6 05       		.byte	0x5
 826 03d7 2F01     		.2byte	0x12f
 827 03d9 FC030000 		.4byte	0x3fc
 828 03dd 10       		.uleb128 0x10
 829 03de 57000000 		.4byte	.LASF50
 830 03e2 05       		.byte	0x5
 831 03e3 3301     		.2byte	0x133
 832 03e5 B0030000 		.4byte	0x3b0
 833 03e9 02       		.byte	0x2
 834 03ea 23       		.byte	0x23
 835 03eb 00       		.uleb128 0
 836 03ec 10       		.uleb128 0x10
 837 03ed E1020000 		.4byte	.LASF51
 838 03f1 05       		.byte	0x5
 839 03f2 3901     		.2byte	0x139
 840 03f4 39020000 		.4byte	0x239
 841 03f8 02       		.byte	0x2
 842 03f9 23       		.byte	0x23
 843 03fa 04       		.uleb128 0x4
 844 03fb 00       		.byte	0
 845 03fc 16       		.uleb128 0x16
 846 03fd 21010000 		.4byte	.LASF52
 847 0401 05       		.byte	0x5
 848 0402 3B01     		.2byte	0x13b
 849 0404 D4030000 		.4byte	0x3d4
 850 0408 15       		.uleb128 0x15
 851 0409 38       		.byte	0x38
ARM GAS  /var/folders/ng/s8655sgx1ys_4lf9jzm2w6n00000gn/T//ccrXI726.s 			page 16


 852 040a 05       		.byte	0x5
 853 040b 4001     		.2byte	0x140
 854 040d 7B040000 		.4byte	0x47b
 855 0411 10       		.uleb128 0x10
 856 0412 88020000 		.4byte	.LASF53
 857 0416 05       		.byte	0x5
 858 0417 4601     		.2byte	0x146
 859 0419 7B000000 		.4byte	0x7b
 860 041d 02       		.byte	0x2
 861 041e 23       		.byte	0x23
 862 041f 00       		.uleb128 0
 863 0420 10       		.uleb128 0x10
 864 0421 02010000 		.4byte	.LASF33
 865 0425 05       		.byte	0x5
 866 0426 4C01     		.2byte	0x14c
 867 0428 C8030000 		.4byte	0x3c8
 868 042c 02       		.byte	0x2
 869 042d 23       		.byte	0x23
 870 042e 04       		.uleb128 0x4
 871 042f 10       		.uleb128 0x10
 872 0430 E1020000 		.4byte	.LASF51
 873 0434 05       		.byte	0x5
 874 0435 5201     		.2byte	0x152
 875 0437 39020000 		.4byte	0x239
 876 043b 02       		.byte	0x2
 877 043c 23       		.byte	0x23
 878 043d 08       		.uleb128 0x8
 879 043e 10       		.uleb128 0x10
 880 043f 5C000000 		.4byte	.LASF54
 881 0443 05       		.byte	0x5
 882 0444 5601     		.2byte	0x156
 883 0446 7B040000 		.4byte	0x47b
 884 044a 02       		.byte	0x2
 885 044b 23       		.byte	0x23
 886 044c 0C       		.uleb128 0xc
 887 044d 11       		.uleb128 0x11
 888 044e 63723200 		.ascii	"cr2\000"
 889 0452 05       		.byte	0x5
 890 0453 5C01     		.2byte	0x15c
 891 0455 7B000000 		.4byte	0x7b
 892 0459 02       		.byte	0x2
 893 045a 23       		.byte	0x23
 894 045b 2C       		.uleb128 0x2c
 895 045c 10       		.uleb128 0x10
 896 045d B5020000 		.4byte	.LASF55
 897 0461 05       		.byte	0x5
 898 0462 6201     		.2byte	0x162
 899 0464 7B000000 		.4byte	0x7b
 900 0468 02       		.byte	0x2
 901 0469 23       		.byte	0x23
 902 046a 30       		.uleb128 0x30
 903 046b 10       		.uleb128 0x10
 904 046c 83020000 		.4byte	.LASF56
 905 0470 05       		.byte	0x5
 906 0471 6901     		.2byte	0x169
 907 0473 7B000000 		.4byte	0x7b
 908 0477 02       		.byte	0x2
ARM GAS  /var/folders/ng/s8655sgx1ys_4lf9jzm2w6n00000gn/T//ccrXI726.s 			page 17


 909 0478 23       		.byte	0x23
 910 0479 34       		.uleb128 0x34
 911 047a 00       		.byte	0
 912 047b 06       		.uleb128 0x6
 913 047c FC030000 		.4byte	0x3fc
 914 0480 8B040000 		.4byte	0x48b
 915 0484 07       		.uleb128 0x7
 916 0485 A7000000 		.4byte	0xa7
 917 0489 03       		.byte	0x3
 918 048a 00       		.byte	0
 919 048b 16       		.uleb128 0x16
 920 048c 9C000000 		.4byte	.LASF57
 921 0490 05       		.byte	0x5
 922 0491 6A01     		.2byte	0x16a
 923 0493 08040000 		.4byte	0x408
 924 0497 12       		.uleb128 0x12
 925 0498 04       		.byte	0x4
 926 0499 9D040000 		.4byte	0x49d
 927 049d 17       		.uleb128 0x17
 928 049e 8B040000 		.4byte	0x48b
 929 04a2 12       		.uleb128 0x12
 930 04a3 04       		.byte	0x4
 931 04a4 A4030000 		.4byte	0x3a4
 932 04a8 18       		.uleb128 0x18
 933 04a9 01       		.byte	0x1
 934 04aa 6E020000 		.4byte	.LASF58
 935 04ae 01       		.byte	0x1
 936 04af 17       		.byte	0x17
 937 04b0 01       		.byte	0x1
 938 04b1 00000000 		.4byte	.LFB119
 939 04b5 14000000 		.4byte	.LFE119
 940 04b9 02       		.byte	0x2
 941 04ba 7D       		.byte	0x7d
 942 04bb 00       		.sleb128 0
 943 04bc 01       		.byte	0x1
 944 04bd D6040000 		.4byte	0x4d6
 945 04c1 19       		.uleb128 0x19
 946 04c2 14000000 		.4byte	.LVL0
 947 04c6 01       		.byte	0x1
 948 04c7 FD050000 		.4byte	0x5fd
 949 04cb 1A       		.uleb128 0x1a
 950 04cc 01       		.byte	0x1
 951 04cd 51       		.byte	0x51
 952 04ce 05       		.byte	0x5
 953 04cf 03       		.byte	0x3
 954 04d0 00000000 		.4byte	.LANCHOR0
 955 04d4 00       		.byte	0
 956 04d5 00       		.byte	0
 957 04d6 1B       		.uleb128 0x1b
 958 04d7 01       		.byte	0x1
 959 04d8 A1010000 		.4byte	.LASF59
 960 04dc 01       		.byte	0x1
 961 04dd 1C       		.byte	0x1c
 962 04de 01       		.byte	0x1
 963 04df 00000000 		.4byte	.LFB120
 964 04e3 B0000000 		.4byte	.LFE120
 965 04e7 00000000 		.4byte	.LLST0
ARM GAS  /var/folders/ng/s8655sgx1ys_4lf9jzm2w6n00000gn/T//ccrXI726.s 			page 18


 966 04eb 01       		.byte	0x1
 967 04ec 56050000 		.4byte	0x556
 968 04f0 1C       		.uleb128 0x1c
 969 04f1 EA010000 		.4byte	.LASF60
 970 04f5 01       		.byte	0x1
 971 04f6 1C       		.byte	0x1c
 972 04f7 29000000 		.4byte	0x29
 973 04fb 20000000 		.4byte	.LLST1
 974 04ff 1C       		.uleb128 0x1c
 975 0500 39020000 		.4byte	.LASF61
 976 0504 01       		.byte	0x1
 977 0505 1C       		.byte	0x1c
 978 0506 29000000 		.4byte	0x29
 979 050a 63000000 		.4byte	.LLST2
 980 050e 1D       		.uleb128 0x1d
 981 050f 20000000 		.4byte	.LVL4
 982 0513 16060000 		.4byte	0x616
 983 0517 29050000 		.4byte	0x529
 984 051b 1A       		.uleb128 0x1a
 985 051c 01       		.byte	0x1
 986 051d 52       		.byte	0x52
 987 051e 03       		.byte	0x3
 988 051f F3       		.byte	0xf3
 989 0520 01       		.uleb128 0x1
 990 0521 51       		.byte	0x51
 991 0522 1A       		.uleb128 0x1a
 992 0523 01       		.byte	0x1
 993 0524 51       		.byte	0x51
 994 0525 02       		.byte	0x2
 995 0526 74       		.byte	0x74
 996 0527 00       		.sleb128 0
 997 0528 00       		.byte	0
 998 0529 1D       		.uleb128 0x1d
 999 052a 52000000 		.4byte	.LVL7
 1000 052e 16060000 		.4byte	0x616
 1001 0532 3D050000 		.4byte	0x53d
 1002 0536 1A       		.uleb128 0x1a
 1003 0537 01       		.byte	0x1
 1004 0538 51       		.byte	0x51
 1005 0539 02       		.byte	0x2
 1006 053a 74       		.byte	0x74
 1007 053b 00       		.sleb128 0
 1008 053c 00       		.byte	0
 1009 053d 1E       		.uleb128 0x1e
 1010 053e 80000000 		.4byte	.LVL12
 1011 0542 16060000 		.4byte	0x616
 1012 0546 1A       		.uleb128 0x1a
 1013 0547 01       		.byte	0x1
 1014 0548 52       		.byte	0x52
 1015 0549 04       		.byte	0x4
 1016 054a F3       		.byte	0xf3
 1017 054b 01       		.uleb128 0x1
 1018 054c 51       		.byte	0x51
 1019 054d 1F       		.byte	0x1f
 1020 054e 1A       		.uleb128 0x1a
 1021 054f 01       		.byte	0x1
 1022 0550 51       		.byte	0x51
ARM GAS  /var/folders/ng/s8655sgx1ys_4lf9jzm2w6n00000gn/T//ccrXI726.s 			page 19


 1023 0551 02       		.byte	0x2
 1024 0552 74       		.byte	0x74
 1025 0553 00       		.sleb128 0
 1026 0554 00       		.byte	0
 1027 0555 00       		.byte	0
 1028 0556 1B       		.uleb128 0x1b
 1029 0557 01       		.byte	0x1
 1030 0558 E6000000 		.4byte	.LASF62
 1031 055c 01       		.byte	0x1
 1032 055d 33       		.byte	0x33
 1033 055e 01       		.byte	0x1
 1034 055f 00000000 		.4byte	.LFB121
 1035 0563 64000000 		.4byte	.LFE121
 1036 0567 DA000000 		.4byte	.LLST3
 1037 056b 01       		.byte	0x1
 1038 056c A4050000 		.4byte	0x5a4
 1039 0570 1C       		.uleb128 0x1c
 1040 0571 EA010000 		.4byte	.LASF60
 1041 0575 01       		.byte	0x1
 1042 0576 33       		.byte	0x33
 1043 0577 29000000 		.4byte	0x29
 1044 057b FA000000 		.4byte	.LLST4
 1045 057f 1C       		.uleb128 0x1c
 1046 0580 39020000 		.4byte	.LASF61
 1047 0584 01       		.byte	0x1
 1048 0585 33       		.byte	0x33
 1049 0586 29000000 		.4byte	0x29
 1050 058a 32010000 		.4byte	.LLST5
 1051 058e 19       		.uleb128 0x19
 1052 058f 50000000 		.4byte	.LVL17
 1053 0593 01       		.byte	0x1
 1054 0594 16060000 		.4byte	0x616
 1055 0598 1A       		.uleb128 0x1a
 1056 0599 01       		.byte	0x1
 1057 059a 52       		.byte	0x52
 1058 059b 06       		.byte	0x6
 1059 059c 76       		.byte	0x76
 1060 059d 00       		.sleb128 0
 1061 059e 0A       		.byte	0xa
 1062 059f FCFF     		.2byte	0xfffc
 1063 05a1 1A       		.byte	0x1a
 1064 05a2 00       		.byte	0
 1065 05a3 00       		.byte	0
 1066 05a4 06       		.uleb128 0x6
 1067 05a5 29000000 		.4byte	0x29
 1068 05a9 BA050000 		.4byte	0x5ba
 1069 05ad 07       		.uleb128 0x7
 1070 05ae A7000000 		.4byte	0xa7
 1071 05b2 01       		.byte	0x1
 1072 05b3 07       		.uleb128 0x7
 1073 05b4 A7000000 		.4byte	0xa7
 1074 05b8 01       		.byte	0x1
 1075 05b9 00       		.byte	0
 1076 05ba 1F       		.uleb128 0x1f
 1077 05bb 7C000000 		.4byte	.LASF63
 1078 05bf 01       		.byte	0x1
 1079 05c0 03       		.byte	0x3
ARM GAS  /var/folders/ng/s8655sgx1ys_4lf9jzm2w6n00000gn/T//ccrXI726.s 			page 20


 1080 05c1 CB050000 		.4byte	0x5cb
 1081 05c5 05       		.byte	0x5
 1082 05c6 03       		.byte	0x3
 1083 05c7 00000000 		.4byte	motorPins
 1084 05cb 17       		.uleb128 0x17
 1085 05cc A4050000 		.4byte	0x5a4
 1086 05d0 1F       		.uleb128 0x1f
 1087 05d1 6C000000 		.4byte	.LASF64
 1088 05d5 01       		.byte	0x1
 1089 05d6 08       		.byte	0x8
 1090 05d7 9D040000 		.4byte	0x49d
 1091 05db 05       		.byte	0x5
 1092 05dc 03       		.byte	0x3
 1093 05dd 00000000 		.4byte	pwmcfg1
 1094 05e1 20       		.uleb128 0x20
 1095 05e2 C6020000 		.4byte	.LASF65
 1096 05e6 07       		.byte	0x7
 1097 05e7 9806     		.2byte	0x698
 1098 05e9 C5000000 		.4byte	0xc5
 1099 05ed 01       		.byte	0x1
 1100 05ee 01       		.byte	0x1
 1101 05ef 20       		.uleb128 0x20
 1102 05f0 17000000 		.4byte	.LASF66
 1103 05f4 05       		.byte	0x5
 1104 05f5 B301     		.2byte	0x1b3
 1105 05f7 D5010000 		.4byte	0x1d5
 1106 05fb 01       		.byte	0x1
 1107 05fc 01       		.byte	0x1
 1108 05fd 21       		.uleb128 0x21
 1109 05fe 01       		.byte	0x1
 1110 05ff CA000000 		.4byte	.LASF70
 1111 0603 04       		.byte	0x4
 1112 0604 F4       		.byte	0xf4
 1113 0605 01       		.byte	0x1
 1114 0606 01       		.byte	0x1
 1115 0607 16060000 		.4byte	0x616
 1116 060b 14       		.uleb128 0x14
 1117 060c 56020000 		.4byte	0x256
 1118 0610 14       		.uleb128 0x14
 1119 0611 97040000 		.4byte	0x497
 1120 0615 00       		.byte	0
 1121 0616 22       		.uleb128 0x22
 1122 0617 01       		.byte	0x1
 1123 0618 86000000 		.4byte	.LASF71
 1124 061c 04       		.byte	0x4
 1125 061d F7       		.byte	0xf7
 1126 061e 01       		.byte	0x1
 1127 061f 01       		.byte	0x1
 1128 0620 14       		.uleb128 0x14
 1129 0621 56020000 		.4byte	0x256
 1130 0625 14       		.uleb128 0x14
 1131 0626 BC030000 		.4byte	0x3bc
 1132 062a 14       		.uleb128 0x14
 1133 062b C8030000 		.4byte	0x3c8
 1134 062f 00       		.byte	0
 1135 0630 00       		.byte	0
 1136              		.section	.debug_abbrev,"",%progbits
ARM GAS  /var/folders/ng/s8655sgx1ys_4lf9jzm2w6n00000gn/T//ccrXI726.s 			page 21


 1137              	.Ldebug_abbrev0:
 1138 0000 01       		.uleb128 0x1
 1139 0001 11       		.uleb128 0x11
 1140 0002 01       		.byte	0x1
 1141 0003 25       		.uleb128 0x25
 1142 0004 0E       		.uleb128 0xe
 1143 0005 13       		.uleb128 0x13
 1144 0006 0B       		.uleb128 0xb
 1145 0007 03       		.uleb128 0x3
 1146 0008 0E       		.uleb128 0xe
 1147 0009 1B       		.uleb128 0x1b
 1148 000a 0E       		.uleb128 0xe
 1149 000b 55       		.uleb128 0x55
 1150 000c 06       		.uleb128 0x6
 1151 000d 11       		.uleb128 0x11
 1152 000e 01       		.uleb128 0x1
 1153 000f 52       		.uleb128 0x52
 1154 0010 01       		.uleb128 0x1
 1155 0011 10       		.uleb128 0x10
 1156 0012 06       		.uleb128 0x6
 1157 0013 00       		.byte	0
 1158 0014 00       		.byte	0
 1159 0015 02       		.uleb128 0x2
 1160 0016 24       		.uleb128 0x24
 1161 0017 00       		.byte	0
 1162 0018 0B       		.uleb128 0xb
 1163 0019 0B       		.uleb128 0xb
 1164 001a 3E       		.uleb128 0x3e
 1165 001b 0B       		.uleb128 0xb
 1166 001c 03       		.uleb128 0x3
 1167 001d 08       		.uleb128 0x8
 1168 001e 00       		.byte	0
 1169 001f 00       		.byte	0
 1170 0020 03       		.uleb128 0x3
 1171 0021 24       		.uleb128 0x24
 1172 0022 00       		.byte	0
 1173 0023 0B       		.uleb128 0xb
 1174 0024 0B       		.uleb128 0xb
 1175 0025 3E       		.uleb128 0x3e
 1176 0026 0B       		.uleb128 0xb
 1177 0027 03       		.uleb128 0x3
 1178 0028 0E       		.uleb128 0xe
 1179 0029 00       		.byte	0
 1180 002a 00       		.byte	0
 1181 002b 04       		.uleb128 0x4
 1182 002c 16       		.uleb128 0x16
 1183 002d 00       		.byte	0
 1184 002e 03       		.uleb128 0x3
 1185 002f 0E       		.uleb128 0xe
 1186 0030 3A       		.uleb128 0x3a
 1187 0031 0B       		.uleb128 0xb
 1188 0032 3B       		.uleb128 0x3b
 1189 0033 0B       		.uleb128 0xb
 1190 0034 49       		.uleb128 0x49
 1191 0035 13       		.uleb128 0x13
 1192 0036 00       		.byte	0
 1193 0037 00       		.byte	0
ARM GAS  /var/folders/ng/s8655sgx1ys_4lf9jzm2w6n00000gn/T//ccrXI726.s 			page 22


 1194 0038 05       		.uleb128 0x5
 1195 0039 35       		.uleb128 0x35
 1196 003a 00       		.byte	0
 1197 003b 49       		.uleb128 0x49
 1198 003c 13       		.uleb128 0x13
 1199 003d 00       		.byte	0
 1200 003e 00       		.byte	0
 1201 003f 06       		.uleb128 0x6
 1202 0040 01       		.uleb128 0x1
 1203 0041 01       		.byte	0x1
 1204 0042 49       		.uleb128 0x49
 1205 0043 13       		.uleb128 0x13
 1206 0044 01       		.uleb128 0x1
 1207 0045 13       		.uleb128 0x13
 1208 0046 00       		.byte	0
 1209 0047 00       		.byte	0
 1210 0048 07       		.uleb128 0x7
 1211 0049 21       		.uleb128 0x21
 1212 004a 00       		.byte	0
 1213 004b 49       		.uleb128 0x49
 1214 004c 13       		.uleb128 0x13
 1215 004d 2F       		.uleb128 0x2f
 1216 004e 0B       		.uleb128 0xb
 1217 004f 00       		.byte	0
 1218 0050 00       		.byte	0
 1219 0051 08       		.uleb128 0x8
 1220 0052 13       		.uleb128 0x13
 1221 0053 01       		.byte	0x1
 1222 0054 0B       		.uleb128 0xb
 1223 0055 0B       		.uleb128 0xb
 1224 0056 3A       		.uleb128 0x3a
 1225 0057 0B       		.uleb128 0xb
 1226 0058 3B       		.uleb128 0x3b
 1227 0059 0B       		.uleb128 0xb
 1228 005a 01       		.uleb128 0x1
 1229 005b 13       		.uleb128 0x13
 1230 005c 00       		.byte	0
 1231 005d 00       		.byte	0
 1232 005e 09       		.uleb128 0x9
 1233 005f 0D       		.uleb128 0xd
 1234 0060 00       		.byte	0
 1235 0061 03       		.uleb128 0x3
 1236 0062 08       		.uleb128 0x8
 1237 0063 3A       		.uleb128 0x3a
 1238 0064 0B       		.uleb128 0xb
 1239 0065 3B       		.uleb128 0x3b
 1240 0066 0B       		.uleb128 0xb
 1241 0067 49       		.uleb128 0x49
 1242 0068 13       		.uleb128 0x13
 1243 0069 38       		.uleb128 0x38
 1244 006a 0A       		.uleb128 0xa
 1245 006b 00       		.byte	0
 1246 006c 00       		.byte	0
 1247 006d 0A       		.uleb128 0xa
 1248 006e 0D       		.uleb128 0xd
 1249 006f 00       		.byte	0
 1250 0070 03       		.uleb128 0x3
ARM GAS  /var/folders/ng/s8655sgx1ys_4lf9jzm2w6n00000gn/T//ccrXI726.s 			page 23


 1251 0071 0E       		.uleb128 0xe
 1252 0072 3A       		.uleb128 0x3a
 1253 0073 0B       		.uleb128 0xb
 1254 0074 3B       		.uleb128 0x3b
 1255 0075 0B       		.uleb128 0xb
 1256 0076 49       		.uleb128 0x49
 1257 0077 13       		.uleb128 0x13
 1258 0078 38       		.uleb128 0x38
 1259 0079 0A       		.uleb128 0xa
 1260 007a 00       		.byte	0
 1261 007b 00       		.byte	0
 1262 007c 0B       		.uleb128 0xb
 1263 007d 17       		.uleb128 0x17
 1264 007e 01       		.byte	0x1
 1265 007f 0B       		.uleb128 0xb
 1266 0080 0B       		.uleb128 0xb
 1267 0081 3A       		.uleb128 0x3a
 1268 0082 0B       		.uleb128 0xb
 1269 0083 3B       		.uleb128 0x3b
 1270 0084 0B       		.uleb128 0xb
 1271 0085 01       		.uleb128 0x1
 1272 0086 13       		.uleb128 0x13
 1273 0087 00       		.byte	0
 1274 0088 00       		.byte	0
 1275 0089 0C       		.uleb128 0xc
 1276 008a 0D       		.uleb128 0xd
 1277 008b 00       		.byte	0
 1278 008c 03       		.uleb128 0x3
 1279 008d 08       		.uleb128 0x8
 1280 008e 3A       		.uleb128 0x3a
 1281 008f 0B       		.uleb128 0xb
 1282 0090 3B       		.uleb128 0x3b
 1283 0091 0B       		.uleb128 0xb
 1284 0092 49       		.uleb128 0x49
 1285 0093 13       		.uleb128 0x13
 1286 0094 00       		.byte	0
 1287 0095 00       		.byte	0
 1288 0096 0D       		.uleb128 0xd
 1289 0097 04       		.uleb128 0x4
 1290 0098 01       		.byte	0x1
 1291 0099 0B       		.uleb128 0xb
 1292 009a 0B       		.uleb128 0xb
 1293 009b 3A       		.uleb128 0x3a
 1294 009c 0B       		.uleb128 0xb
 1295 009d 3B       		.uleb128 0x3b
 1296 009e 0B       		.uleb128 0xb
 1297 009f 01       		.uleb128 0x1
 1298 00a0 13       		.uleb128 0x13
 1299 00a1 00       		.byte	0
 1300 00a2 00       		.byte	0
 1301 00a3 0E       		.uleb128 0xe
 1302 00a4 28       		.uleb128 0x28
 1303 00a5 00       		.byte	0
 1304 00a6 03       		.uleb128 0x3
 1305 00a7 0E       		.uleb128 0xe
 1306 00a8 1C       		.uleb128 0x1c
 1307 00a9 0D       		.uleb128 0xd
ARM GAS  /var/folders/ng/s8655sgx1ys_4lf9jzm2w6n00000gn/T//ccrXI726.s 			page 24


 1308 00aa 00       		.byte	0
 1309 00ab 00       		.byte	0
 1310 00ac 0F       		.uleb128 0xf
 1311 00ad 13       		.uleb128 0x13
 1312 00ae 01       		.byte	0x1
 1313 00af 03       		.uleb128 0x3
 1314 00b0 0E       		.uleb128 0xe
 1315 00b1 0B       		.uleb128 0xb
 1316 00b2 0B       		.uleb128 0xb
 1317 00b3 3A       		.uleb128 0x3a
 1318 00b4 0B       		.uleb128 0xb
 1319 00b5 3B       		.uleb128 0x3b
 1320 00b6 05       		.uleb128 0x5
 1321 00b7 01       		.uleb128 0x1
 1322 00b8 13       		.uleb128 0x13
 1323 00b9 00       		.byte	0
 1324 00ba 00       		.byte	0
 1325 00bb 10       		.uleb128 0x10
 1326 00bc 0D       		.uleb128 0xd
 1327 00bd 00       		.byte	0
 1328 00be 03       		.uleb128 0x3
 1329 00bf 0E       		.uleb128 0xe
 1330 00c0 3A       		.uleb128 0x3a
 1331 00c1 0B       		.uleb128 0xb
 1332 00c2 3B       		.uleb128 0x3b
 1333 00c3 05       		.uleb128 0x5
 1334 00c4 49       		.uleb128 0x49
 1335 00c5 13       		.uleb128 0x13
 1336 00c6 38       		.uleb128 0x38
 1337 00c7 0A       		.uleb128 0xa
 1338 00c8 00       		.byte	0
 1339 00c9 00       		.byte	0
 1340 00ca 11       		.uleb128 0x11
 1341 00cb 0D       		.uleb128 0xd
 1342 00cc 00       		.byte	0
 1343 00cd 03       		.uleb128 0x3
 1344 00ce 08       		.uleb128 0x8
 1345 00cf 3A       		.uleb128 0x3a
 1346 00d0 0B       		.uleb128 0xb
 1347 00d1 3B       		.uleb128 0x3b
 1348 00d2 05       		.uleb128 0x5
 1349 00d3 49       		.uleb128 0x49
 1350 00d4 13       		.uleb128 0x13
 1351 00d5 38       		.uleb128 0x38
 1352 00d6 0A       		.uleb128 0xa
 1353 00d7 00       		.byte	0
 1354 00d8 00       		.byte	0
 1355 00d9 12       		.uleb128 0x12
 1356 00da 0F       		.uleb128 0xf
 1357 00db 00       		.byte	0
 1358 00dc 0B       		.uleb128 0xb
 1359 00dd 0B       		.uleb128 0xb
 1360 00de 49       		.uleb128 0x49
 1361 00df 13       		.uleb128 0x13
 1362 00e0 00       		.byte	0
 1363 00e1 00       		.byte	0
 1364 00e2 13       		.uleb128 0x13
ARM GAS  /var/folders/ng/s8655sgx1ys_4lf9jzm2w6n00000gn/T//ccrXI726.s 			page 25


 1365 00e3 15       		.uleb128 0x15
 1366 00e4 01       		.byte	0x1
 1367 00e5 27       		.uleb128 0x27
 1368 00e6 0C       		.uleb128 0xc
 1369 00e7 01       		.uleb128 0x1
 1370 00e8 13       		.uleb128 0x13
 1371 00e9 00       		.byte	0
 1372 00ea 00       		.byte	0
 1373 00eb 14       		.uleb128 0x14
 1374 00ec 05       		.uleb128 0x5
 1375 00ed 00       		.byte	0
 1376 00ee 49       		.uleb128 0x49
 1377 00ef 13       		.uleb128 0x13
 1378 00f0 00       		.byte	0
 1379 00f1 00       		.byte	0
 1380 00f2 15       		.uleb128 0x15
 1381 00f3 13       		.uleb128 0x13
 1382 00f4 01       		.byte	0x1
 1383 00f5 0B       		.uleb128 0xb
 1384 00f6 0B       		.uleb128 0xb
 1385 00f7 3A       		.uleb128 0x3a
 1386 00f8 0B       		.uleb128 0xb
 1387 00f9 3B       		.uleb128 0x3b
 1388 00fa 05       		.uleb128 0x5
 1389 00fb 01       		.uleb128 0x1
 1390 00fc 13       		.uleb128 0x13
 1391 00fd 00       		.byte	0
 1392 00fe 00       		.byte	0
 1393 00ff 16       		.uleb128 0x16
 1394 0100 16       		.uleb128 0x16
 1395 0101 00       		.byte	0
 1396 0102 03       		.uleb128 0x3
 1397 0103 0E       		.uleb128 0xe
 1398 0104 3A       		.uleb128 0x3a
 1399 0105 0B       		.uleb128 0xb
 1400 0106 3B       		.uleb128 0x3b
 1401 0107 05       		.uleb128 0x5
 1402 0108 49       		.uleb128 0x49
 1403 0109 13       		.uleb128 0x13
 1404 010a 00       		.byte	0
 1405 010b 00       		.byte	0
 1406 010c 17       		.uleb128 0x17
 1407 010d 26       		.uleb128 0x26
 1408 010e 00       		.byte	0
 1409 010f 49       		.uleb128 0x49
 1410 0110 13       		.uleb128 0x13
 1411 0111 00       		.byte	0
 1412 0112 00       		.byte	0
 1413 0113 18       		.uleb128 0x18
 1414 0114 2E       		.uleb128 0x2e
 1415 0115 01       		.byte	0x1
 1416 0116 3F       		.uleb128 0x3f
 1417 0117 0C       		.uleb128 0xc
 1418 0118 03       		.uleb128 0x3
 1419 0119 0E       		.uleb128 0xe
 1420 011a 3A       		.uleb128 0x3a
 1421 011b 0B       		.uleb128 0xb
ARM GAS  /var/folders/ng/s8655sgx1ys_4lf9jzm2w6n00000gn/T//ccrXI726.s 			page 26


 1422 011c 3B       		.uleb128 0x3b
 1423 011d 0B       		.uleb128 0xb
 1424 011e 27       		.uleb128 0x27
 1425 011f 0C       		.uleb128 0xc
 1426 0120 11       		.uleb128 0x11
 1427 0121 01       		.uleb128 0x1
 1428 0122 12       		.uleb128 0x12
 1429 0123 01       		.uleb128 0x1
 1430 0124 40       		.uleb128 0x40
 1431 0125 0A       		.uleb128 0xa
 1432 0126 9742     		.uleb128 0x2117
 1433 0128 0C       		.uleb128 0xc
 1434 0129 01       		.uleb128 0x1
 1435 012a 13       		.uleb128 0x13
 1436 012b 00       		.byte	0
 1437 012c 00       		.byte	0
 1438 012d 19       		.uleb128 0x19
 1439 012e 898201   		.uleb128 0x4109
 1440 0131 01       		.byte	0x1
 1441 0132 11       		.uleb128 0x11
 1442 0133 01       		.uleb128 0x1
 1443 0134 9542     		.uleb128 0x2115
 1444 0136 0C       		.uleb128 0xc
 1445 0137 31       		.uleb128 0x31
 1446 0138 13       		.uleb128 0x13
 1447 0139 00       		.byte	0
 1448 013a 00       		.byte	0
 1449 013b 1A       		.uleb128 0x1a
 1450 013c 8A8201   		.uleb128 0x410a
 1451 013f 00       		.byte	0
 1452 0140 02       		.uleb128 0x2
 1453 0141 0A       		.uleb128 0xa
 1454 0142 9142     		.uleb128 0x2111
 1455 0144 0A       		.uleb128 0xa
 1456 0145 00       		.byte	0
 1457 0146 00       		.byte	0
 1458 0147 1B       		.uleb128 0x1b
 1459 0148 2E       		.uleb128 0x2e
 1460 0149 01       		.byte	0x1
 1461 014a 3F       		.uleb128 0x3f
 1462 014b 0C       		.uleb128 0xc
 1463 014c 03       		.uleb128 0x3
 1464 014d 0E       		.uleb128 0xe
 1465 014e 3A       		.uleb128 0x3a
 1466 014f 0B       		.uleb128 0xb
 1467 0150 3B       		.uleb128 0x3b
 1468 0151 0B       		.uleb128 0xb
 1469 0152 27       		.uleb128 0x27
 1470 0153 0C       		.uleb128 0xc
 1471 0154 11       		.uleb128 0x11
 1472 0155 01       		.uleb128 0x1
 1473 0156 12       		.uleb128 0x12
 1474 0157 01       		.uleb128 0x1
 1475 0158 40       		.uleb128 0x40
 1476 0159 06       		.uleb128 0x6
 1477 015a 9742     		.uleb128 0x2117
 1478 015c 0C       		.uleb128 0xc
ARM GAS  /var/folders/ng/s8655sgx1ys_4lf9jzm2w6n00000gn/T//ccrXI726.s 			page 27


 1479 015d 01       		.uleb128 0x1
 1480 015e 13       		.uleb128 0x13
 1481 015f 00       		.byte	0
 1482 0160 00       		.byte	0
 1483 0161 1C       		.uleb128 0x1c
 1484 0162 05       		.uleb128 0x5
 1485 0163 00       		.byte	0
 1486 0164 03       		.uleb128 0x3
 1487 0165 0E       		.uleb128 0xe
 1488 0166 3A       		.uleb128 0x3a
 1489 0167 0B       		.uleb128 0xb
 1490 0168 3B       		.uleb128 0x3b
 1491 0169 0B       		.uleb128 0xb
 1492 016a 49       		.uleb128 0x49
 1493 016b 13       		.uleb128 0x13
 1494 016c 02       		.uleb128 0x2
 1495 016d 06       		.uleb128 0x6
 1496 016e 00       		.byte	0
 1497 016f 00       		.byte	0
 1498 0170 1D       		.uleb128 0x1d
 1499 0171 898201   		.uleb128 0x4109
 1500 0174 01       		.byte	0x1
 1501 0175 11       		.uleb128 0x11
 1502 0176 01       		.uleb128 0x1
 1503 0177 31       		.uleb128 0x31
 1504 0178 13       		.uleb128 0x13
 1505 0179 01       		.uleb128 0x1
 1506 017a 13       		.uleb128 0x13
 1507 017b 00       		.byte	0
 1508 017c 00       		.byte	0
 1509 017d 1E       		.uleb128 0x1e
 1510 017e 898201   		.uleb128 0x4109
 1511 0181 01       		.byte	0x1
 1512 0182 11       		.uleb128 0x11
 1513 0183 01       		.uleb128 0x1
 1514 0184 31       		.uleb128 0x31
 1515 0185 13       		.uleb128 0x13
 1516 0186 00       		.byte	0
 1517 0187 00       		.byte	0
 1518 0188 1F       		.uleb128 0x1f
 1519 0189 34       		.uleb128 0x34
 1520 018a 00       		.byte	0
 1521 018b 03       		.uleb128 0x3
 1522 018c 0E       		.uleb128 0xe
 1523 018d 3A       		.uleb128 0x3a
 1524 018e 0B       		.uleb128 0xb
 1525 018f 3B       		.uleb128 0x3b
 1526 0190 0B       		.uleb128 0xb
 1527 0191 49       		.uleb128 0x49
 1528 0192 13       		.uleb128 0x13
 1529 0193 02       		.uleb128 0x2
 1530 0194 0A       		.uleb128 0xa
 1531 0195 00       		.byte	0
 1532 0196 00       		.byte	0
 1533 0197 20       		.uleb128 0x20
 1534 0198 34       		.uleb128 0x34
 1535 0199 00       		.byte	0
ARM GAS  /var/folders/ng/s8655sgx1ys_4lf9jzm2w6n00000gn/T//ccrXI726.s 			page 28


 1536 019a 03       		.uleb128 0x3
 1537 019b 0E       		.uleb128 0xe
 1538 019c 3A       		.uleb128 0x3a
 1539 019d 0B       		.uleb128 0xb
 1540 019e 3B       		.uleb128 0x3b
 1541 019f 05       		.uleb128 0x5
 1542 01a0 49       		.uleb128 0x49
 1543 01a1 13       		.uleb128 0x13
 1544 01a2 3F       		.uleb128 0x3f
 1545 01a3 0C       		.uleb128 0xc
 1546 01a4 3C       		.uleb128 0x3c
 1547 01a5 0C       		.uleb128 0xc
 1548 01a6 00       		.byte	0
 1549 01a7 00       		.byte	0
 1550 01a8 21       		.uleb128 0x21
 1551 01a9 2E       		.uleb128 0x2e
 1552 01aa 01       		.byte	0x1
 1553 01ab 3F       		.uleb128 0x3f
 1554 01ac 0C       		.uleb128 0xc
 1555 01ad 03       		.uleb128 0x3
 1556 01ae 0E       		.uleb128 0xe
 1557 01af 3A       		.uleb128 0x3a
 1558 01b0 0B       		.uleb128 0xb
 1559 01b1 3B       		.uleb128 0x3b
 1560 01b2 0B       		.uleb128 0xb
 1561 01b3 27       		.uleb128 0x27
 1562 01b4 0C       		.uleb128 0xc
 1563 01b5 3C       		.uleb128 0x3c
 1564 01b6 0C       		.uleb128 0xc
 1565 01b7 01       		.uleb128 0x1
 1566 01b8 13       		.uleb128 0x13
 1567 01b9 00       		.byte	0
 1568 01ba 00       		.byte	0
 1569 01bb 22       		.uleb128 0x22
 1570 01bc 2E       		.uleb128 0x2e
 1571 01bd 01       		.byte	0x1
 1572 01be 3F       		.uleb128 0x3f
 1573 01bf 0C       		.uleb128 0xc
 1574 01c0 03       		.uleb128 0x3
 1575 01c1 0E       		.uleb128 0xe
 1576 01c2 3A       		.uleb128 0x3a
 1577 01c3 0B       		.uleb128 0xb
 1578 01c4 3B       		.uleb128 0x3b
 1579 01c5 0B       		.uleb128 0xb
 1580 01c6 27       		.uleb128 0x27
 1581 01c7 0C       		.uleb128 0xc
 1582 01c8 3C       		.uleb128 0x3c
 1583 01c9 0C       		.uleb128 0xc
 1584 01ca 00       		.byte	0
 1585 01cb 00       		.byte	0
 1586 01cc 00       		.byte	0
 1587              		.section	.debug_loc,"",%progbits
 1588              	.Ldebug_loc0:
 1589              	.LLST0:
 1590 0000 00000000 		.4byte	.LFB120
 1591 0004 02000000 		.4byte	.LCFI0
 1592 0008 0200     		.2byte	0x2
ARM GAS  /var/folders/ng/s8655sgx1ys_4lf9jzm2w6n00000gn/T//ccrXI726.s 			page 29


 1593 000a 7D       		.byte	0x7d
 1594 000b 00       		.sleb128 0
 1595 000c 02000000 		.4byte	.LCFI0
 1596 0010 B0000000 		.4byte	.LFE120
 1597 0014 0200     		.2byte	0x2
 1598 0016 7D       		.byte	0x7d
 1599 0017 08       		.sleb128 8
 1600 0018 00000000 		.4byte	0
 1601 001c 00000000 		.4byte	0
 1602              	.LLST1:
 1603 0020 00000000 		.4byte	.LVL1
 1604 0024 06000000 		.4byte	.LVL2
 1605 0028 0100     		.2byte	0x1
 1606 002a 50       		.byte	0x50
 1607 002b 06000000 		.4byte	.LVL2
 1608 002f 12000000 		.4byte	.LVL3
 1609 0033 0300     		.2byte	0x3
 1610 0035 70       		.byte	0x70
 1611 0036 7F       		.sleb128 -1
 1612 0037 9F       		.byte	0x9f
 1613 0038 12000000 		.4byte	.LVL3
 1614 003c 6A000000 		.4byte	.LVL8
 1615 0040 0100     		.2byte	0x1
 1616 0042 54       		.byte	0x54
 1617 0043 6A000000 		.4byte	.LVL8
 1618 0047 74000000 		.4byte	.LVL10
 1619 004b 0300     		.2byte	0x3
 1620 004d 70       		.byte	0x70
 1621 004e 7F       		.sleb128 -1
 1622 004f 9F       		.byte	0x9f
 1623 0050 74000000 		.4byte	.LVL10
 1624 0054 B0000000 		.4byte	.LFE120
 1625 0058 0100     		.2byte	0x1
 1626 005a 54       		.byte	0x54
 1627 005b 00000000 		.4byte	0
 1628 005f 00000000 		.4byte	0
 1629              	.LLST2:
 1630 0063 00000000 		.4byte	.LVL1
 1631 0067 12000000 		.4byte	.LVL3
 1632 006b 0100     		.2byte	0x1
 1633 006d 51       		.byte	0x51
 1634 006e 12000000 		.4byte	.LVL3
 1635 0072 1F000000 		.4byte	.LVL4-1
 1636 0076 0100     		.2byte	0x1
 1637 0078 52       		.byte	0x52
 1638 0079 1F000000 		.4byte	.LVL4-1
 1639 007d 48000000 		.4byte	.LVL5
 1640 0081 0400     		.2byte	0x4
 1641 0083 F3       		.byte	0xf3
 1642 0084 01       		.uleb128 0x1
 1643 0085 51       		.byte	0x51
 1644 0086 9F       		.byte	0x9f
 1645 0087 48000000 		.4byte	.LVL5
 1646 008b 4E000000 		.4byte	.LVL6
 1647 008f 0100     		.2byte	0x1
 1648 0091 52       		.byte	0x52
 1649 0092 4E000000 		.4byte	.LVL6
ARM GAS  /var/folders/ng/s8655sgx1ys_4lf9jzm2w6n00000gn/T//ccrXI726.s 			page 30


 1650 0096 6A000000 		.4byte	.LVL8
 1651 009a 0400     		.2byte	0x4
 1652 009c F3       		.byte	0xf3
 1653 009d 01       		.uleb128 0x1
 1654 009e 51       		.byte	0x51
 1655 009f 9F       		.byte	0x9f
 1656 00a0 6A000000 		.4byte	.LVL8
 1657 00a4 70000000 		.4byte	.LVL9
 1658 00a8 0100     		.2byte	0x1
 1659 00aa 51       		.byte	0x51
 1660 00ab 70000000 		.4byte	.LVL9
 1661 00af 78000000 		.4byte	.LVL11
 1662 00b3 0100     		.2byte	0x1
 1663 00b5 52       		.byte	0x52
 1664 00b6 78000000 		.4byte	.LVL11
 1665 00ba 7F000000 		.4byte	.LVL12-1
 1666 00be 0400     		.2byte	0x4
 1667 00c0 73       		.byte	0x73
 1668 00c1 00       		.sleb128 0
 1669 00c2 1F       		.byte	0x1f
 1670 00c3 9F       		.byte	0x9f
 1671 00c4 7F000000 		.4byte	.LVL12-1
 1672 00c8 B0000000 		.4byte	.LFE120
 1673 00cc 0400     		.2byte	0x4
 1674 00ce F3       		.byte	0xf3
 1675 00cf 01       		.uleb128 0x1
 1676 00d0 51       		.byte	0x51
 1677 00d1 9F       		.byte	0x9f
 1678 00d2 00000000 		.4byte	0
 1679 00d6 00000000 		.4byte	0
 1680              	.LLST3:
 1681 00da 00000000 		.4byte	.LFB121
 1682 00de 0E000000 		.4byte	.LCFI1
 1683 00e2 0200     		.2byte	0x2
 1684 00e4 7D       		.byte	0x7d
 1685 00e5 00       		.sleb128 0
 1686 00e6 0E000000 		.4byte	.LCFI1
 1687 00ea 64000000 		.4byte	.LFE121
 1688 00ee 0200     		.2byte	0x2
 1689 00f0 7D       		.byte	0x7d
 1690 00f1 10       		.sleb128 16
 1691 00f2 00000000 		.4byte	0
 1692 00f6 00000000 		.4byte	0
 1693              	.LLST4:
 1694 00fa 00000000 		.4byte	.LVL13
 1695 00fe 04000000 		.4byte	.LVL14
 1696 0102 0100     		.2byte	0x1
 1697 0104 50       		.byte	0x50
 1698 0105 04000000 		.4byte	.LVL14
 1699 0109 10000000 		.4byte	.LVL15
 1700 010d 0300     		.2byte	0x3
 1701 010f 70       		.byte	0x70
 1702 0110 7F       		.sleb128 -1
 1703 0111 9F       		.byte	0x9f
 1704 0112 10000000 		.4byte	.LVL15
 1705 0116 4F000000 		.4byte	.LVL17-1
 1706 011a 0100     		.2byte	0x1
ARM GAS  /var/folders/ng/s8655sgx1ys_4lf9jzm2w6n00000gn/T//ccrXI726.s 			page 31


 1707 011c 53       		.byte	0x53
 1708 011d 50000000 		.4byte	.LVL17
 1709 0121 64000000 		.4byte	.LFE121
 1710 0125 0300     		.2byte	0x3
 1711 0127 70       		.byte	0x70
 1712 0128 7F       		.sleb128 -1
 1713 0129 9F       		.byte	0x9f
 1714 012a 00000000 		.4byte	0
 1715 012e 00000000 		.4byte	0
 1716              	.LLST5:
 1717 0132 00000000 		.4byte	.LVL13
 1718 0136 20000000 		.4byte	.LVL16
 1719 013a 0100     		.2byte	0x1
 1720 013c 51       		.byte	0x51
 1721 013d 20000000 		.4byte	.LVL16
 1722 0141 50000000 		.4byte	.LVL17
 1723 0145 0400     		.2byte	0x4
 1724 0147 F3       		.byte	0xf3
 1725 0148 01       		.uleb128 0x1
 1726 0149 51       		.byte	0x51
 1727 014a 9F       		.byte	0x9f
 1728 014b 50000000 		.4byte	.LVL17
 1729 014f 64000000 		.4byte	.LFE121
 1730 0153 0100     		.2byte	0x1
 1731 0155 51       		.byte	0x51
 1732 0156 00000000 		.4byte	0
 1733 015a 00000000 		.4byte	0
 1734              		.section	.debug_aranges,"",%progbits
 1735 0000 2C000000 		.4byte	0x2c
 1736 0004 0200     		.2byte	0x2
 1737 0006 00000000 		.4byte	.Ldebug_info0
 1738 000a 04       		.byte	0x4
 1739 000b 00       		.byte	0
 1740 000c 0000     		.2byte	0
 1741 000e 0000     		.2byte	0
 1742 0010 00000000 		.4byte	.LFB119
 1743 0014 14000000 		.4byte	.LFE119-.LFB119
 1744 0018 00000000 		.4byte	.LFB120
 1745 001c B0000000 		.4byte	.LFE120-.LFB120
 1746 0020 00000000 		.4byte	.LFB121
 1747 0024 64000000 		.4byte	.LFE121-.LFB121
 1748 0028 00000000 		.4byte	0
 1749 002c 00000000 		.4byte	0
 1750              		.section	.debug_ranges,"",%progbits
 1751              	.Ldebug_ranges0:
 1752 0000 00000000 		.4byte	.LFB119
 1753 0004 14000000 		.4byte	.LFE119
 1754 0008 00000000 		.4byte	.LFB120
 1755 000c B0000000 		.4byte	.LFE120
 1756 0010 00000000 		.4byte	.LFB121
 1757 0014 64000000 		.4byte	.LFE121
 1758 0018 00000000 		.4byte	0
 1759 001c 00000000 		.4byte	0
 1760              		.section	.debug_line,"",%progbits
 1761              	.Ldebug_line0:
 1762 0000 15020000 		.section	.debug_str,"MS",%progbits,1
 1762      0200A701 
ARM GAS  /var/folders/ng/s8655sgx1ys_4lf9jzm2w6n00000gn/T//ccrXI726.s 			page 32


 1762      00000201 
 1762      FB0E0D00 
 1762      01010101 
 1763              	.LASF25:
 1764 0000 4750494F 		.ascii	"GPIO_TypeDef\000"
 1764      5F547970 
 1764      65446566 
 1764      00
 1765              	.LASF40:
 1766 000d 43434552 		.ascii	"CCER\000"
 1766      00
 1767              	.LASF42:
 1768 0012 444D4152 		.ascii	"DMAR\000"
 1768      00
 1769              	.LASF66:
 1770 0017 50574D44 		.ascii	"PWMD1\000"
 1770      3100
 1771              	.LASF39:
 1772 001d 43434D52 		.ascii	"CCMR2\000"
 1772      3200
 1773              	.LASF43:
 1774 0023 43434D52 		.ascii	"CCMR3\000"
 1774      3300
 1775              	.LASF3:
 1776 0029 73686F72 		.ascii	"short int\000"
 1776      7420696E 
 1776      7400
 1777              	.LASF49:
 1778 0033 70776D63 		.ascii	"pwmcnt_t\000"
 1778      6E745F74 
 1778      00
 1779              	.LASF24:
 1780 003c 41465248 		.ascii	"AFRH\000"
 1780      00
 1781              	.LASF14:
 1782 0041 73697A65 		.ascii	"sizetype\000"
 1782      74797065 
 1782      00
 1783              	.LASF48:
 1784 004a 70776D63 		.ascii	"pwmchannel_t\000"
 1784      68616E6E 
 1784      656C5F74 
 1784      00
 1785              	.LASF50:
 1786 0057 6D6F6465 		.ascii	"mode\000"
 1786      00
 1787              	.LASF54:
 1788 005c 6368616E 		.ascii	"channels\000"
 1788      6E656C73 
 1788      00
 1789              	.LASF32:
 1790 0065 636F6E66 		.ascii	"config\000"
 1790      696700
 1791              	.LASF64:
 1792 006c 70776D63 		.ascii	"pwmcfg1\000"
 1792      66673100 
 1793              	.LASF4:
ARM GAS  /var/folders/ng/s8655sgx1ys_4lf9jzm2w6n00000gn/T//ccrXI726.s 			page 33


 1794 0074 75696E74 		.ascii	"uint8_t\000"
 1794      385F7400 
 1795              	.LASF63:
 1796 007c 6D6F746F 		.ascii	"motorPins\000"
 1796      7250696E 
 1796      7300
 1797              	.LASF71:
 1798 0086 70776D45 		.ascii	"pwmEnableChannel\000"
 1798      6E61626C 
 1798      65436861 
 1798      6E6E656C 
 1798      00
 1799              	.LASF22:
 1800 0097 4C434B52 		.ascii	"LCKR\000"
 1800      00
 1801              	.LASF57:
 1802 009c 50574D43 		.ascii	"PWMConfig\000"
 1802      6F6E6669 
 1802      6700
 1803              	.LASF18:
 1804 00a6 4F545950 		.ascii	"OTYPER\000"
 1804      455200
 1805              	.LASF69:
 1806 00ad 2F557365 		.ascii	"/Users/jseng/aithon/DemoMode\000"
 1806      72732F6A 
 1806      73656E67 
 1806      2F616974 
 1806      686F6E2F 
 1807              	.LASF70:
 1808 00ca 70776D53 		.ascii	"pwmStart\000"
 1808      74617274 
 1808      00
 1809              	.LASF11:
 1810 00d3 6C6F6E67 		.ascii	"long long int\000"
 1810      206C6F6E 
 1810      6720696E 
 1810      7400
 1811              	.LASF15:
 1812 00e1 63686172 		.ascii	"char\000"
 1812      00
 1813              	.LASF62:
 1814 00e6 6D6F746F 		.ascii	"motor_brake\000"
 1814      725F6272 
 1814      616B6500 
 1815              	.LASF34:
 1816 00f2 636C6F63 		.ascii	"clock\000"
 1816      6B00
 1817              	.LASF45:
 1818 00f8 43435236 		.ascii	"CCR6\000"
 1818      00
 1819              	.LASF21:
 1820 00fd 42535252 		.ascii	"BSRR\000"
 1820      00
 1821              	.LASF33:
 1822 0102 70657269 		.ascii	"period\000"
 1822      6F6400
 1823              	.LASF17:
ARM GAS  /var/folders/ng/s8655sgx1ys_4lf9jzm2w6n00000gn/T//ccrXI726.s 			page 34


 1824 0109 4D4F4445 		.ascii	"MODER\000"
 1824      5200
 1825              	.LASF16:
 1826 010f 636C6561 		.ascii	"clear\000"
 1826      7200
 1827              	.LASF38:
 1828 0115 43434D52 		.ascii	"CCMR1\000"
 1828      3100
 1829              	.LASF31:
 1830 011b 73746174 		.ascii	"state\000"
 1830      6500
 1831              	.LASF52:
 1832 0121 50574D43 		.ascii	"PWMChannelConfig\000"
 1832      68616E6E 
 1832      656C436F 
 1832      6E666967 
 1832      00
 1833              	.LASF36:
 1834 0132 534D4352 		.ascii	"SMCR\000"
 1834      00
 1835              	.LASF26:
 1836 0137 50574D5F 		.ascii	"PWM_UNINIT\000"
 1836      554E494E 
 1836      495400
 1837              	.LASF2:
 1838 0142 756E7369 		.ascii	"unsigned char\000"
 1838      676E6564 
 1838      20636861 
 1838      7200
 1839              	.LASF44:
 1840 0150 43435235 		.ascii	"CCR5\000"
 1840      00
 1841              	.LASF1:
 1842 0155 7369676E 		.ascii	"signed char\000"
 1842      65642063 
 1842      68617200 
 1843              	.LASF12:
 1844 0161 6C6F6E67 		.ascii	"long long unsigned int\000"
 1844      206C6F6E 
 1844      6720756E 
 1844      7369676E 
 1844      65642069 
 1845              	.LASF9:
 1846 0178 75696E74 		.ascii	"uint32_t\000"
 1846      33325F74 
 1846      00
 1847              	.LASF0:
 1848 0181 756E7369 		.ascii	"unsigned int\000"
 1848      676E6564 
 1848      20696E74 
 1848      00
 1849              	.LASF5:
 1850 018e 75696E74 		.ascii	"uint16_t\000"
 1850      31365F74 
 1850      00
 1851              	.LASF30:
 1852 0197 50574D44 		.ascii	"PWMDriver\000"
ARM GAS  /var/folders/ng/s8655sgx1ys_4lf9jzm2w6n00000gn/T//ccrXI726.s 			page 35


 1852      72697665 
 1852      7200
 1853              	.LASF59:
 1854 01a1 6D6F746F 		.ascii	"motor_set\000"
 1854      725F7365 
 1854      7400
 1855              	.LASF37:
 1856 01ab 44494552 		.ascii	"DIER\000"
 1856      00
 1857              	.LASF20:
 1858 01b0 50555044 		.ascii	"PUPDR\000"
 1858      5200
 1859              	.LASF23:
 1860 01b6 4146524C 		.ascii	"AFRL\000"
 1860      00
 1861              	.LASF6:
 1862 01bb 73686F72 		.ascii	"short unsigned int\000"
 1862      7420756E 
 1862      7369676E 
 1862      65642069 
 1862      6E7400
 1863              	.LASF8:
 1864 01ce 6C6F6E67 		.ascii	"long int\000"
 1864      20696E74 
 1864      00
 1865              	.LASF41:
 1866 01d7 42445452 		.ascii	"BDTR\000"
 1866      00
 1867              	.LASF7:
 1868 01dc 696E7433 		.ascii	"int32_t\000"
 1868      325F7400 
 1869              	.LASF13:
 1870 01e4 5F426F6F 		.ascii	"_Bool\000"
 1870      6C00
 1871              	.LASF60:
 1872 01ea 6D6F746F 		.ascii	"motor\000"
 1872      7200
 1873              	.LASF67:
 1874 01f0 474E5520 		.ascii	"GNU C 4.7.4 20130913 (release) [ARM/embedded-4_7-br"
 1874      4320342E 
 1874      372E3420 
 1874      32303133 
 1874      30393133 
 1875 0223 616E6368 		.ascii	"anch revision 202601]\000"
 1875      20726576 
 1875      6973696F 
 1875      6E203230 
 1875      32363031 
 1876              	.LASF61:
 1877 0239 706F7765 		.ascii	"power\000"
 1877      7200
 1878              	.LASF19:
 1879 023f 4F535045 		.ascii	"OSPEEDR\000"
 1879      45445200 
 1880              	.LASF10:
 1881 0247 6C6F6E67 		.ascii	"long unsigned int\000"
 1881      20756E73 
ARM GAS  /var/folders/ng/s8655sgx1ys_4lf9jzm2w6n00000gn/T//ccrXI726.s 			page 36


 1881      69676E65 
 1881      6420696E 
 1881      7400
 1882              	.LASF29:
 1883 0259 70776D73 		.ascii	"pwmstate_t\000"
 1883      74617465 
 1883      5F7400
 1884              	.LASF28:
 1885 0264 50574D5F 		.ascii	"PWM_READY\000"
 1885      52454144 
 1885      5900
 1886              	.LASF58:
 1887 026e 5F6D6F74 		.ascii	"_motor_init\000"
 1887      6F725F69 
 1887      6E697400 
 1888              	.LASF27:
 1889 027a 50574D5F 		.ascii	"PWM_STOP\000"
 1889      53544F50 
 1889      00
 1890              	.LASF56:
 1891 0283 64696572 		.ascii	"dier\000"
 1891      00
 1892              	.LASF53:
 1893 0288 66726571 		.ascii	"frequency\000"
 1893      75656E63 
 1893      7900
 1894              	.LASF68:
 1895 0292 2E2E2F41 		.ascii	"../AithonLibrary/motor.c\000"
 1895      6974686F 
 1895      6E4C6962 
 1895      72617279 
 1895      2F6D6F74 
 1896              	.LASF47:
 1897 02ab 70776D6D 		.ascii	"pwmmode_t\000"
 1897      6F64655F 
 1897      7400
 1898              	.LASF55:
 1899 02b5 62647472 		.ascii	"bdtr\000"
 1899      00
 1900              	.LASF46:
 1901 02ba 73746D33 		.ascii	"stm32_tim_t\000"
 1901      325F7469 
 1901      6D5F7400 
 1902              	.LASF65:
 1903 02c6 49544D5F 		.ascii	"ITM_RxBuffer\000"
 1903      52784275 
 1903      66666572 
 1903      00
 1904              	.LASF35:
 1905 02d3 70776D63 		.ascii	"pwmcallback_t\000"
 1905      616C6C62 
 1905      61636B5F 
 1905      7400
 1906              	.LASF51:
 1907 02e1 63616C6C 		.ascii	"callback\000"
 1907      6261636B 
 1907      00
ARM GAS  /var/folders/ng/s8655sgx1ys_4lf9jzm2w6n00000gn/T//ccrXI726.s 			page 37


 1908              		.ident	"GCC: (GNU Tools for ARM Embedded Processors) 4.7.4 20130913 (release) [ARM/embedded-4_7-br
ARM GAS  /var/folders/ng/s8655sgx1ys_4lf9jzm2w6n00000gn/T//ccrXI726.s 			page 38


DEFINED SYMBOLS
                            *ABS*:0000000000000000 motor.c
/var/folders/ng/s8655sgx1ys_4lf9jzm2w6n00000gn/T//ccrXI726.s:20     .text._motor_init:0000000000000000 $t
/var/folders/ng/s8655sgx1ys_4lf9jzm2w6n00000gn/T//ccrXI726.s:26     .text._motor_init:0000000000000000 _motor_init
/var/folders/ng/s8655sgx1ys_4lf9jzm2w6n00000gn/T//ccrXI726.s:272    .rodata.pwmcfg1:0000000000000000 .LANCHOR0
/var/folders/ng/s8655sgx1ys_4lf9jzm2w6n00000gn/T//ccrXI726.s:47     .text.motor_set:0000000000000000 $t
/var/folders/ng/s8655sgx1ys_4lf9jzm2w6n00000gn/T//ccrXI726.s:53     .text.motor_set:0000000000000000 motor_set
/var/folders/ng/s8655sgx1ys_4lf9jzm2w6n00000gn/T//ccrXI726.s:177    .text.motor_set:00000000000000a8 $d
/var/folders/ng/s8655sgx1ys_4lf9jzm2w6n00000gn/T//ccrXI726.s:183    .text.motor_brake:0000000000000000 $t
/var/folders/ng/s8655sgx1ys_4lf9jzm2w6n00000gn/T//ccrXI726.s:189    .text.motor_brake:0000000000000000 motor_brake
/var/folders/ng/s8655sgx1ys_4lf9jzm2w6n00000gn/T//ccrXI726.s:265    .text.motor_brake:000000000000005c $d
/var/folders/ng/s8655sgx1ys_4lf9jzm2w6n00000gn/T//ccrXI726.s:271    .rodata.pwmcfg1:0000000000000000 $d
/var/folders/ng/s8655sgx1ys_4lf9jzm2w6n00000gn/T//ccrXI726.s:275    .rodata.pwmcfg1:0000000000000000 pwmcfg1
/var/folders/ng/s8655sgx1ys_4lf9jzm2w6n00000gn/T//ccrXI726.s:292    .rodata.motorPins:0000000000000000 $d
/var/folders/ng/s8655sgx1ys_4lf9jzm2w6n00000gn/T//ccrXI726.s:296    .rodata.motorPins:0000000000000000 motorPins
                     .debug_frame:0000000000000010 $d
/var/folders/ng/s8655sgx1ys_4lf9jzm2w6n00000gn/T//ccrXI726.s:270    .text.motor_brake:0000000000000064 $t

UNDEFINED SYMBOLS
PWMD1
pwmStart
pwmEnableChannel
