ARM GAS  /var/folders/ng/s8655sgx1ys_4lf9jzm2w6n00000gn/T//ccrXI726.s 			page 1


   1              		.syntax unified
   2              		.cpu cortex-m4
   3              		.eabi_attribute 27, 3
   4              		.fpu fpv4-sp-d16
   5              		.eabi_attribute 20, 1
   6              		.eabi_attribute 21, 1
   7              		.eabi_attribute 23, 3
   8              		.eabi_attribute 24, 1
   9              		.eabi_attribute 25, 1
  10              		.eabi_attribute 26, 1
  11              		.eabi_attribute 30, 2
  12              		.eabi_attribute 34, 1
  13              		.eabi_attribute 18, 4
  14              		.thumb
  15              		.file	"motor.c"
  16              		.text
  17              	.Ltext0:
  18              		.cfi_sections	.debug_frame
  19              		.section	.text._motor_init,"ax",%progbits
  20              		.align	2
  21              		.p2align 4,,15
  22              		.global	_motor_init
  23              		.thumb
  24              		.thumb_func
  25              		.type	_motor_init, %function
  26              	_motor_init:
  27              	.LFB119:
  28              		.file 1 "../AithonLibrary/motor.c"
  29              		.loc 1 24 0
  30              		.cfi_startproc
  31              		@ args = 0, pretend = 0, frame = 0
  32              		@ frame_needed = 0, uses_anonymous_args = 0
  33              		@ link register save eliminated.
  34              		.loc 1 25 0
  35 0000 40F20000 		movw	r0, #:lower16:PWMD1
  36 0004 40F20001 		movw	r1, #:lower16:.LANCHOR0
  37 0008 C0F20000 		movt	r0, #:upper16:PWMD1
  38 000c C0F20001 		movt	r1, #:upper16:.LANCHOR0
  39              		.loc 1 26 0
  40              		.loc 1 25 0
  41 0010 FFF7FEBF 		b	pwmStart
  42              	.LVL0:
  43              		.cfi_endproc
  44              	.LFE119:
  45              		.size	_motor_init, .-_motor_init
  46 0014 AFF30080 		.section	.text.motor_set,"ax",%progbits
  46      AFF30080 
  46      AFF30080 
  47              		.align	2
  48              		.p2align 4,,15
  49              		.global	motor_set
  50              		.thumb
  51              		.thumb_func
  52              		.type	motor_set, %function
  53              	motor_set:
  54              	.LFB120:
  55              		.loc 1 29 0
ARM GAS  /var/folders/ng/s8655sgx1ys_4lf9jzm2w6n00000gn/T//ccrXI726.s 			page 2


  56              		.cfi_startproc
  57              		@ args = 0, pretend = 0, frame = 0
  58              		@ frame_needed = 0, uses_anonymous_args = 0
  59              	.LVL1:
  60 0000 10B5     		push	{r4, lr}
  61              	.LCFI0:
  62              		.cfi_def_cfa_offset 8
  63              		.cfi_offset 4, -8
  64              		.cfi_offset 14, -4
  65              		.loc 1 30 0
  66 0002 0124     		movs	r4, #1
  67 0004 0019     		adds	r0, r0, r4
  68              	.LVL2:
  69 0006 C8F20004 		movt	r4, 32768
  70 000a 0440     		ands	r4, r4, r0
  71 000c 002C     		cmp	r4, #0
  72              		.loc 1 29 0
  73 000e 0A46     		mov	r2, r1
  74              		.loc 1 30 0
  75 0010 2BDB     		blt	.L9
  76              	.LVL3:
  77              	.L3:
  78              		.loc 1 31 0
  79 0012 002A     		cmp	r2, #0
  80 0014 18DC     		bgt	.L10
  81              		.loc 1 37 0
  82 0016 2DD1     		bne	.L11
  83              		.loc 1 45 0
  84 0018 2348     		ldr	r0, .L12
  85 001a E1B2     		uxtb	r1, r4
  86 001c FFF7FEFF 		bl	pwmEnableChannel
  87              	.LVL4:
  88              		.loc 1 46 0
  89 0020 224B     		ldr	r3, .L12+4
  90              		.loc 1 47 0
  91 0022 03EBC402 		add	r2, r3, r4, lsl #3
  92              		.loc 1 46 0
  93 0026 53F83410 		ldr	r1, [r3, r4, lsl #3]
  94              		.loc 1 47 0
  95 002a 5068     		ldr	r0, [r2, #4]
  96              		.loc 1 46 0
  97 002c 4FF48053 		mov	r3, #4096
  98 0030 0122     		movs	r2, #1
  99 0032 C4F20203 		movt	r3, 16386
 100 0036 1031     		adds	r1, r1, #16
 101              	.L7:
 102              		.loc 1 47 0
 103 0038 1030     		adds	r0, r0, #16
 104              		.loc 1 46 0
 105 003a 02FA01F1 		lsl	r1, r2, r1
 106              		.loc 1 47 0
 107 003e 02FA00F2 		lsl	r2, r2, r0
 108              		.loc 1 46 0
 109 0042 9961     		str	r1, [r3, #24]
 110              		.loc 1 47 0
 111 0044 9A61     		str	r2, [r3, #24]
 112 0046 10BD     		pop	{r4, pc}
ARM GAS  /var/folders/ng/s8655sgx1ys_4lf9jzm2w6n00000gn/T//ccrXI726.s 			page 3


 113              	.LVL5:
 114              	.L10:
 115              		.loc 1 33 0
 116 0048 1748     		ldr	r0, .L12
 117 004a E1B2     		uxtb	r1, r4
 118 004c 92B2     		uxth	r2, r2
 119              	.LVL6:
 120 004e FFF7FEFF 		bl	pwmEnableChannel
 121              	.LVL7:
 122              		.loc 1 34 0
 123 0052 1648     		ldr	r0, .L12+4
 124              		.loc 1 35 0
 125 0054 00EBC403 		add	r3, r0, r4, lsl #3
 126              		.loc 1 34 0
 127 0058 50F83410 		ldr	r1, [r0, r4, lsl #3]
 128              		.loc 1 35 0
 129 005c 5868     		ldr	r0, [r3, #4]
 130              		.loc 1 34 0
 131 005e 4FF48053 		mov	r3, #4096
 132 0062 0122     		movs	r2, #1
 133 0064 C4F20203 		movt	r3, 16386
 134 0068 E6E7     		b	.L7
 135              	.LVL8:
 136              	.L9:
 137              		.loc 1 30 0
 138 006a 013C     		subs	r4, r4, #1
 139 006c 64F00101 		orn	r1, r4, #1
 140              	.LVL9:
 141 0070 4C1C     		adds	r4, r1, #1
 142 0072 CEE7     		b	.L3
 143              	.LVL10:
 144              	.L11:
 145              		.loc 1 39 0
 146 0074 5342     		negs	r3, r2
 147 0076 9AB2     		uxth	r2, r3
 148              	.LVL11:
 149 0078 0B48     		ldr	r0, .L12
 150 007a E1B2     		uxtb	r1, r4
 151 007c FFF7FEFF 		bl	pwmEnableChannel
 152              	.LVL12:
 153              		.loc 1 40 0
 154 0080 0A49     		ldr	r1, .L12+4
 155              		.loc 1 41 0
 156 0082 01EBC400 		add	r0, r1, r4, lsl #3
 157              		.loc 1 40 0
 158 0086 51F83410 		ldr	r1, [r1, r4, lsl #3]
 159              		.loc 1 41 0
 160 008a 4068     		ldr	r0, [r0, #4]
 161              		.loc 1 40 0
 162 008c 4FF48053 		mov	r3, #4096
 163 0090 0122     		movs	r2, #1
 164 0092 C4F20203 		movt	r3, 16386
 165 0096 1031     		adds	r1, r1, #16
 166 0098 02FA01F1 		lsl	r1, r2, r1
 167              		.loc 1 41 0
 168 009c 02FA00F2 		lsl	r2, r2, r0
 169              		.loc 1 40 0
ARM GAS  /var/folders/ng/s8655sgx1ys_4lf9jzm2w6n00000gn/T//ccrXI726.s 			page 4


 170 00a0 9961     		str	r1, [r3, #24]
 171              		.loc 1 41 0
 172 00a2 9A61     		str	r2, [r3, #24]
 173 00a4 10BD     		pop	{r4, pc}
 174              	.L13:
 175 00a6 00BF     		.align	2
 176              	.L12:
 177 00a8 00000000 		.word	PWMD1
 178 00ac 00000000 		.word	.LANCHOR1
 179              		.cfi_endproc
 180              	.LFE120:
 181              		.size	motor_set, .-motor_set
 182              		.section	.text.motor_brake,"ax",%progbits
 183              		.align	2
 184              		.p2align 4,,15
 185              		.global	motor_brake
 186              		.thumb
 187              		.thumb_func
 188              		.type	motor_brake, %function
 189              	motor_brake:
 190              	.LFB121:
 191              		.loc 1 52 0
 192              		.cfi_startproc
 193              		@ args = 0, pretend = 0, frame = 0
 194              		@ frame_needed = 0, uses_anonymous_args = 0
 195              		@ link register save eliminated.
 196              	.LVL13:
 197              		.loc 1 53 0
 198 0000 0123     		movs	r3, #1
 199 0002 C018     		adds	r0, r0, r3
 200              	.LVL14:
 201 0004 C8F20003 		movt	r3, 32768
 202 0008 0340     		ands	r3, r3, r0
 203 000a 002B     		cmp	r3, #0
 204              		.loc 1 52 0
 205 000c F0B4     		push	{r4, r5, r6, r7}
 206              	.LCFI1:
 207              		.cfi_def_cfa_offset 16
 208              		.cfi_offset 4, -16
 209              		.cfi_offset 5, -12
 210              		.cfi_offset 6, -8
 211              		.cfi_offset 7, -4
 212              		.loc 1 53 0
 213 000e 1FDB     		blt	.L16
 214              	.L15:
 215              	.LVL15:
 216              		.loc 1 54 0
 217 0010 124C     		ldr	r4, .L17
 218              		.loc 1 56 0
 219 0012 1348     		ldr	r0, .L17+4
 220              		.loc 1 54 0
 221 0014 54F83370 		ldr	r7, [r4, r3, lsl #3]
 222              		.loc 1 55 0
 223 0018 04EBC305 		add	r5, r4, r3, lsl #3
 224              		.loc 1 56 0
 225 001c 01EB8101 		add	r1, r1, r1, lsl #2
 226              	.LVL16:
ARM GAS  /var/folders/ng/s8655sgx1ys_4lf9jzm2w6n00000gn/T//ccrXI726.s 			page 5


 227              		.loc 1 55 0
 228 0020 6E68     		ldr	r6, [r5, #4]
 229              		.loc 1 56 0
 230 0022 01EB8102 		add	r2, r1, r1, lsl #2
 231              		.loc 1 54 0
 232 0026 0125     		movs	r5, #1
 233              		.loc 1 55 0
 234 0028 1036     		adds	r6, r6, #16
 235              		.loc 1 54 0
 236 002a 1037     		adds	r7, r7, #16
 237 002c 4FF48054 		mov	r4, #4096
 238 0030 C4F20204 		movt	r4, 16386
 239 0034 05FA07F7 		lsl	r7, r5, r7
 240              		.loc 1 55 0
 241 0038 05FA06F5 		lsl	r5, r5, r6
 242              		.loc 1 56 0
 243 003c 9600     		lsls	r6, r2, #2
 244 003e 4FF6FC72 		movw	r2, #65532
 245 0042 D9B2     		uxtb	r1, r3
 246 0044 3240     		ands	r2, r2, r6
 247              		.loc 1 54 0
 248 0046 A761     		str	r7, [r4, #24]
 249              		.loc 1 55 0
 250 0048 A561     		str	r5, [r4, #24]
 251              		.loc 1 57 0
 252 004a F0BC     		pop	{r4, r5, r6, r7}
 253              		.loc 1 56 0
 254 004c FFF7FEBF 		b	pwmEnableChannel
 255              	.LVL17:
 256              	.L16:
 257              		.loc 1 53 0
 258 0050 013B     		subs	r3, r3, #1
 259 0052 63F00102 		orn	r2, r3, #1
 260 0056 531C     		adds	r3, r2, #1
 261 0058 DAE7     		b	.L15
 262              	.L18:
 263 005a 00BF     		.align	2
 264              	.L17:
 265 005c 00000000 		.word	.LANCHOR1
 266 0060 00000000 		.word	PWMD1
 267              		.cfi_endproc
 268              	.LFE121:
 269              		.size	motor_brake, .-motor_brake
 270 0064 AFF30080 		.section	.rodata.pwmcfg1,"a",%progbits
 270      AFF30080 
 270      AFF30080 
 271              		.align	2
 272              		.set	.LANCHOR0,. + 0
 273              		.type	pwmcfg1, %object
 274              		.size	pwmcfg1, 56
 275              	pwmcfg1:
 276 0000 C0C62D00 		.word	3000000
 277 0004 6400     		.short	100
 278 0006 0000     		.space	2
 279 0008 00000000 		.word	0
 280 000c 01000000 		.word	1
 281 0010 00000000 		.word	0
ARM GAS  /var/folders/ng/s8655sgx1ys_4lf9jzm2w6n00000gn/T//ccrXI726.s 			page 6


 282 0014 01000000 		.word	1
 283 0018 00000000 		.word	0
 284 001c 00000000 		.word	0
 285 0020 00000000 		.word	0
 286 0024 00000000 		.word	0
 287 0028 00000000 		.word	0
 288 002c 00000000 		.word	0
 289 0030 00000000 		.word	0
 290 0034 00000000 		.word	0
 291              		.section	.rodata.motorPins,"a",%progbits
 292              		.align	2
 293              		.set	.LANCHOR1,. + 0
 294              		.type	motorPins, %object
 295              		.size	motorPins, 16
 296              	motorPins:
 297 0000 07000000 		.word	7
 298 0004 08000000 		.word	8
 299 0008 0A000000 		.word	10
 300 000c 0C000000 		.word	12
 301              		.text
 302              	.Letext0:
 303              		.file 2 "/Users/jseng/gccarm/bin/../lib/gcc/arm-none-eabi/4.7.4/../../../../arm-none-eabi/include/
 304              		.file 3 "../AithonLibrary/ChibiOS/os/hal/platforms/STM32/GPIOv2/pal_lld.h"
 305              		.file 4 "../AithonLibrary/ChibiOS/os/hal/include/pwm.h"
 306              		.file 5 "../AithonLibrary/ChibiOS/os/hal/platforms/STM32/TIMv1/pwm_lld.h"
 307              		.file 6 "../AithonLibrary/ChibiOS/os/hal/platforms/STM32/TIMv1/stm32_tim.h"
 308              		.file 7 "../AithonLibrary/ChibiOS/os/ports/common/ARMCMx/CMSIS/include/core_cm4.h"