ARM GAS  /var/folders/ng/s8655sgx1ys_4lf9jzm2w6n00000gn/T//ccmm4r0w.s 			page 1


   1              		.syntax unified
   2              		.cpu cortex-m4
   3              		.eabi_attribute 27, 3
   4              		.fpu fpv4-sp-d16
   5              		.eabi_attribute 20, 1
   6              		.eabi_attribute 21, 1
   7              		.eabi_attribute 23, 3
   8              		.eabi_attribute 24, 1
   9              		.eabi_attribute 25, 1
  10              		.eabi_attribute 26, 1
  11              		.eabi_attribute 30, 2
  12              		.eabi_attribute 34, 1
  13              		.eabi_attribute 18, 4
  14              		.thumb
  15              		.file	"music.c"
  16              		.text
  17              	.Ltext0:
  18              		.cfi_sections	.debug_frame
  19              		.section	.text._play_note,"ax",%progbits
  20              		.align	2
  21              		.p2align 4,,15
  22              		.global	_play_note
  23              		.thumb
  24              		.thumb_func
  25              		.type	_play_note, %function
  26              	_play_note:
  27              	.LFB119:
  28              		.file 1 "../AithonLibrary/music.c"
  29              		.loc 1 26 0
  30              		.cfi_startproc
  31              		@ args = 0, pretend = 0, frame = 0
  32              		@ frame_needed = 0, uses_anonymous_args = 0
  33              	.LVL0:
  34              		.loc 1 27 0
  35 0000 1429     		cmp	r1, #20
  36              		.loc 1 26 0
  37 0002 70B5     		push	{r4, r5, r6, lr}
  38              	.LCFI0:
  39              		.cfi_def_cfa_offset 16
  40              		.cfi_offset 4, -16
  41              		.cfi_offset 5, -12
  42              		.cfi_offset 6, -8
  43              		.cfi_offset 14, -4
  44              		.loc 1 26 0
  45 0004 0C46     		mov	r4, r1
  46 0006 0646     		mov	r6, r0
  47              		.loc 1 27 0
  48 0008 00D8     		bhi	.L4
  49 000a 70BD     		pop	{r4, r5, r6, pc}
  50              	.L4:
  51              	.LVL1:
  52              	.LBB4:
  53              	.LBB5:
  54              		.loc 1 29 0
  55 000c 1D4D     		ldr	r5, .L5
  56 000e 0121     		movs	r1, #1
  57              	.LVL2:
ARM GAS  /var/folders/ng/s8655sgx1ys_4lf9jzm2w6n00000gn/T//ccmm4r0w.s 			page 2


  58 0010 2846     		mov	r0, r5
  59              	.LVL3:
  60 0012 FFF7FEFF 		bl	pwmDisableChannel
  61              	.LVL4:
  62              		.loc 1 30 0
  63 0016 1C4B     		ldr	r3, .L5+4
  64 0018 44F24022 		movw	r2, #16960
  65 001c C0F20F02 		movt	r2, 15
  66 0020 92FBF6F6 		sdiv	r6, r2, r6
  67              	.LVL5:
  68              		.loc 1 31 0
  69 0024 2846     		mov	r0, r5
  70 0026 1946     		mov	r1, r3
  71              		.loc 1 30 0
  72 0028 9E80     		strh	r6, [r3, #4]	@ movhi
  73              		.loc 1 31 0
  74 002a FFF7FEFF 		bl	pwmStart
  75              	.LVL6:
  76              		.loc 1 32 0
  77 002e 2889     		ldrh	r0, [r5, #8]
  78 0030 48F21F51 		movw	r1, #34079
  79 0034 00EB8003 		add	r3, r0, r0, lsl #2
  80 0038 03EB8302 		add	r2, r3, r3, lsl #2
  81 003c C5F2EB11 		movt	r1, 20971
  82 0040 A1FB0210 		umull	r1, r0, r1, r2
  83 0044 C0F34F12 		ubfx	r2, r0, #5, #16
  84 0048 0121     		movs	r1, #1
  85 004a 2846     		mov	r0, r5
  86              		.loc 1 28 0
  87 004c 143C     		subs	r4, r4, #20
  88              	.LVL7:
  89              		.loc 1 32 0
  90 004e FFF7FEFF 		bl	pwmEnableChannel
  91              	.LVL8:
  92              		.loc 1 33 0
  93 0052 A4B2     		uxth	r4, r4
  94              	.LVL9:
  95 0054 4FF47A71 		mov	r1, #1000
  96 0058 01FB04F2 		mul	r2, r1, r4
  97 005c 44F6D353 		movw	r3, #19923
  98 0060 501E     		subs	r0, r2, #1
  99 0062 C1F26203 		movt	r3, 4194
 100 0066 A3FB0021 		umull	r2, r1, r3, r0
 101 006a 8A09     		lsrs	r2, r1, #6
 102 006c 501C     		adds	r0, r2, #1
 103 006e FFF7FEFF 		bl	chThdSleep
 104              	.LVL10:
 105              		.loc 1 34 0
 106 0072 2846     		mov	r0, r5
 107 0074 FFF7FEFF 		bl	pwmStop
 108              	.LVL11:
 109              		.loc 1 35 0
 110 0078 1420     		movs	r0, #20
 111              	.LBE5:
 112              	.LBE4:
 113              		.loc 1 36 0
 114 007a BDE87040 		pop	{r4, r5, r6, lr}
ARM GAS  /var/folders/ng/s8655sgx1ys_4lf9jzm2w6n00000gn/T//ccmm4r0w.s 			page 3


 115              	.LBB7:
 116              	.LBB6:
 117              		.loc 1 35 0
 118 007e FFF7FEBF 		b	chThdSleep
 119              	.LVL12:
 120              	.L6:
 121 0082 00BF     		.align	2
 122              	.L5:
 123 0084 00000000 		.word	PWMD2
 124 0088 00000000 		.word	.LANCHOR0
 125              	.LBE6:
 126              	.LBE7:
 127              		.cfi_endproc
 128              	.LFE119:
 129              		.size	_play_note, .-_play_note
 130 008c AFF30080 		.section	.text.MusicThread,"ax",%progbits
 131              		.align	2
 132              		.p2align 4,,15
 133              		.thumb
 134              		.thumb_func
 135              		.type	MusicThread, %function
 136              	MusicThread:
 137              	.LFB120:
 138              		.loc 1 40 0
 139              		.cfi_startproc
 140              		@ args = 0, pretend = 0, frame = 0
 141              		@ frame_needed = 0, uses_anonymous_args = 0
 142              	.LVL13:
 143 0000 70B5     		push	{r4, r5, r6, lr}
 144              	.LCFI1:
 145              		.cfi_def_cfa_offset 16
 146              		.cfi_offset 4, -16
 147              		.cfi_offset 5, -12
 148              		.cfi_offset 6, -8
 149              		.cfi_offset 14, -4
 150 0002 0F4D     		ldr	r5, .L13
 151 0004 0F4E     		ldr	r6, .L13+4
 152              	.LVL14:
 153              	.L9:
 154              	.LBB8:
 155              		.loc 1 44 0
 156 0006 FFF7FEFF 		bl	chMsgWait
 157              	.LVL15:
 158 000a 0121     		movs	r1, #1
 159 000c FFF7FEFF 		bl	chMsgRelease
 160              	.LVL16:
 161              		.loc 1 45 0
 162 0010 0D48     		ldr	r0, .L13+8
 163 0012 FFF7FEFF 		bl	chMtxLock
 164              	.LVL17:
 165              		.loc 1 47 0
 166 0016 2B68     		ldr	r3, [r5, #0]
 167 0018 0024     		movs	r4, #0
 168 001a 002B     		cmp	r3, #0
 169 001c 0DDD     		ble	.L10
 170              	.LVL18:
 171              	.L8:
ARM GAS  /var/folders/ng/s8655sgx1ys_4lf9jzm2w6n00000gn/T//ccmm4r0w.s 			page 4


 172              		.loc 1 49 0 discriminator 2
 173 001e 3068     		ldr	r0, [r6, #0]
 174 0020 00EB8402 		add	r2, r0, r4, lsl #2
 175 0024 30F82430 		ldrh	r3, [r0, r4, lsl #2]
 176 0028 5188     		ldrh	r1, [r2, #2]
 177 002a 98B2     		uxth	r0, r3
 178 002c 89B2     		uxth	r1, r1
 179 002e FFF7FEFF 		bl	_play_note
 180              	.LVL19:
 181              		.loc 1 47 0 discriminator 2
 182 0032 2868     		ldr	r0, [r5, #0]
 183 0034 0134     		adds	r4, r4, #1
 184              	.LVL20:
 185 0036 A042     		cmp	r0, r4
 186 0038 F1DC     		bgt	.L8
 187              	.LVL21:
 188              	.L10:
 189              		.loc 1 51 0
 190 003a FFF7FEFF 		bl	chMtxUnlock
 191              	.LVL22:
 192              	.LBE8:
 193              		.loc 1 52 0
 194 003e E2E7     		b	.L9
 195              	.L14:
 196              		.align	2
 197              	.L13:
 198 0040 00000000 		.word	.LANCHOR2
 199 0044 00000000 		.word	.LANCHOR3
 200 0048 00000000 		.word	.LANCHOR1
 201              		.cfi_endproc
 202              	.LFE120:
 203              		.size	MusicThread, .-MusicThread
 204 004c AFF30080 		.section	.text._music_init,"ax",%progbits
 205              		.align	2
 206              		.p2align 4,,15
 207              		.global	_music_init
 208              		.thumb
 209              		.thumb_func
 210              		.type	_music_init, %function
 211              	_music_init:
 212              	.LFB121:
 213              		.loc 1 57 0
 214              		.cfi_startproc
 215              		@ args = 0, pretend = 0, frame = 0
 216              		@ frame_needed = 0, uses_anonymous_args = 0
 217 0000 00B5     		push	{lr}
 218              	.LCFI2:
 219              		.cfi_def_cfa_offset 4
 220              		.cfi_offset 14, -4
 221              		.loc 1 58 0
 222 0002 40F20000 		movw	r0, #:lower16:.LANCHOR1
 223              		.loc 1 57 0
 224 0006 83B0     		sub	sp, sp, #12
 225              	.LCFI3:
 226              		.cfi_def_cfa_offset 16
 227              		.loc 1 58 0
 228 0008 C0F20000 		movt	r0, #:upper16:.LANCHOR1
ARM GAS  /var/folders/ng/s8655sgx1ys_4lf9jzm2w6n00000gn/T//ccmm4r0w.s 			page 5


 229 000c FFF7FEFF 		bl	chMtxInit
 230              	.LVL23:
 231              		.loc 1 59 0
 232 0010 0023     		movs	r3, #0
 233 0012 0093     		str	r3, [sp, #0]
 234 0014 40F20000 		movw	r0, #:lower16:.LANCHOR4
 235 0018 40F20003 		movw	r3, #:lower16:MusicThread
 236 001c 4FF4DC71 		mov	r1, #440
 237 0020 C0F20000 		movt	r0, #:upper16:.LANCHOR4
 238 0024 7F22     		movs	r2, #127
 239 0026 C0F20003 		movt	r3, #:upper16:MusicThread
 240 002a FFF7FEFF 		bl	chThdCreateStatic
 241              	.LVL24:
 242 002e 40F20001 		movw	r1, #:lower16:.LANCHOR5
 243 0032 C0F20001 		movt	r1, #:upper16:.LANCHOR5
 244 0036 0860     		str	r0, [r1, #0]
 245              		.loc 1 60 0
 246 0038 03B0     		add	sp, sp, #12
 247 003a 00BD     		pop	{pc}
 248              		.cfi_endproc
 249              	.LFE121:
 250              		.size	_music_init, .-_music_init
 251 003c AFF30080 		.section	.text.music_playNote,"ax",%progbits
 252              		.align	2
 253              		.p2align 4,,15
 254              		.global	music_playNote
 255              		.thumb
 256              		.thumb_func
 257              		.type	music_playNote, %function
 258              	music_playNote:
 259              	.LFB122:
 260              		.loc 1 63 0
 261              		.cfi_startproc
 262              		@ args = 0, pretend = 0, frame = 8
 263              		@ frame_needed = 0, uses_anonymous_args = 0
 264 0000 00B5     		push	{lr}
 265              	.LCFI4:
 266              		.cfi_def_cfa_offset 4
 267              		.cfi_offset 14, -4
 268 0002 83B0     		sub	sp, sp, #12
 269              	.LCFI5:
 270              		.cfi_def_cfa_offset 16
 271              		.loc 1 63 0
 272 0004 0190     		str	r0, [sp, #4]
 273              		.loc 1 64 0
 274 0006 40F20000 		movw	r0, #:lower16:.LANCHOR1
 275 000a C0F20000 		movt	r0, #:upper16:.LANCHOR1
 276 000e FFF7FEFF 		bl	chMtxLock
 277              	.LVL25:
 278              		.loc 1 65 0
 279 0012 BDF80400 		ldrh	r0, [sp, #4]
 280 0016 BDF80610 		ldrh	r1, [sp, #6]
 281 001a FFF7FEFF 		bl	_play_note
 282              	.LVL26:
 283              		.loc 1 67 0
 284 001e 03B0     		add	sp, sp, #12
 285 0020 5DF804EB 		pop	{lr}
ARM GAS  /var/folders/ng/s8655sgx1ys_4lf9jzm2w6n00000gn/T//ccmm4r0w.s 			page 6


 286              		.loc 1 66 0
 287 0024 FFF7FEBF 		b	chMtxUnlock
 288              	.LVL27:
 289              		.cfi_endproc
 290              	.LFE122:
 291              		.size	music_playNote, .-music_playNote
 292 0028 AFF30080 		.section	.text.music_playNotes,"ax",%progbits
 292      AFF30080 
 293              		.align	2
 294              		.p2align 4,,15
 295              		.global	music_playNotes
 296              		.thumb
 297              		.thumb_func
 298              		.type	music_playNotes, %function
 299              	music_playNotes:
 300              	.LFB123:
 301              		.loc 1 70 0
 302              		.cfi_startproc
 303              		@ args = 0, pretend = 0, frame = 0
 304              		@ frame_needed = 0, uses_anonymous_args = 0
 305              	.LVL28:
 306 0000 2DE9F041 		push	{r4, r5, r6, r7, r8, lr}
 307              	.LCFI6:
 308              		.cfi_def_cfa_offset 24
 309              		.cfi_offset 4, -24
 310              		.cfi_offset 5, -20
 311              		.cfi_offset 6, -16
 312              		.cfi_offset 7, -12
 313              		.cfi_offset 8, -8
 314              		.cfi_offset 14, -4
 315              		.loc 1 70 0
 316 0004 0F46     		mov	r7, r1
 317 0006 0446     		mov	r4, r0
 318              		.loc 1 71 0
 319 0008 1748     		ldr	r0, .L28
 320              	.LVL29:
 321 000a FFF7FEFF 		bl	chMtxLock
 322              	.LVL30:
 323              		.loc 1 73 0
 324 000e 002F     		cmp	r7, #0
 325 0010 26DD     		ble	.L19
 326 0012 7B1E     		subs	r3, r7, #1
 327 0014 0126     		movs	r6, #1
 328              		.loc 1 75 0
 329 0016 2088     		ldrh	r0, [r4, #0]
 330 0018 6188     		ldrh	r1, [r4, #2]
 331 001a 03EA0608 		and	r8, r3, r6
 332 001e 0425     		movs	r5, #4
 333 0020 FFF7FEFF 		bl	_play_note
 334              	.LVL31:
 335              		.loc 1 73 0
 336 0024 BE42     		cmp	r6, r7
 337 0026 1BD0     		beq	.L19
 338 0028 B8F1000F 		cmp	r8, #0
 339 002c 09D0     		beq	.L18
 340              		.loc 1 75 0
 341 002e 2146     		mov	r1, r4
ARM GAS  /var/folders/ng/s8655sgx1ys_4lf9jzm2w6n00000gn/T//ccmm4r0w.s 			page 7


 342              		.loc 1 73 0
 343 0030 0226     		movs	r6, #2
 344              		.loc 1 75 0
 345 0032 31F8040F 		ldrh	r0, [r1, #4]!
 346 0036 4988     		ldrh	r1, [r1, #2]
 347 0038 FFF7FEFF 		bl	_play_note
 348              	.LVL32:
 349 003c 0825     		movs	r5, #8
 350              		.loc 1 73 0
 351 003e BE42     		cmp	r6, r7
 352 0040 0ED0     		beq	.L19
 353              	.L18:
 354              		.loc 1 69 0 discriminator 2
 355 0042 6219     		adds	r2, r4, r5
 356              		.loc 1 75 0 discriminator 2
 357 0044 605B     		ldrh	r0, [r4, r5]
 358 0046 5188     		ldrh	r1, [r2, #2]
 359 0048 0435     		adds	r5, r5, #4
 360 004a FFF7FEFF 		bl	_play_note
 361              	.LVL33:
 362              		.loc 1 69 0 discriminator 2
 363 004e 6319     		adds	r3, r4, r5
 364              		.loc 1 75 0 discriminator 2
 365 0050 605B     		ldrh	r0, [r4, r5]
 366 0052 5988     		ldrh	r1, [r3, #2]
 367              		.loc 1 73 0 discriminator 2
 368 0054 0236     		adds	r6, r6, #2
 369              		.loc 1 75 0 discriminator 2
 370 0056 FFF7FEFF 		bl	_play_note
 371              	.LVL34:
 372 005a 0435     		adds	r5, r5, #4
 373              		.loc 1 73 0 discriminator 2
 374 005c BE42     		cmp	r6, r7
 375 005e F0D1     		bne	.L18
 376              	.L19:
 377              		.loc 1 78 0
 378 0060 BDE8F041 		pop	{r4, r5, r6, r7, r8, lr}
 379              		.loc 1 77 0
 380 0064 FFF7FEBF 		b	chMtxUnlock
 381              	.LVL35:
 382              	.L29:
 383              		.align	2
 384              	.L28:
 385 0068 00000000 		.word	.LANCHOR1
 386              		.cfi_endproc
 387              	.LFE123:
 388              		.size	music_playNotes, .-music_playNotes
 389 006c AFF30080 		.section	.text.music_playNotesAsync,"ax",%progbits
 390              		.align	2
 391              		.p2align 4,,15
 392              		.global	music_playNotesAsync
 393              		.thumb
 394              		.thumb_func
 395              		.type	music_playNotesAsync, %function
 396              	music_playNotesAsync:
 397              	.LFB124:
 398              		.loc 1 81 0
ARM GAS  /var/folders/ng/s8655sgx1ys_4lf9jzm2w6n00000gn/T//ccmm4r0w.s 			page 8


 399              		.cfi_startproc
 400              		@ args = 0, pretend = 0, frame = 0
 401              		@ frame_needed = 0, uses_anonymous_args = 0
 402              	.LVL36:
 403 0000 38B5     		push	{r3, r4, r5, lr}
 404              	.LCFI7:
 405              		.cfi_def_cfa_offset 16
 406              		.cfi_offset 3, -16
 407              		.cfi_offset 4, -12
 408              		.cfi_offset 5, -8
 409              		.cfi_offset 14, -4
 410              		.loc 1 81 0
 411 0002 0546     		mov	r5, r0
 412              		.loc 1 83 0
 413 0004 0948     		ldr	r0, .L33
 414              	.LVL37:
 415              		.loc 1 81 0
 416 0006 0C46     		mov	r4, r1
 417              		.loc 1 83 0
 418 0008 FFF7FEFF 		bl	chMtxTryLock
 419              	.LVL38:
 420 000c 00B9     		cbnz	r0, .L32
 421 000e 38BD     		pop	{r3, r4, r5, pc}
 422              	.L32:
 423              		.loc 1 88 0
 424 0010 074B     		ldr	r3, .L33+4
 425              		.loc 1 86 0
 426 0012 0849     		ldr	r1, .L33+8
 427              		.loc 1 87 0
 428 0014 084A     		ldr	r2, .L33+12
 429              		.loc 1 86 0
 430 0016 0D60     		str	r5, [r1, #0]
 431              		.loc 1 88 0
 432 0018 1868     		ldr	r0, [r3, #0]
 433              		.loc 1 87 0
 434 001a 1460     		str	r4, [r2, #0]
 435              		.loc 1 88 0
 436 001c 0121     		movs	r1, #1
 437 001e FFF7FEFF 		bl	chMsgSend
 438              	.LVL39:
 439              		.loc 1 90 0
 440 0022 BDE83840 		pop	{r3, r4, r5, lr}
 441              		.loc 1 89 0
 442 0026 FFF7FEBF 		b	chMtxUnlock
 443              	.LVL40:
 444              	.L34:
 445 002a 00BF     		.align	2
 446              	.L33:
 447 002c 00000000 		.word	.LANCHOR1
 448 0030 00000000 		.word	.LANCHOR5
 449 0034 00000000 		.word	.LANCHOR3
 450 0038 00000000 		.word	.LANCHOR2
 451              		.cfi_endproc
 452              	.LFE124:
 453              		.size	music_playNotesAsync, .-music_playNotesAsync
 454              		.global	_asyncNumNotes
 455              		.global	_asyncNotes
ARM GAS  /var/folders/ng/s8655sgx1ys_4lf9jzm2w6n00000gn/T//ccmm4r0w.s 			page 9


 456              		.global	_asyncMusicThread
 457              		.global	_buzzerMtx
 458 003c AFF30080 		.section	.bss._asyncNumNotes,"aw",%nobits
 459              		.align	2
 460              		.set	.LANCHOR2,. + 0
 461              		.type	_asyncNumNotes, %object
 462              		.size	_asyncNumNotes, 4
 463              	_asyncNumNotes:
 464 0000 00000000 		.space	4
 465              		.section	.bss._buzzerMtx,"aw",%nobits
 466              		.align	2
 467              		.set	.LANCHOR1,. + 0
 468              		.type	_buzzerMtx, %object
 469              		.size	_buzzerMtx, 16
 470              	_buzzerMtx:
 471 0000 00000000 		.space	16
 471      00000000 
 471      00000000 
 471      00000000 
 472              		.section	.bss.waMusicThread,"aw",%nobits
 473              		.align	3
 474              		.set	.LANCHOR4,. + 0
 475              		.type	waMusicThread, %object
 476              		.size	waMusicThread, 440
 477              	waMusicThread:
 478 0000 00000000 		.space	440
 478      00000000 
 478      00000000 
 478      00000000 
 478      00000000 
 479              		.section	.bss._asyncNotes,"aw",%nobits
 480              		.align	2
 481              		.set	.LANCHOR3,. + 0
 482              		.type	_asyncNotes, %object
 483              		.size	_asyncNotes, 4
 484              	_asyncNotes:
 485 0000 00000000 		.space	4
 486              		.section	.data._pwmcfg2,"aw",%progbits
 487              		.align	2
 488              		.set	.LANCHOR0,. + 0
 489              		.type	_pwmcfg2, %object
 490              		.size	_pwmcfg2, 56
 491              	_pwmcfg2:
 492 0000 40420F00 		.word	1000000
 493 0004 0100     		.short	1
 494 0006 0000     		.space	2
 495 0008 00000000 		.word	0
 496 000c 00000000 		.word	0
 497 0010 00000000 		.word	0
 498 0014 01000000 		.word	1
 499 0018 00000000 		.word	0
 500 001c 00000000 		.word	0
 501 0020 00000000 		.word	0
 502 0024 00000000 		.word	0
 503 0028 00000000 		.word	0
 504 002c 00000000 		.word	0
 505 0030 00000000 		.word	0
ARM GAS  /var/folders/ng/s8655sgx1ys_4lf9jzm2w6n00000gn/T//ccmm4r0w.s 			page 10


 506 0034 00000000 		.word	0
 507              		.section	.bss._asyncMusicThread,"aw",%nobits
 508              		.align	2
 509              		.set	.LANCHOR5,. + 0
 510              		.type	_asyncMusicThread, %object
 511              		.size	_asyncMusicThread, 4
 512              	_asyncMusicThread:
 513 0000 00000000 		.space	4
 514              		.text
 515              	.Letext0:
 516              		.file 2 "/Users/jseng/gccarm/bin/../lib/gcc/arm-none-eabi/4.7.4/include/stddef.h"
 517              		.file 3 "/Users/jseng/gccarm/bin/../lib/gcc/arm-none-eabi/4.7.4/../../../../arm-none-eabi/include/
 518              		.file 4 "../AithonLibrary/ChibiOS/os/ports/GCC/ARMCMx/chtypes.h"
 519              		.file 5 "../AithonLibrary/ChibiOS/os/kernel/include/chlists.h"
 520              		.file 6 "../AithonLibrary/ChibiOS/os/kernel/include/chthreads.h"
 521              		.file 7 "../AithonLibrary/ChibiOS/os/ports/GCC/ARMCMx/chcore_v7m.h"
 522              		.file 8 "../AithonLibrary/ChibiOS/os/kernel/include/chmtx.h"
 523              		.file 9 "../AithonLibrary/ChibiOS/os/hal/include/pwm.h"
 524              		.file 10 "../AithonLibrary/ChibiOS/os/hal/platforms/STM32/TIMv1/pwm_lld.h"
 525              		.file 11 "../AithonLibrary/ChibiOS/os/hal/platforms/STM32/TIMv1/stm32_tim.h"
 526              		.file 12 "../AithonLibrary/music.h"
 527              		.file 13 "../AithonLibrary/ChibiOS/os/ports/common/ARMCMx/CMSIS/include/core_cm4.h"
 528              		.file 14 "../AithonLibrary/ChibiOS/os/kernel/include/chmsg.h"
 529              		.section	.debug_info,"",%progbits
 530              	.Ldebug_info0:
 531 0000 740D0000 		.4byte	0xd74
 532 0004 0200     		.2byte	0x2
 533 0006 00000000 		.4byte	.Ldebug_abbrev0
 534 000a 04       		.byte	0x4
 535 000b 01       		.uleb128 0x1
 536 000c FC000000 		.4byte	.LASF125
 537 0010 01       		.byte	0x1
 538 0011 85000000 		.4byte	.LASF126
 539 0015 90010000 		.4byte	.LASF127
 540 0019 18000000 		.4byte	.Ldebug_ranges0+0x18
 541 001d 00000000 		.4byte	0
 542 0021 00000000 		.4byte	0
 543 0025 00000000 		.4byte	.Ldebug_line0
 544 0029 02       		.uleb128 0x2
 545 002a 04       		.byte	0x4
 546 002b 05       		.byte	0x5
 547 002c 696E7400 		.ascii	"int\000"
 548 0030 03       		.uleb128 0x3
 549 0031 1A000000 		.4byte	.LASF2
 550 0035 02       		.byte	0x2
 551 0036 D5       		.byte	0xd5
 552 0037 3B000000 		.4byte	0x3b
 553 003b 04       		.uleb128 0x4
 554 003c 04       		.byte	0x4
 555 003d 07       		.byte	0x7
 556 003e D6010000 		.4byte	.LASF0
 557 0042 04       		.uleb128 0x4
 558 0043 01       		.byte	0x1
 559 0044 06       		.byte	0x6
 560 0045 BF000000 		.4byte	.LASF1
 561 0049 03       		.uleb128 0x3
 562 004a 98040000 		.4byte	.LASF3
ARM GAS  /var/folders/ng/s8655sgx1ys_4lf9jzm2w6n00000gn/T//ccmm4r0w.s 			page 11


 563 004e 03       		.byte	0x3
 564 004f 2A       		.byte	0x2a
 565 0050 54000000 		.4byte	0x54
 566 0054 04       		.uleb128 0x4
 567 0055 01       		.byte	0x1
 568 0056 08       		.byte	0x8
 569 0057 29030000 		.4byte	.LASF4
 570 005b 04       		.uleb128 0x4
 571 005c 02       		.byte	0x2
 572 005d 05       		.byte	0x5
 573 005e 50030000 		.4byte	.LASF5
 574 0062 03       		.uleb128 0x3
 575 0063 70010000 		.4byte	.LASF6
 576 0067 03       		.byte	0x3
 577 0068 36       		.byte	0x36
 578 0069 6D000000 		.4byte	0x6d
 579 006d 04       		.uleb128 0x4
 580 006e 02       		.byte	0x2
 581 006f 07       		.byte	0x7
 582 0070 16020000 		.4byte	.LASF7
 583 0074 03       		.uleb128 0x3
 584 0075 21030000 		.4byte	.LASF8
 585 0079 03       		.byte	0x3
 586 007a 4F       		.byte	0x4f
 587 007b 7F000000 		.4byte	0x7f
 588 007f 04       		.uleb128 0x4
 589 0080 04       		.byte	0x4
 590 0081 05       		.byte	0x5
 591 0082 54010000 		.4byte	.LASF9
 592 0086 03       		.uleb128 0x3
 593 0087 AC030000 		.4byte	.LASF10
 594 008b 03       		.byte	0x3
 595 008c 50       		.byte	0x50
 596 008d 91000000 		.4byte	0x91
 597 0091 04       		.uleb128 0x4
 598 0092 04       		.byte	0x4
 599 0093 07       		.byte	0x7
 600 0094 C9030000 		.4byte	.LASF11
 601 0098 04       		.uleb128 0x4
 602 0099 08       		.byte	0x8
 603 009a 05       		.byte	0x5
 604 009b 29020000 		.4byte	.LASF12
 605 009f 03       		.uleb128 0x3
 606 00a0 28000000 		.4byte	.LASF13
 607 00a4 03       		.byte	0x3
 608 00a5 78       		.byte	0x78
 609 00a6 AA000000 		.4byte	0xaa
 610 00aa 04       		.uleb128 0x4
 611 00ab 08       		.byte	0x8
 612 00ac 07       		.byte	0x7
 613 00ad BF010000 		.4byte	.LASF14
 614 00b1 03       		.uleb128 0x3
 615 00b2 DF000000 		.4byte	.LASF15
 616 00b6 04       		.byte	0x4
 617 00b7 2B       		.byte	0x2b
 618 00b8 BC000000 		.4byte	0xbc
 619 00bc 04       		.uleb128 0x4
ARM GAS  /var/folders/ng/s8655sgx1ys_4lf9jzm2w6n00000gn/T//ccmm4r0w.s 			page 12


 620 00bd 01       		.byte	0x1
 621 00be 02       		.byte	0x2
 622 00bf 1B030000 		.4byte	.LASF16
 623 00c3 03       		.uleb128 0x3
 624 00c4 58020000 		.4byte	.LASF17
 625 00c8 04       		.byte	0x4
 626 00c9 2C       		.byte	0x2c
 627 00ca 49000000 		.4byte	0x49
 628 00ce 03       		.uleb128 0x3
 629 00cf 67010000 		.4byte	.LASF18
 630 00d3 04       		.byte	0x4
 631 00d4 2D       		.byte	0x2d
 632 00d5 49000000 		.4byte	0x49
 633 00d9 03       		.uleb128 0x3
 634 00da 04030000 		.4byte	.LASF19
 635 00de 04       		.byte	0x4
 636 00df 2E       		.byte	0x2e
 637 00e0 49000000 		.4byte	0x49
 638 00e4 03       		.uleb128 0x3
 639 00e5 BF030000 		.4byte	.LASF20
 640 00e9 04       		.byte	0x4
 641 00ea 2F       		.byte	0x2f
 642 00eb 49000000 		.4byte	0x49
 643 00ef 03       		.uleb128 0x3
 644 00f0 13030000 		.4byte	.LASF21
 645 00f4 04       		.byte	0x4
 646 00f5 30       		.byte	0x30
 647 00f6 86000000 		.4byte	0x86
 648 00fa 03       		.uleb128 0x3
 649 00fb 37020000 		.4byte	.LASF22
 650 00ff 04       		.byte	0x4
 651 0100 31       		.byte	0x31
 652 0101 74000000 		.4byte	0x74
 653 0105 03       		.uleb128 0x3
 654 0106 6C020000 		.4byte	.LASF23
 655 010a 04       		.byte	0x4
 656 010b 33       		.byte	0x33
 657 010c 86000000 		.4byte	0x86
 658 0110 03       		.uleb128 0x3
 659 0111 0B040000 		.4byte	.LASF24
 660 0115 04       		.byte	0x4
 661 0116 35       		.byte	0x35
 662 0117 86000000 		.4byte	0x86
 663 011b 03       		.uleb128 0x3
 664 011c 82030000 		.4byte	.LASF25
 665 0120 05       		.byte	0x5
 666 0121 2A       		.byte	0x2a
 667 0122 26010000 		.4byte	0x126
 668 0126 05       		.uleb128 0x5
 669 0127 82030000 		.4byte	.LASF25
 670 012b 48       		.byte	0x48
 671 012c 06       		.byte	0x6
 672 012d 5E       		.byte	0x5e
 673 012e 4B020000 		.4byte	0x24b
 674 0132 06       		.uleb128 0x6
 675 0133 73030000 		.4byte	.LASF26
 676 0137 06       		.byte	0x6
ARM GAS  /var/folders/ng/s8655sgx1ys_4lf9jzm2w6n00000gn/T//ccmm4r0w.s 			page 13


 677 0138 5F       		.byte	0x5f
 678 0139 70020000 		.4byte	0x270
 679 013d 02       		.byte	0x2
 680 013e 23       		.byte	0x23
 681 013f 00       		.uleb128 0
 682 0140 06       		.uleb128 0x6
 683 0141 0C030000 		.4byte	.LASF27
 684 0145 06       		.byte	0x6
 685 0146 61       		.byte	0x61
 686 0147 70020000 		.4byte	0x270
 687 014b 02       		.byte	0x2
 688 014c 23       		.byte	0x23
 689 014d 04       		.uleb128 0x4
 690 014e 06       		.uleb128 0x6
 691 014f 74000000 		.4byte	.LASF28
 692 0153 06       		.byte	0x6
 693 0154 63       		.byte	0x63
 694 0155 EF000000 		.4byte	0xef
 695 0159 02       		.byte	0x2
 696 015a 23       		.byte	0x23
 697 015b 08       		.uleb128 0x8
 698 015c 06       		.uleb128 0x6
 699 015d 26050000 		.4byte	.LASF29
 700 0161 06       		.byte	0x6
 701 0162 64       		.byte	0x64
 702 0163 39040000 		.4byte	0x439
 703 0167 02       		.byte	0x2
 704 0168 23       		.byte	0x23
 705 0169 0C       		.uleb128 0xc
 706 016a 06       		.uleb128 0x6
 707 016b 79010000 		.4byte	.LASF30
 708 016f 06       		.byte	0x6
 709 0170 66       		.byte	0x66
 710 0171 70020000 		.4byte	0x270
 711 0175 02       		.byte	0x2
 712 0176 23       		.byte	0x23
 713 0177 10       		.uleb128 0x10
 714 0178 06       		.uleb128 0x6
 715 0179 DE020000 		.4byte	.LASF31
 716 017d 06       		.byte	0x6
 717 017e 67       		.byte	0x67
 718 017f 70020000 		.4byte	0x270
 719 0183 02       		.byte	0x2
 720 0184 23       		.byte	0x23
 721 0185 14       		.uleb128 0x14
 722 0186 06       		.uleb128 0x6
 723 0187 CC040000 		.4byte	.LASF32
 724 018b 06       		.byte	0x6
 725 018c 6E       		.byte	0x6e
 726 018d EA040000 		.4byte	0x4ea
 727 0191 02       		.byte	0x2
 728 0192 23       		.byte	0x23
 729 0193 18       		.uleb128 0x18
 730 0194 06       		.uleb128 0x6
 731 0195 5A030000 		.4byte	.LASF33
 732 0199 06       		.byte	0x6
 733 019a 79       		.byte	0x79
ARM GAS  /var/folders/ng/s8655sgx1ys_4lf9jzm2w6n00000gn/T//ccmm4r0w.s 			page 14


 734 019b CE000000 		.4byte	0xce
 735 019f 02       		.byte	0x2
 736 01a0 23       		.byte	0x23
 737 01a1 1C       		.uleb128 0x1c
 738 01a2 06       		.uleb128 0x6
 739 01a3 7A030000 		.4byte	.LASF34
 740 01a7 06       		.byte	0x6
 741 01a8 7D       		.byte	0x7d
 742 01a9 C3000000 		.4byte	0xc3
 743 01ad 02       		.byte	0x2
 744 01ae 23       		.byte	0x23
 745 01af 1D       		.uleb128 0x1d
 746 01b0 06       		.uleb128 0x6
 747 01b1 EF020000 		.4byte	.LASF35
 748 01b5 06       		.byte	0x6
 749 01b6 82       		.byte	0x82
 750 01b7 D9000000 		.4byte	0xd9
 751 01bb 02       		.byte	0x2
 752 01bc 23       		.byte	0x23
 753 01bd 1E       		.uleb128 0x1e
 754 01be 06       		.uleb128 0x6
 755 01bf 62030000 		.4byte	.LASF36
 756 01c3 06       		.byte	0x6
 757 01c4 88       		.byte	0x88
 758 01c5 E4000000 		.4byte	0xe4
 759 01c9 02       		.byte	0x2
 760 01ca 23       		.byte	0x23
 761 01cb 1F       		.uleb128 0x1f
 762 01cc 06       		.uleb128 0x6
 763 01cd 20040000 		.4byte	.LASF37
 764 01d1 06       		.byte	0x6
 765 01d2 8F       		.byte	0x8f
 766 01d3 68040000 		.4byte	0x468
 767 01d7 02       		.byte	0x2
 768 01d8 23       		.byte	0x23
 769 01d9 20       		.uleb128 0x20
 770 01da 07       		.uleb128 0x7
 771 01db 705F7500 		.ascii	"p_u\000"
 772 01df 06       		.byte	0x6
 773 01e0 B4       		.byte	0xb4
 774 01e1 B5040000 		.4byte	0x4b5
 775 01e5 02       		.byte	0x2
 776 01e6 23       		.byte	0x23
 777 01e7 24       		.uleb128 0x24
 778 01e8 06       		.uleb128 0x6
 779 01e9 2C050000 		.4byte	.LASF38
 780 01ed 06       		.byte	0x6
 781 01ee B9       		.byte	0xb9
 782 01ef 98020000 		.4byte	0x298
 783 01f3 02       		.byte	0x2
 784 01f4 23       		.byte	0x23
 785 01f5 28       		.uleb128 0x28
 786 01f6 06       		.uleb128 0x6
 787 01f7 3F040000 		.4byte	.LASF39
 788 01fb 06       		.byte	0x6
 789 01fc BF       		.byte	0xbf
 790 01fd 76020000 		.4byte	0x276
ARM GAS  /var/folders/ng/s8655sgx1ys_4lf9jzm2w6n00000gn/T//ccmm4r0w.s 			page 15


 791 0201 02       		.byte	0x2
 792 0202 23       		.byte	0x23
 793 0203 2C       		.uleb128 0x2c
 794 0204 06       		.uleb128 0x6
 795 0205 F9040000 		.4byte	.LASF40
 796 0209 06       		.byte	0x6
 797 020a C3       		.byte	0xc3
 798 020b FA000000 		.4byte	0xfa
 799 020f 02       		.byte	0x2
 800 0210 23       		.byte	0x23
 801 0211 34       		.uleb128 0x34
 802 0212 06       		.uleb128 0x6
 803 0213 96030000 		.4byte	.LASF41
 804 0217 06       		.byte	0x6
 805 0218 C9       		.byte	0xc9
 806 0219 05010000 		.4byte	0x105
 807 021d 02       		.byte	0x2
 808 021e 23       		.byte	0x23
 809 021f 38       		.uleb128 0x38
 810 0220 06       		.uleb128 0x6
 811 0221 46030000 		.4byte	.LASF42
 812 0225 06       		.byte	0x6
 813 0226 D0       		.byte	0xd0
 814 0227 FC040000 		.4byte	0x4fc
 815 022b 02       		.byte	0x2
 816 022c 23       		.byte	0x23
 817 022d 3C       		.uleb128 0x3c
 818 022e 06       		.uleb128 0x6
 819 022f 15040000 		.4byte	.LASF43
 820 0233 06       		.byte	0x6
 821 0234 D4       		.byte	0xd4
 822 0235 EF000000 		.4byte	0xef
 823 0239 02       		.byte	0x2
 824 023a 23       		.byte	0x23
 825 023b 40       		.uleb128 0x40
 826 023c 06       		.uleb128 0x6
 827 023d D7000000 		.4byte	.LASF44
 828 0241 06       		.byte	0x6
 829 0242 DA       		.byte	0xda
 830 0243 AE020000 		.4byte	0x2ae
 831 0247 02       		.byte	0x2
 832 0248 23       		.byte	0x23
 833 0249 44       		.uleb128 0x44
 834 024a 00       		.byte	0
 835 024b 08       		.uleb128 0x8
 836 024c 08       		.byte	0x8
 837 024d 05       		.byte	0x5
 838 024e 61       		.byte	0x61
 839 024f 70020000 		.4byte	0x270
 840 0253 06       		.uleb128 0x6
 841 0254 73030000 		.4byte	.LASF26
 842 0258 05       		.byte	0x5
 843 0259 62       		.byte	0x62
 844 025a 70020000 		.4byte	0x270
 845 025e 02       		.byte	0x2
 846 025f 23       		.byte	0x23
 847 0260 00       		.uleb128 0
ARM GAS  /var/folders/ng/s8655sgx1ys_4lf9jzm2w6n00000gn/T//ccmm4r0w.s 			page 16


 848 0261 06       		.uleb128 0x6
 849 0262 0C030000 		.4byte	.LASF27
 850 0266 05       		.byte	0x5
 851 0267 64       		.byte	0x64
 852 0268 70020000 		.4byte	0x270
 853 026c 02       		.byte	0x2
 854 026d 23       		.byte	0x23
 855 026e 04       		.uleb128 0x4
 856 026f 00       		.byte	0
 857 0270 09       		.uleb128 0x9
 858 0271 04       		.byte	0x4
 859 0272 1B010000 		.4byte	0x11b
 860 0276 03       		.uleb128 0x3
 861 0277 3E000000 		.4byte	.LASF45
 862 027b 05       		.byte	0x5
 863 027c 66       		.byte	0x66
 864 027d 4B020000 		.4byte	0x24b
 865 0281 08       		.uleb128 0x8
 866 0282 04       		.byte	0x4
 867 0283 05       		.byte	0x5
 868 0284 6B       		.byte	0x6b
 869 0285 98020000 		.4byte	0x298
 870 0289 06       		.uleb128 0x6
 871 028a 73030000 		.4byte	.LASF26
 872 028e 05       		.byte	0x5
 873 028f 6D       		.byte	0x6d
 874 0290 70020000 		.4byte	0x270
 875 0294 02       		.byte	0x2
 876 0295 23       		.byte	0x23
 877 0296 00       		.uleb128 0
 878 0297 00       		.byte	0
 879 0298 03       		.uleb128 0x3
 880 0299 60020000 		.4byte	.LASF46
 881 029d 05       		.byte	0x5
 882 029e 70       		.byte	0x70
 883 029f 81020000 		.4byte	0x281
 884 02a3 03       		.uleb128 0x3
 885 02a4 AD010000 		.4byte	.LASF47
 886 02a8 07       		.byte	0x7
 887 02a9 E5       		.byte	0xe5
 888 02aa AE020000 		.4byte	0x2ae
 889 02ae 0A       		.uleb128 0xa
 890 02af 04       		.byte	0x4
 891 02b0 03       		.uleb128 0x3
 892 02b1 9A020000 		.4byte	.LASF48
 893 02b5 07       		.byte	0x7
 894 02b6 EB       		.byte	0xeb
 895 02b7 9F000000 		.4byte	0x9f
 896 02bb 0B       		.uleb128 0xb
 897 02bc 38040000 		.4byte	.LASF49
 898 02c0 64       		.byte	0x64
 899 02c1 07       		.byte	0x7
 900 02c2 0C01     		.2byte	0x10c
 901 02c4 39040000 		.4byte	0x439
 902 02c8 0C       		.uleb128 0xc
 903 02c9 73313600 		.ascii	"s16\000"
 904 02cd 07       		.byte	0x7
ARM GAS  /var/folders/ng/s8655sgx1ys_4lf9jzm2w6n00000gn/T//ccmm4r0w.s 			page 17


 905 02ce 0E01     		.2byte	0x10e
 906 02d0 A3020000 		.4byte	0x2a3
 907 02d4 02       		.byte	0x2
 908 02d5 23       		.byte	0x23
 909 02d6 00       		.uleb128 0
 910 02d7 0C       		.uleb128 0xc
 911 02d8 73313700 		.ascii	"s17\000"
 912 02dc 07       		.byte	0x7
 913 02dd 0F01     		.2byte	0x10f
 914 02df A3020000 		.4byte	0x2a3
 915 02e3 02       		.byte	0x2
 916 02e4 23       		.byte	0x23
 917 02e5 04       		.uleb128 0x4
 918 02e6 0C       		.uleb128 0xc
 919 02e7 73313800 		.ascii	"s18\000"
 920 02eb 07       		.byte	0x7
 921 02ec 1001     		.2byte	0x110
 922 02ee A3020000 		.4byte	0x2a3
 923 02f2 02       		.byte	0x2
 924 02f3 23       		.byte	0x23
 925 02f4 08       		.uleb128 0x8
 926 02f5 0C       		.uleb128 0xc
 927 02f6 73313900 		.ascii	"s19\000"
 928 02fa 07       		.byte	0x7
 929 02fb 1101     		.2byte	0x111
 930 02fd A3020000 		.4byte	0x2a3
 931 0301 02       		.byte	0x2
 932 0302 23       		.byte	0x23
 933 0303 0C       		.uleb128 0xc
 934 0304 0C       		.uleb128 0xc
 935 0305 73323000 		.ascii	"s20\000"
 936 0309 07       		.byte	0x7
 937 030a 1201     		.2byte	0x112
 938 030c A3020000 		.4byte	0x2a3
 939 0310 02       		.byte	0x2
 940 0311 23       		.byte	0x23
 941 0312 10       		.uleb128 0x10
 942 0313 0C       		.uleb128 0xc
 943 0314 73323100 		.ascii	"s21\000"
 944 0318 07       		.byte	0x7
 945 0319 1301     		.2byte	0x113
 946 031b A3020000 		.4byte	0x2a3
 947 031f 02       		.byte	0x2
 948 0320 23       		.byte	0x23
 949 0321 14       		.uleb128 0x14
 950 0322 0C       		.uleb128 0xc
 951 0323 73323200 		.ascii	"s22\000"
 952 0327 07       		.byte	0x7
 953 0328 1401     		.2byte	0x114
 954 032a A3020000 		.4byte	0x2a3
 955 032e 02       		.byte	0x2
 956 032f 23       		.byte	0x23
 957 0330 18       		.uleb128 0x18
 958 0331 0C       		.uleb128 0xc
 959 0332 73323300 		.ascii	"s23\000"
 960 0336 07       		.byte	0x7
 961 0337 1501     		.2byte	0x115
ARM GAS  /var/folders/ng/s8655sgx1ys_4lf9jzm2w6n00000gn/T//ccmm4r0w.s 			page 18


 962 0339 A3020000 		.4byte	0x2a3
 963 033d 02       		.byte	0x2
 964 033e 23       		.byte	0x23
 965 033f 1C       		.uleb128 0x1c
 966 0340 0C       		.uleb128 0xc
 967 0341 73323400 		.ascii	"s24\000"
 968 0345 07       		.byte	0x7
 969 0346 1601     		.2byte	0x116
 970 0348 A3020000 		.4byte	0x2a3
 971 034c 02       		.byte	0x2
 972 034d 23       		.byte	0x23
 973 034e 20       		.uleb128 0x20
 974 034f 0C       		.uleb128 0xc
 975 0350 73323500 		.ascii	"s25\000"
 976 0354 07       		.byte	0x7
 977 0355 1701     		.2byte	0x117
 978 0357 A3020000 		.4byte	0x2a3
 979 035b 02       		.byte	0x2
 980 035c 23       		.byte	0x23
 981 035d 24       		.uleb128 0x24
 982 035e 0C       		.uleb128 0xc
 983 035f 73323600 		.ascii	"s26\000"
 984 0363 07       		.byte	0x7
 985 0364 1801     		.2byte	0x118
 986 0366 A3020000 		.4byte	0x2a3
 987 036a 02       		.byte	0x2
 988 036b 23       		.byte	0x23
 989 036c 28       		.uleb128 0x28
 990 036d 0C       		.uleb128 0xc
 991 036e 73323700 		.ascii	"s27\000"
 992 0372 07       		.byte	0x7
 993 0373 1901     		.2byte	0x119
 994 0375 A3020000 		.4byte	0x2a3
 995 0379 02       		.byte	0x2
 996 037a 23       		.byte	0x23
 997 037b 2C       		.uleb128 0x2c
 998 037c 0C       		.uleb128 0xc
 999 037d 73323800 		.ascii	"s28\000"
 1000 0381 07       		.byte	0x7
 1001 0382 1A01     		.2byte	0x11a
 1002 0384 A3020000 		.4byte	0x2a3
 1003 0388 02       		.byte	0x2
 1004 0389 23       		.byte	0x23
 1005 038a 30       		.uleb128 0x30
 1006 038b 0C       		.uleb128 0xc
 1007 038c 73323900 		.ascii	"s29\000"
 1008 0390 07       		.byte	0x7
 1009 0391 1B01     		.2byte	0x11b
 1010 0393 A3020000 		.4byte	0x2a3
 1011 0397 02       		.byte	0x2
 1012 0398 23       		.byte	0x23
 1013 0399 34       		.uleb128 0x34
 1014 039a 0C       		.uleb128 0xc
 1015 039b 73333000 		.ascii	"s30\000"
 1016 039f 07       		.byte	0x7
 1017 03a0 1C01     		.2byte	0x11c
 1018 03a2 A3020000 		.4byte	0x2a3
ARM GAS  /var/folders/ng/s8655sgx1ys_4lf9jzm2w6n00000gn/T//ccmm4r0w.s 			page 19


 1019 03a6 02       		.byte	0x2
 1020 03a7 23       		.byte	0x23
 1021 03a8 38       		.uleb128 0x38
 1022 03a9 0C       		.uleb128 0xc
 1023 03aa 73333100 		.ascii	"s31\000"
 1024 03ae 07       		.byte	0x7
 1025 03af 1D01     		.2byte	0x11d
 1026 03b1 A3020000 		.4byte	0x2a3
 1027 03b5 02       		.byte	0x2
 1028 03b6 23       		.byte	0x23
 1029 03b7 3C       		.uleb128 0x3c
 1030 03b8 0C       		.uleb128 0xc
 1031 03b9 723400   		.ascii	"r4\000"
 1032 03bc 07       		.byte	0x7
 1033 03bd 1F01     		.2byte	0x11f
 1034 03bf A3020000 		.4byte	0x2a3
 1035 03c3 02       		.byte	0x2
 1036 03c4 23       		.byte	0x23
 1037 03c5 40       		.uleb128 0x40
 1038 03c6 0C       		.uleb128 0xc
 1039 03c7 723500   		.ascii	"r5\000"
 1040 03ca 07       		.byte	0x7
 1041 03cb 2001     		.2byte	0x120
 1042 03cd A3020000 		.4byte	0x2a3
 1043 03d1 02       		.byte	0x2
 1044 03d2 23       		.byte	0x23
 1045 03d3 44       		.uleb128 0x44
 1046 03d4 0C       		.uleb128 0xc
 1047 03d5 723600   		.ascii	"r6\000"
 1048 03d8 07       		.byte	0x7
 1049 03d9 2101     		.2byte	0x121
 1050 03db A3020000 		.4byte	0x2a3
 1051 03df 02       		.byte	0x2
 1052 03e0 23       		.byte	0x23
 1053 03e1 48       		.uleb128 0x48
 1054 03e2 0C       		.uleb128 0xc
 1055 03e3 723700   		.ascii	"r7\000"
 1056 03e6 07       		.byte	0x7
 1057 03e7 2201     		.2byte	0x122
 1058 03e9 A3020000 		.4byte	0x2a3
 1059 03ed 02       		.byte	0x2
 1060 03ee 23       		.byte	0x23
 1061 03ef 4C       		.uleb128 0x4c
 1062 03f0 0C       		.uleb128 0xc
 1063 03f1 723800   		.ascii	"r8\000"
 1064 03f4 07       		.byte	0x7
 1065 03f5 2301     		.2byte	0x123
 1066 03f7 A3020000 		.4byte	0x2a3
 1067 03fb 02       		.byte	0x2
 1068 03fc 23       		.byte	0x23
 1069 03fd 50       		.uleb128 0x50
 1070 03fe 0C       		.uleb128 0xc
 1071 03ff 723900   		.ascii	"r9\000"
 1072 0402 07       		.byte	0x7
 1073 0403 2401     		.2byte	0x124
 1074 0405 A3020000 		.4byte	0x2a3
 1075 0409 02       		.byte	0x2
ARM GAS  /var/folders/ng/s8655sgx1ys_4lf9jzm2w6n00000gn/T//ccmm4r0w.s 			page 20


 1076 040a 23       		.byte	0x23
 1077 040b 54       		.uleb128 0x54
 1078 040c 0C       		.uleb128 0xc
 1079 040d 72313000 		.ascii	"r10\000"
 1080 0411 07       		.byte	0x7
 1081 0412 2501     		.2byte	0x125
 1082 0414 A3020000 		.4byte	0x2a3
 1083 0418 02       		.byte	0x2
 1084 0419 23       		.byte	0x23
 1085 041a 58       		.uleb128 0x58
 1086 041b 0C       		.uleb128 0xc
 1087 041c 72313100 		.ascii	"r11\000"
 1088 0420 07       		.byte	0x7
 1089 0421 2601     		.2byte	0x126
 1090 0423 A3020000 		.4byte	0x2a3
 1091 0427 02       		.byte	0x2
 1092 0428 23       		.byte	0x23
 1093 0429 5C       		.uleb128 0x5c
 1094 042a 0C       		.uleb128 0xc
 1095 042b 6C7200   		.ascii	"lr\000"
 1096 042e 07       		.byte	0x7
 1097 042f 2701     		.2byte	0x127
 1098 0431 A3020000 		.4byte	0x2a3
 1099 0435 02       		.byte	0x2
 1100 0436 23       		.byte	0x23
 1101 0437 60       		.uleb128 0x60
 1102 0438 00       		.byte	0
 1103 0439 0B       		.uleb128 0xb
 1104 043a 0E020000 		.4byte	.LASF50
 1105 043e 04       		.byte	0x4
 1106 043f 07       		.byte	0x7
 1107 0440 3101     		.2byte	0x131
 1108 0442 56040000 		.4byte	0x456
 1109 0446 0C       		.uleb128 0xc
 1110 0447 72313300 		.ascii	"r13\000"
 1111 044b 07       		.byte	0x7
 1112 044c 3201     		.2byte	0x132
 1113 044e 56040000 		.4byte	0x456
 1114 0452 02       		.byte	0x2
 1115 0453 23       		.byte	0x23
 1116 0454 00       		.uleb128 0
 1117 0455 00       		.byte	0
 1118 0456 09       		.uleb128 0x9
 1119 0457 04       		.byte	0x4
 1120 0458 BB020000 		.4byte	0x2bb
 1121 045c 0D       		.uleb128 0xd
 1122 045d 86000000 		.4byte	0x86
 1123 0461 04       		.uleb128 0x4
 1124 0462 04       		.byte	0x4
 1125 0463 07       		.byte	0x7
 1126 0464 CB020000 		.4byte	.LASF51
 1127 0468 0D       		.uleb128 0xd
 1128 0469 10010000 		.4byte	0x110
 1129 046d 05       		.uleb128 0x5
 1130 046e 85020000 		.4byte	.LASF52
 1131 0472 10       		.byte	0x10
 1132 0473 08       		.byte	0x8
ARM GAS  /var/folders/ng/s8655sgx1ys_4lf9jzm2w6n00000gn/T//ccmm4r0w.s 			page 21


 1133 0474 2C       		.byte	0x2c
 1134 0475 A4040000 		.4byte	0x4a4
 1135 0479 06       		.uleb128 0x6
 1136 047a 6C000000 		.4byte	.LASF53
 1137 047e 08       		.byte	0x8
 1138 047f 2D       		.byte	0x2d
 1139 0480 76020000 		.4byte	0x276
 1140 0484 02       		.byte	0x2
 1141 0485 23       		.byte	0x23
 1142 0486 00       		.uleb128 0
 1143 0487 06       		.uleb128 0x6
 1144 0488 13050000 		.4byte	.LASF54
 1145 048c 08       		.byte	0x8
 1146 048d 2F       		.byte	0x2f
 1147 048e 70020000 		.4byte	0x270
 1148 0492 02       		.byte	0x2
 1149 0493 23       		.byte	0x23
 1150 0494 08       		.uleb128 0x8
 1151 0495 06       		.uleb128 0x6
 1152 0496 04040000 		.4byte	.LASF55
 1153 049a 08       		.byte	0x8
 1154 049b 31       		.byte	0x31
 1155 049c A4040000 		.4byte	0x4a4
 1156 04a0 02       		.byte	0x2
 1157 04a1 23       		.byte	0x23
 1158 04a2 0C       		.uleb128 0xc
 1159 04a3 00       		.byte	0
 1160 04a4 09       		.uleb128 0x9
 1161 04a5 04       		.byte	0x4
 1162 04a6 6D040000 		.4byte	0x46d
 1163 04aa 03       		.uleb128 0x3
 1164 04ab 85020000 		.4byte	.LASF52
 1165 04af 08       		.byte	0x8
 1166 04b0 33       		.byte	0x33
 1167 04b1 6D040000 		.4byte	0x46d
 1168 04b5 0E       		.uleb128 0xe
 1169 04b6 04       		.byte	0x4
 1170 04b7 06       		.byte	0x6
 1171 04b8 96       		.byte	0x96
 1172 04b9 EA040000 		.4byte	0x4ea
 1173 04bd 0F       		.uleb128 0xf
 1174 04be 21000000 		.4byte	.LASF56
 1175 04c2 06       		.byte	0x6
 1176 04c3 9D       		.byte	0x9d
 1177 04c4 FA000000 		.4byte	0xfa
 1178 04c8 0F       		.uleb128 0xf
 1179 04c9 81010000 		.4byte	.LASF57
 1180 04cd 06       		.byte	0x6
 1181 04ce A4       		.byte	0xa4
 1182 04cf FA000000 		.4byte	0xfa
 1183 04d3 0F       		.uleb128 0xf
 1184 04d4 C5040000 		.4byte	.LASF58
 1185 04d8 06       		.byte	0x6
 1186 04d9 AB       		.byte	0xab
 1187 04da AE020000 		.4byte	0x2ae
 1188 04de 0F       		.uleb128 0xf
 1189 04df 6C030000 		.4byte	.LASF59
ARM GAS  /var/folders/ng/s8655sgx1ys_4lf9jzm2w6n00000gn/T//ccmm4r0w.s 			page 22


 1190 04e3 06       		.byte	0x6
 1191 04e4 B2       		.byte	0xb2
 1192 04e5 05010000 		.4byte	0x105
 1193 04e9 00       		.byte	0
 1194 04ea 09       		.uleb128 0x9
 1195 04eb 04       		.byte	0x4
 1196 04ec F0040000 		.4byte	0x4f0
 1197 04f0 10       		.uleb128 0x10
 1198 04f1 F5040000 		.4byte	0x4f5
 1199 04f5 04       		.uleb128 0x4
 1200 04f6 01       		.byte	0x1
 1201 04f7 08       		.byte	0x8
 1202 04f8 E4030000 		.4byte	.LASF60
 1203 04fc 09       		.uleb128 0x9
 1204 04fd 04       		.byte	0x4
 1205 04fe AA040000 		.4byte	0x4aa
 1206 0502 03       		.uleb128 0x3
 1207 0503 00000000 		.4byte	.LASF61
 1208 0507 06       		.byte	0x6
 1209 0508 E5       		.byte	0xe5
 1210 0509 0D050000 		.4byte	0x50d
 1211 050d 09       		.uleb128 0x9
 1212 050e 04       		.byte	0x4
 1213 050f 13050000 		.4byte	0x513
 1214 0513 11       		.uleb128 0x11
 1215 0514 01       		.byte	0x1
 1216 0515 FA000000 		.4byte	0xfa
 1217 0519 23050000 		.4byte	0x523
 1218 051d 12       		.uleb128 0x12
 1219 051e AE020000 		.4byte	0x2ae
 1220 0522 00       		.byte	0
 1221 0523 13       		.uleb128 0x13
 1222 0524 86000000 		.4byte	0x86
 1223 0528 33050000 		.4byte	0x533
 1224 052c 14       		.uleb128 0x14
 1225 052d 61040000 		.4byte	0x461
 1226 0531 03       		.byte	0x3
 1227 0532 00       		.byte	0
 1228 0533 0D       		.uleb128 0xd
 1229 0534 74000000 		.4byte	0x74
 1230 0538 15       		.uleb128 0x15
 1231 0539 01       		.byte	0x1
 1232 053a 09       		.byte	0x9
 1233 053b 55       		.byte	0x55
 1234 053c 53050000 		.4byte	0x553
 1235 0540 16       		.uleb128 0x16
 1236 0541 08050000 		.4byte	.LASF62
 1237 0545 00       		.sleb128 0
 1238 0546 16       		.uleb128 0x16
 1239 0547 DB030000 		.4byte	.LASF63
 1240 054b 01       		.sleb128 1
 1241 054c 16       		.uleb128 0x16
 1242 054d 7B000000 		.4byte	.LASF64
 1243 0551 02       		.sleb128 2
 1244 0552 00       		.byte	0
 1245 0553 03       		.uleb128 0x3
 1246 0554 AA040000 		.4byte	.LASF65
ARM GAS  /var/folders/ng/s8655sgx1ys_4lf9jzm2w6n00000gn/T//ccmm4r0w.s 			page 23


 1247 0558 09       		.byte	0x9
 1248 0559 59       		.byte	0x59
 1249 055a 38050000 		.4byte	0x538
 1250 055e 03       		.uleb128 0x3
 1251 055f A0040000 		.4byte	.LASF66
 1252 0563 09       		.byte	0x9
 1253 0564 5E       		.byte	0x5e
 1254 0565 69050000 		.4byte	0x569
 1255 0569 0B       		.uleb128 0xb
 1256 056a A0040000 		.4byte	.LASF66
 1257 056e 14       		.byte	0x14
 1258 056f 0A       		.byte	0xa
 1259 0570 6F01     		.2byte	0x16f
 1260 0572 C2050000 		.4byte	0x5c2
 1261 0576 17       		.uleb128 0x17
 1262 0577 45010000 		.4byte	.LASF67
 1263 057b 0A       		.byte	0xa
 1264 057c 7301     		.2byte	0x173
 1265 057e 53050000 		.4byte	0x553
 1266 0582 02       		.byte	0x2
 1267 0583 23       		.byte	0x23
 1268 0584 00       		.uleb128 0
 1269 0585 17       		.uleb128 0x17
 1270 0586 F3030000 		.4byte	.LASF68
 1271 058a 0A       		.byte	0xa
 1272 058b 7701     		.2byte	0x177
 1273 058d 20080000 		.4byte	0x820
 1274 0591 02       		.byte	0x2
 1275 0592 23       		.byte	0x23
 1276 0593 04       		.uleb128 0x4
 1277 0594 17       		.uleb128 0x17
 1278 0595 37000000 		.4byte	.LASF69
 1279 0599 0A       		.byte	0xa
 1280 059a 7B01     		.2byte	0x17b
 1281 059c 51070000 		.4byte	0x751
 1282 05a0 02       		.byte	0x2
 1283 05a1 23       		.byte	0x23
 1284 05a2 08       		.uleb128 0x8
 1285 05a3 17       		.uleb128 0x17
 1286 05a4 F3040000 		.4byte	.LASF70
 1287 05a8 0A       		.byte	0xa
 1288 05a9 8301     		.2byte	0x183
 1289 05ab 86000000 		.4byte	0x86
 1290 05af 02       		.byte	0x2
 1291 05b0 23       		.byte	0x23
 1292 05b1 0C       		.uleb128 0xc
 1293 05b2 0C       		.uleb128 0xc
 1294 05b3 74696D00 		.ascii	"tim\000"
 1295 05b7 0A       		.byte	0xa
 1296 05b8 8701     		.2byte	0x187
 1297 05ba 2B080000 		.4byte	0x82b
 1298 05be 02       		.byte	0x2
 1299 05bf 23       		.byte	0x23
 1300 05c0 10       		.uleb128 0x10
 1301 05c1 00       		.byte	0
 1302 05c2 03       		.uleb128 0x3
 1303 05c3 F6020000 		.4byte	.LASF71
ARM GAS  /var/folders/ng/s8655sgx1ys_4lf9jzm2w6n00000gn/T//ccmm4r0w.s 			page 24


 1304 05c7 09       		.byte	0x9
 1305 05c8 65       		.byte	0x65
 1306 05c9 CD050000 		.4byte	0x5cd
 1307 05cd 09       		.uleb128 0x9
 1308 05ce 04       		.byte	0x4
 1309 05cf D3050000 		.4byte	0x5d3
 1310 05d3 18       		.uleb128 0x18
 1311 05d4 01       		.byte	0x1
 1312 05d5 DF050000 		.4byte	0x5df
 1313 05d9 12       		.uleb128 0x12
 1314 05da DF050000 		.4byte	0x5df
 1315 05de 00       		.byte	0
 1316 05df 09       		.uleb128 0x9
 1317 05e0 04       		.byte	0x4
 1318 05e1 5E050000 		.4byte	0x55e
 1319 05e5 19       		.uleb128 0x19
 1320 05e6 60       		.byte	0x60
 1321 05e7 0B       		.byte	0xb
 1322 05e8 9E01     		.2byte	0x19e
 1323 05ea 28070000 		.4byte	0x728
 1324 05ee 0C       		.uleb128 0xc
 1325 05ef 43523100 		.ascii	"CR1\000"
 1326 05f3 0B       		.byte	0xb
 1327 05f4 9F01     		.2byte	0x19f
 1328 05f6 5C040000 		.4byte	0x45c
 1329 05fa 02       		.byte	0x2
 1330 05fb 23       		.byte	0x23
 1331 05fc 00       		.uleb128 0
 1332 05fd 0C       		.uleb128 0xc
 1333 05fe 43523200 		.ascii	"CR2\000"
 1334 0602 0B       		.byte	0xb
 1335 0603 A001     		.2byte	0x1a0
 1336 0605 5C040000 		.4byte	0x45c
 1337 0609 02       		.byte	0x2
 1338 060a 23       		.byte	0x23
 1339 060b 04       		.uleb128 0x4
 1340 060c 17       		.uleb128 0x17
 1341 060d EE030000 		.4byte	.LASF72
 1342 0611 0B       		.byte	0xb
 1343 0612 A101     		.2byte	0x1a1
 1344 0614 5C040000 		.4byte	0x45c
 1345 0618 02       		.byte	0x2
 1346 0619 23       		.byte	0x23
 1347 061a 08       		.uleb128 0x8
 1348 061b 17       		.uleb128 0x17
 1349 061c 15000000 		.4byte	.LASF73
 1350 0620 0B       		.byte	0xb
 1351 0621 A201     		.2byte	0x1a2
 1352 0623 5C040000 		.4byte	0x45c
 1353 0627 02       		.byte	0x2
 1354 0628 23       		.byte	0x23
 1355 0629 0C       		.uleb128 0xc
 1356 062a 0C       		.uleb128 0xc
 1357 062b 535200   		.ascii	"SR\000"
 1358 062e 0B       		.byte	0xb
 1359 062f A301     		.2byte	0x1a3
 1360 0631 5C040000 		.4byte	0x45c
ARM GAS  /var/folders/ng/s8655sgx1ys_4lf9jzm2w6n00000gn/T//ccmm4r0w.s 			page 25


 1361 0635 02       		.byte	0x2
 1362 0636 23       		.byte	0x23
 1363 0637 10       		.uleb128 0x10
 1364 0638 0C       		.uleb128 0xc
 1365 0639 45475200 		.ascii	"EGR\000"
 1366 063d 0B       		.byte	0xb
 1367 063e A401     		.2byte	0x1a4
 1368 0640 5C040000 		.4byte	0x45c
 1369 0644 02       		.byte	0x2
 1370 0645 23       		.byte	0x23
 1371 0646 14       		.uleb128 0x14
 1372 0647 17       		.uleb128 0x17
 1373 0648 A7000000 		.4byte	.LASF74
 1374 064c 0B       		.byte	0xb
 1375 064d A501     		.2byte	0x1a5
 1376 064f 5C040000 		.4byte	0x45c
 1377 0653 02       		.byte	0x2
 1378 0654 23       		.byte	0x23
 1379 0655 18       		.uleb128 0x18
 1380 0656 17       		.uleb128 0x17
 1381 0657 AD000000 		.4byte	.LASF75
 1382 065b 0B       		.byte	0xb
 1383 065c A601     		.2byte	0x1a6
 1384 065e 5C040000 		.4byte	0x45c
 1385 0662 02       		.byte	0x2
 1386 0663 23       		.byte	0x23
 1387 0664 1C       		.uleb128 0x1c
 1388 0665 17       		.uleb128 0x17
 1389 0666 FF030000 		.4byte	.LASF76
 1390 066a 0B       		.byte	0xb
 1391 066b A701     		.2byte	0x1a7
 1392 066d 5C040000 		.4byte	0x45c
 1393 0671 02       		.byte	0x2
 1394 0672 23       		.byte	0x23
 1395 0673 20       		.uleb128 0x20
 1396 0674 0C       		.uleb128 0xc
 1397 0675 434E5400 		.ascii	"CNT\000"
 1398 0679 0B       		.byte	0xb
 1399 067a A801     		.2byte	0x1a8
 1400 067c 5C040000 		.4byte	0x45c
 1401 0680 02       		.byte	0x2
 1402 0681 23       		.byte	0x23
 1403 0682 24       		.uleb128 0x24
 1404 0683 0C       		.uleb128 0xc
 1405 0684 50534300 		.ascii	"PSC\000"
 1406 0688 0B       		.byte	0xb
 1407 0689 A901     		.2byte	0x1a9
 1408 068b 5C040000 		.4byte	0x45c
 1409 068f 02       		.byte	0x2
 1410 0690 23       		.byte	0x23
 1411 0691 28       		.uleb128 0x28
 1412 0692 0C       		.uleb128 0xc
 1413 0693 41525200 		.ascii	"ARR\000"
 1414 0697 0B       		.byte	0xb
 1415 0698 AA01     		.2byte	0x1aa
 1416 069a 5C040000 		.4byte	0x45c
 1417 069e 02       		.byte	0x2
ARM GAS  /var/folders/ng/s8655sgx1ys_4lf9jzm2w6n00000gn/T//ccmm4r0w.s 			page 26


 1418 069f 23       		.byte	0x23
 1419 06a0 2C       		.uleb128 0x2c
 1420 06a1 0C       		.uleb128 0xc
 1421 06a2 52435200 		.ascii	"RCR\000"
 1422 06a6 0B       		.byte	0xb
 1423 06a7 AB01     		.2byte	0x1ab
 1424 06a9 5C040000 		.4byte	0x45c
 1425 06ad 02       		.byte	0x2
 1426 06ae 23       		.byte	0x23
 1427 06af 30       		.uleb128 0x30
 1428 06b0 0C       		.uleb128 0xc
 1429 06b1 43435200 		.ascii	"CCR\000"
 1430 06b5 0B       		.byte	0xb
 1431 06b6 AC01     		.2byte	0x1ac
 1432 06b8 28070000 		.4byte	0x728
 1433 06bc 02       		.byte	0x2
 1434 06bd 23       		.byte	0x23
 1435 06be 34       		.uleb128 0x34
 1436 06bf 17       		.uleb128 0x17
 1437 06c0 5D000000 		.4byte	.LASF77
 1438 06c4 0B       		.byte	0xb
 1439 06c5 AD01     		.2byte	0x1ad
 1440 06c7 5C040000 		.4byte	0x45c
 1441 06cb 02       		.byte	0x2
 1442 06cc 23       		.byte	0x23
 1443 06cd 44       		.uleb128 0x44
 1444 06ce 0C       		.uleb128 0xc
 1445 06cf 44435200 		.ascii	"DCR\000"
 1446 06d3 0B       		.byte	0xb
 1447 06d4 AE01     		.2byte	0x1ae
 1448 06d6 5C040000 		.4byte	0x45c
 1449 06da 02       		.byte	0x2
 1450 06db 23       		.byte	0x23
 1451 06dc 48       		.uleb128 0x48
 1452 06dd 17       		.uleb128 0x17
 1453 06de FA030000 		.4byte	.LASF78
 1454 06e2 0B       		.byte	0xb
 1455 06e3 AF01     		.2byte	0x1af
 1456 06e5 5C040000 		.4byte	0x45c
 1457 06e9 02       		.byte	0x2
 1458 06ea 23       		.byte	0x23
 1459 06eb 4C       		.uleb128 0x4c
 1460 06ec 0C       		.uleb128 0xc
 1461 06ed 4F5200   		.ascii	"OR\000"
 1462 06f0 0B       		.byte	0xb
 1463 06f1 B001     		.2byte	0x1b0
 1464 06f3 5C040000 		.4byte	0x45c
 1465 06f7 02       		.byte	0x2
 1466 06f8 23       		.byte	0x23
 1467 06f9 50       		.uleb128 0x50
 1468 06fa 17       		.uleb128 0x17
 1469 06fb 31000000 		.4byte	.LASF79
 1470 06ff 0B       		.byte	0xb
 1471 0700 B101     		.2byte	0x1b1
 1472 0702 5C040000 		.4byte	0x45c
 1473 0706 02       		.byte	0x2
 1474 0707 23       		.byte	0x23
ARM GAS  /var/folders/ng/s8655sgx1ys_4lf9jzm2w6n00000gn/T//ccmm4r0w.s 			page 27


 1475 0708 54       		.uleb128 0x54
 1476 0709 17       		.uleb128 0x17
 1477 070a 69040000 		.4byte	.LASF80
 1478 070e 0B       		.byte	0xb
 1479 070f B201     		.2byte	0x1b2
 1480 0711 5C040000 		.4byte	0x45c
 1481 0715 02       		.byte	0x2
 1482 0716 23       		.byte	0x23
 1483 0717 58       		.uleb128 0x58
 1484 0718 17       		.uleb128 0x17
 1485 0719 6E040000 		.4byte	.LASF81
 1486 071d 0B       		.byte	0xb
 1487 071e B301     		.2byte	0x1b3
 1488 0720 5C040000 		.4byte	0x45c
 1489 0724 02       		.byte	0x2
 1490 0725 23       		.byte	0x23
 1491 0726 5C       		.uleb128 0x5c
 1492 0727 00       		.byte	0
 1493 0728 0D       		.uleb128 0xd
 1494 0729 23050000 		.4byte	0x523
 1495 072d 1A       		.uleb128 0x1a
 1496 072e CB000000 		.4byte	.LASF82
 1497 0732 0B       		.byte	0xb
 1498 0733 B401     		.2byte	0x1b4
 1499 0735 E5050000 		.4byte	0x5e5
 1500 0739 1A       		.uleb128 0x1a
 1501 073a E6000000 		.4byte	.LASF83
 1502 073e 0A       		.byte	0xa
 1503 073f 2001     		.2byte	0x120
 1504 0741 86000000 		.4byte	0x86
 1505 0745 1A       		.uleb128 0x1a
 1506 0746 08000000 		.4byte	.LASF84
 1507 074a 0A       		.byte	0xa
 1508 074b 2501     		.2byte	0x125
 1509 074d 49000000 		.4byte	0x49
 1510 0751 1A       		.uleb128 0x1a
 1511 0752 E6020000 		.4byte	.LASF85
 1512 0756 0A       		.byte	0xa
 1513 0757 2A01     		.2byte	0x12a
 1514 0759 62000000 		.4byte	0x62
 1515 075d 19       		.uleb128 0x19
 1516 075e 08       		.byte	0x8
 1517 075f 0A       		.byte	0xa
 1518 0760 2F01     		.2byte	0x12f
 1519 0762 85070000 		.4byte	0x785
 1520 0766 17       		.uleb128 0x17
 1521 0767 E9030000 		.4byte	.LASF86
 1522 076b 0A       		.byte	0xa
 1523 076c 3301     		.2byte	0x133
 1524 076e 39070000 		.4byte	0x739
 1525 0772 02       		.byte	0x2
 1526 0773 23       		.byte	0x23
 1527 0774 00       		.uleb128 0
 1528 0775 17       		.uleb128 0x17
 1529 0776 4F020000 		.4byte	.LASF87
 1530 077a 0A       		.byte	0xa
 1531 077b 3901     		.2byte	0x139
ARM GAS  /var/folders/ng/s8655sgx1ys_4lf9jzm2w6n00000gn/T//ccmm4r0w.s 			page 28


 1532 077d C2050000 		.4byte	0x5c2
 1533 0781 02       		.byte	0x2
 1534 0782 23       		.byte	0x23
 1535 0783 04       		.uleb128 0x4
 1536 0784 00       		.byte	0
 1537 0785 1A       		.uleb128 0x1a
 1538 0786 27040000 		.4byte	.LASF88
 1539 078a 0A       		.byte	0xa
 1540 078b 3B01     		.2byte	0x13b
 1541 078d 5D070000 		.4byte	0x75d
 1542 0791 19       		.uleb128 0x19
 1543 0792 38       		.byte	0x38
 1544 0793 0A       		.byte	0xa
 1545 0794 4001     		.2byte	0x140
 1546 0796 04080000 		.4byte	0x804
 1547 079a 17       		.uleb128 0x17
 1548 079b 62000000 		.4byte	.LASF89
 1549 079f 0A       		.byte	0xa
 1550 07a0 4601     		.2byte	0x146
 1551 07a2 86000000 		.4byte	0x86
 1552 07a6 02       		.byte	0x2
 1553 07a7 23       		.byte	0x23
 1554 07a8 00       		.uleb128 0
 1555 07a9 17       		.uleb128 0x17
 1556 07aa 37000000 		.4byte	.LASF69
 1557 07ae 0A       		.byte	0xa
 1558 07af 4C01     		.2byte	0x14c
 1559 07b1 51070000 		.4byte	0x751
 1560 07b5 02       		.byte	0x2
 1561 07b6 23       		.byte	0x23
 1562 07b7 04       		.uleb128 0x4
 1563 07b8 17       		.uleb128 0x17
 1564 07b9 4F020000 		.4byte	.LASF87
 1565 07bd 0A       		.byte	0xa
 1566 07be 5201     		.2byte	0x152
 1567 07c0 C2050000 		.4byte	0x5c2
 1568 07c4 02       		.byte	0x2
 1569 07c5 23       		.byte	0x23
 1570 07c6 08       		.uleb128 0x8
 1571 07c7 17       		.uleb128 0x17
 1572 07c8 4B010000 		.4byte	.LASF90
 1573 07cc 0A       		.byte	0xa
 1574 07cd 5601     		.2byte	0x156
 1575 07cf 04080000 		.4byte	0x804
 1576 07d3 02       		.byte	0x2
 1577 07d4 23       		.byte	0x23
 1578 07d5 0C       		.uleb128 0xc
 1579 07d6 0C       		.uleb128 0xc
 1580 07d7 63723200 		.ascii	"cr2\000"
 1581 07db 0A       		.byte	0xa
 1582 07dc 5C01     		.2byte	0x15c
 1583 07de 86000000 		.4byte	0x86
 1584 07e2 02       		.byte	0x2
 1585 07e3 23       		.byte	0x23
 1586 07e4 2C       		.uleb128 0x2c
 1587 07e5 17       		.uleb128 0x17
 1588 07e6 4B000000 		.4byte	.LASF91
ARM GAS  /var/folders/ng/s8655sgx1ys_4lf9jzm2w6n00000gn/T//ccmm4r0w.s 			page 29


 1589 07ea 0A       		.byte	0xa
 1590 07eb 6201     		.2byte	0x162
 1591 07ed 86000000 		.4byte	0x86
 1592 07f1 02       		.byte	0x2
 1593 07f2 23       		.byte	0x23
 1594 07f3 30       		.uleb128 0x30
 1595 07f4 17       		.uleb128 0x17
 1596 07f5 36050000 		.4byte	.LASF92
 1597 07f9 0A       		.byte	0xa
 1598 07fa 6901     		.2byte	0x169
 1599 07fc 86000000 		.4byte	0x86
 1600 0800 02       		.byte	0x2
 1601 0801 23       		.byte	0x23
 1602 0802 34       		.uleb128 0x34
 1603 0803 00       		.byte	0
 1604 0804 13       		.uleb128 0x13
 1605 0805 85070000 		.4byte	0x785
 1606 0809 14080000 		.4byte	0x814
 1607 080d 14       		.uleb128 0x14
 1608 080e 61040000 		.4byte	0x461
 1609 0812 03       		.byte	0x3
 1610 0813 00       		.byte	0
 1611 0814 1A       		.uleb128 0x1a
 1612 0815 B5030000 		.4byte	.LASF93
 1613 0819 0A       		.byte	0xa
 1614 081a 6A01     		.2byte	0x16a
 1615 081c 91070000 		.4byte	0x791
 1616 0820 09       		.uleb128 0x9
 1617 0821 04       		.byte	0x4
 1618 0822 26080000 		.4byte	0x826
 1619 0826 10       		.uleb128 0x10
 1620 0827 14080000 		.4byte	0x814
 1621 082b 09       		.uleb128 0x9
 1622 082c 04       		.byte	0x4
 1623 082d 2D070000 		.4byte	0x72d
 1624 0831 13       		.uleb128 0x13
 1625 0832 B0020000 		.4byte	0x2b0
 1626 0836 41080000 		.4byte	0x841
 1627 083a 14       		.uleb128 0x14
 1628 083b 61040000 		.4byte	0x461
 1629 083f 36       		.byte	0x36
 1630 0840 00       		.byte	0
 1631 0841 08       		.uleb128 0x8
 1632 0842 04       		.byte	0x4
 1633 0843 0C       		.byte	0xc
 1634 0844 04       		.byte	0x4
 1635 0845 66080000 		.4byte	0x866
 1636 0849 06       		.uleb128 0x6
 1637 084a 62000000 		.4byte	.LASF89
 1638 084e 0C       		.byte	0xc
 1639 084f 06       		.byte	0x6
 1640 0850 62000000 		.4byte	0x62
 1641 0854 02       		.byte	0x2
 1642 0855 23       		.byte	0x23
 1643 0856 00       		.uleb128 0
 1644 0857 06       		.uleb128 0x6
 1645 0858 B6010000 		.4byte	.LASF94
ARM GAS  /var/folders/ng/s8655sgx1ys_4lf9jzm2w6n00000gn/T//ccmm4r0w.s 			page 30


 1646 085c 0C       		.byte	0xc
 1647 085d 07       		.byte	0x7
 1648 085e 62000000 		.4byte	0x62
 1649 0862 02       		.byte	0x2
 1650 0863 23       		.byte	0x23
 1651 0864 02       		.uleb128 0x2
 1652 0865 00       		.byte	0
 1653 0866 03       		.uleb128 0x3
 1654 0867 37030000 		.4byte	.LASF95
 1655 086b 0C       		.byte	0xc
 1656 086c 08       		.byte	0x8
 1657 086d 41080000 		.4byte	0x841
 1658 0871 1B       		.uleb128 0x1b
 1659 0872 01       		.byte	0x1
 1660 0873 03020000 		.4byte	.LASF111
 1661 0877 01       		.byte	0x1
 1662 0878 19       		.byte	0x19
 1663 0879 01       		.byte	0x1
 1664 087a 01       		.byte	0x1
 1665 087b 96080000 		.4byte	0x896
 1666 087f 1C       		.uleb128 0x1c
 1667 0880 62000000 		.4byte	.LASF89
 1668 0884 01       		.byte	0x1
 1669 0885 19       		.byte	0x19
 1670 0886 62000000 		.4byte	0x62
 1671 088a 1C       		.uleb128 0x1c
 1672 088b B6010000 		.4byte	.LASF94
 1673 088f 01       		.byte	0x1
 1674 0890 19       		.byte	0x19
 1675 0891 62000000 		.4byte	0x62
 1676 0895 00       		.byte	0
 1677 0896 1D       		.uleb128 0x1d
 1678 0897 71080000 		.4byte	0x871
 1679 089b 00000000 		.4byte	.LFB119
 1680 089f 8C000000 		.4byte	.LFE119
 1681 08a3 00000000 		.4byte	.LLST0
 1682 08a7 01       		.byte	0x1
 1683 08a8 5D090000 		.4byte	0x95d
 1684 08ac 1E       		.uleb128 0x1e
 1685 08ad 7F080000 		.4byte	0x87f
 1686 08b1 20000000 		.4byte	.LLST1
 1687 08b5 1E       		.uleb128 0x1e
 1688 08b6 8A080000 		.4byte	0x88a
 1689 08ba 41000000 		.4byte	.LLST2
 1690 08be 1F       		.uleb128 0x1f
 1691 08bf 71080000 		.4byte	0x871
 1692 08c3 0C000000 		.4byte	.LBB4
 1693 08c7 00000000 		.4byte	.Ldebug_ranges0+0
 1694 08cb 01       		.byte	0x1
 1695 08cc 19       		.byte	0x19
 1696 08cd 1E       		.uleb128 0x1e
 1697 08ce 8A080000 		.4byte	0x88a
 1698 08d2 62000000 		.4byte	.LLST3
 1699 08d6 1E       		.uleb128 0x1e
 1700 08d7 7F080000 		.4byte	0x87f
 1701 08db 91000000 		.4byte	.LLST4
 1702 08df 20       		.uleb128 0x20
ARM GAS  /var/folders/ng/s8655sgx1ys_4lf9jzm2w6n00000gn/T//ccmm4r0w.s 			page 31


 1703 08e0 16000000 		.4byte	.LVL4
 1704 08e4 430C0000 		.4byte	0xc43
 1705 08e8 F8080000 		.4byte	0x8f8
 1706 08ec 21       		.uleb128 0x21
 1707 08ed 01       		.byte	0x1
 1708 08ee 51       		.byte	0x51
 1709 08ef 01       		.byte	0x1
 1710 08f0 31       		.byte	0x31
 1711 08f1 21       		.uleb128 0x21
 1712 08f2 01       		.byte	0x1
 1713 08f3 50       		.byte	0x50
 1714 08f4 02       		.byte	0x2
 1715 08f5 75       		.byte	0x75
 1716 08f6 00       		.sleb128 0
 1717 08f7 00       		.byte	0
 1718 08f8 20       		.uleb128 0x20
 1719 08f9 2E000000 		.4byte	.LVL6
 1720 08fd 5C0C0000 		.4byte	0xc5c
 1721 0901 15090000 		.4byte	0x915
 1722 0905 21       		.uleb128 0x21
 1723 0906 01       		.byte	0x1
 1724 0907 51       		.byte	0x51
 1725 0908 05       		.byte	0x5
 1726 0909 03       		.byte	0x3
 1727 090a 00000000 		.4byte	.LANCHOR0
 1728 090e 21       		.uleb128 0x21
 1729 090f 01       		.byte	0x1
 1730 0910 50       		.byte	0x50
 1731 0911 02       		.byte	0x2
 1732 0912 75       		.byte	0x75
 1733 0913 00       		.sleb128 0
 1734 0914 00       		.byte	0
 1735 0915 20       		.uleb128 0x20
 1736 0916 52000000 		.4byte	.LVL8
 1737 091a 750C0000 		.4byte	0xc75
 1738 091e 2E090000 		.4byte	0x92e
 1739 0922 21       		.uleb128 0x21
 1740 0923 01       		.byte	0x1
 1741 0924 51       		.byte	0x51
 1742 0925 01       		.byte	0x1
 1743 0926 31       		.byte	0x31
 1744 0927 21       		.uleb128 0x21
 1745 0928 01       		.byte	0x1
 1746 0929 50       		.byte	0x50
 1747 092a 02       		.byte	0x2
 1748 092b 75       		.byte	0x75
 1749 092c 00       		.sleb128 0
 1750 092d 00       		.byte	0
 1751 092e 22       		.uleb128 0x22
 1752 092f 72000000 		.4byte	.LVL10
 1753 0933 930C0000 		.4byte	0xc93
 1754 0937 20       		.uleb128 0x20
 1755 0938 78000000 		.4byte	.LVL11
 1756 093c A80C0000 		.4byte	0xca8
 1757 0940 4B090000 		.4byte	0x94b
 1758 0944 21       		.uleb128 0x21
 1759 0945 01       		.byte	0x1
ARM GAS  /var/folders/ng/s8655sgx1ys_4lf9jzm2w6n00000gn/T//ccmm4r0w.s 			page 32


 1760 0946 50       		.byte	0x50
 1761 0947 02       		.byte	0x2
 1762 0948 75       		.byte	0x75
 1763 0949 00       		.sleb128 0
 1764 094a 00       		.byte	0
 1765 094b 23       		.uleb128 0x23
 1766 094c 82000000 		.4byte	.LVL12
 1767 0950 01       		.byte	0x1
 1768 0951 930C0000 		.4byte	0xc93
 1769 0955 21       		.uleb128 0x21
 1770 0956 01       		.byte	0x1
 1771 0957 50       		.byte	0x50
 1772 0958 01       		.byte	0x1
 1773 0959 44       		.byte	0x44
 1774 095a 00       		.byte	0
 1775 095b 00       		.byte	0
 1776 095c 00       		.byte	0
 1777 095d 24       		.uleb128 0x24
 1778 095e F0000000 		.4byte	.LASF128
 1779 0962 01       		.byte	0x1
 1780 0963 27       		.byte	0x27
 1781 0964 01       		.byte	0x1
 1782 0965 FA000000 		.4byte	0xfa
 1783 0969 00000000 		.4byte	.LFB120
 1784 096d 4C000000 		.4byte	.LFE120
 1785 0971 AF000000 		.4byte	.LLST5
 1786 0975 01       		.byte	0x1
 1787 0976 E6090000 		.4byte	0x9e6
 1788 097a 25       		.uleb128 0x25
 1789 097b 61726700 		.ascii	"arg\000"
 1790 097f 01       		.byte	0x1
 1791 0980 27       		.byte	0x27
 1792 0981 AE020000 		.4byte	0x2ae
 1793 0985 CF000000 		.4byte	.LLST6
 1794 0989 26       		.uleb128 0x26
 1795 098a 06000000 		.4byte	.LBB8
 1796 098e 3E000000 		.4byte	.LBE8
 1797 0992 27       		.uleb128 0x27
 1798 0993 6900     		.ascii	"i\000"
 1799 0995 01       		.byte	0x1
 1800 0996 2E       		.byte	0x2e
 1801 0997 29000000 		.4byte	0x29
 1802 099b F0000000 		.4byte	.LLST7
 1803 099f 22       		.uleb128 0x22
 1804 09a0 0A000000 		.4byte	.LVL15
 1805 09a4 BC0C0000 		.4byte	0xcbc
 1806 09a8 20       		.uleb128 0x20
 1807 09a9 10000000 		.4byte	.LVL16
 1808 09ad CA0C0000 		.4byte	0xcca
 1809 09b1 BB090000 		.4byte	0x9bb
 1810 09b5 21       		.uleb128 0x21
 1811 09b6 01       		.byte	0x1
 1812 09b7 51       		.byte	0x51
 1813 09b8 01       		.byte	0x1
 1814 09b9 31       		.byte	0x31
 1815 09ba 00       		.byte	0
 1816 09bb 20       		.uleb128 0x20
ARM GAS  /var/folders/ng/s8655sgx1ys_4lf9jzm2w6n00000gn/T//ccmm4r0w.s 			page 33


 1817 09bc 16000000 		.4byte	.LVL17
 1818 09c0 E30C0000 		.4byte	0xce3
 1819 09c4 D2090000 		.4byte	0x9d2
 1820 09c8 21       		.uleb128 0x21
 1821 09c9 01       		.byte	0x1
 1822 09ca 50       		.byte	0x50
 1823 09cb 05       		.byte	0x5
 1824 09cc 03       		.byte	0x3
 1825 09cd 00000000 		.4byte	.LANCHOR1
 1826 09d1 00       		.byte	0
 1827 09d2 22       		.uleb128 0x22
 1828 09d3 32000000 		.4byte	.LVL19
 1829 09d7 71080000 		.4byte	0x871
 1830 09db 22       		.uleb128 0x22
 1831 09dc 3E000000 		.4byte	.LVL22
 1832 09e0 F70C0000 		.4byte	0xcf7
 1833 09e4 00       		.byte	0
 1834 09e5 00       		.byte	0
 1835 09e6 28       		.uleb128 0x28
 1836 09e7 01       		.byte	0x1
 1837 09e8 B7020000 		.4byte	.LASF96
 1838 09ec 01       		.byte	0x1
 1839 09ed 38       		.byte	0x38
 1840 09ee 01       		.byte	0x1
 1841 09ef 00000000 		.4byte	.LFB121
 1842 09f3 3C000000 		.4byte	.LFE121
 1843 09f7 0F010000 		.4byte	.LLST8
 1844 09fb 01       		.byte	0x1
 1845 09fc 470A0000 		.4byte	0xa47
 1846 0a00 20       		.uleb128 0x20
 1847 0a01 10000000 		.4byte	.LVL23
 1848 0a05 050D0000 		.4byte	0xd05
 1849 0a09 170A0000 		.4byte	0xa17
 1850 0a0d 21       		.uleb128 0x21
 1851 0a0e 01       		.byte	0x1
 1852 0a0f 50       		.byte	0x50
 1853 0a10 05       		.byte	0x5
 1854 0a11 03       		.byte	0x3
 1855 0a12 00000000 		.4byte	.LANCHOR1
 1856 0a16 00       		.byte	0
 1857 0a17 29       		.uleb128 0x29
 1858 0a18 2E000000 		.4byte	.LVL24
 1859 0a1c 190D0000 		.4byte	0xd19
 1860 0a20 21       		.uleb128 0x21
 1861 0a21 01       		.byte	0x1
 1862 0a22 53       		.byte	0x53
 1863 0a23 05       		.byte	0x5
 1864 0a24 03       		.byte	0x3
 1865 0a25 00000000 		.4byte	MusicThread
 1866 0a29 21       		.uleb128 0x21
 1867 0a2a 01       		.byte	0x1
 1868 0a2b 52       		.byte	0x52
 1869 0a2c 02       		.byte	0x2
 1870 0a2d 08       		.byte	0x8
 1871 0a2e 7F       		.byte	0x7f
 1872 0a2f 21       		.uleb128 0x21
 1873 0a30 01       		.byte	0x1
ARM GAS  /var/folders/ng/s8655sgx1ys_4lf9jzm2w6n00000gn/T//ccmm4r0w.s 			page 34


 1874 0a31 51       		.byte	0x51
 1875 0a32 03       		.byte	0x3
 1876 0a33 0A       		.byte	0xa
 1877 0a34 B801     		.2byte	0x1b8
 1878 0a36 21       		.uleb128 0x21
 1879 0a37 01       		.byte	0x1
 1880 0a38 50       		.byte	0x50
 1881 0a39 05       		.byte	0x5
 1882 0a3a 03       		.byte	0x3
 1883 0a3b 00000000 		.4byte	.LANCHOR4
 1884 0a3f 21       		.uleb128 0x21
 1885 0a40 02       		.byte	0x2
 1886 0a41 7D       		.byte	0x7d
 1887 0a42 00       		.sleb128 0
 1888 0a43 01       		.byte	0x1
 1889 0a44 30       		.byte	0x30
 1890 0a45 00       		.byte	0
 1891 0a46 00       		.byte	0
 1892 0a47 28       		.uleb128 0x28
 1893 0a48 01       		.byte	0x1
 1894 0a49 89040000 		.4byte	.LASF97
 1895 0a4d 01       		.byte	0x1
 1896 0a4e 3E       		.byte	0x3e
 1897 0a4f 01       		.byte	0x1
 1898 0a50 00000000 		.4byte	.LFB122
 1899 0a54 28000000 		.4byte	.LFE122
 1900 0a58 3B010000 		.4byte	.LLST9
 1901 0a5c 01       		.byte	0x1
 1902 0a5d AF0A0000 		.4byte	0xaaf
 1903 0a61 2A       		.uleb128 0x2a
 1904 0a62 41030000 		.4byte	.LASF98
 1905 0a66 01       		.byte	0x1
 1906 0a67 3E       		.byte	0x3e
 1907 0a68 66080000 		.4byte	0x866
 1908 0a6c 02       		.byte	0x2
 1909 0a6d 91       		.byte	0x91
 1910 0a6e 74       		.sleb128 -12
 1911 0a6f 20       		.uleb128 0x20
 1912 0a70 12000000 		.4byte	.LVL25
 1913 0a74 E30C0000 		.4byte	0xce3
 1914 0a78 860A0000 		.4byte	0xa86
 1915 0a7c 21       		.uleb128 0x21
 1916 0a7d 01       		.byte	0x1
 1917 0a7e 50       		.byte	0x50
 1918 0a7f 05       		.byte	0x5
 1919 0a80 03       		.byte	0x3
 1920 0a81 00000000 		.4byte	.LANCHOR1
 1921 0a85 00       		.byte	0
 1922 0a86 20       		.uleb128 0x20
 1923 0a87 1E000000 		.4byte	.LVL26
 1924 0a8b 71080000 		.4byte	0x871
 1925 0a8f A40A0000 		.4byte	0xaa4
 1926 0a93 21       		.uleb128 0x21
 1927 0a94 01       		.byte	0x1
 1928 0a95 51       		.byte	0x51
 1929 0a96 04       		.byte	0x4
 1930 0a97 91       		.byte	0x91
ARM GAS  /var/folders/ng/s8655sgx1ys_4lf9jzm2w6n00000gn/T//ccmm4r0w.s 			page 35


 1931 0a98 76       		.sleb128 -10
 1932 0a99 94       		.byte	0x94
 1933 0a9a 02       		.byte	0x2
 1934 0a9b 21       		.uleb128 0x21
 1935 0a9c 01       		.byte	0x1
 1936 0a9d 50       		.byte	0x50
 1937 0a9e 04       		.byte	0x4
 1938 0a9f 91       		.byte	0x91
 1939 0aa0 74       		.sleb128 -12
 1940 0aa1 94       		.byte	0x94
 1941 0aa2 02       		.byte	0x2
 1942 0aa3 00       		.byte	0
 1943 0aa4 2B       		.uleb128 0x2b
 1944 0aa5 28000000 		.4byte	.LVL27
 1945 0aa9 01       		.byte	0x1
 1946 0aaa F70C0000 		.4byte	0xcf7
 1947 0aae 00       		.byte	0
 1948 0aaf 28       		.uleb128 0x28
 1949 0ab0 01       		.byte	0x1
 1950 0ab1 B5040000 		.4byte	.LASF99
 1951 0ab5 01       		.byte	0x1
 1952 0ab6 45       		.byte	0x45
 1953 0ab7 01       		.byte	0x1
 1954 0ab8 00000000 		.4byte	.LFB123
 1955 0abc 6C000000 		.4byte	.LFE123
 1956 0ac0 67010000 		.4byte	.LLST10
 1957 0ac4 01       		.byte	0x1
 1958 0ac5 3A0B0000 		.4byte	0xb3a
 1959 0ac9 2C       		.uleb128 0x2c
 1960 0aca ED040000 		.4byte	.LASF100
 1961 0ace 01       		.byte	0x1
 1962 0acf 45       		.byte	0x45
 1963 0ad0 3A0B0000 		.4byte	0xb3a
 1964 0ad4 87010000 		.4byte	.LLST11
 1965 0ad8 2C       		.uleb128 0x2c
 1966 0ad9 FF040000 		.4byte	.LASF101
 1967 0add 01       		.byte	0x1
 1968 0ade 45       		.byte	0x45
 1969 0adf 29000000 		.4byte	0x29
 1970 0ae3 A5010000 		.4byte	.LLST12
 1971 0ae7 27       		.uleb128 0x27
 1972 0ae8 6900     		.ascii	"i\000"
 1973 0aea 01       		.byte	0x1
 1974 0aeb 48       		.byte	0x48
 1975 0aec 29000000 		.4byte	0x29
 1976 0af0 C3010000 		.4byte	.LLST13
 1977 0af4 20       		.uleb128 0x20
 1978 0af5 0E000000 		.4byte	.LVL30
 1979 0af9 E30C0000 		.4byte	0xce3
 1980 0afd 0B0B0000 		.4byte	0xb0b
 1981 0b01 21       		.uleb128 0x21
 1982 0b02 01       		.byte	0x1
 1983 0b03 50       		.byte	0x50
 1984 0b04 05       		.byte	0x5
 1985 0b05 03       		.byte	0x3
 1986 0b06 00000000 		.4byte	.LANCHOR1
 1987 0b0a 00       		.byte	0
ARM GAS  /var/folders/ng/s8655sgx1ys_4lf9jzm2w6n00000gn/T//ccmm4r0w.s 			page 36


 1988 0b0b 22       		.uleb128 0x22
 1989 0b0c 24000000 		.4byte	.LVL31
 1990 0b10 71080000 		.4byte	0x871
 1991 0b14 22       		.uleb128 0x22
 1992 0b15 3C000000 		.4byte	.LVL32
 1993 0b19 71080000 		.4byte	0x871
 1994 0b1d 22       		.uleb128 0x22
 1995 0b1e 4E000000 		.4byte	.LVL33
 1996 0b22 71080000 		.4byte	0x871
 1997 0b26 22       		.uleb128 0x22
 1998 0b27 5A000000 		.4byte	.LVL34
 1999 0b2b 71080000 		.4byte	0x871
 2000 0b2f 2B       		.uleb128 0x2b
 2001 0b30 68000000 		.4byte	.LVL35
 2002 0b34 01       		.byte	0x1
 2003 0b35 F70C0000 		.4byte	0xcf7
 2004 0b39 00       		.byte	0
 2005 0b3a 09       		.uleb128 0x9
 2006 0b3b 04       		.byte	0x4
 2007 0b3c 66080000 		.4byte	0x866
 2008 0b40 28       		.uleb128 0x28
 2009 0b41 01       		.byte	0x1
 2010 0b42 54040000 		.4byte	.LASF102
 2011 0b46 01       		.byte	0x1
 2012 0b47 50       		.byte	0x50
 2013 0b48 01       		.byte	0x1
 2014 0b49 00000000 		.4byte	.LFB124
 2015 0b4d 3C000000 		.4byte	.LFE124
 2016 0b51 D7010000 		.4byte	.LLST14
 2017 0b55 01       		.byte	0x1
 2018 0b56 AD0B0000 		.4byte	0xbad
 2019 0b5a 2C       		.uleb128 0x2c
 2020 0b5b ED040000 		.4byte	.LASF100
 2021 0b5f 01       		.byte	0x1
 2022 0b60 50       		.byte	0x50
 2023 0b61 3A0B0000 		.4byte	0xb3a
 2024 0b65 F7010000 		.4byte	.LLST15
 2025 0b69 2C       		.uleb128 0x2c
 2026 0b6a FF040000 		.4byte	.LASF101
 2027 0b6e 01       		.byte	0x1
 2028 0b6f 50       		.byte	0x50
 2029 0b70 29000000 		.4byte	0x29
 2030 0b74 15020000 		.4byte	.LLST16
 2031 0b78 20       		.uleb128 0x20
 2032 0b79 0C000000 		.4byte	.LVL38
 2033 0b7d 460D0000 		.4byte	0xd46
 2034 0b81 8F0B0000 		.4byte	0xb8f
 2035 0b85 21       		.uleb128 0x21
 2036 0b86 01       		.byte	0x1
 2037 0b87 50       		.byte	0x50
 2038 0b88 05       		.byte	0x5
 2039 0b89 03       		.byte	0x3
 2040 0b8a 00000000 		.4byte	.LANCHOR1
 2041 0b8e 00       		.byte	0
 2042 0b8f 20       		.uleb128 0x20
 2043 0b90 22000000 		.4byte	.LVL39
 2044 0b94 5E0D0000 		.4byte	0xd5e
ARM GAS  /var/folders/ng/s8655sgx1ys_4lf9jzm2w6n00000gn/T//ccmm4r0w.s 			page 37


 2045 0b98 A20B0000 		.4byte	0xba2
 2046 0b9c 21       		.uleb128 0x21
 2047 0b9d 01       		.byte	0x1
 2048 0b9e 51       		.byte	0x51
 2049 0b9f 01       		.byte	0x1
 2050 0ba0 31       		.byte	0x31
 2051 0ba1 00       		.byte	0
 2052 0ba2 2B       		.uleb128 0x2b
 2053 0ba3 2A000000 		.4byte	.LVL40
 2054 0ba7 01       		.byte	0x1
 2055 0ba8 F70C0000 		.4byte	0xcf7
 2056 0bac 00       		.byte	0
 2057 0bad 2D       		.uleb128 0x2d
 2058 0bae D3040000 		.4byte	.LASF103
 2059 0bb2 01       		.byte	0x1
 2060 0bb3 0A       		.byte	0xa
 2061 0bb4 14080000 		.4byte	0x814
 2062 0bb8 05       		.byte	0x5
 2063 0bb9 03       		.byte	0x3
 2064 0bba 00000000 		.4byte	_pwmcfg2
 2065 0bbe 2D       		.uleb128 0x2d
 2066 0bbf E3010000 		.4byte	.LASF104
 2067 0bc3 01       		.byte	0x1
 2068 0bc4 26       		.byte	0x26
 2069 0bc5 31080000 		.4byte	0x831
 2070 0bc9 05       		.byte	0x5
 2071 0bca 03       		.byte	0x3
 2072 0bcb 00000000 		.4byte	waMusicThread
 2073 0bcf 2E       		.uleb128 0x2e
 2074 0bd0 50000000 		.4byte	.LASF105
 2075 0bd4 0D       		.byte	0xd
 2076 0bd5 9806     		.2byte	0x698
 2077 0bd7 33050000 		.4byte	0x533
 2078 0bdb 01       		.byte	0x1
 2079 0bdc 01       		.byte	0x1
 2080 0bdd 2E       		.uleb128 0x2e
 2081 0bde 8A010000 		.4byte	.LASF106
 2082 0be2 0A       		.byte	0xa
 2083 0be3 B701     		.2byte	0x1b7
 2084 0be5 5E050000 		.4byte	0x55e
 2085 0be9 01       		.byte	0x1
 2086 0bea 01       		.byte	0x1
 2087 0beb 2F       		.uleb128 0x2f
 2088 0bec 1B050000 		.4byte	.LASF107
 2089 0bf0 01       		.byte	0x1
 2090 0bf1 05       		.byte	0x5
 2091 0bf2 AA040000 		.4byte	0x4aa
 2092 0bf6 01       		.byte	0x1
 2093 0bf7 05       		.byte	0x5
 2094 0bf8 03       		.byte	0x3
 2095 0bf9 00000000 		.4byte	_buzzerMtx
 2096 0bfd 2F       		.uleb128 0x2f
 2097 0bfe F1010000 		.4byte	.LASF108
 2098 0c02 01       		.byte	0x1
 2099 0c03 06       		.byte	0x6
 2100 0c04 70020000 		.4byte	0x270
 2101 0c08 01       		.byte	0x1
ARM GAS  /var/folders/ng/s8655sgx1ys_4lf9jzm2w6n00000gn/T//ccmm4r0w.s 			page 38


 2102 0c09 05       		.byte	0x5
 2103 0c0a 03       		.byte	0x3
 2104 0c0b 00000000 		.4byte	_asyncMusicThread
 2105 0c0f 2F       		.uleb128 0x2f
 2106 0c10 73040000 		.4byte	.LASF109
 2107 0c14 01       		.byte	0x1
 2108 0c15 07       		.byte	0x7
 2109 0c16 210C0000 		.4byte	0xc21
 2110 0c1a 01       		.byte	0x1
 2111 0c1b 05       		.byte	0x5
 2112 0c1c 03       		.byte	0x3
 2113 0c1d 00000000 		.4byte	_asyncNotes
 2114 0c21 09       		.uleb128 0x9
 2115 0c22 04       		.byte	0x4
 2116 0c23 270C0000 		.4byte	0xc27
 2117 0c27 0D       		.uleb128 0xd
 2118 0c28 66080000 		.4byte	0x866
 2119 0c2c 2F       		.uleb128 0x2f
 2120 0c2d 8B020000 		.4byte	.LASF110
 2121 0c31 01       		.byte	0x1
 2122 0c32 08       		.byte	0x8
 2123 0c33 3E0C0000 		.4byte	0xc3e
 2124 0c37 01       		.byte	0x1
 2125 0c38 05       		.byte	0x5
 2126 0c39 03       		.byte	0x3
 2127 0c3a 00000000 		.4byte	_asyncNumNotes
 2128 0c3e 0D       		.uleb128 0xd
 2129 0c3f 29000000 		.4byte	0x29
 2130 0c43 30       		.uleb128 0x30
 2131 0c44 01       		.byte	0x1
 2132 0c45 3D020000 		.4byte	.LASF112
 2133 0c49 09       		.byte	0x9
 2134 0c4a FA       		.byte	0xfa
 2135 0c4b 01       		.byte	0x1
 2136 0c4c 01       		.byte	0x1
 2137 0c4d 5C0C0000 		.4byte	0xc5c
 2138 0c51 12       		.uleb128 0x12
 2139 0c52 DF050000 		.4byte	0x5df
 2140 0c56 12       		.uleb128 0x12
 2141 0c57 45070000 		.4byte	0x745
 2142 0c5b 00       		.byte	0
 2143 0c5c 30       		.uleb128 0x30
 2144 0c5d 01       		.byte	0x1
 2145 0c5e 9E000000 		.4byte	.LASF113
 2146 0c62 09       		.byte	0x9
 2147 0c63 F4       		.byte	0xf4
 2148 0c64 01       		.byte	0x1
 2149 0c65 01       		.byte	0x1
 2150 0c66 750C0000 		.4byte	0xc75
 2151 0c6a 12       		.uleb128 0x12
 2152 0c6b DF050000 		.4byte	0x5df
 2153 0c6f 12       		.uleb128 0x12
 2154 0c70 20080000 		.4byte	0x820
 2155 0c74 00       		.byte	0
 2156 0c75 30       		.uleb128 0x30
 2157 0c76 01       		.byte	0x1
 2158 0c77 DC040000 		.4byte	.LASF114
ARM GAS  /var/folders/ng/s8655sgx1ys_4lf9jzm2w6n00000gn/T//ccmm4r0w.s 			page 39


 2159 0c7b 09       		.byte	0x9
 2160 0c7c F7       		.byte	0xf7
 2161 0c7d 01       		.byte	0x1
 2162 0c7e 01       		.byte	0x1
 2163 0c7f 930C0000 		.4byte	0xc93
 2164 0c83 12       		.uleb128 0x12
 2165 0c84 DF050000 		.4byte	0x5df
 2166 0c88 12       		.uleb128 0x12
 2167 0c89 45070000 		.4byte	0x745
 2168 0c8d 12       		.uleb128 0x12
 2169 0c8e 51070000 		.4byte	0x751
 2170 0c92 00       		.byte	0
 2171 0c93 31       		.uleb128 0x31
 2172 0c94 01       		.byte	0x1
 2173 0c95 A1030000 		.4byte	.LASF115
 2174 0c99 06       		.byte	0x6
 2175 0c9a 7501     		.2byte	0x175
 2176 0c9c 01       		.byte	0x1
 2177 0c9d 01       		.byte	0x1
 2178 0c9e A80C0000 		.4byte	0xca8
 2179 0ca2 12       		.uleb128 0x12
 2180 0ca3 10010000 		.4byte	0x110
 2181 0ca7 00       		.byte	0
 2182 0ca8 30       		.uleb128 0x30
 2183 0ca9 01       		.byte	0x1
 2184 0caa C3020000 		.4byte	.LASF116
 2185 0cae 09       		.byte	0x9
 2186 0caf F5       		.byte	0xf5
 2187 0cb0 01       		.byte	0x1
 2188 0cb1 01       		.byte	0x1
 2189 0cb2 BC0C0000 		.4byte	0xcbc
 2190 0cb6 12       		.uleb128 0x12
 2191 0cb7 DF050000 		.4byte	0x5df
 2192 0cbb 00       		.byte	0
 2193 0cbc 32       		.uleb128 0x32
 2194 0cbd 01       		.byte	0x1
 2195 0cbe 7F040000 		.4byte	.LASF119
 2196 0cc2 0E       		.byte	0xe
 2197 0cc3 52       		.byte	0x52
 2198 0cc4 01       		.byte	0x1
 2199 0cc5 70020000 		.4byte	0x270
 2200 0cc9 01       		.byte	0x1
 2201 0cca 30       		.uleb128 0x30
 2202 0ccb 01       		.byte	0x1
 2203 0ccc 89030000 		.4byte	.LASF117
 2204 0cd0 0E       		.byte	0xe
 2205 0cd1 53       		.byte	0x53
 2206 0cd2 01       		.byte	0x1
 2207 0cd3 01       		.byte	0x1
 2208 0cd4 E30C0000 		.4byte	0xce3
 2209 0cd8 12       		.uleb128 0x12
 2210 0cd9 70020000 		.4byte	0x270
 2211 0cdd 12       		.uleb128 0x12
 2212 0cde FA000000 		.4byte	0xfa
 2213 0ce2 00       		.byte	0
 2214 0ce3 30       		.uleb128 0x30
 2215 0ce4 01       		.byte	0x1
ARM GAS  /var/folders/ng/s8655sgx1ys_4lf9jzm2w6n00000gn/T//ccmm4r0w.s 			page 40


 2216 0ce5 D4020000 		.4byte	.LASF118
 2217 0ce9 08       		.byte	0x8
 2218 0cea 39       		.byte	0x39
 2219 0ceb 01       		.byte	0x1
 2220 0cec 01       		.byte	0x1
 2221 0ced F70C0000 		.4byte	0xcf7
 2222 0cf1 12       		.uleb128 0x12
 2223 0cf2 FC040000 		.4byte	0x4fc
 2224 0cf6 00       		.byte	0
 2225 0cf7 32       		.uleb128 0x32
 2226 0cf8 01       		.byte	0x1
 2227 0cf9 B3000000 		.4byte	.LASF120
 2228 0cfd 08       		.byte	0x8
 2229 0cfe 3D       		.byte	0x3d
 2230 0cff 01       		.byte	0x1
 2231 0d00 FC040000 		.4byte	0x4fc
 2232 0d04 01       		.byte	0x1
 2233 0d05 30       		.uleb128 0x30
 2234 0d06 01       		.byte	0x1
 2235 0d07 4A040000 		.4byte	.LASF121
 2236 0d0b 08       		.byte	0x8
 2237 0d0c 38       		.byte	0x38
 2238 0d0d 01       		.byte	0x1
 2239 0d0e 01       		.byte	0x1
 2240 0d0f 190D0000 		.4byte	0xd19
 2241 0d13 12       		.uleb128 0x12
 2242 0d14 FC040000 		.4byte	0x4fc
 2243 0d18 00       		.byte	0
 2244 0d19 33       		.uleb128 0x33
 2245 0d1a 01       		.byte	0x1
 2246 0d1b A5020000 		.4byte	.LASF122
 2247 0d1f 06       		.byte	0x6
 2248 0d20 7001     		.2byte	0x170
 2249 0d22 01       		.byte	0x1
 2250 0d23 70020000 		.4byte	0x270
 2251 0d27 01       		.byte	0x1
 2252 0d28 460D0000 		.4byte	0xd46
 2253 0d2c 12       		.uleb128 0x12
 2254 0d2d AE020000 		.4byte	0x2ae
 2255 0d31 12       		.uleb128 0x12
 2256 0d32 30000000 		.4byte	0x30
 2257 0d36 12       		.uleb128 0x12
 2258 0d37 EF000000 		.4byte	0xef
 2259 0d3b 12       		.uleb128 0x12
 2260 0d3c 02050000 		.4byte	0x502
 2261 0d40 12       		.uleb128 0x12
 2262 0d41 AE020000 		.4byte	0x2ae
 2263 0d45 00       		.byte	0
 2264 0d46 34       		.uleb128 0x34
 2265 0d47 01       		.byte	0x1
 2266 0d48 78020000 		.4byte	.LASF123
 2267 0d4c 08       		.byte	0x8
 2268 0d4d 3B       		.byte	0x3b
 2269 0d4e 01       		.byte	0x1
 2270 0d4f B1000000 		.4byte	0xb1
 2271 0d53 01       		.byte	0x1
 2272 0d54 5E0D0000 		.4byte	0xd5e
ARM GAS  /var/folders/ng/s8655sgx1ys_4lf9jzm2w6n00000gn/T//ccmm4r0w.s 			page 41


 2273 0d58 12       		.uleb128 0x12
 2274 0d59 FC040000 		.4byte	0x4fc
 2275 0d5d 00       		.byte	0
 2276 0d5e 35       		.uleb128 0x35
 2277 0d5f 01       		.byte	0x1
 2278 0d60 5D010000 		.4byte	.LASF124
 2279 0d64 0E       		.byte	0xe
 2280 0d65 51       		.byte	0x51
 2281 0d66 01       		.byte	0x1
 2282 0d67 FA000000 		.4byte	0xfa
 2283 0d6b 01       		.byte	0x1
 2284 0d6c 12       		.uleb128 0x12
 2285 0d6d 70020000 		.4byte	0x270
 2286 0d71 12       		.uleb128 0x12
 2287 0d72 FA000000 		.4byte	0xfa
 2288 0d76 00       		.byte	0
 2289 0d77 00       		.byte	0
 2290              		.section	.debug_abbrev,"",%progbits
 2291              	.Ldebug_abbrev0:
 2292 0000 01       		.uleb128 0x1
 2293 0001 11       		.uleb128 0x11
 2294 0002 01       		.byte	0x1
 2295 0003 25       		.uleb128 0x25
 2296 0004 0E       		.uleb128 0xe
 2297 0005 13       		.uleb128 0x13
 2298 0006 0B       		.uleb128 0xb
 2299 0007 03       		.uleb128 0x3
 2300 0008 0E       		.uleb128 0xe
 2301 0009 1B       		.uleb128 0x1b
 2302 000a 0E       		.uleb128 0xe
 2303 000b 55       		.uleb128 0x55
 2304 000c 06       		.uleb128 0x6
 2305 000d 11       		.uleb128 0x11
 2306 000e 01       		.uleb128 0x1
 2307 000f 52       		.uleb128 0x52
 2308 0010 01       		.uleb128 0x1
 2309 0011 10       		.uleb128 0x10
 2310 0012 06       		.uleb128 0x6
 2311 0013 00       		.byte	0
 2312 0014 00       		.byte	0
 2313 0015 02       		.uleb128 0x2
 2314 0016 24       		.uleb128 0x24
 2315 0017 00       		.byte	0
 2316 0018 0B       		.uleb128 0xb
 2317 0019 0B       		.uleb128 0xb
 2318 001a 3E       		.uleb128 0x3e
 2319 001b 0B       		.uleb128 0xb
 2320 001c 03       		.uleb128 0x3
 2321 001d 08       		.uleb128 0x8
 2322 001e 00       		.byte	0
 2323 001f 00       		.byte	0
 2324 0020 03       		.uleb128 0x3
 2325 0021 16       		.uleb128 0x16
 2326 0022 00       		.byte	0
 2327 0023 03       		.uleb128 0x3
 2328 0024 0E       		.uleb128 0xe
 2329 0025 3A       		.uleb128 0x3a
ARM GAS  /var/folders/ng/s8655sgx1ys_4lf9jzm2w6n00000gn/T//ccmm4r0w.s 			page 42


 2330 0026 0B       		.uleb128 0xb
 2331 0027 3B       		.uleb128 0x3b
 2332 0028 0B       		.uleb128 0xb
 2333 0029 49       		.uleb128 0x49
 2334 002a 13       		.uleb128 0x13
 2335 002b 00       		.byte	0
 2336 002c 00       		.byte	0
 2337 002d 04       		.uleb128 0x4
 2338 002e 24       		.uleb128 0x24
 2339 002f 00       		.byte	0
 2340 0030 0B       		.uleb128 0xb
 2341 0031 0B       		.uleb128 0xb
 2342 0032 3E       		.uleb128 0x3e
 2343 0033 0B       		.uleb128 0xb
 2344 0034 03       		.uleb128 0x3
 2345 0035 0E       		.uleb128 0xe
 2346 0036 00       		.byte	0
 2347 0037 00       		.byte	0
 2348 0038 05       		.uleb128 0x5
 2349 0039 13       		.uleb128 0x13
 2350 003a 01       		.byte	0x1
 2351 003b 03       		.uleb128 0x3
 2352 003c 0E       		.uleb128 0xe
 2353 003d 0B       		.uleb128 0xb
 2354 003e 0B       		.uleb128 0xb
 2355 003f 3A       		.uleb128 0x3a
 2356 0040 0B       		.uleb128 0xb
 2357 0041 3B       		.uleb128 0x3b
 2358 0042 0B       		.uleb128 0xb
 2359 0043 01       		.uleb128 0x1
 2360 0044 13       		.uleb128 0x13
 2361 0045 00       		.byte	0
 2362 0046 00       		.byte	0
 2363 0047 06       		.uleb128 0x6
 2364 0048 0D       		.uleb128 0xd
 2365 0049 00       		.byte	0
 2366 004a 03       		.uleb128 0x3
 2367 004b 0E       		.uleb128 0xe
 2368 004c 3A       		.uleb128 0x3a
 2369 004d 0B       		.uleb128 0xb
 2370 004e 3B       		.uleb128 0x3b
 2371 004f 0B       		.uleb128 0xb
 2372 0050 49       		.uleb128 0x49
 2373 0051 13       		.uleb128 0x13
 2374 0052 38       		.uleb128 0x38
 2375 0053 0A       		.uleb128 0xa
 2376 0054 00       		.byte	0
 2377 0055 00       		.byte	0
 2378 0056 07       		.uleb128 0x7
 2379 0057 0D       		.uleb128 0xd
 2380 0058 00       		.byte	0
 2381 0059 03       		.uleb128 0x3
 2382 005a 08       		.uleb128 0x8
 2383 005b 3A       		.uleb128 0x3a
 2384 005c 0B       		.uleb128 0xb
 2385 005d 3B       		.uleb128 0x3b
 2386 005e 0B       		.uleb128 0xb
ARM GAS  /var/folders/ng/s8655sgx1ys_4lf9jzm2w6n00000gn/T//ccmm4r0w.s 			page 43


 2387 005f 49       		.uleb128 0x49
 2388 0060 13       		.uleb128 0x13
 2389 0061 38       		.uleb128 0x38
 2390 0062 0A       		.uleb128 0xa
 2391 0063 00       		.byte	0
 2392 0064 00       		.byte	0
 2393 0065 08       		.uleb128 0x8
 2394 0066 13       		.uleb128 0x13
 2395 0067 01       		.byte	0x1
 2396 0068 0B       		.uleb128 0xb
 2397 0069 0B       		.uleb128 0xb
 2398 006a 3A       		.uleb128 0x3a
 2399 006b 0B       		.uleb128 0xb
 2400 006c 3B       		.uleb128 0x3b
 2401 006d 0B       		.uleb128 0xb
 2402 006e 01       		.uleb128 0x1
 2403 006f 13       		.uleb128 0x13
 2404 0070 00       		.byte	0
 2405 0071 00       		.byte	0
 2406 0072 09       		.uleb128 0x9
 2407 0073 0F       		.uleb128 0xf
 2408 0074 00       		.byte	0
 2409 0075 0B       		.uleb128 0xb
 2410 0076 0B       		.uleb128 0xb
 2411 0077 49       		.uleb128 0x49
 2412 0078 13       		.uleb128 0x13
 2413 0079 00       		.byte	0
 2414 007a 00       		.byte	0
 2415 007b 0A       		.uleb128 0xa
 2416 007c 0F       		.uleb128 0xf
 2417 007d 00       		.byte	0
 2418 007e 0B       		.uleb128 0xb
 2419 007f 0B       		.uleb128 0xb
 2420 0080 00       		.byte	0
 2421 0081 00       		.byte	0
 2422 0082 0B       		.uleb128 0xb
 2423 0083 13       		.uleb128 0x13
 2424 0084 01       		.byte	0x1
 2425 0085 03       		.uleb128 0x3
 2426 0086 0E       		.uleb128 0xe
 2427 0087 0B       		.uleb128 0xb
 2428 0088 0B       		.uleb128 0xb
 2429 0089 3A       		.uleb128 0x3a
 2430 008a 0B       		.uleb128 0xb
 2431 008b 3B       		.uleb128 0x3b
 2432 008c 05       		.uleb128 0x5
 2433 008d 01       		.uleb128 0x1
 2434 008e 13       		.uleb128 0x13
 2435 008f 00       		.byte	0
 2436 0090 00       		.byte	0
 2437 0091 0C       		.uleb128 0xc
 2438 0092 0D       		.uleb128 0xd
 2439 0093 00       		.byte	0
 2440 0094 03       		.uleb128 0x3
 2441 0095 08       		.uleb128 0x8
 2442 0096 3A       		.uleb128 0x3a
 2443 0097 0B       		.uleb128 0xb
ARM GAS  /var/folders/ng/s8655sgx1ys_4lf9jzm2w6n00000gn/T//ccmm4r0w.s 			page 44


 2444 0098 3B       		.uleb128 0x3b
 2445 0099 05       		.uleb128 0x5
 2446 009a 49       		.uleb128 0x49
 2447 009b 13       		.uleb128 0x13
 2448 009c 38       		.uleb128 0x38
 2449 009d 0A       		.uleb128 0xa
 2450 009e 00       		.byte	0
 2451 009f 00       		.byte	0
 2452 00a0 0D       		.uleb128 0xd
 2453 00a1 35       		.uleb128 0x35
 2454 00a2 00       		.byte	0
 2455 00a3 49       		.uleb128 0x49
 2456 00a4 13       		.uleb128 0x13
 2457 00a5 00       		.byte	0
 2458 00a6 00       		.byte	0
 2459 00a7 0E       		.uleb128 0xe
 2460 00a8 17       		.uleb128 0x17
 2461 00a9 01       		.byte	0x1
 2462 00aa 0B       		.uleb128 0xb
 2463 00ab 0B       		.uleb128 0xb
 2464 00ac 3A       		.uleb128 0x3a
 2465 00ad 0B       		.uleb128 0xb
 2466 00ae 3B       		.uleb128 0x3b
 2467 00af 0B       		.uleb128 0xb
 2468 00b0 01       		.uleb128 0x1
 2469 00b1 13       		.uleb128 0x13
 2470 00b2 00       		.byte	0
 2471 00b3 00       		.byte	0
 2472 00b4 0F       		.uleb128 0xf
 2473 00b5 0D       		.uleb128 0xd
 2474 00b6 00       		.byte	0
 2475 00b7 03       		.uleb128 0x3
 2476 00b8 0E       		.uleb128 0xe
 2477 00b9 3A       		.uleb128 0x3a
 2478 00ba 0B       		.uleb128 0xb
 2479 00bb 3B       		.uleb128 0x3b
 2480 00bc 0B       		.uleb128 0xb
 2481 00bd 49       		.uleb128 0x49
 2482 00be 13       		.uleb128 0x13
 2483 00bf 00       		.byte	0
 2484 00c0 00       		.byte	0
 2485 00c1 10       		.uleb128 0x10
 2486 00c2 26       		.uleb128 0x26
 2487 00c3 00       		.byte	0
 2488 00c4 49       		.uleb128 0x49
 2489 00c5 13       		.uleb128 0x13
 2490 00c6 00       		.byte	0
 2491 00c7 00       		.byte	0
 2492 00c8 11       		.uleb128 0x11
 2493 00c9 15       		.uleb128 0x15
 2494 00ca 01       		.byte	0x1
 2495 00cb 27       		.uleb128 0x27
 2496 00cc 0C       		.uleb128 0xc
 2497 00cd 49       		.uleb128 0x49
 2498 00ce 13       		.uleb128 0x13
 2499 00cf 01       		.uleb128 0x1
 2500 00d0 13       		.uleb128 0x13
ARM GAS  /var/folders/ng/s8655sgx1ys_4lf9jzm2w6n00000gn/T//ccmm4r0w.s 			page 45


 2501 00d1 00       		.byte	0
 2502 00d2 00       		.byte	0
 2503 00d3 12       		.uleb128 0x12
 2504 00d4 05       		.uleb128 0x5
 2505 00d5 00       		.byte	0
 2506 00d6 49       		.uleb128 0x49
 2507 00d7 13       		.uleb128 0x13
 2508 00d8 00       		.byte	0
 2509 00d9 00       		.byte	0
 2510 00da 13       		.uleb128 0x13
 2511 00db 01       		.uleb128 0x1
 2512 00dc 01       		.byte	0x1
 2513 00dd 49       		.uleb128 0x49
 2514 00de 13       		.uleb128 0x13
 2515 00df 01       		.uleb128 0x1
 2516 00e0 13       		.uleb128 0x13
 2517 00e1 00       		.byte	0
 2518 00e2 00       		.byte	0
 2519 00e3 14       		.uleb128 0x14
 2520 00e4 21       		.uleb128 0x21
 2521 00e5 00       		.byte	0
 2522 00e6 49       		.uleb128 0x49
 2523 00e7 13       		.uleb128 0x13
 2524 00e8 2F       		.uleb128 0x2f
 2525 00e9 0B       		.uleb128 0xb
 2526 00ea 00       		.byte	0
 2527 00eb 00       		.byte	0
 2528 00ec 15       		.uleb128 0x15
 2529 00ed 04       		.uleb128 0x4
 2530 00ee 01       		.byte	0x1
 2531 00ef 0B       		.uleb128 0xb
 2532 00f0 0B       		.uleb128 0xb
 2533 00f1 3A       		.uleb128 0x3a
 2534 00f2 0B       		.uleb128 0xb
 2535 00f3 3B       		.uleb128 0x3b
 2536 00f4 0B       		.uleb128 0xb
 2537 00f5 01       		.uleb128 0x1
 2538 00f6 13       		.uleb128 0x13
 2539 00f7 00       		.byte	0
 2540 00f8 00       		.byte	0
 2541 00f9 16       		.uleb128 0x16
 2542 00fa 28       		.uleb128 0x28
 2543 00fb 00       		.byte	0
 2544 00fc 03       		.uleb128 0x3
 2545 00fd 0E       		.uleb128 0xe
 2546 00fe 1C       		.uleb128 0x1c
 2547 00ff 0D       		.uleb128 0xd
 2548 0100 00       		.byte	0
 2549 0101 00       		.byte	0
 2550 0102 17       		.uleb128 0x17
 2551 0103 0D       		.uleb128 0xd
 2552 0104 00       		.byte	0
 2553 0105 03       		.uleb128 0x3
 2554 0106 0E       		.uleb128 0xe
 2555 0107 3A       		.uleb128 0x3a
 2556 0108 0B       		.uleb128 0xb
 2557 0109 3B       		.uleb128 0x3b
ARM GAS  /var/folders/ng/s8655sgx1ys_4lf9jzm2w6n00000gn/T//ccmm4r0w.s 			page 46


 2558 010a 05       		.uleb128 0x5
 2559 010b 49       		.uleb128 0x49
 2560 010c 13       		.uleb128 0x13
 2561 010d 38       		.uleb128 0x38
 2562 010e 0A       		.uleb128 0xa
 2563 010f 00       		.byte	0
 2564 0110 00       		.byte	0
 2565 0111 18       		.uleb128 0x18
 2566 0112 15       		.uleb128 0x15
 2567 0113 01       		.byte	0x1
 2568 0114 27       		.uleb128 0x27
 2569 0115 0C       		.uleb128 0xc
 2570 0116 01       		.uleb128 0x1
 2571 0117 13       		.uleb128 0x13
 2572 0118 00       		.byte	0
 2573 0119 00       		.byte	0
 2574 011a 19       		.uleb128 0x19
 2575 011b 13       		.uleb128 0x13
 2576 011c 01       		.byte	0x1
 2577 011d 0B       		.uleb128 0xb
 2578 011e 0B       		.uleb128 0xb
 2579 011f 3A       		.uleb128 0x3a
 2580 0120 0B       		.uleb128 0xb
 2581 0121 3B       		.uleb128 0x3b
 2582 0122 05       		.uleb128 0x5
 2583 0123 01       		.uleb128 0x1
 2584 0124 13       		.uleb128 0x13
 2585 0125 00       		.byte	0
 2586 0126 00       		.byte	0
 2587 0127 1A       		.uleb128 0x1a
 2588 0128 16       		.uleb128 0x16
 2589 0129 00       		.byte	0
 2590 012a 03       		.uleb128 0x3
 2591 012b 0E       		.uleb128 0xe
 2592 012c 3A       		.uleb128 0x3a
 2593 012d 0B       		.uleb128 0xb
 2594 012e 3B       		.uleb128 0x3b
 2595 012f 05       		.uleb128 0x5
 2596 0130 49       		.uleb128 0x49
 2597 0131 13       		.uleb128 0x13
 2598 0132 00       		.byte	0
 2599 0133 00       		.byte	0
 2600 0134 1B       		.uleb128 0x1b
 2601 0135 2E       		.uleb128 0x2e
 2602 0136 01       		.byte	0x1
 2603 0137 3F       		.uleb128 0x3f
 2604 0138 0C       		.uleb128 0xc
 2605 0139 03       		.uleb128 0x3
 2606 013a 0E       		.uleb128 0xe
 2607 013b 3A       		.uleb128 0x3a
 2608 013c 0B       		.uleb128 0xb
 2609 013d 3B       		.uleb128 0x3b
 2610 013e 0B       		.uleb128 0xb
 2611 013f 27       		.uleb128 0x27
 2612 0140 0C       		.uleb128 0xc
 2613 0141 20       		.uleb128 0x20
 2614 0142 0B       		.uleb128 0xb
ARM GAS  /var/folders/ng/s8655sgx1ys_4lf9jzm2w6n00000gn/T//ccmm4r0w.s 			page 47


 2615 0143 01       		.uleb128 0x1
 2616 0144 13       		.uleb128 0x13
 2617 0145 00       		.byte	0
 2618 0146 00       		.byte	0
 2619 0147 1C       		.uleb128 0x1c
 2620 0148 05       		.uleb128 0x5
 2621 0149 00       		.byte	0
 2622 014a 03       		.uleb128 0x3
 2623 014b 0E       		.uleb128 0xe
 2624 014c 3A       		.uleb128 0x3a
 2625 014d 0B       		.uleb128 0xb
 2626 014e 3B       		.uleb128 0x3b
 2627 014f 0B       		.uleb128 0xb
 2628 0150 49       		.uleb128 0x49
 2629 0151 13       		.uleb128 0x13
 2630 0152 00       		.byte	0
 2631 0153 00       		.byte	0
 2632 0154 1D       		.uleb128 0x1d
 2633 0155 2E       		.uleb128 0x2e
 2634 0156 01       		.byte	0x1
 2635 0157 31       		.uleb128 0x31
 2636 0158 13       		.uleb128 0x13
 2637 0159 11       		.uleb128 0x11
 2638 015a 01       		.uleb128 0x1
 2639 015b 12       		.uleb128 0x12
 2640 015c 01       		.uleb128 0x1
 2641 015d 40       		.uleb128 0x40
 2642 015e 06       		.uleb128 0x6
 2643 015f 9742     		.uleb128 0x2117
 2644 0161 0C       		.uleb128 0xc
 2645 0162 01       		.uleb128 0x1
 2646 0163 13       		.uleb128 0x13
 2647 0164 00       		.byte	0
 2648 0165 00       		.byte	0
 2649 0166 1E       		.uleb128 0x1e
 2650 0167 05       		.uleb128 0x5
 2651 0168 00       		.byte	0
 2652 0169 31       		.uleb128 0x31
 2653 016a 13       		.uleb128 0x13
 2654 016b 02       		.uleb128 0x2
 2655 016c 06       		.uleb128 0x6
 2656 016d 00       		.byte	0
 2657 016e 00       		.byte	0
 2658 016f 1F       		.uleb128 0x1f
 2659 0170 1D       		.uleb128 0x1d
 2660 0171 01       		.byte	0x1
 2661 0172 31       		.uleb128 0x31
 2662 0173 13       		.uleb128 0x13
 2663 0174 52       		.uleb128 0x52
 2664 0175 01       		.uleb128 0x1
 2665 0176 55       		.uleb128 0x55
 2666 0177 06       		.uleb128 0x6
 2667 0178 58       		.uleb128 0x58
 2668 0179 0B       		.uleb128 0xb
 2669 017a 59       		.uleb128 0x59
 2670 017b 0B       		.uleb128 0xb
 2671 017c 00       		.byte	0
ARM GAS  /var/folders/ng/s8655sgx1ys_4lf9jzm2w6n00000gn/T//ccmm4r0w.s 			page 48


 2672 017d 00       		.byte	0
 2673 017e 20       		.uleb128 0x20
 2674 017f 898201   		.uleb128 0x4109
 2675 0182 01       		.byte	0x1
 2676 0183 11       		.uleb128 0x11
 2677 0184 01       		.uleb128 0x1
 2678 0185 31       		.uleb128 0x31
 2679 0186 13       		.uleb128 0x13
 2680 0187 01       		.uleb128 0x1
 2681 0188 13       		.uleb128 0x13
 2682 0189 00       		.byte	0
 2683 018a 00       		.byte	0
 2684 018b 21       		.uleb128 0x21
 2685 018c 8A8201   		.uleb128 0x410a
 2686 018f 00       		.byte	0
 2687 0190 02       		.uleb128 0x2
 2688 0191 0A       		.uleb128 0xa
 2689 0192 9142     		.uleb128 0x2111
 2690 0194 0A       		.uleb128 0xa
 2691 0195 00       		.byte	0
 2692 0196 00       		.byte	0
 2693 0197 22       		.uleb128 0x22
 2694 0198 898201   		.uleb128 0x4109
 2695 019b 00       		.byte	0
 2696 019c 11       		.uleb128 0x11
 2697 019d 01       		.uleb128 0x1
 2698 019e 31       		.uleb128 0x31
 2699 019f 13       		.uleb128 0x13
 2700 01a0 00       		.byte	0
 2701 01a1 00       		.byte	0
 2702 01a2 23       		.uleb128 0x23
 2703 01a3 898201   		.uleb128 0x4109
 2704 01a6 01       		.byte	0x1
 2705 01a7 11       		.uleb128 0x11
 2706 01a8 01       		.uleb128 0x1
 2707 01a9 9542     		.uleb128 0x2115
 2708 01ab 0C       		.uleb128 0xc
 2709 01ac 31       		.uleb128 0x31
 2710 01ad 13       		.uleb128 0x13
 2711 01ae 00       		.byte	0
 2712 01af 00       		.byte	0
 2713 01b0 24       		.uleb128 0x24
 2714 01b1 2E       		.uleb128 0x2e
 2715 01b2 01       		.byte	0x1
 2716 01b3 03       		.uleb128 0x3
 2717 01b4 0E       		.uleb128 0xe
 2718 01b5 3A       		.uleb128 0x3a
 2719 01b6 0B       		.uleb128 0xb
 2720 01b7 3B       		.uleb128 0x3b
 2721 01b8 0B       		.uleb128 0xb
 2722 01b9 27       		.uleb128 0x27
 2723 01ba 0C       		.uleb128 0xc
 2724 01bb 49       		.uleb128 0x49
 2725 01bc 13       		.uleb128 0x13
 2726 01bd 11       		.uleb128 0x11
 2727 01be 01       		.uleb128 0x1
 2728 01bf 12       		.uleb128 0x12
ARM GAS  /var/folders/ng/s8655sgx1ys_4lf9jzm2w6n00000gn/T//ccmm4r0w.s 			page 49


 2729 01c0 01       		.uleb128 0x1
 2730 01c1 40       		.uleb128 0x40
 2731 01c2 06       		.uleb128 0x6
 2732 01c3 9742     		.uleb128 0x2117
 2733 01c5 0C       		.uleb128 0xc
 2734 01c6 01       		.uleb128 0x1
 2735 01c7 13       		.uleb128 0x13
 2736 01c8 00       		.byte	0
 2737 01c9 00       		.byte	0
 2738 01ca 25       		.uleb128 0x25
 2739 01cb 05       		.uleb128 0x5
 2740 01cc 00       		.byte	0
 2741 01cd 03       		.uleb128 0x3
 2742 01ce 08       		.uleb128 0x8
 2743 01cf 3A       		.uleb128 0x3a
 2744 01d0 0B       		.uleb128 0xb
 2745 01d1 3B       		.uleb128 0x3b
 2746 01d2 0B       		.uleb128 0xb
 2747 01d3 49       		.uleb128 0x49
 2748 01d4 13       		.uleb128 0x13
 2749 01d5 02       		.uleb128 0x2
 2750 01d6 06       		.uleb128 0x6
 2751 01d7 00       		.byte	0
 2752 01d8 00       		.byte	0
 2753 01d9 26       		.uleb128 0x26
 2754 01da 0B       		.uleb128 0xb
 2755 01db 01       		.byte	0x1
 2756 01dc 11       		.uleb128 0x11
 2757 01dd 01       		.uleb128 0x1
 2758 01de 12       		.uleb128 0x12
 2759 01df 01       		.uleb128 0x1
 2760 01e0 00       		.byte	0
 2761 01e1 00       		.byte	0
 2762 01e2 27       		.uleb128 0x27
 2763 01e3 34       		.uleb128 0x34
 2764 01e4 00       		.byte	0
 2765 01e5 03       		.uleb128 0x3
 2766 01e6 08       		.uleb128 0x8
 2767 01e7 3A       		.uleb128 0x3a
 2768 01e8 0B       		.uleb128 0xb
 2769 01e9 3B       		.uleb128 0x3b
 2770 01ea 0B       		.uleb128 0xb
 2771 01eb 49       		.uleb128 0x49
 2772 01ec 13       		.uleb128 0x13
 2773 01ed 02       		.uleb128 0x2
 2774 01ee 06       		.uleb128 0x6
 2775 01ef 00       		.byte	0
 2776 01f0 00       		.byte	0
 2777 01f1 28       		.uleb128 0x28
 2778 01f2 2E       		.uleb128 0x2e
 2779 01f3 01       		.byte	0x1
 2780 01f4 3F       		.uleb128 0x3f
 2781 01f5 0C       		.uleb128 0xc
 2782 01f6 03       		.uleb128 0x3
 2783 01f7 0E       		.uleb128 0xe
 2784 01f8 3A       		.uleb128 0x3a
 2785 01f9 0B       		.uleb128 0xb
ARM GAS  /var/folders/ng/s8655sgx1ys_4lf9jzm2w6n00000gn/T//ccmm4r0w.s 			page 50


 2786 01fa 3B       		.uleb128 0x3b
 2787 01fb 0B       		.uleb128 0xb
 2788 01fc 27       		.uleb128 0x27
 2789 01fd 0C       		.uleb128 0xc
 2790 01fe 11       		.uleb128 0x11
 2791 01ff 01       		.uleb128 0x1
 2792 0200 12       		.uleb128 0x12
 2793 0201 01       		.uleb128 0x1
 2794 0202 40       		.uleb128 0x40
 2795 0203 06       		.uleb128 0x6
 2796 0204 9742     		.uleb128 0x2117
 2797 0206 0C       		.uleb128 0xc
 2798 0207 01       		.uleb128 0x1
 2799 0208 13       		.uleb128 0x13
 2800 0209 00       		.byte	0
 2801 020a 00       		.byte	0
 2802 020b 29       		.uleb128 0x29
 2803 020c 898201   		.uleb128 0x4109
 2804 020f 01       		.byte	0x1
 2805 0210 11       		.uleb128 0x11
 2806 0211 01       		.uleb128 0x1
 2807 0212 31       		.uleb128 0x31
 2808 0213 13       		.uleb128 0x13
 2809 0214 00       		.byte	0
 2810 0215 00       		.byte	0
 2811 0216 2A       		.uleb128 0x2a
 2812 0217 05       		.uleb128 0x5
 2813 0218 00       		.byte	0
 2814 0219 03       		.uleb128 0x3
 2815 021a 0E       		.uleb128 0xe
 2816 021b 3A       		.uleb128 0x3a
 2817 021c 0B       		.uleb128 0xb
 2818 021d 3B       		.uleb128 0x3b
 2819 021e 0B       		.uleb128 0xb
 2820 021f 49       		.uleb128 0x49
 2821 0220 13       		.uleb128 0x13
 2822 0221 02       		.uleb128 0x2
 2823 0222 0A       		.uleb128 0xa
 2824 0223 00       		.byte	0
 2825 0224 00       		.byte	0
 2826 0225 2B       		.uleb128 0x2b
 2827 0226 898201   		.uleb128 0x4109
 2828 0229 00       		.byte	0
 2829 022a 11       		.uleb128 0x11
 2830 022b 01       		.uleb128 0x1
 2831 022c 9542     		.uleb128 0x2115
 2832 022e 0C       		.uleb128 0xc
 2833 022f 31       		.uleb128 0x31
 2834 0230 13       		.uleb128 0x13
 2835 0231 00       		.byte	0
 2836 0232 00       		.byte	0
 2837 0233 2C       		.uleb128 0x2c
 2838 0234 05       		.uleb128 0x5
 2839 0235 00       		.byte	0
 2840 0236 03       		.uleb128 0x3
 2841 0237 0E       		.uleb128 0xe
 2842 0238 3A       		.uleb128 0x3a
ARM GAS  /var/folders/ng/s8655sgx1ys_4lf9jzm2w6n00000gn/T//ccmm4r0w.s 			page 51


 2843 0239 0B       		.uleb128 0xb
 2844 023a 3B       		.uleb128 0x3b
 2845 023b 0B       		.uleb128 0xb
 2846 023c 49       		.uleb128 0x49
 2847 023d 13       		.uleb128 0x13
 2848 023e 02       		.uleb128 0x2
 2849 023f 06       		.uleb128 0x6
 2850 0240 00       		.byte	0
 2851 0241 00       		.byte	0
 2852 0242 2D       		.uleb128 0x2d
 2853 0243 34       		.uleb128 0x34
 2854 0244 00       		.byte	0
 2855 0245 03       		.uleb128 0x3
 2856 0246 0E       		.uleb128 0xe
 2857 0247 3A       		.uleb128 0x3a
 2858 0248 0B       		.uleb128 0xb
 2859 0249 3B       		.uleb128 0x3b
 2860 024a 0B       		.uleb128 0xb
 2861 024b 49       		.uleb128 0x49
 2862 024c 13       		.uleb128 0x13
 2863 024d 02       		.uleb128 0x2
 2864 024e 0A       		.uleb128 0xa
 2865 024f 00       		.byte	0
 2866 0250 00       		.byte	0
 2867 0251 2E       		.uleb128 0x2e
 2868 0252 34       		.uleb128 0x34
 2869 0253 00       		.byte	0
 2870 0254 03       		.uleb128 0x3
 2871 0255 0E       		.uleb128 0xe
 2872 0256 3A       		.uleb128 0x3a
 2873 0257 0B       		.uleb128 0xb
 2874 0258 3B       		.uleb128 0x3b
 2875 0259 05       		.uleb128 0x5
 2876 025a 49       		.uleb128 0x49
 2877 025b 13       		.uleb128 0x13
 2878 025c 3F       		.uleb128 0x3f
 2879 025d 0C       		.uleb128 0xc
 2880 025e 3C       		.uleb128 0x3c
 2881 025f 0C       		.uleb128 0xc
 2882 0260 00       		.byte	0
 2883 0261 00       		.byte	0
 2884 0262 2F       		.uleb128 0x2f
 2885 0263 34       		.uleb128 0x34
 2886 0264 00       		.byte	0
 2887 0265 03       		.uleb128 0x3
 2888 0266 0E       		.uleb128 0xe
 2889 0267 3A       		.uleb128 0x3a
 2890 0268 0B       		.uleb128 0xb
 2891 0269 3B       		.uleb128 0x3b
 2892 026a 0B       		.uleb128 0xb
 2893 026b 49       		.uleb128 0x49
 2894 026c 13       		.uleb128 0x13
 2895 026d 3F       		.uleb128 0x3f
 2896 026e 0C       		.uleb128 0xc
 2897 026f 02       		.uleb128 0x2
 2898 0270 0A       		.uleb128 0xa
 2899 0271 00       		.byte	0
ARM GAS  /var/folders/ng/s8655sgx1ys_4lf9jzm2w6n00000gn/T//ccmm4r0w.s 			page 52


 2900 0272 00       		.byte	0
 2901 0273 30       		.uleb128 0x30
 2902 0274 2E       		.uleb128 0x2e
 2903 0275 01       		.byte	0x1
 2904 0276 3F       		.uleb128 0x3f
 2905 0277 0C       		.uleb128 0xc
 2906 0278 03       		.uleb128 0x3
 2907 0279 0E       		.uleb128 0xe
 2908 027a 3A       		.uleb128 0x3a
 2909 027b 0B       		.uleb128 0xb
 2910 027c 3B       		.uleb128 0x3b
 2911 027d 0B       		.uleb128 0xb
 2912 027e 27       		.uleb128 0x27
 2913 027f 0C       		.uleb128 0xc
 2914 0280 3C       		.uleb128 0x3c
 2915 0281 0C       		.uleb128 0xc
 2916 0282 01       		.uleb128 0x1
 2917 0283 13       		.uleb128 0x13
 2918 0284 00       		.byte	0
 2919 0285 00       		.byte	0
 2920 0286 31       		.uleb128 0x31
 2921 0287 2E       		.uleb128 0x2e
 2922 0288 01       		.byte	0x1
 2923 0289 3F       		.uleb128 0x3f
 2924 028a 0C       		.uleb128 0xc
 2925 028b 03       		.uleb128 0x3
 2926 028c 0E       		.uleb128 0xe
 2927 028d 3A       		.uleb128 0x3a
 2928 028e 0B       		.uleb128 0xb
 2929 028f 3B       		.uleb128 0x3b
 2930 0290 05       		.uleb128 0x5
 2931 0291 27       		.uleb128 0x27
 2932 0292 0C       		.uleb128 0xc
 2933 0293 3C       		.uleb128 0x3c
 2934 0294 0C       		.uleb128 0xc
 2935 0295 01       		.uleb128 0x1
 2936 0296 13       		.uleb128 0x13
 2937 0297 00       		.byte	0
 2938 0298 00       		.byte	0
 2939 0299 32       		.uleb128 0x32
 2940 029a 2E       		.uleb128 0x2e
 2941 029b 00       		.byte	0
 2942 029c 3F       		.uleb128 0x3f
 2943 029d 0C       		.uleb128 0xc
 2944 029e 03       		.uleb128 0x3
 2945 029f 0E       		.uleb128 0xe
 2946 02a0 3A       		.uleb128 0x3a
 2947 02a1 0B       		.uleb128 0xb
 2948 02a2 3B       		.uleb128 0x3b
 2949 02a3 0B       		.uleb128 0xb
 2950 02a4 27       		.uleb128 0x27
 2951 02a5 0C       		.uleb128 0xc
 2952 02a6 49       		.uleb128 0x49
 2953 02a7 13       		.uleb128 0x13
 2954 02a8 3C       		.uleb128 0x3c
 2955 02a9 0C       		.uleb128 0xc
 2956 02aa 00       		.byte	0
ARM GAS  /var/folders/ng/s8655sgx1ys_4lf9jzm2w6n00000gn/T//ccmm4r0w.s 			page 53


 2957 02ab 00       		.byte	0
 2958 02ac 33       		.uleb128 0x33
 2959 02ad 2E       		.uleb128 0x2e
 2960 02ae 01       		.byte	0x1
 2961 02af 3F       		.uleb128 0x3f
 2962 02b0 0C       		.uleb128 0xc
 2963 02b1 03       		.uleb128 0x3
 2964 02b2 0E       		.uleb128 0xe
 2965 02b3 3A       		.uleb128 0x3a
 2966 02b4 0B       		.uleb128 0xb
 2967 02b5 3B       		.uleb128 0x3b
 2968 02b6 05       		.uleb128 0x5
 2969 02b7 27       		.uleb128 0x27
 2970 02b8 0C       		.uleb128 0xc
 2971 02b9 49       		.uleb128 0x49
 2972 02ba 13       		.uleb128 0x13
 2973 02bb 3C       		.uleb128 0x3c
 2974 02bc 0C       		.uleb128 0xc
 2975 02bd 01       		.uleb128 0x1
 2976 02be 13       		.uleb128 0x13
 2977 02bf 00       		.byte	0
 2978 02c0 00       		.byte	0
 2979 02c1 34       		.uleb128 0x34
 2980 02c2 2E       		.uleb128 0x2e
 2981 02c3 01       		.byte	0x1
 2982 02c4 3F       		.uleb128 0x3f
 2983 02c5 0C       		.uleb128 0xc
 2984 02c6 03       		.uleb128 0x3
 2985 02c7 0E       		.uleb128 0xe
 2986 02c8 3A       		.uleb128 0x3a
 2987 02c9 0B       		.uleb128 0xb
 2988 02ca 3B       		.uleb128 0x3b
 2989 02cb 0B       		.uleb128 0xb
 2990 02cc 27       		.uleb128 0x27
 2991 02cd 0C       		.uleb128 0xc
 2992 02ce 49       		.uleb128 0x49
 2993 02cf 13       		.uleb128 0x13
 2994 02d0 3C       		.uleb128 0x3c
 2995 02d1 0C       		.uleb128 0xc
 2996 02d2 01       		.uleb128 0x1
 2997 02d3 13       		.uleb128 0x13
 2998 02d4 00       		.byte	0
 2999 02d5 00       		.byte	0
 3000 02d6 35       		.uleb128 0x35
 3001 02d7 2E       		.uleb128 0x2e
 3002 02d8 01       		.byte	0x1
 3003 02d9 3F       		.uleb128 0x3f
 3004 02da 0C       		.uleb128 0xc
 3005 02db 03       		.uleb128 0x3
 3006 02dc 0E       		.uleb128 0xe
 3007 02dd 3A       		.uleb128 0x3a
 3008 02de 0B       		.uleb128 0xb
 3009 02df 3B       		.uleb128 0x3b
 3010 02e0 0B       		.uleb128 0xb
 3011 02e1 27       		.uleb128 0x27
 3012 02e2 0C       		.uleb128 0xc
 3013 02e3 49       		.uleb128 0x49
ARM GAS  /var/folders/ng/s8655sgx1ys_4lf9jzm2w6n00000gn/T//ccmm4r0w.s 			page 54


 3014 02e4 13       		.uleb128 0x13
 3015 02e5 3C       		.uleb128 0x3c
 3016 02e6 0C       		.uleb128 0xc
 3017 02e7 00       		.byte	0
 3018 02e8 00       		.byte	0
 3019 02e9 00       		.byte	0
 3020              		.section	.debug_loc,"",%progbits
 3021              	.Ldebug_loc0:
 3022              	.LLST0:
 3023 0000 00000000 		.4byte	.LFB119
 3024 0004 04000000 		.4byte	.LCFI0
 3025 0008 0200     		.2byte	0x2
 3026 000a 7D       		.byte	0x7d
 3027 000b 00       		.sleb128 0
 3028 000c 04000000 		.4byte	.LCFI0
 3029 0010 8C000000 		.4byte	.LFE119
 3030 0014 0200     		.2byte	0x2
 3031 0016 7D       		.byte	0x7d
 3032 0017 10       		.sleb128 16
 3033 0018 00000000 		.4byte	0
 3034 001c 00000000 		.4byte	0
 3035              	.LLST1:
 3036 0020 00000000 		.4byte	.LVL0
 3037 0024 12000000 		.4byte	.LVL3
 3038 0028 0100     		.2byte	0x1
 3039 002a 50       		.byte	0x50
 3040 002b 12000000 		.4byte	.LVL3
 3041 002f 8C000000 		.4byte	.LFE119
 3042 0033 0400     		.2byte	0x4
 3043 0035 F3       		.byte	0xf3
 3044 0036 01       		.uleb128 0x1
 3045 0037 50       		.byte	0x50
 3046 0038 9F       		.byte	0x9f
 3047 0039 00000000 		.4byte	0
 3048 003d 00000000 		.4byte	0
 3049              	.LLST2:
 3050 0041 00000000 		.4byte	.LVL0
 3051 0045 10000000 		.4byte	.LVL2
 3052 0049 0100     		.2byte	0x1
 3053 004b 51       		.byte	0x51
 3054 004c 10000000 		.4byte	.LVL2
 3055 0050 8C000000 		.4byte	.LFE119
 3056 0054 0400     		.2byte	0x4
 3057 0056 F3       		.byte	0xf3
 3058 0057 01       		.uleb128 0x1
 3059 0058 51       		.byte	0x51
 3060 0059 9F       		.byte	0x9f
 3061 005a 00000000 		.4byte	0
 3062 005e 00000000 		.4byte	0
 3063              	.LLST3:
 3064 0062 0C000000 		.4byte	.LVL1
 3065 0066 10000000 		.4byte	.LVL2
 3066 006a 0300     		.2byte	0x3
 3067 006c 71       		.byte	0x71
 3068 006d 6C       		.sleb128 -20
 3069 006e 9F       		.byte	0x9f
 3070 006f 10000000 		.4byte	.LVL2
ARM GAS  /var/folders/ng/s8655sgx1ys_4lf9jzm2w6n00000gn/T//ccmm4r0w.s 			page 55


 3071 0073 4E000000 		.4byte	.LVL7
 3072 0077 0300     		.2byte	0x3
 3073 0079 74       		.byte	0x74
 3074 007a 6C       		.sleb128 -20
 3075 007b 9F       		.byte	0x9f
 3076 007c 4E000000 		.4byte	.LVL7
 3077 0080 54000000 		.4byte	.LVL9
 3078 0084 0300     		.2byte	0x3
 3079 0086 74       		.byte	0x74
 3080 0087 00       		.sleb128 0
 3081 0088 9F       		.byte	0x9f
 3082 0089 00000000 		.4byte	0
 3083 008d 00000000 		.4byte	0
 3084              	.LLST4:
 3085 0091 0C000000 		.4byte	.LVL1
 3086 0095 12000000 		.4byte	.LVL3
 3087 0099 0100     		.2byte	0x1
 3088 009b 50       		.byte	0x50
 3089 009c 12000000 		.4byte	.LVL3
 3090 00a0 24000000 		.4byte	.LVL5
 3091 00a4 0100     		.2byte	0x1
 3092 00a6 56       		.byte	0x56
 3093 00a7 00000000 		.4byte	0
 3094 00ab 00000000 		.4byte	0
 3095              	.LLST5:
 3096 00af 00000000 		.4byte	.LFB120
 3097 00b3 02000000 		.4byte	.LCFI1
 3098 00b7 0200     		.2byte	0x2
 3099 00b9 7D       		.byte	0x7d
 3100 00ba 00       		.sleb128 0
 3101 00bb 02000000 		.4byte	.LCFI1
 3102 00bf 4C000000 		.4byte	.LFE120
 3103 00c3 0200     		.2byte	0x2
 3104 00c5 7D       		.byte	0x7d
 3105 00c6 10       		.sleb128 16
 3106 00c7 00000000 		.4byte	0
 3107 00cb 00000000 		.4byte	0
 3108              	.LLST6:
 3109 00cf 00000000 		.4byte	.LVL13
 3110 00d3 06000000 		.4byte	.LVL14
 3111 00d7 0100     		.2byte	0x1
 3112 00d9 50       		.byte	0x50
 3113 00da 06000000 		.4byte	.LVL14
 3114 00de 4C000000 		.4byte	.LFE120
 3115 00e2 0400     		.2byte	0x4
 3116 00e4 F3       		.byte	0xf3
 3117 00e5 01       		.uleb128 0x1
 3118 00e6 50       		.byte	0x50
 3119 00e7 9F       		.byte	0x9f
 3120 00e8 00000000 		.4byte	0
 3121 00ec 00000000 		.4byte	0
 3122              	.LLST7:
 3123 00f0 16000000 		.4byte	.LVL17
 3124 00f4 1E000000 		.4byte	.LVL18
 3125 00f8 0200     		.2byte	0x2
 3126 00fa 30       		.byte	0x30
 3127 00fb 9F       		.byte	0x9f
ARM GAS  /var/folders/ng/s8655sgx1ys_4lf9jzm2w6n00000gn/T//ccmm4r0w.s 			page 56


 3128 00fc 36000000 		.4byte	.LVL20
 3129 0100 3A000000 		.4byte	.LVL21
 3130 0104 0100     		.2byte	0x1
 3131 0106 54       		.byte	0x54
 3132 0107 00000000 		.4byte	0
 3133 010b 00000000 		.4byte	0
 3134              	.LLST8:
 3135 010f 00000000 		.4byte	.LFB121
 3136 0113 02000000 		.4byte	.LCFI2
 3137 0117 0200     		.2byte	0x2
 3138 0119 7D       		.byte	0x7d
 3139 011a 00       		.sleb128 0
 3140 011b 02000000 		.4byte	.LCFI2
 3141 011f 08000000 		.4byte	.LCFI3
 3142 0123 0200     		.2byte	0x2
 3143 0125 7D       		.byte	0x7d
 3144 0126 04       		.sleb128 4
 3145 0127 08000000 		.4byte	.LCFI3
 3146 012b 3C000000 		.4byte	.LFE121
 3147 012f 0200     		.2byte	0x2
 3148 0131 7D       		.byte	0x7d
 3149 0132 10       		.sleb128 16
 3150 0133 00000000 		.4byte	0
 3151 0137 00000000 		.4byte	0
 3152              	.LLST9:
 3153 013b 00000000 		.4byte	.LFB122
 3154 013f 02000000 		.4byte	.LCFI4
 3155 0143 0200     		.2byte	0x2
 3156 0145 7D       		.byte	0x7d
 3157 0146 00       		.sleb128 0
 3158 0147 02000000 		.4byte	.LCFI4
 3159 014b 04000000 		.4byte	.LCFI5
 3160 014f 0200     		.2byte	0x2
 3161 0151 7D       		.byte	0x7d
 3162 0152 04       		.sleb128 4
 3163 0153 04000000 		.4byte	.LCFI5
 3164 0157 28000000 		.4byte	.LFE122
 3165 015b 0200     		.2byte	0x2
 3166 015d 7D       		.byte	0x7d
 3167 015e 10       		.sleb128 16
 3168 015f 00000000 		.4byte	0
 3169 0163 00000000 		.4byte	0
 3170              	.LLST10:
 3171 0167 00000000 		.4byte	.LFB123
 3172 016b 04000000 		.4byte	.LCFI6
 3173 016f 0200     		.2byte	0x2
 3174 0171 7D       		.byte	0x7d
 3175 0172 00       		.sleb128 0
 3176 0173 04000000 		.4byte	.LCFI6
 3177 0177 6C000000 		.4byte	.LFE123
 3178 017b 0200     		.2byte	0x2
 3179 017d 7D       		.byte	0x7d
 3180 017e 18       		.sleb128 24
 3181 017f 00000000 		.4byte	0
 3182 0183 00000000 		.4byte	0
 3183              	.LLST11:
 3184 0187 00000000 		.4byte	.LVL28
ARM GAS  /var/folders/ng/s8655sgx1ys_4lf9jzm2w6n00000gn/T//ccmm4r0w.s 			page 57


 3185 018b 0A000000 		.4byte	.LVL29
 3186 018f 0100     		.2byte	0x1
 3187 0191 50       		.byte	0x50
 3188 0192 0A000000 		.4byte	.LVL29
 3189 0196 6C000000 		.4byte	.LFE123
 3190 019a 0100     		.2byte	0x1
 3191 019c 54       		.byte	0x54
 3192 019d 00000000 		.4byte	0
 3193 01a1 00000000 		.4byte	0
 3194              	.LLST12:
 3195 01a5 00000000 		.4byte	.LVL28
 3196 01a9 0D000000 		.4byte	.LVL30-1
 3197 01ad 0100     		.2byte	0x1
 3198 01af 51       		.byte	0x51
 3199 01b0 0D000000 		.4byte	.LVL30-1
 3200 01b4 6C000000 		.4byte	.LFE123
 3201 01b8 0100     		.2byte	0x1
 3202 01ba 57       		.byte	0x57
 3203 01bb 00000000 		.4byte	0
 3204 01bf 00000000 		.4byte	0
 3205              	.LLST13:
 3206 01c3 0E000000 		.4byte	.LVL30
 3207 01c7 24000000 		.4byte	.LVL31
 3208 01cb 0200     		.2byte	0x2
 3209 01cd 30       		.byte	0x30
 3210 01ce 9F       		.byte	0x9f
 3211 01cf 00000000 		.4byte	0
 3212 01d3 00000000 		.4byte	0
 3213              	.LLST14:
 3214 01d7 00000000 		.4byte	.LFB124
 3215 01db 02000000 		.4byte	.LCFI7
 3216 01df 0200     		.2byte	0x2
 3217 01e1 7D       		.byte	0x7d
 3218 01e2 00       		.sleb128 0
 3219 01e3 02000000 		.4byte	.LCFI7
 3220 01e7 3C000000 		.4byte	.LFE124
 3221 01eb 0200     		.2byte	0x2
 3222 01ed 7D       		.byte	0x7d
 3223 01ee 10       		.sleb128 16
 3224 01ef 00000000 		.4byte	0
 3225 01f3 00000000 		.4byte	0
 3226              	.LLST15:
 3227 01f7 00000000 		.4byte	.LVL36
 3228 01fb 06000000 		.4byte	.LVL37
 3229 01ff 0100     		.2byte	0x1
 3230 0201 50       		.byte	0x50
 3231 0202 06000000 		.4byte	.LVL37
 3232 0206 3C000000 		.4byte	.LFE124
 3233 020a 0100     		.2byte	0x1
 3234 020c 55       		.byte	0x55
 3235 020d 00000000 		.4byte	0
 3236 0211 00000000 		.4byte	0
 3237              	.LLST16:
 3238 0215 00000000 		.4byte	.LVL36
 3239 0219 0B000000 		.4byte	.LVL38-1
 3240 021d 0100     		.2byte	0x1
 3241 021f 51       		.byte	0x51
ARM GAS  /var/folders/ng/s8655sgx1ys_4lf9jzm2w6n00000gn/T//ccmm4r0w.s 			page 58


 3242 0220 0B000000 		.4byte	.LVL38-1
 3243 0224 3C000000 		.4byte	.LFE124
 3244 0228 0100     		.2byte	0x1
 3245 022a 54       		.byte	0x54
 3246 022b 00000000 		.4byte	0
 3247 022f 00000000 		.4byte	0
 3248              		.section	.debug_aranges,"",%progbits
 3249 0000 44000000 		.4byte	0x44
 3250 0004 0200     		.2byte	0x2
 3251 0006 00000000 		.4byte	.Ldebug_info0
 3252 000a 04       		.byte	0x4
 3253 000b 00       		.byte	0
 3254 000c 0000     		.2byte	0
 3255 000e 0000     		.2byte	0
 3256 0010 00000000 		.4byte	.LFB119
 3257 0014 8C000000 		.4byte	.LFE119-.LFB119
 3258 0018 00000000 		.4byte	.LFB120
 3259 001c 4C000000 		.4byte	.LFE120-.LFB120
 3260 0020 00000000 		.4byte	.LFB121
 3261 0024 3C000000 		.4byte	.LFE121-.LFB121
 3262 0028 00000000 		.4byte	.LFB122
 3263 002c 28000000 		.4byte	.LFE122-.LFB122
 3264 0030 00000000 		.4byte	.LFB123
 3265 0034 6C000000 		.4byte	.LFE123-.LFB123
 3266 0038 00000000 		.4byte	.LFB124
 3267 003c 3C000000 		.4byte	.LFE124-.LFB124
 3268 0040 00000000 		.4byte	0
 3269 0044 00000000 		.4byte	0
 3270              		.section	.debug_ranges,"",%progbits
 3271              	.Ldebug_ranges0:
 3272 0000 0C000000 		.4byte	.LBB4
 3273 0004 7A000000 		.4byte	.LBE4
 3274 0008 7E000000 		.4byte	.LBB7
 3275 000c 8C000000 		.4byte	.LBE7
 3276 0010 00000000 		.4byte	0
 3277 0014 00000000 		.4byte	0
 3278 0018 00000000 		.4byte	.LFB119
 3279 001c 8C000000 		.4byte	.LFE119
 3280 0020 00000000 		.4byte	.LFB120
 3281 0024 4C000000 		.4byte	.LFE120
 3282 0028 00000000 		.4byte	.LFB121
 3283 002c 3C000000 		.4byte	.LFE121
 3284 0030 00000000 		.4byte	.LFB122
 3285 0034 28000000 		.4byte	.LFE122
 3286 0038 00000000 		.4byte	.LFB123
 3287 003c 6C000000 		.4byte	.LFE123
 3288 0040 00000000 		.4byte	.LFB124
 3289 0044 3C000000 		.4byte	.LFE124
 3290 0048 00000000 		.4byte	0
 3291 004c 00000000 		.4byte	0
 3292              		.section	.debug_line,"",%progbits
 3293              	.Ldebug_line0:
 3294 0000 2A030000 		.section	.debug_str,"MS",%progbits,1
 3294      02006002 
 3294      00000201 
 3294      FB0E0D00 
 3294      01010101 
ARM GAS  /var/folders/ng/s8655sgx1ys_4lf9jzm2w6n00000gn/T//ccmm4r0w.s 			page 59


 3295              	.LASF61:
 3296 0000 7466756E 		.ascii	"tfunc_t\000"
 3296      635F7400 
 3297              	.LASF84:
 3298 0008 70776D63 		.ascii	"pwmchannel_t\000"
 3298      68616E6E 
 3298      656C5F74 
 3298      00
 3299              	.LASF73:
 3300 0015 44494552 		.ascii	"DIER\000"
 3300      00
 3301              	.LASF2:
 3302 001a 73697A65 		.ascii	"size_t\000"
 3302      5F7400
 3303              	.LASF56:
 3304 0021 7264796D 		.ascii	"rdymsg\000"
 3304      736700
 3305              	.LASF13:
 3306 0028 75696E74 		.ascii	"uint64_t\000"
 3306      36345F74 
 3306      00
 3307              	.LASF79:
 3308 0031 43434D52 		.ascii	"CCMR3\000"
 3308      3300
 3309              	.LASF69:
 3310 0037 70657269 		.ascii	"period\000"
 3310      6F6400
 3311              	.LASF45:
 3312 003e 54687265 		.ascii	"ThreadsQueue\000"
 3312      61647351 
 3312      75657565 
 3312      00
 3313              	.LASF91:
 3314 004b 62647472 		.ascii	"bdtr\000"
 3314      00
 3315              	.LASF105:
 3316 0050 49544D5F 		.ascii	"ITM_RxBuffer\000"
 3316      52784275 
 3316      66666572 
 3316      00
 3317              	.LASF77:
 3318 005d 42445452 		.ascii	"BDTR\000"
 3318      00
 3319              	.LASF89:
 3320 0062 66726571 		.ascii	"frequency\000"
 3320      75656E63 
 3320      7900
 3321              	.LASF53:
 3322 006c 6D5F7175 		.ascii	"m_queue\000"
 3322      65756500 
 3323              	.LASF28:
 3324 0074 705F7072 		.ascii	"p_prio\000"
 3324      696F00
 3325              	.LASF64:
 3326 007b 50574D5F 		.ascii	"PWM_READY\000"
 3326      52454144 
 3326      5900
ARM GAS  /var/folders/ng/s8655sgx1ys_4lf9jzm2w6n00000gn/T//ccmm4r0w.s 			page 60


 3327              	.LASF126:
 3328 0085 2E2E2F41 		.ascii	"../AithonLibrary/music.c\000"
 3328      6974686F 
 3328      6E4C6962 
 3328      72617279 
 3328      2F6D7573 
 3329              	.LASF113:
 3330 009e 70776D53 		.ascii	"pwmStart\000"
 3330      74617274 
 3330      00
 3331              	.LASF74:
 3332 00a7 43434D52 		.ascii	"CCMR1\000"
 3332      3100
 3333              	.LASF75:
 3334 00ad 43434D52 		.ascii	"CCMR2\000"
 3334      3200
 3335              	.LASF120:
 3336 00b3 63684D74 		.ascii	"chMtxUnlock\000"
 3336      78556E6C 
 3336      6F636B00 
 3337              	.LASF1:
 3338 00bf 7369676E 		.ascii	"signed char\000"
 3338      65642063 
 3338      68617200 
 3339              	.LASF82:
 3340 00cb 73746D33 		.ascii	"stm32_tim_t\000"
 3340      325F7469 
 3340      6D5F7400 
 3341              	.LASF44:
 3342 00d7 705F6D70 		.ascii	"p_mpool\000"
 3342      6F6F6C00 
 3343              	.LASF15:
 3344 00df 626F6F6C 		.ascii	"bool_t\000"
 3344      5F7400
 3345              	.LASF83:
 3346 00e6 70776D6D 		.ascii	"pwmmode_t\000"
 3346      6F64655F 
 3346      7400
 3347              	.LASF128:
 3348 00f0 4D757369 		.ascii	"MusicThread\000"
 3348      63546872 
 3348      65616400 
 3349              	.LASF125:
 3350 00fc 474E5520 		.ascii	"GNU C 4.7.4 20130913 (release) [ARM/embedded-4_7-br"
 3350      4320342E 
 3350      372E3420 
 3350      32303133 
 3350      30393133 
 3351 012f 616E6368 		.ascii	"anch revision 202601]\000"
 3351      20726576 
 3351      6973696F 
 3351      6E203230 
 3351      32363031 
 3352              	.LASF67:
 3353 0145 73746174 		.ascii	"state\000"
 3353      6500
 3354              	.LASF90:
ARM GAS  /var/folders/ng/s8655sgx1ys_4lf9jzm2w6n00000gn/T//ccmm4r0w.s 			page 61


 3355 014b 6368616E 		.ascii	"channels\000"
 3355      6E656C73 
 3355      00
 3356              	.LASF9:
 3357 0154 6C6F6E67 		.ascii	"long int\000"
 3357      20696E74 
 3357      00
 3358              	.LASF124:
 3359 015d 63684D73 		.ascii	"chMsgSend\000"
 3359      6753656E 
 3359      6400
 3360              	.LASF18:
 3361 0167 74737461 		.ascii	"tstate_t\000"
 3361      74655F74 
 3361      00
 3362              	.LASF6:
 3363 0170 75696E74 		.ascii	"uint16_t\000"
 3363      31365F74 
 3363      00
 3364              	.LASF30:
 3365 0179 705F6E65 		.ascii	"p_newer\000"
 3365      77657200 
 3366              	.LASF57:
 3367 0181 65786974 		.ascii	"exitcode\000"
 3367      636F6465 
 3367      00
 3368              	.LASF106:
 3369 018a 50574D44 		.ascii	"PWMD2\000"
 3369      3200
 3370              	.LASF127:
 3371 0190 2F557365 		.ascii	"/Users/jseng/aithon/DemoMode\000"
 3371      72732F6A 
 3371      73656E67 
 3371      2F616974 
 3371      686F6E2F 
 3372              	.LASF47:
 3373 01ad 72656761 		.ascii	"regarm_t\000"
 3373      726D5F74 
 3373      00
 3374              	.LASF94:
 3375 01b6 64757261 		.ascii	"duration\000"
 3375      74696F6E 
 3375      00
 3376              	.LASF14:
 3377 01bf 6C6F6E67 		.ascii	"long long unsigned int\000"
 3377      206C6F6E 
 3377      6720756E 
 3377      7369676E 
 3377      65642069 
 3378              	.LASF0:
 3379 01d6 756E7369 		.ascii	"unsigned int\000"
 3379      676E6564 
 3379      20696E74 
 3379      00
 3380              	.LASF104:
 3381 01e3 77614D75 		.ascii	"waMusicThread\000"
 3381      73696354 
ARM GAS  /var/folders/ng/s8655sgx1ys_4lf9jzm2w6n00000gn/T//ccmm4r0w.s 			page 62


 3381      68726561 
 3381      6400
 3382              	.LASF108:
 3383 01f1 5F617379 		.ascii	"_asyncMusicThread\000"
 3383      6E634D75 
 3383      73696354 
 3383      68726561 
 3383      6400
 3384              	.LASF111:
 3385 0203 5F706C61 		.ascii	"_play_note\000"
 3385      795F6E6F 
 3385      746500
 3386              	.LASF50:
 3387 020e 636F6E74 		.ascii	"context\000"
 3387      65787400 
 3388              	.LASF7:
 3389 0216 73686F72 		.ascii	"short unsigned int\000"
 3389      7420756E 
 3389      7369676E 
 3389      65642069 
 3389      6E7400
 3390              	.LASF12:
 3391 0229 6C6F6E67 		.ascii	"long long int\000"
 3391      206C6F6E 
 3391      6720696E 
 3391      7400
 3392              	.LASF22:
 3393 0237 6D73675F 		.ascii	"msg_t\000"
 3393      7400
 3394              	.LASF112:
 3395 023d 70776D44 		.ascii	"pwmDisableChannel\000"
 3395      69736162 
 3395      6C654368 
 3395      616E6E65 
 3395      6C00
 3396              	.LASF87:
 3397 024f 63616C6C 		.ascii	"callback\000"
 3397      6261636B 
 3397      00
 3398              	.LASF17:
 3399 0258 746D6F64 		.ascii	"tmode_t\000"
 3399      655F7400 
 3400              	.LASF46:
 3401 0260 54687265 		.ascii	"ThreadsList\000"
 3401      6164734C 
 3401      69737400 
 3402              	.LASF23:
 3403 026c 6576656E 		.ascii	"eventmask_t\000"
 3403      746D6173 
 3403      6B5F7400 
 3404              	.LASF123:
 3405 0278 63684D74 		.ascii	"chMtxTryLock\000"
 3405      78547279 
 3405      4C6F636B 
 3405      00
 3406              	.LASF52:
 3407 0285 4D757465 		.ascii	"Mutex\000"
ARM GAS  /var/folders/ng/s8655sgx1ys_4lf9jzm2w6n00000gn/T//ccmm4r0w.s 			page 63


 3407      7800
 3408              	.LASF110:
 3409 028b 5F617379 		.ascii	"_asyncNumNotes\000"
 3409      6E634E75 
 3409      6D4E6F74 
 3409      657300
 3410              	.LASF48:
 3411 029a 73746B61 		.ascii	"stkalign_t\000"
 3411      6C69676E 
 3411      5F7400
 3412              	.LASF122:
 3413 02a5 63685468 		.ascii	"chThdCreateStatic\000"
 3413      64437265 
 3413      61746553 
 3413      74617469 
 3413      6300
 3414              	.LASF96:
 3415 02b7 5F6D7573 		.ascii	"_music_init\000"
 3415      69635F69 
 3415      6E697400 
 3416              	.LASF116:
 3417 02c3 70776D53 		.ascii	"pwmStop\000"
 3417      746F7000 
 3418              	.LASF51:
 3419 02cb 73697A65 		.ascii	"sizetype\000"
 3419      74797065 
 3419      00
 3420              	.LASF118:
 3421 02d4 63684D74 		.ascii	"chMtxLock\000"
 3421      784C6F63 
 3421      6B00
 3422              	.LASF31:
 3423 02de 705F6F6C 		.ascii	"p_older\000"
 3423      64657200 
 3424              	.LASF85:
 3425 02e6 70776D63 		.ascii	"pwmcnt_t\000"
 3425      6E745F74 
 3425      00
 3426              	.LASF35:
 3427 02ef 705F7265 		.ascii	"p_refs\000"
 3427      667300
 3428              	.LASF71:
 3429 02f6 70776D63 		.ascii	"pwmcallback_t\000"
 3429      616C6C62 
 3429      61636B5F 
 3429      7400
 3430              	.LASF19:
 3431 0304 74726566 		.ascii	"trefs_t\000"
 3431      735F7400 
 3432              	.LASF27:
 3433 030c 705F7072 		.ascii	"p_prev\000"
 3433      657600
 3434              	.LASF21:
 3435 0313 74707269 		.ascii	"tprio_t\000"
 3435      6F5F7400 
 3436              	.LASF16:
 3437 031b 5F426F6F 		.ascii	"_Bool\000"
ARM GAS  /var/folders/ng/s8655sgx1ys_4lf9jzm2w6n00000gn/T//ccmm4r0w.s 			page 64


 3437      6C00
 3438              	.LASF8:
 3439 0321 696E7433 		.ascii	"int32_t\000"
 3439      325F7400 
 3440              	.LASF4:
 3441 0329 756E7369 		.ascii	"unsigned char\000"
 3441      676E6564 
 3441      20636861 
 3441      7200
 3442              	.LASF95:
 3443 0337 4D757369 		.ascii	"MusicNote\000"
 3443      634E6F74 
 3443      6500
 3444              	.LASF98:
 3445 0341 6E6F7465 		.ascii	"note\000"
 3445      00
 3446              	.LASF42:
 3447 0346 705F6D74 		.ascii	"p_mtxlist\000"
 3447      786C6973 
 3447      7400
 3448              	.LASF5:
 3449 0350 73686F72 		.ascii	"short int\000"
 3449      7420696E 
 3449      7400
 3450              	.LASF33:
 3451 035a 705F7374 		.ascii	"p_state\000"
 3451      61746500 
 3452              	.LASF36:
 3453 0362 705F7072 		.ascii	"p_preempt\000"
 3453      65656D70 
 3453      7400
 3454              	.LASF59:
 3455 036c 65776D61 		.ascii	"ewmask\000"
 3455      736B00
 3456              	.LASF26:
 3457 0373 705F6E65 		.ascii	"p_next\000"
 3457      787400
 3458              	.LASF34:
 3459 037a 705F666C 		.ascii	"p_flags\000"
 3459      61677300 
 3460              	.LASF25:
 3461 0382 54687265 		.ascii	"Thread\000"
 3461      616400
 3462              	.LASF117:
 3463 0389 63684D73 		.ascii	"chMsgRelease\000"
 3463      6752656C 
 3463      65617365 
 3463      00
 3464              	.LASF41:
 3465 0396 705F6570 		.ascii	"p_epending\000"
 3465      656E6469 
 3465      6E6700
 3466              	.LASF115:
 3467 03a1 63685468 		.ascii	"chThdSleep\000"
 3467      64536C65 
 3467      657000
 3468              	.LASF10:
ARM GAS  /var/folders/ng/s8655sgx1ys_4lf9jzm2w6n00000gn/T//ccmm4r0w.s 			page 65


 3469 03ac 75696E74 		.ascii	"uint32_t\000"
 3469      33325F74 
 3469      00
 3470              	.LASF93:
 3471 03b5 50574D43 		.ascii	"PWMConfig\000"
 3471      6F6E6669 
 3471      6700
 3472              	.LASF20:
 3473 03bf 74736C69 		.ascii	"tslices_t\000"
 3473      6365735F 
 3473      7400
 3474              	.LASF11:
 3475 03c9 6C6F6E67 		.ascii	"long unsigned int\000"
 3475      20756E73 
 3475      69676E65 
 3475      6420696E 
 3475      7400
 3476              	.LASF63:
 3477 03db 50574D5F 		.ascii	"PWM_STOP\000"
 3477      53544F50 
 3477      00
 3478              	.LASF60:
 3479 03e4 63686172 		.ascii	"char\000"
 3479      00
 3480              	.LASF86:
 3481 03e9 6D6F6465 		.ascii	"mode\000"
 3481      00
 3482              	.LASF72:
 3483 03ee 534D4352 		.ascii	"SMCR\000"
 3483      00
 3484              	.LASF68:
 3485 03f3 636F6E66 		.ascii	"config\000"
 3485      696700
 3486              	.LASF78:
 3487 03fa 444D4152 		.ascii	"DMAR\000"
 3487      00
 3488              	.LASF76:
 3489 03ff 43434552 		.ascii	"CCER\000"
 3489      00
 3490              	.LASF55:
 3491 0404 6D5F6E65 		.ascii	"m_next\000"
 3491      787400
 3492              	.LASF24:
 3493 040b 73797374 		.ascii	"systime_t\000"
 3493      696D655F 
 3493      7400
 3494              	.LASF43:
 3495 0415 705F7265 		.ascii	"p_realprio\000"
 3495      616C7072 
 3495      696F00
 3496              	.LASF37:
 3497 0420 705F7469 		.ascii	"p_time\000"
 3497      6D6500
 3498              	.LASF88:
 3499 0427 50574D43 		.ascii	"PWMChannelConfig\000"
 3499      68616E6E 
 3499      656C436F 
ARM GAS  /var/folders/ng/s8655sgx1ys_4lf9jzm2w6n00000gn/T//ccmm4r0w.s 			page 66


 3499      6E666967 
 3499      00
 3500              	.LASF49:
 3501 0438 696E7463 		.ascii	"intctx\000"
 3501      747800
 3502              	.LASF39:
 3503 043f 705F6D73 		.ascii	"p_msgqueue\000"
 3503      67717565 
 3503      756500
 3504              	.LASF121:
 3505 044a 63684D74 		.ascii	"chMtxInit\000"
 3505      78496E69 
 3505      7400
 3506              	.LASF102:
 3507 0454 6D757369 		.ascii	"music_playNotesAsync\000"
 3507      635F706C 
 3507      61794E6F 
 3507      74657341 
 3507      73796E63 
 3508              	.LASF80:
 3509 0469 43435235 		.ascii	"CCR5\000"
 3509      00
 3510              	.LASF81:
 3511 046e 43435236 		.ascii	"CCR6\000"
 3511      00
 3512              	.LASF109:
 3513 0473 5F617379 		.ascii	"_asyncNotes\000"
 3513      6E634E6F 
 3513      74657300 
 3514              	.LASF119:
 3515 047f 63684D73 		.ascii	"chMsgWait\000"
 3515      67576169 
 3515      7400
 3516              	.LASF97:
 3517 0489 6D757369 		.ascii	"music_playNote\000"
 3517      635F706C 
 3517      61794E6F 
 3517      746500
 3518              	.LASF3:
 3519 0498 75696E74 		.ascii	"uint8_t\000"
 3519      385F7400 
 3520              	.LASF66:
 3521 04a0 50574D44 		.ascii	"PWMDriver\000"
 3521      72697665 
 3521      7200
 3522              	.LASF65:
 3523 04aa 70776D73 		.ascii	"pwmstate_t\000"
 3523      74617465 
 3523      5F7400
 3524              	.LASF99:
 3525 04b5 6D757369 		.ascii	"music_playNotes\000"
 3525      635F706C 
 3525      61794E6F 
 3525      74657300 
 3526              	.LASF58:
 3527 04c5 77746F62 		.ascii	"wtobjp\000"
 3527      6A7000
ARM GAS  /var/folders/ng/s8655sgx1ys_4lf9jzm2w6n00000gn/T//ccmm4r0w.s 			page 67


 3528              	.LASF32:
 3529 04cc 705F6E61 		.ascii	"p_name\000"
 3529      6D6500
 3530              	.LASF103:
 3531 04d3 5F70776D 		.ascii	"_pwmcfg2\000"
 3531      63666732 
 3531      00
 3532              	.LASF114:
 3533 04dc 70776D45 		.ascii	"pwmEnableChannel\000"
 3533      6E61626C 
 3533      65436861 
 3533      6E6E656C 
 3533      00
 3534              	.LASF100:
 3535 04ed 6E6F7465 		.ascii	"notes\000"
 3535      7300
 3536              	.LASF70:
 3537 04f3 636C6F63 		.ascii	"clock\000"
 3537      6B00
 3538              	.LASF40:
 3539 04f9 705F6D73 		.ascii	"p_msg\000"
 3539      6700
 3540              	.LASF101:
 3541 04ff 6E756D4E 		.ascii	"numNotes\000"
 3541      6F746573 
 3541      00
 3542              	.LASF62:
 3543 0508 50574D5F 		.ascii	"PWM_UNINIT\000"
 3543      554E494E 
 3543      495400
 3544              	.LASF54:
 3545 0513 6D5F6F77 		.ascii	"m_owner\000"
 3545      6E657200 
 3546              	.LASF107:
 3547 051b 5F62757A 		.ascii	"_buzzerMtx\000"
 3547      7A65724D 
 3547      747800
 3548              	.LASF29:
 3549 0526 705F6374 		.ascii	"p_ctx\000"
 3549      7800
 3550              	.LASF38:
 3551 052c 705F7761 		.ascii	"p_waiting\000"
 3551      6974696E 
 3551      6700
 3552              	.LASF92:
 3553 0536 64696572 		.ascii	"dier\000"
 3553      00
 3554              		.ident	"GCC: (GNU Tools for ARM Embedded Processors) 4.7.4 20130913 (release) [ARM/embedded-4_7-br
ARM GAS  /var/folders/ng/s8655sgx1ys_4lf9jzm2w6n00000gn/T//ccmm4r0w.s 			page 68


DEFINED SYMBOLS
                            *ABS*:0000000000000000 music.c
/var/folders/ng/s8655sgx1ys_4lf9jzm2w6n00000gn/T//ccmm4r0w.s:20     .text._play_note:0000000000000000 $t
/var/folders/ng/s8655sgx1ys_4lf9jzm2w6n00000gn/T//ccmm4r0w.s:26     .text._play_note:0000000000000000 _play_note
/var/folders/ng/s8655sgx1ys_4lf9jzm2w6n00000gn/T//ccmm4r0w.s:123    .text._play_note:0000000000000084 $d
/var/folders/ng/s8655sgx1ys_4lf9jzm2w6n00000gn/T//ccmm4r0w.s:131    .text.MusicThread:0000000000000000 $t
/var/folders/ng/s8655sgx1ys_4lf9jzm2w6n00000gn/T//ccmm4r0w.s:136    .text.MusicThread:0000000000000000 MusicThread
/var/folders/ng/s8655sgx1ys_4lf9jzm2w6n00000gn/T//ccmm4r0w.s:198    .text.MusicThread:0000000000000040 $d
/var/folders/ng/s8655sgx1ys_4lf9jzm2w6n00000gn/T//ccmm4r0w.s:205    .text._music_init:0000000000000000 $t
/var/folders/ng/s8655sgx1ys_4lf9jzm2w6n00000gn/T//ccmm4r0w.s:211    .text._music_init:0000000000000000 _music_init
/var/folders/ng/s8655sgx1ys_4lf9jzm2w6n00000gn/T//ccmm4r0w.s:467    .bss._buzzerMtx:0000000000000000 .LANCHOR1
/var/folders/ng/s8655sgx1ys_4lf9jzm2w6n00000gn/T//ccmm4r0w.s:474    .bss.waMusicThread:0000000000000000 .LANCHOR4
/var/folders/ng/s8655sgx1ys_4lf9jzm2w6n00000gn/T//ccmm4r0w.s:509    .bss._asyncMusicThread:0000000000000000 .LANCHOR5
/var/folders/ng/s8655sgx1ys_4lf9jzm2w6n00000gn/T//ccmm4r0w.s:252    .text.music_playNote:0000000000000000 $t
/var/folders/ng/s8655sgx1ys_4lf9jzm2w6n00000gn/T//ccmm4r0w.s:258    .text.music_playNote:0000000000000000 music_playNote
/var/folders/ng/s8655sgx1ys_4lf9jzm2w6n00000gn/T//ccmm4r0w.s:293    .text.music_playNotes:0000000000000000 $t
/var/folders/ng/s8655sgx1ys_4lf9jzm2w6n00000gn/T//ccmm4r0w.s:299    .text.music_playNotes:0000000000000000 music_playNotes
/var/folders/ng/s8655sgx1ys_4lf9jzm2w6n00000gn/T//ccmm4r0w.s:385    .text.music_playNotes:0000000000000068 $d
/var/folders/ng/s8655sgx1ys_4lf9jzm2w6n00000gn/T//ccmm4r0w.s:390    .text.music_playNotesAsync:0000000000000000 $t
/var/folders/ng/s8655sgx1ys_4lf9jzm2w6n00000gn/T//ccmm4r0w.s:396    .text.music_playNotesAsync:0000000000000000 music_playNotesAsync
/var/folders/ng/s8655sgx1ys_4lf9jzm2w6n00000gn/T//ccmm4r0w.s:447    .text.music_playNotesAsync:000000000000002c $d
/var/folders/ng/s8655sgx1ys_4lf9jzm2w6n00000gn/T//ccmm4r0w.s:463    .bss._asyncNumNotes:0000000000000000 _asyncNumNotes
/var/folders/ng/s8655sgx1ys_4lf9jzm2w6n00000gn/T//ccmm4r0w.s:484    .bss._asyncNotes:0000000000000000 _asyncNotes
/var/folders/ng/s8655sgx1ys_4lf9jzm2w6n00000gn/T//ccmm4r0w.s:512    .bss._asyncMusicThread:0000000000000000 _asyncMusicThread
/var/folders/ng/s8655sgx1ys_4lf9jzm2w6n00000gn/T//ccmm4r0w.s:470    .bss._buzzerMtx:0000000000000000 _buzzerMtx
/var/folders/ng/s8655sgx1ys_4lf9jzm2w6n00000gn/T//ccmm4r0w.s:459    .bss._asyncNumNotes:0000000000000000 $d
/var/folders/ng/s8655sgx1ys_4lf9jzm2w6n00000gn/T//ccmm4r0w.s:466    .bss._buzzerMtx:0000000000000000 $d
/var/folders/ng/s8655sgx1ys_4lf9jzm2w6n00000gn/T//ccmm4r0w.s:473    .bss.waMusicThread:0000000000000000 $d
/var/folders/ng/s8655sgx1ys_4lf9jzm2w6n00000gn/T//ccmm4r0w.s:477    .bss.waMusicThread:0000000000000000 waMusicThread
/var/folders/ng/s8655sgx1ys_4lf9jzm2w6n00000gn/T//ccmm4r0w.s:480    .bss._asyncNotes:0000000000000000 $d
/var/folders/ng/s8655sgx1ys_4lf9jzm2w6n00000gn/T//ccmm4r0w.s:487    .data._pwmcfg2:0000000000000000 $d
/var/folders/ng/s8655sgx1ys_4lf9jzm2w6n00000gn/T//ccmm4r0w.s:491    .data._pwmcfg2:0000000000000000 _pwmcfg2
/var/folders/ng/s8655sgx1ys_4lf9jzm2w6n00000gn/T//ccmm4r0w.s:508    .bss._asyncMusicThread:0000000000000000 $d
                     .debug_frame:0000000000000010 $d
/var/folders/ng/s8655sgx1ys_4lf9jzm2w6n00000gn/T//ccmm4r0w.s:130    .text._play_note:000000000000008c $t
/var/folders/ng/s8655sgx1ys_4lf9jzm2w6n00000gn/T//ccmm4r0w.s:204    .text.MusicThread:000000000000004c $t
/var/folders/ng/s8655sgx1ys_4lf9jzm2w6n00000gn/T//ccmm4r0w.s:389    .text.music_playNotes:000000000000006c $t
/var/folders/ng/s8655sgx1ys_4lf9jzm2w6n00000gn/T//ccmm4r0w.s:458    .text.music_playNotesAsync:000000000000003c $t

UNDEFINED SYMBOLS
pwmDisableChannel
pwmStart
pwmEnableChannel
chThdSleep
pwmStop
PWMD2
chMsgWait
chMsgRelease
chMtxLock
chMtxUnlock
chMtxInit
chThdCreateStatic
chMtxTryLock
chMsgSend
