ARM GAS  /var/folders/ng/s8655sgx1ys_4lf9jzm2w6n00000gn/T//ccmm4r0w.s 			page 1


   1              		.syntax unified
   2              		.cpu cortex-m4
   3              		.eabi_attribute 27, 3
   4              		.fpu fpv4-sp-d16
   5              		.eabi_attribute 20, 1
   6              		.eabi_attribute 21, 1
   7              		.eabi_attribute 23, 3
   8              		.eabi_attribute 24, 1
   9              		.eabi_attribute 25, 1
  10              		.eabi_attribute 26, 1
  11              		.eabi_attribute 30, 2
  12              		.eabi_attribute 34, 1
  13              		.eabi_attribute 18, 4
  14              		.thumb
  15              		.file	"music.c"
  16              		.text
  17              	.Ltext0:
  18              		.cfi_sections	.debug_frame
  19              		.section	.text._play_note,"ax",%progbits
  20              		.align	2
  21              		.p2align 4,,15
  22              		.global	_play_note
  23              		.thumb
  24              		.thumb_func
  25              		.type	_play_note, %function
  26              	_play_note:
  27              	.LFB119:
  28              		.file 1 "../AithonLibrary/music.c"
  29              		.loc 1 26 0
  30              		.cfi_startproc
  31              		@ args = 0, pretend = 0, frame = 0
  32              		@ frame_needed = 0, uses_anonymous_args = 0
  33              	.LVL0:
  34              		.loc 1 27 0
  35 0000 1429     		cmp	r1, #20
  36              		.loc 1 26 0
  37 0002 70B5     		push	{r4, r5, r6, lr}
  38              	.LCFI0:
  39              		.cfi_def_cfa_offset 16
  40              		.cfi_offset 4, -16
  41              		.cfi_offset 5, -12
  42              		.cfi_offset 6, -8
  43              		.cfi_offset 14, -4
  44              		.loc 1 26 0
  45 0004 0C46     		mov	r4, r1
  46 0006 0646     		mov	r6, r0
  47              		.loc 1 27 0
  48 0008 00D8     		bhi	.L4
  49 000a 70BD     		pop	{r4, r5, r6, pc}
  50              	.L4:
  51              	.LVL1:
  52              	.LBB4:
  53              	.LBB5:
  54              		.loc 1 29 0
  55 000c 1D4D     		ldr	r5, .L5
  56 000e 0121     		movs	r1, #1
  57              	.LVL2:
ARM GAS  /var/folders/ng/s8655sgx1ys_4lf9jzm2w6n00000gn/T//ccmm4r0w.s 			page 2


  58 0010 2846     		mov	r0, r5
  59              	.LVL3:
  60 0012 FFF7FEFF 		bl	pwmDisableChannel
  61              	.LVL4:
  62              		.loc 1 30 0
  63 0016 1C4B     		ldr	r3, .L5+4
  64 0018 44F24022 		movw	r2, #16960
  65 001c C0F20F02 		movt	r2, 15
  66 0020 92FBF6F6 		sdiv	r6, r2, r6
  67              	.LVL5:
  68              		.loc 1 31 0
  69 0024 2846     		mov	r0, r5
  70 0026 1946     		mov	r1, r3
  71              		.loc 1 30 0
  72 0028 9E80     		strh	r6, [r3, #4]	@ movhi
  73              		.loc 1 31 0
  74 002a FFF7FEFF 		bl	pwmStart
  75              	.LVL6:
  76              		.loc 1 32 0
  77 002e 2889     		ldrh	r0, [r5, #8]
  78 0030 48F21F51 		movw	r1, #34079
  79 0034 00EB8003 		add	r3, r0, r0, lsl #2
  80 0038 03EB8302 		add	r2, r3, r3, lsl #2
  81 003c C5F2EB11 		movt	r1, 20971
  82 0040 A1FB0210 		umull	r1, r0, r1, r2
  83 0044 C0F34F12 		ubfx	r2, r0, #5, #16
  84 0048 0121     		movs	r1, #1
  85 004a 2846     		mov	r0, r5
  86              		.loc 1 28 0
  87 004c 143C     		subs	r4, r4, #20
  88              	.LVL7:
  89              		.loc 1 32 0
  90 004e FFF7FEFF 		bl	pwmEnableChannel
  91              	.LVL8:
  92              		.loc 1 33 0
  93 0052 A4B2     		uxth	r4, r4
  94              	.LVL9:
  95 0054 4FF47A71 		mov	r1, #1000
  96 0058 01FB04F2 		mul	r2, r1, r4
  97 005c 44F6D353 		movw	r3, #19923
  98 0060 501E     		subs	r0, r2, #1
  99 0062 C1F26203 		movt	r3, 4194
 100 0066 A3FB0021 		umull	r2, r1, r3, r0
 101 006a 8A09     		lsrs	r2, r1, #6
 102 006c 501C     		adds	r0, r2, #1
 103 006e FFF7FEFF 		bl	chThdSleep
 104              	.LVL10:
 105              		.loc 1 34 0
 106 0072 2846     		mov	r0, r5
 107 0074 FFF7FEFF 		bl	pwmStop
 108              	.LVL11:
 109              		.loc 1 35 0
 110 0078 1420     		movs	r0, #20
 111              	.LBE5:
 112              	.LBE4:
 113              		.loc 1 36 0
 114 007a BDE87040 		pop	{r4, r5, r6, lr}
ARM GAS  /var/folders/ng/s8655sgx1ys_4lf9jzm2w6n00000gn/T//ccmm4r0w.s 			page 3


 115              	.LBB7:
 116              	.LBB6:
 117              		.loc 1 35 0
 118 007e FFF7FEBF 		b	chThdSleep
 119              	.LVL12:
 120              	.L6:
 121 0082 00BF     		.align	2
 122              	.L5:
 123 0084 00000000 		.word	PWMD2
 124 0088 00000000 		.word	.LANCHOR0
 125              	.LBE6:
 126              	.LBE7:
 127              		.cfi_endproc
 128              	.LFE119:
 129              		.size	_play_note, .-_play_note
 130 008c AFF30080 		.section	.text.MusicThread,"ax",%progbits
 131              		.align	2
 132              		.p2align 4,,15
 133              		.thumb
 134              		.thumb_func
 135              		.type	MusicThread, %function
 136              	MusicThread:
 137              	.LFB120:
 138              		.loc 1 40 0
 139              		.cfi_startproc
 140              		@ args = 0, pretend = 0, frame = 0
 141              		@ frame_needed = 0, uses_anonymous_args = 0
 142              	.LVL13:
 143 0000 70B5     		push	{r4, r5, r6, lr}
 144              	.LCFI1:
 145              		.cfi_def_cfa_offset 16
 146              		.cfi_offset 4, -16
 147              		.cfi_offset 5, -12
 148              		.cfi_offset 6, -8
 149              		.cfi_offset 14, -4
 150 0002 0F4D     		ldr	r5, .L13
 151 0004 0F4E     		ldr	r6, .L13+4
 152              	.LVL14:
 153              	.L9:
 154              	.LBB8:
 155              		.loc 1 44 0
 156 0006 FFF7FEFF 		bl	chMsgWait
 157              	.LVL15:
 158 000a 0121     		movs	r1, #1
 159 000c FFF7FEFF 		bl	chMsgRelease
 160              	.LVL16:
 161              		.loc 1 45 0
 162 0010 0D48     		ldr	r0, .L13+8
 163 0012 FFF7FEFF 		bl	chMtxLock
 164              	.LVL17:
 165              		.loc 1 47 0
 166 0016 2B68     		ldr	r3, [r5, #0]
 167 0018 0024     		movs	r4, #0
 168 001a 002B     		cmp	r3, #0
 169 001c 0DDD     		ble	.L10
 170              	.LVL18:
 171              	.L8:
ARM GAS  /var/folders/ng/s8655sgx1ys_4lf9jzm2w6n00000gn/T//ccmm4r0w.s 			page 4


 172              		.loc 1 49 0 discriminator 2
 173 001e 3068     		ldr	r0, [r6, #0]
 174 0020 00EB8402 		add	r2, r0, r4, lsl #2
 175 0024 30F82430 		ldrh	r3, [r0, r4, lsl #2]
 176 0028 5188     		ldrh	r1, [r2, #2]
 177 002a 98B2     		uxth	r0, r3
 178 002c 89B2     		uxth	r1, r1
 179 002e FFF7FEFF 		bl	_play_note
 180              	.LVL19:
 181              		.loc 1 47 0 discriminator 2
 182 0032 2868     		ldr	r0, [r5, #0]
 183 0034 0134     		adds	r4, r4, #1
 184              	.LVL20:
 185 0036 A042     		cmp	r0, r4
 186 0038 F1DC     		bgt	.L8
 187              	.LVL21:
 188              	.L10:
 189              		.loc 1 51 0
 190 003a FFF7FEFF 		bl	chMtxUnlock
 191              	.LVL22:
 192              	.LBE8:
 193              		.loc 1 52 0
 194 003e E2E7     		b	.L9
 195              	.L14:
 196              		.align	2
 197              	.L13:
 198 0040 00000000 		.word	.LANCHOR2
 199 0044 00000000 		.word	.LANCHOR3
 200 0048 00000000 		.word	.LANCHOR1
 201              		.cfi_endproc
 202              	.LFE120:
 203              		.size	MusicThread, .-MusicThread
 204 004c AFF30080 		.section	.text._music_init,"ax",%progbits
 205              		.align	2
 206              		.p2align 4,,15
 207              		.global	_music_init
 208              		.thumb
 209              		.thumb_func
 210              		.type	_music_init, %function
 211              	_music_init:
 212              	.LFB121:
 213              		.loc 1 57 0
 214              		.cfi_startproc
 215              		@ args = 0, pretend = 0, frame = 0
 216              		@ frame_needed = 0, uses_anonymous_args = 0
 217 0000 00B5     		push	{lr}
 218              	.LCFI2:
 219              		.cfi_def_cfa_offset 4
 220              		.cfi_offset 14, -4
 221              		.loc 1 58 0
 222 0002 40F20000 		movw	r0, #:lower16:.LANCHOR1
 223              		.loc 1 57 0
 224 0006 83B0     		sub	sp, sp, #12
 225              	.LCFI3:
 226              		.cfi_def_cfa_offset 16
 227              		.loc 1 58 0
 228 0008 C0F20000 		movt	r0, #:upper16:.LANCHOR1
ARM GAS  /var/folders/ng/s8655sgx1ys_4lf9jzm2w6n00000gn/T//ccmm4r0w.s 			page 5


 229 000c FFF7FEFF 		bl	chMtxInit
 230              	.LVL23:
 231              		.loc 1 59 0
 232 0010 0023     		movs	r3, #0
 233 0012 0093     		str	r3, [sp, #0]
 234 0014 40F20000 		movw	r0, #:lower16:.LANCHOR4
 235 0018 40F20003 		movw	r3, #:lower16:MusicThread
 236 001c 4FF4DC71 		mov	r1, #440
 237 0020 C0F20000 		movt	r0, #:upper16:.LANCHOR4
 238 0024 7F22     		movs	r2, #127
 239 0026 C0F20003 		movt	r3, #:upper16:MusicThread
 240 002a FFF7FEFF 		bl	chThdCreateStatic
 241              	.LVL24:
 242 002e 40F20001 		movw	r1, #:lower16:.LANCHOR5
 243 0032 C0F20001 		movt	r1, #:upper16:.LANCHOR5
 244 0036 0860     		str	r0, [r1, #0]
 245              		.loc 1 60 0
 246 0038 03B0     		add	sp, sp, #12
 247 003a 00BD     		pop	{pc}
 248              		.cfi_endproc
 249              	.LFE121:
 250              		.size	_music_init, .-_music_init
 251 003c AFF30080 		.section	.text.music_playNote,"ax",%progbits
 252              		.align	2
 253              		.p2align 4,,15
 254              		.global	music_playNote
 255              		.thumb
 256              		.thumb_func
 257              		.type	music_playNote, %function
 258              	music_playNote:
 259              	.LFB122:
 260              		.loc 1 63 0
 261              		.cfi_startproc
 262              		@ args = 0, pretend = 0, frame = 8
 263              		@ frame_needed = 0, uses_anonymous_args = 0
 264 0000 00B5     		push	{lr}
 265              	.LCFI4:
 266              		.cfi_def_cfa_offset 4
 267              		.cfi_offset 14, -4
 268 0002 83B0     		sub	sp, sp, #12
 269              	.LCFI5:
 270              		.cfi_def_cfa_offset 16
 271              		.loc 1 63 0
 272 0004 0190     		str	r0, [sp, #4]
 273              		.loc 1 64 0
 274 0006 40F20000 		movw	r0, #:lower16:.LANCHOR1
 275 000a C0F20000 		movt	r0, #:upper16:.LANCHOR1
 276 000e FFF7FEFF 		bl	chMtxLock
 277              	.LVL25:
 278              		.loc 1 65 0
 279 0012 BDF80400 		ldrh	r0, [sp, #4]
 280 0016 BDF80610 		ldrh	r1, [sp, #6]
 281 001a FFF7FEFF 		bl	_play_note
 282              	.LVL26:
 283              		.loc 1 67 0
 284 001e 03B0     		add	sp, sp, #12
 285 0020 5DF804EB 		pop	{lr}
ARM GAS  /var/folders/ng/s8655sgx1ys_4lf9jzm2w6n00000gn/T//ccmm4r0w.s 			page 6


 286              		.loc 1 66 0
 287 0024 FFF7FEBF 		b	chMtxUnlock
 288              	.LVL27:
 289              		.cfi_endproc
 290              	.LFE122:
 291              		.size	music_playNote, .-music_playNote
 292 0028 AFF30080 		.section	.text.music_playNotes,"ax",%progbits
 292      AFF30080 
 293              		.align	2
 294              		.p2align 4,,15
 295              		.global	music_playNotes
 296              		.thumb
 297              		.thumb_func
 298              		.type	music_playNotes, %function
 299              	music_playNotes:
 300              	.LFB123:
 301              		.loc 1 70 0
 302              		.cfi_startproc
 303              		@ args = 0, pretend = 0, frame = 0
 304              		@ frame_needed = 0, uses_anonymous_args = 0
 305              	.LVL28:
 306 0000 2DE9F041 		push	{r4, r5, r6, r7, r8, lr}
 307              	.LCFI6:
 308              		.cfi_def_cfa_offset 24
 309              		.cfi_offset 4, -24
 310              		.cfi_offset 5, -20
 311              		.cfi_offset 6, -16
 312              		.cfi_offset 7, -12
 313              		.cfi_offset 8, -8
 314              		.cfi_offset 14, -4
 315              		.loc 1 70 0
 316 0004 0F46     		mov	r7, r1
 317 0006 0446     		mov	r4, r0
 318              		.loc 1 71 0
 319 0008 1748     		ldr	r0, .L28
 320              	.LVL29:
 321 000a FFF7FEFF 		bl	chMtxLock
 322              	.LVL30:
 323              		.loc 1 73 0
 324 000e 002F     		cmp	r7, #0
 325 0010 26DD     		ble	.L19
 326 0012 7B1E     		subs	r3, r7, #1
 327 0014 0126     		movs	r6, #1
 328              		.loc 1 75 0
 329 0016 2088     		ldrh	r0, [r4, #0]
 330 0018 6188     		ldrh	r1, [r4, #2]
 331 001a 03EA0608 		and	r8, r3, r6
 332 001e 0425     		movs	r5, #4
 333 0020 FFF7FEFF 		bl	_play_note
 334              	.LVL31:
 335              		.loc 1 73 0
 336 0024 BE42     		cmp	r6, r7
 337 0026 1BD0     		beq	.L19
 338 0028 B8F1000F 		cmp	r8, #0
 339 002c 09D0     		beq	.L18
 340              		.loc 1 75 0
 341 002e 2146     		mov	r1, r4
ARM GAS  /var/folders/ng/s8655sgx1ys_4lf9jzm2w6n00000gn/T//ccmm4r0w.s 			page 7


 342              		.loc 1 73 0
 343 0030 0226     		movs	r6, #2
 344              		.loc 1 75 0
 345 0032 31F8040F 		ldrh	r0, [r1, #4]!
 346 0036 4988     		ldrh	r1, [r1, #2]
 347 0038 FFF7FEFF 		bl	_play_note
 348              	.LVL32:
 349 003c 0825     		movs	r5, #8
 350              		.loc 1 73 0
 351 003e BE42     		cmp	r6, r7
 352 0040 0ED0     		beq	.L19
 353              	.L18:
 354              		.loc 1 69 0 discriminator 2
 355 0042 6219     		adds	r2, r4, r5
 356              		.loc 1 75 0 discriminator 2
 357 0044 605B     		ldrh	r0, [r4, r5]
 358 0046 5188     		ldrh	r1, [r2, #2]
 359 0048 0435     		adds	r5, r5, #4
 360 004a FFF7FEFF 		bl	_play_note
 361              	.LVL33:
 362              		.loc 1 69 0 discriminator 2
 363 004e 6319     		adds	r3, r4, r5
 364              		.loc 1 75 0 discriminator 2
 365 0050 605B     		ldrh	r0, [r4, r5]
 366 0052 5988     		ldrh	r1, [r3, #2]
 367              		.loc 1 73 0 discriminator 2
 368 0054 0236     		adds	r6, r6, #2
 369              		.loc 1 75 0 discriminator 2
 370 0056 FFF7FEFF 		bl	_play_note
 371              	.LVL34:
 372 005a 0435     		adds	r5, r5, #4
 373              		.loc 1 73 0 discriminator 2
 374 005c BE42     		cmp	r6, r7
 375 005e F0D1     		bne	.L18
 376              	.L19:
 377              		.loc 1 78 0
 378 0060 BDE8F041 		pop	{r4, r5, r6, r7, r8, lr}
 379              		.loc 1 77 0
 380 0064 FFF7FEBF 		b	chMtxUnlock
 381              	.LVL35:
 382              	.L29:
 383              		.align	2
 384              	.L28:
 385 0068 00000000 		.word	.LANCHOR1
 386              		.cfi_endproc
 387              	.LFE123:
 388              		.size	music_playNotes, .-music_playNotes
 389 006c AFF30080 		.section	.text.music_playNotesAsync,"ax",%progbits
 390              		.align	2
 391              		.p2align 4,,15
 392              		.global	music_playNotesAsync
 393              		.thumb
 394              		.thumb_func
 395              		.type	music_playNotesAsync, %function
 396              	music_playNotesAsync:
 397              	.LFB124:
 398              		.loc 1 81 0
ARM GAS  /var/folders/ng/s8655sgx1ys_4lf9jzm2w6n00000gn/T//ccmm4r0w.s 			page 8


 399              		.cfi_startproc
 400              		@ args = 0, pretend = 0, frame = 0
 401              		@ frame_needed = 0, uses_anonymous_args = 0
 402              	.LVL36:
 403 0000 38B5     		push	{r3, r4, r5, lr}
 404              	.LCFI7:
 405              		.cfi_def_cfa_offset 16
 406              		.cfi_offset 3, -16
 407              		.cfi_offset 4, -12
 408              		.cfi_offset 5, -8
 409              		.cfi_offset 14, -4
 410              		.loc 1 81 0
 411 0002 0546     		mov	r5, r0
 412              		.loc 1 83 0
 413 0004 0948     		ldr	r0, .L33
 414              	.LVL37:
 415              		.loc 1 81 0
 416 0006 0C46     		mov	r4, r1
 417              		.loc 1 83 0
 418 0008 FFF7FEFF 		bl	chMtxTryLock
 419              	.LVL38:
 420 000c 00B9     		cbnz	r0, .L32
 421 000e 38BD     		pop	{r3, r4, r5, pc}
 422              	.L32:
 423              		.loc 1 88 0
 424 0010 074B     		ldr	r3, .L33+4
 425              		.loc 1 86 0
 426 0012 0849     		ldr	r1, .L33+8
 427              		.loc 1 87 0
 428 0014 084A     		ldr	r2, .L33+12
 429              		.loc 1 86 0
 430 0016 0D60     		str	r5, [r1, #0]
 431              		.loc 1 88 0
 432 0018 1868     		ldr	r0, [r3, #0]
 433              		.loc 1 87 0
 434 001a 1460     		str	r4, [r2, #0]
 435              		.loc 1 88 0
 436 001c 0121     		movs	r1, #1
 437 001e FFF7FEFF 		bl	chMsgSend
 438              	.LVL39:
 439              		.loc 1 90 0
 440 0022 BDE83840 		pop	{r3, r4, r5, lr}
 441              		.loc 1 89 0
 442 0026 FFF7FEBF 		b	chMtxUnlock
 443              	.LVL40:
 444              	.L34:
 445 002a 00BF     		.align	2
 446              	.L33:
 447 002c 00000000 		.word	.LANCHOR1
 448 0030 00000000 		.word	.LANCHOR5
 449 0034 00000000 		.word	.LANCHOR3
 450 0038 00000000 		.word	.LANCHOR2
 451              		.cfi_endproc
 452              	.LFE124:
 453              		.size	music_playNotesAsync, .-music_playNotesAsync
 454              		.global	_asyncNumNotes
 455              		.global	_asyncNotes
ARM GAS  /var/folders/ng/s8655sgx1ys_4lf9jzm2w6n00000gn/T//ccmm4r0w.s 			page 9


 456              		.global	_asyncMusicThread
 457              		.global	_buzzerMtx
 458 003c AFF30080 		.section	.bss._asyncNumNotes,"aw",%nobits
 459              		.align	2
 460              		.set	.LANCHOR2,. + 0
 461              		.type	_asyncNumNotes, %object
 462              		.size	_asyncNumNotes, 4
 463              	_asyncNumNotes:
 464 0000 00000000 		.space	4
 465              		.section	.bss._buzzerMtx,"aw",%nobits
 466              		.align	2
 467              		.set	.LANCHOR1,. + 0
 468              		.type	_buzzerMtx, %object
 469              		.size	_buzzerMtx, 16
 470              	_buzzerMtx:
 471 0000 00000000 		.space	16
 471      00000000 
 471      00000000 
 471      00000000 
 472              		.section	.bss.waMusicThread,"aw",%nobits
 473              		.align	3
 474              		.set	.LANCHOR4,. + 0
 475              		.type	waMusicThread, %object
 476              		.size	waMusicThread, 440
 477              	waMusicThread:
 478 0000 00000000 		.space	440
 478      00000000 
 478      00000000 
 478      00000000 
 478      00000000 
 479              		.section	.bss._asyncNotes,"aw",%nobits
 480              		.align	2
 481              		.set	.LANCHOR3,. + 0
 482              		.type	_asyncNotes, %object
 483              		.size	_asyncNotes, 4
 484              	_asyncNotes:
 485 0000 00000000 		.space	4
 486              		.section	.data._pwmcfg2,"aw",%progbits
 487              		.align	2
 488              		.set	.LANCHOR0,. + 0
 489              		.type	_pwmcfg2, %object
 490              		.size	_pwmcfg2, 56
 491              	_pwmcfg2:
 492 0000 40420F00 		.word	1000000
 493 0004 0100     		.short	1
 494 0006 0000     		.space	2
 495 0008 00000000 		.word	0
 496 000c 00000000 		.word	0
 497 0010 00000000 		.word	0
 498 0014 01000000 		.word	1
 499 0018 00000000 		.word	0
 500 001c 00000000 		.word	0
 501 0020 00000000 		.word	0
 502 0024 00000000 		.word	0
 503 0028 00000000 		.word	0
 504 002c 00000000 		.word	0
 505 0030 00000000 		.word	0
ARM GAS  /var/folders/ng/s8655sgx1ys_4lf9jzm2w6n00000gn/T//ccmm4r0w.s 			page 10


 506 0034 00000000 		.word	0
 507              		.section	.bss._asyncMusicThread,"aw",%nobits
 508              		.align	2
 509              		.set	.LANCHOR5,. + 0
 510              		.type	_asyncMusicThread, %object
 511              		.size	_asyncMusicThread, 4
 512              	_asyncMusicThread:
 513 0000 00000000 		.space	4
 514              		.text
 515              	.Letext0:
 516              		.file 2 "/Users/jseng/gccarm/bin/../lib/gcc/arm-none-eabi/4.7.4/include/stddef.h"
 517              		.file 3 "/Users/jseng/gccarm/bin/../lib/gcc/arm-none-eabi/4.7.4/../../../../arm-none-eabi/include/
 518              		.file 4 "../AithonLibrary/ChibiOS/os/ports/GCC/ARMCMx/chtypes.h"
 519              		.file 5 "../AithonLibrary/ChibiOS/os/kernel/include/chlists.h"
 520              		.file 6 "../AithonLibrary/ChibiOS/os/kernel/include/chthreads.h"
 521              		.file 7 "../AithonLibrary/ChibiOS/os/ports/GCC/ARMCMx/chcore_v7m.h"
 522              		.file 8 "../AithonLibrary/ChibiOS/os/kernel/include/chmtx.h"
 523              		.file 9 "../AithonLibrary/ChibiOS/os/hal/include/pwm.h"
 524              		.file 10 "../AithonLibrary/ChibiOS/os/hal/platforms/STM32/TIMv1/pwm_lld.h"
 525              		.file 11 "../AithonLibrary/ChibiOS/os/hal/platforms/STM32/TIMv1/stm32_tim.h"
 526              		.file 12 "../AithonLibrary/music.h"
 527              		.file 13 "../AithonLibrary/ChibiOS/os/ports/common/ARMCMx/CMSIS/include/core_cm4.h"
 528              		.file 14 "../AithonLibrary/ChibiOS/os/kernel/include/chmsg.h"