ARM GAS  /var/folders/ng/s8655sgx1ys_4lf9jzm2w6n00000gn/T//ccT3xYAZ.s 			page 1


   1              		.syntax unified
   2              		.cpu cortex-m4
   3              		.eabi_attribute 27, 3
   4              		.fpu fpv4-sp-d16
   5              		.eabi_attribute 20, 1
   6              		.eabi_attribute 21, 1
   7              		.eabi_attribute 23, 3
   8              		.eabi_attribute 24, 1
   9              		.eabi_attribute 25, 1
  10              		.eabi_attribute 26, 1
  11              		.eabi_attribute 30, 2
  12              		.eabi_attribute 34, 1
  13              		.eabi_attribute 18, 4
  14              		.thumb
  15              		.file	"pwm_lld.c"
  16              		.text
  17              	.Ltext0:
  18              		.cfi_sections	.debug_frame
  19              		.section	.text.pwm_lld_serve_interrupt,"ax",%progbits
  20              		.align	2
  21              		.p2align 4,,15
  22              		.thumb
  23              		.thumb_func
  24              		.type	pwm_lld_serve_interrupt, %function
  25              	pwm_lld_serve_interrupt:
  26              	.LFB118:
  27              		.file 1 "../AithonLibrary/ChibiOS/os/hal/platforms/STM32/TIMv1/pwm_lld.c"
  28              		.loc 1 112 0
  29              		.cfi_startproc
  30              		@ args = 0, pretend = 0, frame = 0
  31              		@ frame_needed = 0, uses_anonymous_args = 0
  32              	.LVL0:
  33 0000 38B5     		push	{r3, r4, r5, lr}
  34              	.LCFI0:
  35              		.cfi_def_cfa_offset 16
  36              		.cfi_offset 3, -16
  37              		.cfi_offset 4, -12
  38              		.cfi_offset 5, -8
  39              		.cfi_offset 14, -4
  40              		.loc 1 115 0
  41 0002 0369     		ldr	r3, [r0, #16]
  42 0004 1A69     		ldr	r2, [r3, #16]
  43              	.LVL1:
  44              		.loc 1 116 0
  45 0006 DC68     		ldr	r4, [r3, #12]
  46 0008 1440     		ands	r4, r4, r2
  47 000a A4B2     		uxth	r4, r4
  48              	.LVL2:
  49              		.loc 1 117 0
  50 000c E1B2     		uxtb	r1, r4
  51              		.loc 1 118 0
  52 000e 04F00202 		and	r2, r4, #2
  53              		.loc 1 117 0
  54 0012 C943     		mvns	r1, r1
  55              		.loc 1 118 0
  56 0014 92B2     		uxth	r2, r2
  57              		.loc 1 112 0
ARM GAS  /var/folders/ng/s8655sgx1ys_4lf9jzm2w6n00000gn/T//ccT3xYAZ.s 			page 2


  58 0016 0546     		mov	r5, r0
  59              		.loc 1 117 0
  60 0018 1961     		str	r1, [r3, #16]
  61              		.loc 1 118 0
  62 001a 0ABB     		cbnz	r2, .L23
  63              	.LVL3:
  64              	.L2:
  65              		.loc 1 120 0
  66 001c 04F00400 		and	r0, r4, #4
  67 0020 82B2     		uxth	r2, r0
  68 0022 C2B9     		cbnz	r2, .L24
  69              	.L3:
  70              		.loc 1 122 0
  71 0024 04F00800 		and	r0, r4, #8
  72 0028 82B2     		uxth	r2, r0
  73 002a 7AB9     		cbnz	r2, .L25
  74              	.L4:
  75              		.loc 1 124 0
  76 002c 04F01000 		and	r0, r4, #16
  77 0030 82B2     		uxth	r2, r0
  78 0032 32B9     		cbnz	r2, .L26
  79              	.L5:
  80              		.loc 1 126 0
  81 0034 E307     		lsls	r3, r4, #31
  82 0036 03D5     		bpl	.L1
  83              		.loc 1 127 0
  84 0038 6A68     		ldr	r2, [r5, #4]
  85 003a 2846     		mov	r0, r5
  86 003c 9368     		ldr	r3, [r2, #8]
  87 003e 9847     		blx	r3
  88              	.LVL4:
  89              	.L1:
  90 0040 38BD     		pop	{r3, r4, r5, pc}
  91              	.L26:
  92              		.loc 1 125 0
  93 0042 6B68     		ldr	r3, [r5, #4]
  94 0044 2846     		mov	r0, r5
  95 0046 996A     		ldr	r1, [r3, #40]
  96 0048 8847     		blx	r1
  97              	.LVL5:
  98 004a F3E7     		b	.L5
  99              	.L25:
 100              		.loc 1 123 0
 101 004c 6B68     		ldr	r3, [r5, #4]
 102 004e 2846     		mov	r0, r5
 103 0050 196A     		ldr	r1, [r3, #32]
 104 0052 8847     		blx	r1
 105              	.LVL6:
 106 0054 EAE7     		b	.L4
 107              	.L24:
 108              		.loc 1 121 0
 109 0056 6B68     		ldr	r3, [r5, #4]
 110 0058 2846     		mov	r0, r5
 111 005a 9969     		ldr	r1, [r3, #24]
 112 005c 8847     		blx	r1
 113              	.LVL7:
 114 005e E1E7     		b	.L3
ARM GAS  /var/folders/ng/s8655sgx1ys_4lf9jzm2w6n00000gn/T//ccT3xYAZ.s 			page 3


 115              	.LVL8:
 116              	.L23:
 117              		.loc 1 119 0
 118 0060 4368     		ldr	r3, [r0, #4]
 119 0062 1969     		ldr	r1, [r3, #16]
 120 0064 8847     		blx	r1
 121              	.LVL9:
 122 0066 D9E7     		b	.L2
 123              		.cfi_endproc
 124              	.LFE118:
 125              		.size	pwm_lld_serve_interrupt, .-pwm_lld_serve_interrupt
 126 0068 AFF30080 		.section	.text.VectorA4,"ax",%progbits
 126      AFF30080 
 127              		.align	2
 128              		.p2align 4,,15
 129              		.global	VectorA4
 130              		.thumb
 131              		.thumb_func
 132              		.type	VectorA4, %function
 133              	VectorA4:
 134              	.LFB119:
 135              		.loc 1 147 0
 136              		.cfi_startproc
 137              		@ args = 0, pretend = 0, frame = 0
 138              		@ frame_needed = 0, uses_anonymous_args = 0
 139              		.loc 1 152 0
 140 0000 40F20000 		movw	r0, #:lower16:.LANCHOR0
 141 0004 C0F20000 		movt	r0, #:upper16:.LANCHOR0
 142              		.loc 1 147 0
 143 0008 08B5     		push	{r3, lr}
 144              	.LCFI1:
 145              		.cfi_def_cfa_offset 8
 146              		.cfi_offset 3, -8
 147              		.cfi_offset 14, -4
 148              		.loc 1 151 0
 149 000a 0023     		movs	r3, #0
 150              		.loc 1 152 0
 151 000c 4268     		ldr	r2, [r0, #4]
 152              		.loc 1 151 0
 153 000e C4F20103 		movt	r3, 16385
 154 0012 6FF00101 		mvn	r1, #1
 155 0016 1961     		str	r1, [r3, #16]
 156              		.loc 1 152 0
 157 0018 9368     		ldr	r3, [r2, #8]
 158 001a 9847     		blx	r3
 159              	.LVL10:
 160              		.loc 1 155 0
 161 001c BDE80840 		pop	{r3, lr}
 162              		.loc 1 154 0
 163 0020 FFF7FEBF 		b	_port_irq_epilogue
 164              	.LVL11:
 165              		.cfi_endproc
 166              	.LFE119:
 167              		.size	VectorA4, .-VectorA4
 168 0024 AFF30080 		.section	.text.VectorAC,"ax",%progbits
 168      AFF30080 
 168      AFF30080 
ARM GAS  /var/folders/ng/s8655sgx1ys_4lf9jzm2w6n00000gn/T//ccT3xYAZ.s 			page 4


 169              		.align	2
 170              		.p2align 4,,15
 171              		.global	VectorAC
 172              		.thumb
 173              		.thumb_func
 174              		.type	VectorAC, %function
 175              	VectorAC:
 176              	.LFB120:
 177              		.loc 1 168 0
 178              		.cfi_startproc
 179              		@ args = 0, pretend = 0, frame = 0
 180              		@ frame_needed = 0, uses_anonymous_args = 0
 181              		.loc 1 173 0
 182 0000 0023     		movs	r3, #0
 183 0002 C4F20103 		movt	r3, 16385
 184              		.loc 1 168 0
 185 0006 10B5     		push	{r4, lr}
 186              	.LCFI2:
 187              		.cfi_def_cfa_offset 8
 188              		.cfi_offset 4, -8
 189              		.cfi_offset 14, -4
 190              		.loc 1 173 0
 191 0008 1A69     		ldr	r2, [r3, #16]
 192 000a DC68     		ldr	r4, [r3, #12]
 193 000c 1440     		ands	r4, r4, r2
 194 000e A4B2     		uxth	r4, r4
 195              	.LVL12:
 196              		.loc 1 174 0
 197 0010 E1B2     		uxtb	r1, r4
 198              		.loc 1 175 0
 199 0012 04F00200 		and	r0, r4, #2
 200              		.loc 1 174 0
 201 0016 C943     		mvns	r1, r1
 202              		.loc 1 175 0
 203 0018 82B2     		uxth	r2, r0
 204              		.loc 1 174 0
 205 001a 1961     		str	r1, [r3, #16]
 206              		.loc 1 175 0
 207 001c 002A     		cmp	r2, #0
 208 001e 1DD1     		bne	.L45
 209              	.L29:
 210              		.loc 1 177 0
 211 0020 04F00400 		and	r0, r4, #4
 212 0024 82B2     		uxth	r2, r0
 213 0026 A2B9     		cbnz	r2, .L46
 214              	.L30:
 215              		.loc 1 179 0
 216 0028 04F00800 		and	r0, r4, #8
 217 002c 82B2     		uxth	r2, r0
 218 002e 5AB9     		cbnz	r2, .L47
 219              	.L31:
 220              		.loc 1 181 0
 221 0030 04F01004 		and	r4, r4, #16
 222              	.LVL13:
 223 0034 A4B2     		uxth	r4, r4
 224 0036 1CB1     		cbz	r4, .L32
 225              		.loc 1 182 0
ARM GAS  /var/folders/ng/s8655sgx1ys_4lf9jzm2w6n00000gn/T//ccT3xYAZ.s 			page 5


 226 0038 0B48     		ldr	r0, .L48
 227 003a 4268     		ldr	r2, [r0, #4]
 228 003c 936A     		ldr	r3, [r2, #40]
 229 003e 9847     		blx	r3
 230              	.LVL14:
 231              	.L32:
 232              		.loc 1 185 0
 233 0040 BDE81040 		pop	{r4, lr}
 234              		.loc 1 184 0
 235 0044 FFF7FEBF 		b	_port_irq_epilogue
 236              	.LVL15:
 237              	.L47:
 238              		.loc 1 180 0
 239 0048 0748     		ldr	r0, .L48
 240 004a 4368     		ldr	r3, [r0, #4]
 241 004c 196A     		ldr	r1, [r3, #32]
 242 004e 8847     		blx	r1
 243              	.LVL16:
 244 0050 EEE7     		b	.L31
 245              	.L46:
 246              		.loc 1 178 0
 247 0052 0548     		ldr	r0, .L48
 248 0054 4368     		ldr	r3, [r0, #4]
 249 0056 9969     		ldr	r1, [r3, #24]
 250 0058 8847     		blx	r1
 251              	.LVL17:
 252 005a E5E7     		b	.L30
 253              	.L45:
 254              		.loc 1 176 0
 255 005c 0248     		ldr	r0, .L48
 256 005e 4368     		ldr	r3, [r0, #4]
 257 0060 1969     		ldr	r1, [r3, #16]
 258 0062 8847     		blx	r1
 259              	.LVL18:
 260 0064 DCE7     		b	.L29
 261              	.L49:
 262 0066 00BF     		.align	2
 263              	.L48:
 264 0068 00000000 		.word	.LANCHOR0
 265              		.cfi_endproc
 266              	.LFE120:
 267              		.size	VectorAC, .-VectorAC
 268 006c AFF30080 		.section	.text.VectorB0,"ax",%progbits
 269              		.align	2
 270              		.p2align 4,,15
 271              		.global	VectorB0
 272              		.thumb
 273              		.thumb_func
 274              		.type	VectorB0, %function
 275              	VectorB0:
 276              	.LFB121:
 277              		.loc 1 197 0
 278              		.cfi_startproc
 279              		@ args = 0, pretend = 0, frame = 0
 280              		@ frame_needed = 0, uses_anonymous_args = 0
 281 0000 08B5     		push	{r3, lr}
 282              	.LCFI3:
ARM GAS  /var/folders/ng/s8655sgx1ys_4lf9jzm2w6n00000gn/T//ccT3xYAZ.s 			page 6


 283              		.cfi_def_cfa_offset 8
 284              		.cfi_offset 3, -8
 285              		.cfi_offset 14, -4
 286              		.loc 1 201 0
 287 0002 40F20000 		movw	r0, #:lower16:.LANCHOR1
 288 0006 C0F20000 		movt	r0, #:upper16:.LANCHOR1
 289 000a FFF7FEFF 		bl	pwm_lld_serve_interrupt
 290              	.LVL19:
 291              		.loc 1 204 0
 292 000e BDE80840 		pop	{r3, lr}
 293              		.loc 1 203 0
 294 0012 FFF7FEBF 		b	_port_irq_epilogue
 295              	.LVL20:
 296              		.cfi_endproc
 297              	.LFE121:
 298              		.size	VectorB0, .-VectorB0
 299 0016 00BFAFF3 		.section	.text.VectorB4,"ax",%progbits
 299      0080AFF3 
 299      0080
 300              		.align	2
 301              		.p2align 4,,15
 302              		.global	VectorB4
 303              		.thumb
 304              		.thumb_func
 305              		.type	VectorB4, %function
 306              	VectorB4:
 307              	.LFB122:
 308              		.loc 1 216 0
 309              		.cfi_startproc
 310              		@ args = 0, pretend = 0, frame = 0
 311              		@ frame_needed = 0, uses_anonymous_args = 0
 312 0000 08B5     		push	{r3, lr}
 313              	.LCFI4:
 314              		.cfi_def_cfa_offset 8
 315              		.cfi_offset 3, -8
 316              		.cfi_offset 14, -4
 317              		.loc 1 220 0
 318 0002 40F20000 		movw	r0, #:lower16:.LANCHOR2
 319 0006 C0F20000 		movt	r0, #:upper16:.LANCHOR2
 320 000a FFF7FEFF 		bl	pwm_lld_serve_interrupt
 321              	.LVL21:
 322              		.loc 1 223 0
 323 000e BDE80840 		pop	{r3, lr}
 324              		.loc 1 222 0
 325 0012 FFF7FEBF 		b	_port_irq_epilogue
 326              	.LVL22:
 327              		.cfi_endproc
 328              	.LFE122:
 329              		.size	VectorB4, .-VectorB4
 330 0016 00BFAFF3 		.section	.text.VectorB8,"ax",%progbits
 330      0080AFF3 
 330      0080
 331              		.align	2
 332              		.p2align 4,,15
 333              		.global	VectorB8
 334              		.thumb
 335              		.thumb_func
ARM GAS  /var/folders/ng/s8655sgx1ys_4lf9jzm2w6n00000gn/T//ccT3xYAZ.s 			page 7


 336              		.type	VectorB8, %function
 337              	VectorB8:
 338              	.LFB123:
 339              		.loc 1 235 0
 340              		.cfi_startproc
 341              		@ args = 0, pretend = 0, frame = 0
 342              		@ frame_needed = 0, uses_anonymous_args = 0
 343 0000 08B5     		push	{r3, lr}
 344              	.LCFI5:
 345              		.cfi_def_cfa_offset 8
 346              		.cfi_offset 3, -8
 347              		.cfi_offset 14, -4
 348              		.loc 1 239 0
 349 0002 40F20000 		movw	r0, #:lower16:.LANCHOR3
 350 0006 C0F20000 		movt	r0, #:upper16:.LANCHOR3
 351 000a FFF7FEFF 		bl	pwm_lld_serve_interrupt
 352              	.LVL23:
 353              		.loc 1 242 0
 354 000e BDE80840 		pop	{r3, lr}
 355              		.loc 1 241 0
 356 0012 FFF7FEBF 		b	_port_irq_epilogue
 357              	.LVL24:
 358              		.cfi_endproc
 359              	.LFE123:
 360              		.size	VectorB8, .-VectorB8
 361 0016 00BFAFF3 		.section	.text.VectorF0,"ax",%progbits
 361      0080AFF3 
 361      0080
 362              		.align	2
 363              		.p2align 4,,15
 364              		.global	VectorF0
 365              		.thumb
 366              		.thumb_func
 367              		.type	VectorF0, %function
 368              	VectorF0:
 369              	.LFB124:
 370              		.loc 1 276 0
 371              		.cfi_startproc
 372              		@ args = 0, pretend = 0, frame = 0
 373              		@ frame_needed = 0, uses_anonymous_args = 0
 374              		.loc 1 281 0
 375 0000 40F20000 		movw	r0, #:lower16:.LANCHOR4
 376 0004 C0F20000 		movt	r0, #:upper16:.LANCHOR4
 377              		.loc 1 276 0
 378 0008 08B5     		push	{r3, lr}
 379              	.LCFI6:
 380              		.cfi_def_cfa_offset 8
 381              		.cfi_offset 3, -8
 382              		.cfi_offset 14, -4
 383              		.loc 1 280 0
 384 000a 4FF48063 		mov	r3, #1024
 385              		.loc 1 281 0
 386 000e 4268     		ldr	r2, [r0, #4]
 387              		.loc 1 280 0
 388 0010 C4F20103 		movt	r3, 16385
 389 0014 6FF00101 		mvn	r1, #1
 390 0018 1961     		str	r1, [r3, #16]
ARM GAS  /var/folders/ng/s8655sgx1ys_4lf9jzm2w6n00000gn/T//ccT3xYAZ.s 			page 8


 391              		.loc 1 281 0
 392 001a 9368     		ldr	r3, [r2, #8]
 393 001c 9847     		blx	r3
 394              	.LVL25:
 395              		.loc 1 284 0
 396 001e BDE80840 		pop	{r3, lr}
 397              		.loc 1 283 0
 398 0022 FFF7FEBF 		b	_port_irq_epilogue
 399              	.LVL26:
 400              		.cfi_endproc
 401              	.LFE124:
 402              		.size	VectorF0, .-VectorF0
 403 0026 00BFAFF3 		.section	.text.VectorF8,"ax",%progbits
 403      0080AFF3 
 403      0080
 404              		.align	2
 405              		.p2align 4,,15
 406              		.global	VectorF8
 407              		.thumb
 408              		.thumb_func
 409              		.type	VectorF8, %function
 410              	VectorF8:
 411              	.LFB125:
 412              		.loc 1 297 0
 413              		.cfi_startproc
 414              		@ args = 0, pretend = 0, frame = 0
 415              		@ frame_needed = 0, uses_anonymous_args = 0
 416              		.loc 1 302 0
 417 0000 4FF48063 		mov	r3, #1024
 418 0004 C4F20103 		movt	r3, 16385
 419              		.loc 1 297 0
 420 0008 10B5     		push	{r4, lr}
 421              	.LCFI7:
 422              		.cfi_def_cfa_offset 8
 423              		.cfi_offset 4, -8
 424              		.cfi_offset 14, -4
 425              		.loc 1 302 0
 426 000a 1A69     		ldr	r2, [r3, #16]
 427 000c DC68     		ldr	r4, [r3, #12]
 428 000e 1440     		ands	r4, r4, r2
 429 0010 A4B2     		uxth	r4, r4
 430              	.LVL27:
 431              		.loc 1 303 0
 432 0012 E1B2     		uxtb	r1, r4
 433              		.loc 1 304 0
 434 0014 04F00200 		and	r0, r4, #2
 435              		.loc 1 303 0
 436 0018 C943     		mvns	r1, r1
 437              		.loc 1 304 0
 438 001a 82B2     		uxth	r2, r0
 439              		.loc 1 303 0
 440 001c 1961     		str	r1, [r3, #16]
 441              		.loc 1 304 0
 442 001e 002A     		cmp	r2, #0
 443 0020 1DD1     		bne	.L71
 444              	.L55:
 445              		.loc 1 306 0
ARM GAS  /var/folders/ng/s8655sgx1ys_4lf9jzm2w6n00000gn/T//ccT3xYAZ.s 			page 9


 446 0022 04F00400 		and	r0, r4, #4
 447 0026 82B2     		uxth	r2, r0
 448 0028 A2B9     		cbnz	r2, .L72
 449              	.L56:
 450              		.loc 1 308 0
 451 002a 04F00800 		and	r0, r4, #8
 452 002e 82B2     		uxth	r2, r0
 453 0030 5AB9     		cbnz	r2, .L73
 454              	.L57:
 455              		.loc 1 310 0
 456 0032 04F01004 		and	r4, r4, #16
 457              	.LVL28:
 458 0036 A4B2     		uxth	r4, r4
 459 0038 1CB1     		cbz	r4, .L58
 460              		.loc 1 311 0
 461 003a 0B48     		ldr	r0, .L74
 462 003c 4268     		ldr	r2, [r0, #4]
 463 003e 936A     		ldr	r3, [r2, #40]
 464 0040 9847     		blx	r3
 465              	.LVL29:
 466              	.L58:
 467              		.loc 1 314 0
 468 0042 BDE81040 		pop	{r4, lr}
 469              		.loc 1 313 0
 470 0046 FFF7FEBF 		b	_port_irq_epilogue
 471              	.LVL30:
 472              	.L73:
 473              		.loc 1 309 0
 474 004a 0748     		ldr	r0, .L74
 475 004c 4368     		ldr	r3, [r0, #4]
 476 004e 196A     		ldr	r1, [r3, #32]
 477 0050 8847     		blx	r1
 478              	.LVL31:
 479 0052 EEE7     		b	.L57
 480              	.L72:
 481              		.loc 1 307 0
 482 0054 0448     		ldr	r0, .L74
 483 0056 4368     		ldr	r3, [r0, #4]
 484 0058 9969     		ldr	r1, [r3, #24]
 485 005a 8847     		blx	r1
 486              	.LVL32:
 487 005c E5E7     		b	.L56
 488              	.L71:
 489              		.loc 1 305 0
 490 005e 0248     		ldr	r0, .L74
 491 0060 4368     		ldr	r3, [r0, #4]
 492 0062 1969     		ldr	r1, [r3, #16]
 493 0064 8847     		blx	r1
 494              	.LVL33:
 495 0066 DCE7     		b	.L55
 496              	.L75:
 497              		.align	2
 498              	.L74:
 499 0068 00000000 		.word	.LANCHOR4
 500              		.cfi_endproc
 501              	.LFE125:
 502              		.size	VectorF8, .-VectorF8
ARM GAS  /var/folders/ng/s8655sgx1ys_4lf9jzm2w6n00000gn/T//ccT3xYAZ.s 			page 10


 503 006c AFF30080 		.section	.text.VectorA0,"ax",%progbits
 504              		.align	2
 505              		.p2align 4,,15
 506              		.global	VectorA0
 507              		.thumb
 508              		.thumb_func
 509              		.type	VectorA0, %function
 510              	VectorA0:
 511              	.LFB126:
 512              		.loc 1 326 0
 513              		.cfi_startproc
 514              		@ args = 0, pretend = 0, frame = 0
 515              		@ frame_needed = 0, uses_anonymous_args = 0
 516 0000 08B5     		push	{r3, lr}
 517              	.LCFI8:
 518              		.cfi_def_cfa_offset 8
 519              		.cfi_offset 3, -8
 520              		.cfi_offset 14, -4
 521              		.loc 1 330 0
 522 0002 40F20000 		movw	r0, #:lower16:.LANCHOR5
 523 0006 C0F20000 		movt	r0, #:upper16:.LANCHOR5
 524 000a FFF7FEFF 		bl	pwm_lld_serve_interrupt
 525              	.LVL34:
 526              		.loc 1 333 0
 527 000e BDE80840 		pop	{r3, lr}
 528              		.loc 1 332 0
 529 0012 FFF7FEBF 		b	_port_irq_epilogue
 530              	.LVL35:
 531              		.cfi_endproc
 532              	.LFE126:
 533              		.size	VectorA0, .-VectorA0
 534 0016 00BFAFF3 		.section	.text.pwm_lld_init,"ax",%progbits
 534      0080AFF3 
 534      0080
 535              		.align	2
 536              		.p2align 4,,15
 537              		.global	pwm_lld_init
 538              		.thumb
 539              		.thumb_func
 540              		.type	pwm_lld_init, %function
 541              	pwm_lld_init:
 542              	.LFB127:
 543              		.loc 1 345 0
 544              		.cfi_startproc
 545              		@ args = 0, pretend = 0, frame = 0
 546              		@ frame_needed = 0, uses_anonymous_args = 0
 547 0000 70B5     		push	{r4, r5, r6, lr}
 548              	.LCFI9:
 549              		.cfi_def_cfa_offset 16
 550              		.cfi_offset 4, -16
 551              		.cfi_offset 5, -12
 552              		.cfi_offset 6, -8
 553              		.cfi_offset 14, -4
 554              		.loc 1 349 0
 555 0002 40F20004 		movw	r4, #:lower16:.LANCHOR0
 556 0006 C0F20004 		movt	r4, #:upper16:.LANCHOR0
 557 000a 2046     		mov	r0, r4
ARM GAS  /var/folders/ng/s8655sgx1ys_4lf9jzm2w6n00000gn/T//ccT3xYAZ.s 			page 11


 558              		.loc 1 355 0
 559 000c 40F20006 		movw	r6, #:lower16:.LANCHOR1
 560              		.loc 1 349 0
 561 0010 FFF7FEFF 		bl	pwmObjectInit
 562              	.LVL36:
 563              		.loc 1 355 0
 564 0014 C0F20006 		movt	r6, #:upper16:.LANCHOR1
 565              		.loc 1 350 0
 566 0018 0023     		movs	r3, #0
 567              		.loc 1 361 0
 568 001a 40F20005 		movw	r5, #:lower16:.LANCHOR2
 569              		.loc 1 350 0
 570 001e C4F20103 		movt	r3, 16385
 571              		.loc 1 355 0
 572 0022 3046     		mov	r0, r6
 573              		.loc 1 361 0
 574 0024 C0F20005 		movt	r5, #:upper16:.LANCHOR2
 575              		.loc 1 350 0
 576 0028 2361     		str	r3, [r4, #16]
 577              		.loc 1 355 0
 578 002a FFF7FEFF 		bl	pwmObjectInit
 579              	.LVL37:
 580              		.loc 1 367 0
 581 002e 40F20004 		movw	r4, #:lower16:.LANCHOR3
 582              		.loc 1 356 0
 583 0032 4FF08041 		mov	r1, #1073741824
 584              		.loc 1 361 0
 585 0036 2846     		mov	r0, r5
 586              		.loc 1 356 0
 587 0038 3161     		str	r1, [r6, #16]
 588              		.loc 1 367 0
 589 003a C0F20004 		movt	r4, #:upper16:.LANCHOR3
 590              		.loc 1 361 0
 591 003e FFF7FEFF 		bl	pwmObjectInit
 592              	.LVL38:
 593              		.loc 1 362 0
 594 0042 4FF48062 		mov	r2, #1024
 595 0046 C4F20002 		movt	r2, 16384
 596              		.loc 1 367 0
 597 004a 2046     		mov	r0, r4
 598              		.loc 1 379 0
 599 004c 40F20006 		movw	r6, #:lower16:.LANCHOR4
 600              		.loc 1 362 0
 601 0050 2A61     		str	r2, [r5, #16]
 602              		.loc 1 379 0
 603 0052 C0F20006 		movt	r6, #:upper16:.LANCHOR4
 604              		.loc 1 367 0
 605 0056 FFF7FEFF 		bl	pwmObjectInit
 606              	.LVL39:
 607              		.loc 1 368 0
 608 005a 4FF40063 		mov	r3, #2048
 609 005e C4F20003 		movt	r3, 16384
 610              		.loc 1 379 0
 611 0062 3046     		mov	r0, r6
 612              		.loc 1 385 0
 613 0064 40F20005 		movw	r5, #:lower16:.LANCHOR5
 614 0068 C0F20005 		movt	r5, #:upper16:.LANCHOR5
ARM GAS  /var/folders/ng/s8655sgx1ys_4lf9jzm2w6n00000gn/T//ccT3xYAZ.s 			page 12


 615              		.loc 1 368 0
 616 006c 2361     		str	r3, [r4, #16]
 617              		.loc 1 379 0
 618 006e FFF7FEFF 		bl	pwmObjectInit
 619              	.LVL40:
 620              		.loc 1 380 0
 621 0072 4FF48061 		mov	r1, #1024
 622 0076 C4F20101 		movt	r1, 16385
 623              		.loc 1 385 0
 624 007a 2846     		mov	r0, r5
 625              		.loc 1 380 0
 626 007c 3161     		str	r1, [r6, #16]
 627              		.loc 1 385 0
 628 007e FFF7FEFF 		bl	pwmObjectInit
 629              	.LVL41:
 630              		.loc 1 386 0
 631 0082 4FF48040 		mov	r0, #16384
 632 0086 C4F20100 		movt	r0, 16385
 633 008a 2861     		str	r0, [r5, #16]
 634 008c 70BD     		pop	{r4, r5, r6, pc}
 635              		.cfi_endproc
 636              	.LFE127:
 637              		.size	pwm_lld_init, .-pwm_lld_init
 638 008e 00BF     		.section	.text.pwm_lld_start,"ax",%progbits
 639              		.align	2
 640              		.p2align 4,,15
 641              		.global	pwm_lld_start
 642              		.thumb
 643              		.thumb_func
 644              		.type	pwm_lld_start, %function
 645              	pwm_lld_start:
 646              	.LFB128:
 647              		.loc 1 399 0
 648              		.cfi_startproc
 649              		@ args = 0, pretend = 0, frame = 0
 650              		@ frame_needed = 0, uses_anonymous_args = 0
 651              	.LVL42:
 652              		.loc 1 403 0
 653 0000 0378     		ldrb	r3, [r0, #0]	@ zero_extendqisi2
 654 0002 012B     		cmp	r3, #1
 655              		.loc 1 399 0
 656 0004 2DE9F041 		push	{r4, r5, r6, r7, r8, lr}
 657              	.LCFI10:
 658              		.cfi_def_cfa_offset 24
 659              		.cfi_offset 4, -24
 660              		.cfi_offset 5, -20
 661              		.cfi_offset 6, -16
 662              		.cfi_offset 7, -12
 663              		.cfi_offset 8, -8
 664              		.cfi_offset 14, -4
 665              		.loc 1 399 0
 666 0008 0446     		mov	r4, r0
 667              		.loc 1 403 0
 668 000a 00F08D80 		beq	.L131
 669              		.loc 1 492 0
 670 000e 4168     		ldr	r1, [r0, #4]
 671              		.loc 1 491 0
ARM GAS  /var/folders/ng/s8655sgx1ys_4lf9jzm2w6n00000gn/T//ccT3xYAZ.s 			page 13


 672 0010 0369     		ldr	r3, [r0, #16]
 673              		.loc 1 492 0
 674 0012 486B     		ldr	r0, [r1, #52]
 675              	.LVL43:
 676 0014 9A4E     		ldr	r6, .L148
 677              		.loc 1 491 0
 678 0016 0022     		movs	r2, #0
 679              		.loc 1 492 0
 680 0018 20F0FF05 		bic	r5, r0, #255
 681              		.loc 1 491 0
 682 001c 1A60     		str	r2, [r3, #0]
 683              		.loc 1 492 0
 684 001e DD60     		str	r5, [r3, #12]
 685              		.loc 1 494 0
 686 0020 1A61     		str	r2, [r3, #16]
 687              		.loc 1 495 0
 688 0022 5A63     		str	r2, [r3, #52]
 689              		.loc 1 496 0
 690 0024 9A63     		str	r2, [r3, #56]
 691              		.loc 1 497 0
 692 0026 DA63     		str	r2, [r3, #60]
 693              		.loc 1 498 0
 694 0028 1A64     		str	r2, [r3, #64]
 695              		.loc 1 499 0
 696 002a 5A62     		str	r2, [r3, #36]
 697              	.L87:
 698              	.LVL44:
 699              		.loc 1 503 0
 700 002c E068     		ldr	r0, [r4, #12]
 701 002e 0A68     		ldr	r2, [r1, #0]
 702              		.loc 1 508 0
 703 0030 B4F80880 		ldrh	r8, [r4, #8]
 704              		.loc 1 513 0
 705 0034 CD68     		ldr	r5, [r1, #12]
 706              		.loc 1 503 0
 707 0036 B0FBF2FC 		udiv	ip, r0, r2
 708 003a 0CF1FF30 		add	r0, ip, #-1
 709              	.LVL45:
 710              		.loc 1 507 0
 711 003e 80B2     		uxth	r0, r0
 712              	.LVL46:
 713 0040 9862     		str	r0, [r3, #40]
 714              		.loc 1 508 0
 715 0042 08F1FF37 		add	r7, r8, #-1
 716              		.loc 1 513 0
 717 0046 05F00F02 		and	r2, r5, #15
 718              		.loc 1 509 0
 719 004a C86A     		ldr	r0, [r1, #44]
 720              		.loc 1 508 0
 721 004c BFB2     		uxth	r7, r7
 722              		.loc 1 513 0
 723 004e 012A     		cmp	r2, #1
 724              		.loc 1 508 0
 725 0050 DF62     		str	r7, [r3, #44]
 726              		.loc 1 509 0
 727 0052 5860     		str	r0, [r3, #4]
 728              	.LVL47:
ARM GAS  /var/folders/ng/s8655sgx1ys_4lf9jzm2w6n00000gn/T//ccT3xYAZ.s 			page 14


 729              		.loc 1 513 0
 730 0054 03D0     		beq	.L88
 731              		.loc 1 512 0
 732 0056 022A     		cmp	r2, #2
 733 0058 0CBF     		ite	eq
 734 005a 0322     		moveq	r2, #3
 735 005c 0022     		movne	r2, #0
 736              	.L88:
 737              	.LVL48:
 738              		.loc 1 521 0
 739 005e D1F814C0 		ldr	ip, [r1, #20]
 740 0062 0CF00F07 		and	r7, ip, #15
 741 0066 012F     		cmp	r7, #1
 742 0068 2BD0     		beq	.L92
 743 006a 022F     		cmp	r7, #2
 744 006c 27D0     		beq	.L132
 745              		.loc 1 529 0
 746 006e CF69     		ldr	r7, [r1, #28]
 747 0070 07F00F00 		and	r0, r7, #15
 748 0074 0128     		cmp	r0, #1
 749 0076 2BD0     		beq	.L95
 750              	.LVL49:
 751              	.L135:
 752 0078 0228     		cmp	r0, #2
 753 007a 50D0     		beq	.L133
 754              	.LVL50:
 755              		.loc 1 537 0
 756 007c 486A     		ldr	r0, [r1, #36]
 757 007e 00F00F00 		and	r0, r0, #15
 758 0082 0128     		cmp	r0, #1
 759 0084 2BD0     		beq	.L98
 760              	.LVL51:
 761              	.L136:
 762 0086 0228     		cmp	r0, #2
 763 0088 44D0     		beq	.L134
 764              	.LVL52:
 765              		.loc 1 553 0
 766 008a B442     		cmp	r4, r6
 767 008c 2BD0     		beq	.L100
 768              	.LVL53:
 769              	.L137:
 770              		.loc 1 553 0 is_stmt 0 discriminator 1
 771 008e 7D48     		ldr	r0, .L148+4
 772 0090 8442     		cmp	r4, r0
 773 0092 28D0     		beq	.L100
 774              	.LVL54:
 775              	.L101:
 776              		.loc 1 583 0 is_stmt 1
 777 0094 0120     		movs	r0, #1
 778              		.loc 1 582 0
 779 0096 1A62     		str	r2, [r3, #32]
 780              		.loc 1 583 0
 781 0098 5861     		str	r0, [r3, #20]
 782              		.loc 1 584 0
 783 009a D868     		ldr	r0, [r3, #12]
 784 009c 8C68     		ldr	r4, [r1, #8]
 785              		.loc 1 588 0
ARM GAS  /var/folders/ng/s8655sgx1ys_4lf9jzm2w6n00000gn/T//ccT3xYAZ.s 			page 15


 786 009e 0A6B     		ldr	r2, [r1, #48]
 787              	.LVL55:
 788              		.loc 1 584 0
 789 00a0 002C     		cmp	r4, #0
 790 00a2 0CBF     		ite	eq
 791 00a4 0146     		moveq	r1, r0
 792 00a6 40F00101 		orrne	r1, r0, #1
 793              	.LVL56:
 794 00aa D960     		str	r1, [r3, #12]
 795              		.loc 1 588 0
 796 00ac 42F40040 		orr	r0, r2, #32768
 797              		.loc 1 594 0
 798 00b0 8521     		movs	r1, #133
 799              		.loc 1 585 0
 800 00b2 0022     		movs	r2, #0
 801 00b4 1A61     		str	r2, [r3, #16]
 802              		.loc 1 588 0
 803 00b6 5864     		str	r0, [r3, #68]
 804              		.loc 1 594 0
 805 00b8 1960     		str	r1, [r3, #0]
 806 00ba BDE8F081 		pop	{r4, r5, r6, r7, r8, pc}
 807              	.LVL57:
 808              	.L132:
 809              		.loc 1 523 0
 810 00be 42F02002 		orr	r2, r2, #32
 811              	.LVL58:
 812              	.L92:
 813              		.loc 1 529 0
 814 00c2 CF69     		ldr	r7, [r1, #28]
 815 00c4 07F00F00 		and	r0, r7, #15
 816 00c8 0128     		cmp	r0, #1
 817              		.loc 1 525 0
 818 00ca 42F01002 		orr	r2, r2, #16
 819              	.LVL59:
 820              		.loc 1 529 0
 821 00ce D3D1     		bne	.L135
 822              	.LVL60:
 823              	.L95:
 824              		.loc 1 533 0
 825 00d0 42F48072 		orr	r2, r2, #256
 826              	.LVL61:
 827              	.L141:
 828              		.loc 1 537 0
 829 00d4 486A     		ldr	r0, [r1, #36]
 830 00d6 00F00F00 		and	r0, r0, #15
 831 00da 0128     		cmp	r0, #1
 832 00dc D3D1     		bne	.L136
 833              	.LVL62:
 834              	.L98:
 835              		.loc 1 541 0
 836 00de 42F48052 		orr	r2, r2, #4096
 837              	.LVL63:
 838              	.L140:
 839              		.loc 1 553 0
 840 00e2 B442     		cmp	r4, r6
 841 00e4 D3D1     		bne	.L137
 842              	.LVL64:
ARM GAS  /var/folders/ng/s8655sgx1ys_4lf9jzm2w6n00000gn/T//ccT3xYAZ.s 			page 16


 843              	.L100:
 844              		.loc 1 555 0
 845 00e6 05F0F005 		and	r5, r5, #240
 846 00ea 102D     		cmp	r5, #16
 847 00ec 38D0     		beq	.L103
 848 00ee 202D     		cmp	r5, #32
 849 00f0 34D0     		beq	.L138
 850              	.L102:
 851              	.LVL65:
 852              		.loc 1 563 0
 853 00f2 0CF0F004 		and	r4, ip, #240
 854              	.LVL66:
 855 00f6 102C     		cmp	r4, #16
 856 00f8 37D0     		beq	.L106
 857 00fa 202C     		cmp	r4, #32
 858 00fc 33D0     		beq	.L139
 859              	.LVL67:
 860              	.L105:
 861              		.loc 1 571 0
 862 00fe 07F0F007 		and	r7, r7, #240
 863 0102 102F     		cmp	r7, #16
 864 0104 03D0     		beq	.L108
 865 0106 202F     		cmp	r7, #32
 866 0108 C4D1     		bne	.L101
 867              		.loc 1 573 0
 868 010a 42F40062 		orr	r2, r2, #2048
 869              	.LVL68:
 870              	.L108:
 871              		.loc 1 575 0
 872 010e 42F48062 		orr	r2, r2, #1024
 873              	.LVL69:
 874 0112 BFE7     		b	.L101
 875              	.LVL70:
 876              	.L134:
 877              		.loc 1 539 0
 878 0114 42F40052 		orr	r2, r2, #8192
 879              	.LVL71:
 880              		.loc 1 541 0
 881 0118 42F48052 		orr	r2, r2, #4096
 882              	.LVL72:
 883 011c E1E7     		b	.L140
 884              	.LVL73:
 885              	.L133:
 886              		.loc 1 531 0
 887 011e 42F40072 		orr	r2, r2, #512
 888              	.LVL74:
 889              		.loc 1 533 0
 890 0122 42F48072 		orr	r2, r2, #256
 891              	.LVL75:
 892 0126 D5E7     		b	.L141
 893              	.LVL76:
 894              	.L131:
 895              		.loc 1 406 0
 896 0128 554E     		ldr	r6, .L148
 897 012a B042     		cmp	r0, r6
 898 012c 3CD0     		beq	.L142
 899              		.loc 1 421 0
ARM GAS  /var/folders/ng/s8655sgx1ys_4lf9jzm2w6n00000gn/T//ccT3xYAZ.s 			page 17


 900 012e 564F     		ldr	r7, .L148+8
 901 0130 B842     		cmp	r0, r7
 902 0132 55D0     		beq	.L143
 903              		.loc 1 430 0
 904 0134 5549     		ldr	r1, .L148+12
 905 0136 8842     		cmp	r0, r1
 906 0138 6AD0     		beq	.L144
 907              		.loc 1 439 0
 908 013a 554B     		ldr	r3, .L148+16
 909 013c 9842     		cmp	r0, r3
 910 013e 7FD0     		beq	.L145
 911              		.loc 1 458 0
 912 0140 5048     		ldr	r0, .L148+4
 913              	.LVL77:
 914 0142 8442     		cmp	r4, r0
 915 0144 14D0     		beq	.L146
 916              	.L86:
 917              		.loc 1 473 0
 918 0146 5348     		ldr	r0, .L148+20
 919 0148 8442     		cmp	r4, r0
 920 014a 00F08980 		beq	.L147
 921              	.L84:
 922              		.loc 1 484 0
 923 014e 2369     		ldr	r3, [r4, #16]
 924 0150 6168     		ldr	r1, [r4, #4]
 925 0152 46F66807 		movw	r7, #26728
 926 0156 9F61     		str	r7, [r3, #24]
 927              		.loc 1 486 0
 928 0158 DF61     		str	r7, [r3, #28]
 929 015a 67E7     		b	.L87
 930              	.LVL78:
 931              	.L138:
 932              		.loc 1 557 0
 933 015c 42F00802 		orr	r2, r2, #8
 934              	.LVL79:
 935              	.L103:
 936              		.loc 1 559 0
 937 0160 42F00402 		orr	r2, r2, #4
 938              	.LVL80:
 939 0164 C5E7     		b	.L102
 940              	.LVL81:
 941              	.L139:
 942              		.loc 1 565 0
 943 0166 42F08002 		orr	r2, r2, #128
 944              	.LVL82:
 945              	.L106:
 946              		.loc 1 567 0
 947 016a 42F04002 		orr	r2, r2, #64
 948              	.LVL83:
 949 016e C6E7     		b	.L105
 950              	.LVL84:
 951              	.L146:
 952              		.loc 1 459 0
 953 0170 4FF46055 		mov	r5, #14336
 954 0174 C4F20205 		movt	r5, 16386
 955              		.loc 1 461 0
 956 0178 2C20     		movs	r0, #44
ARM GAS  /var/folders/ng/s8655sgx1ys_4lf9jzm2w6n00000gn/T//ccT3xYAZ.s 			page 18


 957              		.loc 1 459 0
 958 017a 6A6C     		ldr	r2, [r5, #68]
 959 017c 42F00207 		orr	r7, r2, #2
 960 0180 6F64     		str	r7, [r5, #68]
 961              		.loc 1 460 0
 962 0182 696A     		ldr	r1, [r5, #36]
 963 0184 0022     		movs	r2, #0
 964 0186 41F00203 		orr	r3, r1, #2
 965 018a 6B62     		str	r3, [r5, #36]
 966              		.loc 1 461 0
 967 018c 7021     		movs	r1, #112
 968              		.loc 1 460 0
 969 018e 6A62     		str	r2, [r5, #36]
 970              		.loc 1 461 0
 971 0190 FFF7FEFF 		bl	nvicEnableVector
 972              	.LVL85:
 973              		.loc 1 463 0
 974 0194 2E20     		movs	r0, #46
 975 0196 7021     		movs	r1, #112
 976 0198 FFF7FEFF 		bl	nvicEnableVector
 977              	.LVL86:
 978              		.loc 1 468 0
 979 019c 4FF4F440 		mov	r0, #31232
 980 01a0 C0F60320 		movt	r0, 2563
 981 01a4 E060     		str	r0, [r4, #12]
 982 01a6 D2E7     		b	.L84
 983              	.LVL87:
 984              	.L142:
 985              		.loc 1 407 0
 986 01a8 4FF46053 		mov	r3, #14336
 987 01ac C4F20203 		movt	r3, 16386
 988              		.loc 1 408 0
 989 01b0 0025     		movs	r5, #0
 990              		.loc 1 407 0
 991 01b2 586C     		ldr	r0, [r3, #68]
 992              	.LVL88:
 993 01b4 40F00101 		orr	r1, r0, #1
 994 01b8 5964     		str	r1, [r3, #68]
 995              		.loc 1 408 0
 996 01ba 5A6A     		ldr	r2, [r3, #36]
 997 01bc 42F00107 		orr	r7, r2, #1
 998 01c0 5F62     		str	r7, [r3, #36]
 999              		.loc 1 409 0
 1000 01c2 1920     		movs	r0, #25
 1001              		.loc 1 408 0
 1002 01c4 5D62     		str	r5, [r3, #36]
 1003              		.loc 1 409 0
 1004 01c6 7021     		movs	r1, #112
 1005 01c8 FFF7FEFF 		bl	nvicEnableVector
 1006              	.LVL89:
 1007              		.loc 1 411 0
 1008 01cc 1B20     		movs	r0, #27
 1009 01ce 7021     		movs	r1, #112
 1010 01d0 FFF7FEFF 		bl	nvicEnableVector
 1011              	.LVL90:
 1012              		.loc 1 416 0
 1013 01d4 4FF4F443 		mov	r3, #31232
ARM GAS  /var/folders/ng/s8655sgx1ys_4lf9jzm2w6n00000gn/T//ccT3xYAZ.s 			page 19


 1014 01d8 C0F60323 		movt	r3, 2563
 1015 01dc E360     		str	r3, [r4, #12]
 1016 01de B2E7     		b	.L86
 1017              	.LVL91:
 1018              	.L143:
 1019              		.loc 1 422 0
 1020 01e0 4FF46055 		mov	r5, #14336
 1021 01e4 C4F20205 		movt	r5, 16386
 1022              		.loc 1 423 0
 1023 01e8 0027     		movs	r7, #0
 1024              		.loc 1 422 0
 1025 01ea 286C     		ldr	r0, [r5, #64]
 1026              	.LVL92:
 1027 01ec 40F00101 		orr	r1, r0, #1
 1028 01f0 2964     		str	r1, [r5, #64]
 1029              		.loc 1 423 0
 1030 01f2 2B6A     		ldr	r3, [r5, #32]
 1031 01f4 43F00102 		orr	r2, r3, #1
 1032 01f8 2A62     		str	r2, [r5, #32]
 1033 01fa 2F62     		str	r7, [r5, #32]
 1034              		.loc 1 426 0
 1035 01fc 4FF43D45 		mov	r5, #48384
 1036              		.loc 1 424 0
 1037 0200 1C20     		movs	r0, #28
 1038 0202 7021     		movs	r1, #112
 1039              		.loc 1 426 0
 1040 0204 C0F20155 		movt	r5, 1281
 1041              		.loc 1 424 0
 1042 0208 FFF7FEFF 		bl	nvicEnableVector
 1043              	.LVL93:
 1044              		.loc 1 426 0
 1045 020c E560     		str	r5, [r4, #12]
 1046 020e 9AE7     		b	.L86
 1047              	.LVL94:
 1048              	.L144:
 1049              		.loc 1 431 0
 1050 0210 4FF46055 		mov	r5, #14336
 1051 0214 C4F20205 		movt	r5, 16386
 1052              		.loc 1 432 0
 1053 0218 0027     		movs	r7, #0
 1054              		.loc 1 431 0
 1055 021a 286C     		ldr	r0, [r5, #64]
 1056              	.LVL95:
 1057 021c 40F00201 		orr	r1, r0, #2
 1058 0220 2964     		str	r1, [r5, #64]
 1059              		.loc 1 432 0
 1060 0222 2B6A     		ldr	r3, [r5, #32]
 1061 0224 43F00202 		orr	r2, r3, #2
 1062 0228 2A62     		str	r2, [r5, #32]
 1063              		.loc 1 433 0
 1064 022a 1D20     		movs	r0, #29
 1065              		.loc 1 432 0
 1066 022c 2F62     		str	r7, [r5, #32]
 1067              	.L130:
 1068              		.loc 1 476 0
 1069 022e 7021     		movs	r1, #112
 1070 0230 FFF7FEFF 		bl	nvicEnableVector
ARM GAS  /var/folders/ng/s8655sgx1ys_4lf9jzm2w6n00000gn/T//ccT3xYAZ.s 			page 20


 1071              	.LVL96:
 1072              		.loc 1 478 0
 1073 0234 4FF43D40 		mov	r0, #48384
 1074 0238 C0F20150 		movt	r0, 1281
 1075 023c E060     		str	r0, [r4, #12]
 1076 023e 86E7     		b	.L84
 1077              	.LVL97:
 1078              	.L145:
 1079              		.loc 1 440 0
 1080 0240 4FF46055 		mov	r5, #14336
 1081 0244 C4F20205 		movt	r5, 16386
 1082              		.loc 1 442 0
 1083 0248 1E20     		movs	r0, #30
 1084              	.LVL98:
 1085              		.loc 1 440 0
 1086 024a 2F6C     		ldr	r7, [r5, #64]
 1087 024c 47F00401 		orr	r1, r7, #4
 1088 0250 2964     		str	r1, [r5, #64]
 1089              		.loc 1 441 0
 1090 0252 2B6A     		ldr	r3, [r5, #32]
 1091 0254 0027     		movs	r7, #0
 1092 0256 43F00402 		orr	r2, r3, #4
 1093 025a 2A62     		str	r2, [r5, #32]
 1094 025c 2F62     		str	r7, [r5, #32]
 1095 025e E6E7     		b	.L130
 1096              	.L147:
 1097              		.loc 1 474 0
 1098 0260 4FF46051 		mov	r1, #14336
 1099 0264 C4F20201 		movt	r1, 16386
 1100              		.loc 1 476 0
 1101 0268 1820     		movs	r0, #24
 1102              		.loc 1 474 0
 1103 026a 4A6C     		ldr	r2, [r1, #68]
 1104 026c 42F48037 		orr	r7, r2, #65536
 1105 0270 4F64     		str	r7, [r1, #68]
 1106              		.loc 1 475 0
 1107 0272 4D6A     		ldr	r5, [r1, #36]
 1108 0274 0022     		movs	r2, #0
 1109 0276 45F48033 		orr	r3, r5, #65536
 1110 027a 4B62     		str	r3, [r1, #36]
 1111 027c 4A62     		str	r2, [r1, #36]
 1112 027e D6E7     		b	.L130
 1113              	.L149:
 1114              		.align	2
 1115              	.L148:
 1116 0280 00000000 		.word	.LANCHOR0
 1117 0284 00000000 		.word	.LANCHOR4
 1118 0288 00000000 		.word	.LANCHOR1
 1119 028c 00000000 		.word	.LANCHOR2
 1120 0290 00000000 		.word	.LANCHOR3
 1121 0294 00000000 		.word	.LANCHOR5
 1122              		.cfi_endproc
 1123              	.LFE128:
 1124              		.size	pwm_lld_start, .-pwm_lld_start
 1125 0298 AFF30080 		.section	.text.pwm_lld_stop,"ax",%progbits
 1125      AFF30080 
 1126              		.align	2
ARM GAS  /var/folders/ng/s8655sgx1ys_4lf9jzm2w6n00000gn/T//ccT3xYAZ.s 			page 21


 1127              		.p2align 4,,15
 1128              		.global	pwm_lld_stop
 1129              		.thumb
 1130              		.thumb_func
 1131              		.type	pwm_lld_stop, %function
 1132              	pwm_lld_stop:
 1133              	.LFB129:
 1134              		.loc 1 605 0
 1135              		.cfi_startproc
 1136              		@ args = 0, pretend = 0, frame = 0
 1137              		@ frame_needed = 0, uses_anonymous_args = 0
 1138              	.LVL99:
 1139              		.loc 1 608 0
 1140 0000 0378     		ldrb	r3, [r0, #0]	@ zero_extendqisi2
 1141 0002 022B     		cmp	r3, #2
 1142              		.loc 1 605 0
 1143 0004 10B5     		push	{r4, lr}
 1144              	.LCFI11:
 1145              		.cfi_def_cfa_offset 8
 1146              		.cfi_offset 4, -8
 1147              		.cfi_offset 14, -4
 1148              		.loc 1 605 0
 1149 0006 0446     		mov	r4, r0
 1150              		.loc 1 608 0
 1151 0008 00D0     		beq	.L160
 1152              	.LVL100:
 1153              	.L150:
 1154 000a 10BD     		pop	{r4, pc}
 1155              	.LVL101:
 1156              	.L160:
 1157              		.loc 1 617 0
 1158 000c 3249     		ldr	r1, .L166
 1159              		.loc 1 609 0
 1160 000e 0069     		ldr	r0, [r0, #16]
 1161              	.LVL102:
 1162 0010 0022     		movs	r2, #0
 1163              		.loc 1 617 0
 1164 0012 8C42     		cmp	r4, r1
 1165              		.loc 1 609 0
 1166 0014 0260     		str	r2, [r0, #0]
 1167              		.loc 1 610 0
 1168 0016 C260     		str	r2, [r0, #12]
 1169              		.loc 1 611 0
 1170 0018 0261     		str	r2, [r0, #16]
 1171              		.loc 1 613 0
 1172 001a 4264     		str	r2, [r0, #68]
 1173              		.loc 1 617 0
 1174 001c 1AD0     		beq	.L161
 1175              		.loc 1 624 0
 1176 001e 2F4B     		ldr	r3, .L166+4
 1177 0020 9C42     		cmp	r4, r3
 1178 0022 26D0     		beq	.L162
 1179              		.loc 1 630 0
 1180 0024 2E48     		ldr	r0, .L166+8
 1181 0026 8442     		cmp	r4, r0
 1182 0028 2FD0     		beq	.L163
 1183              		.loc 1 636 0
ARM GAS  /var/folders/ng/s8655sgx1ys_4lf9jzm2w6n00000gn/T//ccT3xYAZ.s 			page 22


 1184 002a 2E4A     		ldr	r2, .L166+12
 1185 002c 9442     		cmp	r4, r2
 1186 002e 38D0     		beq	.L164
 1187              		.loc 1 648 0
 1188 0030 2D49     		ldr	r1, .L166+16
 1189 0032 8C42     		cmp	r4, r1
 1190 0034 41D0     		beq	.L165
 1191              	.L159:
 1192              		.loc 1 655 0
 1193 0036 2D4A     		ldr	r2, .L166+20
 1194 0038 9442     		cmp	r4, r2
 1195 003a E6D1     		bne	.L150
 1196              		.loc 1 656 0
 1197 003c 1820     		movs	r0, #24
 1198 003e FFF7FEFF 		bl	nvicDisableVector
 1199              	.LVL103:
 1200              		.loc 1 657 0
 1201 0042 4FF46053 		mov	r3, #14336
 1202 0046 C4F20203 		movt	r3, 16386
 1203 004a 586C     		ldr	r0, [r3, #68]
 1204 004c 20F48031 		bic	r1, r0, #65536
 1205 0050 5964     		str	r1, [r3, #68]
 1206 0052 DAE7     		b	.L150
 1207              	.L161:
 1208              		.loc 1 618 0
 1209 0054 1920     		movs	r0, #25
 1210 0056 FFF7FEFF 		bl	nvicDisableVector
 1211              	.LVL104:
 1212              		.loc 1 619 0
 1213 005a 1B20     		movs	r0, #27
 1214 005c FFF7FEFF 		bl	nvicDisableVector
 1215              	.LVL105:
 1216              		.loc 1 620 0
 1217 0060 4FF46053 		mov	r3, #14336
 1218 0064 C4F20203 		movt	r3, 16386
 1219 0068 586C     		ldr	r0, [r3, #68]
 1220 006a 20F00101 		bic	r1, r0, #1
 1221 006e 5964     		str	r1, [r3, #68]
 1222 0070 E1E7     		b	.L159
 1223              	.L162:
 1224              		.loc 1 625 0
 1225 0072 1C20     		movs	r0, #28
 1226 0074 FFF7FEFF 		bl	nvicDisableVector
 1227              	.LVL106:
 1228              		.loc 1 626 0
 1229 0078 4FF46050 		mov	r0, #14336
 1230 007c C4F20200 		movt	r0, 16386
 1231 0080 016C     		ldr	r1, [r0, #64]
 1232 0082 21F00102 		bic	r2, r1, #1
 1233 0086 0264     		str	r2, [r0, #64]
 1234 0088 D5E7     		b	.L159
 1235              	.L163:
 1236              		.loc 1 631 0
 1237 008a 1D20     		movs	r0, #29
 1238 008c FFF7FEFF 		bl	nvicDisableVector
 1239              	.LVL107:
 1240              		.loc 1 632 0
ARM GAS  /var/folders/ng/s8655sgx1ys_4lf9jzm2w6n00000gn/T//ccT3xYAZ.s 			page 23


 1241 0090 4FF46051 		mov	r1, #14336
 1242 0094 C4F20201 		movt	r1, 16386
 1243 0098 0A6C     		ldr	r2, [r1, #64]
 1244 009a 22F00203 		bic	r3, r2, #2
 1245 009e 0B64     		str	r3, [r1, #64]
 1246 00a0 10BD     		pop	{r4, pc}
 1247              	.L164:
 1248              		.loc 1 637 0
 1249 00a2 1E20     		movs	r0, #30
 1250 00a4 FFF7FEFF 		bl	nvicDisableVector
 1251              	.LVL108:
 1252              		.loc 1 638 0
 1253 00a8 4FF46051 		mov	r1, #14336
 1254 00ac C4F20201 		movt	r1, 16386
 1255 00b0 0B6C     		ldr	r3, [r1, #64]
 1256 00b2 23F00400 		bic	r0, r3, #4
 1257 00b6 0864     		str	r0, [r1, #64]
 1258 00b8 10BD     		pop	{r4, pc}
 1259              	.L165:
 1260              		.loc 1 649 0
 1261 00ba 2C20     		movs	r0, #44
 1262 00bc FFF7FEFF 		bl	nvicDisableVector
 1263              	.LVL109:
 1264              		.loc 1 650 0
 1265 00c0 2E20     		movs	r0, #46
 1266 00c2 FFF7FEFF 		bl	nvicDisableVector
 1267              	.LVL110:
 1268              		.loc 1 651 0
 1269 00c6 4FF46053 		mov	r3, #14336
 1270 00ca C4F20203 		movt	r3, 16386
 1271 00ce 586C     		ldr	r0, [r3, #68]
 1272 00d0 20F00202 		bic	r2, r0, #2
 1273 00d4 5A64     		str	r2, [r3, #68]
 1274 00d6 10BD     		pop	{r4, pc}
 1275              	.L167:
 1276              		.align	2
 1277              	.L166:
 1278 00d8 00000000 		.word	.LANCHOR0
 1279 00dc 00000000 		.word	.LANCHOR1
 1280 00e0 00000000 		.word	.LANCHOR2
 1281 00e4 00000000 		.word	.LANCHOR3
 1282 00e8 00000000 		.word	.LANCHOR4
 1283 00ec 00000000 		.word	.LANCHOR5
 1284              		.cfi_endproc
 1285              	.LFE129:
 1286              		.size	pwm_lld_stop, .-pwm_lld_stop
 1287              		.section	.text.pwm_lld_enable_channel,"ax",%progbits
 1288              		.align	2
 1289              		.p2align 4,,15
 1290              		.global	pwm_lld_enable_channel
 1291              		.thumb
 1292              		.thumb_func
 1293              		.type	pwm_lld_enable_channel, %function
 1294              	pwm_lld_enable_channel:
 1295              	.LFB130:
 1296              		.loc 1 677 0
 1297              		.cfi_startproc
ARM GAS  /var/folders/ng/s8655sgx1ys_4lf9jzm2w6n00000gn/T//ccT3xYAZ.s 			page 24


 1298              		@ args = 0, pretend = 0, frame = 0
 1299              		@ frame_needed = 0, uses_anonymous_args = 0
 1300              		@ link register save eliminated.
 1301              	.LVL111:
 1302 0000 10B4     		push	{r4}
 1303              	.LCFI12:
 1304              		.cfi_def_cfa_offset 4
 1305              		.cfi_offset 4, -4
 1306              		.loc 1 682 0
 1307 0002 4468     		ldr	r4, [r0, #4]
 1308              		.loc 1 679 0
 1309 0004 0369     		ldr	r3, [r0, #16]
 1310              		.loc 1 682 0
 1311 0006 04EBC100 		add	r0, r4, r1, lsl #3
 1312              	.LVL112:
 1313              		.loc 1 679 0
 1314 000a 01F10C04 		add	r4, r1, #12
 1315 000e 03EB8404 		add	r4, r3, r4, lsl #2
 1316              		.loc 1 682 0
 1317 0012 0069     		ldr	r0, [r0, #16]
 1318              		.loc 1 679 0
 1319 0014 6260     		str	r2, [r4, #4]
 1320              		.loc 1 682 0
 1321 0016 48B1     		cbz	r0, .L168
 1322              	.LBB2:
 1323              		.loc 1 686 0
 1324 0018 0220     		movs	r0, #2
 1325              		.loc 1 683 0
 1326 001a DA68     		ldr	r2, [r3, #12]
 1327              	.LVL113:
 1328              		.loc 1 686 0
 1329 001c 00FA01F1 		lsl	r1, r0, r1
 1330              	.LVL114:
 1331 0020 1142     		tst	r1, r2
 1332 0022 03D1     		bne	.L168
 1333              		.loc 1 687 0
 1334 0024 0A43     		orrs	r2, r2, r1
 1335              	.LVL115:
 1336              		.loc 1 688 0
 1337 0026 C843     		mvns	r0, r1
 1338              		.loc 1 687 0
 1339 0028 DA60     		str	r2, [r3, #12]
 1340              		.loc 1 688 0
 1341 002a 1861     		str	r0, [r3, #16]
 1342              	.L168:
 1343              	.LBE2:
 1344              		.loc 1 691 0
 1345 002c 10BC     		pop	{r4}
 1346 002e 7047     		bx	lr
 1347              		.cfi_endproc
 1348              	.LFE130:
 1349              		.size	pwm_lld_enable_channel, .-pwm_lld_enable_channel
 1350              		.section	.text.pwm_lld_disable_channel,"ax",%progbits
 1351              		.align	2
 1352              		.p2align 4,,15
 1353              		.global	pwm_lld_disable_channel
 1354              		.thumb
ARM GAS  /var/folders/ng/s8655sgx1ys_4lf9jzm2w6n00000gn/T//ccT3xYAZ.s 			page 25


 1355              		.thumb_func
 1356              		.type	pwm_lld_disable_channel, %function
 1357              	pwm_lld_disable_channel:
 1358              	.LFB131:
 1359              		.loc 1 705 0
 1360              		.cfi_startproc
 1361              		@ args = 0, pretend = 0, frame = 0
 1362              		@ frame_needed = 0, uses_anonymous_args = 0
 1363              		@ link register save eliminated.
 1364              	.LVL116:
 1365              		.loc 1 707 0
 1366 0000 0369     		ldr	r3, [r0, #16]
 1367 0002 01F10C02 		add	r2, r1, #12
 1368 0006 03EB8202 		add	r2, r3, r2, lsl #2
 1369 000a 0020     		movs	r0, #0
 1370              	.LVL117:
 1371 000c 5060     		str	r0, [r2, #4]
 1372              		.loc 1 708 0
 1373 000e DA68     		ldr	r2, [r3, #12]
 1374 0010 0220     		movs	r0, #2
 1375 0012 00FA01F1 		lsl	r1, r0, r1
 1376              	.LVL118:
 1377 0016 22EA0102 		bic	r2, r2, r1
 1378 001a DA60     		str	r2, [r3, #12]
 1379 001c 7047     		bx	lr
 1380              		.cfi_endproc
 1381              	.LFE131:
 1382              		.size	pwm_lld_disable_channel, .-pwm_lld_disable_channel
 1383              		.global	PWMD9
 1384              		.global	PWMD8
 1385              		.global	PWMD4
 1386              		.global	PWMD3
 1387              		.global	PWMD2
 1388              		.global	PWMD1
 1389 001e 00BF     		.section	.bss.PWMD1,"aw",%nobits
 1390              		.align	2
 1391              		.set	.LANCHOR0,. + 0
 1392              		.type	PWMD1, %object
 1393              		.size	PWMD1, 20
 1394              	PWMD1:
 1395 0000 00000000 		.space	20
 1395      00000000 
 1395      00000000 
 1395      00000000 
 1395      00000000 
 1396              		.section	.bss.PWMD2,"aw",%nobits
 1397              		.align	2
 1398              		.set	.LANCHOR1,. + 0
 1399              		.type	PWMD2, %object
 1400              		.size	PWMD2, 20
 1401              	PWMD2:
 1402 0000 00000000 		.space	20
 1402      00000000 
 1402      00000000 
 1402      00000000 
 1402      00000000 
 1403              		.section	.bss.PWMD3,"aw",%nobits
ARM GAS  /var/folders/ng/s8655sgx1ys_4lf9jzm2w6n00000gn/T//ccT3xYAZ.s 			page 26


 1404              		.align	2
 1405              		.set	.LANCHOR2,. + 0
 1406              		.type	PWMD3, %object
 1407              		.size	PWMD3, 20
 1408              	PWMD3:
 1409 0000 00000000 		.space	20
 1409      00000000 
 1409      00000000 
 1409      00000000 
 1409      00000000 
 1410              		.section	.bss.PWMD4,"aw",%nobits
 1411              		.align	2
 1412              		.set	.LANCHOR3,. + 0
 1413              		.type	PWMD4, %object
 1414              		.size	PWMD4, 20
 1415              	PWMD4:
 1416 0000 00000000 		.space	20
 1416      00000000 
 1416      00000000 
 1416      00000000 
 1416      00000000 
 1417              		.section	.bss.PWMD8,"aw",%nobits
 1418              		.align	2
 1419              		.set	.LANCHOR4,. + 0
 1420              		.type	PWMD8, %object
 1421              		.size	PWMD8, 20
 1422              	PWMD8:
 1423 0000 00000000 		.space	20
 1423      00000000 
 1423      00000000 
 1423      00000000 
 1423      00000000 
 1424              		.section	.bss.PWMD9,"aw",%nobits
 1425              		.align	2
 1426              		.set	.LANCHOR5,. + 0
 1427              		.type	PWMD9, %object
 1428              		.size	PWMD9, 20
 1429              	PWMD9:
 1430 0000 00000000 		.space	20
 1430      00000000 
 1430      00000000 
 1430      00000000 
 1430      00000000 
 1431              		.text
 1432              	.Letext0:
 1433              		.file 2 "/Users/jseng/gccarm/bin/../lib/gcc/arm-none-eabi/4.7.4/../../../../arm-none-eabi/include/
 1434              		.file 3 "../AithonLibrary/ChibiOS/os/hal/platforms/STM32F4xx/stm32f4xx.h"
 1435              		.file 4 "../AithonLibrary/ChibiOS/os/hal/include/pwm.h"
 1436              		.file 5 "../AithonLibrary/ChibiOS/os/hal/platforms/STM32/TIMv1/pwm_lld.h"
 1437              		.file 6 "../AithonLibrary/ChibiOS/os/hal/platforms/STM32/TIMv1/stm32_tim.h"
 1438              		.file 7 "../AithonLibrary/ChibiOS/os/ports/common/ARMCMx/CMSIS/include/core_cm4.h"
 1439              		.file 8 "../AithonLibrary/ChibiOS/os/ports/common/ARMCMx/nvic.h"
 1440              		.file 9 "../AithonLibrary/ChibiOS/os/ports/GCC/ARMCMx/chcore_v7m.h"
 1441              		.section	.debug_info,"",%progbits
 1442              	.Ldebug_info0:
 1443 0000 A40E0000 		.4byte	0xea4
 1444 0004 0200     		.2byte	0x2
ARM GAS  /var/folders/ng/s8655sgx1ys_4lf9jzm2w6n00000gn/T//ccT3xYAZ.s 			page 27


 1445 0006 00000000 		.4byte	.Ldebug_abbrev0
 1446 000a 04       		.byte	0x4
 1447 000b 01       		.uleb128 0x1
 1448 000c AA010000 		.4byte	.LASF201
 1449 0010 01       		.byte	0x1
 1450 0011 3B040000 		.4byte	.LASF202
 1451 0015 00060000 		.4byte	.LASF203
 1452 0019 00000000 		.4byte	.Ldebug_ranges0+0
 1453 001d 00000000 		.4byte	0
 1454 0021 00000000 		.4byte	0
 1455 0025 00000000 		.4byte	.Ldebug_line0
 1456 0029 02       		.uleb128 0x2
 1457 002a 04       		.byte	0x4
 1458 002b 07       		.byte	0x7
 1459 002c 37030000 		.4byte	.LASF0
 1460 0030 03       		.uleb128 0x3
 1461 0031 04       		.byte	0x4
 1462 0032 05       		.byte	0x5
 1463 0033 696E7400 		.ascii	"int\000"
 1464 0037 02       		.uleb128 0x2
 1465 0038 01       		.byte	0x1
 1466 0039 06       		.byte	0x6
 1467 003a 56010000 		.4byte	.LASF1
 1468 003e 04       		.uleb128 0x4
 1469 003f C9080000 		.4byte	.LASF4
 1470 0043 02       		.byte	0x2
 1471 0044 2A       		.byte	0x2a
 1472 0045 49000000 		.4byte	0x49
 1473 0049 02       		.uleb128 0x2
 1474 004a 01       		.byte	0x1
 1475 004b 08       		.byte	0x8
 1476 004c 3D060000 		.4byte	.LASF2
 1477 0050 02       		.uleb128 0x2
 1478 0051 02       		.byte	0x2
 1479 0052 05       		.byte	0x5
 1480 0053 84060000 		.4byte	.LASF3
 1481 0057 04       		.uleb128 0x4
 1482 0058 72020000 		.4byte	.LASF5
 1483 005c 02       		.byte	0x2
 1484 005d 36       		.byte	0x36
 1485 005e 62000000 		.4byte	0x62
 1486 0062 02       		.uleb128 0x2
 1487 0063 02       		.byte	0x2
 1488 0064 07       		.byte	0x7
 1489 0065 C4060000 		.4byte	.LASF6
 1490 0069 04       		.uleb128 0x4
 1491 006a 35060000 		.4byte	.LASF7
 1492 006e 02       		.byte	0x2
 1493 006f 4F       		.byte	0x4f
 1494 0070 74000000 		.4byte	0x74
 1495 0074 02       		.uleb128 0x2
 1496 0075 04       		.byte	0x4
 1497 0076 05       		.byte	0x5
 1498 0077 02020000 		.4byte	.LASF8
 1499 007b 04       		.uleb128 0x4
 1500 007c 27070000 		.4byte	.LASF9
 1501 0080 02       		.byte	0x2
ARM GAS  /var/folders/ng/s8655sgx1ys_4lf9jzm2w6n00000gn/T//ccT3xYAZ.s 			page 28


 1502 0081 50       		.byte	0x50
 1503 0082 86000000 		.4byte	0x86
 1504 0086 02       		.uleb128 0x2
 1505 0087 04       		.byte	0x4
 1506 0088 07       		.byte	0x7
 1507 0089 8B030000 		.4byte	.LASF10
 1508 008d 02       		.uleb128 0x2
 1509 008e 08       		.byte	0x8
 1510 008f 05       		.byte	0x5
 1511 0090 56020000 		.4byte	.LASF11
 1512 0094 02       		.uleb128 0x2
 1513 0095 08       		.byte	0x8
 1514 0096 07       		.byte	0x7
 1515 0097 B9000000 		.4byte	.LASF12
 1516 009b 02       		.uleb128 0x2
 1517 009c 01       		.byte	0x1
 1518 009d 02       		.byte	0x2
 1519 009e 2F060000 		.4byte	.LASF13
 1520 00a2 05       		.uleb128 0x5
 1521 00a3 7B000000 		.4byte	0x7b
 1522 00a7 02       		.uleb128 0x2
 1523 00a8 04       		.byte	0x4
 1524 00a9 07       		.byte	0x7
 1525 00aa E5040000 		.4byte	.LASF14
 1526 00ae 02       		.uleb128 0x2
 1527 00af 01       		.byte	0x1
 1528 00b0 08       		.byte	0x8
 1529 00b1 9A070000 		.4byte	.LASF15
 1530 00b5 06       		.uleb128 0x6
 1531 00b6 E0040000 		.4byte	.LASF204
 1532 00ba 01       		.byte	0x1
 1533 00bb 03       		.byte	0x3
 1534 00bc AA       		.byte	0xaa
 1535 00bd 21030000 		.4byte	0x321
 1536 00c1 07       		.uleb128 0x7
 1537 00c2 E9070000 		.4byte	.LASF16
 1538 00c6 72       		.sleb128 -14
 1539 00c7 07       		.uleb128 0x7
 1540 00c8 68030000 		.4byte	.LASF17
 1541 00cc 74       		.sleb128 -12
 1542 00cd 07       		.uleb128 0x7
 1543 00ce F6020000 		.4byte	.LASF18
 1544 00d2 75       		.sleb128 -11
 1545 00d3 07       		.uleb128 0x7
 1546 00d4 3C070000 		.4byte	.LASF19
 1547 00d8 76       		.sleb128 -10
 1548 00d9 07       		.uleb128 0x7
 1549 00da D5030000 		.4byte	.LASF20
 1550 00de 7B       		.sleb128 -5
 1551 00df 07       		.uleb128 0x7
 1552 00e0 3A080000 		.4byte	.LASF21
 1553 00e4 7C       		.sleb128 -4
 1554 00e5 07       		.uleb128 0x7
 1555 00e6 AD020000 		.4byte	.LASF22
 1556 00ea 7E       		.sleb128 -2
 1557 00eb 07       		.uleb128 0x7
 1558 00ec A3040000 		.4byte	.LASF23
ARM GAS  /var/folders/ng/s8655sgx1ys_4lf9jzm2w6n00000gn/T//ccT3xYAZ.s 			page 29


 1559 00f0 7F       		.sleb128 -1
 1560 00f1 07       		.uleb128 0x7
 1561 00f2 09010000 		.4byte	.LASF24
 1562 00f6 00       		.sleb128 0
 1563 00f7 07       		.uleb128 0x7
 1564 00f8 25000000 		.4byte	.LASF25
 1565 00fc 01       		.sleb128 1
 1566 00fd 07       		.uleb128 0x7
 1567 00fe 0D080000 		.4byte	.LASF26
 1568 0102 02       		.sleb128 2
 1569 0103 07       		.uleb128 0x7
 1570 0104 FB000000 		.4byte	.LASF27
 1571 0108 03       		.sleb128 3
 1572 0109 07       		.uleb128 0x7
 1573 010a 03070000 		.4byte	.LASF28
 1574 010e 04       		.sleb128 4
 1575 010f 07       		.uleb128 0x7
 1576 0110 B9090000 		.4byte	.LASF29
 1577 0114 05       		.sleb128 5
 1578 0115 07       		.uleb128 0x7
 1579 0116 90080000 		.4byte	.LASF30
 1580 011a 06       		.sleb128 6
 1581 011b 07       		.uleb128 0x7
 1582 011c DD090000 		.4byte	.LASF31
 1583 0120 07       		.sleb128 7
 1584 0121 07       		.uleb128 0x7
 1585 0122 D7060000 		.4byte	.LASF32
 1586 0126 08       		.sleb128 8
 1587 0127 07       		.uleb128 0x7
 1588 0128 44050000 		.4byte	.LASF33
 1589 012c 09       		.sleb128 9
 1590 012d 07       		.uleb128 0x7
 1591 012e 6B060000 		.4byte	.LASF34
 1592 0132 0A       		.sleb128 10
 1593 0133 07       		.uleb128 0x7
 1594 0134 ED090000 		.4byte	.LASF35
 1595 0138 0B       		.sleb128 11
 1596 0139 07       		.uleb128 0x7
 1597 013a C4070000 		.4byte	.LASF36
 1598 013e 0C       		.sleb128 12
 1599 013f 07       		.uleb128 0x7
 1600 0140 59050000 		.4byte	.LASF37
 1601 0144 0D       		.sleb128 13
 1602 0145 07       		.uleb128 0x7
 1603 0146 44030000 		.4byte	.LASF38
 1604 014a 0E       		.sleb128 14
 1605 014b 07       		.uleb128 0x7
 1606 014c 1C050000 		.4byte	.LASF39
 1607 0150 0F       		.sleb128 15
 1608 0151 07       		.uleb128 0x7
 1609 0152 32020000 		.4byte	.LASF40
 1610 0156 10       		.sleb128 16
 1611 0157 07       		.uleb128 0x7
 1612 0158 56030000 		.4byte	.LASF41
 1613 015c 11       		.sleb128 17
 1614 015d 07       		.uleb128 0x7
 1615 015e 60090000 		.4byte	.LASF42
ARM GAS  /var/folders/ng/s8655sgx1ys_4lf9jzm2w6n00000gn/T//ccT3xYAZ.s 			page 30


 1616 0162 12       		.sleb128 18
 1617 0163 07       		.uleb128 0x7
 1618 0164 03040000 		.4byte	.LASF43
 1619 0168 13       		.sleb128 19
 1620 0169 07       		.uleb128 0x7
 1621 016a 17000000 		.4byte	.LASF44
 1622 016e 14       		.sleb128 20
 1623 016f 07       		.uleb128 0x7
 1624 0170 A1000000 		.4byte	.LASF45
 1625 0174 15       		.sleb128 21
 1626 0175 07       		.uleb128 0x7
 1627 0176 8F090000 		.4byte	.LASF46
 1628 017a 16       		.sleb128 22
 1629 017b 07       		.uleb128 0x7
 1630 017c 44020000 		.4byte	.LASF47
 1631 0180 17       		.sleb128 23
 1632 0181 07       		.uleb128 0x7
 1633 0182 4B060000 		.4byte	.LASF48
 1634 0186 18       		.sleb128 24
 1635 0187 07       		.uleb128 0x7
 1636 0188 F7040000 		.4byte	.LASF49
 1637 018c 19       		.sleb128 25
 1638 018d 07       		.uleb128 0x7
 1639 018e A3060000 		.4byte	.LASF50
 1640 0192 1A       		.sleb128 26
 1641 0193 07       		.uleb128 0x7
 1642 0194 B0040000 		.4byte	.LASF51
 1643 0198 1B       		.sleb128 27
 1644 0199 07       		.uleb128 0x7
 1645 019a 86080000 		.4byte	.LASF52
 1646 019e 1C       		.sleb128 28
 1647 019f 07       		.uleb128 0x7
 1648 01a0 D3090000 		.4byte	.LASF53
 1649 01a4 1D       		.sleb128 29
 1650 01a5 07       		.uleb128 0x7
 1651 01a6 F1000000 		.4byte	.LASF54
 1652 01aa 1E       		.sleb128 30
 1653 01ab 07       		.uleb128 0x7
 1654 01ac 6C000000 		.4byte	.LASF55
 1655 01b0 1F       		.sleb128 31
 1656 01b1 07       		.uleb128 0x7
 1657 01b2 46090000 		.4byte	.LASF56
 1658 01b6 20       		.sleb128 32
 1659 01b7 07       		.uleb128 0x7
 1660 01b8 67080000 		.4byte	.LASF57
 1661 01bc 21       		.sleb128 33
 1662 01bd 07       		.uleb128 0x7
 1663 01be E4000000 		.4byte	.LASF58
 1664 01c2 22       		.sleb128 34
 1665 01c3 07       		.uleb128 0x7
 1666 01c4 28040000 		.4byte	.LASF59
 1667 01c8 23       		.sleb128 35
 1668 01c9 07       		.uleb128 0x7
 1669 01ca 4F050000 		.4byte	.LASF60
 1670 01ce 24       		.sleb128 36
 1671 01cf 07       		.uleb128 0x7
 1672 01d0 A5080000 		.4byte	.LASF61
ARM GAS  /var/folders/ng/s8655sgx1ys_4lf9jzm2w6n00000gn/T//ccT3xYAZ.s 			page 31


 1673 01d4 25       		.sleb128 37
 1674 01d5 07       		.uleb128 0x7
 1675 01d6 30070000 		.4byte	.LASF62
 1676 01da 26       		.sleb128 38
 1677 01db 07       		.uleb128 0x7
 1678 01dc 74080000 		.4byte	.LASF63
 1679 01e0 27       		.sleb128 39
 1680 01e1 07       		.uleb128 0x7
 1681 01e2 19040000 		.4byte	.LASF64
 1682 01e6 28       		.sleb128 40
 1683 01e7 07       		.uleb128 0x7
 1684 01e8 D5000000 		.4byte	.LASF65
 1685 01ec 29       		.sleb128 41
 1686 01ed 07       		.uleb128 0x7
 1687 01ee 9C020000 		.4byte	.LASF66
 1688 01f2 2A       		.sleb128 42
 1689 01f3 07       		.uleb128 0x7
 1690 01f4 8A040000 		.4byte	.LASF67
 1691 01f8 2B       		.sleb128 43
 1692 01f9 07       		.uleb128 0x7
 1693 01fa B9020000 		.4byte	.LASF68
 1694 01fe 2C       		.sleb128 44
 1695 01ff 07       		.uleb128 0x7
 1696 0200 BD040000 		.4byte	.LASF69
 1697 0204 2D       		.sleb128 45
 1698 0205 07       		.uleb128 0x7
 1699 0206 0A030000 		.4byte	.LASF70
 1700 020a 2E       		.sleb128 46
 1701 020b 07       		.uleb128 0x7
 1702 020c 68070000 		.4byte	.LASF71
 1703 0210 2F       		.sleb128 47
 1704 0211 07       		.uleb128 0x7
 1705 0212 BB060000 		.4byte	.LASF72
 1706 0216 30       		.sleb128 48
 1707 0217 07       		.uleb128 0x7
 1708 0218 C5030000 		.4byte	.LASF73
 1709 021c 31       		.sleb128 49
 1710 021d 07       		.uleb128 0x7
 1711 021e 3A050000 		.4byte	.LASF74
 1712 0222 32       		.sleb128 50
 1713 0223 07       		.uleb128 0x7
 1714 0224 F6050000 		.4byte	.LASF75
 1715 0228 33       		.sleb128 51
 1716 0229 07       		.uleb128 0x7
 1717 022a 91020000 		.4byte	.LASF76
 1718 022e 34       		.sleb128 52
 1719 022f 07       		.uleb128 0x7
 1720 0230 98060000 		.4byte	.LASF77
 1721 0234 35       		.sleb128 53
 1722 0235 07       		.uleb128 0x7
 1723 0236 7B020000 		.4byte	.LASF78
 1724 023a 36       		.sleb128 54
 1725 023b 07       		.uleb128 0x7
 1726 023c BA070000 		.4byte	.LASF79
 1727 0240 37       		.sleb128 55
 1728 0241 07       		.uleb128 0x7
 1729 0242 4C080000 		.4byte	.LASF80
ARM GAS  /var/folders/ng/s8655sgx1ys_4lf9jzm2w6n00000gn/T//ccT3xYAZ.s 			page 32


 1730 0246 38       		.sleb128 56
 1731 0247 07       		.uleb128 0x7
 1732 0248 69090000 		.4byte	.LASF81
 1733 024c 39       		.sleb128 57
 1734 024d 07       		.uleb128 0x7
 1735 024e E6030000 		.4byte	.LASF82
 1736 0252 3A       		.sleb128 58
 1737 0253 07       		.uleb128 0x7
 1738 0254 0A050000 		.4byte	.LASF83
 1739 0258 3B       		.sleb128 59
 1740 0259 07       		.uleb128 0x7
 1741 025a 1D060000 		.4byte	.LASF84
 1742 025e 3C       		.sleb128 60
 1743 025f 07       		.uleb128 0x7
 1744 0260 EE040000 		.4byte	.LASF85
 1745 0264 3D       		.sleb128 61
 1746 0265 07       		.uleb128 0x7
 1747 0266 64020000 		.4byte	.LASF86
 1748 026a 3E       		.sleb128 62
 1749 026b 07       		.uleb128 0x7
 1750 026c 6B050000 		.4byte	.LASF87
 1751 0270 3F       		.sleb128 63
 1752 0271 07       		.uleb128 0x7
 1753 0272 2E000000 		.4byte	.LASF88
 1754 0276 C000     		.sleb128 64
 1755 0278 07       		.uleb128 0x7
 1756 0279 62010000 		.4byte	.LASF89
 1757 027d C100     		.sleb128 65
 1758 027f 07       		.uleb128 0x7
 1759 0280 AB090000 		.4byte	.LASF90
 1760 0284 C200     		.sleb128 66
 1761 0286 07       		.uleb128 0x7
 1762 0287 1B070000 		.4byte	.LASF91
 1763 028b C300     		.sleb128 67
 1764 028d 07       		.uleb128 0x7
 1765 028e 79000000 		.4byte	.LASF92
 1766 0292 C400     		.sleb128 68
 1767 0294 07       		.uleb128 0x7
 1768 0295 8F010000 		.4byte	.LASF93
 1769 0299 C500     		.sleb128 69
 1770 029b 07       		.uleb128 0x7
 1771 029c 20030000 		.4byte	.LASF94
 1772 02a0 C600     		.sleb128 70
 1773 02a2 07       		.uleb128 0x7
 1774 02a3 2E050000 		.4byte	.LASF95
 1775 02a7 C700     		.sleb128 71
 1776 02a9 07       		.uleb128 0x7
 1777 02aa 7E030000 		.4byte	.LASF96
 1778 02ae C800     		.sleb128 72
 1779 02b0 07       		.uleb128 0x7
 1780 02b1 54000000 		.4byte	.LASF97
 1781 02b5 C900     		.sleb128 73
 1782 02b7 07       		.uleb128 0x7
 1783 02b8 B1030000 		.4byte	.LASF98
 1784 02bc CA00     		.sleb128 74
 1785 02be 07       		.uleb128 0x7
 1786 02bf D6070000 		.4byte	.LASF99
ARM GAS  /var/folders/ng/s8655sgx1ys_4lf9jzm2w6n00000gn/T//ccT3xYAZ.s 			page 33


 1787 02c3 CB00     		.sleb128 75
 1788 02c5 07       		.uleb128 0x7
 1789 02c6 C2090000 		.4byte	.LASF100
 1790 02ca CC00     		.sleb128 76
 1791 02cc 07       		.uleb128 0x7
 1792 02cd 8B050000 		.4byte	.LASF101
 1793 02d1 CD00     		.sleb128 77
 1794 02d3 07       		.uleb128 0x7
 1795 02d4 DB080000 		.4byte	.LASF102
 1796 02d8 CE00     		.sleb128 78
 1797 02da 07       		.uleb128 0x7
 1798 02db A4070000 		.4byte	.LASF103
 1799 02df CF00     		.sleb128 79
 1800 02e1 07       		.uleb128 0x7
 1801 02e2 76060000 		.4byte	.LASF104
 1802 02e6 D000     		.sleb128 80
 1803 02e8 07       		.uleb128 0x7
 1804 02e9 1A090000 		.4byte	.LASF105
 1805 02ed D100     		.sleb128 81
 1806 02ef 07       		.uleb128 0x7
 1807 02f0 F9080000 		.4byte	.LASF106
 1808 02f4 D200     		.sleb128 82
 1809 02f6 07       		.uleb128 0x7
 1810 02f7 61000000 		.4byte	.LASF107
 1811 02fb D300     		.sleb128 83
 1812 02fd 07       		.uleb128 0x7
 1813 02fe AF000000 		.4byte	.LASF108
 1814 0302 D400     		.sleb128 84
 1815 0304 07       		.uleb128 0x7
 1816 0305 28020000 		.4byte	.LASF109
 1817 0309 D500     		.sleb128 85
 1818 030b 07       		.uleb128 0x7
 1819 030c A7030000 		.4byte	.LASF110
 1820 0310 D600     		.sleb128 86
 1821 0312 07       		.uleb128 0x7
 1822 0313 9D030000 		.4byte	.LASF111
 1823 0317 D700     		.sleb128 87
 1824 0319 07       		.uleb128 0x7
 1825 031a D5040000 		.4byte	.LASF112
 1826 031e DA00     		.sleb128 90
 1827 0320 00       		.byte	0
 1828 0321 08       		.uleb128 0x8
 1829 0322 7B000000 		.4byte	0x7b
 1830 0326 31030000 		.4byte	0x331
 1831 032a 09       		.uleb128 0x9
 1832 032b A7000000 		.4byte	0xa7
 1833 032f 01       		.byte	0x1
 1834 0330 00       		.byte	0
 1835 0331 08       		.uleb128 0x8
 1836 0332 7B000000 		.4byte	0x7b
 1837 0336 41030000 		.4byte	0x341
 1838 033a 09       		.uleb128 0x9
 1839 033b A7000000 		.4byte	0xa7
 1840 033f 03       		.byte	0x3
 1841 0340 00       		.byte	0
 1842 0341 05       		.uleb128 0x5
 1843 0342 69000000 		.4byte	0x69
ARM GAS  /var/folders/ng/s8655sgx1ys_4lf9jzm2w6n00000gn/T//ccT3xYAZ.s 			page 34


 1844 0346 0A       		.uleb128 0xa
 1845 0347 90       		.byte	0x90
 1846 0348 03       		.byte	0x3
 1847 0349 5804     		.2byte	0x458
 1848 034b 33050000 		.4byte	0x533
 1849 034f 0B       		.uleb128 0xb
 1850 0350 435200   		.ascii	"CR\000"
 1851 0353 03       		.byte	0x3
 1852 0354 5A04     		.2byte	0x45a
 1853 0356 A2000000 		.4byte	0xa2
 1854 035a 02       		.byte	0x2
 1855 035b 23       		.byte	0x23
 1856 035c 00       		.uleb128 0
 1857 035d 0C       		.uleb128 0xc
 1858 035e 89020000 		.4byte	.LASF113
 1859 0362 03       		.byte	0x3
 1860 0363 5B04     		.2byte	0x45b
 1861 0365 A2000000 		.4byte	0xa2
 1862 0369 02       		.byte	0x2
 1863 036a 23       		.byte	0x23
 1864 036b 04       		.uleb128 0x4
 1865 036c 0C       		.uleb128 0xc
 1866 036d 23090000 		.4byte	.LASF114
 1867 0371 03       		.byte	0x3
 1868 0372 5C04     		.2byte	0x45c
 1869 0374 A2000000 		.4byte	0xa2
 1870 0378 02       		.byte	0x2
 1871 0379 23       		.byte	0x23
 1872 037a 08       		.uleb128 0x8
 1873 037b 0B       		.uleb128 0xb
 1874 037c 43495200 		.ascii	"CIR\000"
 1875 0380 03       		.byte	0x3
 1876 0381 5D04     		.2byte	0x45d
 1877 0383 A2000000 		.4byte	0xa2
 1878 0387 02       		.byte	0x2
 1879 0388 23       		.byte	0x23
 1880 0389 0C       		.uleb128 0xc
 1881 038a 0C       		.uleb128 0xc
 1882 038b 5E080000 		.4byte	.LASF115
 1883 038f 03       		.byte	0x3
 1884 0390 5E04     		.2byte	0x45e
 1885 0392 A2000000 		.4byte	0xa2
 1886 0396 02       		.byte	0x2
 1887 0397 23       		.byte	0x23
 1888 0398 10       		.uleb128 0x10
 1889 0399 0C       		.uleb128 0xc
 1890 039a ED020000 		.4byte	.LASF116
 1891 039e 03       		.byte	0x3
 1892 039f 5F04     		.2byte	0x45f
 1893 03a1 A2000000 		.4byte	0xa2
 1894 03a5 02       		.byte	0x2
 1895 03a6 23       		.byte	0x23
 1896 03a7 14       		.uleb128 0x14
 1897 03a8 0C       		.uleb128 0xc
 1898 03a9 10040000 		.4byte	.LASF117
 1899 03ad 03       		.byte	0x3
 1900 03ae 6004     		.2byte	0x460
ARM GAS  /var/folders/ng/s8655sgx1ys_4lf9jzm2w6n00000gn/T//ccT3xYAZ.s 			page 35


 1901 03b0 A2000000 		.4byte	0xa2
 1902 03b4 02       		.byte	0x2
 1903 03b5 23       		.byte	0x23
 1904 03b6 18       		.uleb128 0x18
 1905 03b7 0C       		.uleb128 0xc
 1906 03b8 B0050000 		.4byte	.LASF118
 1907 03bc 03       		.byte	0x3
 1908 03bd 6104     		.2byte	0x461
 1909 03bf 7B000000 		.4byte	0x7b
 1910 03c3 02       		.byte	0x2
 1911 03c4 23       		.byte	0x23
 1912 03c5 1C       		.uleb128 0x1c
 1913 03c6 0C       		.uleb128 0xc
 1914 03c7 82050000 		.4byte	.LASF119
 1915 03cb 03       		.byte	0x3
 1916 03cc 6204     		.2byte	0x462
 1917 03ce A2000000 		.4byte	0xa2
 1918 03d2 02       		.byte	0x2
 1919 03d3 23       		.byte	0x23
 1920 03d4 20       		.uleb128 0x20
 1921 03d5 0C       		.uleb128 0xc
 1922 03d6 1F020000 		.4byte	.LASF120
 1923 03da 03       		.byte	0x3
 1924 03db 6304     		.2byte	0x463
 1925 03dd A2000000 		.4byte	0xa2
 1926 03e1 02       		.byte	0x2
 1927 03e2 23       		.byte	0x23
 1928 03e3 24       		.uleb128 0x24
 1929 03e4 0C       		.uleb128 0xc
 1930 03e5 BA050000 		.4byte	.LASF121
 1931 03e9 03       		.byte	0x3
 1932 03ea 6404     		.2byte	0x464
 1933 03ec 21030000 		.4byte	0x321
 1934 03f0 02       		.byte	0x2
 1935 03f1 23       		.byte	0x23
 1936 03f2 28       		.uleb128 0x28
 1937 03f3 0C       		.uleb128 0xc
 1938 03f4 04090000 		.4byte	.LASF122
 1939 03f8 03       		.byte	0x3
 1940 03f9 6504     		.2byte	0x465
 1941 03fb A2000000 		.4byte	0xa2
 1942 03ff 02       		.byte	0x2
 1943 0400 23       		.byte	0x23
 1944 0401 30       		.uleb128 0x30
 1945 0402 0C       		.uleb128 0xc
 1946 0403 05080000 		.4byte	.LASF123
 1947 0407 03       		.byte	0x3
 1948 0408 6604     		.2byte	0x466
 1949 040a A2000000 		.4byte	0xa2
 1950 040e 02       		.byte	0x2
 1951 040f 23       		.byte	0x23
 1952 0410 34       		.uleb128 0x34
 1953 0411 0C       		.uleb128 0xc
 1954 0412 F2060000 		.4byte	.LASF124
 1955 0416 03       		.byte	0x3
 1956 0417 6704     		.2byte	0x467
 1957 0419 A2000000 		.4byte	0xa2
ARM GAS  /var/folders/ng/s8655sgx1ys_4lf9jzm2w6n00000gn/T//ccT3xYAZ.s 			page 36


 1958 041d 02       		.byte	0x2
 1959 041e 23       		.byte	0x23
 1960 041f 38       		.uleb128 0x38
 1961 0420 0C       		.uleb128 0xc
 1962 0421 C4050000 		.4byte	.LASF125
 1963 0425 03       		.byte	0x3
 1964 0426 6804     		.2byte	0x468
 1965 0428 7B000000 		.4byte	0x7b
 1966 042c 02       		.byte	0x2
 1967 042d 23       		.byte	0x23
 1968 042e 3C       		.uleb128 0x3c
 1969 042f 0C       		.uleb128 0xc
 1970 0430 FD070000 		.4byte	.LASF126
 1971 0434 03       		.byte	0x3
 1972 0435 6904     		.2byte	0x469
 1973 0437 A2000000 		.4byte	0xa2
 1974 043b 02       		.byte	0x2
 1975 043c 23       		.byte	0x23
 1976 043d 40       		.uleb128 0x40
 1977 043e 0C       		.uleb128 0xc
 1978 043f E2060000 		.4byte	.LASF127
 1979 0443 03       		.byte	0x3
 1980 0444 6A04     		.2byte	0x46a
 1981 0446 A2000000 		.4byte	0xa2
 1982 044a 02       		.byte	0x2
 1983 044b 23       		.byte	0x23
 1984 044c 44       		.uleb128 0x44
 1985 044d 0C       		.uleb128 0xc
 1986 044e CE050000 		.4byte	.LASF128
 1987 0452 03       		.byte	0x3
 1988 0453 6B04     		.2byte	0x46b
 1989 0455 21030000 		.4byte	0x321
 1990 0459 02       		.byte	0x2
 1991 045a 23       		.byte	0x23
 1992 045b 48       		.uleb128 0x48
 1993 045c 0C       		.uleb128 0xc
 1994 045d 1D010000 		.4byte	.LASF129
 1995 0461 03       		.byte	0x3
 1996 0462 6C04     		.2byte	0x46c
 1997 0464 A2000000 		.4byte	0xa2
 1998 0468 02       		.byte	0x2
 1999 0469 23       		.byte	0x23
 2000 046a 50       		.uleb128 0x50
 2001 046b 0C       		.uleb128 0xc
 2002 046c 78050000 		.4byte	.LASF130
 2003 0470 03       		.byte	0x3
 2004 0471 6D04     		.2byte	0x46d
 2005 0473 A2000000 		.4byte	0xa2
 2006 0477 02       		.byte	0x2
 2007 0478 23       		.byte	0x23
 2008 0479 54       		.uleb128 0x54
 2009 047a 0C       		.uleb128 0xc
 2010 047b 8E060000 		.4byte	.LASF131
 2011 047f 03       		.byte	0x3
 2012 0480 6E04     		.2byte	0x46e
 2013 0482 A2000000 		.4byte	0xa2
 2014 0486 02       		.byte	0x2
ARM GAS  /var/folders/ng/s8655sgx1ys_4lf9jzm2w6n00000gn/T//ccT3xYAZ.s 			page 37


 2015 0487 23       		.byte	0x23
 2016 0488 58       		.uleb128 0x58
 2017 0489 0C       		.uleb128 0xc
 2018 048a D8050000 		.4byte	.LASF132
 2019 048e 03       		.byte	0x3
 2020 048f 6F04     		.2byte	0x46f
 2021 0491 7B000000 		.4byte	0x7b
 2022 0495 02       		.byte	0x2
 2023 0496 23       		.byte	0x23
 2024 0497 5C       		.uleb128 0x5c
 2025 0498 0C       		.uleb128 0xc
 2026 0499 0D000000 		.4byte	.LASF133
 2027 049d 03       		.byte	0x3
 2028 049e 7004     		.2byte	0x470
 2029 04a0 A2000000 		.4byte	0xa2
 2030 04a4 02       		.byte	0x2
 2031 04a5 23       		.byte	0x23
 2032 04a6 60       		.uleb128 0x60
 2033 04a7 0C       		.uleb128 0xc
 2034 04a8 7B040000 		.4byte	.LASF134
 2035 04ac 03       		.byte	0x3
 2036 04ad 7104     		.2byte	0x471
 2037 04af A2000000 		.4byte	0xa2
 2038 04b3 02       		.byte	0x2
 2039 04b4 23       		.byte	0x23
 2040 04b5 64       		.uleb128 0x64
 2041 04b6 0C       		.uleb128 0xc
 2042 04b7 E2050000 		.4byte	.LASF135
 2043 04bb 03       		.byte	0x3
 2044 04bc 7204     		.2byte	0x472
 2045 04be 21030000 		.4byte	0x321
 2046 04c2 02       		.byte	0x2
 2047 04c3 23       		.byte	0x23
 2048 04c4 68       		.uleb128 0x68
 2049 04c5 0C       		.uleb128 0xc
 2050 04c6 B1080000 		.4byte	.LASF136
 2051 04ca 03       		.byte	0x3
 2052 04cb 7304     		.2byte	0x473
 2053 04cd A2000000 		.4byte	0xa2
 2054 04d1 02       		.byte	0x2
 2055 04d2 23       		.byte	0x23
 2056 04d3 70       		.uleb128 0x70
 2057 04d4 0B       		.uleb128 0xb
 2058 04d5 43535200 		.ascii	"CSR\000"
 2059 04d9 03       		.byte	0x3
 2060 04da 7404     		.2byte	0x474
 2061 04dc A2000000 		.4byte	0xa2
 2062 04e0 02       		.byte	0x2
 2063 04e1 23       		.byte	0x23
 2064 04e2 74       		.uleb128 0x74
 2065 04e3 0C       		.uleb128 0xc
 2066 04e4 EC050000 		.4byte	.LASF137
 2067 04e8 03       		.byte	0x3
 2068 04e9 7504     		.2byte	0x475
 2069 04eb 21030000 		.4byte	0x321
 2070 04ef 02       		.byte	0x2
 2071 04f0 23       		.byte	0x23
ARM GAS  /var/folders/ng/s8655sgx1ys_4lf9jzm2w6n00000gn/T//ccT3xYAZ.s 			page 38


 2072 04f1 78       		.uleb128 0x78
 2073 04f2 0C       		.uleb128 0xc
 2074 04f3 80080000 		.4byte	.LASF138
 2075 04f7 03       		.byte	0x3
 2076 04f8 7604     		.2byte	0x476
 2077 04fa A2000000 		.4byte	0xa2
 2078 04fe 03       		.byte	0x3
 2079 04ff 23       		.byte	0x23
 2080 0500 8001     		.uleb128 0x80
 2081 0502 0C       		.uleb128 0xc
 2082 0503 F8030000 		.4byte	.LASF139
 2083 0507 03       		.byte	0x3
 2084 0508 7704     		.2byte	0x477
 2085 050a A2000000 		.4byte	0xa2
 2086 050e 03       		.byte	0x3
 2087 050f 23       		.byte	0x23
 2088 0510 8401     		.uleb128 0x84
 2089 0512 0C       		.uleb128 0xc
 2090 0513 97050000 		.4byte	.LASF140
 2091 0517 03       		.byte	0x3
 2092 0518 7804     		.2byte	0x478
 2093 051a A2000000 		.4byte	0xa2
 2094 051e 03       		.byte	0x3
 2095 051f 23       		.byte	0x23
 2096 0520 8801     		.uleb128 0x88
 2097 0522 0C       		.uleb128 0xc
 2098 0523 48010000 		.4byte	.LASF141
 2099 0527 03       		.byte	0x3
 2100 0528 7904     		.2byte	0x479
 2101 052a A2000000 		.4byte	0xa2
 2102 052e 03       		.byte	0x3
 2103 052f 23       		.byte	0x23
 2104 0530 8C01     		.uleb128 0x8c
 2105 0532 00       		.byte	0
 2106 0533 0D       		.uleb128 0xd
 2107 0534 2E080000 		.4byte	.LASF142
 2108 0538 03       		.byte	0x3
 2109 0539 7B04     		.2byte	0x47b
 2110 053b 46030000 		.4byte	0x346
 2111 053f 0E       		.uleb128 0xe
 2112 0540 01       		.byte	0x1
 2113 0541 04       		.byte	0x4
 2114 0542 55       		.byte	0x55
 2115 0543 5A050000 		.4byte	0x55a
 2116 0547 07       		.uleb128 0x7
 2117 0548 7B090000 		.4byte	.LASF143
 2118 054c 00       		.sleb128 0
 2119 054d 07       		.uleb128 0x7
 2120 054e 91070000 		.4byte	.LASF144
 2121 0552 01       		.sleb128 1
 2122 0553 07       		.uleb128 0x7
 2123 0554 27010000 		.4byte	.LASF145
 2124 0558 02       		.sleb128 2
 2125 0559 00       		.byte	0
 2126 055a 04       		.uleb128 0x4
 2127 055b E5080000 		.4byte	.LASF146
 2128 055f 04       		.byte	0x4
ARM GAS  /var/folders/ng/s8655sgx1ys_4lf9jzm2w6n00000gn/T//ccT3xYAZ.s 			page 39


 2129 0560 59       		.byte	0x59
 2130 0561 3F050000 		.4byte	0x53f
 2131 0565 04       		.uleb128 0x4
 2132 0566 D1080000 		.4byte	.LASF147
 2133 056a 04       		.byte	0x4
 2134 056b 5E       		.byte	0x5e
 2135 056c 70050000 		.4byte	0x570
 2136 0570 0F       		.uleb128 0xf
 2137 0571 D1080000 		.4byte	.LASF147
 2138 0575 14       		.byte	0x14
 2139 0576 05       		.byte	0x5
 2140 0577 6F01     		.2byte	0x16f
 2141 0579 C9050000 		.4byte	0x5c9
 2142 057d 0C       		.uleb128 0xc
 2143 057e F3010000 		.4byte	.LASF148
 2144 0582 05       		.byte	0x5
 2145 0583 7301     		.2byte	0x173
 2146 0585 5A050000 		.4byte	0x55a
 2147 0589 02       		.byte	0x2
 2148 058a 23       		.byte	0x23
 2149 058b 00       		.uleb128 0
 2150 058c 0C       		.uleb128 0xc
 2151 058d AE070000 		.4byte	.LASF149
 2152 0591 05       		.byte	0x5
 2153 0592 7701     		.2byte	0x177
 2154 0594 27080000 		.4byte	0x827
 2155 0598 02       		.byte	0x2
 2156 0599 23       		.byte	0x23
 2157 059a 04       		.uleb128 0x4
 2158 059b 0C       		.uleb128 0xc
 2159 059c 91000000 		.4byte	.LASF150
 2160 05a0 05       		.byte	0x5
 2161 05a1 7B01     		.2byte	0x17b
 2162 05a3 58070000 		.4byte	0x758
 2163 05a7 02       		.byte	0x2
 2164 05a8 23       		.byte	0x23
 2165 05a9 08       		.uleb128 0x8
 2166 05aa 0C       		.uleb128 0xc
 2167 05ab 40090000 		.4byte	.LASF151
 2168 05af 05       		.byte	0x5
 2169 05b0 8301     		.2byte	0x183
 2170 05b2 7B000000 		.4byte	0x7b
 2171 05b6 02       		.byte	0x2
 2172 05b7 23       		.byte	0x23
 2173 05b8 0C       		.uleb128 0xc
 2174 05b9 0B       		.uleb128 0xb
 2175 05ba 74696D00 		.ascii	"tim\000"
 2176 05be 05       		.byte	0x5
 2177 05bf 8701     		.2byte	0x187
 2178 05c1 32080000 		.4byte	0x832
 2179 05c5 02       		.byte	0x2
 2180 05c6 23       		.byte	0x23
 2181 05c7 10       		.uleb128 0x10
 2182 05c8 00       		.byte	0
 2183 05c9 04       		.uleb128 0x4
 2184 05ca A2050000 		.4byte	.LASF152
 2185 05ce 04       		.byte	0x4
ARM GAS  /var/folders/ng/s8655sgx1ys_4lf9jzm2w6n00000gn/T//ccT3xYAZ.s 			page 40


 2186 05cf 65       		.byte	0x65
 2187 05d0 D4050000 		.4byte	0x5d4
 2188 05d4 10       		.uleb128 0x10
 2189 05d5 04       		.byte	0x4
 2190 05d6 DA050000 		.4byte	0x5da
 2191 05da 11       		.uleb128 0x11
 2192 05db 01       		.byte	0x1
 2193 05dc E6050000 		.4byte	0x5e6
 2194 05e0 12       		.uleb128 0x12
 2195 05e1 E6050000 		.4byte	0x5e6
 2196 05e5 00       		.byte	0
 2197 05e6 10       		.uleb128 0x10
 2198 05e7 04       		.byte	0x4
 2199 05e8 65050000 		.4byte	0x565
 2200 05ec 0A       		.uleb128 0xa
 2201 05ed 60       		.byte	0x60
 2202 05ee 06       		.byte	0x6
 2203 05ef 9E01     		.2byte	0x19e
 2204 05f1 2F070000 		.4byte	0x72f
 2205 05f5 0B       		.uleb128 0xb
 2206 05f6 43523100 		.ascii	"CR1\000"
 2207 05fa 06       		.byte	0x6
 2208 05fb 9F01     		.2byte	0x19f
 2209 05fd A2000000 		.4byte	0xa2
 2210 0601 02       		.byte	0x2
 2211 0602 23       		.byte	0x23
 2212 0603 00       		.uleb128 0
 2213 0604 0B       		.uleb128 0xb
 2214 0605 43523200 		.ascii	"CR2\000"
 2215 0609 06       		.byte	0x6
 2216 060a A001     		.2byte	0x1a0
 2217 060c A2000000 		.4byte	0xa2
 2218 0610 02       		.byte	0x2
 2219 0611 23       		.byte	0x23
 2220 0612 04       		.uleb128 0x4
 2221 0613 0C       		.uleb128 0xc
 2222 0614 E1030000 		.4byte	.LASF153
 2223 0618 06       		.byte	0x6
 2224 0619 A101     		.2byte	0x1a1
 2225 061b A2000000 		.4byte	0xa2
 2226 061f 02       		.byte	0x2
 2227 0620 23       		.byte	0x23
 2228 0621 08       		.uleb128 0x8
 2229 0622 0C       		.uleb128 0xc
 2230 0623 0C090000 		.4byte	.LASF154
 2231 0627 06       		.byte	0x6
 2232 0628 A201     		.2byte	0x1a2
 2233 062a A2000000 		.4byte	0xa2
 2234 062e 02       		.byte	0x2
 2235 062f 23       		.byte	0x23
 2236 0630 0C       		.uleb128 0xc
 2237 0631 0B       		.uleb128 0xb
 2238 0632 535200   		.ascii	"SR\000"
 2239 0635 06       		.byte	0x6
 2240 0636 A301     		.2byte	0x1a3
 2241 0638 A2000000 		.4byte	0xa2
 2242 063c 02       		.byte	0x2
ARM GAS  /var/folders/ng/s8655sgx1ys_4lf9jzm2w6n00000gn/T//ccT3xYAZ.s 			page 41


 2243 063d 23       		.byte	0x23
 2244 063e 10       		.uleb128 0x10
 2245 063f 0B       		.uleb128 0xb
 2246 0640 45475200 		.ascii	"EGR\000"
 2247 0644 06       		.byte	0x6
 2248 0645 A401     		.2byte	0x1a4
 2249 0647 A2000000 		.4byte	0xa2
 2250 064b 02       		.byte	0x2
 2251 064c 23       		.byte	0x23
 2252 064d 14       		.uleb128 0x14
 2253 064e 0C       		.uleb128 0xc
 2254 064f 42010000 		.4byte	.LASF155
 2255 0653 06       		.byte	0x6
 2256 0654 A501     		.2byte	0x1a5
 2257 0656 A2000000 		.4byte	0xa2
 2258 065a 02       		.byte	0x2
 2259 065b 23       		.byte	0x23
 2260 065c 18       		.uleb128 0x18
 2261 065d 0C       		.uleb128 0xc
 2262 065e 8B000000 		.4byte	.LASF156
 2263 0662 06       		.byte	0x6
 2264 0663 A601     		.2byte	0x1a6
 2265 0665 A2000000 		.4byte	0xa2
 2266 0669 02       		.byte	0x2
 2267 066a 23       		.byte	0x23
 2268 066b 1C       		.uleb128 0x1c
 2269 066c 0C       		.uleb128 0xc
 2270 066d 51020000 		.4byte	.LASF157
 2271 0671 06       		.byte	0x6
 2272 0672 A701     		.2byte	0x1a7
 2273 0674 A2000000 		.4byte	0xa2
 2274 0678 02       		.byte	0x2
 2275 0679 23       		.byte	0x23
 2276 067a 20       		.uleb128 0x20
 2277 067b 0B       		.uleb128 0xb
 2278 067c 434E5400 		.ascii	"CNT\000"
 2279 0680 06       		.byte	0x6
 2280 0681 A801     		.2byte	0x1a8
 2281 0683 A2000000 		.4byte	0xa2
 2282 0687 02       		.byte	0x2
 2283 0688 23       		.byte	0x23
 2284 0689 24       		.uleb128 0x24
 2285 068a 0B       		.uleb128 0xb
 2286 068b 50534300 		.ascii	"PSC\000"
 2287 068f 06       		.byte	0x6
 2288 0690 A901     		.2byte	0x1a9
 2289 0692 A2000000 		.4byte	0xa2
 2290 0696 02       		.byte	0x2
 2291 0697 23       		.byte	0x23
 2292 0698 28       		.uleb128 0x28
 2293 0699 0B       		.uleb128 0xb
 2294 069a 41525200 		.ascii	"ARR\000"
 2295 069e 06       		.byte	0x6
 2296 069f AA01     		.2byte	0x1aa
 2297 06a1 A2000000 		.4byte	0xa2
 2298 06a5 02       		.byte	0x2
 2299 06a6 23       		.byte	0x23
ARM GAS  /var/folders/ng/s8655sgx1ys_4lf9jzm2w6n00000gn/T//ccT3xYAZ.s 			page 42


 2300 06a7 2C       		.uleb128 0x2c
 2301 06a8 0B       		.uleb128 0xb
 2302 06a9 52435200 		.ascii	"RCR\000"
 2303 06ad 06       		.byte	0x6
 2304 06ae AB01     		.2byte	0x1ab
 2305 06b0 A2000000 		.4byte	0xa2
 2306 06b4 02       		.byte	0x2
 2307 06b5 23       		.byte	0x23
 2308 06b6 30       		.uleb128 0x30
 2309 06b7 0B       		.uleb128 0xb
 2310 06b8 43435200 		.ascii	"CCR\000"
 2311 06bc 06       		.byte	0x6
 2312 06bd AC01     		.2byte	0x1ac
 2313 06bf 2F070000 		.4byte	0x72f
 2314 06c3 02       		.byte	0x2
 2315 06c4 23       		.byte	0x23
 2316 06c5 34       		.uleb128 0x34
 2317 06c6 0C       		.uleb128 0xc
 2318 06c7 32030000 		.4byte	.LASF158
 2319 06cb 06       		.byte	0x6
 2320 06cc AD01     		.2byte	0x1ad
 2321 06ce A2000000 		.4byte	0xa2
 2322 06d2 02       		.byte	0x2
 2323 06d3 23       		.byte	0x23
 2324 06d4 44       		.uleb128 0x44
 2325 06d5 0B       		.uleb128 0xb
 2326 06d6 44435200 		.ascii	"DCR\000"
 2327 06da 06       		.byte	0x6
 2328 06db AE01     		.2byte	0x1ae
 2329 06dd A2000000 		.4byte	0xa2
 2330 06e1 02       		.byte	0x2
 2331 06e2 23       		.byte	0x23
 2332 06e3 48       		.uleb128 0x48
 2333 06e4 0C       		.uleb128 0xc
 2334 06e5 B5070000 		.4byte	.LASF159
 2335 06e9 06       		.byte	0x6
 2336 06ea AF01     		.2byte	0x1af
 2337 06ec A2000000 		.4byte	0xa2
 2338 06f0 02       		.byte	0x2
 2339 06f1 23       		.byte	0x23
 2340 06f2 4C       		.uleb128 0x4c
 2341 06f3 0B       		.uleb128 0xb
 2342 06f4 4F5200   		.ascii	"OR\000"
 2343 06f7 06       		.byte	0x6
 2344 06f8 B001     		.2byte	0x1b0
 2345 06fa A2000000 		.4byte	0xa2
 2346 06fe 02       		.byte	0x2
 2347 06ff 23       		.byte	0x23
 2348 0700 50       		.uleb128 0x50
 2349 0701 0C       		.uleb128 0xc
 2350 0702 50010000 		.4byte	.LASF160
 2351 0706 06       		.byte	0x6
 2352 0707 B101     		.2byte	0x1b1
 2353 0709 A2000000 		.4byte	0xa2
 2354 070d 02       		.byte	0x2
 2355 070e 23       		.byte	0x23
 2356 070f 54       		.uleb128 0x54
ARM GAS  /var/folders/ng/s8655sgx1ys_4lf9jzm2w6n00000gn/T//ccT3xYAZ.s 			page 43


 2357 0710 0C       		.uleb128 0xc
 2358 0711 9B080000 		.4byte	.LASF161
 2359 0715 06       		.byte	0x6
 2360 0716 B201     		.2byte	0x1b2
 2361 0718 A2000000 		.4byte	0xa2
 2362 071c 02       		.byte	0x2
 2363 071d 23       		.byte	0x23
 2364 071e 58       		.uleb128 0x58
 2365 071f 0C       		.uleb128 0xc
 2366 0720 A0080000 		.4byte	.LASF162
 2367 0724 06       		.byte	0x6
 2368 0725 B301     		.2byte	0x1b3
 2369 0727 A2000000 		.4byte	0xa2
 2370 072b 02       		.byte	0x2
 2371 072c 23       		.byte	0x23
 2372 072d 5C       		.uleb128 0x5c
 2373 072e 00       		.byte	0
 2374 072f 05       		.uleb128 0x5
 2375 0730 31030000 		.4byte	0x331
 2376 0734 0D       		.uleb128 0xd
 2377 0735 70010000 		.4byte	.LASF163
 2378 0739 06       		.byte	0x6
 2379 073a B401     		.2byte	0x1b4
 2380 073c EC050000 		.4byte	0x5ec
 2381 0740 0D       		.uleb128 0xd
 2382 0741 7C010000 		.4byte	.LASF164
 2383 0745 05       		.byte	0x5
 2384 0746 2001     		.2byte	0x120
 2385 0748 7B000000 		.4byte	0x7b
 2386 074c 0D       		.uleb128 0xd
 2387 074d 00000000 		.4byte	.LASF165
 2388 0751 05       		.byte	0x5
 2389 0752 2501     		.2byte	0x125
 2390 0754 3E000000 		.4byte	0x3e
 2391 0758 0D       		.uleb128 0xd
 2392 0759 F0080000 		.4byte	.LASF166
 2393 075d 05       		.byte	0x5
 2394 075e 2A01     		.2byte	0x12a
 2395 0760 57000000 		.4byte	0x57
 2396 0764 0A       		.uleb128 0xa
 2397 0765 08       		.byte	0x8
 2398 0766 05       		.byte	0x5
 2399 0767 2F01     		.2byte	0x12f
 2400 0769 8C070000 		.4byte	0x78c
 2401 076d 0C       		.uleb128 0xc
 2402 076e 9F070000 		.4byte	.LASF167
 2403 0772 05       		.byte	0x5
 2404 0773 3301     		.2byte	0x133
 2405 0775 40070000 		.4byte	0x740
 2406 0779 02       		.byte	0x2
 2407 077a 23       		.byte	0x23
 2408 077b 00       		.uleb128 0
 2409 077c 0C       		.uleb128 0xc
 2410 077d 32040000 		.4byte	.LASF168
 2411 0781 05       		.byte	0x5
 2412 0782 3901     		.2byte	0x139
 2413 0784 C9050000 		.4byte	0x5c9
ARM GAS  /var/folders/ng/s8655sgx1ys_4lf9jzm2w6n00000gn/T//ccT3xYAZ.s 			page 44


 2414 0788 02       		.byte	0x2
 2415 0789 23       		.byte	0x23
 2416 078a 04       		.uleb128 0x4
 2417 078b 00       		.byte	0
 2418 078c 0D       		.uleb128 0xd
 2419 078d 1D080000 		.4byte	.LASF169
 2420 0791 05       		.byte	0x5
 2421 0792 3B01     		.2byte	0x13b
 2422 0794 64070000 		.4byte	0x764
 2423 0798 0A       		.uleb128 0xa
 2424 0799 38       		.byte	0x38
 2425 079a 05       		.byte	0x5
 2426 079b 4001     		.2byte	0x140
 2427 079d 0B080000 		.4byte	0x80b
 2428 07a1 0C       		.uleb128 0xc
 2429 07a2 13010000 		.4byte	.LASF170
 2430 07a6 05       		.byte	0x5
 2431 07a7 4601     		.2byte	0x146
 2432 07a9 7B000000 		.4byte	0x7b
 2433 07ad 02       		.byte	0x2
 2434 07ae 23       		.byte	0x23
 2435 07af 00       		.uleb128 0
 2436 07b0 0C       		.uleb128 0xc
 2437 07b1 91000000 		.4byte	.LASF150
 2438 07b5 05       		.byte	0x5
 2439 07b6 4C01     		.2byte	0x14c
 2440 07b8 58070000 		.4byte	0x758
 2441 07bc 02       		.byte	0x2
 2442 07bd 23       		.byte	0x23
 2443 07be 04       		.uleb128 0x4
 2444 07bf 0C       		.uleb128 0xc
 2445 07c0 32040000 		.4byte	.LASF168
 2446 07c4 05       		.byte	0x5
 2447 07c5 5201     		.2byte	0x152
 2448 07c7 C9050000 		.4byte	0x5c9
 2449 07cb 02       		.byte	0x2
 2450 07cc 23       		.byte	0x23
 2451 07cd 08       		.uleb128 0x8
 2452 07ce 0C       		.uleb128 0xc
 2453 07cf F9010000 		.4byte	.LASF171
 2454 07d3 05       		.byte	0x5
 2455 07d4 5601     		.2byte	0x156
 2456 07d6 0B080000 		.4byte	0x80b
 2457 07da 02       		.byte	0x2
 2458 07db 23       		.byte	0x23
 2459 07dc 0C       		.uleb128 0xc
 2460 07dd 0B       		.uleb128 0xb
 2461 07de 63723200 		.ascii	"cr2\000"
 2462 07e2 05       		.byte	0x5
 2463 07e3 5C01     		.2byte	0x15c
 2464 07e5 7B000000 		.4byte	0x7b
 2465 07e9 02       		.byte	0x2
 2466 07ea 23       		.byte	0x23
 2467 07eb 2C       		.uleb128 0x2c
 2468 07ec 0C       		.uleb128 0xc
 2469 07ed D0000000 		.4byte	.LASF172
 2470 07f1 05       		.byte	0x5
ARM GAS  /var/folders/ng/s8655sgx1ys_4lf9jzm2w6n00000gn/T//ccT3xYAZ.s 			page 45


 2471 07f2 6201     		.2byte	0x162
 2472 07f4 7B000000 		.4byte	0x7b
 2473 07f8 02       		.byte	0x2
 2474 07f9 23       		.byte	0x23
 2475 07fa 30       		.uleb128 0x30
 2476 07fb 0C       		.uleb128 0xc
 2477 07fc E8090000 		.4byte	.LASF173
 2478 0800 05       		.byte	0x5
 2479 0801 6901     		.2byte	0x169
 2480 0803 7B000000 		.4byte	0x7b
 2481 0807 02       		.byte	0x2
 2482 0808 23       		.byte	0x23
 2483 0809 34       		.uleb128 0x34
 2484 080a 00       		.byte	0
 2485 080b 08       		.uleb128 0x8
 2486 080c 8C070000 		.4byte	0x78c
 2487 0810 1B080000 		.4byte	0x81b
 2488 0814 09       		.uleb128 0x9
 2489 0815 A7000000 		.4byte	0xa7
 2490 0819 03       		.byte	0x3
 2491 081a 00       		.byte	0
 2492 081b 0D       		.uleb128 0xd
 2493 081c 4C070000 		.4byte	.LASF174
 2494 0820 05       		.byte	0x5
 2495 0821 6A01     		.2byte	0x16a
 2496 0823 98070000 		.4byte	0x798
 2497 0827 10       		.uleb128 0x10
 2498 0828 04       		.byte	0x4
 2499 0829 2D080000 		.4byte	0x82d
 2500 082d 13       		.uleb128 0x13
 2501 082e 1B080000 		.4byte	0x81b
 2502 0832 10       		.uleb128 0x10
 2503 0833 04       		.byte	0x4
 2504 0834 34070000 		.4byte	0x734
 2505 0838 14       		.uleb128 0x14
 2506 0839 3C000000 		.4byte	.LASF205
 2507 083d 01       		.byte	0x1
 2508 083e 70       		.byte	0x70
 2509 083f 01       		.byte	0x1
 2510 0840 00000000 		.4byte	.LFB118
 2511 0844 68000000 		.4byte	.LFE118
 2512 0848 00000000 		.4byte	.LLST0
 2513 084c 01       		.byte	0x1
 2514 084d BB080000 		.4byte	0x8bb
 2515 0851 15       		.uleb128 0x15
 2516 0852 9E040000 		.4byte	.LASF185
 2517 0856 01       		.byte	0x1
 2518 0857 70       		.byte	0x70
 2519 0858 E6050000 		.4byte	0x5e6
 2520 085c 20000000 		.4byte	.LLST1
 2521 0860 16       		.uleb128 0x16
 2522 0861 737200   		.ascii	"sr\000"
 2523 0864 01       		.byte	0x1
 2524 0865 71       		.byte	0x71
 2525 0866 57000000 		.4byte	0x57
 2526 086a 54000000 		.4byte	.LLST2
 2527 086e 17       		.uleb128 0x17
ARM GAS  /var/folders/ng/s8655sgx1ys_4lf9jzm2w6n00000gn/T//ccT3xYAZ.s 			page 46


 2528 086f 40000000 		.4byte	.LVL4
 2529 0873 7E080000 		.4byte	0x87e
 2530 0877 18       		.uleb128 0x18
 2531 0878 01       		.byte	0x1
 2532 0879 50       		.byte	0x50
 2533 087a 02       		.byte	0x2
 2534 087b 75       		.byte	0x75
 2535 087c 00       		.sleb128 0
 2536 087d 00       		.byte	0
 2537 087e 17       		.uleb128 0x17
 2538 087f 4A000000 		.4byte	.LVL5
 2539 0883 8E080000 		.4byte	0x88e
 2540 0887 18       		.uleb128 0x18
 2541 0888 01       		.byte	0x1
 2542 0889 50       		.byte	0x50
 2543 088a 02       		.byte	0x2
 2544 088b 75       		.byte	0x75
 2545 088c 00       		.sleb128 0
 2546 088d 00       		.byte	0
 2547 088e 17       		.uleb128 0x17
 2548 088f 54000000 		.4byte	.LVL6
 2549 0893 9E080000 		.4byte	0x89e
 2550 0897 18       		.uleb128 0x18
 2551 0898 01       		.byte	0x1
 2552 0899 50       		.byte	0x50
 2553 089a 02       		.byte	0x2
 2554 089b 75       		.byte	0x75
 2555 089c 00       		.sleb128 0
 2556 089d 00       		.byte	0
 2557 089e 17       		.uleb128 0x17
 2558 089f 5E000000 		.4byte	.LVL7
 2559 08a3 AE080000 		.4byte	0x8ae
 2560 08a7 18       		.uleb128 0x18
 2561 08a8 01       		.byte	0x1
 2562 08a9 50       		.byte	0x50
 2563 08aa 02       		.byte	0x2
 2564 08ab 75       		.byte	0x75
 2565 08ac 00       		.sleb128 0
 2566 08ad 00       		.byte	0
 2567 08ae 19       		.uleb128 0x19
 2568 08af 66000000 		.4byte	.LVL9
 2569 08b3 18       		.uleb128 0x18
 2570 08b4 01       		.byte	0x1
 2571 08b5 50       		.byte	0x50
 2572 08b6 02       		.byte	0x2
 2573 08b7 75       		.byte	0x75
 2574 08b8 00       		.sleb128 0
 2575 08b9 00       		.byte	0
 2576 08ba 00       		.byte	0
 2577 08bb 1A       		.uleb128 0x1a
 2578 08bc 01       		.byte	0x1
 2579 08bd 11090000 		.4byte	.LASF175
 2580 08c1 01       		.byte	0x1
 2581 08c2 93       		.byte	0x93
 2582 08c3 01       		.byte	0x1
 2583 08c4 00000000 		.4byte	.LFB119
 2584 08c8 24000000 		.4byte	.LFE119
ARM GAS  /var/folders/ng/s8655sgx1ys_4lf9jzm2w6n00000gn/T//ccT3xYAZ.s 			page 47


 2585 08cc 77000000 		.4byte	.LLST3
 2586 08d0 01       		.byte	0x1
 2587 08d1 F3080000 		.4byte	0x8f3
 2588 08d5 17       		.uleb128 0x17
 2589 08d6 1C000000 		.4byte	.LVL10
 2590 08da E8080000 		.4byte	0x8e8
 2591 08de 18       		.uleb128 0x18
 2592 08df 01       		.byte	0x1
 2593 08e0 50       		.byte	0x50
 2594 08e1 05       		.byte	0x5
 2595 08e2 03       		.byte	0x3
 2596 08e3 00000000 		.4byte	.LANCHOR0
 2597 08e7 00       		.byte	0
 2598 08e8 1B       		.uleb128 0x1b
 2599 08e9 24000000 		.4byte	.LVL11
 2600 08ed 01       		.byte	0x1
 2601 08ee 5D0E0000 		.4byte	0xe5d
 2602 08f2 00       		.byte	0
 2603 08f3 1A       		.uleb128 0x1a
 2604 08f4 01       		.byte	0x1
 2605 08f5 98000000 		.4byte	.LASF176
 2606 08f9 01       		.byte	0x1
 2607 08fa A8       		.byte	0xa8
 2608 08fb 01       		.byte	0x1
 2609 08fc 00000000 		.4byte	.LFB120
 2610 0900 6C000000 		.4byte	.LFE120
 2611 0904 97000000 		.4byte	.LLST4
 2612 0908 01       		.byte	0x1
 2613 0909 6E090000 		.4byte	0x96e
 2614 090d 16       		.uleb128 0x16
 2615 090e 737200   		.ascii	"sr\000"
 2616 0911 01       		.byte	0x1
 2617 0912 A9       		.byte	0xa9
 2618 0913 57000000 		.4byte	0x57
 2619 0917 B7000000 		.4byte	.LLST5
 2620 091b 17       		.uleb128 0x17
 2621 091c 40000000 		.4byte	.LVL14
 2622 0920 2E090000 		.4byte	0x92e
 2623 0924 18       		.uleb128 0x18
 2624 0925 01       		.byte	0x1
 2625 0926 50       		.byte	0x50
 2626 0927 05       		.byte	0x5
 2627 0928 03       		.byte	0x3
 2628 0929 00000000 		.4byte	.LANCHOR0
 2629 092d 00       		.byte	0
 2630 092e 1B       		.uleb128 0x1b
 2631 092f 48000000 		.4byte	.LVL15
 2632 0933 01       		.byte	0x1
 2633 0934 5D0E0000 		.4byte	0xe5d
 2634 0938 17       		.uleb128 0x17
 2635 0939 50000000 		.4byte	.LVL16
 2636 093d 4B090000 		.4byte	0x94b
 2637 0941 18       		.uleb128 0x18
 2638 0942 01       		.byte	0x1
 2639 0943 50       		.byte	0x50
 2640 0944 05       		.byte	0x5
 2641 0945 03       		.byte	0x3
ARM GAS  /var/folders/ng/s8655sgx1ys_4lf9jzm2w6n00000gn/T//ccT3xYAZ.s 			page 48


 2642 0946 00000000 		.4byte	.LANCHOR0
 2643 094a 00       		.byte	0
 2644 094b 17       		.uleb128 0x17
 2645 094c 5A000000 		.4byte	.LVL17
 2646 0950 5E090000 		.4byte	0x95e
 2647 0954 18       		.uleb128 0x18
 2648 0955 01       		.byte	0x1
 2649 0956 50       		.byte	0x50
 2650 0957 05       		.byte	0x5
 2651 0958 03       		.byte	0x3
 2652 0959 00000000 		.4byte	.LANCHOR0
 2653 095d 00       		.byte	0
 2654 095e 19       		.uleb128 0x19
 2655 095f 64000000 		.4byte	.LVL18
 2656 0963 18       		.uleb128 0x18
 2657 0964 01       		.byte	0x1
 2658 0965 50       		.byte	0x50
 2659 0966 05       		.byte	0x5
 2660 0967 03       		.byte	0x3
 2661 0968 00000000 		.4byte	.LANCHOR0
 2662 096c 00       		.byte	0
 2663 096d 00       		.byte	0
 2664 096e 1A       		.uleb128 0x1a
 2665 096f 01       		.byte	0x1
 2666 0970 86010000 		.4byte	.LASF177
 2667 0974 01       		.byte	0x1
 2668 0975 C5       		.byte	0xc5
 2669 0976 01       		.byte	0x1
 2670 0977 00000000 		.4byte	.LFB121
 2671 097b 16000000 		.4byte	.LFE121
 2672 097f DF000000 		.4byte	.LLST6
 2673 0983 01       		.byte	0x1
 2674 0984 AA090000 		.4byte	0x9aa
 2675 0988 1C       		.uleb128 0x1c
 2676 0989 0E000000 		.4byte	.LVL19
 2677 098d 38080000 		.4byte	0x838
 2678 0991 9F090000 		.4byte	0x99f
 2679 0995 18       		.uleb128 0x18
 2680 0996 01       		.byte	0x1
 2681 0997 50       		.byte	0x50
 2682 0998 05       		.byte	0x5
 2683 0999 03       		.byte	0x3
 2684 099a 00000000 		.4byte	.LANCHOR1
 2685 099e 00       		.byte	0
 2686 099f 1B       		.uleb128 0x1b
 2687 09a0 16000000 		.4byte	.LVL20
 2688 09a4 01       		.byte	0x1
 2689 09a5 5D0E0000 		.4byte	0xe5d
 2690 09a9 00       		.byte	0
 2691 09aa 1A       		.uleb128 0x1a
 2692 09ab 01       		.byte	0x1
 2693 09ac A1010000 		.4byte	.LASF178
 2694 09b0 01       		.byte	0x1
 2695 09b1 D8       		.byte	0xd8
 2696 09b2 01       		.byte	0x1
 2697 09b3 00000000 		.4byte	.LFB122
 2698 09b7 16000000 		.4byte	.LFE122
ARM GAS  /var/folders/ng/s8655sgx1ys_4lf9jzm2w6n00000gn/T//ccT3xYAZ.s 			page 49


 2699 09bb FF000000 		.4byte	.LLST7
 2700 09bf 01       		.byte	0x1
 2701 09c0 E6090000 		.4byte	0x9e6
 2702 09c4 1C       		.uleb128 0x1c
 2703 09c5 0E000000 		.4byte	.LVL21
 2704 09c9 38080000 		.4byte	0x838
 2705 09cd DB090000 		.4byte	0x9db
 2706 09d1 18       		.uleb128 0x18
 2707 09d2 01       		.byte	0x1
 2708 09d3 50       		.byte	0x50
 2709 09d4 05       		.byte	0x5
 2710 09d5 03       		.byte	0x3
 2711 09d6 00000000 		.4byte	.LANCHOR2
 2712 09da 00       		.byte	0
 2713 09db 1B       		.uleb128 0x1b
 2714 09dc 16000000 		.4byte	.LVL22
 2715 09e0 01       		.byte	0x1
 2716 09e1 5D0E0000 		.4byte	0xe5d
 2717 09e5 00       		.byte	0
 2718 09e6 1A       		.uleb128 0x1a
 2719 09e7 01       		.byte	0x1
 2720 09e8 E4020000 		.4byte	.LASF179
 2721 09ec 01       		.byte	0x1
 2722 09ed EB       		.byte	0xeb
 2723 09ee 01       		.byte	0x1
 2724 09ef 00000000 		.4byte	.LFB123
 2725 09f3 16000000 		.4byte	.LFE123
 2726 09f7 1F010000 		.4byte	.LLST8
 2727 09fb 01       		.byte	0x1
 2728 09fc 220A0000 		.4byte	0xa22
 2729 0a00 1C       		.uleb128 0x1c
 2730 0a01 0E000000 		.4byte	.LVL23
 2731 0a05 38080000 		.4byte	0x838
 2732 0a09 170A0000 		.4byte	0xa17
 2733 0a0d 18       		.uleb128 0x18
 2734 0a0e 01       		.byte	0x1
 2735 0a0f 50       		.byte	0x50
 2736 0a10 05       		.byte	0x5
 2737 0a11 03       		.byte	0x3
 2738 0a12 00000000 		.4byte	.LANCHOR3
 2739 0a16 00       		.byte	0
 2740 0a17 1B       		.uleb128 0x1b
 2741 0a18 16000000 		.4byte	.LVL24
 2742 0a1c 01       		.byte	0x1
 2743 0a1d 5D0E0000 		.4byte	0xe5d
 2744 0a21 00       		.byte	0
 2745 0a22 1D       		.uleb128 0x1d
 2746 0a23 01       		.byte	0x1
 2747 0a24 17030000 		.4byte	.LASF180
 2748 0a28 01       		.byte	0x1
 2749 0a29 1401     		.2byte	0x114
 2750 0a2b 01       		.byte	0x1
 2751 0a2c 00000000 		.4byte	.LFB124
 2752 0a30 26000000 		.4byte	.LFE124
 2753 0a34 3F010000 		.4byte	.LLST9
 2754 0a38 01       		.byte	0x1
 2755 0a39 5B0A0000 		.4byte	0xa5b
ARM GAS  /var/folders/ng/s8655sgx1ys_4lf9jzm2w6n00000gn/T//ccT3xYAZ.s 			page 50


 2756 0a3d 17       		.uleb128 0x17
 2757 0a3e 1E000000 		.4byte	.LVL25
 2758 0a42 500A0000 		.4byte	0xa50
 2759 0a46 18       		.uleb128 0x18
 2760 0a47 01       		.byte	0x1
 2761 0a48 50       		.byte	0x50
 2762 0a49 05       		.byte	0x5
 2763 0a4a 03       		.byte	0x3
 2764 0a4b 00000000 		.4byte	.LANCHOR4
 2765 0a4f 00       		.byte	0
 2766 0a50 1B       		.uleb128 0x1b
 2767 0a51 26000000 		.4byte	.LVL26
 2768 0a55 01       		.byte	0x1
 2769 0a56 5D0E0000 		.4byte	0xe5d
 2770 0a5a 00       		.byte	0
 2771 0a5b 1D       		.uleb128 0x1d
 2772 0a5c 01       		.byte	0x1
 2773 0a5d FA060000 		.4byte	.LASF181
 2774 0a61 01       		.byte	0x1
 2775 0a62 2901     		.2byte	0x129
 2776 0a64 01       		.byte	0x1
 2777 0a65 00000000 		.4byte	.LFB125
 2778 0a69 6C000000 		.4byte	.LFE125
 2779 0a6d 5F010000 		.4byte	.LLST10
 2780 0a71 01       		.byte	0x1
 2781 0a72 D80A0000 		.4byte	0xad8
 2782 0a76 1E       		.uleb128 0x1e
 2783 0a77 737200   		.ascii	"sr\000"
 2784 0a7a 01       		.byte	0x1
 2785 0a7b 2A01     		.2byte	0x12a
 2786 0a7d 57000000 		.4byte	0x57
 2787 0a81 7F010000 		.4byte	.LLST11
 2788 0a85 17       		.uleb128 0x17
 2789 0a86 42000000 		.4byte	.LVL29
 2790 0a8a 980A0000 		.4byte	0xa98
 2791 0a8e 18       		.uleb128 0x18
 2792 0a8f 01       		.byte	0x1
 2793 0a90 50       		.byte	0x50
 2794 0a91 05       		.byte	0x5
 2795 0a92 03       		.byte	0x3
 2796 0a93 00000000 		.4byte	.LANCHOR4
 2797 0a97 00       		.byte	0
 2798 0a98 1B       		.uleb128 0x1b
 2799 0a99 4A000000 		.4byte	.LVL30
 2800 0a9d 01       		.byte	0x1
 2801 0a9e 5D0E0000 		.4byte	0xe5d
 2802 0aa2 17       		.uleb128 0x17
 2803 0aa3 52000000 		.4byte	.LVL31
 2804 0aa7 B50A0000 		.4byte	0xab5
 2805 0aab 18       		.uleb128 0x18
 2806 0aac 01       		.byte	0x1
 2807 0aad 50       		.byte	0x50
 2808 0aae 05       		.byte	0x5
 2809 0aaf 03       		.byte	0x3
 2810 0ab0 00000000 		.4byte	.LANCHOR4
 2811 0ab4 00       		.byte	0
 2812 0ab5 17       		.uleb128 0x17
ARM GAS  /var/folders/ng/s8655sgx1ys_4lf9jzm2w6n00000gn/T//ccT3xYAZ.s 			page 51


 2813 0ab6 5C000000 		.4byte	.LVL32
 2814 0aba C80A0000 		.4byte	0xac8
 2815 0abe 18       		.uleb128 0x18
 2816 0abf 01       		.byte	0x1
 2817 0ac0 50       		.byte	0x50
 2818 0ac1 05       		.byte	0x5
 2819 0ac2 03       		.byte	0x3
 2820 0ac3 00000000 		.4byte	.LANCHOR4
 2821 0ac7 00       		.byte	0
 2822 0ac8 19       		.uleb128 0x19
 2823 0ac9 66000000 		.4byte	.LVL33
 2824 0acd 18       		.uleb128 0x18
 2825 0ace 01       		.byte	0x1
 2826 0acf 50       		.byte	0x50
 2827 0ad0 05       		.byte	0x5
 2828 0ad1 03       		.byte	0x3
 2829 0ad2 00000000 		.4byte	.LANCHOR4
 2830 0ad6 00       		.byte	0
 2831 0ad7 00       		.byte	0
 2832 0ad8 1D       		.uleb128 0x1d
 2833 0ad9 01       		.byte	0x1
 2834 0ada 86090000 		.4byte	.LASF182
 2835 0ade 01       		.byte	0x1
 2836 0adf 4601     		.2byte	0x146
 2837 0ae1 01       		.byte	0x1
 2838 0ae2 00000000 		.4byte	.LFB126
 2839 0ae6 16000000 		.4byte	.LFE126
 2840 0aea A7010000 		.4byte	.LLST12
 2841 0aee 01       		.byte	0x1
 2842 0aef 150B0000 		.4byte	0xb15
 2843 0af3 1C       		.uleb128 0x1c
 2844 0af4 0E000000 		.4byte	.LVL34
 2845 0af8 38080000 		.4byte	0x838
 2846 0afc 0A0B0000 		.4byte	0xb0a
 2847 0b00 18       		.uleb128 0x18
 2848 0b01 01       		.byte	0x1
 2849 0b02 50       		.byte	0x50
 2850 0b03 05       		.byte	0x5
 2851 0b04 03       		.byte	0x3
 2852 0b05 00000000 		.4byte	.LANCHOR5
 2853 0b09 00       		.byte	0
 2854 0b0a 1B       		.uleb128 0x1b
 2855 0b0b 16000000 		.4byte	.LVL35
 2856 0b0f 01       		.byte	0x1
 2857 0b10 5D0E0000 		.4byte	0xe5d
 2858 0b14 00       		.byte	0
 2859 0b15 1D       		.uleb128 0x1d
 2860 0b16 01       		.byte	0x1
 2861 0b17 53090000 		.4byte	.LASF183
 2862 0b1b 01       		.byte	0x1
 2863 0b1c 5901     		.2byte	0x159
 2864 0b1e 01       		.byte	0x1
 2865 0b1f 00000000 		.4byte	.LFB127
 2866 0b23 8E000000 		.4byte	.LFE127
 2867 0b27 C7010000 		.4byte	.LLST13
 2868 0b2b 01       		.byte	0x1
 2869 0b2c A50B0000 		.4byte	0xba5
ARM GAS  /var/folders/ng/s8655sgx1ys_4lf9jzm2w6n00000gn/T//ccT3xYAZ.s 			page 52


 2870 0b30 1C       		.uleb128 0x1c
 2871 0b31 14000000 		.4byte	.LVL36
 2872 0b35 680E0000 		.4byte	0xe68
 2873 0b39 440B0000 		.4byte	0xb44
 2874 0b3d 18       		.uleb128 0x18
 2875 0b3e 01       		.byte	0x1
 2876 0b3f 50       		.byte	0x50
 2877 0b40 02       		.byte	0x2
 2878 0b41 74       		.byte	0x74
 2879 0b42 00       		.sleb128 0
 2880 0b43 00       		.byte	0
 2881 0b44 1C       		.uleb128 0x1c
 2882 0b45 2E000000 		.4byte	.LVL37
 2883 0b49 680E0000 		.4byte	0xe68
 2884 0b4d 580B0000 		.4byte	0xb58
 2885 0b51 18       		.uleb128 0x18
 2886 0b52 01       		.byte	0x1
 2887 0b53 50       		.byte	0x50
 2888 0b54 02       		.byte	0x2
 2889 0b55 76       		.byte	0x76
 2890 0b56 00       		.sleb128 0
 2891 0b57 00       		.byte	0
 2892 0b58 1C       		.uleb128 0x1c
 2893 0b59 42000000 		.4byte	.LVL38
 2894 0b5d 680E0000 		.4byte	0xe68
 2895 0b61 6C0B0000 		.4byte	0xb6c
 2896 0b65 18       		.uleb128 0x18
 2897 0b66 01       		.byte	0x1
 2898 0b67 50       		.byte	0x50
 2899 0b68 02       		.byte	0x2
 2900 0b69 75       		.byte	0x75
 2901 0b6a 00       		.sleb128 0
 2902 0b6b 00       		.byte	0
 2903 0b6c 1C       		.uleb128 0x1c
 2904 0b6d 5A000000 		.4byte	.LVL39
 2905 0b71 680E0000 		.4byte	0xe68
 2906 0b75 800B0000 		.4byte	0xb80
 2907 0b79 18       		.uleb128 0x18
 2908 0b7a 01       		.byte	0x1
 2909 0b7b 50       		.byte	0x50
 2910 0b7c 02       		.byte	0x2
 2911 0b7d 74       		.byte	0x74
 2912 0b7e 00       		.sleb128 0
 2913 0b7f 00       		.byte	0
 2914 0b80 1C       		.uleb128 0x1c
 2915 0b81 72000000 		.4byte	.LVL40
 2916 0b85 680E0000 		.4byte	0xe68
 2917 0b89 940B0000 		.4byte	0xb94
 2918 0b8d 18       		.uleb128 0x18
 2919 0b8e 01       		.byte	0x1
 2920 0b8f 50       		.byte	0x50
 2921 0b90 02       		.byte	0x2
 2922 0b91 76       		.byte	0x76
 2923 0b92 00       		.sleb128 0
 2924 0b93 00       		.byte	0
 2925 0b94 1F       		.uleb128 0x1f
 2926 0b95 82000000 		.4byte	.LVL41
ARM GAS  /var/folders/ng/s8655sgx1ys_4lf9jzm2w6n00000gn/T//ccT3xYAZ.s 			page 53


 2927 0b99 680E0000 		.4byte	0xe68
 2928 0b9d 18       		.uleb128 0x18
 2929 0b9e 01       		.byte	0x1
 2930 0b9f 50       		.byte	0x50
 2931 0ba0 02       		.byte	0x2
 2932 0ba1 75       		.byte	0x75
 2933 0ba2 00       		.sleb128 0
 2934 0ba3 00       		.byte	0
 2935 0ba4 00       		.byte	0
 2936 0ba5 1D       		.uleb128 0x1d
 2937 0ba6 01       		.byte	0x1
 2938 0ba7 11020000 		.4byte	.LASF184
 2939 0bab 01       		.byte	0x1
 2940 0bac 8F01     		.2byte	0x18f
 2941 0bae 01       		.byte	0x1
 2942 0baf 00000000 		.4byte	.LFB128
 2943 0bb3 98020000 		.4byte	.LFE128
 2944 0bb7 E7010000 		.4byte	.LLST14
 2945 0bbb 01       		.byte	0x1
 2946 0bbc 800C0000 		.4byte	0xc80
 2947 0bc0 20       		.uleb128 0x20
 2948 0bc1 9E040000 		.4byte	.LASF185
 2949 0bc5 01       		.byte	0x1
 2950 0bc6 8F01     		.2byte	0x18f
 2951 0bc8 E6050000 		.4byte	0x5e6
 2952 0bcc 07020000 		.4byte	.LLST15
 2953 0bd0 1E       		.uleb128 0x1e
 2954 0bd1 70736300 		.ascii	"psc\000"
 2955 0bd5 01       		.byte	0x1
 2956 0bd6 9001     		.2byte	0x190
 2957 0bd8 7B000000 		.4byte	0x7b
 2958 0bdc DE020000 		.4byte	.LLST16
 2959 0be0 21       		.uleb128 0x21
 2960 0be1 85040000 		.4byte	.LASF186
 2961 0be5 01       		.byte	0x1
 2962 0be6 9101     		.2byte	0x191
 2963 0be8 57000000 		.4byte	0x57
 2964 0bec CA030000 		.4byte	.LLST17
 2965 0bf0 1C       		.uleb128 0x1c
 2966 0bf1 94010000 		.4byte	.LVL85
 2967 0bf5 7C0E0000 		.4byte	0xe7c
 2968 0bf9 0A0C0000 		.4byte	0xc0a
 2969 0bfd 18       		.uleb128 0x18
 2970 0bfe 01       		.byte	0x1
 2971 0bff 51       		.byte	0x51
 2972 0c00 02       		.byte	0x2
 2973 0c01 08       		.byte	0x8
 2974 0c02 70       		.byte	0x70
 2975 0c03 18       		.uleb128 0x18
 2976 0c04 01       		.byte	0x1
 2977 0c05 50       		.byte	0x50
 2978 0c06 02       		.byte	0x2
 2979 0c07 08       		.byte	0x8
 2980 0c08 2C       		.byte	0x2c
 2981 0c09 00       		.byte	0
 2982 0c0a 1C       		.uleb128 0x1c
 2983 0c0b 9C010000 		.4byte	.LVL86
ARM GAS  /var/folders/ng/s8655sgx1ys_4lf9jzm2w6n00000gn/T//ccT3xYAZ.s 			page 54


 2984 0c0f 7C0E0000 		.4byte	0xe7c
 2985 0c13 240C0000 		.4byte	0xc24
 2986 0c17 18       		.uleb128 0x18
 2987 0c18 01       		.byte	0x1
 2988 0c19 51       		.byte	0x51
 2989 0c1a 02       		.byte	0x2
 2990 0c1b 08       		.byte	0x8
 2991 0c1c 70       		.byte	0x70
 2992 0c1d 18       		.uleb128 0x18
 2993 0c1e 01       		.byte	0x1
 2994 0c1f 50       		.byte	0x50
 2995 0c20 02       		.byte	0x2
 2996 0c21 08       		.byte	0x8
 2997 0c22 2E       		.byte	0x2e
 2998 0c23 00       		.byte	0
 2999 0c24 1C       		.uleb128 0x1c
 3000 0c25 CC010000 		.4byte	.LVL89
 3001 0c29 7C0E0000 		.4byte	0xe7c
 3002 0c2d 3D0C0000 		.4byte	0xc3d
 3003 0c31 18       		.uleb128 0x18
 3004 0c32 01       		.byte	0x1
 3005 0c33 51       		.byte	0x51
 3006 0c34 02       		.byte	0x2
 3007 0c35 08       		.byte	0x8
 3008 0c36 70       		.byte	0x70
 3009 0c37 18       		.uleb128 0x18
 3010 0c38 01       		.byte	0x1
 3011 0c39 50       		.byte	0x50
 3012 0c3a 01       		.byte	0x1
 3013 0c3b 49       		.byte	0x49
 3014 0c3c 00       		.byte	0
 3015 0c3d 1C       		.uleb128 0x1c
 3016 0c3e D4010000 		.4byte	.LVL90
 3017 0c42 7C0E0000 		.4byte	0xe7c
 3018 0c46 560C0000 		.4byte	0xc56
 3019 0c4a 18       		.uleb128 0x18
 3020 0c4b 01       		.byte	0x1
 3021 0c4c 51       		.byte	0x51
 3022 0c4d 02       		.byte	0x2
 3023 0c4e 08       		.byte	0x8
 3024 0c4f 70       		.byte	0x70
 3025 0c50 18       		.uleb128 0x18
 3026 0c51 01       		.byte	0x1
 3027 0c52 50       		.byte	0x50
 3028 0c53 01       		.byte	0x1
 3029 0c54 4B       		.byte	0x4b
 3030 0c55 00       		.byte	0
 3031 0c56 1C       		.uleb128 0x1c
 3032 0c57 0C020000 		.4byte	.LVL93
 3033 0c5b 7C0E0000 		.4byte	0xe7c
 3034 0c5f 6F0C0000 		.4byte	0xc6f
 3035 0c63 18       		.uleb128 0x18
 3036 0c64 01       		.byte	0x1
 3037 0c65 51       		.byte	0x51
 3038 0c66 02       		.byte	0x2
 3039 0c67 08       		.byte	0x8
 3040 0c68 70       		.byte	0x70
ARM GAS  /var/folders/ng/s8655sgx1ys_4lf9jzm2w6n00000gn/T//ccT3xYAZ.s 			page 55


 3041 0c69 18       		.uleb128 0x18
 3042 0c6a 01       		.byte	0x1
 3043 0c6b 50       		.byte	0x50
 3044 0c6c 01       		.byte	0x1
 3045 0c6d 4C       		.byte	0x4c
 3046 0c6e 00       		.byte	0
 3047 0c6f 1F       		.uleb128 0x1f
 3048 0c70 34020000 		.4byte	.LVL96
 3049 0c74 7C0E0000 		.4byte	0xe7c
 3050 0c78 18       		.uleb128 0x18
 3051 0c79 01       		.byte	0x1
 3052 0c7a 51       		.byte	0x51
 3053 0c7b 02       		.byte	0x2
 3054 0c7c 08       		.byte	0x8
 3055 0c7d 70       		.byte	0x70
 3056 0c7e 00       		.byte	0
 3057 0c7f 00       		.byte	0
 3058 0c80 1D       		.uleb128 0x1d
 3059 0c81 01       		.byte	0x1
 3060 0c82 0E070000 		.4byte	.LASF187
 3061 0c86 01       		.byte	0x1
 3062 0c87 5D02     		.2byte	0x25d
 3063 0c89 01       		.byte	0x1
 3064 0c8a 00000000 		.4byte	.LFB129
 3065 0c8e F0000000 		.4byte	.LFE129
 3066 0c92 4F040000 		.4byte	.LLST18
 3067 0c96 01       		.byte	0x1
 3068 0c97 420D0000 		.4byte	0xd42
 3069 0c9b 20       		.uleb128 0x20
 3070 0c9c 9E040000 		.4byte	.LASF185
 3071 0ca0 01       		.byte	0x1
 3072 0ca1 5D02     		.2byte	0x25d
 3073 0ca3 E6050000 		.4byte	0x5e6
 3074 0ca7 6F040000 		.4byte	.LLST19
 3075 0cab 1C       		.uleb128 0x1c
 3076 0cac 42000000 		.4byte	.LVL103
 3077 0cb0 960E0000 		.4byte	0xe96
 3078 0cb4 BE0C0000 		.4byte	0xcbe
 3079 0cb8 18       		.uleb128 0x18
 3080 0cb9 01       		.byte	0x1
 3081 0cba 50       		.byte	0x50
 3082 0cbb 01       		.byte	0x1
 3083 0cbc 48       		.byte	0x48
 3084 0cbd 00       		.byte	0
 3085 0cbe 1C       		.uleb128 0x1c
 3086 0cbf 5A000000 		.4byte	.LVL104
 3087 0cc3 960E0000 		.4byte	0xe96
 3088 0cc7 D10C0000 		.4byte	0xcd1
 3089 0ccb 18       		.uleb128 0x18
 3090 0ccc 01       		.byte	0x1
 3091 0ccd 50       		.byte	0x50
 3092 0cce 01       		.byte	0x1
 3093 0ccf 49       		.byte	0x49
 3094 0cd0 00       		.byte	0
 3095 0cd1 1C       		.uleb128 0x1c
 3096 0cd2 60000000 		.4byte	.LVL105
 3097 0cd6 960E0000 		.4byte	0xe96
ARM GAS  /var/folders/ng/s8655sgx1ys_4lf9jzm2w6n00000gn/T//ccT3xYAZ.s 			page 56


 3098 0cda E40C0000 		.4byte	0xce4
 3099 0cde 18       		.uleb128 0x18
 3100 0cdf 01       		.byte	0x1
 3101 0ce0 50       		.byte	0x50
 3102 0ce1 01       		.byte	0x1
 3103 0ce2 4B       		.byte	0x4b
 3104 0ce3 00       		.byte	0
 3105 0ce4 1C       		.uleb128 0x1c
 3106 0ce5 78000000 		.4byte	.LVL106
 3107 0ce9 960E0000 		.4byte	0xe96
 3108 0ced F70C0000 		.4byte	0xcf7
 3109 0cf1 18       		.uleb128 0x18
 3110 0cf2 01       		.byte	0x1
 3111 0cf3 50       		.byte	0x50
 3112 0cf4 01       		.byte	0x1
 3113 0cf5 4C       		.byte	0x4c
 3114 0cf6 00       		.byte	0
 3115 0cf7 1C       		.uleb128 0x1c
 3116 0cf8 90000000 		.4byte	.LVL107
 3117 0cfc 960E0000 		.4byte	0xe96
 3118 0d00 0A0D0000 		.4byte	0xd0a
 3119 0d04 18       		.uleb128 0x18
 3120 0d05 01       		.byte	0x1
 3121 0d06 50       		.byte	0x50
 3122 0d07 01       		.byte	0x1
 3123 0d08 4D       		.byte	0x4d
 3124 0d09 00       		.byte	0
 3125 0d0a 1C       		.uleb128 0x1c
 3126 0d0b A8000000 		.4byte	.LVL108
 3127 0d0f 960E0000 		.4byte	0xe96
 3128 0d13 1D0D0000 		.4byte	0xd1d
 3129 0d17 18       		.uleb128 0x18
 3130 0d18 01       		.byte	0x1
 3131 0d19 50       		.byte	0x50
 3132 0d1a 01       		.byte	0x1
 3133 0d1b 4E       		.byte	0x4e
 3134 0d1c 00       		.byte	0
 3135 0d1d 1C       		.uleb128 0x1c
 3136 0d1e C0000000 		.4byte	.LVL109
 3137 0d22 960E0000 		.4byte	0xe96
 3138 0d26 310D0000 		.4byte	0xd31
 3139 0d2a 18       		.uleb128 0x18
 3140 0d2b 01       		.byte	0x1
 3141 0d2c 50       		.byte	0x50
 3142 0d2d 02       		.byte	0x2
 3143 0d2e 08       		.byte	0x8
 3144 0d2f 2C       		.byte	0x2c
 3145 0d30 00       		.byte	0
 3146 0d31 1F       		.uleb128 0x1f
 3147 0d32 C6000000 		.4byte	.LVL110
 3148 0d36 960E0000 		.4byte	0xe96
 3149 0d3a 18       		.uleb128 0x18
 3150 0d3b 01       		.byte	0x1
 3151 0d3c 50       		.byte	0x50
 3152 0d3d 02       		.byte	0x2
 3153 0d3e 08       		.byte	0x8
 3154 0d3f 2E       		.byte	0x2e
ARM GAS  /var/folders/ng/s8655sgx1ys_4lf9jzm2w6n00000gn/T//ccT3xYAZ.s 			page 57


 3155 0d40 00       		.byte	0
 3156 0d41 00       		.byte	0
 3157 0d42 1D       		.uleb128 0x1d
 3158 0d43 01       		.byte	0x1
 3159 0d44 7A070000 		.4byte	.LASF188
 3160 0d48 01       		.byte	0x1
 3161 0d49 A302     		.2byte	0x2a3
 3162 0d4b 01       		.byte	0x1
 3163 0d4c 00000000 		.4byte	.LFB130
 3164 0d50 30000000 		.4byte	.LFE130
 3165 0d54 A3040000 		.4byte	.LLST20
 3166 0d58 01       		.byte	0x1
 3167 0d59 A80D0000 		.4byte	0xda8
 3168 0d5d 20       		.uleb128 0x20
 3169 0d5e 9E040000 		.4byte	.LASF185
 3170 0d62 01       		.byte	0x1
 3171 0d63 A302     		.2byte	0x2a3
 3172 0d65 E6050000 		.4byte	0x5e6
 3173 0d69 C3040000 		.4byte	.LLST21
 3174 0d6d 20       		.uleb128 0x20
 3175 0d6e EA060000 		.4byte	.LASF189
 3176 0d72 01       		.byte	0x1
 3177 0d73 A402     		.2byte	0x2a4
 3178 0d75 4C070000 		.4byte	0x74c
 3179 0d79 E4040000 		.4byte	.LLST22
 3180 0d7d 20       		.uleb128 0x20
 3181 0d7e CF030000 		.4byte	.LASF190
 3182 0d82 01       		.byte	0x1
 3183 0d83 A502     		.2byte	0x2a5
 3184 0d85 58070000 		.4byte	0x758
 3185 0d89 05050000 		.4byte	.LLST23
 3186 0d8d 22       		.uleb128 0x22
 3187 0d8e 18000000 		.4byte	.LBB2
 3188 0d92 2C000000 		.4byte	.LBE2
 3189 0d96 21       		.uleb128 0x21
 3190 0d97 E8090000 		.4byte	.LASF173
 3191 0d9b 01       		.byte	0x1
 3192 0d9c AB02     		.2byte	0x2ab
 3193 0d9e 7B000000 		.4byte	0x7b
 3194 0da2 26050000 		.4byte	.LLST24
 3195 0da6 00       		.byte	0
 3196 0da7 00       		.byte	0
 3197 0da8 23       		.uleb128 0x23
 3198 0da9 01       		.byte	0x1
 3199 0daa 28090000 		.4byte	.LASF191
 3200 0dae 01       		.byte	0x1
 3201 0daf C102     		.2byte	0x2c1
 3202 0db1 01       		.byte	0x1
 3203 0db2 00000000 		.4byte	.LFB131
 3204 0db6 1E000000 		.4byte	.LFE131
 3205 0dba 02       		.byte	0x2
 3206 0dbb 7D       		.byte	0x7d
 3207 0dbc 00       		.sleb128 0
 3208 0dbd 01       		.byte	0x1
 3209 0dbe E30D0000 		.4byte	0xde3
 3210 0dc2 20       		.uleb128 0x20
 3211 0dc3 9E040000 		.4byte	.LASF185
ARM GAS  /var/folders/ng/s8655sgx1ys_4lf9jzm2w6n00000gn/T//ccT3xYAZ.s 			page 58


 3212 0dc7 01       		.byte	0x1
 3213 0dc8 C102     		.2byte	0x2c1
 3214 0dca E6050000 		.4byte	0x5e6
 3215 0dce 39050000 		.4byte	.LLST25
 3216 0dd2 20       		.uleb128 0x20
 3217 0dd3 EA060000 		.4byte	.LASF189
 3218 0dd7 01       		.byte	0x1
 3219 0dd8 C102     		.2byte	0x2c1
 3220 0dda 4C070000 		.4byte	0x74c
 3221 0dde 5A050000 		.4byte	.LLST26
 3222 0de2 00       		.byte	0
 3223 0de3 24       		.uleb128 0x24
 3224 0de4 5E060000 		.4byte	.LASF192
 3225 0de8 07       		.byte	0x7
 3226 0de9 9806     		.2byte	0x698
 3227 0deb 41030000 		.4byte	0x341
 3228 0def 01       		.byte	0x1
 3229 0df0 01       		.byte	0x1
 3230 0df1 25       		.uleb128 0x25
 3231 0df2 CC020000 		.4byte	.LASF193
 3232 0df6 01       		.byte	0x1
 3233 0df7 2B       		.byte	0x2b
 3234 0df8 65050000 		.4byte	0x565
 3235 0dfc 01       		.byte	0x1
 3236 0dfd 05       		.byte	0x5
 3237 0dfe 03       		.byte	0x3
 3238 0dff 00000000 		.4byte	PWMD1
 3239 0e03 25       		.uleb128 0x25
 3240 0e04 D2020000 		.4byte	.LASF194
 3241 0e08 01       		.byte	0x1
 3242 0e09 33       		.byte	0x33
 3243 0e0a 65050000 		.4byte	0x565
 3244 0e0e 01       		.byte	0x1
 3245 0e0f 05       		.byte	0x5
 3246 0e10 03       		.byte	0x3
 3247 0e11 00000000 		.4byte	PWMD2
 3248 0e15 25       		.uleb128 0x25
 3249 0e16 D8020000 		.4byte	.LASF195
 3250 0e1a 01       		.byte	0x1
 3251 0e1b 3B       		.byte	0x3b
 3252 0e1c 65050000 		.4byte	0x565
 3253 0e20 01       		.byte	0x1
 3254 0e21 05       		.byte	0x5
 3255 0e22 03       		.byte	0x3
 3256 0e23 00000000 		.4byte	PWMD3
 3257 0e27 25       		.uleb128 0x25
 3258 0e28 DE020000 		.4byte	.LASF196
 3259 0e2c 01       		.byte	0x1
 3260 0e2d 43       		.byte	0x43
 3261 0e2e 65050000 		.4byte	0x565
 3262 0e32 01       		.byte	0x1
 3263 0e33 05       		.byte	0x5
 3264 0e34 03       		.byte	0x3
 3265 0e35 00000000 		.4byte	PWMD4
 3266 0e39 25       		.uleb128 0x25
 3267 0e3a 0B020000 		.4byte	.LASF197
 3268 0e3e 01       		.byte	0x1
ARM GAS  /var/folders/ng/s8655sgx1ys_4lf9jzm2w6n00000gn/T//ccT3xYAZ.s 			page 59


 3269 0e3f 53       		.byte	0x53
 3270 0e40 65050000 		.4byte	0x565
 3271 0e44 01       		.byte	0x1
 3272 0e45 05       		.byte	0x5
 3273 0e46 03       		.byte	0x3
 3274 0e47 00000000 		.4byte	PWMD8
 3275 0e4b 25       		.uleb128 0x25
 3276 0e4c 04030000 		.4byte	.LASF198
 3277 0e50 01       		.byte	0x1
 3278 0e51 5B       		.byte	0x5b
 3279 0e52 65050000 		.4byte	0x565
 3280 0e56 01       		.byte	0x1
 3281 0e57 05       		.byte	0x5
 3282 0e58 03       		.byte	0x3
 3283 0e59 00000000 		.4byte	PWMD9
 3284 0e5d 26       		.uleb128 0x26
 3285 0e5e 01       		.byte	0x1
 3286 0e5f B6080000 		.4byte	.LASF206
 3287 0e63 09       		.byte	0x9
 3288 0e64 0302     		.2byte	0x203
 3289 0e66 01       		.byte	0x1
 3290 0e67 01       		.byte	0x1
 3291 0e68 27       		.uleb128 0x27
 3292 0e69 01       		.byte	0x1
 3293 0e6a 9D090000 		.4byte	.LASF199
 3294 0e6e 04       		.byte	0x4
 3295 0e6f F3       		.byte	0xf3
 3296 0e70 01       		.byte	0x1
 3297 0e71 01       		.byte	0x1
 3298 0e72 7C0E0000 		.4byte	0xe7c
 3299 0e76 12       		.uleb128 0x12
 3300 0e77 E6050000 		.4byte	0x5e6
 3301 0e7b 00       		.byte	0
 3302 0e7c 28       		.uleb128 0x28
 3303 0e7d 01       		.byte	0x1
 3304 0e7e 31010000 		.4byte	.LASF200
 3305 0e82 08       		.byte	0x8
 3306 0e83 2301     		.2byte	0x123
 3307 0e85 01       		.byte	0x1
 3308 0e86 01       		.byte	0x1
 3309 0e87 960E0000 		.4byte	0xe96
 3310 0e8b 12       		.uleb128 0x12
 3311 0e8c 7B000000 		.4byte	0x7b
 3312 0e90 12       		.uleb128 0x12
 3313 0e91 7B000000 		.4byte	0x7b
 3314 0e95 00       		.byte	0
 3315 0e96 29       		.uleb128 0x29
 3316 0e97 01       		.byte	0x1
 3317 0e98 56070000 		.4byte	.LASF207
 3318 0e9c 08       		.byte	0x8
 3319 0e9d 2401     		.2byte	0x124
 3320 0e9f 01       		.byte	0x1
 3321 0ea0 01       		.byte	0x1
 3322 0ea1 12       		.uleb128 0x12
 3323 0ea2 7B000000 		.4byte	0x7b
 3324 0ea6 00       		.byte	0
 3325 0ea7 00       		.byte	0
ARM GAS  /var/folders/ng/s8655sgx1ys_4lf9jzm2w6n00000gn/T//ccT3xYAZ.s 			page 60


 3326              		.section	.debug_abbrev,"",%progbits
 3327              	.Ldebug_abbrev0:
 3328 0000 01       		.uleb128 0x1
 3329 0001 11       		.uleb128 0x11
 3330 0002 01       		.byte	0x1
 3331 0003 25       		.uleb128 0x25
 3332 0004 0E       		.uleb128 0xe
 3333 0005 13       		.uleb128 0x13
 3334 0006 0B       		.uleb128 0xb
 3335 0007 03       		.uleb128 0x3
 3336 0008 0E       		.uleb128 0xe
 3337 0009 1B       		.uleb128 0x1b
 3338 000a 0E       		.uleb128 0xe
 3339 000b 55       		.uleb128 0x55
 3340 000c 06       		.uleb128 0x6
 3341 000d 11       		.uleb128 0x11
 3342 000e 01       		.uleb128 0x1
 3343 000f 52       		.uleb128 0x52
 3344 0010 01       		.uleb128 0x1
 3345 0011 10       		.uleb128 0x10
 3346 0012 06       		.uleb128 0x6
 3347 0013 00       		.byte	0
 3348 0014 00       		.byte	0
 3349 0015 02       		.uleb128 0x2
 3350 0016 24       		.uleb128 0x24
 3351 0017 00       		.byte	0
 3352 0018 0B       		.uleb128 0xb
 3353 0019 0B       		.uleb128 0xb
 3354 001a 3E       		.uleb128 0x3e
 3355 001b 0B       		.uleb128 0xb
 3356 001c 03       		.uleb128 0x3
 3357 001d 0E       		.uleb128 0xe
 3358 001e 00       		.byte	0
 3359 001f 00       		.byte	0
 3360 0020 03       		.uleb128 0x3
 3361 0021 24       		.uleb128 0x24
 3362 0022 00       		.byte	0
 3363 0023 0B       		.uleb128 0xb
 3364 0024 0B       		.uleb128 0xb
 3365 0025 3E       		.uleb128 0x3e
 3366 0026 0B       		.uleb128 0xb
 3367 0027 03       		.uleb128 0x3
 3368 0028 08       		.uleb128 0x8
 3369 0029 00       		.byte	0
 3370 002a 00       		.byte	0
 3371 002b 04       		.uleb128 0x4
 3372 002c 16       		.uleb128 0x16
 3373 002d 00       		.byte	0
 3374 002e 03       		.uleb128 0x3
 3375 002f 0E       		.uleb128 0xe
 3376 0030 3A       		.uleb128 0x3a
 3377 0031 0B       		.uleb128 0xb
 3378 0032 3B       		.uleb128 0x3b
 3379 0033 0B       		.uleb128 0xb
 3380 0034 49       		.uleb128 0x49
 3381 0035 13       		.uleb128 0x13
 3382 0036 00       		.byte	0
ARM GAS  /var/folders/ng/s8655sgx1ys_4lf9jzm2w6n00000gn/T//ccT3xYAZ.s 			page 61


 3383 0037 00       		.byte	0
 3384 0038 05       		.uleb128 0x5
 3385 0039 35       		.uleb128 0x35
 3386 003a 00       		.byte	0
 3387 003b 49       		.uleb128 0x49
 3388 003c 13       		.uleb128 0x13
 3389 003d 00       		.byte	0
 3390 003e 00       		.byte	0
 3391 003f 06       		.uleb128 0x6
 3392 0040 04       		.uleb128 0x4
 3393 0041 01       		.byte	0x1
 3394 0042 03       		.uleb128 0x3
 3395 0043 0E       		.uleb128 0xe
 3396 0044 0B       		.uleb128 0xb
 3397 0045 0B       		.uleb128 0xb
 3398 0046 3A       		.uleb128 0x3a
 3399 0047 0B       		.uleb128 0xb
 3400 0048 3B       		.uleb128 0x3b
 3401 0049 0B       		.uleb128 0xb
 3402 004a 01       		.uleb128 0x1
 3403 004b 13       		.uleb128 0x13
 3404 004c 00       		.byte	0
 3405 004d 00       		.byte	0
 3406 004e 07       		.uleb128 0x7
 3407 004f 28       		.uleb128 0x28
 3408 0050 00       		.byte	0
 3409 0051 03       		.uleb128 0x3
 3410 0052 0E       		.uleb128 0xe
 3411 0053 1C       		.uleb128 0x1c
 3412 0054 0D       		.uleb128 0xd
 3413 0055 00       		.byte	0
 3414 0056 00       		.byte	0
 3415 0057 08       		.uleb128 0x8
 3416 0058 01       		.uleb128 0x1
 3417 0059 01       		.byte	0x1
 3418 005a 49       		.uleb128 0x49
 3419 005b 13       		.uleb128 0x13
 3420 005c 01       		.uleb128 0x1
 3421 005d 13       		.uleb128 0x13
 3422 005e 00       		.byte	0
 3423 005f 00       		.byte	0
 3424 0060 09       		.uleb128 0x9
 3425 0061 21       		.uleb128 0x21
 3426 0062 00       		.byte	0
 3427 0063 49       		.uleb128 0x49
 3428 0064 13       		.uleb128 0x13
 3429 0065 2F       		.uleb128 0x2f
 3430 0066 0B       		.uleb128 0xb
 3431 0067 00       		.byte	0
 3432 0068 00       		.byte	0
 3433 0069 0A       		.uleb128 0xa
 3434 006a 13       		.uleb128 0x13
 3435 006b 01       		.byte	0x1
 3436 006c 0B       		.uleb128 0xb
 3437 006d 0B       		.uleb128 0xb
 3438 006e 3A       		.uleb128 0x3a
 3439 006f 0B       		.uleb128 0xb
ARM GAS  /var/folders/ng/s8655sgx1ys_4lf9jzm2w6n00000gn/T//ccT3xYAZ.s 			page 62


 3440 0070 3B       		.uleb128 0x3b
 3441 0071 05       		.uleb128 0x5
 3442 0072 01       		.uleb128 0x1
 3443 0073 13       		.uleb128 0x13
 3444 0074 00       		.byte	0
 3445 0075 00       		.byte	0
 3446 0076 0B       		.uleb128 0xb
 3447 0077 0D       		.uleb128 0xd
 3448 0078 00       		.byte	0
 3449 0079 03       		.uleb128 0x3
 3450 007a 08       		.uleb128 0x8
 3451 007b 3A       		.uleb128 0x3a
 3452 007c 0B       		.uleb128 0xb
 3453 007d 3B       		.uleb128 0x3b
 3454 007e 05       		.uleb128 0x5
 3455 007f 49       		.uleb128 0x49
 3456 0080 13       		.uleb128 0x13
 3457 0081 38       		.uleb128 0x38
 3458 0082 0A       		.uleb128 0xa
 3459 0083 00       		.byte	0
 3460 0084 00       		.byte	0
 3461 0085 0C       		.uleb128 0xc
 3462 0086 0D       		.uleb128 0xd
 3463 0087 00       		.byte	0
 3464 0088 03       		.uleb128 0x3
 3465 0089 0E       		.uleb128 0xe
 3466 008a 3A       		.uleb128 0x3a
 3467 008b 0B       		.uleb128 0xb
 3468 008c 3B       		.uleb128 0x3b
 3469 008d 05       		.uleb128 0x5
 3470 008e 49       		.uleb128 0x49
 3471 008f 13       		.uleb128 0x13
 3472 0090 38       		.uleb128 0x38
 3473 0091 0A       		.uleb128 0xa
 3474 0092 00       		.byte	0
 3475 0093 00       		.byte	0
 3476 0094 0D       		.uleb128 0xd
 3477 0095 16       		.uleb128 0x16
 3478 0096 00       		.byte	0
 3479 0097 03       		.uleb128 0x3
 3480 0098 0E       		.uleb128 0xe
 3481 0099 3A       		.uleb128 0x3a
 3482 009a 0B       		.uleb128 0xb
 3483 009b 3B       		.uleb128 0x3b
 3484 009c 05       		.uleb128 0x5
 3485 009d 49       		.uleb128 0x49
 3486 009e 13       		.uleb128 0x13
 3487 009f 00       		.byte	0
 3488 00a0 00       		.byte	0
 3489 00a1 0E       		.uleb128 0xe
 3490 00a2 04       		.uleb128 0x4
 3491 00a3 01       		.byte	0x1
 3492 00a4 0B       		.uleb128 0xb
 3493 00a5 0B       		.uleb128 0xb
 3494 00a6 3A       		.uleb128 0x3a
 3495 00a7 0B       		.uleb128 0xb
 3496 00a8 3B       		.uleb128 0x3b
ARM GAS  /var/folders/ng/s8655sgx1ys_4lf9jzm2w6n00000gn/T//ccT3xYAZ.s 			page 63


 3497 00a9 0B       		.uleb128 0xb
 3498 00aa 01       		.uleb128 0x1
 3499 00ab 13       		.uleb128 0x13
 3500 00ac 00       		.byte	0
 3501 00ad 00       		.byte	0
 3502 00ae 0F       		.uleb128 0xf
 3503 00af 13       		.uleb128 0x13
 3504 00b0 01       		.byte	0x1
 3505 00b1 03       		.uleb128 0x3
 3506 00b2 0E       		.uleb128 0xe
 3507 00b3 0B       		.uleb128 0xb
 3508 00b4 0B       		.uleb128 0xb
 3509 00b5 3A       		.uleb128 0x3a
 3510 00b6 0B       		.uleb128 0xb
 3511 00b7 3B       		.uleb128 0x3b
 3512 00b8 05       		.uleb128 0x5
 3513 00b9 01       		.uleb128 0x1
 3514 00ba 13       		.uleb128 0x13
 3515 00bb 00       		.byte	0
 3516 00bc 00       		.byte	0
 3517 00bd 10       		.uleb128 0x10
 3518 00be 0F       		.uleb128 0xf
 3519 00bf 00       		.byte	0
 3520 00c0 0B       		.uleb128 0xb
 3521 00c1 0B       		.uleb128 0xb
 3522 00c2 49       		.uleb128 0x49
 3523 00c3 13       		.uleb128 0x13
 3524 00c4 00       		.byte	0
 3525 00c5 00       		.byte	0
 3526 00c6 11       		.uleb128 0x11
 3527 00c7 15       		.uleb128 0x15
 3528 00c8 01       		.byte	0x1
 3529 00c9 27       		.uleb128 0x27
 3530 00ca 0C       		.uleb128 0xc
 3531 00cb 01       		.uleb128 0x1
 3532 00cc 13       		.uleb128 0x13
 3533 00cd 00       		.byte	0
 3534 00ce 00       		.byte	0
 3535 00cf 12       		.uleb128 0x12
 3536 00d0 05       		.uleb128 0x5
 3537 00d1 00       		.byte	0
 3538 00d2 49       		.uleb128 0x49
 3539 00d3 13       		.uleb128 0x13
 3540 00d4 00       		.byte	0
 3541 00d5 00       		.byte	0
 3542 00d6 13       		.uleb128 0x13
 3543 00d7 26       		.uleb128 0x26
 3544 00d8 00       		.byte	0
 3545 00d9 49       		.uleb128 0x49
 3546 00da 13       		.uleb128 0x13
 3547 00db 00       		.byte	0
 3548 00dc 00       		.byte	0
 3549 00dd 14       		.uleb128 0x14
 3550 00de 2E       		.uleb128 0x2e
 3551 00df 01       		.byte	0x1
 3552 00e0 03       		.uleb128 0x3
 3553 00e1 0E       		.uleb128 0xe
ARM GAS  /var/folders/ng/s8655sgx1ys_4lf9jzm2w6n00000gn/T//ccT3xYAZ.s 			page 64


 3554 00e2 3A       		.uleb128 0x3a
 3555 00e3 0B       		.uleb128 0xb
 3556 00e4 3B       		.uleb128 0x3b
 3557 00e5 0B       		.uleb128 0xb
 3558 00e6 27       		.uleb128 0x27
 3559 00e7 0C       		.uleb128 0xc
 3560 00e8 11       		.uleb128 0x11
 3561 00e9 01       		.uleb128 0x1
 3562 00ea 12       		.uleb128 0x12
 3563 00eb 01       		.uleb128 0x1
 3564 00ec 40       		.uleb128 0x40
 3565 00ed 06       		.uleb128 0x6
 3566 00ee 9742     		.uleb128 0x2117
 3567 00f0 0C       		.uleb128 0xc
 3568 00f1 01       		.uleb128 0x1
 3569 00f2 13       		.uleb128 0x13
 3570 00f3 00       		.byte	0
 3571 00f4 00       		.byte	0
 3572 00f5 15       		.uleb128 0x15
 3573 00f6 05       		.uleb128 0x5
 3574 00f7 00       		.byte	0
 3575 00f8 03       		.uleb128 0x3
 3576 00f9 0E       		.uleb128 0xe
 3577 00fa 3A       		.uleb128 0x3a
 3578 00fb 0B       		.uleb128 0xb
 3579 00fc 3B       		.uleb128 0x3b
 3580 00fd 0B       		.uleb128 0xb
 3581 00fe 49       		.uleb128 0x49
 3582 00ff 13       		.uleb128 0x13
 3583 0100 02       		.uleb128 0x2
 3584 0101 06       		.uleb128 0x6
 3585 0102 00       		.byte	0
 3586 0103 00       		.byte	0
 3587 0104 16       		.uleb128 0x16
 3588 0105 34       		.uleb128 0x34
 3589 0106 00       		.byte	0
 3590 0107 03       		.uleb128 0x3
 3591 0108 08       		.uleb128 0x8
 3592 0109 3A       		.uleb128 0x3a
 3593 010a 0B       		.uleb128 0xb
 3594 010b 3B       		.uleb128 0x3b
 3595 010c 0B       		.uleb128 0xb
 3596 010d 49       		.uleb128 0x49
 3597 010e 13       		.uleb128 0x13
 3598 010f 02       		.uleb128 0x2
 3599 0110 06       		.uleb128 0x6
 3600 0111 00       		.byte	0
 3601 0112 00       		.byte	0
 3602 0113 17       		.uleb128 0x17
 3603 0114 898201   		.uleb128 0x4109
 3604 0117 01       		.byte	0x1
 3605 0118 11       		.uleb128 0x11
 3606 0119 01       		.uleb128 0x1
 3607 011a 01       		.uleb128 0x1
 3608 011b 13       		.uleb128 0x13
 3609 011c 00       		.byte	0
 3610 011d 00       		.byte	0
ARM GAS  /var/folders/ng/s8655sgx1ys_4lf9jzm2w6n00000gn/T//ccT3xYAZ.s 			page 65


 3611 011e 18       		.uleb128 0x18
 3612 011f 8A8201   		.uleb128 0x410a
 3613 0122 00       		.byte	0
 3614 0123 02       		.uleb128 0x2
 3615 0124 0A       		.uleb128 0xa
 3616 0125 9142     		.uleb128 0x2111
 3617 0127 0A       		.uleb128 0xa
 3618 0128 00       		.byte	0
 3619 0129 00       		.byte	0
 3620 012a 19       		.uleb128 0x19
 3621 012b 898201   		.uleb128 0x4109
 3622 012e 01       		.byte	0x1
 3623 012f 11       		.uleb128 0x11
 3624 0130 01       		.uleb128 0x1
 3625 0131 00       		.byte	0
 3626 0132 00       		.byte	0
 3627 0133 1A       		.uleb128 0x1a
 3628 0134 2E       		.uleb128 0x2e
 3629 0135 01       		.byte	0x1
 3630 0136 3F       		.uleb128 0x3f
 3631 0137 0C       		.uleb128 0xc
 3632 0138 03       		.uleb128 0x3
 3633 0139 0E       		.uleb128 0xe
 3634 013a 3A       		.uleb128 0x3a
 3635 013b 0B       		.uleb128 0xb
 3636 013c 3B       		.uleb128 0x3b
 3637 013d 0B       		.uleb128 0xb
 3638 013e 27       		.uleb128 0x27
 3639 013f 0C       		.uleb128 0xc
 3640 0140 11       		.uleb128 0x11
 3641 0141 01       		.uleb128 0x1
 3642 0142 12       		.uleb128 0x12
 3643 0143 01       		.uleb128 0x1
 3644 0144 40       		.uleb128 0x40
 3645 0145 06       		.uleb128 0x6
 3646 0146 9742     		.uleb128 0x2117
 3647 0148 0C       		.uleb128 0xc
 3648 0149 01       		.uleb128 0x1
 3649 014a 13       		.uleb128 0x13
 3650 014b 00       		.byte	0
 3651 014c 00       		.byte	0
 3652 014d 1B       		.uleb128 0x1b
 3653 014e 898201   		.uleb128 0x4109
 3654 0151 00       		.byte	0
 3655 0152 11       		.uleb128 0x11
 3656 0153 01       		.uleb128 0x1
 3657 0154 9542     		.uleb128 0x2115
 3658 0156 0C       		.uleb128 0xc
 3659 0157 31       		.uleb128 0x31
 3660 0158 13       		.uleb128 0x13
 3661 0159 00       		.byte	0
 3662 015a 00       		.byte	0
 3663 015b 1C       		.uleb128 0x1c
 3664 015c 898201   		.uleb128 0x4109
 3665 015f 01       		.byte	0x1
 3666 0160 11       		.uleb128 0x11
 3667 0161 01       		.uleb128 0x1
ARM GAS  /var/folders/ng/s8655sgx1ys_4lf9jzm2w6n00000gn/T//ccT3xYAZ.s 			page 66


 3668 0162 31       		.uleb128 0x31
 3669 0163 13       		.uleb128 0x13
 3670 0164 01       		.uleb128 0x1
 3671 0165 13       		.uleb128 0x13
 3672 0166 00       		.byte	0
 3673 0167 00       		.byte	0
 3674 0168 1D       		.uleb128 0x1d
 3675 0169 2E       		.uleb128 0x2e
 3676 016a 01       		.byte	0x1
 3677 016b 3F       		.uleb128 0x3f
 3678 016c 0C       		.uleb128 0xc
 3679 016d 03       		.uleb128 0x3
 3680 016e 0E       		.uleb128 0xe
 3681 016f 3A       		.uleb128 0x3a
 3682 0170 0B       		.uleb128 0xb
 3683 0171 3B       		.uleb128 0x3b
 3684 0172 05       		.uleb128 0x5
 3685 0173 27       		.uleb128 0x27
 3686 0174 0C       		.uleb128 0xc
 3687 0175 11       		.uleb128 0x11
 3688 0176 01       		.uleb128 0x1
 3689 0177 12       		.uleb128 0x12
 3690 0178 01       		.uleb128 0x1
 3691 0179 40       		.uleb128 0x40
 3692 017a 06       		.uleb128 0x6
 3693 017b 9742     		.uleb128 0x2117
 3694 017d 0C       		.uleb128 0xc
 3695 017e 01       		.uleb128 0x1
 3696 017f 13       		.uleb128 0x13
 3697 0180 00       		.byte	0
 3698 0181 00       		.byte	0
 3699 0182 1E       		.uleb128 0x1e
 3700 0183 34       		.uleb128 0x34
 3701 0184 00       		.byte	0
 3702 0185 03       		.uleb128 0x3
 3703 0186 08       		.uleb128 0x8
 3704 0187 3A       		.uleb128 0x3a
 3705 0188 0B       		.uleb128 0xb
 3706 0189 3B       		.uleb128 0x3b
 3707 018a 05       		.uleb128 0x5
 3708 018b 49       		.uleb128 0x49
 3709 018c 13       		.uleb128 0x13
 3710 018d 02       		.uleb128 0x2
 3711 018e 06       		.uleb128 0x6
 3712 018f 00       		.byte	0
 3713 0190 00       		.byte	0
 3714 0191 1F       		.uleb128 0x1f
 3715 0192 898201   		.uleb128 0x4109
 3716 0195 01       		.byte	0x1
 3717 0196 11       		.uleb128 0x11
 3718 0197 01       		.uleb128 0x1
 3719 0198 31       		.uleb128 0x31
 3720 0199 13       		.uleb128 0x13
 3721 019a 00       		.byte	0
 3722 019b 00       		.byte	0
 3723 019c 20       		.uleb128 0x20
 3724 019d 05       		.uleb128 0x5
ARM GAS  /var/folders/ng/s8655sgx1ys_4lf9jzm2w6n00000gn/T//ccT3xYAZ.s 			page 67


 3725 019e 00       		.byte	0
 3726 019f 03       		.uleb128 0x3
 3727 01a0 0E       		.uleb128 0xe
 3728 01a1 3A       		.uleb128 0x3a
 3729 01a2 0B       		.uleb128 0xb
 3730 01a3 3B       		.uleb128 0x3b
 3731 01a4 05       		.uleb128 0x5
 3732 01a5 49       		.uleb128 0x49
 3733 01a6 13       		.uleb128 0x13
 3734 01a7 02       		.uleb128 0x2
 3735 01a8 06       		.uleb128 0x6
 3736 01a9 00       		.byte	0
 3737 01aa 00       		.byte	0
 3738 01ab 21       		.uleb128 0x21
 3739 01ac 34       		.uleb128 0x34
 3740 01ad 00       		.byte	0
 3741 01ae 03       		.uleb128 0x3
 3742 01af 0E       		.uleb128 0xe
 3743 01b0 3A       		.uleb128 0x3a
 3744 01b1 0B       		.uleb128 0xb
 3745 01b2 3B       		.uleb128 0x3b
 3746 01b3 05       		.uleb128 0x5
 3747 01b4 49       		.uleb128 0x49
 3748 01b5 13       		.uleb128 0x13
 3749 01b6 02       		.uleb128 0x2
 3750 01b7 06       		.uleb128 0x6
 3751 01b8 00       		.byte	0
 3752 01b9 00       		.byte	0
 3753 01ba 22       		.uleb128 0x22
 3754 01bb 0B       		.uleb128 0xb
 3755 01bc 01       		.byte	0x1
 3756 01bd 11       		.uleb128 0x11
 3757 01be 01       		.uleb128 0x1
 3758 01bf 12       		.uleb128 0x12
 3759 01c0 01       		.uleb128 0x1
 3760 01c1 00       		.byte	0
 3761 01c2 00       		.byte	0
 3762 01c3 23       		.uleb128 0x23
 3763 01c4 2E       		.uleb128 0x2e
 3764 01c5 01       		.byte	0x1
 3765 01c6 3F       		.uleb128 0x3f
 3766 01c7 0C       		.uleb128 0xc
 3767 01c8 03       		.uleb128 0x3
 3768 01c9 0E       		.uleb128 0xe
 3769 01ca 3A       		.uleb128 0x3a
 3770 01cb 0B       		.uleb128 0xb
 3771 01cc 3B       		.uleb128 0x3b
 3772 01cd 05       		.uleb128 0x5
 3773 01ce 27       		.uleb128 0x27
 3774 01cf 0C       		.uleb128 0xc
 3775 01d0 11       		.uleb128 0x11
 3776 01d1 01       		.uleb128 0x1
 3777 01d2 12       		.uleb128 0x12
 3778 01d3 01       		.uleb128 0x1
 3779 01d4 40       		.uleb128 0x40
 3780 01d5 0A       		.uleb128 0xa
 3781 01d6 9742     		.uleb128 0x2117
ARM GAS  /var/folders/ng/s8655sgx1ys_4lf9jzm2w6n00000gn/T//ccT3xYAZ.s 			page 68


 3782 01d8 0C       		.uleb128 0xc
 3783 01d9 01       		.uleb128 0x1
 3784 01da 13       		.uleb128 0x13
 3785 01db 00       		.byte	0
 3786 01dc 00       		.byte	0
 3787 01dd 24       		.uleb128 0x24
 3788 01de 34       		.uleb128 0x34
 3789 01df 00       		.byte	0
 3790 01e0 03       		.uleb128 0x3
 3791 01e1 0E       		.uleb128 0xe
 3792 01e2 3A       		.uleb128 0x3a
 3793 01e3 0B       		.uleb128 0xb
 3794 01e4 3B       		.uleb128 0x3b
 3795 01e5 05       		.uleb128 0x5
 3796 01e6 49       		.uleb128 0x49
 3797 01e7 13       		.uleb128 0x13
 3798 01e8 3F       		.uleb128 0x3f
 3799 01e9 0C       		.uleb128 0xc
 3800 01ea 3C       		.uleb128 0x3c
 3801 01eb 0C       		.uleb128 0xc
 3802 01ec 00       		.byte	0
 3803 01ed 00       		.byte	0
 3804 01ee 25       		.uleb128 0x25
 3805 01ef 34       		.uleb128 0x34
 3806 01f0 00       		.byte	0
 3807 01f1 03       		.uleb128 0x3
 3808 01f2 0E       		.uleb128 0xe
 3809 01f3 3A       		.uleb128 0x3a
 3810 01f4 0B       		.uleb128 0xb
 3811 01f5 3B       		.uleb128 0x3b
 3812 01f6 0B       		.uleb128 0xb
 3813 01f7 49       		.uleb128 0x49
 3814 01f8 13       		.uleb128 0x13
 3815 01f9 3F       		.uleb128 0x3f
 3816 01fa 0C       		.uleb128 0xc
 3817 01fb 02       		.uleb128 0x2
 3818 01fc 0A       		.uleb128 0xa
 3819 01fd 00       		.byte	0
 3820 01fe 00       		.byte	0
 3821 01ff 26       		.uleb128 0x26
 3822 0200 2E       		.uleb128 0x2e
 3823 0201 00       		.byte	0
 3824 0202 3F       		.uleb128 0x3f
 3825 0203 0C       		.uleb128 0xc
 3826 0204 03       		.uleb128 0x3
 3827 0205 0E       		.uleb128 0xe
 3828 0206 3A       		.uleb128 0x3a
 3829 0207 0B       		.uleb128 0xb
 3830 0208 3B       		.uleb128 0x3b
 3831 0209 05       		.uleb128 0x5
 3832 020a 27       		.uleb128 0x27
 3833 020b 0C       		.uleb128 0xc
 3834 020c 3C       		.uleb128 0x3c
 3835 020d 0C       		.uleb128 0xc
 3836 020e 00       		.byte	0
 3837 020f 00       		.byte	0
 3838 0210 27       		.uleb128 0x27
ARM GAS  /var/folders/ng/s8655sgx1ys_4lf9jzm2w6n00000gn/T//ccT3xYAZ.s 			page 69


 3839 0211 2E       		.uleb128 0x2e
 3840 0212 01       		.byte	0x1
 3841 0213 3F       		.uleb128 0x3f
 3842 0214 0C       		.uleb128 0xc
 3843 0215 03       		.uleb128 0x3
 3844 0216 0E       		.uleb128 0xe
 3845 0217 3A       		.uleb128 0x3a
 3846 0218 0B       		.uleb128 0xb
 3847 0219 3B       		.uleb128 0x3b
 3848 021a 0B       		.uleb128 0xb
 3849 021b 27       		.uleb128 0x27
 3850 021c 0C       		.uleb128 0xc
 3851 021d 3C       		.uleb128 0x3c
 3852 021e 0C       		.uleb128 0xc
 3853 021f 01       		.uleb128 0x1
 3854 0220 13       		.uleb128 0x13
 3855 0221 00       		.byte	0
 3856 0222 00       		.byte	0
 3857 0223 28       		.uleb128 0x28
 3858 0224 2E       		.uleb128 0x2e
 3859 0225 01       		.byte	0x1
 3860 0226 3F       		.uleb128 0x3f
 3861 0227 0C       		.uleb128 0xc
 3862 0228 03       		.uleb128 0x3
 3863 0229 0E       		.uleb128 0xe
 3864 022a 3A       		.uleb128 0x3a
 3865 022b 0B       		.uleb128 0xb
 3866 022c 3B       		.uleb128 0x3b
 3867 022d 05       		.uleb128 0x5
 3868 022e 27       		.uleb128 0x27
 3869 022f 0C       		.uleb128 0xc
 3870 0230 3C       		.uleb128 0x3c
 3871 0231 0C       		.uleb128 0xc
 3872 0232 01       		.uleb128 0x1
 3873 0233 13       		.uleb128 0x13
 3874 0234 00       		.byte	0
 3875 0235 00       		.byte	0
 3876 0236 29       		.uleb128 0x29
 3877 0237 2E       		.uleb128 0x2e
 3878 0238 01       		.byte	0x1
 3879 0239 3F       		.uleb128 0x3f
 3880 023a 0C       		.uleb128 0xc
 3881 023b 03       		.uleb128 0x3
 3882 023c 0E       		.uleb128 0xe
 3883 023d 3A       		.uleb128 0x3a
 3884 023e 0B       		.uleb128 0xb
 3885 023f 3B       		.uleb128 0x3b
 3886 0240 05       		.uleb128 0x5
 3887 0241 27       		.uleb128 0x27
 3888 0242 0C       		.uleb128 0xc
 3889 0243 3C       		.uleb128 0x3c
 3890 0244 0C       		.uleb128 0xc
 3891 0245 00       		.byte	0
 3892 0246 00       		.byte	0
 3893 0247 00       		.byte	0
 3894              		.section	.debug_loc,"",%progbits
 3895              	.Ldebug_loc0:
ARM GAS  /var/folders/ng/s8655sgx1ys_4lf9jzm2w6n00000gn/T//ccT3xYAZ.s 			page 70


 3896              	.LLST0:
 3897 0000 00000000 		.4byte	.LFB118
 3898 0004 02000000 		.4byte	.LCFI0
 3899 0008 0200     		.2byte	0x2
 3900 000a 7D       		.byte	0x7d
 3901 000b 00       		.sleb128 0
 3902 000c 02000000 		.4byte	.LCFI0
 3903 0010 68000000 		.4byte	.LFE118
 3904 0014 0200     		.2byte	0x2
 3905 0016 7D       		.byte	0x7d
 3906 0017 10       		.sleb128 16
 3907 0018 00000000 		.4byte	0
 3908 001c 00000000 		.4byte	0
 3909              	.LLST1:
 3910 0020 00000000 		.4byte	.LVL0
 3911 0024 1C000000 		.4byte	.LVL3
 3912 0028 0100     		.2byte	0x1
 3913 002a 50       		.byte	0x50
 3914 002b 1C000000 		.4byte	.LVL3
 3915 002f 60000000 		.4byte	.LVL8
 3916 0033 0100     		.2byte	0x1
 3917 0035 55       		.byte	0x55
 3918 0036 60000000 		.4byte	.LVL8
 3919 003a 65000000 		.4byte	.LVL9-1
 3920 003e 0100     		.2byte	0x1
 3921 0040 50       		.byte	0x50
 3922 0041 65000000 		.4byte	.LVL9-1
 3923 0045 68000000 		.4byte	.LFE118
 3924 0049 0100     		.2byte	0x1
 3925 004b 55       		.byte	0x55
 3926 004c 00000000 		.4byte	0
 3927 0050 00000000 		.4byte	0
 3928              	.LLST2:
 3929 0054 06000000 		.4byte	.LVL1
 3930 0058 0C000000 		.4byte	.LVL2
 3931 005c 0100     		.2byte	0x1
 3932 005e 52       		.byte	0x52
 3933 005f 0C000000 		.4byte	.LVL2
 3934 0063 68000000 		.4byte	.LFE118
 3935 0067 0600     		.2byte	0x6
 3936 0069 74       		.byte	0x74
 3937 006a 00       		.sleb128 0
 3938 006b 08       		.byte	0x8
 3939 006c FF       		.byte	0xff
 3940 006d 1A       		.byte	0x1a
 3941 006e 9F       		.byte	0x9f
 3942 006f 00000000 		.4byte	0
 3943 0073 00000000 		.4byte	0
 3944              	.LLST3:
 3945 0077 00000000 		.4byte	.LFB119
 3946 007b 0A000000 		.4byte	.LCFI1
 3947 007f 0200     		.2byte	0x2
 3948 0081 7D       		.byte	0x7d
 3949 0082 00       		.sleb128 0
 3950 0083 0A000000 		.4byte	.LCFI1
 3951 0087 24000000 		.4byte	.LFE119
 3952 008b 0200     		.2byte	0x2
ARM GAS  /var/folders/ng/s8655sgx1ys_4lf9jzm2w6n00000gn/T//ccT3xYAZ.s 			page 71


 3953 008d 7D       		.byte	0x7d
 3954 008e 08       		.sleb128 8
 3955 008f 00000000 		.4byte	0
 3956 0093 00000000 		.4byte	0
 3957              	.LLST4:
 3958 0097 00000000 		.4byte	.LFB120
 3959 009b 08000000 		.4byte	.LCFI2
 3960 009f 0200     		.2byte	0x2
 3961 00a1 7D       		.byte	0x7d
 3962 00a2 00       		.sleb128 0
 3963 00a3 08000000 		.4byte	.LCFI2
 3964 00a7 6C000000 		.4byte	.LFE120
 3965 00ab 0200     		.2byte	0x2
 3966 00ad 7D       		.byte	0x7d
 3967 00ae 08       		.sleb128 8
 3968 00af 00000000 		.4byte	0
 3969 00b3 00000000 		.4byte	0
 3970              	.LLST5:
 3971 00b7 10000000 		.4byte	.LVL12
 3972 00bb 34000000 		.4byte	.LVL13
 3973 00bf 0600     		.2byte	0x6
 3974 00c1 74       		.byte	0x74
 3975 00c2 00       		.sleb128 0
 3976 00c3 08       		.byte	0x8
 3977 00c4 FF       		.byte	0xff
 3978 00c5 1A       		.byte	0x1a
 3979 00c6 9F       		.byte	0x9f
 3980 00c7 48000000 		.4byte	.LVL15
 3981 00cb 6C000000 		.4byte	.LFE120
 3982 00cf 0600     		.2byte	0x6
 3983 00d1 74       		.byte	0x74
 3984 00d2 00       		.sleb128 0
 3985 00d3 08       		.byte	0x8
 3986 00d4 FF       		.byte	0xff
 3987 00d5 1A       		.byte	0x1a
 3988 00d6 9F       		.byte	0x9f
 3989 00d7 00000000 		.4byte	0
 3990 00db 00000000 		.4byte	0
 3991              	.LLST6:
 3992 00df 00000000 		.4byte	.LFB121
 3993 00e3 02000000 		.4byte	.LCFI3
 3994 00e7 0200     		.2byte	0x2
 3995 00e9 7D       		.byte	0x7d
 3996 00ea 00       		.sleb128 0
 3997 00eb 02000000 		.4byte	.LCFI3
 3998 00ef 16000000 		.4byte	.LFE121
 3999 00f3 0200     		.2byte	0x2
 4000 00f5 7D       		.byte	0x7d
 4001 00f6 08       		.sleb128 8
 4002 00f7 00000000 		.4byte	0
 4003 00fb 00000000 		.4byte	0
 4004              	.LLST7:
 4005 00ff 00000000 		.4byte	.LFB122
 4006 0103 02000000 		.4byte	.LCFI4
 4007 0107 0200     		.2byte	0x2
 4008 0109 7D       		.byte	0x7d
 4009 010a 00       		.sleb128 0
ARM GAS  /var/folders/ng/s8655sgx1ys_4lf9jzm2w6n00000gn/T//ccT3xYAZ.s 			page 72


 4010 010b 02000000 		.4byte	.LCFI4
 4011 010f 16000000 		.4byte	.LFE122
 4012 0113 0200     		.2byte	0x2
 4013 0115 7D       		.byte	0x7d
 4014 0116 08       		.sleb128 8
 4015 0117 00000000 		.4byte	0
 4016 011b 00000000 		.4byte	0
 4017              	.LLST8:
 4018 011f 00000000 		.4byte	.LFB123
 4019 0123 02000000 		.4byte	.LCFI5
 4020 0127 0200     		.2byte	0x2
 4021 0129 7D       		.byte	0x7d
 4022 012a 00       		.sleb128 0
 4023 012b 02000000 		.4byte	.LCFI5
 4024 012f 16000000 		.4byte	.LFE123
 4025 0133 0200     		.2byte	0x2
 4026 0135 7D       		.byte	0x7d
 4027 0136 08       		.sleb128 8
 4028 0137 00000000 		.4byte	0
 4029 013b 00000000 		.4byte	0
 4030              	.LLST9:
 4031 013f 00000000 		.4byte	.LFB124
 4032 0143 0A000000 		.4byte	.LCFI6
 4033 0147 0200     		.2byte	0x2
 4034 0149 7D       		.byte	0x7d
 4035 014a 00       		.sleb128 0
 4036 014b 0A000000 		.4byte	.LCFI6
 4037 014f 26000000 		.4byte	.LFE124
 4038 0153 0200     		.2byte	0x2
 4039 0155 7D       		.byte	0x7d
 4040 0156 08       		.sleb128 8
 4041 0157 00000000 		.4byte	0
 4042 015b 00000000 		.4byte	0
 4043              	.LLST10:
 4044 015f 00000000 		.4byte	.LFB125
 4045 0163 0A000000 		.4byte	.LCFI7
 4046 0167 0200     		.2byte	0x2
 4047 0169 7D       		.byte	0x7d
 4048 016a 00       		.sleb128 0
 4049 016b 0A000000 		.4byte	.LCFI7
 4050 016f 6C000000 		.4byte	.LFE125
 4051 0173 0200     		.2byte	0x2
 4052 0175 7D       		.byte	0x7d
 4053 0176 08       		.sleb128 8
 4054 0177 00000000 		.4byte	0
 4055 017b 00000000 		.4byte	0
 4056              	.LLST11:
 4057 017f 12000000 		.4byte	.LVL27
 4058 0183 36000000 		.4byte	.LVL28
 4059 0187 0600     		.2byte	0x6
 4060 0189 74       		.byte	0x74
 4061 018a 00       		.sleb128 0
 4062 018b 08       		.byte	0x8
 4063 018c FF       		.byte	0xff
 4064 018d 1A       		.byte	0x1a
 4065 018e 9F       		.byte	0x9f
 4066 018f 4A000000 		.4byte	.LVL30
ARM GAS  /var/folders/ng/s8655sgx1ys_4lf9jzm2w6n00000gn/T//ccT3xYAZ.s 			page 73


 4067 0193 6C000000 		.4byte	.LFE125
 4068 0197 0600     		.2byte	0x6
 4069 0199 74       		.byte	0x74
 4070 019a 00       		.sleb128 0
 4071 019b 08       		.byte	0x8
 4072 019c FF       		.byte	0xff
 4073 019d 1A       		.byte	0x1a
 4074 019e 9F       		.byte	0x9f
 4075 019f 00000000 		.4byte	0
 4076 01a3 00000000 		.4byte	0
 4077              	.LLST12:
 4078 01a7 00000000 		.4byte	.LFB126
 4079 01ab 02000000 		.4byte	.LCFI8
 4080 01af 0200     		.2byte	0x2
 4081 01b1 7D       		.byte	0x7d
 4082 01b2 00       		.sleb128 0
 4083 01b3 02000000 		.4byte	.LCFI8
 4084 01b7 16000000 		.4byte	.LFE126
 4085 01bb 0200     		.2byte	0x2
 4086 01bd 7D       		.byte	0x7d
 4087 01be 08       		.sleb128 8
 4088 01bf 00000000 		.4byte	0
 4089 01c3 00000000 		.4byte	0
 4090              	.LLST13:
 4091 01c7 00000000 		.4byte	.LFB127
 4092 01cb 02000000 		.4byte	.LCFI9
 4093 01cf 0200     		.2byte	0x2
 4094 01d1 7D       		.byte	0x7d
 4095 01d2 00       		.sleb128 0
 4096 01d3 02000000 		.4byte	.LCFI9
 4097 01d7 8E000000 		.4byte	.LFE127
 4098 01db 0200     		.2byte	0x2
 4099 01dd 7D       		.byte	0x7d
 4100 01de 10       		.sleb128 16
 4101 01df 00000000 		.4byte	0
 4102 01e3 00000000 		.4byte	0
 4103              	.LLST14:
 4104 01e7 00000000 		.4byte	.LFB128
 4105 01eb 08000000 		.4byte	.LCFI10
 4106 01ef 0200     		.2byte	0x2
 4107 01f1 7D       		.byte	0x7d
 4108 01f2 00       		.sleb128 0
 4109 01f3 08000000 		.4byte	.LCFI10
 4110 01f7 98020000 		.4byte	.LFE128
 4111 01fb 0200     		.2byte	0x2
 4112 01fd 7D       		.byte	0x7d
 4113 01fe 18       		.sleb128 24
 4114 01ff 00000000 		.4byte	0
 4115 0203 00000000 		.4byte	0
 4116              	.LLST15:
 4117 0207 00000000 		.4byte	.LVL42
 4118 020b 14000000 		.4byte	.LVL43
 4119 020f 0100     		.2byte	0x1
 4120 0211 50       		.byte	0x50
 4121 0212 14000000 		.4byte	.LVL43
 4122 0216 94000000 		.4byte	.LVL54
 4123 021a 0100     		.2byte	0x1
ARM GAS  /var/folders/ng/s8655sgx1ys_4lf9jzm2w6n00000gn/T//ccT3xYAZ.s 			page 74


 4124 021c 54       		.byte	0x54
 4125 021d 94000000 		.4byte	.LVL54
 4126 0221 BE000000 		.4byte	.LVL57
 4127 0225 0400     		.2byte	0x4
 4128 0227 F3       		.byte	0xf3
 4129 0228 01       		.uleb128 0x1
 4130 0229 50       		.byte	0x50
 4131 022a 9F       		.byte	0x9f
 4132 022b BE000000 		.4byte	.LVL57
 4133 022f F6000000 		.4byte	.LVL66
 4134 0233 0100     		.2byte	0x1
 4135 0235 54       		.byte	0x54
 4136 0236 F6000000 		.4byte	.LVL66
 4137 023a 14010000 		.4byte	.LVL70
 4138 023e 0400     		.2byte	0x4
 4139 0240 F3       		.byte	0xf3
 4140 0241 01       		.uleb128 0x1
 4141 0242 50       		.byte	0x50
 4142 0243 9F       		.byte	0x9f
 4143 0244 14010000 		.4byte	.LVL70
 4144 0248 28010000 		.4byte	.LVL76
 4145 024c 0100     		.2byte	0x1
 4146 024e 54       		.byte	0x54
 4147 024f 28010000 		.4byte	.LVL76
 4148 0253 42010000 		.4byte	.LVL77
 4149 0257 0100     		.2byte	0x1
 4150 0259 50       		.byte	0x50
 4151 025a 42010000 		.4byte	.LVL77
 4152 025e 66010000 		.4byte	.LVL81
 4153 0262 0100     		.2byte	0x1
 4154 0264 54       		.byte	0x54
 4155 0265 66010000 		.4byte	.LVL81
 4156 0269 70010000 		.4byte	.LVL84
 4157 026d 0400     		.2byte	0x4
 4158 026f F3       		.byte	0xf3
 4159 0270 01       		.uleb128 0x1
 4160 0271 50       		.byte	0x50
 4161 0272 9F       		.byte	0x9f
 4162 0273 70010000 		.4byte	.LVL84
 4163 0277 A8010000 		.4byte	.LVL87
 4164 027b 0100     		.2byte	0x1
 4165 027d 54       		.byte	0x54
 4166 027e A8010000 		.4byte	.LVL87
 4167 0282 B4010000 		.4byte	.LVL88
 4168 0286 0100     		.2byte	0x1
 4169 0288 50       		.byte	0x50
 4170 0289 B4010000 		.4byte	.LVL88
 4171 028d E0010000 		.4byte	.LVL91
 4172 0291 0100     		.2byte	0x1
 4173 0293 54       		.byte	0x54
 4174 0294 E0010000 		.4byte	.LVL91
 4175 0298 EC010000 		.4byte	.LVL92
 4176 029c 0100     		.2byte	0x1
 4177 029e 50       		.byte	0x50
 4178 029f EC010000 		.4byte	.LVL92
 4179 02a3 10020000 		.4byte	.LVL94
 4180 02a7 0100     		.2byte	0x1
ARM GAS  /var/folders/ng/s8655sgx1ys_4lf9jzm2w6n00000gn/T//ccT3xYAZ.s 			page 75


 4181 02a9 54       		.byte	0x54
 4182 02aa 10020000 		.4byte	.LVL94
 4183 02ae 1C020000 		.4byte	.LVL95
 4184 02b2 0100     		.2byte	0x1
 4185 02b4 50       		.byte	0x50
 4186 02b5 1C020000 		.4byte	.LVL95
 4187 02b9 40020000 		.4byte	.LVL97
 4188 02bd 0100     		.2byte	0x1
 4189 02bf 54       		.byte	0x54
 4190 02c0 40020000 		.4byte	.LVL97
 4191 02c4 4A020000 		.4byte	.LVL98
 4192 02c8 0100     		.2byte	0x1
 4193 02ca 50       		.byte	0x50
 4194 02cb 4A020000 		.4byte	.LVL98
 4195 02cf 98020000 		.4byte	.LFE128
 4196 02d3 0100     		.2byte	0x1
 4197 02d5 54       		.byte	0x54
 4198 02d6 00000000 		.4byte	0
 4199 02da 00000000 		.4byte	0
 4200              	.LLST16:
 4201 02de 2C000000 		.4byte	.LVL44
 4202 02e2 3E000000 		.4byte	.LVL45
 4203 02e6 1000     		.2byte	0x10
 4204 02e8 74       		.byte	0x74
 4205 02e9 0C       		.sleb128 12
 4206 02ea 06       		.byte	0x6
 4207 02eb F7       		.byte	0xf7
 4208 02ec 29       		.uleb128 0x29
 4209 02ed 71       		.byte	0x71
 4210 02ee 00       		.sleb128 0
 4211 02ef 06       		.byte	0x6
 4212 02f0 F7       		.byte	0xf7
 4213 02f1 29       		.uleb128 0x29
 4214 02f2 1B       		.byte	0x1b
 4215 02f3 F7       		.byte	0xf7
 4216 02f4 00       		.uleb128 0
 4217 02f5 31       		.byte	0x31
 4218 02f6 1C       		.byte	0x1c
 4219 02f7 9F       		.byte	0x9f
 4220 02f8 3E000000 		.4byte	.LVL45
 4221 02fc 40000000 		.4byte	.LVL46
 4222 0300 0100     		.2byte	0x1
 4223 0302 50       		.byte	0x50
 4224 0303 40000000 		.4byte	.LVL46
 4225 0307 94000000 		.4byte	.LVL54
 4226 030b 1000     		.2byte	0x10
 4227 030d 74       		.byte	0x74
 4228 030e 0C       		.sleb128 12
 4229 030f 06       		.byte	0x6
 4230 0310 F7       		.byte	0xf7
 4231 0311 29       		.uleb128 0x29
 4232 0312 71       		.byte	0x71
 4233 0313 00       		.sleb128 0
 4234 0314 06       		.byte	0x6
 4235 0315 F7       		.byte	0xf7
 4236 0316 29       		.uleb128 0x29
 4237 0317 1B       		.byte	0x1b
ARM GAS  /var/folders/ng/s8655sgx1ys_4lf9jzm2w6n00000gn/T//ccT3xYAZ.s 			page 76


 4238 0318 F7       		.byte	0xf7
 4239 0319 00       		.uleb128 0
 4240 031a 31       		.byte	0x31
 4241 031b 1C       		.byte	0x1c
 4242 031c 9F       		.byte	0x9f
 4243 031d 94000000 		.4byte	.LVL54
 4244 0321 AA000000 		.4byte	.LVL56
 4245 0325 1300     		.2byte	0x13
 4246 0327 F3       		.byte	0xf3
 4247 0328 01       		.uleb128 0x1
 4248 0329 50       		.byte	0x50
 4249 032a 23       		.byte	0x23
 4250 032b 0C       		.uleb128 0xc
 4251 032c 06       		.byte	0x6
 4252 032d F7       		.byte	0xf7
 4253 032e 29       		.uleb128 0x29
 4254 032f 71       		.byte	0x71
 4255 0330 00       		.sleb128 0
 4256 0331 06       		.byte	0x6
 4257 0332 F7       		.byte	0xf7
 4258 0333 29       		.uleb128 0x29
 4259 0334 1B       		.byte	0x1b
 4260 0335 F7       		.byte	0xf7
 4261 0336 00       		.uleb128 0
 4262 0337 31       		.byte	0x31
 4263 0338 1C       		.byte	0x1c
 4264 0339 9F       		.byte	0x9f
 4265 033a BE000000 		.4byte	.LVL57
 4266 033e F6000000 		.4byte	.LVL66
 4267 0342 1000     		.2byte	0x10
 4268 0344 74       		.byte	0x74
 4269 0345 0C       		.sleb128 12
 4270 0346 06       		.byte	0x6
 4271 0347 F7       		.byte	0xf7
 4272 0348 29       		.uleb128 0x29
 4273 0349 71       		.byte	0x71
 4274 034a 00       		.sleb128 0
 4275 034b 06       		.byte	0x6
 4276 034c F7       		.byte	0xf7
 4277 034d 29       		.uleb128 0x29
 4278 034e 1B       		.byte	0x1b
 4279 034f F7       		.byte	0xf7
 4280 0350 00       		.uleb128 0
 4281 0351 31       		.byte	0x31
 4282 0352 1C       		.byte	0x1c
 4283 0353 9F       		.byte	0x9f
 4284 0354 F6000000 		.4byte	.LVL66
 4285 0358 14010000 		.4byte	.LVL70
 4286 035c 1300     		.2byte	0x13
 4287 035e F3       		.byte	0xf3
 4288 035f 01       		.uleb128 0x1
 4289 0360 50       		.byte	0x50
 4290 0361 23       		.byte	0x23
 4291 0362 0C       		.uleb128 0xc
 4292 0363 06       		.byte	0x6
 4293 0364 F7       		.byte	0xf7
 4294 0365 29       		.uleb128 0x29
ARM GAS  /var/folders/ng/s8655sgx1ys_4lf9jzm2w6n00000gn/T//ccT3xYAZ.s 			page 77


 4295 0366 71       		.byte	0x71
 4296 0367 00       		.sleb128 0
 4297 0368 06       		.byte	0x6
 4298 0369 F7       		.byte	0xf7
 4299 036a 29       		.uleb128 0x29
 4300 036b 1B       		.byte	0x1b
 4301 036c F7       		.byte	0xf7
 4302 036d 00       		.uleb128 0
 4303 036e 31       		.byte	0x31
 4304 036f 1C       		.byte	0x1c
 4305 0370 9F       		.byte	0x9f
 4306 0371 14010000 		.4byte	.LVL70
 4307 0375 28010000 		.4byte	.LVL76
 4308 0379 1000     		.2byte	0x10
 4309 037b 74       		.byte	0x74
 4310 037c 0C       		.sleb128 12
 4311 037d 06       		.byte	0x6
 4312 037e F7       		.byte	0xf7
 4313 037f 29       		.uleb128 0x29
 4314 0380 71       		.byte	0x71
 4315 0381 00       		.sleb128 0
 4316 0382 06       		.byte	0x6
 4317 0383 F7       		.byte	0xf7
 4318 0384 29       		.uleb128 0x29
 4319 0385 1B       		.byte	0x1b
 4320 0386 F7       		.byte	0xf7
 4321 0387 00       		.uleb128 0
 4322 0388 31       		.byte	0x31
 4323 0389 1C       		.byte	0x1c
 4324 038a 9F       		.byte	0x9f
 4325 038b 5C010000 		.4byte	.LVL78
 4326 038f 66010000 		.4byte	.LVL81
 4327 0393 1000     		.2byte	0x10
 4328 0395 74       		.byte	0x74
 4329 0396 0C       		.sleb128 12
 4330 0397 06       		.byte	0x6
 4331 0398 F7       		.byte	0xf7
 4332 0399 29       		.uleb128 0x29
 4333 039a 71       		.byte	0x71
 4334 039b 00       		.sleb128 0
 4335 039c 06       		.byte	0x6
 4336 039d F7       		.byte	0xf7
 4337 039e 29       		.uleb128 0x29
 4338 039f 1B       		.byte	0x1b
 4339 03a0 F7       		.byte	0xf7
 4340 03a1 00       		.uleb128 0
 4341 03a2 31       		.byte	0x31
 4342 03a3 1C       		.byte	0x1c
 4343 03a4 9F       		.byte	0x9f
 4344 03a5 66010000 		.4byte	.LVL81
 4345 03a9 70010000 		.4byte	.LVL84
 4346 03ad 1300     		.2byte	0x13
 4347 03af F3       		.byte	0xf3
 4348 03b0 01       		.uleb128 0x1
 4349 03b1 50       		.byte	0x50
 4350 03b2 23       		.byte	0x23
 4351 03b3 0C       		.uleb128 0xc
ARM GAS  /var/folders/ng/s8655sgx1ys_4lf9jzm2w6n00000gn/T//ccT3xYAZ.s 			page 78


 4352 03b4 06       		.byte	0x6
 4353 03b5 F7       		.byte	0xf7
 4354 03b6 29       		.uleb128 0x29
 4355 03b7 71       		.byte	0x71
 4356 03b8 00       		.sleb128 0
 4357 03b9 06       		.byte	0x6
 4358 03ba F7       		.byte	0xf7
 4359 03bb 29       		.uleb128 0x29
 4360 03bc 1B       		.byte	0x1b
 4361 03bd F7       		.byte	0xf7
 4362 03be 00       		.uleb128 0
 4363 03bf 31       		.byte	0x31
 4364 03c0 1C       		.byte	0x1c
 4365 03c1 9F       		.byte	0x9f
 4366 03c2 00000000 		.4byte	0
 4367 03c6 00000000 		.4byte	0
 4368              	.LLST17:
 4369 03ca 54000000 		.4byte	.LVL47
 4370 03ce 5E000000 		.4byte	.LVL48
 4371 03d2 0200     		.2byte	0x2
 4372 03d4 30       		.byte	0x30
 4373 03d5 9F       		.byte	0x9f
 4374 03d6 5E000000 		.4byte	.LVL48
 4375 03da 78000000 		.4byte	.LVL49
 4376 03de 0100     		.2byte	0x1
 4377 03e0 52       		.byte	0x52
 4378 03e1 7C000000 		.4byte	.LVL50
 4379 03e5 86000000 		.4byte	.LVL51
 4380 03e9 0100     		.2byte	0x1
 4381 03eb 52       		.byte	0x52
 4382 03ec 8A000000 		.4byte	.LVL52
 4383 03f0 8E000000 		.4byte	.LVL53
 4384 03f4 0100     		.2byte	0x1
 4385 03f6 52       		.byte	0x52
 4386 03f7 94000000 		.4byte	.LVL54
 4387 03fb A0000000 		.4byte	.LVL55
 4388 03ff 0100     		.2byte	0x1
 4389 0401 52       		.byte	0x52
 4390 0402 A0000000 		.4byte	.LVL55
 4391 0406 BE000000 		.4byte	.LVL57
 4392 040a 0400     		.2byte	0x4
 4393 040c 73       		.byte	0x73
 4394 040d 20       		.sleb128 32
 4395 040e 06       		.byte	0x6
 4396 040f 9F       		.byte	0x9f
 4397 0410 BE000000 		.4byte	.LVL57
 4398 0414 E6000000 		.4byte	.LVL64
 4399 0418 0100     		.2byte	0x1
 4400 041a 52       		.byte	0x52
 4401 041b F2000000 		.4byte	.LVL65
 4402 041f 14010000 		.4byte	.LVL70
 4403 0423 0100     		.2byte	0x1
 4404 0425 52       		.byte	0x52
 4405 0426 18010000 		.4byte	.LVL71
 4406 042a 1E010000 		.4byte	.LVL73
 4407 042e 0100     		.2byte	0x1
 4408 0430 52       		.byte	0x52
ARM GAS  /var/folders/ng/s8655sgx1ys_4lf9jzm2w6n00000gn/T//ccT3xYAZ.s 			page 79


 4409 0431 22010000 		.4byte	.LVL74
 4410 0435 28010000 		.4byte	.LVL76
 4411 0439 0100     		.2byte	0x1
 4412 043b 52       		.byte	0x52
 4413 043c 60010000 		.4byte	.LVL79
 4414 0440 70010000 		.4byte	.LVL84
 4415 0444 0100     		.2byte	0x1
 4416 0446 52       		.byte	0x52
 4417 0447 00000000 		.4byte	0
 4418 044b 00000000 		.4byte	0
 4419              	.LLST18:
 4420 044f 00000000 		.4byte	.LFB129
 4421 0453 06000000 		.4byte	.LCFI11
 4422 0457 0200     		.2byte	0x2
 4423 0459 7D       		.byte	0x7d
 4424 045a 00       		.sleb128 0
 4425 045b 06000000 		.4byte	.LCFI11
 4426 045f F0000000 		.4byte	.LFE129
 4427 0463 0200     		.2byte	0x2
 4428 0465 7D       		.byte	0x7d
 4429 0466 08       		.sleb128 8
 4430 0467 00000000 		.4byte	0
 4431 046b 00000000 		.4byte	0
 4432              	.LLST19:
 4433 046f 00000000 		.4byte	.LVL99
 4434 0473 0A000000 		.4byte	.LVL100
 4435 0477 0100     		.2byte	0x1
 4436 0479 50       		.byte	0x50
 4437 047a 0A000000 		.4byte	.LVL100
 4438 047e 0C000000 		.4byte	.LVL101
 4439 0482 0100     		.2byte	0x1
 4440 0484 54       		.byte	0x54
 4441 0485 0C000000 		.4byte	.LVL101
 4442 0489 10000000 		.4byte	.LVL102
 4443 048d 0100     		.2byte	0x1
 4444 048f 50       		.byte	0x50
 4445 0490 10000000 		.4byte	.LVL102
 4446 0494 F0000000 		.4byte	.LFE129
 4447 0498 0100     		.2byte	0x1
 4448 049a 54       		.byte	0x54
 4449 049b 00000000 		.4byte	0
 4450 049f 00000000 		.4byte	0
 4451              	.LLST20:
 4452 04a3 00000000 		.4byte	.LFB130
 4453 04a7 02000000 		.4byte	.LCFI12
 4454 04ab 0200     		.2byte	0x2
 4455 04ad 7D       		.byte	0x7d
 4456 04ae 00       		.sleb128 0
 4457 04af 02000000 		.4byte	.LCFI12
 4458 04b3 30000000 		.4byte	.LFE130
 4459 04b7 0200     		.2byte	0x2
 4460 04b9 7D       		.byte	0x7d
 4461 04ba 04       		.sleb128 4
 4462 04bb 00000000 		.4byte	0
 4463 04bf 00000000 		.4byte	0
 4464              	.LLST21:
 4465 04c3 00000000 		.4byte	.LVL111
ARM GAS  /var/folders/ng/s8655sgx1ys_4lf9jzm2w6n00000gn/T//ccT3xYAZ.s 			page 80


 4466 04c7 0A000000 		.4byte	.LVL112
 4467 04cb 0100     		.2byte	0x1
 4468 04cd 50       		.byte	0x50
 4469 04ce 0A000000 		.4byte	.LVL112
 4470 04d2 30000000 		.4byte	.LFE130
 4471 04d6 0400     		.2byte	0x4
 4472 04d8 F3       		.byte	0xf3
 4473 04d9 01       		.uleb128 0x1
 4474 04da 50       		.byte	0x50
 4475 04db 9F       		.byte	0x9f
 4476 04dc 00000000 		.4byte	0
 4477 04e0 00000000 		.4byte	0
 4478              	.LLST22:
 4479 04e4 00000000 		.4byte	.LVL111
 4480 04e8 20000000 		.4byte	.LVL114
 4481 04ec 0100     		.2byte	0x1
 4482 04ee 51       		.byte	0x51
 4483 04ef 20000000 		.4byte	.LVL114
 4484 04f3 30000000 		.4byte	.LFE130
 4485 04f7 0400     		.2byte	0x4
 4486 04f9 F3       		.byte	0xf3
 4487 04fa 01       		.uleb128 0x1
 4488 04fb 51       		.byte	0x51
 4489 04fc 9F       		.byte	0x9f
 4490 04fd 00000000 		.4byte	0
 4491 0501 00000000 		.4byte	0
 4492              	.LLST23:
 4493 0505 00000000 		.4byte	.LVL111
 4494 0509 1C000000 		.4byte	.LVL113
 4495 050d 0100     		.2byte	0x1
 4496 050f 52       		.byte	0x52
 4497 0510 1C000000 		.4byte	.LVL113
 4498 0514 30000000 		.4byte	.LFE130
 4499 0518 0400     		.2byte	0x4
 4500 051a F3       		.byte	0xf3
 4501 051b 01       		.uleb128 0x1
 4502 051c 52       		.byte	0x52
 4503 051d 9F       		.byte	0x9f
 4504 051e 00000000 		.4byte	0
 4505 0522 00000000 		.4byte	0
 4506              	.LLST24:
 4507 0526 1C000000 		.4byte	.LVL113
 4508 052a 26000000 		.4byte	.LVL115
 4509 052e 0100     		.2byte	0x1
 4510 0530 52       		.byte	0x52
 4511 0531 00000000 		.4byte	0
 4512 0535 00000000 		.4byte	0
 4513              	.LLST25:
 4514 0539 00000000 		.4byte	.LVL116
 4515 053d 0C000000 		.4byte	.LVL117
 4516 0541 0100     		.2byte	0x1
 4517 0543 50       		.byte	0x50
 4518 0544 0C000000 		.4byte	.LVL117
 4519 0548 1E000000 		.4byte	.LFE131
 4520 054c 0400     		.2byte	0x4
 4521 054e F3       		.byte	0xf3
 4522 054f 01       		.uleb128 0x1
ARM GAS  /var/folders/ng/s8655sgx1ys_4lf9jzm2w6n00000gn/T//ccT3xYAZ.s 			page 81


 4523 0550 50       		.byte	0x50
 4524 0551 9F       		.byte	0x9f
 4525 0552 00000000 		.4byte	0
 4526 0556 00000000 		.4byte	0
 4527              	.LLST26:
 4528 055a 00000000 		.4byte	.LVL116
 4529 055e 16000000 		.4byte	.LVL118
 4530 0562 0100     		.2byte	0x1
 4531 0564 51       		.byte	0x51
 4532 0565 16000000 		.4byte	.LVL118
 4533 0569 1E000000 		.4byte	.LFE131
 4534 056d 0400     		.2byte	0x4
 4535 056f F3       		.byte	0xf3
 4536 0570 01       		.uleb128 0x1
 4537 0571 51       		.byte	0x51
 4538 0572 9F       		.byte	0x9f
 4539 0573 00000000 		.4byte	0
 4540 0577 00000000 		.4byte	0
 4541              		.section	.debug_aranges,"",%progbits
 4542 0000 84000000 		.4byte	0x84
 4543 0004 0200     		.2byte	0x2
 4544 0006 00000000 		.4byte	.Ldebug_info0
 4545 000a 04       		.byte	0x4
 4546 000b 00       		.byte	0
 4547 000c 0000     		.2byte	0
 4548 000e 0000     		.2byte	0
 4549 0010 00000000 		.4byte	.LFB118
 4550 0014 68000000 		.4byte	.LFE118-.LFB118
 4551 0018 00000000 		.4byte	.LFB119
 4552 001c 24000000 		.4byte	.LFE119-.LFB119
 4553 0020 00000000 		.4byte	.LFB120
 4554 0024 6C000000 		.4byte	.LFE120-.LFB120
 4555 0028 00000000 		.4byte	.LFB121
 4556 002c 16000000 		.4byte	.LFE121-.LFB121
 4557 0030 00000000 		.4byte	.LFB122
 4558 0034 16000000 		.4byte	.LFE122-.LFB122
 4559 0038 00000000 		.4byte	.LFB123
 4560 003c 16000000 		.4byte	.LFE123-.LFB123
 4561 0040 00000000 		.4byte	.LFB124
 4562 0044 26000000 		.4byte	.LFE124-.LFB124
 4563 0048 00000000 		.4byte	.LFB125
 4564 004c 6C000000 		.4byte	.LFE125-.LFB125
 4565 0050 00000000 		.4byte	.LFB126
 4566 0054 16000000 		.4byte	.LFE126-.LFB126
 4567 0058 00000000 		.4byte	.LFB127
 4568 005c 8E000000 		.4byte	.LFE127-.LFB127
 4569 0060 00000000 		.4byte	.LFB128
 4570 0064 98020000 		.4byte	.LFE128-.LFB128
 4571 0068 00000000 		.4byte	.LFB129
 4572 006c F0000000 		.4byte	.LFE129-.LFB129
 4573 0070 00000000 		.4byte	.LFB130
 4574 0074 30000000 		.4byte	.LFE130-.LFB130
 4575 0078 00000000 		.4byte	.LFB131
 4576 007c 1E000000 		.4byte	.LFE131-.LFB131
 4577 0080 00000000 		.4byte	0
 4578 0084 00000000 		.4byte	0
 4579              		.section	.debug_ranges,"",%progbits
ARM GAS  /var/folders/ng/s8655sgx1ys_4lf9jzm2w6n00000gn/T//ccT3xYAZ.s 			page 82


 4580              	.Ldebug_ranges0:
 4581 0000 00000000 		.4byte	.LFB118
 4582 0004 68000000 		.4byte	.LFE118
 4583 0008 00000000 		.4byte	.LFB119
 4584 000c 24000000 		.4byte	.LFE119
 4585 0010 00000000 		.4byte	.LFB120
 4586 0014 6C000000 		.4byte	.LFE120
 4587 0018 00000000 		.4byte	.LFB121
 4588 001c 16000000 		.4byte	.LFE121
 4589 0020 00000000 		.4byte	.LFB122
 4590 0024 16000000 		.4byte	.LFE122
 4591 0028 00000000 		.4byte	.LFB123
 4592 002c 16000000 		.4byte	.LFE123
 4593 0030 00000000 		.4byte	.LFB124
 4594 0034 26000000 		.4byte	.LFE124
 4595 0038 00000000 		.4byte	.LFB125
 4596 003c 6C000000 		.4byte	.LFE125
 4597 0040 00000000 		.4byte	.LFB126
 4598 0044 16000000 		.4byte	.LFE126
 4599 0048 00000000 		.4byte	.LFB127
 4600 004c 8E000000 		.4byte	.LFE127
 4601 0050 00000000 		.4byte	.LFB128
 4602 0054 98020000 		.4byte	.LFE128
 4603 0058 00000000 		.4byte	.LFB129
 4604 005c F0000000 		.4byte	.LFE129
 4605 0060 00000000 		.4byte	.LFB130
 4606 0064 30000000 		.4byte	.LFE130
 4607 0068 00000000 		.4byte	.LFB131
 4608 006c 1E000000 		.4byte	.LFE131
 4609 0070 00000000 		.4byte	0
 4610 0074 00000000 		.4byte	0
 4611              		.section	.debug_line,"",%progbits
 4612              	.Ldebug_line0:
 4613 0000 73040000 		.section	.debug_str,"MS",%progbits,1
 4613      02000E02 
 4613      00000201 
 4613      FB0E0D00 
 4613      01010101 
 4614              	.LASF165:
 4615 0000 70776D63 		.ascii	"pwmchannel_t\000"
 4615      68616E6E 
 4615      656C5F74 
 4615      00
 4616              	.LASF133:
 4617 000d 41504231 		.ascii	"APB1LPENR\000"
 4617      4C50454E 
 4617      5200
 4618              	.LASF44:
 4619 0017 43414E31 		.ascii	"CAN1_RX0_IRQn\000"
 4619      5F525830 
 4619      5F495251 
 4619      6E00
 4620              	.LASF25:
 4621 0025 5056445F 		.ascii	"PVD_IRQn\000"
 4621      4952516E 
 4621      00
 4622              	.LASF88:
ARM GAS  /var/folders/ng/s8655sgx1ys_4lf9jzm2w6n00000gn/T//ccT3xYAZ.s 			page 83


 4623 002e 43414E32 		.ascii	"CAN2_RX0_IRQn\000"
 4623      5F525830 
 4623      5F495251 
 4623      6E00
 4624              	.LASF205:
 4625 003c 70776D5F 		.ascii	"pwm_lld_serve_interrupt\000"
 4625      6C6C645F 
 4625      73657276 
 4625      655F696E 
 4625      74657272 
 4626              	.LASF97:
 4627 0054 49324333 		.ascii	"I2C3_ER_IRQn\000"
 4627      5F45525F 
 4627      4952516E 
 4627      00
 4628              	.LASF107:
 4629 0061 55415254 		.ascii	"UART8_IRQn\000"
 4629      385F4952 
 4629      516E00
 4630              	.LASF55:
 4631 006c 49324331 		.ascii	"I2C1_EV_IRQn\000"
 4631      5F45565F 
 4631      4952516E 
 4631      00
 4632              	.LASF92:
 4633 0079 444D4132 		.ascii	"DMA2_Stream5_IRQn\000"
 4633      5F537472 
 4633      65616D35 
 4633      5F495251 
 4633      6E00
 4634              	.LASF156:
 4635 008b 43434D52 		.ascii	"CCMR2\000"
 4635      3200
 4636              	.LASF150:
 4637 0091 70657269 		.ascii	"period\000"
 4637      6F6400
 4638              	.LASF176:
 4639 0098 56656374 		.ascii	"VectorAC\000"
 4639      6F724143 
 4639      00
 4640              	.LASF45:
 4641 00a1 43414E31 		.ascii	"CAN1_RX1_IRQn\000"
 4641      5F525831 
 4641      5F495251 
 4641      6E00
 4642              	.LASF108:
 4643 00af 53504934 		.ascii	"SPI4_IRQn\000"
 4643      5F495251 
 4643      6E00
 4644              	.LASF12:
 4645 00b9 6C6F6E67 		.ascii	"long long unsigned int\000"
 4645      206C6F6E 
 4645      6720756E 
 4645      7369676E 
 4645      65642069 
 4646              	.LASF172:
 4647 00d0 62647472 		.ascii	"bdtr\000"
ARM GAS  /var/folders/ng/s8655sgx1ys_4lf9jzm2w6n00000gn/T//ccT3xYAZ.s 			page 84


 4647      00
 4648              	.LASF65:
 4649 00d5 5254435F 		.ascii	"RTC_Alarm_IRQn\000"
 4649      416C6172 
 4649      6D5F4952 
 4649      516E00
 4650              	.LASF58:
 4651 00e4 49324332 		.ascii	"I2C2_ER_IRQn\000"
 4651      5F45525F 
 4651      4952516E 
 4651      00
 4652              	.LASF54:
 4653 00f1 54494D34 		.ascii	"TIM4_IRQn\000"
 4653      5F495251 
 4653      6E00
 4654              	.LASF27:
 4655 00fb 5254435F 		.ascii	"RTC_WKUP_IRQn\000"
 4655      574B5550 
 4655      5F495251 
 4655      6E00
 4656              	.LASF24:
 4657 0109 57574447 		.ascii	"WWDG_IRQn\000"
 4657      5F495251 
 4657      6E00
 4658              	.LASF170:
 4659 0113 66726571 		.ascii	"frequency\000"
 4659      75656E63 
 4659      7900
 4660              	.LASF129:
 4661 011d 41484231 		.ascii	"AHB1LPENR\000"
 4661      4C50454E 
 4661      5200
 4662              	.LASF145:
 4663 0127 50574D5F 		.ascii	"PWM_READY\000"
 4663      52454144 
 4663      5900
 4664              	.LASF200:
 4665 0131 6E766963 		.ascii	"nvicEnableVector\000"
 4665      456E6162 
 4665      6C655665 
 4665      63746F72 
 4665      00
 4666              	.LASF155:
 4667 0142 43434D52 		.ascii	"CCMR1\000"
 4667      3100
 4668              	.LASF141:
 4669 0148 44434B43 		.ascii	"DCKCFGR\000"
 4669      46475200 
 4670              	.LASF160:
 4671 0150 43434D52 		.ascii	"CCMR3\000"
 4671      3300
 4672              	.LASF1:
 4673 0156 7369676E 		.ascii	"signed char\000"
 4673      65642063 
 4673      68617200 
 4674              	.LASF89:
 4675 0162 43414E32 		.ascii	"CAN2_RX1_IRQn\000"
ARM GAS  /var/folders/ng/s8655sgx1ys_4lf9jzm2w6n00000gn/T//ccT3xYAZ.s 			page 85


 4675      5F525831 
 4675      5F495251 
 4675      6E00
 4676              	.LASF163:
 4677 0170 73746D33 		.ascii	"stm32_tim_t\000"
 4677      325F7469 
 4677      6D5F7400 
 4678              	.LASF164:
 4679 017c 70776D6D 		.ascii	"pwmmode_t\000"
 4679      6F64655F 
 4679      7400
 4680              	.LASF177:
 4681 0186 56656374 		.ascii	"VectorB0\000"
 4681      6F724230 
 4681      00
 4682              	.LASF93:
 4683 018f 444D4132 		.ascii	"DMA2_Stream6_IRQn\000"
 4683      5F537472 
 4683      65616D36 
 4683      5F495251 
 4683      6E00
 4684              	.LASF178:
 4685 01a1 56656374 		.ascii	"VectorB4\000"
 4685      6F724234 
 4685      00
 4686              	.LASF201:
 4687 01aa 474E5520 		.ascii	"GNU C 4.7.4 20130913 (release) [ARM/embedded-4_7-br"
 4687      4320342E 
 4687      372E3420 
 4687      32303133 
 4687      30393133 
 4688 01dd 616E6368 		.ascii	"anch revision 202601]\000"
 4688      20726576 
 4688      6973696F 
 4688      6E203230 
 4688      32363031 
 4689              	.LASF148:
 4690 01f3 73746174 		.ascii	"state\000"
 4690      6500
 4691              	.LASF171:
 4692 01f9 6368616E 		.ascii	"channels\000"
 4692      6E656C73 
 4692      00
 4693              	.LASF8:
 4694 0202 6C6F6E67 		.ascii	"long int\000"
 4694      20696E74 
 4694      00
 4695              	.LASF197:
 4696 020b 50574D44 		.ascii	"PWMD8\000"
 4696      3800
 4697              	.LASF184:
 4698 0211 70776D5F 		.ascii	"pwm_lld_start\000"
 4698      6C6C645F 
 4698      73746172 
 4698      7400
 4699              	.LASF120:
 4700 021f 41504232 		.ascii	"APB2RSTR\000"
ARM GAS  /var/folders/ng/s8655sgx1ys_4lf9jzm2w6n00000gn/T//ccT3xYAZ.s 			page 86


 4700      52535452 
 4700      00
 4701              	.LASF109:
 4702 0228 53504935 		.ascii	"SPI5_IRQn\000"
 4702      5F495251 
 4702      6E00
 4703              	.LASF40:
 4704 0232 444D4131 		.ascii	"DMA1_Stream5_IRQn\000"
 4704      5F537472 
 4704      65616D35 
 4704      5F495251 
 4704      6E00
 4705              	.LASF47:
 4706 0244 45585449 		.ascii	"EXTI9_5_IRQn\000"
 4706      395F355F 
 4706      4952516E 
 4706      00
 4707              	.LASF157:
 4708 0251 43434552 		.ascii	"CCER\000"
 4708      00
 4709              	.LASF11:
 4710 0256 6C6F6E67 		.ascii	"long long int\000"
 4710      206C6F6E 
 4710      6720696E 
 4710      7400
 4711              	.LASF86:
 4712 0264 4554485F 		.ascii	"ETH_WKUP_IRQn\000"
 4712      574B5550 
 4712      5F495251 
 4712      6E00
 4713              	.LASF5:
 4714 0272 75696E74 		.ascii	"uint16_t\000"
 4714      31365F74 
 4714      00
 4715              	.LASF78:
 4716 027b 54494D36 		.ascii	"TIM6_DAC_IRQn\000"
 4716      5F444143 
 4716      5F495251 
 4716      6E00
 4717              	.LASF113:
 4718 0289 504C4C43 		.ascii	"PLLCFGR\000"
 4718      46475200 
 4719              	.LASF76:
 4720 0291 55415254 		.ascii	"UART4_IRQn\000"
 4720      345F4952 
 4720      516E00
 4721              	.LASF66:
 4722 029c 4F54475F 		.ascii	"OTG_FS_WKUP_IRQn\000"
 4722      46535F57 
 4722      4B55505F 
 4722      4952516E 
 4722      00
 4723              	.LASF22:
 4724 02ad 50656E64 		.ascii	"PendSV_IRQn\000"
 4724      53565F49 
 4724      52516E00 
 4725              	.LASF68:
ARM GAS  /var/folders/ng/s8655sgx1ys_4lf9jzm2w6n00000gn/T//ccT3xYAZ.s 			page 87


 4726 02b9 54494D38 		.ascii	"TIM8_UP_TIM13_IRQn\000"
 4726      5F55505F 
 4726      54494D31 
 4726      335F4952 
 4726      516E00
 4727              	.LASF193:
 4728 02cc 50574D44 		.ascii	"PWMD1\000"
 4728      3100
 4729              	.LASF194:
 4730 02d2 50574D44 		.ascii	"PWMD2\000"
 4730      3200
 4731              	.LASF195:
 4732 02d8 50574D44 		.ascii	"PWMD3\000"
 4732      3300
 4733              	.LASF196:
 4734 02de 50574D44 		.ascii	"PWMD4\000"
 4734      3400
 4735              	.LASF179:
 4736 02e4 56656374 		.ascii	"VectorB8\000"
 4736      6F724238 
 4736      00
 4737              	.LASF116:
 4738 02ed 41484232 		.ascii	"AHB2RSTR\000"
 4738      52535452 
 4738      00
 4739              	.LASF18:
 4740 02f6 42757346 		.ascii	"BusFault_IRQn\000"
 4740      61756C74 
 4740      5F495251 
 4740      6E00
 4741              	.LASF198:
 4742 0304 50574D44 		.ascii	"PWMD9\000"
 4742      3900
 4743              	.LASF70:
 4744 030a 54494D38 		.ascii	"TIM8_CC_IRQn\000"
 4744      5F43435F 
 4744      4952516E 
 4744      00
 4745              	.LASF180:
 4746 0317 56656374 		.ascii	"VectorF0\000"
 4746      6F724630 
 4746      00
 4747              	.LASF94:
 4748 0320 444D4132 		.ascii	"DMA2_Stream7_IRQn\000"
 4748      5F537472 
 4748      65616D37 
 4748      5F495251 
 4748      6E00
 4749              	.LASF158:
 4750 0332 42445452 		.ascii	"BDTR\000"
 4750      00
 4751              	.LASF0:
 4752 0337 756E7369 		.ascii	"unsigned int\000"
 4752      676E6564 
 4752      20696E74 
 4752      00
 4753              	.LASF38:
ARM GAS  /var/folders/ng/s8655sgx1ys_4lf9jzm2w6n00000gn/T//ccT3xYAZ.s 			page 88


 4754 0344 444D4131 		.ascii	"DMA1_Stream3_IRQn\000"
 4754      5F537472 
 4754      65616D33 
 4754      5F495251 
 4754      6E00
 4755              	.LASF41:
 4756 0356 444D4131 		.ascii	"DMA1_Stream6_IRQn\000"
 4756      5F537472 
 4756      65616D36 
 4756      5F495251 
 4756      6E00
 4757              	.LASF17:
 4758 0368 4D656D6F 		.ascii	"MemoryManagement_IRQn\000"
 4758      72794D61 
 4758      6E616765 
 4758      6D656E74 
 4758      5F495251 
 4759              	.LASF96:
 4760 037e 49324333 		.ascii	"I2C3_EV_IRQn\000"
 4760      5F45565F 
 4760      4952516E 
 4760      00
 4761              	.LASF10:
 4762 038b 6C6F6E67 		.ascii	"long unsigned int\000"
 4762      20756E73 
 4762      69676E65 
 4762      6420696E 
 4762      7400
 4763              	.LASF111:
 4764 039d 53414931 		.ascii	"SAI1_IRQn\000"
 4764      5F495251 
 4764      6E00
 4765              	.LASF110:
 4766 03a7 53504936 		.ascii	"SPI6_IRQn\000"
 4766      5F495251 
 4766      6E00
 4767              	.LASF98:
 4768 03b1 4F54475F 		.ascii	"OTG_HS_EP1_OUT_IRQn\000"
 4768      48535F45 
 4768      50315F4F 
 4768      55545F49 
 4768      52516E00 
 4769              	.LASF73:
 4770 03c5 5344494F 		.ascii	"SDIO_IRQn\000"
 4770      5F495251 
 4770      6E00
 4771              	.LASF190:
 4772 03cf 77696474 		.ascii	"width\000"
 4772      6800
 4773              	.LASF20:
 4774 03d5 53564361 		.ascii	"SVCall_IRQn\000"
 4774      6C6C5F49 
 4774      52516E00 
 4775              	.LASF153:
 4776 03e1 534D4352 		.ascii	"SMCR\000"
 4776      00
 4777              	.LASF82:
ARM GAS  /var/folders/ng/s8655sgx1ys_4lf9jzm2w6n00000gn/T//ccT3xYAZ.s 			page 89


 4778 03e6 444D4132 		.ascii	"DMA2_Stream2_IRQn\000"
 4778      5F537472 
 4778      65616D32 
 4778      5F495251 
 4778      6E00
 4779              	.LASF139:
 4780 03f8 504C4C49 		.ascii	"PLLI2SCFGR\000"
 4780      32534346 
 4780      475200
 4781              	.LASF43:
 4782 0403 43414E31 		.ascii	"CAN1_TX_IRQn\000"
 4782      5F54585F 
 4782      4952516E 
 4782      00
 4783              	.LASF117:
 4784 0410 41484233 		.ascii	"AHB3RSTR\000"
 4784      52535452 
 4784      00
 4785              	.LASF64:
 4786 0419 45585449 		.ascii	"EXTI15_10_IRQn\000"
 4786      31355F31 
 4786      305F4952 
 4786      516E00
 4787              	.LASF59:
 4788 0428 53504931 		.ascii	"SPI1_IRQn\000"
 4788      5F495251 
 4788      6E00
 4789              	.LASF168:
 4790 0432 63616C6C 		.ascii	"callback\000"
 4790      6261636B 
 4790      00
 4791              	.LASF202:
 4792 043b 2E2E2F41 		.ascii	"../AithonLibrary/ChibiOS/os/hal/platforms/STM32/TIM"
 4792      6974686F 
 4792      6E4C6962 
 4792      72617279 
 4792      2F436869 
 4793 046e 76312F70 		.ascii	"v1/pwm_lld.c\000"
 4793      776D5F6C 
 4793      6C642E63 
 4793      00
 4794              	.LASF134:
 4795 047b 41504232 		.ascii	"APB2LPENR\000"
 4795      4C50454E 
 4795      5200
 4796              	.LASF186:
 4797 0485 63636572 		.ascii	"ccer\000"
 4797      00
 4798              	.LASF67:
 4799 048a 54494D38 		.ascii	"TIM8_BRK_TIM12_IRQn\000"
 4799      5F42524B 
 4799      5F54494D 
 4799      31325F49 
 4799      52516E00 
 4800              	.LASF185:
 4801 049e 70776D70 		.ascii	"pwmp\000"
 4801      00
ARM GAS  /var/folders/ng/s8655sgx1ys_4lf9jzm2w6n00000gn/T//ccT3xYAZ.s 			page 90


 4802              	.LASF23:
 4803 04a3 53797354 		.ascii	"SysTick_IRQn\000"
 4803      69636B5F 
 4803      4952516E 
 4803      00
 4804              	.LASF51:
 4805 04b0 54494D31 		.ascii	"TIM1_CC_IRQn\000"
 4805      5F43435F 
 4805      4952516E 
 4805      00
 4806              	.LASF69:
 4807 04bd 54494D38 		.ascii	"TIM8_TRG_COM_TIM14_IRQn\000"
 4807      5F545247 
 4807      5F434F4D 
 4807      5F54494D 
 4807      31345F49 
 4808              	.LASF112:
 4809 04d5 444D4132 		.ascii	"DMA2D_IRQn\000"
 4809      445F4952 
 4809      516E00
 4810              	.LASF204:
 4811 04e0 4952516E 		.ascii	"IRQn\000"
 4811      00
 4812              	.LASF14:
 4813 04e5 73697A65 		.ascii	"sizetype\000"
 4813      74797065 
 4813      00
 4814              	.LASF85:
 4815 04ee 4554485F 		.ascii	"ETH_IRQn\000"
 4815      4952516E 
 4815      00
 4816              	.LASF49:
 4817 04f7 54494D31 		.ascii	"TIM1_UP_TIM10_IRQn\000"
 4817      5F55505F 
 4817      54494D31 
 4817      305F4952 
 4817      516E00
 4818              	.LASF83:
 4819 050a 444D4132 		.ascii	"DMA2_Stream3_IRQn\000"
 4819      5F537472 
 4819      65616D33 
 4819      5F495251 
 4819      6E00
 4820              	.LASF39:
 4821 051c 444D4131 		.ascii	"DMA1_Stream4_IRQn\000"
 4821      5F537472 
 4821      65616D34 
 4821      5F495251 
 4821      6E00
 4822              	.LASF95:
 4823 052e 55534152 		.ascii	"USART6_IRQn\000"
 4823      54365F49 
 4823      52516E00 
 4824              	.LASF74:
 4825 053a 54494D35 		.ascii	"TIM5_IRQn\000"
 4825      5F495251 
 4825      6E00
ARM GAS  /var/folders/ng/s8655sgx1ys_4lf9jzm2w6n00000gn/T//ccT3xYAZ.s 			page 91


 4826              	.LASF33:
 4827 0544 45585449 		.ascii	"EXTI3_IRQn\000"
 4827      335F4952 
 4827      516E00
 4828              	.LASF60:
 4829 054f 53504932 		.ascii	"SPI2_IRQn\000"
 4829      5F495251 
 4829      6E00
 4830              	.LASF37:
 4831 0559 444D4131 		.ascii	"DMA1_Stream2_IRQn\000"
 4831      5F537472 
 4831      65616D32 
 4831      5F495251 
 4831      6E00
 4832              	.LASF87:
 4833 056b 43414E32 		.ascii	"CAN2_TX_IRQn\000"
 4833      5F54585F 
 4833      4952516E 
 4833      00
 4834              	.LASF130:
 4835 0578 41484232 		.ascii	"AHB2LPENR\000"
 4835      4C50454E 
 4835      5200
 4836              	.LASF119:
 4837 0582 41504231 		.ascii	"APB1RSTR\000"
 4837      52535452 
 4837      00
 4838              	.LASF101:
 4839 058b 4F54475F 		.ascii	"OTG_HS_IRQn\000"
 4839      48535F49 
 4839      52516E00 
 4840              	.LASF140:
 4841 0597 504C4C53 		.ascii	"PLLSAICFGR\000"
 4841      41494346 
 4841      475200
 4842              	.LASF152:
 4843 05a2 70776D63 		.ascii	"pwmcallback_t\000"
 4843      616C6C62 
 4843      61636B5F 
 4843      7400
 4844              	.LASF118:
 4845 05b0 52455345 		.ascii	"RESERVED0\000"
 4845      52564544 
 4845      3000
 4846              	.LASF121:
 4847 05ba 52455345 		.ascii	"RESERVED1\000"
 4847      52564544 
 4847      3100
 4848              	.LASF125:
 4849 05c4 52455345 		.ascii	"RESERVED2\000"
 4849      52564544 
 4849      3200
 4850              	.LASF128:
 4851 05ce 52455345 		.ascii	"RESERVED3\000"
 4851      52564544 
 4851      3300
 4852              	.LASF132:
ARM GAS  /var/folders/ng/s8655sgx1ys_4lf9jzm2w6n00000gn/T//ccT3xYAZ.s 			page 92


 4853 05d8 52455345 		.ascii	"RESERVED4\000"
 4853      52564544 
 4853      3400
 4854              	.LASF135:
 4855 05e2 52455345 		.ascii	"RESERVED5\000"
 4855      52564544 
 4855      3500
 4856              	.LASF137:
 4857 05ec 52455345 		.ascii	"RESERVED6\000"
 4857      52564544 
 4857      3600
 4858              	.LASF75:
 4859 05f6 53504933 		.ascii	"SPI3_IRQn\000"
 4859      5F495251 
 4859      6E00
 4860              	.LASF203:
 4861 0600 2F557365 		.ascii	"/Users/jseng/aithon/DemoMode\000"
 4861      72732F6A 
 4861      73656E67 
 4861      2F616974 
 4861      686F6E2F 
 4862              	.LASF84:
 4863 061d 444D4132 		.ascii	"DMA2_Stream4_IRQn\000"
 4863      5F537472 
 4863      65616D34 
 4863      5F495251 
 4863      6E00
 4864              	.LASF13:
 4865 062f 5F426F6F 		.ascii	"_Bool\000"
 4865      6C00
 4866              	.LASF7:
 4867 0635 696E7433 		.ascii	"int32_t\000"
 4867      325F7400 
 4868              	.LASF2:
 4869 063d 756E7369 		.ascii	"unsigned char\000"
 4869      676E6564 
 4869      20636861 
 4869      7200
 4870              	.LASF48:
 4871 064b 54494D31 		.ascii	"TIM1_BRK_TIM9_IRQn\000"
 4871      5F42524B 
 4871      5F54494D 
 4871      395F4952 
 4871      516E00
 4872              	.LASF192:
 4873 065e 49544D5F 		.ascii	"ITM_RxBuffer\000"
 4873      52784275 
 4873      66666572 
 4873      00
 4874              	.LASF34:
 4875 066b 45585449 		.ascii	"EXTI4_IRQn\000"
 4875      345F4952 
 4875      516E00
 4876              	.LASF104:
 4877 0676 48415348 		.ascii	"HASH_RNG_IRQn\000"
 4877      5F524E47 
 4877      5F495251 
ARM GAS  /var/folders/ng/s8655sgx1ys_4lf9jzm2w6n00000gn/T//ccT3xYAZ.s 			page 93


 4877      6E00
 4878              	.LASF3:
 4879 0684 73686F72 		.ascii	"short int\000"
 4879      7420696E 
 4879      7400
 4880              	.LASF131:
 4881 068e 41484233 		.ascii	"AHB3LPENR\000"
 4881      4C50454E 
 4881      5200
 4882              	.LASF77:
 4883 0698 55415254 		.ascii	"UART5_IRQn\000"
 4883      355F4952 
 4883      516E00
 4884              	.LASF50:
 4885 06a3 54494D31 		.ascii	"TIM1_TRG_COM_TIM11_IRQn\000"
 4885      5F545247 
 4885      5F434F4D 
 4885      5F54494D 
 4885      31315F49 
 4886              	.LASF72:
 4887 06bb 464D435F 		.ascii	"FMC_IRQn\000"
 4887      4952516E 
 4887      00
 4888              	.LASF6:
 4889 06c4 73686F72 		.ascii	"short unsigned int\000"
 4889      7420756E 
 4889      7369676E 
 4889      65642069 
 4889      6E7400
 4890              	.LASF32:
 4891 06d7 45585449 		.ascii	"EXTI2_IRQn\000"
 4891      325F4952 
 4891      516E00
 4892              	.LASF127:
 4893 06e2 41504232 		.ascii	"APB2ENR\000"
 4893      454E5200 
 4894              	.LASF189:
 4895 06ea 6368616E 		.ascii	"channel\000"
 4895      6E656C00 
 4896              	.LASF124:
 4897 06f2 41484233 		.ascii	"AHB3ENR\000"
 4897      454E5200 
 4898              	.LASF181:
 4899 06fa 56656374 		.ascii	"VectorF8\000"
 4899      6F724638 
 4899      00
 4900              	.LASF28:
 4901 0703 464C4153 		.ascii	"FLASH_IRQn\000"
 4901      485F4952 
 4901      516E00
 4902              	.LASF187:
 4903 070e 70776D5F 		.ascii	"pwm_lld_stop\000"
 4903      6C6C645F 
 4903      73746F70 
 4903      00
 4904              	.LASF91:
 4905 071b 4F54475F 		.ascii	"OTG_FS_IRQn\000"
ARM GAS  /var/folders/ng/s8655sgx1ys_4lf9jzm2w6n00000gn/T//ccT3xYAZ.s 			page 94


 4905      46535F49 
 4905      52516E00 
 4906              	.LASF9:
 4907 0727 75696E74 		.ascii	"uint32_t\000"
 4907      33325F74 
 4907      00
 4908              	.LASF62:
 4909 0730 55534152 		.ascii	"USART2_IRQn\000"
 4909      54325F49 
 4909      52516E00 
 4910              	.LASF19:
 4911 073c 55736167 		.ascii	"UsageFault_IRQn\000"
 4911      65466175 
 4911      6C745F49 
 4911      52516E00 
 4912              	.LASF174:
 4913 074c 50574D43 		.ascii	"PWMConfig\000"
 4913      6F6E6669 
 4913      6700
 4914              	.LASF207:
 4915 0756 6E766963 		.ascii	"nvicDisableVector\000"
 4915      44697361 
 4915      626C6556 
 4915      6563746F 
 4915      7200
 4916              	.LASF71:
 4917 0768 444D4131 		.ascii	"DMA1_Stream7_IRQn\000"
 4917      5F537472 
 4917      65616D37 
 4917      5F495251 
 4917      6E00
 4918              	.LASF188:
 4919 077a 70776D5F 		.ascii	"pwm_lld_enable_channel\000"
 4919      6C6C645F 
 4919      656E6162 
 4919      6C655F63 
 4919      68616E6E 
 4920              	.LASF144:
 4921 0791 50574D5F 		.ascii	"PWM_STOP\000"
 4921      53544F50 
 4921      00
 4922              	.LASF15:
 4923 079a 63686172 		.ascii	"char\000"
 4923      00
 4924              	.LASF167:
 4925 079f 6D6F6465 		.ascii	"mode\000"
 4925      00
 4926              	.LASF103:
 4927 07a4 43525950 		.ascii	"CRYP_IRQn\000"
 4927      5F495251 
 4927      6E00
 4928              	.LASF149:
 4929 07ae 636F6E66 		.ascii	"config\000"
 4929      696700
 4930              	.LASF159:
 4931 07b5 444D4152 		.ascii	"DMAR\000"
 4931      00
ARM GAS  /var/folders/ng/s8655sgx1ys_4lf9jzm2w6n00000gn/T//ccT3xYAZ.s 			page 95


 4932              	.LASF79:
 4933 07ba 54494D37 		.ascii	"TIM7_IRQn\000"
 4933      5F495251 
 4933      6E00
 4934              	.LASF36:
 4935 07c4 444D4131 		.ascii	"DMA1_Stream1_IRQn\000"
 4935      5F537472 
 4935      65616D31 
 4935      5F495251 
 4935      6E00
 4936              	.LASF99:
 4937 07d6 4F54475F 		.ascii	"OTG_HS_EP1_IN_IRQn\000"
 4937      48535F45 
 4937      50315F49 
 4937      4E5F4952 
 4937      516E00
 4938              	.LASF16:
 4939 07e9 4E6F6E4D 		.ascii	"NonMaskableInt_IRQn\000"
 4939      61736B61 
 4939      626C6549 
 4939      6E745F49 
 4939      52516E00 
 4940              	.LASF126:
 4941 07fd 41504231 		.ascii	"APB1ENR\000"
 4941      454E5200 
 4942              	.LASF123:
 4943 0805 41484232 		.ascii	"AHB2ENR\000"
 4943      454E5200 
 4944              	.LASF26:
 4945 080d 54414D50 		.ascii	"TAMP_STAMP_IRQn\000"
 4945      5F535441 
 4945      4D505F49 
 4945      52516E00 
 4946              	.LASF169:
 4947 081d 50574D43 		.ascii	"PWMChannelConfig\000"
 4947      68616E6E 
 4947      656C436F 
 4947      6E666967 
 4947      00
 4948              	.LASF142:
 4949 082e 5243435F 		.ascii	"RCC_TypeDef\000"
 4949      54797065 
 4949      44656600 
 4950              	.LASF21:
 4951 083a 44656275 		.ascii	"DebugMonitor_IRQn\000"
 4951      674D6F6E 
 4951      69746F72 
 4951      5F495251 
 4951      6E00
 4952              	.LASF80:
 4953 084c 444D4132 		.ascii	"DMA2_Stream0_IRQn\000"
 4953      5F537472 
 4953      65616D30 
 4953      5F495251 
 4953      6E00
 4954              	.LASF115:
 4955 085e 41484231 		.ascii	"AHB1RSTR\000"
ARM GAS  /var/folders/ng/s8655sgx1ys_4lf9jzm2w6n00000gn/T//ccT3xYAZ.s 			page 96


 4955      52535452 
 4955      00
 4956              	.LASF57:
 4957 0867 49324332 		.ascii	"I2C2_EV_IRQn\000"
 4957      5F45565F 
 4957      4952516E 
 4957      00
 4958              	.LASF63:
 4959 0874 55534152 		.ascii	"USART3_IRQn\000"
 4959      54335F49 
 4959      52516E00 
 4960              	.LASF138:
 4961 0880 53534347 		.ascii	"SSCGR\000"
 4961      5200
 4962              	.LASF52:
 4963 0886 54494D32 		.ascii	"TIM2_IRQn\000"
 4963      5F495251 
 4963      6E00
 4964              	.LASF30:
 4965 0890 45585449 		.ascii	"EXTI0_IRQn\000"
 4965      305F4952 
 4965      516E00
 4966              	.LASF161:
 4967 089b 43435235 		.ascii	"CCR5\000"
 4967      00
 4968              	.LASF162:
 4969 08a0 43435236 		.ascii	"CCR6\000"
 4969      00
 4970              	.LASF61:
 4971 08a5 55534152 		.ascii	"USART1_IRQn\000"
 4971      54315F49 
 4971      52516E00 
 4972              	.LASF136:
 4973 08b1 42444352 		.ascii	"BDCR\000"
 4973      00
 4974              	.LASF206:
 4975 08b6 5F706F72 		.ascii	"_port_irq_epilogue\000"
 4975      745F6972 
 4975      715F6570 
 4975      696C6F67 
 4975      756500
 4976              	.LASF4:
 4977 08c9 75696E74 		.ascii	"uint8_t\000"
 4977      385F7400 
 4978              	.LASF147:
 4979 08d1 50574D44 		.ascii	"PWMDriver\000"
 4979      72697665 
 4979      7200
 4980              	.LASF102:
 4981 08db 44434D49 		.ascii	"DCMI_IRQn\000"
 4981      5F495251 
 4981      6E00
 4982              	.LASF146:
 4983 08e5 70776D73 		.ascii	"pwmstate_t\000"
 4983      74617465 
 4983      5F7400
 4984              	.LASF166:
ARM GAS  /var/folders/ng/s8655sgx1ys_4lf9jzm2w6n00000gn/T//ccT3xYAZ.s 			page 97


 4985 08f0 70776D63 		.ascii	"pwmcnt_t\000"
 4985      6E745F74 
 4985      00
 4986              	.LASF106:
 4987 08f9 55415254 		.ascii	"UART7_IRQn\000"
 4987      375F4952 
 4987      516E00
 4988              	.LASF122:
 4989 0904 41484231 		.ascii	"AHB1ENR\000"
 4989      454E5200 
 4990              	.LASF154:
 4991 090c 44494552 		.ascii	"DIER\000"
 4991      00
 4992              	.LASF175:
 4993 0911 56656374 		.ascii	"VectorA4\000"
 4993      6F724134 
 4993      00
 4994              	.LASF105:
 4995 091a 4650555F 		.ascii	"FPU_IRQn\000"
 4995      4952516E 
 4995      00
 4996              	.LASF114:
 4997 0923 43464752 		.ascii	"CFGR\000"
 4997      00
 4998              	.LASF191:
 4999 0928 70776D5F 		.ascii	"pwm_lld_disable_channel\000"
 4999      6C6C645F 
 4999      64697361 
 4999      626C655F 
 4999      6368616E 
 5000              	.LASF151:
 5001 0940 636C6F63 		.ascii	"clock\000"
 5001      6B00
 5002              	.LASF56:
 5003 0946 49324331 		.ascii	"I2C1_ER_IRQn\000"
 5003      5F45525F 
 5003      4952516E 
 5003      00
 5004              	.LASF183:
 5005 0953 70776D5F 		.ascii	"pwm_lld_init\000"
 5005      6C6C645F 
 5005      696E6974 
 5005      00
 5006              	.LASF42:
 5007 0960 4144435F 		.ascii	"ADC_IRQn\000"
 5007      4952516E 
 5007      00
 5008              	.LASF81:
 5009 0969 444D4132 		.ascii	"DMA2_Stream1_IRQn\000"
 5009      5F537472 
 5009      65616D31 
 5009      5F495251 
 5009      6E00
 5010              	.LASF143:
 5011 097b 50574D5F 		.ascii	"PWM_UNINIT\000"
 5011      554E494E 
 5011      495400
ARM GAS  /var/folders/ng/s8655sgx1ys_4lf9jzm2w6n00000gn/T//ccT3xYAZ.s 			page 98


 5012              	.LASF182:
 5013 0986 56656374 		.ascii	"VectorA0\000"
 5013      6F724130 
 5013      00
 5014              	.LASF46:
 5015 098f 43414E31 		.ascii	"CAN1_SCE_IRQn\000"
 5015      5F534345 
 5015      5F495251 
 5015      6E00
 5016              	.LASF199:
 5017 099d 70776D4F 		.ascii	"pwmObjectInit\000"
 5017      626A6563 
 5017      74496E69 
 5017      7400
 5018              	.LASF90:
 5019 09ab 43414E32 		.ascii	"CAN2_SCE_IRQn\000"
 5019      5F534345 
 5019      5F495251 
 5019      6E00
 5020              	.LASF29:
 5021 09b9 5243435F 		.ascii	"RCC_IRQn\000"
 5021      4952516E 
 5021      00
 5022              	.LASF100:
 5023 09c2 4F54475F 		.ascii	"OTG_HS_WKUP_IRQn\000"
 5023      48535F57 
 5023      4B55505F 
 5023      4952516E 
 5023      00
 5024              	.LASF53:
 5025 09d3 54494D33 		.ascii	"TIM3_IRQn\000"
 5025      5F495251 
 5025      6E00
 5026              	.LASF31:
 5027 09dd 45585449 		.ascii	"EXTI1_IRQn\000"
 5027      315F4952 
 5027      516E00
 5028              	.LASF173:
 5029 09e8 64696572 		.ascii	"dier\000"
 5029      00
 5030              	.LASF35:
 5031 09ed 444D4131 		.ascii	"DMA1_Stream0_IRQn\000"
 5031      5F537472 
 5031      65616D30 
 5031      5F495251 
 5031      6E00
 5032              		.ident	"GCC: (GNU Tools for ARM Embedded Processors) 4.7.4 20130913 (release) [ARM/embedded-4_7-br
ARM GAS  /var/folders/ng/s8655sgx1ys_4lf9jzm2w6n00000gn/T//ccT3xYAZ.s 			page 99


DEFINED SYMBOLS
                            *ABS*:0000000000000000 pwm_lld.c
/var/folders/ng/s8655sgx1ys_4lf9jzm2w6n00000gn/T//ccT3xYAZ.s:20     .text.pwm_lld_serve_interrupt:0000000000000000 $t
/var/folders/ng/s8655sgx1ys_4lf9jzm2w6n00000gn/T//ccT3xYAZ.s:25     .text.pwm_lld_serve_interrupt:0000000000000000 pwm_lld_serve_interrupt
/var/folders/ng/s8655sgx1ys_4lf9jzm2w6n00000gn/T//ccT3xYAZ.s:127    .text.VectorA4:0000000000000000 $t
/var/folders/ng/s8655sgx1ys_4lf9jzm2w6n00000gn/T//ccT3xYAZ.s:133    .text.VectorA4:0000000000000000 VectorA4
/var/folders/ng/s8655sgx1ys_4lf9jzm2w6n00000gn/T//ccT3xYAZ.s:1391   .bss.PWMD1:0000000000000000 .LANCHOR0
/var/folders/ng/s8655sgx1ys_4lf9jzm2w6n00000gn/T//ccT3xYAZ.s:169    .text.VectorAC:0000000000000000 $t
/var/folders/ng/s8655sgx1ys_4lf9jzm2w6n00000gn/T//ccT3xYAZ.s:175    .text.VectorAC:0000000000000000 VectorAC
/var/folders/ng/s8655sgx1ys_4lf9jzm2w6n00000gn/T//ccT3xYAZ.s:264    .text.VectorAC:0000000000000068 $d
/var/folders/ng/s8655sgx1ys_4lf9jzm2w6n00000gn/T//ccT3xYAZ.s:269    .text.VectorB0:0000000000000000 $t
/var/folders/ng/s8655sgx1ys_4lf9jzm2w6n00000gn/T//ccT3xYAZ.s:275    .text.VectorB0:0000000000000000 VectorB0
/var/folders/ng/s8655sgx1ys_4lf9jzm2w6n00000gn/T//ccT3xYAZ.s:1398   .bss.PWMD2:0000000000000000 .LANCHOR1
/var/folders/ng/s8655sgx1ys_4lf9jzm2w6n00000gn/T//ccT3xYAZ.s:300    .text.VectorB4:0000000000000000 $t
/var/folders/ng/s8655sgx1ys_4lf9jzm2w6n00000gn/T//ccT3xYAZ.s:306    .text.VectorB4:0000000000000000 VectorB4
/var/folders/ng/s8655sgx1ys_4lf9jzm2w6n00000gn/T//ccT3xYAZ.s:1405   .bss.PWMD3:0000000000000000 .LANCHOR2
/var/folders/ng/s8655sgx1ys_4lf9jzm2w6n00000gn/T//ccT3xYAZ.s:331    .text.VectorB8:0000000000000000 $t
/var/folders/ng/s8655sgx1ys_4lf9jzm2w6n00000gn/T//ccT3xYAZ.s:337    .text.VectorB8:0000000000000000 VectorB8
/var/folders/ng/s8655sgx1ys_4lf9jzm2w6n00000gn/T//ccT3xYAZ.s:1412   .bss.PWMD4:0000000000000000 .LANCHOR3
/var/folders/ng/s8655sgx1ys_4lf9jzm2w6n00000gn/T//ccT3xYAZ.s:362    .text.VectorF0:0000000000000000 $t
/var/folders/ng/s8655sgx1ys_4lf9jzm2w6n00000gn/T//ccT3xYAZ.s:368    .text.VectorF0:0000000000000000 VectorF0
/var/folders/ng/s8655sgx1ys_4lf9jzm2w6n00000gn/T//ccT3xYAZ.s:1419   .bss.PWMD8:0000000000000000 .LANCHOR4
/var/folders/ng/s8655sgx1ys_4lf9jzm2w6n00000gn/T//ccT3xYAZ.s:404    .text.VectorF8:0000000000000000 $t
/var/folders/ng/s8655sgx1ys_4lf9jzm2w6n00000gn/T//ccT3xYAZ.s:410    .text.VectorF8:0000000000000000 VectorF8
/var/folders/ng/s8655sgx1ys_4lf9jzm2w6n00000gn/T//ccT3xYAZ.s:499    .text.VectorF8:0000000000000068 $d
/var/folders/ng/s8655sgx1ys_4lf9jzm2w6n00000gn/T//ccT3xYAZ.s:504    .text.VectorA0:0000000000000000 $t
/var/folders/ng/s8655sgx1ys_4lf9jzm2w6n00000gn/T//ccT3xYAZ.s:510    .text.VectorA0:0000000000000000 VectorA0
/var/folders/ng/s8655sgx1ys_4lf9jzm2w6n00000gn/T//ccT3xYAZ.s:1426   .bss.PWMD9:0000000000000000 .LANCHOR5
/var/folders/ng/s8655sgx1ys_4lf9jzm2w6n00000gn/T//ccT3xYAZ.s:535    .text.pwm_lld_init:0000000000000000 $t
/var/folders/ng/s8655sgx1ys_4lf9jzm2w6n00000gn/T//ccT3xYAZ.s:541    .text.pwm_lld_init:0000000000000000 pwm_lld_init
/var/folders/ng/s8655sgx1ys_4lf9jzm2w6n00000gn/T//ccT3xYAZ.s:639    .text.pwm_lld_start:0000000000000000 $t
/var/folders/ng/s8655sgx1ys_4lf9jzm2w6n00000gn/T//ccT3xYAZ.s:645    .text.pwm_lld_start:0000000000000000 pwm_lld_start
/var/folders/ng/s8655sgx1ys_4lf9jzm2w6n00000gn/T//ccT3xYAZ.s:1116   .text.pwm_lld_start:0000000000000280 $d
/var/folders/ng/s8655sgx1ys_4lf9jzm2w6n00000gn/T//ccT3xYAZ.s:1126   .text.pwm_lld_stop:0000000000000000 $t
/var/folders/ng/s8655sgx1ys_4lf9jzm2w6n00000gn/T//ccT3xYAZ.s:1132   .text.pwm_lld_stop:0000000000000000 pwm_lld_stop
/var/folders/ng/s8655sgx1ys_4lf9jzm2w6n00000gn/T//ccT3xYAZ.s:1278   .text.pwm_lld_stop:00000000000000d8 $d
/var/folders/ng/s8655sgx1ys_4lf9jzm2w6n00000gn/T//ccT3xYAZ.s:1288   .text.pwm_lld_enable_channel:0000000000000000 $t
/var/folders/ng/s8655sgx1ys_4lf9jzm2w6n00000gn/T//ccT3xYAZ.s:1294   .text.pwm_lld_enable_channel:0000000000000000 pwm_lld_enable_channel
/var/folders/ng/s8655sgx1ys_4lf9jzm2w6n00000gn/T//ccT3xYAZ.s:1351   .text.pwm_lld_disable_channel:0000000000000000 $t
/var/folders/ng/s8655sgx1ys_4lf9jzm2w6n00000gn/T//ccT3xYAZ.s:1357   .text.pwm_lld_disable_channel:0000000000000000 pwm_lld_disable_channel
/var/folders/ng/s8655sgx1ys_4lf9jzm2w6n00000gn/T//ccT3xYAZ.s:1429   .bss.PWMD9:0000000000000000 PWMD9
/var/folders/ng/s8655sgx1ys_4lf9jzm2w6n00000gn/T//ccT3xYAZ.s:1422   .bss.PWMD8:0000000000000000 PWMD8
/var/folders/ng/s8655sgx1ys_4lf9jzm2w6n00000gn/T//ccT3xYAZ.s:1415   .bss.PWMD4:0000000000000000 PWMD4
/var/folders/ng/s8655sgx1ys_4lf9jzm2w6n00000gn/T//ccT3xYAZ.s:1408   .bss.PWMD3:0000000000000000 PWMD3
/var/folders/ng/s8655sgx1ys_4lf9jzm2w6n00000gn/T//ccT3xYAZ.s:1401   .bss.PWMD2:0000000000000000 PWMD2
/var/folders/ng/s8655sgx1ys_4lf9jzm2w6n00000gn/T//ccT3xYAZ.s:1394   .bss.PWMD1:0000000000000000 PWMD1
/var/folders/ng/s8655sgx1ys_4lf9jzm2w6n00000gn/T//ccT3xYAZ.s:1390   .bss.PWMD1:0000000000000000 $d
/var/folders/ng/s8655sgx1ys_4lf9jzm2w6n00000gn/T//ccT3xYAZ.s:1397   .bss.PWMD2:0000000000000000 $d
/var/folders/ng/s8655sgx1ys_4lf9jzm2w6n00000gn/T//ccT3xYAZ.s:1404   .bss.PWMD3:0000000000000000 $d
/var/folders/ng/s8655sgx1ys_4lf9jzm2w6n00000gn/T//ccT3xYAZ.s:1411   .bss.PWMD4:0000000000000000 $d
/var/folders/ng/s8655sgx1ys_4lf9jzm2w6n00000gn/T//ccT3xYAZ.s:1418   .bss.PWMD8:0000000000000000 $d
/var/folders/ng/s8655sgx1ys_4lf9jzm2w6n00000gn/T//ccT3xYAZ.s:1425   .bss.PWMD9:0000000000000000 $d
                     .debug_frame:0000000000000010 $d
/var/folders/ng/s8655sgx1ys_4lf9jzm2w6n00000gn/T//ccT3xYAZ.s:268    .text.VectorAC:000000000000006c $t
/var/folders/ng/s8655sgx1ys_4lf9jzm2w6n00000gn/T//ccT3xYAZ.s:503    .text.VectorF8:000000000000006c $t
/var/folders/ng/s8655sgx1ys_4lf9jzm2w6n00000gn/T//ccT3xYAZ.s:1125   .text.pwm_lld_start:0000000000000298 $t

ARM GAS  /var/folders/ng/s8655sgx1ys_4lf9jzm2w6n00000gn/T//ccT3xYAZ.s 			page 100


UNDEFINED SYMBOLS
_port_irq_epilogue
pwmObjectInit
nvicEnableVector
nvicDisableVector
