ARM GAS  /var/folders/ng/s8655sgx1ys_4lf9jzm2w6n00000gn/T//ccT3xYAZ.s 			page 1


   1              		.syntax unified
   2              		.cpu cortex-m4
   3              		.eabi_attribute 27, 3
   4              		.fpu fpv4-sp-d16
   5              		.eabi_attribute 20, 1
   6              		.eabi_attribute 21, 1
   7              		.eabi_attribute 23, 3
   8              		.eabi_attribute 24, 1
   9              		.eabi_attribute 25, 1
  10              		.eabi_attribute 26, 1
  11              		.eabi_attribute 30, 2
  12              		.eabi_attribute 34, 1
  13              		.eabi_attribute 18, 4
  14              		.thumb
  15              		.file	"pwm_lld.c"
  16              		.text
  17              	.Ltext0:
  18              		.cfi_sections	.debug_frame
  19              		.section	.text.pwm_lld_serve_interrupt,"ax",%progbits
  20              		.align	2
  21              		.p2align 4,,15
  22              		.thumb
  23              		.thumb_func
  24              		.type	pwm_lld_serve_interrupt, %function
  25              	pwm_lld_serve_interrupt:
  26              	.LFB118:
  27              		.file 1 "../AithonLibrary/ChibiOS/os/hal/platforms/STM32/TIMv1/pwm_lld.c"
  28              		.loc 1 112 0
  29              		.cfi_startproc
  30              		@ args = 0, pretend = 0, frame = 0
  31              		@ frame_needed = 0, uses_anonymous_args = 0
  32              	.LVL0:
  33 0000 38B5     		push	{r3, r4, r5, lr}
  34              	.LCFI0:
  35              		.cfi_def_cfa_offset 16
  36              		.cfi_offset 3, -16
  37              		.cfi_offset 4, -12
  38              		.cfi_offset 5, -8
  39              		.cfi_offset 14, -4
  40              		.loc 1 115 0
  41 0002 0369     		ldr	r3, [r0, #16]
  42 0004 1A69     		ldr	r2, [r3, #16]
  43              	.LVL1:
  44              		.loc 1 116 0
  45 0006 DC68     		ldr	r4, [r3, #12]
  46 0008 1440     		ands	r4, r4, r2
  47 000a A4B2     		uxth	r4, r4
  48              	.LVL2:
  49              		.loc 1 117 0
  50 000c E1B2     		uxtb	r1, r4
  51              		.loc 1 118 0
  52 000e 04F00202 		and	r2, r4, #2
  53              		.loc 1 117 0
  54 0012 C943     		mvns	r1, r1
  55              		.loc 1 118 0
  56 0014 92B2     		uxth	r2, r2
  57              		.loc 1 112 0
ARM GAS  /var/folders/ng/s8655sgx1ys_4lf9jzm2w6n00000gn/T//ccT3xYAZ.s 			page 2


  58 0016 0546     		mov	r5, r0
  59              		.loc 1 117 0
  60 0018 1961     		str	r1, [r3, #16]
  61              		.loc 1 118 0
  62 001a 0ABB     		cbnz	r2, .L23
  63              	.LVL3:
  64              	.L2:
  65              		.loc 1 120 0
  66 001c 04F00400 		and	r0, r4, #4
  67 0020 82B2     		uxth	r2, r0
  68 0022 C2B9     		cbnz	r2, .L24
  69              	.L3:
  70              		.loc 1 122 0
  71 0024 04F00800 		and	r0, r4, #8
  72 0028 82B2     		uxth	r2, r0
  73 002a 7AB9     		cbnz	r2, .L25
  74              	.L4:
  75              		.loc 1 124 0
  76 002c 04F01000 		and	r0, r4, #16
  77 0030 82B2     		uxth	r2, r0
  78 0032 32B9     		cbnz	r2, .L26
  79              	.L5:
  80              		.loc 1 126 0
  81 0034 E307     		lsls	r3, r4, #31
  82 0036 03D5     		bpl	.L1
  83              		.loc 1 127 0
  84 0038 6A68     		ldr	r2, [r5, #4]
  85 003a 2846     		mov	r0, r5
  86 003c 9368     		ldr	r3, [r2, #8]
  87 003e 9847     		blx	r3
  88              	.LVL4:
  89              	.L1:
  90 0040 38BD     		pop	{r3, r4, r5, pc}
  91              	.L26:
  92              		.loc 1 125 0
  93 0042 6B68     		ldr	r3, [r5, #4]
  94 0044 2846     		mov	r0, r5
  95 0046 996A     		ldr	r1, [r3, #40]
  96 0048 8847     		blx	r1
  97              	.LVL5:
  98 004a F3E7     		b	.L5
  99              	.L25:
 100              		.loc 1 123 0
 101 004c 6B68     		ldr	r3, [r5, #4]
 102 004e 2846     		mov	r0, r5
 103 0050 196A     		ldr	r1, [r3, #32]
 104 0052 8847     		blx	r1
 105              	.LVL6:
 106 0054 EAE7     		b	.L4
 107              	.L24:
 108              		.loc 1 121 0
 109 0056 6B68     		ldr	r3, [r5, #4]
 110 0058 2846     		mov	r0, r5
 111 005a 9969     		ldr	r1, [r3, #24]
 112 005c 8847     		blx	r1
 113              	.LVL7:
 114 005e E1E7     		b	.L3
ARM GAS  /var/folders/ng/s8655sgx1ys_4lf9jzm2w6n00000gn/T//ccT3xYAZ.s 			page 3


 115              	.LVL8:
 116              	.L23:
 117              		.loc 1 119 0
 118 0060 4368     		ldr	r3, [r0, #4]
 119 0062 1969     		ldr	r1, [r3, #16]
 120 0064 8847     		blx	r1
 121              	.LVL9:
 122 0066 D9E7     		b	.L2
 123              		.cfi_endproc
 124              	.LFE118:
 125              		.size	pwm_lld_serve_interrupt, .-pwm_lld_serve_interrupt
 126 0068 AFF30080 		.section	.text.VectorA4,"ax",%progbits
 126      AFF30080 
 127              		.align	2
 128              		.p2align 4,,15
 129              		.global	VectorA4
 130              		.thumb
 131              		.thumb_func
 132              		.type	VectorA4, %function
 133              	VectorA4:
 134              	.LFB119:
 135              		.loc 1 147 0
 136              		.cfi_startproc
 137              		@ args = 0, pretend = 0, frame = 0
 138              		@ frame_needed = 0, uses_anonymous_args = 0
 139              		.loc 1 152 0
 140 0000 40F20000 		movw	r0, #:lower16:.LANCHOR0
 141 0004 C0F20000 		movt	r0, #:upper16:.LANCHOR0
 142              		.loc 1 147 0
 143 0008 08B5     		push	{r3, lr}
 144              	.LCFI1:
 145              		.cfi_def_cfa_offset 8
 146              		.cfi_offset 3, -8
 147              		.cfi_offset 14, -4
 148              		.loc 1 151 0
 149 000a 0023     		movs	r3, #0
 150              		.loc 1 152 0
 151 000c 4268     		ldr	r2, [r0, #4]
 152              		.loc 1 151 0
 153 000e C4F20103 		movt	r3, 16385
 154 0012 6FF00101 		mvn	r1, #1
 155 0016 1961     		str	r1, [r3, #16]
 156              		.loc 1 152 0
 157 0018 9368     		ldr	r3, [r2, #8]
 158 001a 9847     		blx	r3
 159              	.LVL10:
 160              		.loc 1 155 0
 161 001c BDE80840 		pop	{r3, lr}
 162              		.loc 1 154 0
 163 0020 FFF7FEBF 		b	_port_irq_epilogue
 164              	.LVL11:
 165              		.cfi_endproc
 166              	.LFE119:
 167              		.size	VectorA4, .-VectorA4
 168 0024 AFF30080 		.section	.text.VectorAC,"ax",%progbits
 168      AFF30080 
 168      AFF30080 
ARM GAS  /var/folders/ng/s8655sgx1ys_4lf9jzm2w6n00000gn/T//ccT3xYAZ.s 			page 4


 169              		.align	2
 170              		.p2align 4,,15
 171              		.global	VectorAC
 172              		.thumb
 173              		.thumb_func
 174              		.type	VectorAC, %function
 175              	VectorAC:
 176              	.LFB120:
 177              		.loc 1 168 0
 178              		.cfi_startproc
 179              		@ args = 0, pretend = 0, frame = 0
 180              		@ frame_needed = 0, uses_anonymous_args = 0
 181              		.loc 1 173 0
 182 0000 0023     		movs	r3, #0
 183 0002 C4F20103 		movt	r3, 16385
 184              		.loc 1 168 0
 185 0006 10B5     		push	{r4, lr}
 186              	.LCFI2:
 187              		.cfi_def_cfa_offset 8
 188              		.cfi_offset 4, -8
 189              		.cfi_offset 14, -4
 190              		.loc 1 173 0
 191 0008 1A69     		ldr	r2, [r3, #16]
 192 000a DC68     		ldr	r4, [r3, #12]
 193 000c 1440     		ands	r4, r4, r2
 194 000e A4B2     		uxth	r4, r4
 195              	.LVL12:
 196              		.loc 1 174 0
 197 0010 E1B2     		uxtb	r1, r4
 198              		.loc 1 175 0
 199 0012 04F00200 		and	r0, r4, #2
 200              		.loc 1 174 0
 201 0016 C943     		mvns	r1, r1
 202              		.loc 1 175 0
 203 0018 82B2     		uxth	r2, r0
 204              		.loc 1 174 0
 205 001a 1961     		str	r1, [r3, #16]
 206              		.loc 1 175 0
 207 001c 002A     		cmp	r2, #0
 208 001e 1DD1     		bne	.L45
 209              	.L29:
 210              		.loc 1 177 0
 211 0020 04F00400 		and	r0, r4, #4
 212 0024 82B2     		uxth	r2, r0
 213 0026 A2B9     		cbnz	r2, .L46
 214              	.L30:
 215              		.loc 1 179 0
 216 0028 04F00800 		and	r0, r4, #8
 217 002c 82B2     		uxth	r2, r0
 218 002e 5AB9     		cbnz	r2, .L47
 219              	.L31:
 220              		.loc 1 181 0
 221 0030 04F01004 		and	r4, r4, #16
 222              	.LVL13:
 223 0034 A4B2     		uxth	r4, r4
 224 0036 1CB1     		cbz	r4, .L32
 225              		.loc 1 182 0
ARM GAS  /var/folders/ng/s8655sgx1ys_4lf9jzm2w6n00000gn/T//ccT3xYAZ.s 			page 5


 226 0038 0B48     		ldr	r0, .L48
 227 003a 4268     		ldr	r2, [r0, #4]
 228 003c 936A     		ldr	r3, [r2, #40]
 229 003e 9847     		blx	r3
 230              	.LVL14:
 231              	.L32:
 232              		.loc 1 185 0
 233 0040 BDE81040 		pop	{r4, lr}
 234              		.loc 1 184 0
 235 0044 FFF7FEBF 		b	_port_irq_epilogue
 236              	.LVL15:
 237              	.L47:
 238              		.loc 1 180 0
 239 0048 0748     		ldr	r0, .L48
 240 004a 4368     		ldr	r3, [r0, #4]
 241 004c 196A     		ldr	r1, [r3, #32]
 242 004e 8847     		blx	r1
 243              	.LVL16:
 244 0050 EEE7     		b	.L31
 245              	.L46:
 246              		.loc 1 178 0
 247 0052 0548     		ldr	r0, .L48
 248 0054 4368     		ldr	r3, [r0, #4]
 249 0056 9969     		ldr	r1, [r3, #24]
 250 0058 8847     		blx	r1
 251              	.LVL17:
 252 005a E5E7     		b	.L30
 253              	.L45:
 254              		.loc 1 176 0
 255 005c 0248     		ldr	r0, .L48
 256 005e 4368     		ldr	r3, [r0, #4]
 257 0060 1969     		ldr	r1, [r3, #16]
 258 0062 8847     		blx	r1
 259              	.LVL18:
 260 0064 DCE7     		b	.L29
 261              	.L49:
 262 0066 00BF     		.align	2
 263              	.L48:
 264 0068 00000000 		.word	.LANCHOR0
 265              		.cfi_endproc
 266              	.LFE120:
 267              		.size	VectorAC, .-VectorAC
 268 006c AFF30080 		.section	.text.VectorB0,"ax",%progbits
 269              		.align	2
 270              		.p2align 4,,15
 271              		.global	VectorB0
 272              		.thumb
 273              		.thumb_func
 274              		.type	VectorB0, %function
 275              	VectorB0:
 276              	.LFB121:
 277              		.loc 1 197 0
 278              		.cfi_startproc
 279              		@ args = 0, pretend = 0, frame = 0
 280              		@ frame_needed = 0, uses_anonymous_args = 0
 281 0000 08B5     		push	{r3, lr}
 282              	.LCFI3:
ARM GAS  /var/folders/ng/s8655sgx1ys_4lf9jzm2w6n00000gn/T//ccT3xYAZ.s 			page 6


 283              		.cfi_def_cfa_offset 8
 284              		.cfi_offset 3, -8
 285              		.cfi_offset 14, -4
 286              		.loc 1 201 0
 287 0002 40F20000 		movw	r0, #:lower16:.LANCHOR1
 288 0006 C0F20000 		movt	r0, #:upper16:.LANCHOR1
 289 000a FFF7FEFF 		bl	pwm_lld_serve_interrupt
 290              	.LVL19:
 291              		.loc 1 204 0
 292 000e BDE80840 		pop	{r3, lr}
 293              		.loc 1 203 0
 294 0012 FFF7FEBF 		b	_port_irq_epilogue
 295              	.LVL20:
 296              		.cfi_endproc
 297              	.LFE121:
 298              		.size	VectorB0, .-VectorB0
 299 0016 00BFAFF3 		.section	.text.VectorB4,"ax",%progbits
 299      0080AFF3 
 299      0080
 300              		.align	2
 301              		.p2align 4,,15
 302              		.global	VectorB4
 303              		.thumb
 304              		.thumb_func
 305              		.type	VectorB4, %function
 306              	VectorB4:
 307              	.LFB122:
 308              		.loc 1 216 0
 309              		.cfi_startproc
 310              		@ args = 0, pretend = 0, frame = 0
 311              		@ frame_needed = 0, uses_anonymous_args = 0
 312 0000 08B5     		push	{r3, lr}
 313              	.LCFI4:
 314              		.cfi_def_cfa_offset 8
 315              		.cfi_offset 3, -8
 316              		.cfi_offset 14, -4
 317              		.loc 1 220 0
 318 0002 40F20000 		movw	r0, #:lower16:.LANCHOR2
 319 0006 C0F20000 		movt	r0, #:upper16:.LANCHOR2
 320 000a FFF7FEFF 		bl	pwm_lld_serve_interrupt
 321              	.LVL21:
 322              		.loc 1 223 0
 323 000e BDE80840 		pop	{r3, lr}
 324              		.loc 1 222 0
 325 0012 FFF7FEBF 		b	_port_irq_epilogue
 326              	.LVL22:
 327              		.cfi_endproc
 328              	.LFE122:
 329              		.size	VectorB4, .-VectorB4
 330 0016 00BFAFF3 		.section	.text.VectorB8,"ax",%progbits
 330      0080AFF3 
 330      0080
 331              		.align	2
 332              		.p2align 4,,15
 333              		.global	VectorB8
 334              		.thumb
 335              		.thumb_func
ARM GAS  /var/folders/ng/s8655sgx1ys_4lf9jzm2w6n00000gn/T//ccT3xYAZ.s 			page 7


 336              		.type	VectorB8, %function
 337              	VectorB8:
 338              	.LFB123:
 339              		.loc 1 235 0
 340              		.cfi_startproc
 341              		@ args = 0, pretend = 0, frame = 0
 342              		@ frame_needed = 0, uses_anonymous_args = 0
 343 0000 08B5     		push	{r3, lr}
 344              	.LCFI5:
 345              		.cfi_def_cfa_offset 8
 346              		.cfi_offset 3, -8
 347              		.cfi_offset 14, -4
 348              		.loc 1 239 0
 349 0002 40F20000 		movw	r0, #:lower16:.LANCHOR3
 350 0006 C0F20000 		movt	r0, #:upper16:.LANCHOR3
 351 000a FFF7FEFF 		bl	pwm_lld_serve_interrupt
 352              	.LVL23:
 353              		.loc 1 242 0
 354 000e BDE80840 		pop	{r3, lr}
 355              		.loc 1 241 0
 356 0012 FFF7FEBF 		b	_port_irq_epilogue
 357              	.LVL24:
 358              		.cfi_endproc
 359              	.LFE123:
 360              		.size	VectorB8, .-VectorB8
 361 0016 00BFAFF3 		.section	.text.VectorF0,"ax",%progbits
 361      0080AFF3 
 361      0080
 362              		.align	2
 363              		.p2align 4,,15
 364              		.global	VectorF0
 365              		.thumb
 366              		.thumb_func
 367              		.type	VectorF0, %function
 368              	VectorF0:
 369              	.LFB124:
 370              		.loc 1 276 0
 371              		.cfi_startproc
 372              		@ args = 0, pretend = 0, frame = 0
 373              		@ frame_needed = 0, uses_anonymous_args = 0
 374              		.loc 1 281 0
 375 0000 40F20000 		movw	r0, #:lower16:.LANCHOR4
 376 0004 C0F20000 		movt	r0, #:upper16:.LANCHOR4
 377              		.loc 1 276 0
 378 0008 08B5     		push	{r3, lr}
 379              	.LCFI6:
 380              		.cfi_def_cfa_offset 8
 381              		.cfi_offset 3, -8
 382              		.cfi_offset 14, -4
 383              		.loc 1 280 0
 384 000a 4FF48063 		mov	r3, #1024
 385              		.loc 1 281 0
 386 000e 4268     		ldr	r2, [r0, #4]
 387              		.loc 1 280 0
 388 0010 C4F20103 		movt	r3, 16385
 389 0014 6FF00101 		mvn	r1, #1
 390 0018 1961     		str	r1, [r3, #16]
ARM GAS  /var/folders/ng/s8655sgx1ys_4lf9jzm2w6n00000gn/T//ccT3xYAZ.s 			page 8


 391              		.loc 1 281 0
 392 001a 9368     		ldr	r3, [r2, #8]
 393 001c 9847     		blx	r3
 394              	.LVL25:
 395              		.loc 1 284 0
 396 001e BDE80840 		pop	{r3, lr}
 397              		.loc 1 283 0
 398 0022 FFF7FEBF 		b	_port_irq_epilogue
 399              	.LVL26:
 400              		.cfi_endproc
 401              	.LFE124:
 402              		.size	VectorF0, .-VectorF0
 403 0026 00BFAFF3 		.section	.text.VectorF8,"ax",%progbits
 403      0080AFF3 
 403      0080
 404              		.align	2
 405              		.p2align 4,,15
 406              		.global	VectorF8
 407              		.thumb
 408              		.thumb_func
 409              		.type	VectorF8, %function
 410              	VectorF8:
 411              	.LFB125:
 412              		.loc 1 297 0
 413              		.cfi_startproc
 414              		@ args = 0, pretend = 0, frame = 0
 415              		@ frame_needed = 0, uses_anonymous_args = 0
 416              		.loc 1 302 0
 417 0000 4FF48063 		mov	r3, #1024
 418 0004 C4F20103 		movt	r3, 16385
 419              		.loc 1 297 0
 420 0008 10B5     		push	{r4, lr}
 421              	.LCFI7:
 422              		.cfi_def_cfa_offset 8
 423              		.cfi_offset 4, -8
 424              		.cfi_offset 14, -4
 425              		.loc 1 302 0
 426 000a 1A69     		ldr	r2, [r3, #16]
 427 000c DC68     		ldr	r4, [r3, #12]
 428 000e 1440     		ands	r4, r4, r2
 429 0010 A4B2     		uxth	r4, r4
 430              	.LVL27:
 431              		.loc 1 303 0
 432 0012 E1B2     		uxtb	r1, r4
 433              		.loc 1 304 0
 434 0014 04F00200 		and	r0, r4, #2
 435              		.loc 1 303 0
 436 0018 C943     		mvns	r1, r1
 437              		.loc 1 304 0
 438 001a 82B2     		uxth	r2, r0
 439              		.loc 1 303 0
 440 001c 1961     		str	r1, [r3, #16]
 441              		.loc 1 304 0
 442 001e 002A     		cmp	r2, #0
 443 0020 1DD1     		bne	.L71
 444              	.L55:
 445              		.loc 1 306 0
ARM GAS  /var/folders/ng/s8655sgx1ys_4lf9jzm2w6n00000gn/T//ccT3xYAZ.s 			page 9


 446 0022 04F00400 		and	r0, r4, #4
 447 0026 82B2     		uxth	r2, r0
 448 0028 A2B9     		cbnz	r2, .L72
 449              	.L56:
 450              		.loc 1 308 0
 451 002a 04F00800 		and	r0, r4, #8
 452 002e 82B2     		uxth	r2, r0
 453 0030 5AB9     		cbnz	r2, .L73
 454              	.L57:
 455              		.loc 1 310 0
 456 0032 04F01004 		and	r4, r4, #16
 457              	.LVL28:
 458 0036 A4B2     		uxth	r4, r4
 459 0038 1CB1     		cbz	r4, .L58
 460              		.loc 1 311 0
 461 003a 0B48     		ldr	r0, .L74
 462 003c 4268     		ldr	r2, [r0, #4]
 463 003e 936A     		ldr	r3, [r2, #40]
 464 0040 9847     		blx	r3
 465              	.LVL29:
 466              	.L58:
 467              		.loc 1 314 0
 468 0042 BDE81040 		pop	{r4, lr}
 469              		.loc 1 313 0
 470 0046 FFF7FEBF 		b	_port_irq_epilogue
 471              	.LVL30:
 472              	.L73:
 473              		.loc 1 309 0
 474 004a 0748     		ldr	r0, .L74
 475 004c 4368     		ldr	r3, [r0, #4]
 476 004e 196A     		ldr	r1, [r3, #32]
 477 0050 8847     		blx	r1
 478              	.LVL31:
 479 0052 EEE7     		b	.L57
 480              	.L72:
 481              		.loc 1 307 0
 482 0054 0448     		ldr	r0, .L74
 483 0056 4368     		ldr	r3, [r0, #4]
 484 0058 9969     		ldr	r1, [r3, #24]
 485 005a 8847     		blx	r1
 486              	.LVL32:
 487 005c E5E7     		b	.L56
 488              	.L71:
 489              		.loc 1 305 0
 490 005e 0248     		ldr	r0, .L74
 491 0060 4368     		ldr	r3, [r0, #4]
 492 0062 1969     		ldr	r1, [r3, #16]
 493 0064 8847     		blx	r1
 494              	.LVL33:
 495 0066 DCE7     		b	.L55
 496              	.L75:
 497              		.align	2
 498              	.L74:
 499 0068 00000000 		.word	.LANCHOR4
 500              		.cfi_endproc
 501              	.LFE125:
 502              		.size	VectorF8, .-VectorF8
ARM GAS  /var/folders/ng/s8655sgx1ys_4lf9jzm2w6n00000gn/T//ccT3xYAZ.s 			page 10


 503 006c AFF30080 		.section	.text.VectorA0,"ax",%progbits
 504              		.align	2
 505              		.p2align 4,,15
 506              		.global	VectorA0
 507              		.thumb
 508              		.thumb_func
 509              		.type	VectorA0, %function
 510              	VectorA0:
 511              	.LFB126:
 512              		.loc 1 326 0
 513              		.cfi_startproc
 514              		@ args = 0, pretend = 0, frame = 0
 515              		@ frame_needed = 0, uses_anonymous_args = 0
 516 0000 08B5     		push	{r3, lr}
 517              	.LCFI8:
 518              		.cfi_def_cfa_offset 8
 519              		.cfi_offset 3, -8
 520              		.cfi_offset 14, -4
 521              		.loc 1 330 0
 522 0002 40F20000 		movw	r0, #:lower16:.LANCHOR5
 523 0006 C0F20000 		movt	r0, #:upper16:.LANCHOR5
 524 000a FFF7FEFF 		bl	pwm_lld_serve_interrupt
 525              	.LVL34:
 526              		.loc 1 333 0
 527 000e BDE80840 		pop	{r3, lr}
 528              		.loc 1 332 0
 529 0012 FFF7FEBF 		b	_port_irq_epilogue
 530              	.LVL35:
 531              		.cfi_endproc
 532              	.LFE126:
 533              		.size	VectorA0, .-VectorA0
 534 0016 00BFAFF3 		.section	.text.pwm_lld_init,"ax",%progbits
 534      0080AFF3 
 534      0080
 535              		.align	2
 536              		.p2align 4,,15
 537              		.global	pwm_lld_init
 538              		.thumb
 539              		.thumb_func
 540              		.type	pwm_lld_init, %function
 541              	pwm_lld_init:
 542              	.LFB127:
 543              		.loc 1 345 0
 544              		.cfi_startproc
 545              		@ args = 0, pretend = 0, frame = 0
 546              		@ frame_needed = 0, uses_anonymous_args = 0
 547 0000 70B5     		push	{r4, r5, r6, lr}
 548              	.LCFI9:
 549              		.cfi_def_cfa_offset 16
 550              		.cfi_offset 4, -16
 551              		.cfi_offset 5, -12
 552              		.cfi_offset 6, -8
 553              		.cfi_offset 14, -4
 554              		.loc 1 349 0
 555 0002 40F20004 		movw	r4, #:lower16:.LANCHOR0
 556 0006 C0F20004 		movt	r4, #:upper16:.LANCHOR0
 557 000a 2046     		mov	r0, r4
ARM GAS  /var/folders/ng/s8655sgx1ys_4lf9jzm2w6n00000gn/T//ccT3xYAZ.s 			page 11


 558              		.loc 1 355 0
 559 000c 40F20006 		movw	r6, #:lower16:.LANCHOR1
 560              		.loc 1 349 0
 561 0010 FFF7FEFF 		bl	pwmObjectInit
 562              	.LVL36:
 563              		.loc 1 355 0
 564 0014 C0F20006 		movt	r6, #:upper16:.LANCHOR1
 565              		.loc 1 350 0
 566 0018 0023     		movs	r3, #0
 567              		.loc 1 361 0
 568 001a 40F20005 		movw	r5, #:lower16:.LANCHOR2
 569              		.loc 1 350 0
 570 001e C4F20103 		movt	r3, 16385
 571              		.loc 1 355 0
 572 0022 3046     		mov	r0, r6
 573              		.loc 1 361 0
 574 0024 C0F20005 		movt	r5, #:upper16:.LANCHOR2
 575              		.loc 1 350 0
 576 0028 2361     		str	r3, [r4, #16]
 577              		.loc 1 355 0
 578 002a FFF7FEFF 		bl	pwmObjectInit
 579              	.LVL37:
 580              		.loc 1 367 0
 581 002e 40F20004 		movw	r4, #:lower16:.LANCHOR3
 582              		.loc 1 356 0
 583 0032 4FF08041 		mov	r1, #1073741824
 584              		.loc 1 361 0
 585 0036 2846     		mov	r0, r5
 586              		.loc 1 356 0
 587 0038 3161     		str	r1, [r6, #16]
 588              		.loc 1 367 0
 589 003a C0F20004 		movt	r4, #:upper16:.LANCHOR3
 590              		.loc 1 361 0
 591 003e FFF7FEFF 		bl	pwmObjectInit
 592              	.LVL38:
 593              		.loc 1 362 0
 594 0042 4FF48062 		mov	r2, #1024
 595 0046 C4F20002 		movt	r2, 16384
 596              		.loc 1 367 0
 597 004a 2046     		mov	r0, r4
 598              		.loc 1 379 0
 599 004c 40F20006 		movw	r6, #:lower16:.LANCHOR4
 600              		.loc 1 362 0
 601 0050 2A61     		str	r2, [r5, #16]
 602              		.loc 1 379 0
 603 0052 C0F20006 		movt	r6, #:upper16:.LANCHOR4
 604              		.loc 1 367 0
 605 0056 FFF7FEFF 		bl	pwmObjectInit
 606              	.LVL39:
 607              		.loc 1 368 0
 608 005a 4FF40063 		mov	r3, #2048
 609 005e C4F20003 		movt	r3, 16384
 610              		.loc 1 379 0
 611 0062 3046     		mov	r0, r6
 612              		.loc 1 385 0
 613 0064 40F20005 		movw	r5, #:lower16:.LANCHOR5
 614 0068 C0F20005 		movt	r5, #:upper16:.LANCHOR5
ARM GAS  /var/folders/ng/s8655sgx1ys_4lf9jzm2w6n00000gn/T//ccT3xYAZ.s 			page 12


 615              		.loc 1 368 0
 616 006c 2361     		str	r3, [r4, #16]
 617              		.loc 1 379 0
 618 006e FFF7FEFF 		bl	pwmObjectInit
 619              	.LVL40:
 620              		.loc 1 380 0
 621 0072 4FF48061 		mov	r1, #1024
 622 0076 C4F20101 		movt	r1, 16385
 623              		.loc 1 385 0
 624 007a 2846     		mov	r0, r5
 625              		.loc 1 380 0
 626 007c 3161     		str	r1, [r6, #16]
 627              		.loc 1 385 0
 628 007e FFF7FEFF 		bl	pwmObjectInit
 629              	.LVL41:
 630              		.loc 1 386 0
 631 0082 4FF48040 		mov	r0, #16384
 632 0086 C4F20100 		movt	r0, 16385
 633 008a 2861     		str	r0, [r5, #16]
 634 008c 70BD     		pop	{r4, r5, r6, pc}
 635              		.cfi_endproc
 636              	.LFE127:
 637              		.size	pwm_lld_init, .-pwm_lld_init
 638 008e 00BF     		.section	.text.pwm_lld_start,"ax",%progbits
 639              		.align	2
 640              		.p2align 4,,15
 641              		.global	pwm_lld_start
 642              		.thumb
 643              		.thumb_func
 644              		.type	pwm_lld_start, %function
 645              	pwm_lld_start:
 646              	.LFB128:
 647              		.loc 1 399 0
 648              		.cfi_startproc
 649              		@ args = 0, pretend = 0, frame = 0
 650              		@ frame_needed = 0, uses_anonymous_args = 0
 651              	.LVL42:
 652              		.loc 1 403 0
 653 0000 0378     		ldrb	r3, [r0, #0]	@ zero_extendqisi2
 654 0002 012B     		cmp	r3, #1
 655              		.loc 1 399 0
 656 0004 2DE9F041 		push	{r4, r5, r6, r7, r8, lr}
 657              	.LCFI10:
 658              		.cfi_def_cfa_offset 24
 659              		.cfi_offset 4, -24
 660              		.cfi_offset 5, -20
 661              		.cfi_offset 6, -16
 662              		.cfi_offset 7, -12
 663              		.cfi_offset 8, -8
 664              		.cfi_offset 14, -4
 665              		.loc 1 399 0
 666 0008 0446     		mov	r4, r0
 667              		.loc 1 403 0
 668 000a 00F08D80 		beq	.L131
 669              		.loc 1 492 0
 670 000e 4168     		ldr	r1, [r0, #4]
 671              		.loc 1 491 0
ARM GAS  /var/folders/ng/s8655sgx1ys_4lf9jzm2w6n00000gn/T//ccT3xYAZ.s 			page 13


 672 0010 0369     		ldr	r3, [r0, #16]
 673              		.loc 1 492 0
 674 0012 486B     		ldr	r0, [r1, #52]
 675              	.LVL43:
 676 0014 9A4E     		ldr	r6, .L148
 677              		.loc 1 491 0
 678 0016 0022     		movs	r2, #0
 679              		.loc 1 492 0
 680 0018 20F0FF05 		bic	r5, r0, #255
 681              		.loc 1 491 0
 682 001c 1A60     		str	r2, [r3, #0]
 683              		.loc 1 492 0
 684 001e DD60     		str	r5, [r3, #12]
 685              		.loc 1 494 0
 686 0020 1A61     		str	r2, [r3, #16]
 687              		.loc 1 495 0
 688 0022 5A63     		str	r2, [r3, #52]
 689              		.loc 1 496 0
 690 0024 9A63     		str	r2, [r3, #56]
 691              		.loc 1 497 0
 692 0026 DA63     		str	r2, [r3, #60]
 693              		.loc 1 498 0
 694 0028 1A64     		str	r2, [r3, #64]
 695              		.loc 1 499 0
 696 002a 5A62     		str	r2, [r3, #36]
 697              	.L87:
 698              	.LVL44:
 699              		.loc 1 503 0
 700 002c E068     		ldr	r0, [r4, #12]
 701 002e 0A68     		ldr	r2, [r1, #0]
 702              		.loc 1 508 0
 703 0030 B4F80880 		ldrh	r8, [r4, #8]
 704              		.loc 1 513 0
 705 0034 CD68     		ldr	r5, [r1, #12]
 706              		.loc 1 503 0
 707 0036 B0FBF2FC 		udiv	ip, r0, r2
 708 003a 0CF1FF30 		add	r0, ip, #-1
 709              	.LVL45:
 710              		.loc 1 507 0
 711 003e 80B2     		uxth	r0, r0
 712              	.LVL46:
 713 0040 9862     		str	r0, [r3, #40]
 714              		.loc 1 508 0
 715 0042 08F1FF37 		add	r7, r8, #-1
 716              		.loc 1 513 0
 717 0046 05F00F02 		and	r2, r5, #15
 718              		.loc 1 509 0
 719 004a C86A     		ldr	r0, [r1, #44]
 720              		.loc 1 508 0
 721 004c BFB2     		uxth	r7, r7
 722              		.loc 1 513 0
 723 004e 012A     		cmp	r2, #1
 724              		.loc 1 508 0
 725 0050 DF62     		str	r7, [r3, #44]
 726              		.loc 1 509 0
 727 0052 5860     		str	r0, [r3, #4]
 728              	.LVL47:
ARM GAS  /var/folders/ng/s8655sgx1ys_4lf9jzm2w6n00000gn/T//ccT3xYAZ.s 			page 14


 729              		.loc 1 513 0
 730 0054 03D0     		beq	.L88
 731              		.loc 1 512 0
 732 0056 022A     		cmp	r2, #2
 733 0058 0CBF     		ite	eq
 734 005a 0322     		moveq	r2, #3
 735 005c 0022     		movne	r2, #0
 736              	.L88:
 737              	.LVL48:
 738              		.loc 1 521 0
 739 005e D1F814C0 		ldr	ip, [r1, #20]
 740 0062 0CF00F07 		and	r7, ip, #15
 741 0066 012F     		cmp	r7, #1
 742 0068 2BD0     		beq	.L92
 743 006a 022F     		cmp	r7, #2
 744 006c 27D0     		beq	.L132
 745              		.loc 1 529 0
 746 006e CF69     		ldr	r7, [r1, #28]
 747 0070 07F00F00 		and	r0, r7, #15
 748 0074 0128     		cmp	r0, #1
 749 0076 2BD0     		beq	.L95
 750              	.LVL49:
 751              	.L135:
 752 0078 0228     		cmp	r0, #2
 753 007a 50D0     		beq	.L133
 754              	.LVL50:
 755              		.loc 1 537 0
 756 007c 486A     		ldr	r0, [r1, #36]
 757 007e 00F00F00 		and	r0, r0, #15
 758 0082 0128     		cmp	r0, #1
 759 0084 2BD0     		beq	.L98
 760              	.LVL51:
 761              	.L136:
 762 0086 0228     		cmp	r0, #2
 763 0088 44D0     		beq	.L134
 764              	.LVL52:
 765              		.loc 1 553 0
 766 008a B442     		cmp	r4, r6
 767 008c 2BD0     		beq	.L100
 768              	.LVL53:
 769              	.L137:
 770              		.loc 1 553 0 is_stmt 0 discriminator 1
 771 008e 7D48     		ldr	r0, .L148+4
 772 0090 8442     		cmp	r4, r0
 773 0092 28D0     		beq	.L100
 774              	.LVL54:
 775              	.L101:
 776              		.loc 1 583 0 is_stmt 1
 777 0094 0120     		movs	r0, #1
 778              		.loc 1 582 0
 779 0096 1A62     		str	r2, [r3, #32]
 780              		.loc 1 583 0
 781 0098 5861     		str	r0, [r3, #20]
 782              		.loc 1 584 0
 783 009a D868     		ldr	r0, [r3, #12]
 784 009c 8C68     		ldr	r4, [r1, #8]
 785              		.loc 1 588 0
ARM GAS  /var/folders/ng/s8655sgx1ys_4lf9jzm2w6n00000gn/T//ccT3xYAZ.s 			page 15


 786 009e 0A6B     		ldr	r2, [r1, #48]
 787              	.LVL55:
 788              		.loc 1 584 0
 789 00a0 002C     		cmp	r4, #0
 790 00a2 0CBF     		ite	eq
 791 00a4 0146     		moveq	r1, r0
 792 00a6 40F00101 		orrne	r1, r0, #1
 793              	.LVL56:
 794 00aa D960     		str	r1, [r3, #12]
 795              		.loc 1 588 0
 796 00ac 42F40040 		orr	r0, r2, #32768
 797              		.loc 1 594 0
 798 00b0 8521     		movs	r1, #133
 799              		.loc 1 585 0
 800 00b2 0022     		movs	r2, #0
 801 00b4 1A61     		str	r2, [r3, #16]
 802              		.loc 1 588 0
 803 00b6 5864     		str	r0, [r3, #68]
 804              		.loc 1 594 0
 805 00b8 1960     		str	r1, [r3, #0]
 806 00ba BDE8F081 		pop	{r4, r5, r6, r7, r8, pc}
 807              	.LVL57:
 808              	.L132:
 809              		.loc 1 523 0
 810 00be 42F02002 		orr	r2, r2, #32
 811              	.LVL58:
 812              	.L92:
 813              		.loc 1 529 0
 814 00c2 CF69     		ldr	r7, [r1, #28]
 815 00c4 07F00F00 		and	r0, r7, #15
 816 00c8 0128     		cmp	r0, #1
 817              		.loc 1 525 0
 818 00ca 42F01002 		orr	r2, r2, #16
 819              	.LVL59:
 820              		.loc 1 529 0
 821 00ce D3D1     		bne	.L135
 822              	.LVL60:
 823              	.L95:
 824              		.loc 1 533 0
 825 00d0 42F48072 		orr	r2, r2, #256
 826              	.LVL61:
 827              	.L141:
 828              		.loc 1 537 0
 829 00d4 486A     		ldr	r0, [r1, #36]
 830 00d6 00F00F00 		and	r0, r0, #15
 831 00da 0128     		cmp	r0, #1
 832 00dc D3D1     		bne	.L136
 833              	.LVL62:
 834              	.L98:
 835              		.loc 1 541 0
 836 00de 42F48052 		orr	r2, r2, #4096
 837              	.LVL63:
 838              	.L140:
 839              		.loc 1 553 0
 840 00e2 B442     		cmp	r4, r6
 841 00e4 D3D1     		bne	.L137
 842              	.LVL64:
ARM GAS  /var/folders/ng/s8655sgx1ys_4lf9jzm2w6n00000gn/T//ccT3xYAZ.s 			page 16


 843              	.L100:
 844              		.loc 1 555 0
 845 00e6 05F0F005 		and	r5, r5, #240
 846 00ea 102D     		cmp	r5, #16
 847 00ec 38D0     		beq	.L103
 848 00ee 202D     		cmp	r5, #32
 849 00f0 34D0     		beq	.L138
 850              	.L102:
 851              	.LVL65:
 852              		.loc 1 563 0
 853 00f2 0CF0F004 		and	r4, ip, #240
 854              	.LVL66:
 855 00f6 102C     		cmp	r4, #16
 856 00f8 37D0     		beq	.L106
 857 00fa 202C     		cmp	r4, #32
 858 00fc 33D0     		beq	.L139
 859              	.LVL67:
 860              	.L105:
 861              		.loc 1 571 0
 862 00fe 07F0F007 		and	r7, r7, #240
 863 0102 102F     		cmp	r7, #16
 864 0104 03D0     		beq	.L108
 865 0106 202F     		cmp	r7, #32
 866 0108 C4D1     		bne	.L101
 867              		.loc 1 573 0
 868 010a 42F40062 		orr	r2, r2, #2048
 869              	.LVL68:
 870              	.L108:
 871              		.loc 1 575 0
 872 010e 42F48062 		orr	r2, r2, #1024
 873              	.LVL69:
 874 0112 BFE7     		b	.L101
 875              	.LVL70:
 876              	.L134:
 877              		.loc 1 539 0
 878 0114 42F40052 		orr	r2, r2, #8192
 879              	.LVL71:
 880              		.loc 1 541 0
 881 0118 42F48052 		orr	r2, r2, #4096
 882              	.LVL72:
 883 011c E1E7     		b	.L140
 884              	.LVL73:
 885              	.L133:
 886              		.loc 1 531 0
 887 011e 42F40072 		orr	r2, r2, #512
 888              	.LVL74:
 889              		.loc 1 533 0
 890 0122 42F48072 		orr	r2, r2, #256
 891              	.LVL75:
 892 0126 D5E7     		b	.L141
 893              	.LVL76:
 894              	.L131:
 895              		.loc 1 406 0
 896 0128 554E     		ldr	r6, .L148
 897 012a B042     		cmp	r0, r6
 898 012c 3CD0     		beq	.L142
 899              		.loc 1 421 0
ARM GAS  /var/folders/ng/s8655sgx1ys_4lf9jzm2w6n00000gn/T//ccT3xYAZ.s 			page 17


 900 012e 564F     		ldr	r7, .L148+8
 901 0130 B842     		cmp	r0, r7
 902 0132 55D0     		beq	.L143
 903              		.loc 1 430 0
 904 0134 5549     		ldr	r1, .L148+12
 905 0136 8842     		cmp	r0, r1
 906 0138 6AD0     		beq	.L144
 907              		.loc 1 439 0
 908 013a 554B     		ldr	r3, .L148+16
 909 013c 9842     		cmp	r0, r3
 910 013e 7FD0     		beq	.L145
 911              		.loc 1 458 0
 912 0140 5048     		ldr	r0, .L148+4
 913              	.LVL77:
 914 0142 8442     		cmp	r4, r0
 915 0144 14D0     		beq	.L146
 916              	.L86:
 917              		.loc 1 473 0
 918 0146 5348     		ldr	r0, .L148+20
 919 0148 8442     		cmp	r4, r0
 920 014a 00F08980 		beq	.L147
 921              	.L84:
 922              		.loc 1 484 0
 923 014e 2369     		ldr	r3, [r4, #16]
 924 0150 6168     		ldr	r1, [r4, #4]
 925 0152 46F66807 		movw	r7, #26728
 926 0156 9F61     		str	r7, [r3, #24]
 927              		.loc 1 486 0
 928 0158 DF61     		str	r7, [r3, #28]
 929 015a 67E7     		b	.L87
 930              	.LVL78:
 931              	.L138:
 932              		.loc 1 557 0
 933 015c 42F00802 		orr	r2, r2, #8
 934              	.LVL79:
 935              	.L103:
 936              		.loc 1 559 0
 937 0160 42F00402 		orr	r2, r2, #4
 938              	.LVL80:
 939 0164 C5E7     		b	.L102
 940              	.LVL81:
 941              	.L139:
 942              		.loc 1 565 0
 943 0166 42F08002 		orr	r2, r2, #128
 944              	.LVL82:
 945              	.L106:
 946              		.loc 1 567 0
 947 016a 42F04002 		orr	r2, r2, #64
 948              	.LVL83:
 949 016e C6E7     		b	.L105
 950              	.LVL84:
 951              	.L146:
 952              		.loc 1 459 0
 953 0170 4FF46055 		mov	r5, #14336
 954 0174 C4F20205 		movt	r5, 16386
 955              		.loc 1 461 0
 956 0178 2C20     		movs	r0, #44
ARM GAS  /var/folders/ng/s8655sgx1ys_4lf9jzm2w6n00000gn/T//ccT3xYAZ.s 			page 18


 957              		.loc 1 459 0
 958 017a 6A6C     		ldr	r2, [r5, #68]
 959 017c 42F00207 		orr	r7, r2, #2
 960 0180 6F64     		str	r7, [r5, #68]
 961              		.loc 1 460 0
 962 0182 696A     		ldr	r1, [r5, #36]
 963 0184 0022     		movs	r2, #0
 964 0186 41F00203 		orr	r3, r1, #2
 965 018a 6B62     		str	r3, [r5, #36]
 966              		.loc 1 461 0
 967 018c 7021     		movs	r1, #112
 968              		.loc 1 460 0
 969 018e 6A62     		str	r2, [r5, #36]
 970              		.loc 1 461 0
 971 0190 FFF7FEFF 		bl	nvicEnableVector
 972              	.LVL85:
 973              		.loc 1 463 0
 974 0194 2E20     		movs	r0, #46
 975 0196 7021     		movs	r1, #112
 976 0198 FFF7FEFF 		bl	nvicEnableVector
 977              	.LVL86:
 978              		.loc 1 468 0
 979 019c 4FF4F440 		mov	r0, #31232
 980 01a0 C0F60320 		movt	r0, 2563
 981 01a4 E060     		str	r0, [r4, #12]
 982 01a6 D2E7     		b	.L84
 983              	.LVL87:
 984              	.L142:
 985              		.loc 1 407 0
 986 01a8 4FF46053 		mov	r3, #14336
 987 01ac C4F20203 		movt	r3, 16386
 988              		.loc 1 408 0
 989 01b0 0025     		movs	r5, #0
 990              		.loc 1 407 0
 991 01b2 586C     		ldr	r0, [r3, #68]
 992              	.LVL88:
 993 01b4 40F00101 		orr	r1, r0, #1
 994 01b8 5964     		str	r1, [r3, #68]
 995              		.loc 1 408 0
 996 01ba 5A6A     		ldr	r2, [r3, #36]
 997 01bc 42F00107 		orr	r7, r2, #1
 998 01c0 5F62     		str	r7, [r3, #36]
 999              		.loc 1 409 0
 1000 01c2 1920     		movs	r0, #25
 1001              		.loc 1 408 0
 1002 01c4 5D62     		str	r5, [r3, #36]
 1003              		.loc 1 409 0
 1004 01c6 7021     		movs	r1, #112
 1005 01c8 FFF7FEFF 		bl	nvicEnableVector
 1006              	.LVL89:
 1007              		.loc 1 411 0
 1008 01cc 1B20     		movs	r0, #27
 1009 01ce 7021     		movs	r1, #112
 1010 01d0 FFF7FEFF 		bl	nvicEnableVector
 1011              	.LVL90:
 1012              		.loc 1 416 0
 1013 01d4 4FF4F443 		mov	r3, #31232
ARM GAS  /var/folders/ng/s8655sgx1ys_4lf9jzm2w6n00000gn/T//ccT3xYAZ.s 			page 19


 1014 01d8 C0F60323 		movt	r3, 2563
 1015 01dc E360     		str	r3, [r4, #12]
 1016 01de B2E7     		b	.L86
 1017              	.LVL91:
 1018              	.L143:
 1019              		.loc 1 422 0
 1020 01e0 4FF46055 		mov	r5, #14336
 1021 01e4 C4F20205 		movt	r5, 16386
 1022              		.loc 1 423 0
 1023 01e8 0027     		movs	r7, #0
 1024              		.loc 1 422 0
 1025 01ea 286C     		ldr	r0, [r5, #64]
 1026              	.LVL92:
 1027 01ec 40F00101 		orr	r1, r0, #1
 1028 01f0 2964     		str	r1, [r5, #64]
 1029              		.loc 1 423 0
 1030 01f2 2B6A     		ldr	r3, [r5, #32]
 1031 01f4 43F00102 		orr	r2, r3, #1
 1032 01f8 2A62     		str	r2, [r5, #32]
 1033 01fa 2F62     		str	r7, [r5, #32]
 1034              		.loc 1 426 0
 1035 01fc 4FF43D45 		mov	r5, #48384
 1036              		.loc 1 424 0
 1037 0200 1C20     		movs	r0, #28
 1038 0202 7021     		movs	r1, #112
 1039              		.loc 1 426 0
 1040 0204 C0F20155 		movt	r5, 1281
 1041              		.loc 1 424 0
 1042 0208 FFF7FEFF 		bl	nvicEnableVector
 1043              	.LVL93:
 1044              		.loc 1 426 0
 1045 020c E560     		str	r5, [r4, #12]
 1046 020e 9AE7     		b	.L86
 1047              	.LVL94:
 1048              	.L144:
 1049              		.loc 1 431 0
 1050 0210 4FF46055 		mov	r5, #14336
 1051 0214 C4F20205 		movt	r5, 16386
 1052              		.loc 1 432 0
 1053 0218 0027     		movs	r7, #0
 1054              		.loc 1 431 0
 1055 021a 286C     		ldr	r0, [r5, #64]
 1056              	.LVL95:
 1057 021c 40F00201 		orr	r1, r0, #2
 1058 0220 2964     		str	r1, [r5, #64]
 1059              		.loc 1 432 0
 1060 0222 2B6A     		ldr	r3, [r5, #32]
 1061 0224 43F00202 		orr	r2, r3, #2
 1062 0228 2A62     		str	r2, [r5, #32]
 1063              		.loc 1 433 0
 1064 022a 1D20     		movs	r0, #29
 1065              		.loc 1 432 0
 1066 022c 2F62     		str	r7, [r5, #32]
 1067              	.L130:
 1068              		.loc 1 476 0
 1069 022e 7021     		movs	r1, #112
 1070 0230 FFF7FEFF 		bl	nvicEnableVector
ARM GAS  /var/folders/ng/s8655sgx1ys_4lf9jzm2w6n00000gn/T//ccT3xYAZ.s 			page 20


 1071              	.LVL96:
 1072              		.loc 1 478 0
 1073 0234 4FF43D40 		mov	r0, #48384
 1074 0238 C0F20150 		movt	r0, 1281
 1075 023c E060     		str	r0, [r4, #12]
 1076 023e 86E7     		b	.L84
 1077              	.LVL97:
 1078              	.L145:
 1079              		.loc 1 440 0
 1080 0240 4FF46055 		mov	r5, #14336
 1081 0244 C4F20205 		movt	r5, 16386
 1082              		.loc 1 442 0
 1083 0248 1E20     		movs	r0, #30
 1084              	.LVL98:
 1085              		.loc 1 440 0
 1086 024a 2F6C     		ldr	r7, [r5, #64]
 1087 024c 47F00401 		orr	r1, r7, #4
 1088 0250 2964     		str	r1, [r5, #64]
 1089              		.loc 1 441 0
 1090 0252 2B6A     		ldr	r3, [r5, #32]
 1091 0254 0027     		movs	r7, #0
 1092 0256 43F00402 		orr	r2, r3, #4
 1093 025a 2A62     		str	r2, [r5, #32]
 1094 025c 2F62     		str	r7, [r5, #32]
 1095 025e E6E7     		b	.L130
 1096              	.L147:
 1097              		.loc 1 474 0
 1098 0260 4FF46051 		mov	r1, #14336
 1099 0264 C4F20201 		movt	r1, 16386
 1100              		.loc 1 476 0
 1101 0268 1820     		movs	r0, #24
 1102              		.loc 1 474 0
 1103 026a 4A6C     		ldr	r2, [r1, #68]
 1104 026c 42F48037 		orr	r7, r2, #65536
 1105 0270 4F64     		str	r7, [r1, #68]
 1106              		.loc 1 475 0
 1107 0272 4D6A     		ldr	r5, [r1, #36]
 1108 0274 0022     		movs	r2, #0
 1109 0276 45F48033 		orr	r3, r5, #65536
 1110 027a 4B62     		str	r3, [r1, #36]
 1111 027c 4A62     		str	r2, [r1, #36]
 1112 027e D6E7     		b	.L130
 1113              	.L149:
 1114              		.align	2
 1115              	.L148:
 1116 0280 00000000 		.word	.LANCHOR0
 1117 0284 00000000 		.word	.LANCHOR4
 1118 0288 00000000 		.word	.LANCHOR1
 1119 028c 00000000 		.word	.LANCHOR2
 1120 0290 00000000 		.word	.LANCHOR3
 1121 0294 00000000 		.word	.LANCHOR5
 1122              		.cfi_endproc
 1123              	.LFE128:
 1124              		.size	pwm_lld_start, .-pwm_lld_start
 1125 0298 AFF30080 		.section	.text.pwm_lld_stop,"ax",%progbits
 1125      AFF30080 
 1126              		.align	2
ARM GAS  /var/folders/ng/s8655sgx1ys_4lf9jzm2w6n00000gn/T//ccT3xYAZ.s 			page 21


 1127              		.p2align 4,,15
 1128              		.global	pwm_lld_stop
 1129              		.thumb
 1130              		.thumb_func
 1131              		.type	pwm_lld_stop, %function
 1132              	pwm_lld_stop:
 1133              	.LFB129:
 1134              		.loc 1 605 0
 1135              		.cfi_startproc
 1136              		@ args = 0, pretend = 0, frame = 0
 1137              		@ frame_needed = 0, uses_anonymous_args = 0
 1138              	.LVL99:
 1139              		.loc 1 608 0
 1140 0000 0378     		ldrb	r3, [r0, #0]	@ zero_extendqisi2
 1141 0002 022B     		cmp	r3, #2
 1142              		.loc 1 605 0
 1143 0004 10B5     		push	{r4, lr}
 1144              	.LCFI11:
 1145              		.cfi_def_cfa_offset 8
 1146              		.cfi_offset 4, -8
 1147              		.cfi_offset 14, -4
 1148              		.loc 1 605 0
 1149 0006 0446     		mov	r4, r0
 1150              		.loc 1 608 0
 1151 0008 00D0     		beq	.L160
 1152              	.LVL100:
 1153              	.L150:
 1154 000a 10BD     		pop	{r4, pc}
 1155              	.LVL101:
 1156              	.L160:
 1157              		.loc 1 617 0
 1158 000c 3249     		ldr	r1, .L166
 1159              		.loc 1 609 0
 1160 000e 0069     		ldr	r0, [r0, #16]
 1161              	.LVL102:
 1162 0010 0022     		movs	r2, #0
 1163              		.loc 1 617 0
 1164 0012 8C42     		cmp	r4, r1
 1165              		.loc 1 609 0
 1166 0014 0260     		str	r2, [r0, #0]
 1167              		.loc 1 610 0
 1168 0016 C260     		str	r2, [r0, #12]
 1169              		.loc 1 611 0
 1170 0018 0261     		str	r2, [r0, #16]
 1171              		.loc 1 613 0
 1172 001a 4264     		str	r2, [r0, #68]
 1173              		.loc 1 617 0
 1174 001c 1AD0     		beq	.L161
 1175              		.loc 1 624 0
 1176 001e 2F4B     		ldr	r3, .L166+4
 1177 0020 9C42     		cmp	r4, r3
 1178 0022 26D0     		beq	.L162
 1179              		.loc 1 630 0
 1180 0024 2E48     		ldr	r0, .L166+8
 1181 0026 8442     		cmp	r4, r0
 1182 0028 2FD0     		beq	.L163
 1183              		.loc 1 636 0
ARM GAS  /var/folders/ng/s8655sgx1ys_4lf9jzm2w6n00000gn/T//ccT3xYAZ.s 			page 22


 1184 002a 2E4A     		ldr	r2, .L166+12
 1185 002c 9442     		cmp	r4, r2
 1186 002e 38D0     		beq	.L164
 1187              		.loc 1 648 0
 1188 0030 2D49     		ldr	r1, .L166+16
 1189 0032 8C42     		cmp	r4, r1
 1190 0034 41D0     		beq	.L165
 1191              	.L159:
 1192              		.loc 1 655 0
 1193 0036 2D4A     		ldr	r2, .L166+20
 1194 0038 9442     		cmp	r4, r2
 1195 003a E6D1     		bne	.L150
 1196              		.loc 1 656 0
 1197 003c 1820     		movs	r0, #24
 1198 003e FFF7FEFF 		bl	nvicDisableVector
 1199              	.LVL103:
 1200              		.loc 1 657 0
 1201 0042 4FF46053 		mov	r3, #14336
 1202 0046 C4F20203 		movt	r3, 16386
 1203 004a 586C     		ldr	r0, [r3, #68]
 1204 004c 20F48031 		bic	r1, r0, #65536
 1205 0050 5964     		str	r1, [r3, #68]
 1206 0052 DAE7     		b	.L150
 1207              	.L161:
 1208              		.loc 1 618 0
 1209 0054 1920     		movs	r0, #25
 1210 0056 FFF7FEFF 		bl	nvicDisableVector
 1211              	.LVL104:
 1212              		.loc 1 619 0
 1213 005a 1B20     		movs	r0, #27
 1214 005c FFF7FEFF 		bl	nvicDisableVector
 1215              	.LVL105:
 1216              		.loc 1 620 0
 1217 0060 4FF46053 		mov	r3, #14336
 1218 0064 C4F20203 		movt	r3, 16386
 1219 0068 586C     		ldr	r0, [r3, #68]
 1220 006a 20F00101 		bic	r1, r0, #1
 1221 006e 5964     		str	r1, [r3, #68]
 1222 0070 E1E7     		b	.L159
 1223              	.L162:
 1224              		.loc 1 625 0
 1225 0072 1C20     		movs	r0, #28
 1226 0074 FFF7FEFF 		bl	nvicDisableVector
 1227              	.LVL106:
 1228              		.loc 1 626 0
 1229 0078 4FF46050 		mov	r0, #14336
 1230 007c C4F20200 		movt	r0, 16386
 1231 0080 016C     		ldr	r1, [r0, #64]
 1232 0082 21F00102 		bic	r2, r1, #1
 1233 0086 0264     		str	r2, [r0, #64]
 1234 0088 D5E7     		b	.L159
 1235              	.L163:
 1236              		.loc 1 631 0
 1237 008a 1D20     		movs	r0, #29
 1238 008c FFF7FEFF 		bl	nvicDisableVector
 1239              	.LVL107:
 1240              		.loc 1 632 0
ARM GAS  /var/folders/ng/s8655sgx1ys_4lf9jzm2w6n00000gn/T//ccT3xYAZ.s 			page 23


 1241 0090 4FF46051 		mov	r1, #14336
 1242 0094 C4F20201 		movt	r1, 16386
 1243 0098 0A6C     		ldr	r2, [r1, #64]
 1244 009a 22F00203 		bic	r3, r2, #2
 1245 009e 0B64     		str	r3, [r1, #64]
 1246 00a0 10BD     		pop	{r4, pc}
 1247              	.L164:
 1248              		.loc 1 637 0
 1249 00a2 1E20     		movs	r0, #30
 1250 00a4 FFF7FEFF 		bl	nvicDisableVector
 1251              	.LVL108:
 1252              		.loc 1 638 0
 1253 00a8 4FF46051 		mov	r1, #14336
 1254 00ac C4F20201 		movt	r1, 16386
 1255 00b0 0B6C     		ldr	r3, [r1, #64]
 1256 00b2 23F00400 		bic	r0, r3, #4
 1257 00b6 0864     		str	r0, [r1, #64]
 1258 00b8 10BD     		pop	{r4, pc}
 1259              	.L165:
 1260              		.loc 1 649 0
 1261 00ba 2C20     		movs	r0, #44
 1262 00bc FFF7FEFF 		bl	nvicDisableVector
 1263              	.LVL109:
 1264              		.loc 1 650 0
 1265 00c0 2E20     		movs	r0, #46
 1266 00c2 FFF7FEFF 		bl	nvicDisableVector
 1267              	.LVL110:
 1268              		.loc 1 651 0
 1269 00c6 4FF46053 		mov	r3, #14336
 1270 00ca C4F20203 		movt	r3, 16386
 1271 00ce 586C     		ldr	r0, [r3, #68]
 1272 00d0 20F00202 		bic	r2, r0, #2
 1273 00d4 5A64     		str	r2, [r3, #68]
 1274 00d6 10BD     		pop	{r4, pc}
 1275              	.L167:
 1276              		.align	2
 1277              	.L166:
 1278 00d8 00000000 		.word	.LANCHOR0
 1279 00dc 00000000 		.word	.LANCHOR1
 1280 00e0 00000000 		.word	.LANCHOR2
 1281 00e4 00000000 		.word	.LANCHOR3
 1282 00e8 00000000 		.word	.LANCHOR4
 1283 00ec 00000000 		.word	.LANCHOR5
 1284              		.cfi_endproc
 1285              	.LFE129:
 1286              		.size	pwm_lld_stop, .-pwm_lld_stop
 1287              		.section	.text.pwm_lld_enable_channel,"ax",%progbits
 1288              		.align	2
 1289              		.p2align 4,,15
 1290              		.global	pwm_lld_enable_channel
 1291              		.thumb
 1292              		.thumb_func
 1293              		.type	pwm_lld_enable_channel, %function
 1294              	pwm_lld_enable_channel:
 1295              	.LFB130:
 1296              		.loc 1 677 0
 1297              		.cfi_startproc
ARM GAS  /var/folders/ng/s8655sgx1ys_4lf9jzm2w6n00000gn/T//ccT3xYAZ.s 			page 24


 1298              		@ args = 0, pretend = 0, frame = 0
 1299              		@ frame_needed = 0, uses_anonymous_args = 0
 1300              		@ link register save eliminated.
 1301              	.LVL111:
 1302 0000 10B4     		push	{r4}
 1303              	.LCFI12:
 1304              		.cfi_def_cfa_offset 4
 1305              		.cfi_offset 4, -4
 1306              		.loc 1 682 0
 1307 0002 4468     		ldr	r4, [r0, #4]
 1308              		.loc 1 679 0
 1309 0004 0369     		ldr	r3, [r0, #16]
 1310              		.loc 1 682 0
 1311 0006 04EBC100 		add	r0, r4, r1, lsl #3
 1312              	.LVL112:
 1313              		.loc 1 679 0
 1314 000a 01F10C04 		add	r4, r1, #12
 1315 000e 03EB8404 		add	r4, r3, r4, lsl #2
 1316              		.loc 1 682 0
 1317 0012 0069     		ldr	r0, [r0, #16]
 1318              		.loc 1 679 0
 1319 0014 6260     		str	r2, [r4, #4]
 1320              		.loc 1 682 0
 1321 0016 48B1     		cbz	r0, .L168
 1322              	.LBB2:
 1323              		.loc 1 686 0
 1324 0018 0220     		movs	r0, #2
 1325              		.loc 1 683 0
 1326 001a DA68     		ldr	r2, [r3, #12]
 1327              	.LVL113:
 1328              		.loc 1 686 0
 1329 001c 00FA01F1 		lsl	r1, r0, r1
 1330              	.LVL114:
 1331 0020 1142     		tst	r1, r2
 1332 0022 03D1     		bne	.L168
 1333              		.loc 1 687 0
 1334 0024 0A43     		orrs	r2, r2, r1
 1335              	.LVL115:
 1336              		.loc 1 688 0
 1337 0026 C843     		mvns	r0, r1
 1338              		.loc 1 687 0
 1339 0028 DA60     		str	r2, [r3, #12]
 1340              		.loc 1 688 0
 1341 002a 1861     		str	r0, [r3, #16]
 1342              	.L168:
 1343              	.LBE2:
 1344              		.loc 1 691 0
 1345 002c 10BC     		pop	{r4}
 1346 002e 7047     		bx	lr
 1347              		.cfi_endproc
 1348              	.LFE130:
 1349              		.size	pwm_lld_enable_channel, .-pwm_lld_enable_channel
 1350              		.section	.text.pwm_lld_disable_channel,"ax",%progbits
 1351              		.align	2
 1352              		.p2align 4,,15
 1353              		.global	pwm_lld_disable_channel
 1354              		.thumb
ARM GAS  /var/folders/ng/s8655sgx1ys_4lf9jzm2w6n00000gn/T//ccT3xYAZ.s 			page 25


 1355              		.thumb_func
 1356              		.type	pwm_lld_disable_channel, %function
 1357              	pwm_lld_disable_channel:
 1358              	.LFB131:
 1359              		.loc 1 705 0
 1360              		.cfi_startproc
 1361              		@ args = 0, pretend = 0, frame = 0
 1362              		@ frame_needed = 0, uses_anonymous_args = 0
 1363              		@ link register save eliminated.
 1364              	.LVL116:
 1365              		.loc 1 707 0
 1366 0000 0369     		ldr	r3, [r0, #16]
 1367 0002 01F10C02 		add	r2, r1, #12
 1368 0006 03EB8202 		add	r2, r3, r2, lsl #2
 1369 000a 0020     		movs	r0, #0
 1370              	.LVL117:
 1371 000c 5060     		str	r0, [r2, #4]
 1372              		.loc 1 708 0
 1373 000e DA68     		ldr	r2, [r3, #12]
 1374 0010 0220     		movs	r0, #2
 1375 0012 00FA01F1 		lsl	r1, r0, r1
 1376              	.LVL118:
 1377 0016 22EA0102 		bic	r2, r2, r1
 1378 001a DA60     		str	r2, [r3, #12]
 1379 001c 7047     		bx	lr
 1380              		.cfi_endproc
 1381              	.LFE131:
 1382              		.size	pwm_lld_disable_channel, .-pwm_lld_disable_channel
 1383              		.global	PWMD9
 1384              		.global	PWMD8
 1385              		.global	PWMD4
 1386              		.global	PWMD3
 1387              		.global	PWMD2
 1388              		.global	PWMD1
 1389 001e 00BF     		.section	.bss.PWMD1,"aw",%nobits
 1390              		.align	2
 1391              		.set	.LANCHOR0,. + 0
 1392              		.type	PWMD1, %object
 1393              		.size	PWMD1, 20
 1394              	PWMD1:
 1395 0000 00000000 		.space	20
 1395      00000000 
 1395      00000000 
 1395      00000000 
 1395      00000000 
 1396              		.section	.bss.PWMD2,"aw",%nobits
 1397              		.align	2
 1398              		.set	.LANCHOR1,. + 0
 1399              		.type	PWMD2, %object
 1400              		.size	PWMD2, 20
 1401              	PWMD2:
 1402 0000 00000000 		.space	20
 1402      00000000 
 1402      00000000 
 1402      00000000 
 1402      00000000 
 1403              		.section	.bss.PWMD3,"aw",%nobits
ARM GAS  /var/folders/ng/s8655sgx1ys_4lf9jzm2w6n00000gn/T//ccT3xYAZ.s 			page 26


 1404              		.align	2
 1405              		.set	.LANCHOR2,. + 0
 1406              		.type	PWMD3, %object
 1407              		.size	PWMD3, 20
 1408              	PWMD3:
 1409 0000 00000000 		.space	20
 1409      00000000 
 1409      00000000 
 1409      00000000 
 1409      00000000 
 1410              		.section	.bss.PWMD4,"aw",%nobits
 1411              		.align	2
 1412              		.set	.LANCHOR3,. + 0
 1413              		.type	PWMD4, %object
 1414              		.size	PWMD4, 20
 1415              	PWMD4:
 1416 0000 00000000 		.space	20
 1416      00000000 
 1416      00000000 
 1416      00000000 
 1416      00000000 
 1417              		.section	.bss.PWMD8,"aw",%nobits
 1418              		.align	2
 1419              		.set	.LANCHOR4,. + 0
 1420              		.type	PWMD8, %object
 1421              		.size	PWMD8, 20
 1422              	PWMD8:
 1423 0000 00000000 		.space	20
 1423      00000000 
 1423      00000000 
 1423      00000000 
 1423      00000000 
 1424              		.section	.bss.PWMD9,"aw",%nobits
 1425              		.align	2
 1426              		.set	.LANCHOR5,. + 0
 1427              		.type	PWMD9, %object
 1428              		.size	PWMD9, 20
 1429              	PWMD9:
 1430 0000 00000000 		.space	20
 1430      00000000 
 1430      00000000 
 1430      00000000 
 1430      00000000 
 1431              		.text
 1432              	.Letext0:
 1433              		.file 2 "/Users/jseng/gccarm/bin/../lib/gcc/arm-none-eabi/4.7.4/../../../../arm-none-eabi/include/
 1434              		.file 3 "../AithonLibrary/ChibiOS/os/hal/platforms/STM32F4xx/stm32f4xx.h"
 1435              		.file 4 "../AithonLibrary/ChibiOS/os/hal/include/pwm.h"
 1436              		.file 5 "../AithonLibrary/ChibiOS/os/hal/platforms/STM32/TIMv1/pwm_lld.h"
 1437              		.file 6 "../AithonLibrary/ChibiOS/os/hal/platforms/STM32/TIMv1/stm32_tim.h"
 1438              		.file 7 "../AithonLibrary/ChibiOS/os/ports/common/ARMCMx/CMSIS/include/core_cm4.h"
 1439              		.file 8 "../AithonLibrary/ChibiOS/os/ports/common/ARMCMx/nvic.h"
 1440              		.file 9 "../AithonLibrary/ChibiOS/os/ports/GCC/ARMCMx/chcore_v7m.h"