ARM GAS  /var/folders/ng/s8655sgx1ys_4lf9jzm2w6n00000gn/T//ccPC48YK.s 			page 1


   1              		.syntax unified
   2              		.cpu cortex-m4
   3              		.eabi_attribute 27, 3
   4              		.fpu fpv4-sp-d16
   5              		.eabi_attribute 20, 1
   6              		.eabi_attribute 21, 1
   7              		.eabi_attribute 23, 3
   8              		.eabi_attribute 24, 1
   9              		.eabi_attribute 25, 1
  10              		.eabi_attribute 26, 1
  11              		.eabi_attribute 30, 2
  12              		.eabi_attribute 34, 1
  13              		.eabi_attribute 18, 4
  14              		.thumb
  15              		.file	"serial_lld.c"
  16              		.text
  17              	.Ltext0:
  18              		.cfi_sections	.debug_frame
  19              		.section	.text.notify1,"ax",%progbits
  20              		.align	2
  21              		.p2align 4,,15
  22              		.thumb
  23              		.thumb_func
  24              		.type	notify1, %function
  25              	notify1:
  26              	.LFB122:
  27              		.file 1 "../AithonLibrary/ChibiOS/os/hal/platforms/STM32/USARTv1/serial_lld.c"
  28              		.loc 1 203 0
  29              		.cfi_startproc
  30              		@ args = 0, pretend = 0, frame = 0
  31              		@ frame_needed = 0, uses_anonymous_args = 0
  32              		@ link register save eliminated.
  33              	.LVL0:
  34              		.loc 1 206 0
  35 0000 4FF48053 		mov	r3, #4096
  36 0004 C4F20103 		movt	r3, 16385
  37 0008 9A89     		ldrh	r2, [r3, #12]
  38 000a 90B2     		uxth	r0, r2
  39              	.LVL1:
  40 000c 40F08001 		orr	r1, r0, #128
  41 0010 9981     		strh	r1, [r3, #12]	@ movhi
  42 0012 7047     		bx	lr
  43              		.cfi_endproc
  44              	.LFE122:
  45              		.size	notify1, .-notify1
  46 0014 AFF30080 		.section	.text.notify2,"ax",%progbits
  46      AFF30080 
  46      AFF30080 
  47              		.align	2
  48              		.p2align 4,,15
  49              		.thumb
  50              		.thumb_func
  51              		.type	notify2, %function
  52              	notify2:
  53              	.LFB123:
  54              		.loc 1 211 0
  55              		.cfi_startproc
ARM GAS  /var/folders/ng/s8655sgx1ys_4lf9jzm2w6n00000gn/T//ccPC48YK.s 			page 2


  56              		@ args = 0, pretend = 0, frame = 0
  57              		@ frame_needed = 0, uses_anonymous_args = 0
  58              		@ link register save eliminated.
  59              	.LVL2:
  60              		.loc 1 214 0
  61 0000 4FF48843 		mov	r3, #17408
  62 0004 C4F20003 		movt	r3, 16384
  63 0008 9A89     		ldrh	r2, [r3, #12]
  64 000a 90B2     		uxth	r0, r2
  65              	.LVL3:
  66 000c 40F08001 		orr	r1, r0, #128
  67 0010 9981     		strh	r1, [r3, #12]	@ movhi
  68 0012 7047     		bx	lr
  69              		.cfi_endproc
  70              	.LFE123:
  71              		.size	notify2, .-notify2
  72              		.section	.text.serve_interrupt,"ax",%progbits
  73              		.align	2
  74              		.p2align 4,,15
  75              		.thumb
  76              		.thumb_func
  77              		.type	serve_interrupt, %function
  78              	serve_interrupt:
  79              	.LFB121:
  80              		.loc 1 154 0
  81              		.cfi_startproc
  82              		@ args = 0, pretend = 0, frame = 0
  83              		@ frame_needed = 0, uses_anonymous_args = 0
  84              	.LVL4:
  85 0000 2DE9F041 		push	{r4, r5, r6, r7, r8, lr}
  86              	.LCFI0:
  87              		.cfi_def_cfa_offset 24
  88              		.cfi_offset 4, -24
  89              		.cfi_offset 5, -20
  90              		.cfi_offset 6, -16
  91              		.cfi_offset 7, -12
  92              		.cfi_offset 8, -8
  93              		.cfi_offset 14, -4
  94              		.loc 1 155 0
  95 0004 456F     		ldr	r5, [r0, #116]
  96              	.LVL5:
  97              		.loc 1 156 0
  98 0006 B5F80C80 		ldrh	r8, [r5, #12]
  99              		.loc 1 157 0
 100 000a 2C88     		ldrh	r4, [r5, #0]
 101 000c A4B2     		uxth	r4, r4
 102              		.loc 1 160 0
 103 000e 04F48073 		and	r3, r4, #256
 104              		.loc 1 154 0
 105 0012 0646     		mov	r6, r0
 106              		.loc 1 160 0
 107 0014 98B2     		uxth	r0, r3
 108              	.LVL6:
 109              		.loc 1 156 0
 110 0016 1FFA88F8 		uxth	r8, r8
 111              	.LVL7:
 112              		.loc 1 160 0
ARM GAS  /var/folders/ng/s8655sgx1ys_4lf9jzm2w6n00000gn/T//ccPC48YK.s 			page 3


 113 001a 0028     		cmp	r0, #0
 114 001c 53D1     		bne	.L47
 115              	.LVL8:
 116              	.L4:
 117              	.LBB15:
 118              		.loc 1 168 0
 119 001e 2023     		movs	r3, #32
 120              	.LVL9:
 121              	@ 168 "../AithonLibrary/ChibiOS/os/hal/platforms/STM32/USARTv1/serial_lld.c" 1
 122 0020 83F31188 		msr     BASEPRI, r3
 123              	@ 0 "" 2
 124              	.LVL10:
 125              		.thumb
 126              	.LBE15:
 127              		.loc 1 169 0
 128 0024 2340     		ands	r3, r3, r4
 129              	.LVL11:
 130 0026 9AB2     		uxth	r2, r3
 131 0028 52B3     		cbz	r2, .L5
 132              	.LBB16:
 133              	.LBB17:
 134              		.loc 1 146 0
 135 002a 371D     		adds	r7, r6, #4
 136 002c 0AE0     		b	.L35
 137              	.LVL12:
 138              	.L6:
 139              	.LBE17:
 140              	.LBE16:
 141              		.loc 1 173 0
 142 002e A988     		ldrh	r1, [r5, #4]
 143 0030 3046     		mov	r0, r6
 144 0032 C9B2     		uxtb	r1, r1
 145 0034 FFF7FEFF 		bl	sdIncomingDataI
 146              	.LVL13:
 147              		.loc 1 174 0
 148 0038 2888     		ldrh	r0, [r5, #0]
 149 003a 84B2     		uxth	r4, r0
 150              	.LVL14:
 151              		.loc 1 169 0
 152 003c 04F02003 		and	r3, r4, #32
 153 0040 9AB2     		uxth	r2, r3
 154 0042 EAB1     		cbz	r2, .L5
 155              	.LVL15:
 156              	.L35:
 157              		.loc 1 171 0
 158 0044 2307     		lsls	r3, r4, #28
 159 0046 F2D0     		beq	.L6
 160              	.LVL16:
 161              	.LBB19:
 162              	.LBB18:
 163              		.loc 1 138 0
 164 0048 04F00803 		and	r3, r4, #8
 165 004c 98B2     		uxth	r0, r3
 166              		.loc 1 142 0
 167 004e 04F00202 		and	r2, r4, #2
 168              		.loc 1 139 0
 169 0052 0028     		cmp	r0, #0
ARM GAS  /var/folders/ng/s8655sgx1ys_4lf9jzm2w6n00000gn/T//ccPC48YK.s 			page 4


 170 0054 14BF     		ite	ne
 171 0056 8021     		movne	r1, #128
 172 0058 0021     		moveq	r1, #0
 173              	.LVL17:
 174              		.loc 1 142 0
 175 005a 93B2     		uxth	r3, r2
 176              		.loc 1 140 0
 177 005c 14F0010F 		tst	r4, #1
 178              		.loc 1 144 0
 179 0060 04F00404 		and	r4, r4, #4
 180              	.LVL18:
 181              		.loc 1 146 0
 182 0064 3846     		mov	r0, r7
 183              		.loc 1 141 0
 184 0066 18BF     		it	ne
 185 0068 41F02001 		orrne	r1, r1, #32
 186              	.LVL19:
 187              		.loc 1 144 0
 188 006c A2B2     		uxth	r2, r4
 189              		.loc 1 142 0
 190 006e 0BB1     		cbz	r3, .L9
 191              		.loc 1 143 0
 192 0070 41F04001 		orr	r1, r1, #64
 193              	.LVL20:
 194              	.L9:
 195              		.loc 1 144 0
 196 0074 0AB1     		cbz	r2, .L10
 197              		.loc 1 145 0
 198 0076 41F48071 		orr	r1, r1, #256
 199              	.LVL21:
 200              	.L10:
 201              		.loc 1 146 0
 202 007a FFF7FEFF 		bl	chEvtBroadcastFlagsI
 203              	.LVL22:
 204 007e D6E7     		b	.L6
 205              	.L5:
 206              	.LBE18:
 207              	.LBE19:
 208              	.LBB20:
 209              		.loc 1 176 0
 210 0080 0023     		movs	r3, #0
 211              	.LVL23:
 212              	@ 176 "../AithonLibrary/ChibiOS/os/hal/platforms/STM32/USARTv1/serial_lld.c" 1
 213 0082 83F31188 		msr     BASEPRI, r3
 214              	@ 0 "" 2
 215              	.LVL24:
 216              		.thumb
 217              	.LBE20:
 218              		.loc 1 179 0
 219 0086 08F08001 		and	r1, r8, #128
 220 008a 88B2     		uxth	r0, r1
 221 008c 18B1     		cbz	r0, .L12
 222              		.loc 1 179 0 is_stmt 0 discriminator 1
 223 008e 04F08003 		and	r3, r4, #128
 224              	.LVL25:
 225 0092 9AB2     		uxth	r2, r3
 226 0094 32BB     		cbnz	r2, .L48
ARM GAS  /var/folders/ng/s8655sgx1ys_4lf9jzm2w6n00000gn/T//ccPC48YK.s 			page 5


 227              	.LVL26:
 228              	.L12:
 229              		.loc 1 193 0 is_stmt 1
 230 0096 04F04004 		and	r4, r4, #64
 231 009a A4B2     		uxth	r4, r4
 232 009c 8CB1     		cbz	r4, .L3
 233              	.LBB21:
 234              		.loc 1 194 0
 235 009e 2023     		movs	r3, #32
 236              	.LVL27:
 237              	@ 194 "../AithonLibrary/ChibiOS/os/hal/platforms/STM32/USARTv1/serial_lld.c" 1
 238 00a0 83F31188 		msr     BASEPRI, r3
 239              	@ 0 "" 2
 240              	.LVL28:
 241              		.thumb
 242              	.LBE21:
 243              		.loc 1 195 0
 244 00a4 1021     		movs	r1, #16
 245 00a6 301D     		adds	r0, r6, #4
 246 00a8 FFF7FEFF 		bl	chEvtBroadcastFlagsI
 247              	.LVL29:
 248              	.LBB22:
 249              		.loc 1 196 0
 250 00ac 0023     		movs	r3, #0
 251              	.LVL30:
 252              	@ 196 "../AithonLibrary/ChibiOS/os/hal/platforms/STM32/USARTv1/serial_lld.c" 1
 253 00ae 83F31188 		msr     BASEPRI, r3
 254              	@ 0 "" 2
 255              	.LVL31:
 256              		.thumb
 257              	.LBE22:
 258              		.loc 1 197 0
 259 00b2 4FF63F72 		movw	r2, #65343
 260 00b6 08EA0201 		and	r1, r8, r2
 261              		.loc 1 198 0
 262 00ba 4FF6BF70 		movw	r0, #65471
 263              		.loc 1 197 0
 264 00be A981     		strh	r1, [r5, #12]	@ movhi
 265              		.loc 1 198 0
 266 00c0 2880     		strh	r0, [r5, #0]	@ movhi
 267              	.LVL32:
 268              	.L3:
 269 00c2 BDE8F081 		pop	{r4, r5, r6, r7, r8, pc}
 270              	.LVL33:
 271              	.L47:
 272              	.LBB23:
 273              		.loc 1 161 0
 274 00c6 2023     		movs	r3, #32
 275              	.LVL34:
 276              	@ 161 "../AithonLibrary/ChibiOS/os/hal/platforms/STM32/USARTv1/serial_lld.c" 1
 277 00c8 83F31188 		msr     BASEPRI, r3
 278              	@ 0 "" 2
 279              	.LVL35:
 280              		.thumb
 281              	.LBE23:
 282              		.loc 1 162 0
 283 00cc 4FF40071 		mov	r1, #512
ARM GAS  /var/folders/ng/s8655sgx1ys_4lf9jzm2w6n00000gn/T//ccPC48YK.s 			page 6


 284 00d0 301D     		adds	r0, r6, #4
 285 00d2 FFF7FEFF 		bl	chEvtBroadcastFlagsI
 286              	.LVL36:
 287              	.LBB24:
 288              		.loc 1 163 0
 289 00d6 0023     		movs	r3, #0
 290              	@ 163 "../AithonLibrary/ChibiOS/os/hal/platforms/STM32/USARTv1/serial_lld.c" 1
 291 00d8 83F31188 		msr     BASEPRI, r3
 292              	@ 0 "" 2
 293              	.LVL37:
 294              		.thumb
 295              	.LBE24:
 296              		.loc 1 164 0
 297 00dc 4FF6FF61 		movw	r1, #65279
 298 00e0 2980     		strh	r1, [r5, #0]	@ movhi
 299 00e2 9CE7     		b	.L4
 300              	.LVL38:
 301              	.L48:
 302              	.LBB25:
 303              	.LBB26:
 304              		.loc 1 181 0
 305 00e4 2023     		movs	r3, #32
 306              	.LVL39:
 307              	@ 181 "../AithonLibrary/ChibiOS/os/hal/platforms/STM32/USARTv1/serial_lld.c" 1
 308 00e6 83F31188 		msr     BASEPRI, r3
 309              	@ 0 "" 2
 310              	.LVL40:
 311              		.thumb
 312              	.LBE26:
 313              		.loc 1 182 0
 314 00ea 06F13000 		add	r0, r6, #48
 315 00ee FFF7FEFF 		bl	chOQGetI
 316              	.LVL41:
 317              		.loc 1 183 0
 318 00f2 0028     		cmp	r0, #0
 319 00f4 05DB     		blt	.L49
 320              		.loc 1 188 0
 321 00f6 81B2     		uxth	r1, r0
 322 00f8 A980     		strh	r1, [r5, #4]	@ movhi
 323              	.LVL42:
 324              	.L14:
 325              	.LBB27:
 326              		.loc 1 189 0
 327 00fa 0023     		movs	r3, #0
 328              	@ 189 "../AithonLibrary/ChibiOS/os/hal/platforms/STM32/USARTv1/serial_lld.c" 1
 329 00fc 83F31188 		msr     BASEPRI, r3
 330              	@ 0 "" 2
 331              	.LVL43:
 332              		.thumb
 333 0100 C9E7     		b	.L12
 334              	.LVL44:
 335              	.L49:
 336              	.LBE27:
 337              		.loc 1 184 0
 338 0102 301D     		adds	r0, r6, #4
 339              	.LVL45:
 340 0104 0821     		movs	r1, #8
ARM GAS  /var/folders/ng/s8655sgx1ys_4lf9jzm2w6n00000gn/T//ccPC48YK.s 			page 7


 341 0106 FFF7FEFF 		bl	chEvtBroadcastFlagsI
 342              	.LVL46:
 343              		.loc 1 185 0
 344 010a 28F0C000 		bic	r0, r8, #192
 345 010e 40F04003 		orr	r3, r0, #64
 346 0112 AB81     		strh	r3, [r5, #12]	@ movhi
 347 0114 F1E7     		b	.L14
 348              	.LBE25:
 349              		.cfi_endproc
 350              	.LFE121:
 351              		.size	serve_interrupt, .-serve_interrupt
 352 0116 00BFAFF3 		.section	.text.VectorD4,"ax",%progbits
 352      0080AFF3 
 352      0080
 353              		.align	2
 354              		.p2align 4,,15
 355              		.global	VectorD4
 356              		.thumb
 357              		.thumb_func
 358              		.type	VectorD4, %function
 359              	VectorD4:
 360              	.LFB124:
 361              		.loc 1 263 0
 362              		.cfi_startproc
 363              		@ args = 0, pretend = 0, frame = 0
 364              		@ frame_needed = 0, uses_anonymous_args = 0
 365 0000 08B5     		push	{r3, lr}
 366              	.LCFI1:
 367              		.cfi_def_cfa_offset 8
 368              		.cfi_offset 3, -8
 369              		.cfi_offset 14, -4
 370              		.loc 1 267 0
 371 0002 40F20000 		movw	r0, #:lower16:.LANCHOR0
 372 0006 C0F20000 		movt	r0, #:upper16:.LANCHOR0
 373 000a FFF7FEFF 		bl	serve_interrupt
 374              	.LVL47:
 375              		.loc 1 270 0
 376 000e BDE80840 		pop	{r3, lr}
 377              		.loc 1 269 0
 378 0012 FFF7FEBF 		b	_port_irq_epilogue
 379              	.LVL48:
 380              		.cfi_endproc
 381              	.LFE124:
 382              		.size	VectorD4, .-VectorD4
 383 0016 00BFAFF3 		.section	.text.VectorD8,"ax",%progbits
 383      0080AFF3 
 383      0080
 384              		.align	2
 385              		.p2align 4,,15
 386              		.global	VectorD8
 387              		.thumb
 388              		.thumb_func
 389              		.type	VectorD8, %function
 390              	VectorD8:
 391              	.LFB125:
 392              		.loc 1 282 0
 393              		.cfi_startproc
ARM GAS  /var/folders/ng/s8655sgx1ys_4lf9jzm2w6n00000gn/T//ccPC48YK.s 			page 8


 394              		@ args = 0, pretend = 0, frame = 0
 395              		@ frame_needed = 0, uses_anonymous_args = 0
 396 0000 08B5     		push	{r3, lr}
 397              	.LCFI2:
 398              		.cfi_def_cfa_offset 8
 399              		.cfi_offset 3, -8
 400              		.cfi_offset 14, -4
 401              		.loc 1 286 0
 402 0002 40F20000 		movw	r0, #:lower16:.LANCHOR1
 403 0006 C0F20000 		movt	r0, #:upper16:.LANCHOR1
 404 000a FFF7FEFF 		bl	serve_interrupt
 405              	.LVL49:
 406              		.loc 1 289 0
 407 000e BDE80840 		pop	{r3, lr}
 408              		.loc 1 288 0
 409 0012 FFF7FEBF 		b	_port_irq_epilogue
 410              	.LVL50:
 411              		.cfi_endproc
 412              	.LFE125:
 413              		.size	VectorD8, .-VectorD8
 414 0016 00BFAFF3 		.section	.text.sd_lld_init,"ax",%progbits
 414      0080AFF3 
 414      0080
 415              		.align	2
 416              		.p2align 4,,15
 417              		.global	sd_lld_init
 418              		.thumb
 419              		.thumb_func
 420              		.type	sd_lld_init, %function
 421              	sd_lld_init:
 422              	.LFB126:
 423              		.loc 1 377 0
 424              		.cfi_startproc
 425              		@ args = 0, pretend = 0, frame = 0
 426              		@ frame_needed = 0, uses_anonymous_args = 0
 427 0000 38B5     		push	{r3, r4, r5, lr}
 428              	.LCFI3:
 429              		.cfi_def_cfa_offset 16
 430              		.cfi_offset 3, -16
 431              		.cfi_offset 4, -12
 432              		.cfi_offset 5, -8
 433              		.cfi_offset 14, -4
 434              		.loc 1 380 0
 435 0002 40F20005 		movw	r5, #:lower16:.LANCHOR0
 436 0006 C0F20005 		movt	r5, #:upper16:.LANCHOR0
 437 000a 40F20002 		movw	r2, #:lower16:notify1
 438 000e 2846     		mov	r0, r5
 439 0010 0021     		movs	r1, #0
 440 0012 C0F20002 		movt	r2, #:upper16:notify1
 441              		.loc 1 385 0
 442 0016 40F20004 		movw	r4, #:lower16:.LANCHOR1
 443              		.loc 1 380 0
 444 001a FFF7FEFF 		bl	sdObjectInit
 445              	.LVL51:
 446              		.loc 1 385 0
 447 001e C0F20004 		movt	r4, #:upper16:.LANCHOR1
 448              		.loc 1 381 0
ARM GAS  /var/folders/ng/s8655sgx1ys_4lf9jzm2w6n00000gn/T//ccPC48YK.s 			page 9


 449 0022 4FF48053 		mov	r3, #4096
 450              		.loc 1 385 0
 451 0026 40F20002 		movw	r2, #:lower16:notify2
 452              		.loc 1 381 0
 453 002a C4F20103 		movt	r3, 16385
 454              		.loc 1 385 0
 455 002e 2046     		mov	r0, r4
 456 0030 0021     		movs	r1, #0
 457 0032 C0F20002 		movt	r2, #:upper16:notify2
 458              		.loc 1 381 0
 459 0036 6B67     		str	r3, [r5, #116]
 460              		.loc 1 385 0
 461 0038 FFF7FEFF 		bl	sdObjectInit
 462              	.LVL52:
 463              		.loc 1 386 0
 464 003c 4FF48840 		mov	r0, #17408
 465 0040 C4F20000 		movt	r0, 16384
 466 0044 6067     		str	r0, [r4, #116]
 467 0046 38BD     		pop	{r3, r4, r5, pc}
 468              		.cfi_endproc
 469              	.LFE126:
 470              		.size	sd_lld_init, .-sd_lld_init
 471 0048 AFF30080 		.section	.text.sd_lld_start,"ax",%progbits
 471      AFF30080 
 472              		.align	2
 473              		.p2align 4,,15
 474              		.global	sd_lld_start
 475              		.thumb
 476              		.thumb_func
 477              		.type	sd_lld_start, %function
 478              	sd_lld_start:
 479              	.LFB127:
 480              		.loc 1 420 0
 481              		.cfi_startproc
 482              		@ args = 0, pretend = 0, frame = 0
 483              		@ frame_needed = 0, uses_anonymous_args = 0
 484              	.LVL53:
 485 0000 38B5     		push	{r3, r4, r5, lr}
 486              	.LCFI4:
 487              		.cfi_def_cfa_offset 16
 488              		.cfi_offset 3, -16
 489              		.cfi_offset 4, -12
 490              		.cfi_offset 5, -8
 491              		.cfi_offset 14, -4
 492              		.loc 1 425 0
 493 0002 037A     		ldrb	r3, [r0, #8]	@ zero_extendqisi2
 494              		.loc 1 423 0
 495 0004 2D4C     		ldr	r4, .L63
 496 0006 0029     		cmp	r1, #0
 497 0008 18BF     		it	ne
 498 000a 0C46     		movne	r4, r1
 499              		.loc 1 425 0
 500 000c 012B     		cmp	r3, #1
 501              		.loc 1 420 0
 502 000e 0546     		mov	r5, r0
 503              		.loc 1 425 0
 504 0010 2BD0     		beq	.L61
ARM GAS  /var/folders/ng/s8655sgx1ys_4lf9jzm2w6n00000gn/T//ccPC48YK.s 			page 10


 505              	.LVL54:
 506              	.L55:
 507              	.LBB30:
 508              	.LBB31:
 509              		.loc 1 97 0
 510 0012 4FF48050 		mov	r0, #4096
 511              		.loc 1 93 0
 512 0016 6B6F     		ldr	r3, [r5, #116]
 513              	.LVL55:
 514              		.loc 1 101 0
 515 0018 2168     		ldr	r1, [r4, #0]
 516              		.loc 1 97 0
 517 001a C4F20100 		movt	r0, 16385
 518 001e 8342     		cmp	r3, r0
 519 0020 36D0     		beq	.L57
 520 0022 4FF4A052 		mov	r2, #5120
 521 0026 C4F20102 		movt	r2, 16385
 522 002a 9342     		cmp	r3, r2
 523 002c 30D0     		beq	.L57
 524              		.loc 1 103 0
 525 002e 4DF68060 		movw	r0, #56960
 526 0032 C0F28020 		movt	r0, 640
 527 0036 B0FBF1F1 		udiv	r1, r0, r1
 528 003a 8AB2     		uxth	r2, r1
 529 003c 1A81     		strh	r2, [r3, #8]	@ movhi
 530              	.L59:
 531              		.loc 1 108 0
 532 003e A288     		ldrh	r2, [r4, #4]
 533              		.loc 1 106 0
 534 0040 E088     		ldrh	r0, [r4, #6]
 535              		.loc 1 107 0
 536 0042 2189     		ldrh	r1, [r4, #8]
 537              		.loc 1 108 0
 538 0044 42F40452 		orr	r2, r2, #8448
 539              		.loc 1 106 0
 540 0048 40F04000 		orr	r0, r0, #64
 541 004c 80B2     		uxth	r0, r0
 542              		.loc 1 107 0
 543 004e 41F00101 		orr	r1, r1, #1
 544              		.loc 1 108 0
 545 0052 42F02C02 		orr	r2, r2, #44
 546              		.loc 1 106 0
 547 0056 1882     		strh	r0, [r3, #16]	@ movhi
 548              		.loc 1 108 0
 549 0058 92B2     		uxth	r2, r2
 550              		.loc 1 107 0
 551 005a 89B2     		uxth	r1, r1
 552              		.loc 1 111 0
 553 005c 0020     		movs	r0, #0
 554              		.loc 1 107 0
 555 005e 9982     		strh	r1, [r3, #20]	@ movhi
 556              		.loc 1 108 0
 557 0060 9A81     		strh	r2, [r3, #12]	@ movhi
 558              		.loc 1 111 0
 559 0062 1880     		strh	r0, [r3, #0]	@ movhi
 560              		.loc 1 112 0
 561 0064 1A88     		ldrh	r2, [r3, #0]
ARM GAS  /var/folders/ng/s8655sgx1ys_4lf9jzm2w6n00000gn/T//ccPC48YK.s 			page 11


 562              		.loc 1 113 0
 563 0066 9B88     		ldrh	r3, [r3, #4]
 564              	.LVL56:
 565 0068 38BD     		pop	{r3, r4, r5, pc}
 566              	.LVL57:
 567              	.L61:
 568              	.LBE31:
 569              	.LBE30:
 570              		.loc 1 427 0
 571 006a 1548     		ldr	r0, .L63+4
 572              	.LVL58:
 573 006c 8542     		cmp	r5, r0
 574 006e 18D0     		beq	.L62
 575              		.loc 1 434 0
 576 0070 1449     		ldr	r1, .L63+8
 577              	.LVL59:
 578 0072 8D42     		cmp	r5, r1
 579 0074 CDD1     		bne	.L55
 580              		.loc 1 435 0
 581 0076 4FF46053 		mov	r3, #14336
 582 007a C4F20203 		movt	r3, 16386
 583              		.loc 1 436 0
 584 007e 2620     		movs	r0, #38
 585              		.loc 1 435 0
 586 0080 1A6C     		ldr	r2, [r3, #64]
 587 0082 42F40031 		orr	r1, r2, #131072
 588 0086 1964     		str	r1, [r3, #64]
 589              		.loc 1 436 0
 590 0088 C021     		movs	r1, #192
 591 008a FFF7FEFF 		bl	nvicEnableVector
 592              	.LVL60:
 593 008e C0E7     		b	.L55
 594              	.LVL61:
 595              	.L57:
 596              	.LBB33:
 597              	.LBB32:
 598              		.loc 1 101 0
 599 0090 4FF43D40 		mov	r0, #48384
 600 0094 C0F20150 		movt	r0, 1281
 601 0098 B0FBF1F1 		udiv	r1, r0, r1
 602 009c 8AB2     		uxth	r2, r1
 603 009e 1A81     		strh	r2, [r3, #8]	@ movhi
 604 00a0 CDE7     		b	.L59
 605              	.LVL62:
 606              	.L62:
 607              	.LBE32:
 608              	.LBE33:
 609              		.loc 1 428 0
 610 00a2 4FF46053 		mov	r3, #14336
 611 00a6 C4F20203 		movt	r3, 16386
 612              		.loc 1 429 0
 613 00aa 2520     		movs	r0, #37
 614              		.loc 1 428 0
 615 00ac 5A6C     		ldr	r2, [r3, #68]
 616 00ae 42F01001 		orr	r1, r2, #16
 617              	.LVL63:
 618 00b2 5964     		str	r1, [r3, #68]
ARM GAS  /var/folders/ng/s8655sgx1ys_4lf9jzm2w6n00000gn/T//ccPC48YK.s 			page 12


 619              		.loc 1 429 0
 620 00b4 C021     		movs	r1, #192
 621 00b6 FFF7FEFF 		bl	nvicEnableVector
 622              	.LVL64:
 623 00ba AAE7     		b	.L55
 624              	.L64:
 625              		.align	2
 626              	.L63:
 627 00bc 00000000 		.word	.LANCHOR2
 628 00c0 00000000 		.word	.LANCHOR0
 629 00c4 00000000 		.word	.LANCHOR1
 630              		.cfi_endproc
 631              	.LFE127:
 632              		.size	sd_lld_start, .-sd_lld_start
 633 00c8 AFF30080 		.section	.text.sd_lld_stop,"ax",%progbits
 633      AFF30080 
 634              		.align	2
 635              		.p2align 4,,15
 636              		.global	sd_lld_stop
 637              		.thumb
 638              		.thumb_func
 639              		.type	sd_lld_stop, %function
 640              	sd_lld_stop:
 641              	.LFB128:
 642              		.loc 1 481 0
 643              		.cfi_startproc
 644              		@ args = 0, pretend = 0, frame = 0
 645              		@ frame_needed = 0, uses_anonymous_args = 0
 646              		@ link register save eliminated.
 647              	.LVL65:
 648              		.loc 1 483 0
 649 0000 037A     		ldrb	r3, [r0, #8]	@ zero_extendqisi2
 650 0002 022B     		cmp	r3, #2
 651 0004 00D0     		beq	.L70
 652              	.L65:
 653 0006 7047     		bx	lr
 654              	.L70:
 655              		.loc 1 486 0
 656 0008 104B     		ldr	r3, .L72
 657              		.loc 1 484 0
 658 000a 416F     		ldr	r1, [r0, #116]
 659              	.LVL66:
 660              	.LBB34:
 661              	.LBB35:
 662              		.loc 1 124 0
 663 000c 0022     		movs	r2, #0
 664              	.LBE35:
 665              	.LBE34:
 666              		.loc 1 486 0
 667 000e 9842     		cmp	r0, r3
 668              	.LBB37:
 669              	.LBB36:
 670              		.loc 1 124 0
 671 0010 8A81     		strh	r2, [r1, #12]	@ movhi
 672              		.loc 1 125 0
 673 0012 0A82     		strh	r2, [r1, #16]	@ movhi
 674              		.loc 1 126 0
ARM GAS  /var/folders/ng/s8655sgx1ys_4lf9jzm2w6n00000gn/T//ccPC48YK.s 			page 13


 675 0014 8A82     		strh	r2, [r1, #20]	@ movhi
 676              	.LBE36:
 677              	.LBE37:
 678              		.loc 1 486 0
 679 0016 0DD0     		beq	.L71
 680              		.loc 1 493 0
 681 0018 0D49     		ldr	r1, .L72+4
 682              	.LVL67:
 683 001a 8842     		cmp	r0, r1
 684 001c F3D1     		bne	.L65
 685              		.loc 1 494 0
 686 001e 4FF46053 		mov	r3, #14336
 687 0022 C4F20203 		movt	r3, 16386
 688              		.loc 1 495 0
 689 0026 2620     		movs	r0, #38
 690              	.LVL68:
 691              		.loc 1 494 0
 692 0028 1A6C     		ldr	r2, [r3, #64]
 693 002a 22F40031 		bic	r1, r2, #131072
 694 002e 1964     		str	r1, [r3, #64]
 695              		.loc 1 528 0
 696              		.loc 1 495 0
 697 0030 FFF7FEBF 		b	nvicDisableVector
 698              	.LVL69:
 699              	.L71:
 700              		.loc 1 487 0
 701 0034 4FF46053 		mov	r3, #14336
 702 0038 C4F20203 		movt	r3, 16386
 703              		.loc 1 488 0
 704 003c 2520     		movs	r0, #37
 705              	.LVL70:
 706              		.loc 1 487 0
 707 003e 5A6C     		ldr	r2, [r3, #68]
 708 0040 22F01001 		bic	r1, r2, #16
 709              	.LVL71:
 710 0044 5964     		str	r1, [r3, #68]
 711              		.loc 1 528 0
 712              		.loc 1 488 0
 713 0046 FFF7FEBF 		b	nvicDisableVector
 714              	.LVL72:
 715              	.L73:
 716 004a 00BF     		.align	2
 717              	.L72:
 718 004c 00000000 		.word	.LANCHOR0
 719 0050 00000000 		.word	.LANCHOR1
 720              		.cfi_endproc
 721              	.LFE128:
 722              		.size	sd_lld_stop, .-sd_lld_stop
 723              		.global	SD2
 724              		.global	SD1
 725 0054 AFF30080 		.section	.rodata.default_config,"a",%progbits
 725      AFF30080 
 725      AFF30080 
 726              		.align	2
 727              		.set	.LANCHOR2,. + 0
 728              		.type	default_config, %object
 729              		.size	default_config, 12
ARM GAS  /var/folders/ng/s8655sgx1ys_4lf9jzm2w6n00000gn/T//ccPC48YK.s 			page 14


 730              	default_config:
 731 0000 00C20100 		.word	115200
 732 0004 0000     		.short	0
 733 0006 0040     		.short	16384
 734 0008 0000     		.short	0
 735 000a 0000     		.space	2
 736              		.section	.bss.SD1,"aw",%nobits
 737              		.align	2
 738              		.set	.LANCHOR0,. + 0
 739              		.type	SD1, %object
 740              		.size	SD1, 120
 741              	SD1:
 742 0000 00000000 		.space	120
 742      00000000 
 742      00000000 
 742      00000000 
 742      00000000 
 743              		.section	.bss.SD2,"aw",%nobits
 744              		.align	2
 745              		.set	.LANCHOR1,. + 0
 746              		.type	SD2, %object
 747              		.size	SD2, 120
 748              	SD2:
 749 0000 00000000 		.space	120
 749      00000000 
 749      00000000 
 749      00000000 
 749      00000000 
 750              		.text
 751              	.Letext0:
 752              		.file 2 "/Users/jseng/gccarm/bin/../lib/gcc/arm-none-eabi/4.7.4/include/stddef.h"
 753              		.file 3 "/Users/jseng/gccarm/bin/../lib/gcc/arm-none-eabi/4.7.4/../../../../arm-none-eabi/include/
 754              		.file 4 "../AithonLibrary/ChibiOS/os/ports/GCC/ARMCMx/chtypes.h"
 755              		.file 5 "../AithonLibrary/ChibiOS/os/kernel/include/chlists.h"
 756              		.file 6 "../AithonLibrary/ChibiOS/os/kernel/include/chthreads.h"
 757              		.file 7 "../AithonLibrary/ChibiOS/os/ports/GCC/ARMCMx/chcore_v7m.h"
 758              		.file 8 "../AithonLibrary/ChibiOS/os/kernel/include/chmtx.h"
 759              		.file 9 "../AithonLibrary/ChibiOS/os/kernel/include/chevents.h"
 760              		.file 10 "../AithonLibrary/ChibiOS/os/kernel/include/chqueues.h"
 761              		.file 11 "../AithonLibrary/ChibiOS/os/hal/platforms/STM32F4xx/stm32f4xx.h"
 762              		.file 12 "../AithonLibrary/ChibiOS/os/hal/include/serial.h"
 763              		.file 13 "../AithonLibrary/ChibiOS/os/hal/platforms/STM32/USARTv1/serial_lld.h"
 764              		.file 14 "../AithonLibrary/ChibiOS/os/ports/common/ARMCMx/nvic.h"
 765              		.file 15 "../AithonLibrary/ChibiOS/os/ports/common/ARMCMx/CMSIS/include/core_cm4.h"