ARM GAS  /var/folders/ng/s8655sgx1ys_4lf9jzm2w6n00000gn/T//ccPC48YK.s 			page 1


   1              		.syntax unified
   2              		.cpu cortex-m4
   3              		.eabi_attribute 27, 3
   4              		.fpu fpv4-sp-d16
   5              		.eabi_attribute 20, 1
   6              		.eabi_attribute 21, 1
   7              		.eabi_attribute 23, 3
   8              		.eabi_attribute 24, 1
   9              		.eabi_attribute 25, 1
  10              		.eabi_attribute 26, 1
  11              		.eabi_attribute 30, 2
  12              		.eabi_attribute 34, 1
  13              		.eabi_attribute 18, 4
  14              		.thumb
  15              		.file	"serial_lld.c"
  16              		.text
  17              	.Ltext0:
  18              		.cfi_sections	.debug_frame
  19              		.section	.text.notify1,"ax",%progbits
  20              		.align	2
  21              		.p2align 4,,15
  22              		.thumb
  23              		.thumb_func
  24              		.type	notify1, %function
  25              	notify1:
  26              	.LFB122:
  27              		.file 1 "../AithonLibrary/ChibiOS/os/hal/platforms/STM32/USARTv1/serial_lld.c"
  28              		.loc 1 203 0
  29              		.cfi_startproc
  30              		@ args = 0, pretend = 0, frame = 0
  31              		@ frame_needed = 0, uses_anonymous_args = 0
  32              		@ link register save eliminated.
  33              	.LVL0:
  34              		.loc 1 206 0
  35 0000 4FF48053 		mov	r3, #4096
  36 0004 C4F20103 		movt	r3, 16385
  37 0008 9A89     		ldrh	r2, [r3, #12]
  38 000a 90B2     		uxth	r0, r2
  39              	.LVL1:
  40 000c 40F08001 		orr	r1, r0, #128
  41 0010 9981     		strh	r1, [r3, #12]	@ movhi
  42 0012 7047     		bx	lr
  43              		.cfi_endproc
  44              	.LFE122:
  45              		.size	notify1, .-notify1
  46 0014 AFF30080 		.section	.text.notify2,"ax",%progbits
  46      AFF30080 
  46      AFF30080 
  47              		.align	2
  48              		.p2align 4,,15
  49              		.thumb
  50              		.thumb_func
  51              		.type	notify2, %function
  52              	notify2:
  53              	.LFB123:
  54              		.loc 1 211 0
  55              		.cfi_startproc
ARM GAS  /var/folders/ng/s8655sgx1ys_4lf9jzm2w6n00000gn/T//ccPC48YK.s 			page 2


  56              		@ args = 0, pretend = 0, frame = 0
  57              		@ frame_needed = 0, uses_anonymous_args = 0
  58              		@ link register save eliminated.
  59              	.LVL2:
  60              		.loc 1 214 0
  61 0000 4FF48843 		mov	r3, #17408
  62 0004 C4F20003 		movt	r3, 16384
  63 0008 9A89     		ldrh	r2, [r3, #12]
  64 000a 90B2     		uxth	r0, r2
  65              	.LVL3:
  66 000c 40F08001 		orr	r1, r0, #128
  67 0010 9981     		strh	r1, [r3, #12]	@ movhi
  68 0012 7047     		bx	lr
  69              		.cfi_endproc
  70              	.LFE123:
  71              		.size	notify2, .-notify2
  72              		.section	.text.serve_interrupt,"ax",%progbits
  73              		.align	2
  74              		.p2align 4,,15
  75              		.thumb
  76              		.thumb_func
  77              		.type	serve_interrupt, %function
  78              	serve_interrupt:
  79              	.LFB121:
  80              		.loc 1 154 0
  81              		.cfi_startproc
  82              		@ args = 0, pretend = 0, frame = 0
  83              		@ frame_needed = 0, uses_anonymous_args = 0
  84              	.LVL4:
  85 0000 2DE9F041 		push	{r4, r5, r6, r7, r8, lr}
  86              	.LCFI0:
  87              		.cfi_def_cfa_offset 24
  88              		.cfi_offset 4, -24
  89              		.cfi_offset 5, -20
  90              		.cfi_offset 6, -16
  91              		.cfi_offset 7, -12
  92              		.cfi_offset 8, -8
  93              		.cfi_offset 14, -4
  94              		.loc 1 155 0
  95 0004 456F     		ldr	r5, [r0, #116]
  96              	.LVL5:
  97              		.loc 1 156 0
  98 0006 B5F80C80 		ldrh	r8, [r5, #12]
  99              		.loc 1 157 0
 100 000a 2C88     		ldrh	r4, [r5, #0]
 101 000c A4B2     		uxth	r4, r4
 102              		.loc 1 160 0
 103 000e 04F48073 		and	r3, r4, #256
 104              		.loc 1 154 0
 105 0012 0646     		mov	r6, r0
 106              		.loc 1 160 0
 107 0014 98B2     		uxth	r0, r3
 108              	.LVL6:
 109              		.loc 1 156 0
 110 0016 1FFA88F8 		uxth	r8, r8
 111              	.LVL7:
 112              		.loc 1 160 0
ARM GAS  /var/folders/ng/s8655sgx1ys_4lf9jzm2w6n00000gn/T//ccPC48YK.s 			page 3


 113 001a 0028     		cmp	r0, #0
 114 001c 53D1     		bne	.L47
 115              	.LVL8:
 116              	.L4:
 117              	.LBB15:
 118              		.loc 1 168 0
 119 001e 2023     		movs	r3, #32
 120              	.LVL9:
 121              	@ 168 "../AithonLibrary/ChibiOS/os/hal/platforms/STM32/USARTv1/serial_lld.c" 1
 122 0020 83F31188 		msr     BASEPRI, r3
 123              	@ 0 "" 2
 124              	.LVL10:
 125              		.thumb
 126              	.LBE15:
 127              		.loc 1 169 0
 128 0024 2340     		ands	r3, r3, r4
 129              	.LVL11:
 130 0026 9AB2     		uxth	r2, r3
 131 0028 52B3     		cbz	r2, .L5
 132              	.LBB16:
 133              	.LBB17:
 134              		.loc 1 146 0
 135 002a 371D     		adds	r7, r6, #4
 136 002c 0AE0     		b	.L35
 137              	.LVL12:
 138              	.L6:
 139              	.LBE17:
 140              	.LBE16:
 141              		.loc 1 173 0
 142 002e A988     		ldrh	r1, [r5, #4]
 143 0030 3046     		mov	r0, r6
 144 0032 C9B2     		uxtb	r1, r1
 145 0034 FFF7FEFF 		bl	sdIncomingDataI
 146              	.LVL13:
 147              		.loc 1 174 0
 148 0038 2888     		ldrh	r0, [r5, #0]
 149 003a 84B2     		uxth	r4, r0
 150              	.LVL14:
 151              		.loc 1 169 0
 152 003c 04F02003 		and	r3, r4, #32
 153 0040 9AB2     		uxth	r2, r3
 154 0042 EAB1     		cbz	r2, .L5
 155              	.LVL15:
 156              	.L35:
 157              		.loc 1 171 0
 158 0044 2307     		lsls	r3, r4, #28
 159 0046 F2D0     		beq	.L6
 160              	.LVL16:
 161              	.LBB19:
 162              	.LBB18:
 163              		.loc 1 138 0
 164 0048 04F00803 		and	r3, r4, #8
 165 004c 98B2     		uxth	r0, r3
 166              		.loc 1 142 0
 167 004e 04F00202 		and	r2, r4, #2
 168              		.loc 1 139 0
 169 0052 0028     		cmp	r0, #0
ARM GAS  /var/folders/ng/s8655sgx1ys_4lf9jzm2w6n00000gn/T//ccPC48YK.s 			page 4


 170 0054 14BF     		ite	ne
 171 0056 8021     		movne	r1, #128
 172 0058 0021     		moveq	r1, #0
 173              	.LVL17:
 174              		.loc 1 142 0
 175 005a 93B2     		uxth	r3, r2
 176              		.loc 1 140 0
 177 005c 14F0010F 		tst	r4, #1
 178              		.loc 1 144 0
 179 0060 04F00404 		and	r4, r4, #4
 180              	.LVL18:
 181              		.loc 1 146 0
 182 0064 3846     		mov	r0, r7
 183              		.loc 1 141 0
 184 0066 18BF     		it	ne
 185 0068 41F02001 		orrne	r1, r1, #32
 186              	.LVL19:
 187              		.loc 1 144 0
 188 006c A2B2     		uxth	r2, r4
 189              		.loc 1 142 0
 190 006e 0BB1     		cbz	r3, .L9
 191              		.loc 1 143 0
 192 0070 41F04001 		orr	r1, r1, #64
 193              	.LVL20:
 194              	.L9:
 195              		.loc 1 144 0
 196 0074 0AB1     		cbz	r2, .L10
 197              		.loc 1 145 0
 198 0076 41F48071 		orr	r1, r1, #256
 199              	.LVL21:
 200              	.L10:
 201              		.loc 1 146 0
 202 007a FFF7FEFF 		bl	chEvtBroadcastFlagsI
 203              	.LVL22:
 204 007e D6E7     		b	.L6
 205              	.L5:
 206              	.LBE18:
 207              	.LBE19:
 208              	.LBB20:
 209              		.loc 1 176 0
 210 0080 0023     		movs	r3, #0
 211              	.LVL23:
 212              	@ 176 "../AithonLibrary/ChibiOS/os/hal/platforms/STM32/USARTv1/serial_lld.c" 1
 213 0082 83F31188 		msr     BASEPRI, r3
 214              	@ 0 "" 2
 215              	.LVL24:
 216              		.thumb
 217              	.LBE20:
 218              		.loc 1 179 0
 219 0086 08F08001 		and	r1, r8, #128
 220 008a 88B2     		uxth	r0, r1
 221 008c 18B1     		cbz	r0, .L12
 222              		.loc 1 179 0 is_stmt 0 discriminator 1
 223 008e 04F08003 		and	r3, r4, #128
 224              	.LVL25:
 225 0092 9AB2     		uxth	r2, r3
 226 0094 32BB     		cbnz	r2, .L48
ARM GAS  /var/folders/ng/s8655sgx1ys_4lf9jzm2w6n00000gn/T//ccPC48YK.s 			page 5


 227              	.LVL26:
 228              	.L12:
 229              		.loc 1 193 0 is_stmt 1
 230 0096 04F04004 		and	r4, r4, #64
 231 009a A4B2     		uxth	r4, r4
 232 009c 8CB1     		cbz	r4, .L3
 233              	.LBB21:
 234              		.loc 1 194 0
 235 009e 2023     		movs	r3, #32
 236              	.LVL27:
 237              	@ 194 "../AithonLibrary/ChibiOS/os/hal/platforms/STM32/USARTv1/serial_lld.c" 1
 238 00a0 83F31188 		msr     BASEPRI, r3
 239              	@ 0 "" 2
 240              	.LVL28:
 241              		.thumb
 242              	.LBE21:
 243              		.loc 1 195 0
 244 00a4 1021     		movs	r1, #16
 245 00a6 301D     		adds	r0, r6, #4
 246 00a8 FFF7FEFF 		bl	chEvtBroadcastFlagsI
 247              	.LVL29:
 248              	.LBB22:
 249              		.loc 1 196 0
 250 00ac 0023     		movs	r3, #0
 251              	.LVL30:
 252              	@ 196 "../AithonLibrary/ChibiOS/os/hal/platforms/STM32/USARTv1/serial_lld.c" 1
 253 00ae 83F31188 		msr     BASEPRI, r3
 254              	@ 0 "" 2
 255              	.LVL31:
 256              		.thumb
 257              	.LBE22:
 258              		.loc 1 197 0
 259 00b2 4FF63F72 		movw	r2, #65343
 260 00b6 08EA0201 		and	r1, r8, r2
 261              		.loc 1 198 0
 262 00ba 4FF6BF70 		movw	r0, #65471
 263              		.loc 1 197 0
 264 00be A981     		strh	r1, [r5, #12]	@ movhi
 265              		.loc 1 198 0
 266 00c0 2880     		strh	r0, [r5, #0]	@ movhi
 267              	.LVL32:
 268              	.L3:
 269 00c2 BDE8F081 		pop	{r4, r5, r6, r7, r8, pc}
 270              	.LVL33:
 271              	.L47:
 272              	.LBB23:
 273              		.loc 1 161 0
 274 00c6 2023     		movs	r3, #32
 275              	.LVL34:
 276              	@ 161 "../AithonLibrary/ChibiOS/os/hal/platforms/STM32/USARTv1/serial_lld.c" 1
 277 00c8 83F31188 		msr     BASEPRI, r3
 278              	@ 0 "" 2
 279              	.LVL35:
 280              		.thumb
 281              	.LBE23:
 282              		.loc 1 162 0
 283 00cc 4FF40071 		mov	r1, #512
ARM GAS  /var/folders/ng/s8655sgx1ys_4lf9jzm2w6n00000gn/T//ccPC48YK.s 			page 6


 284 00d0 301D     		adds	r0, r6, #4
 285 00d2 FFF7FEFF 		bl	chEvtBroadcastFlagsI
 286              	.LVL36:
 287              	.LBB24:
 288              		.loc 1 163 0
 289 00d6 0023     		movs	r3, #0
 290              	@ 163 "../AithonLibrary/ChibiOS/os/hal/platforms/STM32/USARTv1/serial_lld.c" 1
 291 00d8 83F31188 		msr     BASEPRI, r3
 292              	@ 0 "" 2
 293              	.LVL37:
 294              		.thumb
 295              	.LBE24:
 296              		.loc 1 164 0
 297 00dc 4FF6FF61 		movw	r1, #65279
 298 00e0 2980     		strh	r1, [r5, #0]	@ movhi
 299 00e2 9CE7     		b	.L4
 300              	.LVL38:
 301              	.L48:
 302              	.LBB25:
 303              	.LBB26:
 304              		.loc 1 181 0
 305 00e4 2023     		movs	r3, #32
 306              	.LVL39:
 307              	@ 181 "../AithonLibrary/ChibiOS/os/hal/platforms/STM32/USARTv1/serial_lld.c" 1
 308 00e6 83F31188 		msr     BASEPRI, r3
 309              	@ 0 "" 2
 310              	.LVL40:
 311              		.thumb
 312              	.LBE26:
 313              		.loc 1 182 0
 314 00ea 06F13000 		add	r0, r6, #48
 315 00ee FFF7FEFF 		bl	chOQGetI
 316              	.LVL41:
 317              		.loc 1 183 0
 318 00f2 0028     		cmp	r0, #0
 319 00f4 05DB     		blt	.L49
 320              		.loc 1 188 0
 321 00f6 81B2     		uxth	r1, r0
 322 00f8 A980     		strh	r1, [r5, #4]	@ movhi
 323              	.LVL42:
 324              	.L14:
 325              	.LBB27:
 326              		.loc 1 189 0
 327 00fa 0023     		movs	r3, #0
 328              	@ 189 "../AithonLibrary/ChibiOS/os/hal/platforms/STM32/USARTv1/serial_lld.c" 1
 329 00fc 83F31188 		msr     BASEPRI, r3
 330              	@ 0 "" 2
 331              	.LVL43:
 332              		.thumb
 333 0100 C9E7     		b	.L12
 334              	.LVL44:
 335              	.L49:
 336              	.LBE27:
 337              		.loc 1 184 0
 338 0102 301D     		adds	r0, r6, #4
 339              	.LVL45:
 340 0104 0821     		movs	r1, #8
ARM GAS  /var/folders/ng/s8655sgx1ys_4lf9jzm2w6n00000gn/T//ccPC48YK.s 			page 7


 341 0106 FFF7FEFF 		bl	chEvtBroadcastFlagsI
 342              	.LVL46:
 343              		.loc 1 185 0
 344 010a 28F0C000 		bic	r0, r8, #192
 345 010e 40F04003 		orr	r3, r0, #64
 346 0112 AB81     		strh	r3, [r5, #12]	@ movhi
 347 0114 F1E7     		b	.L14
 348              	.LBE25:
 349              		.cfi_endproc
 350              	.LFE121:
 351              		.size	serve_interrupt, .-serve_interrupt
 352 0116 00BFAFF3 		.section	.text.VectorD4,"ax",%progbits
 352      0080AFF3 
 352      0080
 353              		.align	2
 354              		.p2align 4,,15
 355              		.global	VectorD4
 356              		.thumb
 357              		.thumb_func
 358              		.type	VectorD4, %function
 359              	VectorD4:
 360              	.LFB124:
 361              		.loc 1 263 0
 362              		.cfi_startproc
 363              		@ args = 0, pretend = 0, frame = 0
 364              		@ frame_needed = 0, uses_anonymous_args = 0
 365 0000 08B5     		push	{r3, lr}
 366              	.LCFI1:
 367              		.cfi_def_cfa_offset 8
 368              		.cfi_offset 3, -8
 369              		.cfi_offset 14, -4
 370              		.loc 1 267 0
 371 0002 40F20000 		movw	r0, #:lower16:.LANCHOR0
 372 0006 C0F20000 		movt	r0, #:upper16:.LANCHOR0
 373 000a FFF7FEFF 		bl	serve_interrupt
 374              	.LVL47:
 375              		.loc 1 270 0
 376 000e BDE80840 		pop	{r3, lr}
 377              		.loc 1 269 0
 378 0012 FFF7FEBF 		b	_port_irq_epilogue
 379              	.LVL48:
 380              		.cfi_endproc
 381              	.LFE124:
 382              		.size	VectorD4, .-VectorD4
 383 0016 00BFAFF3 		.section	.text.VectorD8,"ax",%progbits
 383      0080AFF3 
 383      0080
 384              		.align	2
 385              		.p2align 4,,15
 386              		.global	VectorD8
 387              		.thumb
 388              		.thumb_func
 389              		.type	VectorD8, %function
 390              	VectorD8:
 391              	.LFB125:
 392              		.loc 1 282 0
 393              		.cfi_startproc
ARM GAS  /var/folders/ng/s8655sgx1ys_4lf9jzm2w6n00000gn/T//ccPC48YK.s 			page 8


 394              		@ args = 0, pretend = 0, frame = 0
 395              		@ frame_needed = 0, uses_anonymous_args = 0
 396 0000 08B5     		push	{r3, lr}
 397              	.LCFI2:
 398              		.cfi_def_cfa_offset 8
 399              		.cfi_offset 3, -8
 400              		.cfi_offset 14, -4
 401              		.loc 1 286 0
 402 0002 40F20000 		movw	r0, #:lower16:.LANCHOR1
 403 0006 C0F20000 		movt	r0, #:upper16:.LANCHOR1
 404 000a FFF7FEFF 		bl	serve_interrupt
 405              	.LVL49:
 406              		.loc 1 289 0
 407 000e BDE80840 		pop	{r3, lr}
 408              		.loc 1 288 0
 409 0012 FFF7FEBF 		b	_port_irq_epilogue
 410              	.LVL50:
 411              		.cfi_endproc
 412              	.LFE125:
 413              		.size	VectorD8, .-VectorD8
 414 0016 00BFAFF3 		.section	.text.sd_lld_init,"ax",%progbits
 414      0080AFF3 
 414      0080
 415              		.align	2
 416              		.p2align 4,,15
 417              		.global	sd_lld_init
 418              		.thumb
 419              		.thumb_func
 420              		.type	sd_lld_init, %function
 421              	sd_lld_init:
 422              	.LFB126:
 423              		.loc 1 377 0
 424              		.cfi_startproc
 425              		@ args = 0, pretend = 0, frame = 0
 426              		@ frame_needed = 0, uses_anonymous_args = 0
 427 0000 38B5     		push	{r3, r4, r5, lr}
 428              	.LCFI3:
 429              		.cfi_def_cfa_offset 16
 430              		.cfi_offset 3, -16
 431              		.cfi_offset 4, -12
 432              		.cfi_offset 5, -8
 433              		.cfi_offset 14, -4
 434              		.loc 1 380 0
 435 0002 40F20005 		movw	r5, #:lower16:.LANCHOR0
 436 0006 C0F20005 		movt	r5, #:upper16:.LANCHOR0
 437 000a 40F20002 		movw	r2, #:lower16:notify1
 438 000e 2846     		mov	r0, r5
 439 0010 0021     		movs	r1, #0
 440 0012 C0F20002 		movt	r2, #:upper16:notify1
 441              		.loc 1 385 0
 442 0016 40F20004 		movw	r4, #:lower16:.LANCHOR1
 443              		.loc 1 380 0
 444 001a FFF7FEFF 		bl	sdObjectInit
 445              	.LVL51:
 446              		.loc 1 385 0
 447 001e C0F20004 		movt	r4, #:upper16:.LANCHOR1
 448              		.loc 1 381 0
ARM GAS  /var/folders/ng/s8655sgx1ys_4lf9jzm2w6n00000gn/T//ccPC48YK.s 			page 9


 449 0022 4FF48053 		mov	r3, #4096
 450              		.loc 1 385 0
 451 0026 40F20002 		movw	r2, #:lower16:notify2
 452              		.loc 1 381 0
 453 002a C4F20103 		movt	r3, 16385
 454              		.loc 1 385 0
 455 002e 2046     		mov	r0, r4
 456 0030 0021     		movs	r1, #0
 457 0032 C0F20002 		movt	r2, #:upper16:notify2
 458              		.loc 1 381 0
 459 0036 6B67     		str	r3, [r5, #116]
 460              		.loc 1 385 0
 461 0038 FFF7FEFF 		bl	sdObjectInit
 462              	.LVL52:
 463              		.loc 1 386 0
 464 003c 4FF48840 		mov	r0, #17408
 465 0040 C4F20000 		movt	r0, 16384
 466 0044 6067     		str	r0, [r4, #116]
 467 0046 38BD     		pop	{r3, r4, r5, pc}
 468              		.cfi_endproc
 469              	.LFE126:
 470              		.size	sd_lld_init, .-sd_lld_init
 471 0048 AFF30080 		.section	.text.sd_lld_start,"ax",%progbits
 471      AFF30080 
 472              		.align	2
 473              		.p2align 4,,15
 474              		.global	sd_lld_start
 475              		.thumb
 476              		.thumb_func
 477              		.type	sd_lld_start, %function
 478              	sd_lld_start:
 479              	.LFB127:
 480              		.loc 1 420 0
 481              		.cfi_startproc
 482              		@ args = 0, pretend = 0, frame = 0
 483              		@ frame_needed = 0, uses_anonymous_args = 0
 484              	.LVL53:
 485 0000 38B5     		push	{r3, r4, r5, lr}
 486              	.LCFI4:
 487              		.cfi_def_cfa_offset 16
 488              		.cfi_offset 3, -16
 489              		.cfi_offset 4, -12
 490              		.cfi_offset 5, -8
 491              		.cfi_offset 14, -4
 492              		.loc 1 425 0
 493 0002 037A     		ldrb	r3, [r0, #8]	@ zero_extendqisi2
 494              		.loc 1 423 0
 495 0004 2D4C     		ldr	r4, .L63
 496 0006 0029     		cmp	r1, #0
 497 0008 18BF     		it	ne
 498 000a 0C46     		movne	r4, r1
 499              		.loc 1 425 0
 500 000c 012B     		cmp	r3, #1
 501              		.loc 1 420 0
 502 000e 0546     		mov	r5, r0
 503              		.loc 1 425 0
 504 0010 2BD0     		beq	.L61
ARM GAS  /var/folders/ng/s8655sgx1ys_4lf9jzm2w6n00000gn/T//ccPC48YK.s 			page 10


 505              	.LVL54:
 506              	.L55:
 507              	.LBB30:
 508              	.LBB31:
 509              		.loc 1 97 0
 510 0012 4FF48050 		mov	r0, #4096
 511              		.loc 1 93 0
 512 0016 6B6F     		ldr	r3, [r5, #116]
 513              	.LVL55:
 514              		.loc 1 101 0
 515 0018 2168     		ldr	r1, [r4, #0]
 516              		.loc 1 97 0
 517 001a C4F20100 		movt	r0, 16385
 518 001e 8342     		cmp	r3, r0
 519 0020 36D0     		beq	.L57
 520 0022 4FF4A052 		mov	r2, #5120
 521 0026 C4F20102 		movt	r2, 16385
 522 002a 9342     		cmp	r3, r2
 523 002c 30D0     		beq	.L57
 524              		.loc 1 103 0
 525 002e 4DF68060 		movw	r0, #56960
 526 0032 C0F28020 		movt	r0, 640
 527 0036 B0FBF1F1 		udiv	r1, r0, r1
 528 003a 8AB2     		uxth	r2, r1
 529 003c 1A81     		strh	r2, [r3, #8]	@ movhi
 530              	.L59:
 531              		.loc 1 108 0
 532 003e A288     		ldrh	r2, [r4, #4]
 533              		.loc 1 106 0
 534 0040 E088     		ldrh	r0, [r4, #6]
 535              		.loc 1 107 0
 536 0042 2189     		ldrh	r1, [r4, #8]
 537              		.loc 1 108 0
 538 0044 42F40452 		orr	r2, r2, #8448
 539              		.loc 1 106 0
 540 0048 40F04000 		orr	r0, r0, #64
 541 004c 80B2     		uxth	r0, r0
 542              		.loc 1 107 0
 543 004e 41F00101 		orr	r1, r1, #1
 544              		.loc 1 108 0
 545 0052 42F02C02 		orr	r2, r2, #44
 546              		.loc 1 106 0
 547 0056 1882     		strh	r0, [r3, #16]	@ movhi
 548              		.loc 1 108 0
 549 0058 92B2     		uxth	r2, r2
 550              		.loc 1 107 0
 551 005a 89B2     		uxth	r1, r1
 552              		.loc 1 111 0
 553 005c 0020     		movs	r0, #0
 554              		.loc 1 107 0
 555 005e 9982     		strh	r1, [r3, #20]	@ movhi
 556              		.loc 1 108 0
 557 0060 9A81     		strh	r2, [r3, #12]	@ movhi
 558              		.loc 1 111 0
 559 0062 1880     		strh	r0, [r3, #0]	@ movhi
 560              		.loc 1 112 0
 561 0064 1A88     		ldrh	r2, [r3, #0]
ARM GAS  /var/folders/ng/s8655sgx1ys_4lf9jzm2w6n00000gn/T//ccPC48YK.s 			page 11


 562              		.loc 1 113 0
 563 0066 9B88     		ldrh	r3, [r3, #4]
 564              	.LVL56:
 565 0068 38BD     		pop	{r3, r4, r5, pc}
 566              	.LVL57:
 567              	.L61:
 568              	.LBE31:
 569              	.LBE30:
 570              		.loc 1 427 0
 571 006a 1548     		ldr	r0, .L63+4
 572              	.LVL58:
 573 006c 8542     		cmp	r5, r0
 574 006e 18D0     		beq	.L62
 575              		.loc 1 434 0
 576 0070 1449     		ldr	r1, .L63+8
 577              	.LVL59:
 578 0072 8D42     		cmp	r5, r1
 579 0074 CDD1     		bne	.L55
 580              		.loc 1 435 0
 581 0076 4FF46053 		mov	r3, #14336
 582 007a C4F20203 		movt	r3, 16386
 583              		.loc 1 436 0
 584 007e 2620     		movs	r0, #38
 585              		.loc 1 435 0
 586 0080 1A6C     		ldr	r2, [r3, #64]
 587 0082 42F40031 		orr	r1, r2, #131072
 588 0086 1964     		str	r1, [r3, #64]
 589              		.loc 1 436 0
 590 0088 C021     		movs	r1, #192
 591 008a FFF7FEFF 		bl	nvicEnableVector
 592              	.LVL60:
 593 008e C0E7     		b	.L55
 594              	.LVL61:
 595              	.L57:
 596              	.LBB33:
 597              	.LBB32:
 598              		.loc 1 101 0
 599 0090 4FF43D40 		mov	r0, #48384
 600 0094 C0F20150 		movt	r0, 1281
 601 0098 B0FBF1F1 		udiv	r1, r0, r1
 602 009c 8AB2     		uxth	r2, r1
 603 009e 1A81     		strh	r2, [r3, #8]	@ movhi
 604 00a0 CDE7     		b	.L59
 605              	.LVL62:
 606              	.L62:
 607              	.LBE32:
 608              	.LBE33:
 609              		.loc 1 428 0
 610 00a2 4FF46053 		mov	r3, #14336
 611 00a6 C4F20203 		movt	r3, 16386
 612              		.loc 1 429 0
 613 00aa 2520     		movs	r0, #37
 614              		.loc 1 428 0
 615 00ac 5A6C     		ldr	r2, [r3, #68]
 616 00ae 42F01001 		orr	r1, r2, #16
 617              	.LVL63:
 618 00b2 5964     		str	r1, [r3, #68]
ARM GAS  /var/folders/ng/s8655sgx1ys_4lf9jzm2w6n00000gn/T//ccPC48YK.s 			page 12


 619              		.loc 1 429 0
 620 00b4 C021     		movs	r1, #192
 621 00b6 FFF7FEFF 		bl	nvicEnableVector
 622              	.LVL64:
 623 00ba AAE7     		b	.L55
 624              	.L64:
 625              		.align	2
 626              	.L63:
 627 00bc 00000000 		.word	.LANCHOR2
 628 00c0 00000000 		.word	.LANCHOR0
 629 00c4 00000000 		.word	.LANCHOR1
 630              		.cfi_endproc
 631              	.LFE127:
 632              		.size	sd_lld_start, .-sd_lld_start
 633 00c8 AFF30080 		.section	.text.sd_lld_stop,"ax",%progbits
 633      AFF30080 
 634              		.align	2
 635              		.p2align 4,,15
 636              		.global	sd_lld_stop
 637              		.thumb
 638              		.thumb_func
 639              		.type	sd_lld_stop, %function
 640              	sd_lld_stop:
 641              	.LFB128:
 642              		.loc 1 481 0
 643              		.cfi_startproc
 644              		@ args = 0, pretend = 0, frame = 0
 645              		@ frame_needed = 0, uses_anonymous_args = 0
 646              		@ link register save eliminated.
 647              	.LVL65:
 648              		.loc 1 483 0
 649 0000 037A     		ldrb	r3, [r0, #8]	@ zero_extendqisi2
 650 0002 022B     		cmp	r3, #2
 651 0004 00D0     		beq	.L70
 652              	.L65:
 653 0006 7047     		bx	lr
 654              	.L70:
 655              		.loc 1 486 0
 656 0008 104B     		ldr	r3, .L72
 657              		.loc 1 484 0
 658 000a 416F     		ldr	r1, [r0, #116]
 659              	.LVL66:
 660              	.LBB34:
 661              	.LBB35:
 662              		.loc 1 124 0
 663 000c 0022     		movs	r2, #0
 664              	.LBE35:
 665              	.LBE34:
 666              		.loc 1 486 0
 667 000e 9842     		cmp	r0, r3
 668              	.LBB37:
 669              	.LBB36:
 670              		.loc 1 124 0
 671 0010 8A81     		strh	r2, [r1, #12]	@ movhi
 672              		.loc 1 125 0
 673 0012 0A82     		strh	r2, [r1, #16]	@ movhi
 674              		.loc 1 126 0
ARM GAS  /var/folders/ng/s8655sgx1ys_4lf9jzm2w6n00000gn/T//ccPC48YK.s 			page 13


 675 0014 8A82     		strh	r2, [r1, #20]	@ movhi
 676              	.LBE36:
 677              	.LBE37:
 678              		.loc 1 486 0
 679 0016 0DD0     		beq	.L71
 680              		.loc 1 493 0
 681 0018 0D49     		ldr	r1, .L72+4
 682              	.LVL67:
 683 001a 8842     		cmp	r0, r1
 684 001c F3D1     		bne	.L65
 685              		.loc 1 494 0
 686 001e 4FF46053 		mov	r3, #14336
 687 0022 C4F20203 		movt	r3, 16386
 688              		.loc 1 495 0
 689 0026 2620     		movs	r0, #38
 690              	.LVL68:
 691              		.loc 1 494 0
 692 0028 1A6C     		ldr	r2, [r3, #64]
 693 002a 22F40031 		bic	r1, r2, #131072
 694 002e 1964     		str	r1, [r3, #64]
 695              		.loc 1 528 0
 696              		.loc 1 495 0
 697 0030 FFF7FEBF 		b	nvicDisableVector
 698              	.LVL69:
 699              	.L71:
 700              		.loc 1 487 0
 701 0034 4FF46053 		mov	r3, #14336
 702 0038 C4F20203 		movt	r3, 16386
 703              		.loc 1 488 0
 704 003c 2520     		movs	r0, #37
 705              	.LVL70:
 706              		.loc 1 487 0
 707 003e 5A6C     		ldr	r2, [r3, #68]
 708 0040 22F01001 		bic	r1, r2, #16
 709              	.LVL71:
 710 0044 5964     		str	r1, [r3, #68]
 711              		.loc 1 528 0
 712              		.loc 1 488 0
 713 0046 FFF7FEBF 		b	nvicDisableVector
 714              	.LVL72:
 715              	.L73:
 716 004a 00BF     		.align	2
 717              	.L72:
 718 004c 00000000 		.word	.LANCHOR0
 719 0050 00000000 		.word	.LANCHOR1
 720              		.cfi_endproc
 721              	.LFE128:
 722              		.size	sd_lld_stop, .-sd_lld_stop
 723              		.global	SD2
 724              		.global	SD1
 725 0054 AFF30080 		.section	.rodata.default_config,"a",%progbits
 725      AFF30080 
 725      AFF30080 
 726              		.align	2
 727              		.set	.LANCHOR2,. + 0
 728              		.type	default_config, %object
 729              		.size	default_config, 12
ARM GAS  /var/folders/ng/s8655sgx1ys_4lf9jzm2w6n00000gn/T//ccPC48YK.s 			page 14


 730              	default_config:
 731 0000 00C20100 		.word	115200
 732 0004 0000     		.short	0
 733 0006 0040     		.short	16384
 734 0008 0000     		.short	0
 735 000a 0000     		.space	2
 736              		.section	.bss.SD1,"aw",%nobits
 737              		.align	2
 738              		.set	.LANCHOR0,. + 0
 739              		.type	SD1, %object
 740              		.size	SD1, 120
 741              	SD1:
 742 0000 00000000 		.space	120
 742      00000000 
 742      00000000 
 742      00000000 
 742      00000000 
 743              		.section	.bss.SD2,"aw",%nobits
 744              		.align	2
 745              		.set	.LANCHOR1,. + 0
 746              		.type	SD2, %object
 747              		.size	SD2, 120
 748              	SD2:
 749 0000 00000000 		.space	120
 749      00000000 
 749      00000000 
 749      00000000 
 749      00000000 
 750              		.text
 751              	.Letext0:
 752              		.file 2 "/Users/jseng/gccarm/bin/../lib/gcc/arm-none-eabi/4.7.4/include/stddef.h"
 753              		.file 3 "/Users/jseng/gccarm/bin/../lib/gcc/arm-none-eabi/4.7.4/../../../../arm-none-eabi/include/
 754              		.file 4 "../AithonLibrary/ChibiOS/os/ports/GCC/ARMCMx/chtypes.h"
 755              		.file 5 "../AithonLibrary/ChibiOS/os/kernel/include/chlists.h"
 756              		.file 6 "../AithonLibrary/ChibiOS/os/kernel/include/chthreads.h"
 757              		.file 7 "../AithonLibrary/ChibiOS/os/ports/GCC/ARMCMx/chcore_v7m.h"
 758              		.file 8 "../AithonLibrary/ChibiOS/os/kernel/include/chmtx.h"
 759              		.file 9 "../AithonLibrary/ChibiOS/os/kernel/include/chevents.h"
 760              		.file 10 "../AithonLibrary/ChibiOS/os/kernel/include/chqueues.h"
 761              		.file 11 "../AithonLibrary/ChibiOS/os/hal/platforms/STM32F4xx/stm32f4xx.h"
 762              		.file 12 "../AithonLibrary/ChibiOS/os/hal/include/serial.h"
 763              		.file 13 "../AithonLibrary/ChibiOS/os/hal/platforms/STM32/USARTv1/serial_lld.h"
 764              		.file 14 "../AithonLibrary/ChibiOS/os/ports/common/ARMCMx/nvic.h"
 765              		.file 15 "../AithonLibrary/ChibiOS/os/ports/common/ARMCMx/CMSIS/include/core_cm4.h"
 766              		.section	.debug_info,"",%progbits
 767              	.Ldebug_info0:
 768 0000 C5130000 		.4byte	0x13c5
 769 0004 0200     		.2byte	0x2
 770 0006 00000000 		.4byte	.Ldebug_abbrev0
 771 000a 04       		.byte	0x4
 772 000b 01       		.uleb128 0x1
 773 000c E7000000 		.4byte	.LASF244
 774 0010 01       		.byte	0x1
 775 0011 C8080000 		.4byte	.LASF245
 776 0015 25050000 		.4byte	.LASF246
 777 0019 78000000 		.4byte	.Ldebug_ranges0+0x78
 778 001d 00000000 		.4byte	0
ARM GAS  /var/folders/ng/s8655sgx1ys_4lf9jzm2w6n00000gn/T//ccPC48YK.s 			page 15


 779 0021 00000000 		.4byte	0
 780 0025 00000000 		.4byte	.Ldebug_line0
 781 0029 02       		.uleb128 0x2
 782 002a 04       		.byte	0x4
 783 002b 05       		.byte	0x5
 784 002c 696E7400 		.ascii	"int\000"
 785 0030 03       		.uleb128 0x3
 786 0031 00000000 		.4byte	.LASF2
 787 0035 02       		.byte	0x2
 788 0036 D5       		.byte	0xd5
 789 0037 3B000000 		.4byte	0x3b
 790 003b 04       		.uleb128 0x4
 791 003c 04       		.byte	0x4
 792 003d 07       		.byte	0x7
 793 003e B1060000 		.4byte	.LASF0
 794 0042 04       		.uleb128 0x4
 795 0043 01       		.byte	0x1
 796 0044 06       		.byte	0x6
 797 0045 8F020000 		.4byte	.LASF1
 798 0049 03       		.uleb128 0x3
 799 004a A5020000 		.4byte	.LASF3
 800 004e 03       		.byte	0x3
 801 004f 2A       		.byte	0x2a
 802 0050 54000000 		.4byte	0x54
 803 0054 04       		.uleb128 0x4
 804 0055 01       		.byte	0x1
 805 0056 08       		.byte	0x8
 806 0057 E7020000 		.4byte	.LASF4
 807 005b 04       		.uleb128 0x4
 808 005c 02       		.byte	0x2
 809 005d 05       		.byte	0x5
 810 005e CC090000 		.4byte	.LASF5
 811 0062 03       		.uleb128 0x3
 812 0063 62080000 		.4byte	.LASF6
 813 0067 03       		.byte	0x3
 814 0068 36       		.byte	0x36
 815 0069 6D000000 		.4byte	0x6d
 816 006d 04       		.uleb128 0x4
 817 006e 02       		.byte	0x2
 818 006f 07       		.byte	0x7
 819 0070 BF0A0000 		.4byte	.LASF7
 820 0074 03       		.uleb128 0x3
 821 0075 51000000 		.4byte	.LASF8
 822 0079 03       		.byte	0x3
 823 007a 4F       		.byte	0x4f
 824 007b 7F000000 		.4byte	0x7f
 825 007f 04       		.uleb128 0x4
 826 0080 04       		.byte	0x4
 827 0081 05       		.byte	0x5
 828 0082 DB010000 		.4byte	.LASF9
 829 0086 03       		.uleb128 0x3
 830 0087 680A0000 		.4byte	.LASF10
 831 008b 03       		.byte	0x3
 832 008c 50       		.byte	0x50
 833 008d 91000000 		.4byte	0x91
 834 0091 04       		.uleb128 0x4
 835 0092 04       		.byte	0x4
ARM GAS  /var/folders/ng/s8655sgx1ys_4lf9jzm2w6n00000gn/T//ccPC48YK.s 			page 16


 836 0093 07       		.byte	0x7
 837 0094 ED040000 		.4byte	.LASF11
 838 0098 04       		.uleb128 0x4
 839 0099 08       		.byte	0x8
 840 009a 05       		.byte	0x5
 841 009b EA050000 		.4byte	.LASF12
 842 009f 04       		.uleb128 0x4
 843 00a0 08       		.byte	0x8
 844 00a1 07       		.byte	0x7
 845 00a2 43080000 		.4byte	.LASF13
 846 00a6 04       		.uleb128 0x4
 847 00a7 01       		.byte	0x1
 848 00a8 02       		.byte	0x2
 849 00a9 51030000 		.4byte	.LASF14
 850 00ad 03       		.uleb128 0x3
 851 00ae 38090000 		.4byte	.LASF15
 852 00b2 04       		.byte	0x4
 853 00b3 2C       		.byte	0x2c
 854 00b4 49000000 		.4byte	0x49
 855 00b8 03       		.uleb128 0x3
 856 00b9 1B020000 		.4byte	.LASF16
 857 00bd 04       		.byte	0x4
 858 00be 2D       		.byte	0x2d
 859 00bf 49000000 		.4byte	0x49
 860 00c3 03       		.uleb128 0x3
 861 00c4 1F0A0000 		.4byte	.LASF17
 862 00c8 04       		.byte	0x4
 863 00c9 2E       		.byte	0x2e
 864 00ca 49000000 		.4byte	0x49
 865 00ce 03       		.uleb128 0x3
 866 00cf 92080000 		.4byte	.LASF18
 867 00d3 04       		.byte	0x4
 868 00d4 2F       		.byte	0x2f
 869 00d5 49000000 		.4byte	0x49
 870 00d9 03       		.uleb128 0x3
 871 00da 3E000000 		.4byte	.LASF19
 872 00de 04       		.byte	0x4
 873 00df 30       		.byte	0x30
 874 00e0 86000000 		.4byte	0x86
 875 00e4 03       		.uleb128 0x3
 876 00e5 6B080000 		.4byte	.LASF20
 877 00e9 04       		.byte	0x4
 878 00ea 31       		.byte	0x31
 879 00eb 74000000 		.4byte	0x74
 880 00ef 03       		.uleb128 0x3
 881 00f0 AD020000 		.4byte	.LASF21
 882 00f4 04       		.byte	0x4
 883 00f5 33       		.byte	0x33
 884 00f6 86000000 		.4byte	0x86
 885 00fa 03       		.uleb128 0x3
 886 00fb 37070000 		.4byte	.LASF22
 887 00ff 04       		.byte	0x4
 888 0100 34       		.byte	0x34
 889 0101 86000000 		.4byte	0x86
 890 0105 03       		.uleb128 0x3
 891 0106 23000000 		.4byte	.LASF23
 892 010a 04       		.byte	0x4
ARM GAS  /var/folders/ng/s8655sgx1ys_4lf9jzm2w6n00000gn/T//ccPC48YK.s 			page 17


 893 010b 35       		.byte	0x35
 894 010c 86000000 		.4byte	0x86
 895 0110 03       		.uleb128 0x3
 896 0111 F8090000 		.4byte	.LASF24
 897 0115 05       		.byte	0x5
 898 0116 2A       		.byte	0x2a
 899 0117 1B010000 		.4byte	0x11b
 900 011b 05       		.uleb128 0x5
 901 011c F8090000 		.4byte	.LASF24
 902 0120 48       		.byte	0x48
 903 0121 06       		.byte	0x6
 904 0122 5E       		.byte	0x5e
 905 0123 40020000 		.4byte	0x240
 906 0127 06       		.uleb128 0x6
 907 0128 E4010000 		.4byte	.LASF25
 908 012c 06       		.byte	0x6
 909 012d 5F       		.byte	0x5f
 910 012e 65020000 		.4byte	0x265
 911 0132 02       		.byte	0x2
 912 0133 23       		.byte	0x23
 913 0134 00       		.uleb128 0
 914 0135 06       		.uleb128 0x6
 915 0136 F3010000 		.4byte	.LASF26
 916 013a 06       		.byte	0x6
 917 013b 61       		.byte	0x61
 918 013c 65020000 		.4byte	0x265
 919 0140 02       		.byte	0x2
 920 0141 23       		.byte	0x23
 921 0142 04       		.uleb128 0x4
 922 0143 06       		.uleb128 0x6
 923 0144 94030000 		.4byte	.LASF27
 924 0148 06       		.byte	0x6
 925 0149 63       		.byte	0x63
 926 014a D9000000 		.4byte	0xd9
 927 014e 02       		.byte	0x2
 928 014f 23       		.byte	0x23
 929 0150 08       		.uleb128 0x8
 930 0151 06       		.uleb128 0x6
 931 0152 38000000 		.4byte	.LASF28
 932 0156 06       		.byte	0x6
 933 0157 64       		.byte	0x64
 934 0158 23040000 		.4byte	0x423
 935 015c 02       		.byte	0x2
 936 015d 23       		.byte	0x23
 937 015e 0C       		.uleb128 0xc
 938 015f 06       		.uleb128 0x6
 939 0160 D3010000 		.4byte	.LASF29
 940 0164 06       		.byte	0x6
 941 0165 66       		.byte	0x66
 942 0166 65020000 		.4byte	0x265
 943 016a 02       		.byte	0x2
 944 016b 23       		.byte	0x23
 945 016c 10       		.uleb128 0x10
 946 016d 06       		.uleb128 0x6
 947 016e 5A080000 		.4byte	.LASF30
 948 0172 06       		.byte	0x6
 949 0173 67       		.byte	0x67
ARM GAS  /var/folders/ng/s8655sgx1ys_4lf9jzm2w6n00000gn/T//ccPC48YK.s 			page 18


 950 0174 65020000 		.4byte	0x265
 951 0178 02       		.byte	0x2
 952 0179 23       		.byte	0x23
 953 017a 14       		.uleb128 0x14
 954 017b 06       		.uleb128 0x6
 955 017c 550B0000 		.4byte	.LASF31
 956 0180 06       		.byte	0x6
 957 0181 6E       		.byte	0x6e
 958 0182 50050000 		.4byte	0x550
 959 0186 02       		.byte	0x2
 960 0187 23       		.byte	0x23
 961 0188 18       		.uleb128 0x18
 962 0189 06       		.uleb128 0x6
 963 018a 8F0B0000 		.4byte	.LASF32
 964 018e 06       		.byte	0x6
 965 018f 79       		.byte	0x79
 966 0190 B8000000 		.4byte	0xb8
 967 0194 02       		.byte	0x2
 968 0195 23       		.byte	0x23
 969 0196 1C       		.uleb128 0x1c
 970 0197 06       		.uleb128 0x6
 971 0198 A4060000 		.4byte	.LASF33
 972 019c 06       		.byte	0x6
 973 019d 7D       		.byte	0x7d
 974 019e AD000000 		.4byte	0xad
 975 01a2 02       		.byte	0x2
 976 01a3 23       		.byte	0x23
 977 01a4 1D       		.uleb128 0x1d
 978 01a5 06       		.uleb128 0x6
 979 01a6 EC060000 		.4byte	.LASF34
 980 01aa 06       		.byte	0x6
 981 01ab 82       		.byte	0x82
 982 01ac C3000000 		.4byte	0xc3
 983 01b0 02       		.byte	0x2
 984 01b1 23       		.byte	0x23
 985 01b2 1E       		.uleb128 0x1e
 986 01b3 06       		.uleb128 0x6
 987 01b4 9B020000 		.4byte	.LASF35
 988 01b8 06       		.byte	0x6
 989 01b9 88       		.byte	0x88
 990 01ba CE000000 		.4byte	0xce
 991 01be 02       		.byte	0x2
 992 01bf 23       		.byte	0x23
 993 01c0 1F       		.uleb128 0x1f
 994 01c1 06       		.uleb128 0x6
 995 01c2 62070000 		.4byte	.LASF36
 996 01c6 06       		.byte	0x6
 997 01c7 8F       		.byte	0x8f
 998 01c8 52040000 		.4byte	0x452
 999 01cc 02       		.byte	0x2
 1000 01cd 23       		.byte	0x23
 1001 01ce 20       		.uleb128 0x20
 1002 01cf 07       		.uleb128 0x7
 1003 01d0 705F7500 		.ascii	"p_u\000"
 1004 01d4 06       		.byte	0x6
 1005 01d5 B4       		.byte	0xb4
 1006 01d6 1B050000 		.4byte	0x51b
ARM GAS  /var/folders/ng/s8655sgx1ys_4lf9jzm2w6n00000gn/T//ccPC48YK.s 			page 19


 1007 01da 02       		.byte	0x2
 1008 01db 23       		.byte	0x23
 1009 01dc 24       		.uleb128 0x24
 1010 01dd 06       		.uleb128 0x6
 1011 01de 71060000 		.4byte	.LASF37
 1012 01e2 06       		.byte	0x6
 1013 01e3 B9       		.byte	0xb9
 1014 01e4 8D020000 		.4byte	0x28d
 1015 01e8 02       		.byte	0x2
 1016 01e9 23       		.byte	0x23
 1017 01ea 28       		.uleb128 0x28
 1018 01eb 06       		.uleb128 0x6
 1019 01ec 46000000 		.4byte	.LASF38
 1020 01f0 06       		.byte	0x6
 1021 01f1 BF       		.byte	0xbf
 1022 01f2 6B020000 		.4byte	0x26b
 1023 01f6 02       		.byte	0x2
 1024 01f7 23       		.byte	0x23
 1025 01f8 2C       		.uleb128 0x2c
 1026 01f9 06       		.uleb128 0x6
 1027 01fa 7D0B0000 		.4byte	.LASF39
 1028 01fe 06       		.byte	0x6
 1029 01ff C3       		.byte	0xc3
 1030 0200 E4000000 		.4byte	0xe4
 1031 0204 02       		.byte	0x2
 1032 0205 23       		.byte	0x23
 1033 0206 34       		.uleb128 0x34
 1034 0207 06       		.uleb128 0x6
 1035 0208 38040000 		.4byte	.LASF40
 1036 020c 06       		.byte	0x6
 1037 020d C9       		.byte	0xc9
 1038 020e EF000000 		.4byte	0xef
 1039 0212 02       		.byte	0x2
 1040 0213 23       		.byte	0x23
 1041 0214 38       		.uleb128 0x38
 1042 0215 06       		.uleb128 0x6
 1043 0216 24020000 		.4byte	.LASF41
 1044 021a 06       		.byte	0x6
 1045 021b D0       		.byte	0xd0
 1046 021c 62050000 		.4byte	0x562
 1047 0220 02       		.byte	0x2
 1048 0221 23       		.byte	0x23
 1049 0222 3C       		.uleb128 0x3c
 1050 0223 06       		.uleb128 0x6
 1051 0224 B0070000 		.4byte	.LASF42
 1052 0228 06       		.byte	0x6
 1053 0229 D4       		.byte	0xd4
 1054 022a D9000000 		.4byte	0xd9
 1055 022e 02       		.byte	0x2
 1056 022f 23       		.byte	0x23
 1057 0230 40       		.uleb128 0x40
 1058 0231 06       		.uleb128 0x6
 1059 0232 D7060000 		.4byte	.LASF43
 1060 0236 06       		.byte	0x6
 1061 0237 DA       		.byte	0xda
 1062 0238 A3020000 		.4byte	0x2a3
 1063 023c 02       		.byte	0x2
ARM GAS  /var/folders/ng/s8655sgx1ys_4lf9jzm2w6n00000gn/T//ccPC48YK.s 			page 20


 1064 023d 23       		.byte	0x23
 1065 023e 44       		.uleb128 0x44
 1066 023f 00       		.byte	0
 1067 0240 08       		.uleb128 0x8
 1068 0241 08       		.byte	0x8
 1069 0242 05       		.byte	0x5
 1070 0243 61       		.byte	0x61
 1071 0244 65020000 		.4byte	0x265
 1072 0248 06       		.uleb128 0x6
 1073 0249 E4010000 		.4byte	.LASF25
 1074 024d 05       		.byte	0x5
 1075 024e 62       		.byte	0x62
 1076 024f 65020000 		.4byte	0x265
 1077 0253 02       		.byte	0x2
 1078 0254 23       		.byte	0x23
 1079 0255 00       		.uleb128 0
 1080 0256 06       		.uleb128 0x6
 1081 0257 F3010000 		.4byte	.LASF26
 1082 025b 05       		.byte	0x5
 1083 025c 64       		.byte	0x64
 1084 025d 65020000 		.4byte	0x265
 1085 0261 02       		.byte	0x2
 1086 0262 23       		.byte	0x23
 1087 0263 04       		.uleb128 0x4
 1088 0264 00       		.byte	0
 1089 0265 09       		.uleb128 0x9
 1090 0266 04       		.byte	0x4
 1091 0267 10010000 		.4byte	0x110
 1092 026b 03       		.uleb128 0x3
 1093 026c 880A0000 		.4byte	.LASF44
 1094 0270 05       		.byte	0x5
 1095 0271 66       		.byte	0x66
 1096 0272 40020000 		.4byte	0x240
 1097 0276 08       		.uleb128 0x8
 1098 0277 04       		.byte	0x4
 1099 0278 05       		.byte	0x5
 1100 0279 6B       		.byte	0x6b
 1101 027a 8D020000 		.4byte	0x28d
 1102 027e 06       		.uleb128 0x6
 1103 027f E4010000 		.4byte	.LASF25
 1104 0283 05       		.byte	0x5
 1105 0284 6D       		.byte	0x6d
 1106 0285 65020000 		.4byte	0x265
 1107 0289 02       		.byte	0x2
 1108 028a 23       		.byte	0x23
 1109 028b 00       		.uleb128 0
 1110 028c 00       		.byte	0
 1111 028d 03       		.uleb128 0x3
 1112 028e 0F070000 		.4byte	.LASF45
 1113 0292 05       		.byte	0x5
 1114 0293 70       		.byte	0x70
 1115 0294 76020000 		.4byte	0x276
 1116 0298 03       		.uleb128 0x3
 1117 0299 4D020000 		.4byte	.LASF46
 1118 029d 07       		.byte	0x7
 1119 029e E5       		.byte	0xe5
 1120 029f A3020000 		.4byte	0x2a3
ARM GAS  /var/folders/ng/s8655sgx1ys_4lf9jzm2w6n00000gn/T//ccPC48YK.s 			page 21


 1121 02a3 0A       		.uleb128 0xa
 1122 02a4 04       		.byte	0x4
 1123 02a5 0B       		.uleb128 0xb
 1124 02a6 2B040000 		.4byte	.LASF47
 1125 02aa 64       		.byte	0x64
 1126 02ab 07       		.byte	0x7
 1127 02ac 0C01     		.2byte	0x10c
 1128 02ae 23040000 		.4byte	0x423
 1129 02b2 0C       		.uleb128 0xc
 1130 02b3 73313600 		.ascii	"s16\000"
 1131 02b7 07       		.byte	0x7
 1132 02b8 0E01     		.2byte	0x10e
 1133 02ba 98020000 		.4byte	0x298
 1134 02be 02       		.byte	0x2
 1135 02bf 23       		.byte	0x23
 1136 02c0 00       		.uleb128 0
 1137 02c1 0C       		.uleb128 0xc
 1138 02c2 73313700 		.ascii	"s17\000"
 1139 02c6 07       		.byte	0x7
 1140 02c7 0F01     		.2byte	0x10f
 1141 02c9 98020000 		.4byte	0x298
 1142 02cd 02       		.byte	0x2
 1143 02ce 23       		.byte	0x23
 1144 02cf 04       		.uleb128 0x4
 1145 02d0 0C       		.uleb128 0xc
 1146 02d1 73313800 		.ascii	"s18\000"
 1147 02d5 07       		.byte	0x7
 1148 02d6 1001     		.2byte	0x110
 1149 02d8 98020000 		.4byte	0x298
 1150 02dc 02       		.byte	0x2
 1151 02dd 23       		.byte	0x23
 1152 02de 08       		.uleb128 0x8
 1153 02df 0C       		.uleb128 0xc
 1154 02e0 73313900 		.ascii	"s19\000"
 1155 02e4 07       		.byte	0x7
 1156 02e5 1101     		.2byte	0x111
 1157 02e7 98020000 		.4byte	0x298
 1158 02eb 02       		.byte	0x2
 1159 02ec 23       		.byte	0x23
 1160 02ed 0C       		.uleb128 0xc
 1161 02ee 0C       		.uleb128 0xc
 1162 02ef 73323000 		.ascii	"s20\000"
 1163 02f3 07       		.byte	0x7
 1164 02f4 1201     		.2byte	0x112
 1165 02f6 98020000 		.4byte	0x298
 1166 02fa 02       		.byte	0x2
 1167 02fb 23       		.byte	0x23
 1168 02fc 10       		.uleb128 0x10
 1169 02fd 0C       		.uleb128 0xc
 1170 02fe 73323100 		.ascii	"s21\000"
 1171 0302 07       		.byte	0x7
 1172 0303 1301     		.2byte	0x113
 1173 0305 98020000 		.4byte	0x298
 1174 0309 02       		.byte	0x2
 1175 030a 23       		.byte	0x23
 1176 030b 14       		.uleb128 0x14
 1177 030c 0C       		.uleb128 0xc
ARM GAS  /var/folders/ng/s8655sgx1ys_4lf9jzm2w6n00000gn/T//ccPC48YK.s 			page 22


 1178 030d 73323200 		.ascii	"s22\000"
 1179 0311 07       		.byte	0x7
 1180 0312 1401     		.2byte	0x114
 1181 0314 98020000 		.4byte	0x298
 1182 0318 02       		.byte	0x2
 1183 0319 23       		.byte	0x23
 1184 031a 18       		.uleb128 0x18
 1185 031b 0C       		.uleb128 0xc
 1186 031c 73323300 		.ascii	"s23\000"
 1187 0320 07       		.byte	0x7
 1188 0321 1501     		.2byte	0x115
 1189 0323 98020000 		.4byte	0x298
 1190 0327 02       		.byte	0x2
 1191 0328 23       		.byte	0x23
 1192 0329 1C       		.uleb128 0x1c
 1193 032a 0C       		.uleb128 0xc
 1194 032b 73323400 		.ascii	"s24\000"
 1195 032f 07       		.byte	0x7
 1196 0330 1601     		.2byte	0x116
 1197 0332 98020000 		.4byte	0x298
 1198 0336 02       		.byte	0x2
 1199 0337 23       		.byte	0x23
 1200 0338 20       		.uleb128 0x20
 1201 0339 0C       		.uleb128 0xc
 1202 033a 73323500 		.ascii	"s25\000"
 1203 033e 07       		.byte	0x7
 1204 033f 1701     		.2byte	0x117
 1205 0341 98020000 		.4byte	0x298
 1206 0345 02       		.byte	0x2
 1207 0346 23       		.byte	0x23
 1208 0347 24       		.uleb128 0x24
 1209 0348 0C       		.uleb128 0xc
 1210 0349 73323600 		.ascii	"s26\000"
 1211 034d 07       		.byte	0x7
 1212 034e 1801     		.2byte	0x118
 1213 0350 98020000 		.4byte	0x298
 1214 0354 02       		.byte	0x2
 1215 0355 23       		.byte	0x23
 1216 0356 28       		.uleb128 0x28
 1217 0357 0C       		.uleb128 0xc
 1218 0358 73323700 		.ascii	"s27\000"
 1219 035c 07       		.byte	0x7
 1220 035d 1901     		.2byte	0x119
 1221 035f 98020000 		.4byte	0x298
 1222 0363 02       		.byte	0x2
 1223 0364 23       		.byte	0x23
 1224 0365 2C       		.uleb128 0x2c
 1225 0366 0C       		.uleb128 0xc
 1226 0367 73323800 		.ascii	"s28\000"
 1227 036b 07       		.byte	0x7
 1228 036c 1A01     		.2byte	0x11a
 1229 036e 98020000 		.4byte	0x298
 1230 0372 02       		.byte	0x2
 1231 0373 23       		.byte	0x23
 1232 0374 30       		.uleb128 0x30
 1233 0375 0C       		.uleb128 0xc
 1234 0376 73323900 		.ascii	"s29\000"
ARM GAS  /var/folders/ng/s8655sgx1ys_4lf9jzm2w6n00000gn/T//ccPC48YK.s 			page 23


 1235 037a 07       		.byte	0x7
 1236 037b 1B01     		.2byte	0x11b
 1237 037d 98020000 		.4byte	0x298
 1238 0381 02       		.byte	0x2
 1239 0382 23       		.byte	0x23
 1240 0383 34       		.uleb128 0x34
 1241 0384 0C       		.uleb128 0xc
 1242 0385 73333000 		.ascii	"s30\000"
 1243 0389 07       		.byte	0x7
 1244 038a 1C01     		.2byte	0x11c
 1245 038c 98020000 		.4byte	0x298
 1246 0390 02       		.byte	0x2
 1247 0391 23       		.byte	0x23
 1248 0392 38       		.uleb128 0x38
 1249 0393 0C       		.uleb128 0xc
 1250 0394 73333100 		.ascii	"s31\000"
 1251 0398 07       		.byte	0x7
 1252 0399 1D01     		.2byte	0x11d
 1253 039b 98020000 		.4byte	0x298
 1254 039f 02       		.byte	0x2
 1255 03a0 23       		.byte	0x23
 1256 03a1 3C       		.uleb128 0x3c
 1257 03a2 0C       		.uleb128 0xc
 1258 03a3 723400   		.ascii	"r4\000"
 1259 03a6 07       		.byte	0x7
 1260 03a7 1F01     		.2byte	0x11f
 1261 03a9 98020000 		.4byte	0x298
 1262 03ad 02       		.byte	0x2
 1263 03ae 23       		.byte	0x23
 1264 03af 40       		.uleb128 0x40
 1265 03b0 0C       		.uleb128 0xc
 1266 03b1 723500   		.ascii	"r5\000"
 1267 03b4 07       		.byte	0x7
 1268 03b5 2001     		.2byte	0x120
 1269 03b7 98020000 		.4byte	0x298
 1270 03bb 02       		.byte	0x2
 1271 03bc 23       		.byte	0x23
 1272 03bd 44       		.uleb128 0x44
 1273 03be 0C       		.uleb128 0xc
 1274 03bf 723600   		.ascii	"r6\000"
 1275 03c2 07       		.byte	0x7
 1276 03c3 2101     		.2byte	0x121
 1277 03c5 98020000 		.4byte	0x298
 1278 03c9 02       		.byte	0x2
 1279 03ca 23       		.byte	0x23
 1280 03cb 48       		.uleb128 0x48
 1281 03cc 0C       		.uleb128 0xc
 1282 03cd 723700   		.ascii	"r7\000"
 1283 03d0 07       		.byte	0x7
 1284 03d1 2201     		.2byte	0x122
 1285 03d3 98020000 		.4byte	0x298
 1286 03d7 02       		.byte	0x2
 1287 03d8 23       		.byte	0x23
 1288 03d9 4C       		.uleb128 0x4c
 1289 03da 0C       		.uleb128 0xc
 1290 03db 723800   		.ascii	"r8\000"
 1291 03de 07       		.byte	0x7
ARM GAS  /var/folders/ng/s8655sgx1ys_4lf9jzm2w6n00000gn/T//ccPC48YK.s 			page 24


 1292 03df 2301     		.2byte	0x123
 1293 03e1 98020000 		.4byte	0x298
 1294 03e5 02       		.byte	0x2
 1295 03e6 23       		.byte	0x23
 1296 03e7 50       		.uleb128 0x50
 1297 03e8 0C       		.uleb128 0xc
 1298 03e9 723900   		.ascii	"r9\000"
 1299 03ec 07       		.byte	0x7
 1300 03ed 2401     		.2byte	0x124
 1301 03ef 98020000 		.4byte	0x298
 1302 03f3 02       		.byte	0x2
 1303 03f4 23       		.byte	0x23
 1304 03f5 54       		.uleb128 0x54
 1305 03f6 0C       		.uleb128 0xc
 1306 03f7 72313000 		.ascii	"r10\000"
 1307 03fb 07       		.byte	0x7
 1308 03fc 2501     		.2byte	0x125
 1309 03fe 98020000 		.4byte	0x298
 1310 0402 02       		.byte	0x2
 1311 0403 23       		.byte	0x23
 1312 0404 58       		.uleb128 0x58
 1313 0405 0C       		.uleb128 0xc
 1314 0406 72313100 		.ascii	"r11\000"
 1315 040a 07       		.byte	0x7
 1316 040b 2601     		.2byte	0x126
 1317 040d 98020000 		.4byte	0x298
 1318 0411 02       		.byte	0x2
 1319 0412 23       		.byte	0x23
 1320 0413 5C       		.uleb128 0x5c
 1321 0414 0C       		.uleb128 0xc
 1322 0415 6C7200   		.ascii	"lr\000"
 1323 0418 07       		.byte	0x7
 1324 0419 2701     		.2byte	0x127
 1325 041b 98020000 		.4byte	0x298
 1326 041f 02       		.byte	0x2
 1327 0420 23       		.byte	0x23
 1328 0421 60       		.uleb128 0x60
 1329 0422 00       		.byte	0
 1330 0423 0B       		.uleb128 0xb
 1331 0424 B9020000 		.4byte	.LASF48
 1332 0428 04       		.byte	0x4
 1333 0429 07       		.byte	0x7
 1334 042a 3101     		.2byte	0x131
 1335 042c 40040000 		.4byte	0x440
 1336 0430 0C       		.uleb128 0xc
 1337 0431 72313300 		.ascii	"r13\000"
 1338 0435 07       		.byte	0x7
 1339 0436 3201     		.2byte	0x132
 1340 0438 40040000 		.4byte	0x440
 1341 043c 02       		.byte	0x2
 1342 043d 23       		.byte	0x23
 1343 043e 00       		.uleb128 0
 1344 043f 00       		.byte	0
 1345 0440 09       		.uleb128 0x9
 1346 0441 04       		.byte	0x4
 1347 0442 A5020000 		.4byte	0x2a5
 1348 0446 0D       		.uleb128 0xd
ARM GAS  /var/folders/ng/s8655sgx1ys_4lf9jzm2w6n00000gn/T//ccPC48YK.s 			page 25


 1349 0447 86000000 		.4byte	0x86
 1350 044b 04       		.uleb128 0x4
 1351 044c 04       		.byte	0x4
 1352 044d 07       		.byte	0x7
 1353 044e 1A000000 		.4byte	.LASF49
 1354 0452 0D       		.uleb128 0xd
 1355 0453 05010000 		.4byte	0x105
 1356 0457 05       		.uleb128 0x5
 1357 0458 CA050000 		.4byte	.LASF50
 1358 045c 10       		.byte	0x10
 1359 045d 08       		.byte	0x8
 1360 045e 2C       		.byte	0x2c
 1361 045f 8E040000 		.4byte	0x48e
 1362 0463 06       		.uleb128 0x6
 1363 0464 1C060000 		.4byte	.LASF51
 1364 0468 08       		.byte	0x8
 1365 0469 2D       		.byte	0x2d
 1366 046a 6B020000 		.4byte	0x26b
 1367 046e 02       		.byte	0x2
 1368 046f 23       		.byte	0x23
 1369 0470 00       		.uleb128 0
 1370 0471 06       		.uleb128 0x6
 1371 0472 54010000 		.4byte	.LASF52
 1372 0476 08       		.byte	0x8
 1373 0477 2F       		.byte	0x2f
 1374 0478 65020000 		.4byte	0x265
 1375 047c 02       		.byte	0x2
 1376 047d 23       		.byte	0x23
 1377 047e 08       		.uleb128 0x8
 1378 047f 06       		.uleb128 0x6
 1379 0480 5C0B0000 		.4byte	.LASF53
 1380 0484 08       		.byte	0x8
 1381 0485 31       		.byte	0x31
 1382 0486 8E040000 		.4byte	0x48e
 1383 048a 02       		.byte	0x2
 1384 048b 23       		.byte	0x23
 1385 048c 0C       		.uleb128 0xc
 1386 048d 00       		.byte	0
 1387 048e 09       		.uleb128 0x9
 1388 048f 04       		.byte	0x4
 1389 0490 57040000 		.4byte	0x457
 1390 0494 03       		.uleb128 0x3
 1391 0495 CA050000 		.4byte	.LASF50
 1392 0499 08       		.byte	0x8
 1393 049a 33       		.byte	0x33
 1394 049b 57040000 		.4byte	0x457
 1395 049f 03       		.uleb128 0x3
 1396 04a0 490A0000 		.4byte	.LASF54
 1397 04a4 09       		.byte	0x9
 1398 04a5 2C       		.byte	0x2c
 1399 04a6 AA040000 		.4byte	0x4aa
 1400 04aa 05       		.uleb128 0x5
 1401 04ab 490A0000 		.4byte	.LASF54
 1402 04af 10       		.byte	0x10
 1403 04b0 09       		.byte	0x9
 1404 04b1 31       		.byte	0x31
 1405 04b2 EF040000 		.4byte	0x4ef
ARM GAS  /var/folders/ng/s8655sgx1ys_4lf9jzm2w6n00000gn/T//ccPC48YK.s 			page 26


 1406 04b6 06       		.uleb128 0x6
 1407 04b7 50050000 		.4byte	.LASF55
 1408 04bb 09       		.byte	0x9
 1409 04bc 32       		.byte	0x32
 1410 04bd EF040000 		.4byte	0x4ef
 1411 04c1 02       		.byte	0x2
 1412 04c2 23       		.byte	0x23
 1413 04c3 00       		.uleb128 0
 1414 04c4 06       		.uleb128 0x6
 1415 04c5 830B0000 		.4byte	.LASF56
 1416 04c9 09       		.byte	0x9
 1417 04ca 35       		.byte	0x35
 1418 04cb 65020000 		.4byte	0x265
 1419 04cf 02       		.byte	0x2
 1420 04d0 23       		.byte	0x23
 1421 04d1 04       		.uleb128 0x4
 1422 04d2 06       		.uleb128 0x6
 1423 04d3 4D0B0000 		.4byte	.LASF57
 1424 04d7 09       		.byte	0x9
 1425 04d8 37       		.byte	0x37
 1426 04d9 EF000000 		.4byte	0xef
 1427 04dd 02       		.byte	0x2
 1428 04de 23       		.byte	0x23
 1429 04df 08       		.uleb128 0x8
 1430 04e0 06       		.uleb128 0x6
 1431 04e1 B2000000 		.4byte	.LASF58
 1432 04e5 09       		.byte	0x9
 1433 04e6 3A       		.byte	0x3a
 1434 04e7 FA000000 		.4byte	0xfa
 1435 04eb 02       		.byte	0x2
 1436 04ec 23       		.byte	0x23
 1437 04ed 0C       		.uleb128 0xc
 1438 04ee 00       		.byte	0
 1439 04ef 09       		.uleb128 0x9
 1440 04f0 04       		.byte	0x4
 1441 04f1 9F040000 		.4byte	0x49f
 1442 04f5 05       		.uleb128 0x5
 1443 04f6 D7040000 		.4byte	.LASF59
 1444 04fa 04       		.byte	0x4
 1445 04fb 09       		.byte	0x9
 1446 04fc 41       		.byte	0x41
 1447 04fd 10050000 		.4byte	0x510
 1448 0501 06       		.uleb128 0x6
 1449 0502 A5040000 		.4byte	.LASF60
 1450 0506 09       		.byte	0x9
 1451 0507 42       		.byte	0x42
 1452 0508 EF040000 		.4byte	0x4ef
 1453 050c 02       		.byte	0x2
 1454 050d 23       		.byte	0x23
 1455 050e 00       		.uleb128 0
 1456 050f 00       		.byte	0
 1457 0510 03       		.uleb128 0x3
 1458 0511 D7040000 		.4byte	.LASF59
 1459 0515 09       		.byte	0x9
 1460 0516 45       		.byte	0x45
 1461 0517 F5040000 		.4byte	0x4f5
 1462 051b 0E       		.uleb128 0xe
ARM GAS  /var/folders/ng/s8655sgx1ys_4lf9jzm2w6n00000gn/T//ccPC48YK.s 			page 27


 1463 051c 04       		.byte	0x4
 1464 051d 06       		.byte	0x6
 1465 051e 96       		.byte	0x96
 1466 051f 50050000 		.4byte	0x550
 1467 0523 0F       		.uleb128 0xf
 1468 0524 AD0A0000 		.4byte	.LASF61
 1469 0528 06       		.byte	0x6
 1470 0529 9D       		.byte	0x9d
 1471 052a E4000000 		.4byte	0xe4
 1472 052e 0F       		.uleb128 0xf
 1473 052f 5C010000 		.4byte	.LASF62
 1474 0533 06       		.byte	0x6
 1475 0534 A4       		.byte	0xa4
 1476 0535 E4000000 		.4byte	0xe4
 1477 0539 0F       		.uleb128 0xf
 1478 053a B0030000 		.4byte	.LASF63
 1479 053e 06       		.byte	0x6
 1480 053f AB       		.byte	0xab
 1481 0540 A3020000 		.4byte	0x2a3
 1482 0544 0F       		.uleb128 0xf
 1483 0545 7C010000 		.4byte	.LASF64
 1484 0549 06       		.byte	0x6
 1485 054a B2       		.byte	0xb2
 1486 054b EF000000 		.4byte	0xef
 1487 054f 00       		.byte	0
 1488 0550 09       		.uleb128 0x9
 1489 0551 04       		.byte	0x4
 1490 0552 56050000 		.4byte	0x556
 1491 0556 10       		.uleb128 0x10
 1492 0557 5B050000 		.4byte	0x55b
 1493 055b 04       		.uleb128 0x4
 1494 055c 01       		.byte	0x1
 1495 055d 08       		.byte	0x8
 1496 055e 8F030000 		.4byte	.LASF65
 1497 0562 09       		.uleb128 0x9
 1498 0563 04       		.byte	0x4
 1499 0564 94040000 		.4byte	0x494
 1500 0568 09       		.uleb128 0x9
 1501 0569 04       		.byte	0x4
 1502 056a 6E050000 		.4byte	0x56e
 1503 056e 11       		.uleb128 0x11
 1504 056f 01       		.byte	0x1
 1505 0570 E4000000 		.4byte	0xe4
 1506 0574 7E050000 		.4byte	0x57e
 1507 0578 12       		.uleb128 0x12
 1508 0579 A3020000 		.4byte	0x2a3
 1509 057d 00       		.byte	0
 1510 057e 03       		.uleb128 0x3
 1511 057f A3030000 		.4byte	.LASF66
 1512 0583 0A       		.byte	0xa
 1513 0584 37       		.byte	0x37
 1514 0585 89050000 		.4byte	0x589
 1515 0589 05       		.uleb128 0x5
 1516 058a A3030000 		.4byte	.LASF66
 1517 058e 24       		.byte	0x24
 1518 058f 0A       		.byte	0xa
 1519 0590 45       		.byte	0x45
ARM GAS  /var/folders/ng/s8655sgx1ys_4lf9jzm2w6n00000gn/T//ccPC48YK.s 			page 28


 1520 0591 06060000 		.4byte	0x606
 1521 0595 06       		.uleb128 0x6
 1522 0596 23090000 		.4byte	.LASF67
 1523 059a 0A       		.byte	0xa
 1524 059b 46       		.byte	0x46
 1525 059c 6B020000 		.4byte	0x26b
 1526 05a0 02       		.byte	0x2
 1527 05a1 23       		.byte	0x23
 1528 05a2 00       		.uleb128 0
 1529 05a3 06       		.uleb128 0x6
 1530 05a4 AD040000 		.4byte	.LASF68
 1531 05a8 0A       		.byte	0xa
 1532 05a9 47       		.byte	0x47
 1533 05aa 30000000 		.4byte	0x30
 1534 05ae 02       		.byte	0x2
 1535 05af 23       		.byte	0x23
 1536 05b0 08       		.uleb128 0x8
 1537 05b1 06       		.uleb128 0x6
 1538 05b2 B4010000 		.4byte	.LASF69
 1539 05b6 0A       		.byte	0xa
 1540 05b7 48       		.byte	0x48
 1541 05b8 29060000 		.4byte	0x629
 1542 05bc 02       		.byte	0x2
 1543 05bd 23       		.byte	0x23
 1544 05be 0C       		.uleb128 0xc
 1545 05bf 06       		.uleb128 0x6
 1546 05c0 76010000 		.4byte	.LASF70
 1547 05c4 0A       		.byte	0xa
 1548 05c5 49       		.byte	0x49
 1549 05c6 29060000 		.4byte	0x629
 1550 05ca 02       		.byte	0x2
 1551 05cb 23       		.byte	0x23
 1552 05cc 10       		.uleb128 0x10
 1553 05cd 06       		.uleb128 0x6
 1554 05ce 58050000 		.4byte	.LASF71
 1555 05d2 0A       		.byte	0xa
 1556 05d3 4B       		.byte	0x4b
 1557 05d4 29060000 		.4byte	0x629
 1558 05d8 02       		.byte	0x2
 1559 05d9 23       		.byte	0x23
 1560 05da 14       		.uleb128 0x14
 1561 05db 06       		.uleb128 0x6
 1562 05dc EB010000 		.4byte	.LASF72
 1563 05e0 0A       		.byte	0xa
 1564 05e1 4C       		.byte	0x4c
 1565 05e2 29060000 		.4byte	0x629
 1566 05e6 02       		.byte	0x2
 1567 05e7 23       		.byte	0x23
 1568 05e8 18       		.uleb128 0x18
 1569 05e9 06       		.uleb128 0x6
 1570 05ea BD010000 		.4byte	.LASF73
 1571 05ee 0A       		.byte	0xa
 1572 05ef 4D       		.byte	0x4d
 1573 05f0 06060000 		.4byte	0x606
 1574 05f4 02       		.byte	0x2
 1575 05f5 23       		.byte	0x23
 1576 05f6 1C       		.uleb128 0x1c
ARM GAS  /var/folders/ng/s8655sgx1ys_4lf9jzm2w6n00000gn/T//ccPC48YK.s 			page 29


 1577 05f7 06       		.uleb128 0x6
 1578 05f8 11030000 		.4byte	.LASF74
 1579 05fc 0A       		.byte	0xa
 1580 05fd 4E       		.byte	0x4e
 1581 05fe A3020000 		.4byte	0x2a3
 1582 0602 02       		.byte	0x2
 1583 0603 23       		.byte	0x23
 1584 0604 20       		.uleb128 0x20
 1585 0605 00       		.byte	0
 1586 0606 03       		.uleb128 0x3
 1587 0607 67060000 		.4byte	.LASF75
 1588 060b 0A       		.byte	0xa
 1589 060c 3A       		.byte	0x3a
 1590 060d 11060000 		.4byte	0x611
 1591 0611 09       		.uleb128 0x9
 1592 0612 04       		.byte	0x4
 1593 0613 17060000 		.4byte	0x617
 1594 0617 13       		.uleb128 0x13
 1595 0618 01       		.byte	0x1
 1596 0619 23060000 		.4byte	0x623
 1597 061d 12       		.uleb128 0x12
 1598 061e 23060000 		.4byte	0x623
 1599 0622 00       		.byte	0
 1600 0623 09       		.uleb128 0x9
 1601 0624 04       		.byte	0x4
 1602 0625 7E050000 		.4byte	0x57e
 1603 0629 09       		.uleb128 0x9
 1604 062a 04       		.byte	0x4
 1605 062b 49000000 		.4byte	0x49
 1606 062f 03       		.uleb128 0x3
 1607 0630 F50A0000 		.4byte	.LASF76
 1608 0634 0A       		.byte	0xa
 1609 0635 82       		.byte	0x82
 1610 0636 7E050000 		.4byte	0x57e
 1611 063a 03       		.uleb128 0x3
 1612 063b E2030000 		.4byte	.LASF77
 1613 063f 0A       		.byte	0xa
 1614 0640 F5       		.byte	0xf5
 1615 0641 7E050000 		.4byte	0x57e
 1616 0645 11       		.uleb128 0x11
 1617 0646 01       		.byte	0x1
 1618 0647 30000000 		.4byte	0x30
 1619 064b 5F060000 		.4byte	0x65f
 1620 064f 12       		.uleb128 0x12
 1621 0650 A3020000 		.4byte	0x2a3
 1622 0654 12       		.uleb128 0x12
 1623 0655 5F060000 		.4byte	0x65f
 1624 0659 12       		.uleb128 0x12
 1625 065a 30000000 		.4byte	0x30
 1626 065e 00       		.byte	0
 1627 065f 09       		.uleb128 0x9
 1628 0660 04       		.byte	0x4
 1629 0661 65060000 		.4byte	0x665
 1630 0665 10       		.uleb128 0x10
 1631 0666 49000000 		.4byte	0x49
 1632 066a 09       		.uleb128 0x9
 1633 066b 04       		.byte	0x4
ARM GAS  /var/folders/ng/s8655sgx1ys_4lf9jzm2w6n00000gn/T//ccPC48YK.s 			page 30


 1634 066c 45060000 		.4byte	0x645
 1635 0670 11       		.uleb128 0x11
 1636 0671 01       		.byte	0x1
 1637 0672 30000000 		.4byte	0x30
 1638 0676 8A060000 		.4byte	0x68a
 1639 067a 12       		.uleb128 0x12
 1640 067b A3020000 		.4byte	0x2a3
 1641 067f 12       		.uleb128 0x12
 1642 0680 29060000 		.4byte	0x629
 1643 0684 12       		.uleb128 0x12
 1644 0685 30000000 		.4byte	0x30
 1645 0689 00       		.byte	0
 1646 068a 09       		.uleb128 0x9
 1647 068b 04       		.byte	0x4
 1648 068c 70060000 		.4byte	0x670
 1649 0690 11       		.uleb128 0x11
 1650 0691 01       		.byte	0x1
 1651 0692 E4000000 		.4byte	0xe4
 1652 0696 A5060000 		.4byte	0x6a5
 1653 069a 12       		.uleb128 0x12
 1654 069b A3020000 		.4byte	0x2a3
 1655 069f 12       		.uleb128 0x12
 1656 06a0 49000000 		.4byte	0x49
 1657 06a4 00       		.byte	0
 1658 06a5 09       		.uleb128 0x9
 1659 06a6 04       		.byte	0x4
 1660 06a7 90060000 		.4byte	0x690
 1661 06ab 14       		.uleb128 0x14
 1662 06ac 69070000 		.4byte	.LASF247
 1663 06b0 01       		.byte	0x1
 1664 06b1 0B       		.byte	0xb
 1665 06b2 AA       		.byte	0xaa
 1666 06b3 17090000 		.4byte	0x917
 1667 06b7 15       		.uleb128 0x15
 1668 06b8 C3040000 		.4byte	.LASF78
 1669 06bc 72       		.sleb128 -14
 1670 06bd 15       		.uleb128 0x15
 1671 06be FF040000 		.4byte	.LASF79
 1672 06c2 74       		.sleb128 -12
 1673 06c3 15       		.uleb128 0x15
 1674 06c4 8A050000 		.4byte	.LASF80
 1675 06c8 75       		.sleb128 -11
 1676 06c9 15       		.uleb128 0x15
 1677 06ca 7F030000 		.4byte	.LASF81
 1678 06ce 76       		.sleb128 -10
 1679 06cf 15       		.uleb128 0x15
 1680 06d0 34060000 		.4byte	.LASF82
 1681 06d4 7B       		.sleb128 -5
 1682 06d5 15       		.uleb128 0x15
 1683 06d6 76090000 		.4byte	.LASF83
 1684 06da 7C       		.sleb128 -4
 1685 06db 15       		.uleb128 0x15
 1686 06dc 0B0B0000 		.4byte	.LASF84
 1687 06e0 7E       		.sleb128 -2
 1688 06e1 15       		.uleb128 0x15
 1689 06e2 68020000 		.4byte	.LASF85
 1690 06e6 7F       		.sleb128 -1
ARM GAS  /var/folders/ng/s8655sgx1ys_4lf9jzm2w6n00000gn/T//ccPC48YK.s 			page 31


 1691 06e7 15       		.uleb128 0x15
 1692 06e8 E3040000 		.4byte	.LASF86
 1693 06ec 00       		.sleb128 0
 1694 06ed 15       		.uleb128 0x15
 1695 06ee 0D090000 		.4byte	.LASF87
 1696 06f2 01       		.sleb128 1
 1697 06f3 15       		.uleb128 0x15
 1698 06f4 15050000 		.4byte	.LASF88
 1699 06f8 02       		.sleb128 2
 1700 06f9 15       		.uleb128 0x15
 1701 06fa 3B0A0000 		.4byte	.LASF89
 1702 06fe 03       		.sleb128 3
 1703 06ff 15       		.uleb128 0x15
 1704 0700 9D000000 		.4byte	.LASF90
 1705 0704 04       		.sleb128 4
 1706 0705 15       		.uleb128 0x15
 1707 0706 D6090000 		.4byte	.LASF91
 1708 070a 05       		.sleb128 5
 1709 070b 15       		.uleb128 0x15
 1710 070c 2D090000 		.4byte	.LASF92
 1711 0710 06       		.sleb128 6
 1712 0711 15       		.uleb128 0x15
 1713 0712 63040000 		.4byte	.LASF93
 1714 0716 07       		.sleb128 7
 1715 0717 15       		.uleb128 0x15
 1716 0718 9C080000 		.4byte	.LASF94
 1717 071c 08       		.sleb128 8
 1718 071d 15       		.uleb128 0x15
 1719 071e 000B0000 		.4byte	.LASF95
 1720 0722 09       		.sleb128 9
 1721 0723 15       		.uleb128 0x15
 1722 0724 B40A0000 		.4byte	.LASF96
 1723 0728 0A       		.sleb128 10
 1724 0729 15       		.uleb128 0x15
 1725 072a CD070000 		.4byte	.LASF97
 1726 072e 0B       		.sleb128 11
 1727 072f 15       		.uleb128 0x15
 1728 0730 25070000 		.4byte	.LASF98
 1729 0734 0C       		.sleb128 12
 1730 0735 15       		.uleb128 0x15
 1731 0736 C1020000 		.4byte	.LASF99
 1732 073a 0D       		.sleb128 13
 1733 073b 15       		.uleb128 0x15
 1734 073c E6090000 		.4byte	.LASF100
 1735 0740 0E       		.sleb128 14
 1736 0741 15       		.uleb128 0x15
 1737 0742 40090000 		.4byte	.LASF101
 1738 0746 0F       		.sleb128 15
 1739 0747 15       		.uleb128 0x15
 1740 0748 7B040000 		.4byte	.LASF102
 1741 074c 10       		.sleb128 16
 1742 074d 15       		.uleb128 0x15
 1743 074e 6E070000 		.4byte	.LASF103
 1744 0752 11       		.sleb128 17
 1745 0753 15       		.uleb128 0x15
 1746 0754 B5080000 		.4byte	.LASF104
 1747 0758 12       		.sleb128 18
ARM GAS  /var/folders/ng/s8655sgx1ys_4lf9jzm2w6n00000gn/T//ccPC48YK.s 			page 32


 1748 0759 15       		.uleb128 0x15
 1749 075a 6E040000 		.4byte	.LASF105
 1750 075e 13       		.sleb128 19
 1751 075f 15       		.uleb128 0x15
 1752 0760 B7030000 		.4byte	.LASF106
 1753 0764 14       		.sleb128 20
 1754 0765 15       		.uleb128 0x15
 1755 0766 7A0A0000 		.4byte	.LASF107
 1756 076a 15       		.sleb128 21
 1757 076b 15       		.uleb128 0x15
 1758 076c 42050000 		.4byte	.LASF108
 1759 0770 16       		.sleb128 22
 1760 0771 15       		.uleb128 0x15
 1761 0772 950A0000 		.4byte	.LASF109
 1762 0776 17       		.sleb128 23
 1763 0777 15       		.uleb128 0x15
 1764 0778 B7050000 		.4byte	.LASF110
 1765 077c 18       		.sleb128 24
 1766 077d 15       		.uleb128 0x15
 1767 077e FF090000 		.4byte	.LASF111
 1768 0782 19       		.sleb128 25
 1769 0783 15       		.uleb128 0x15
 1770 0784 2E020000 		.4byte	.LASF112
 1771 0788 1A       		.sleb128 26
 1772 0789 15       		.uleb128 0x15
 1773 078a 48040000 		.4byte	.LASF113
 1774 078e 1B       		.sleb128 27
 1775 078f 15       		.uleb128 0x15
 1776 0790 CD000000 		.4byte	.LASF114
 1777 0794 1C       		.sleb128 28
 1778 0795 15       		.uleb128 0x15
 1779 0796 71080000 		.4byte	.LASF115
 1780 079a 1D       		.sleb128 29
 1781 079b 15       		.uleb128 0x15
 1782 079c F8030000 		.4byte	.LASF116
 1783 07a0 1E       		.sleb128 30
 1784 07a1 15       		.uleb128 0x15
 1785 07a2 1E040000 		.4byte	.LASF117
 1786 07a6 1F       		.sleb128 31
 1787 07a7 15       		.uleb128 0x15
 1788 07a8 2C030000 		.4byte	.LASF118
 1789 07ac 20       		.sleb128 32
 1790 07ad 15       		.uleb128 0x15
 1791 07ae DF060000 		.4byte	.LASF119
 1792 07b2 21       		.sleb128 33
 1793 07b3 15       		.uleb128 0x15
 1794 07b4 7D050000 		.4byte	.LASF120
 1795 07b8 22       		.sleb128 34
 1796 07b9 15       		.uleb128 0x15
 1797 07ba 2A060000 		.4byte	.LASF121
 1798 07be 23       		.sleb128 35
 1799 07bf 15       		.uleb128 0x15
 1800 07c0 06060000 		.4byte	.LASF122
 1801 07c4 24       		.sleb128 36
 1802 07c5 15       		.uleb128 0x15
 1803 07c6 7B080000 		.4byte	.LASF123
 1804 07ca 25       		.sleb128 37
ARM GAS  /var/folders/ng/s8655sgx1ys_4lf9jzm2w6n00000gn/T//ccPC48YK.s 			page 33


 1805 07cb 15       		.uleb128 0x15
 1806 07cc 02040000 		.4byte	.LASF124
 1807 07d0 26       		.sleb128 38
 1808 07d1 15       		.uleb128 0x15
 1809 07d2 75020000 		.4byte	.LASF125
 1810 07d6 27       		.sleb128 39
 1811 07d7 15       		.uleb128 0x15
 1812 07d8 34080000 		.4byte	.LASF126
 1813 07dc 28       		.sleb128 40
 1814 07dd 15       		.uleb128 0x15
 1815 07de F3070000 		.4byte	.LASF127
 1816 07e2 29       		.sleb128 41
 1817 07e3 15       		.uleb128 0x15
 1818 07e4 93060000 		.4byte	.LASF128
 1819 07e8 2A       		.sleb128 42
 1820 07e9 15       		.uleb128 0x15
 1821 07ea 83010000 		.4byte	.LASF129
 1822 07ee 2B       		.sleb128 43
 1823 07ef 15       		.uleb128 0x15
 1824 07f0 07000000 		.4byte	.LASF130
 1825 07f4 2C       		.sleb128 44
 1826 07f5 15       		.uleb128 0x15
 1827 07f6 8D040000 		.4byte	.LASF131
 1828 07fa 2D       		.sleb128 45
 1829 07fb 15       		.uleb128 0x15
 1830 07fc DE0A0000 		.4byte	.LASF132
 1831 0800 2E       		.sleb128 46
 1832 0801 15       		.uleb128 0x15
 1833 0802 2A0B0000 		.4byte	.LASF133
 1834 0806 2F       		.sleb128 47
 1835 0807 15       		.uleb128 0x15
 1836 0808 14080000 		.4byte	.LASF134
 1837 080c 30       		.sleb128 48
 1838 080d 15       		.uleb128 0x15
 1839 080e EB0A0000 		.4byte	.LASF135
 1840 0812 31       		.sleb128 49
 1841 0813 15       		.uleb128 0x15
 1842 0814 6B030000 		.4byte	.LASF136
 1843 0818 32       		.sleb128 50
 1844 0819 15       		.uleb128 0x15
 1845 081a 93000000 		.4byte	.LASF137
 1846 081e 33       		.sleb128 51
 1847 081f 15       		.uleb128 0x15
 1848 0820 52060000 		.4byte	.LASF138
 1849 0824 34       		.sleb128 52
 1850 0825 15       		.uleb128 0x15
 1851 0826 AC050000 		.4byte	.LASF139
 1852 082a 35       		.sleb128 53
 1853 082b 15       		.uleb128 0x15
 1854 082c BE060000 		.4byte	.LASF140
 1855 0830 36       		.sleb128 54
 1856 0831 15       		.uleb128 0x15
 1857 0832 E0050000 		.4byte	.LASF141
 1858 0836 37       		.sleb128 55
 1859 0837 15       		.uleb128 0x15
 1860 0838 7B060000 		.4byte	.LASF142
 1861 083c 38       		.sleb128 56
ARM GAS  /var/folders/ng/s8655sgx1ys_4lf9jzm2w6n00000gn/T//ccPC48YK.s 			page 34


 1862 083d 15       		.uleb128 0x15
 1863 083e 78000000 		.4byte	.LASF143
 1864 0842 39       		.sleb128 57
 1865 0843 15       		.uleb128 0x15
 1866 0844 6B0B0000 		.4byte	.LASF144
 1867 0848 3A       		.sleb128 58
 1868 0849 15       		.uleb128 0x15
 1869 084a 43070000 		.4byte	.LASF145
 1870 084e 3B       		.sleb128 59
 1871 084f 15       		.uleb128 0x15
 1872 0850 F5020000 		.4byte	.LASF146
 1873 0854 3C       		.sleb128 60
 1874 0855 15       		.uleb128 0x15
 1875 0856 A7090000 		.4byte	.LASF147
 1876 085a 3D       		.sleb128 61
 1877 085b 15       		.uleb128 0x15
 1878 085c F8050000 		.4byte	.LASF148
 1879 0860 3E       		.sleb128 62
 1880 0861 15       		.uleb128 0x15
 1881 0862 55070000 		.4byte	.LASF149
 1882 0866 3F       		.sleb128 63
 1883 0867 15       		.uleb128 0x15
 1884 0868 3A010000 		.4byte	.LASF150
 1885 086c C000     		.sleb128 64
 1886 086e 15       		.uleb128 0x15
 1887 086f A7080000 		.4byte	.LASF151
 1888 0873 C100     		.sleb128 65
 1889 0875 15       		.uleb128 0x15
 1890 0876 39030000 		.4byte	.LASF152
 1891 087a C200     		.sleb128 66
 1892 087c 15       		.uleb128 0x15
 1893 087d B7040000 		.4byte	.LASF153
 1894 0881 C300     		.sleb128 67
 1895 0883 15       		.uleb128 0x15
 1896 0884 09020000 		.4byte	.LASF154
 1897 0888 C400     		.sleb128 68
 1898 088a 15       		.uleb128 0x15
 1899 088b 5C090000 		.4byte	.LASF155
 1900 088f C500     		.sleb128 69
 1901 0891 15       		.uleb128 0x15
 1902 0892 BB070000 		.4byte	.LASF156
 1903 0896 C600     		.sleb128 70
 1904 0898 15       		.uleb128 0x15
 1905 0899 48010000 		.4byte	.LASF157
 1906 089d C700     		.sleb128 71
 1907 089f 15       		.uleb128 0x15
 1908 08a0 91090000 		.4byte	.LASF158
 1909 08a4 C800     		.sleb128 72
 1910 08a6 15       		.uleb128 0x15
 1911 08a7 1D080000 		.4byte	.LASF159
 1912 08ab C900     		.sleb128 73
 1913 08ad 15       		.uleb128 0x15
 1914 08ae 270A0000 		.4byte	.LASF160
 1915 08b2 CA00     		.sleb128 74
 1916 08b4 15       		.uleb128 0x15
 1917 08b5 170B0000 		.4byte	.LASF161
 1918 08b9 CB00     		.sleb128 75
ARM GAS  /var/folders/ng/s8655sgx1ys_4lf9jzm2w6n00000gn/T//ccPC48YK.s 			page 35


 1919 08bb 15       		.uleb128 0x15
 1920 08bc 65010000 		.4byte	.LASF162
 1921 08c0 CC00     		.sleb128 76
 1922 08c2 15       		.uleb128 0x15
 1923 08c3 10060000 		.4byte	.LASF163
 1924 08c7 CD00     		.sleb128 77
 1925 08c9 15       		.uleb128 0x15
 1926 08ca A8000000 		.4byte	.LASF164
 1927 08ce CE00     		.sleb128 78
 1928 08d0 15       		.uleb128 0x15
 1929 08d1 2A080000 		.4byte	.LASF165
 1930 08d5 CF00     		.sleb128 79
 1931 08d7 15       		.uleb128 0x15
 1932 08d8 55040000 		.4byte	.LASF166
 1933 08dc D000     		.sleb128 80
 1934 08de 15       		.uleb128 0x15
 1935 08df 49060000 		.4byte	.LASF167
 1936 08e3 D100     		.sleb128 81
 1937 08e5 15       		.uleb128 0x15
 1938 08e6 87080000 		.4byte	.LASF168
 1939 08ea D200     		.sleb128 82
 1940 08ec 15       		.uleb128 0x15
 1941 08ed 0E040000 		.4byte	.LASF169
 1942 08f1 D300     		.sleb128 83
 1943 08f3 15       		.uleb128 0x15
 1944 08f4 0A080000 		.4byte	.LASF170
 1945 08f8 D400     		.sleb128 84
 1946 08fa 15       		.uleb128 0x15
 1947 08fb C5030000 		.4byte	.LASF171
 1948 08ff D500     		.sleb128 85
 1949 0901 15       		.uleb128 0x15
 1950 0902 22030000 		.4byte	.LASF172
 1951 0906 D600     		.sleb128 86
 1952 0908 15       		.uleb128 0x15
 1953 0909 EE030000 		.4byte	.LASF173
 1954 090d D700     		.sleb128 87
 1955 090f 15       		.uleb128 0x15
 1956 0910 CC060000 		.4byte	.LASF174
 1957 0914 DA00     		.sleb128 90
 1958 0916 00       		.byte	0
 1959 0917 16       		.uleb128 0x16
 1960 0918 86000000 		.4byte	0x86
 1961 091c 27090000 		.4byte	0x927
 1962 0920 17       		.uleb128 0x17
 1963 0921 4B040000 		.4byte	0x44b
 1964 0925 01       		.byte	0x1
 1965 0926 00       		.byte	0
 1966 0927 0D       		.uleb128 0xd
 1967 0928 62000000 		.4byte	0x62
 1968 092c 0D       		.uleb128 0xd
 1969 092d 74000000 		.4byte	0x74
 1970 0931 18       		.uleb128 0x18
 1971 0932 90       		.byte	0x90
 1972 0933 0B       		.byte	0xb
 1973 0934 5804     		.2byte	0x458
 1974 0936 1E0B0000 		.4byte	0xb1e
 1975 093a 0C       		.uleb128 0xc
ARM GAS  /var/folders/ng/s8655sgx1ys_4lf9jzm2w6n00000gn/T//ccPC48YK.s 			page 36


 1976 093b 435200   		.ascii	"CR\000"
 1977 093e 0B       		.byte	0xb
 1978 093f 5A04     		.2byte	0x45a
 1979 0941 46040000 		.4byte	0x446
 1980 0945 02       		.byte	0x2
 1981 0946 23       		.byte	0x23
 1982 0947 00       		.uleb128 0
 1983 0948 19       		.uleb128 0x19
 1984 0949 A4050000 		.4byte	.LASF175
 1985 094d 0B       		.byte	0xb
 1986 094e 5B04     		.2byte	0x45b
 1987 0950 46040000 		.4byte	0x446
 1988 0954 02       		.byte	0x2
 1989 0955 23       		.byte	0x23
 1990 0956 04       		.uleb128 0x4
 1991 0957 19       		.uleb128 0x19
 1992 0958 43040000 		.4byte	.LASF176
 1993 095c 0B       		.byte	0xb
 1994 095d 5C04     		.2byte	0x45c
 1995 095f 46040000 		.4byte	0x446
 1996 0963 02       		.byte	0x2
 1997 0964 23       		.byte	0x23
 1998 0965 08       		.uleb128 0x8
 1999 0966 0C       		.uleb128 0xc
 2000 0967 43495200 		.ascii	"CIR\000"
 2001 096b 0B       		.byte	0xb
 2002 096c 5D04     		.2byte	0x45d
 2003 096e 46040000 		.4byte	0x446
 2004 0972 02       		.byte	0x2
 2005 0973 23       		.byte	0x23
 2006 0974 0C       		.uleb128 0xc
 2007 0975 19       		.uleb128 0x19
 2008 0976 3C0B0000 		.4byte	.LASF177
 2009 097a 0B       		.byte	0xb
 2010 097b 5E04     		.2byte	0x45e
 2011 097d 46040000 		.4byte	0x446
 2012 0981 02       		.byte	0x2
 2013 0982 23       		.byte	0x23
 2014 0983 10       		.uleb128 0x10
 2015 0984 19       		.uleb128 0x19
 2016 0985 9E090000 		.4byte	.LASF178
 2017 0989 0B       		.byte	0xb
 2018 098a 5F04     		.2byte	0x45f
 2019 098c 46040000 		.4byte	0x446
 2020 0990 02       		.byte	0x2
 2021 0991 23       		.byte	0x23
 2022 0992 14       		.uleb128 0x14
 2023 0993 19       		.uleb128 0x19
 2024 0994 95070000 		.4byte	.LASF179
 2025 0998 0B       		.byte	0xb
 2026 0999 6004     		.2byte	0x460
 2027 099b 46040000 		.4byte	0x446
 2028 099f 02       		.byte	0x2
 2029 09a0 23       		.byte	0x23
 2030 09a1 18       		.uleb128 0x18
 2031 09a2 19       		.uleb128 0x19
 2032 09a3 D3020000 		.4byte	.LASF180
ARM GAS  /var/folders/ng/s8655sgx1ys_4lf9jzm2w6n00000gn/T//ccPC48YK.s 			page 37


 2033 09a7 0B       		.byte	0xb
 2034 09a8 6104     		.2byte	0x461
 2035 09aa 86000000 		.4byte	0x86
 2036 09ae 02       		.byte	0x2
 2037 09af 23       		.byte	0x23
 2038 09b0 1C       		.uleb128 0x1c
 2039 09b1 19       		.uleb128 0x19
 2040 09b2 DF070000 		.4byte	.LASF181
 2041 09b6 0B       		.byte	0xb
 2042 09b7 6204     		.2byte	0x462
 2043 09b9 46040000 		.4byte	0x446
 2044 09bd 02       		.byte	0x2
 2045 09be 23       		.byte	0x23
 2046 09bf 20       		.uleb128 0x20
 2047 09c0 19       		.uleb128 0x19
 2048 09c1 40060000 		.4byte	.LASF182
 2049 09c5 0B       		.byte	0xb
 2050 09c6 6304     		.2byte	0x463
 2051 09c8 46040000 		.4byte	0x446
 2052 09cc 02       		.byte	0x2
 2053 09cd 23       		.byte	0x23
 2054 09ce 24       		.uleb128 0x24
 2055 09cf 19       		.uleb128 0x19
 2056 09d0 DD020000 		.4byte	.LASF183
 2057 09d4 0B       		.byte	0xb
 2058 09d5 6404     		.2byte	0x464
 2059 09d7 17090000 		.4byte	0x917
 2060 09db 02       		.byte	0x2
 2061 09dc 23       		.byte	0x23
 2062 09dd 28       		.uleb128 0x28
 2063 09de 19       		.uleb128 0x19
 2064 09df 6E090000 		.4byte	.LASF184
 2065 09e3 0B       		.byte	0xb
 2066 09e4 6504     		.2byte	0x465
 2067 09e6 46040000 		.4byte	0x446
 2068 09ea 02       		.byte	0x2
 2069 09eb 23       		.byte	0x23
 2070 09ec 30       		.uleb128 0x30
 2071 09ed 19       		.uleb128 0x19
 2072 09ee 9B030000 		.4byte	.LASF185
 2073 09f2 0B       		.byte	0xb
 2074 09f3 6604     		.2byte	0x466
 2075 09f5 46040000 		.4byte	0x446
 2076 09f9 02       		.byte	0x2
 2077 09fa 23       		.byte	0x23
 2078 09fb 34       		.uleb128 0x34
 2079 09fc 19       		.uleb128 0x19
 2080 09fd 630B0000 		.4byte	.LASF186
 2081 0a01 0B       		.byte	0xb
 2082 0a02 6704     		.2byte	0x467
 2083 0a04 46040000 		.4byte	0x446
 2084 0a08 02       		.byte	0x2
 2085 0a09 23       		.byte	0x23
 2086 0a0a 38       		.uleb128 0x38
 2087 0a0b 19       		.uleb128 0x19
 2088 0a0c 57030000 		.4byte	.LASF187
 2089 0a10 0B       		.byte	0xb
ARM GAS  /var/folders/ng/s8655sgx1ys_4lf9jzm2w6n00000gn/T//ccPC48YK.s 			page 38


 2090 0a11 6804     		.2byte	0x468
 2091 0a13 86000000 		.4byte	0x86
 2092 0a17 02       		.byte	0x2
 2093 0a18 23       		.byte	0x23
 2094 0a19 3C       		.uleb128 0x3c
 2095 0a1a 19       		.uleb128 0x19
 2096 0a1b 02080000 		.4byte	.LASF188
 2097 0a1f 0B       		.byte	0xb
 2098 0a20 6904     		.2byte	0x469
 2099 0a22 46040000 		.4byte	0x446
 2100 0a26 02       		.byte	0x2
 2101 0a27 23       		.byte	0x23
 2102 0a28 40       		.uleb128 0x40
 2103 0a29 19       		.uleb128 0x19
 2104 0a2a 56020000 		.4byte	.LASF189
 2105 0a2e 0B       		.byte	0xb
 2106 0a2f 6A04     		.2byte	0x46a
 2107 0a31 46040000 		.4byte	0x446
 2108 0a35 02       		.byte	0x2
 2109 0a36 23       		.byte	0x23
 2110 0a37 44       		.uleb128 0x44
 2111 0a38 19       		.uleb128 0x19
 2112 0a39 61030000 		.4byte	.LASF190
 2113 0a3d 0B       		.byte	0xb
 2114 0a3e 6B04     		.2byte	0x46b
 2115 0a40 17090000 		.4byte	0x917
 2116 0a44 02       		.byte	0x2
 2117 0a45 23       		.byte	0x23
 2118 0a46 48       		.uleb128 0x48
 2119 0a47 19       		.uleb128 0x19
 2120 0a48 5E020000 		.4byte	.LASF191
 2121 0a4c 0B       		.byte	0xb
 2122 0a4d 6C04     		.2byte	0x46c
 2123 0a4f 46040000 		.4byte	0x446
 2124 0a53 02       		.byte	0x2
 2125 0a54 23       		.byte	0x23
 2126 0a55 50       		.uleb128 0x50
 2127 0a56 19       		.uleb128 0x19
 2128 0a57 97010000 		.4byte	.LASF192
 2129 0a5b 0B       		.byte	0xb
 2130 0a5c 6D04     		.2byte	0x46d
 2131 0a5e 46040000 		.4byte	0x446
 2132 0a62 02       		.byte	0x2
 2133 0a63 23       		.byte	0x23
 2134 0a64 54       		.uleb128 0x54
 2135 0a65 19       		.uleb128 0x19
 2136 0a66 BE080000 		.4byte	.LASF193
 2137 0a6a 0B       		.byte	0xb
 2138 0a6b 6E04     		.2byte	0x46e
 2139 0a6d 46040000 		.4byte	0x446
 2140 0a71 02       		.byte	0x2
 2141 0a72 23       		.byte	0x23
 2142 0a73 58       		.uleb128 0x58
 2143 0a74 19       		.uleb128 0x19
 2144 0a75 07030000 		.4byte	.LASF194
 2145 0a79 0B       		.byte	0xb
 2146 0a7a 6F04     		.2byte	0x46f
ARM GAS  /var/folders/ng/s8655sgx1ys_4lf9jzm2w6n00000gn/T//ccPC48YK.s 			page 39


 2147 0a7c 86000000 		.4byte	0x86
 2148 0a80 02       		.byte	0x2
 2149 0a81 23       		.byte	0x23
 2150 0a82 5C       		.uleb128 0x5c
 2151 0a83 19       		.uleb128 0x19
 2152 0a84 1B070000 		.4byte	.LASF195
 2153 0a88 0B       		.byte	0xb
 2154 0a89 7004     		.2byte	0x470
 2155 0a8b 46040000 		.4byte	0x446
 2156 0a8f 02       		.byte	0x2
 2157 0a90 23       		.byte	0x23
 2158 0a91 60       		.uleb128 0x60
 2159 0a92 19       		.uleb128 0x19
 2160 0a93 5D060000 		.4byte	.LASF196
 2161 0a97 0B       		.byte	0xb
 2162 0a98 7104     		.2byte	0x471
 2163 0a9a 46040000 		.4byte	0x446
 2164 0a9e 02       		.byte	0x2
 2165 0a9f 23       		.byte	0x23
 2166 0aa0 64       		.uleb128 0x64
 2167 0aa1 19       		.uleb128 0x19
 2168 0aa2 75030000 		.4byte	.LASF197
 2169 0aa6 0B       		.byte	0xb
 2170 0aa7 7204     		.2byte	0x472
 2171 0aa9 17090000 		.4byte	0x917
 2172 0aad 02       		.byte	0x2
 2173 0aae 23       		.byte	0x23
 2174 0aaf 68       		.uleb128 0x68
 2175 0ab0 19       		.uleb128 0x19
 2176 0ab1 19040000 		.4byte	.LASF198
 2177 0ab5 0B       		.byte	0xb
 2178 0ab6 7304     		.2byte	0x473
 2179 0ab8 46040000 		.4byte	0x446
 2180 0abc 02       		.byte	0x2
 2181 0abd 23       		.byte	0x23
 2182 0abe 70       		.uleb128 0x70
 2183 0abf 0C       		.uleb128 0xc
 2184 0ac0 43535200 		.ascii	"CSR\000"
 2185 0ac4 0B       		.byte	0xb
 2186 0ac5 7404     		.2byte	0x474
 2187 0ac7 46040000 		.4byte	0x446
 2188 0acb 02       		.byte	0x2
 2189 0acc 23       		.byte	0x23
 2190 0acd 74       		.uleb128 0x74
 2191 0ace 19       		.uleb128 0x19
 2192 0acf 18030000 		.4byte	.LASF199
 2193 0ad3 0B       		.byte	0xb
 2194 0ad4 7504     		.2byte	0x475
 2195 0ad6 17090000 		.4byte	0x917
 2196 0ada 02       		.byte	0x2
 2197 0adb 23       		.byte	0x23
 2198 0adc 78       		.uleb128 0x78
 2199 0add 19       		.uleb128 0x19
 2200 0ade 24060000 		.4byte	.LASF200
 2201 0ae2 0B       		.byte	0xb
 2202 0ae3 7604     		.2byte	0x476
 2203 0ae5 46040000 		.4byte	0x446
ARM GAS  /var/folders/ng/s8655sgx1ys_4lf9jzm2w6n00000gn/T//ccPC48YK.s 			page 40


 2204 0ae9 03       		.byte	0x3
 2205 0aea 23       		.byte	0x23
 2206 0aeb 8001     		.uleb128 0x80
 2207 0aed 19       		.uleb128 0x19
 2208 0aee 2D000000 		.4byte	.LASF201
 2209 0af2 0B       		.byte	0xb
 2210 0af3 7704     		.2byte	0x477
 2211 0af5 46040000 		.4byte	0x446
 2212 0af9 03       		.byte	0x3
 2213 0afa 23       		.byte	0x23
 2214 0afb 8401     		.uleb128 0x84
 2215 0afd 19       		.uleb128 0x19
 2216 0afe A20A0000 		.4byte	.LASF202
 2217 0b02 0B       		.byte	0xb
 2218 0b03 7804     		.2byte	0x478
 2219 0b05 46040000 		.4byte	0x446
 2220 0b09 03       		.byte	0x3
 2221 0b0a 23       		.byte	0x23
 2222 0b0b 8801     		.uleb128 0x88
 2223 0b0d 19       		.uleb128 0x19
 2224 0b0e 81020000 		.4byte	.LASF203
 2225 0b12 0B       		.byte	0xb
 2226 0b13 7904     		.2byte	0x479
 2227 0b15 46040000 		.4byte	0x446
 2228 0b19 03       		.byte	0x3
 2229 0b1a 23       		.byte	0x23
 2230 0b1b 8C01     		.uleb128 0x8c
 2231 0b1d 00       		.byte	0
 2232 0b1e 1A       		.uleb128 0x1a
 2233 0b1f C0090000 		.4byte	.LASF204
 2234 0b23 0B       		.byte	0xb
 2235 0b24 7B04     		.2byte	0x47b
 2236 0b26 31090000 		.4byte	0x931
 2237 0b2a 18       		.uleb128 0x18
 2238 0b2b 1C       		.byte	0x1c
 2239 0b2c 0B       		.byte	0xb
 2240 0b2d 2905     		.2byte	0x529
 2241 0b2f 040C0000 		.4byte	0xc04
 2242 0b33 0C       		.uleb128 0xc
 2243 0b34 535200   		.ascii	"SR\000"
 2244 0b37 0B       		.byte	0xb
 2245 0b38 2B05     		.2byte	0x52b
 2246 0b3a 27090000 		.4byte	0x927
 2247 0b3e 02       		.byte	0x2
 2248 0b3f 23       		.byte	0x23
 2249 0b40 00       		.uleb128 0
 2250 0b41 19       		.uleb128 0x19
 2251 0b42 D3020000 		.4byte	.LASF180
 2252 0b46 0B       		.byte	0xb
 2253 0b47 2C05     		.2byte	0x52c
 2254 0b49 62000000 		.4byte	0x62
 2255 0b4d 02       		.byte	0x2
 2256 0b4e 23       		.byte	0x23
 2257 0b4f 02       		.uleb128 0x2
 2258 0b50 0C       		.uleb128 0xc
 2259 0b51 445200   		.ascii	"DR\000"
 2260 0b54 0B       		.byte	0xb
ARM GAS  /var/folders/ng/s8655sgx1ys_4lf9jzm2w6n00000gn/T//ccPC48YK.s 			page 41


 2261 0b55 2D05     		.2byte	0x52d
 2262 0b57 27090000 		.4byte	0x927
 2263 0b5b 02       		.byte	0x2
 2264 0b5c 23       		.byte	0x23
 2265 0b5d 04       		.uleb128 0x4
 2266 0b5e 19       		.uleb128 0x19
 2267 0b5f DD020000 		.4byte	.LASF183
 2268 0b63 0B       		.byte	0xb
 2269 0b64 2E05     		.2byte	0x52e
 2270 0b66 62000000 		.4byte	0x62
 2271 0b6a 02       		.byte	0x2
 2272 0b6b 23       		.byte	0x23
 2273 0b6c 06       		.uleb128 0x6
 2274 0b6d 0C       		.uleb128 0xc
 2275 0b6e 42525200 		.ascii	"BRR\000"
 2276 0b72 0B       		.byte	0xb
 2277 0b73 2F05     		.2byte	0x52f
 2278 0b75 27090000 		.4byte	0x927
 2279 0b79 02       		.byte	0x2
 2280 0b7a 23       		.byte	0x23
 2281 0b7b 08       		.uleb128 0x8
 2282 0b7c 19       		.uleb128 0x19
 2283 0b7d 57030000 		.4byte	.LASF187
 2284 0b81 0B       		.byte	0xb
 2285 0b82 3005     		.2byte	0x530
 2286 0b84 62000000 		.4byte	0x62
 2287 0b88 02       		.byte	0x2
 2288 0b89 23       		.byte	0x23
 2289 0b8a 0A       		.uleb128 0xa
 2290 0b8b 0C       		.uleb128 0xc
 2291 0b8c 43523100 		.ascii	"CR1\000"
 2292 0b90 0B       		.byte	0xb
 2293 0b91 3105     		.2byte	0x531
 2294 0b93 27090000 		.4byte	0x927
 2295 0b97 02       		.byte	0x2
 2296 0b98 23       		.byte	0x23
 2297 0b99 0C       		.uleb128 0xc
 2298 0b9a 19       		.uleb128 0x19
 2299 0b9b 61030000 		.4byte	.LASF190
 2300 0b9f 0B       		.byte	0xb
 2301 0ba0 3205     		.2byte	0x532
 2302 0ba2 62000000 		.4byte	0x62
 2303 0ba6 02       		.byte	0x2
 2304 0ba7 23       		.byte	0x23
 2305 0ba8 0E       		.uleb128 0xe
 2306 0ba9 0C       		.uleb128 0xc
 2307 0baa 43523200 		.ascii	"CR2\000"
 2308 0bae 0B       		.byte	0xb
 2309 0baf 3305     		.2byte	0x533
 2310 0bb1 27090000 		.4byte	0x927
 2311 0bb5 02       		.byte	0x2
 2312 0bb6 23       		.byte	0x23
 2313 0bb7 10       		.uleb128 0x10
 2314 0bb8 19       		.uleb128 0x19
 2315 0bb9 07030000 		.4byte	.LASF194
 2316 0bbd 0B       		.byte	0xb
 2317 0bbe 3405     		.2byte	0x534
ARM GAS  /var/folders/ng/s8655sgx1ys_4lf9jzm2w6n00000gn/T//ccPC48YK.s 			page 42


 2318 0bc0 62000000 		.4byte	0x62
 2319 0bc4 02       		.byte	0x2
 2320 0bc5 23       		.byte	0x23
 2321 0bc6 12       		.uleb128 0x12
 2322 0bc7 0C       		.uleb128 0xc
 2323 0bc8 43523300 		.ascii	"CR3\000"
 2324 0bcc 0B       		.byte	0xb
 2325 0bcd 3505     		.2byte	0x535
 2326 0bcf 27090000 		.4byte	0x927
 2327 0bd3 02       		.byte	0x2
 2328 0bd4 23       		.byte	0x23
 2329 0bd5 14       		.uleb128 0x14
 2330 0bd6 19       		.uleb128 0x19
 2331 0bd7 75030000 		.4byte	.LASF197
 2332 0bdb 0B       		.byte	0xb
 2333 0bdc 3605     		.2byte	0x536
 2334 0bde 62000000 		.4byte	0x62
 2335 0be2 02       		.byte	0x2
 2336 0be3 23       		.byte	0x23
 2337 0be4 16       		.uleb128 0x16
 2338 0be5 19       		.uleb128 0x19
 2339 0be6 6D000000 		.4byte	.LASF205
 2340 0bea 0B       		.byte	0xb
 2341 0beb 3705     		.2byte	0x537
 2342 0bed 27090000 		.4byte	0x927
 2343 0bf1 02       		.byte	0x2
 2344 0bf2 23       		.byte	0x23
 2345 0bf3 18       		.uleb128 0x18
 2346 0bf4 19       		.uleb128 0x19
 2347 0bf5 18030000 		.4byte	.LASF199
 2348 0bf9 0B       		.byte	0xb
 2349 0bfa 3805     		.2byte	0x538
 2350 0bfc 62000000 		.4byte	0x62
 2351 0c00 02       		.byte	0x2
 2352 0c01 23       		.byte	0x23
 2353 0c02 1A       		.uleb128 0x1a
 2354 0c03 00       		.byte	0
 2355 0c04 1A       		.uleb128 0x1a
 2356 0c05 D4030000 		.4byte	.LASF206
 2357 0c09 0B       		.byte	0xb
 2358 0c0a 3905     		.2byte	0x539
 2359 0c0c 2A0B0000 		.4byte	0xb2a
 2360 0c10 11       		.uleb128 0x11
 2361 0c11 01       		.byte	0x1
 2362 0c12 E4000000 		.4byte	0xe4
 2363 0c16 2A0C0000 		.4byte	0xc2a
 2364 0c1a 12       		.uleb128 0x12
 2365 0c1b A3020000 		.4byte	0x2a3
 2366 0c1f 12       		.uleb128 0x12
 2367 0c20 49000000 		.4byte	0x49
 2368 0c24 12       		.uleb128 0x12
 2369 0c25 05010000 		.4byte	0x105
 2370 0c29 00       		.byte	0
 2371 0c2a 09       		.uleb128 0x9
 2372 0c2b 04       		.byte	0x4
 2373 0c2c 100C0000 		.4byte	0xc10
 2374 0c30 11       		.uleb128 0x11
ARM GAS  /var/folders/ng/s8655sgx1ys_4lf9jzm2w6n00000gn/T//ccPC48YK.s 			page 43


 2375 0c31 01       		.byte	0x1
 2376 0c32 E4000000 		.4byte	0xe4
 2377 0c36 450C0000 		.4byte	0xc45
 2378 0c3a 12       		.uleb128 0x12
 2379 0c3b A3020000 		.4byte	0x2a3
 2380 0c3f 12       		.uleb128 0x12
 2381 0c40 05010000 		.4byte	0x105
 2382 0c44 00       		.byte	0
 2383 0c45 09       		.uleb128 0x9
 2384 0c46 04       		.byte	0x4
 2385 0c47 300C0000 		.4byte	0xc30
 2386 0c4b 11       		.uleb128 0x11
 2387 0c4c 01       		.byte	0x1
 2388 0c4d 30000000 		.4byte	0x30
 2389 0c51 6A0C0000 		.4byte	0xc6a
 2390 0c55 12       		.uleb128 0x12
 2391 0c56 A3020000 		.4byte	0x2a3
 2392 0c5a 12       		.uleb128 0x12
 2393 0c5b 5F060000 		.4byte	0x65f
 2394 0c5f 12       		.uleb128 0x12
 2395 0c60 30000000 		.4byte	0x30
 2396 0c64 12       		.uleb128 0x12
 2397 0c65 05010000 		.4byte	0x105
 2398 0c69 00       		.byte	0
 2399 0c6a 09       		.uleb128 0x9
 2400 0c6b 04       		.byte	0x4
 2401 0c6c 4B0C0000 		.4byte	0xc4b
 2402 0c70 11       		.uleb128 0x11
 2403 0c71 01       		.byte	0x1
 2404 0c72 30000000 		.4byte	0x30
 2405 0c76 8F0C0000 		.4byte	0xc8f
 2406 0c7a 12       		.uleb128 0x12
 2407 0c7b A3020000 		.4byte	0x2a3
 2408 0c7f 12       		.uleb128 0x12
 2409 0c80 29060000 		.4byte	0x629
 2410 0c84 12       		.uleb128 0x12
 2411 0c85 30000000 		.4byte	0x30
 2412 0c89 12       		.uleb128 0x12
 2413 0c8a 05010000 		.4byte	0x105
 2414 0c8e 00       		.byte	0
 2415 0c8f 09       		.uleb128 0x9
 2416 0c90 04       		.byte	0x4
 2417 0c91 700C0000 		.4byte	0xc70
 2418 0c95 1B       		.uleb128 0x1b
 2419 0c96 01       		.byte	0x1
 2420 0c97 0C       		.byte	0xc
 2421 0c98 64       		.byte	0x64
 2422 0c99 B00C0000 		.4byte	0xcb0
 2423 0c9d 15       		.uleb128 0x15
 2424 0c9e 47030000 		.4byte	.LASF207
 2425 0ca2 00       		.sleb128 0
 2426 0ca3 15       		.uleb128 0x15
 2427 0ca4 450B0000 		.4byte	.LASF208
 2428 0ca8 01       		.sleb128 1
 2429 0ca9 15       		.uleb128 0x15
 2430 0caa 88090000 		.4byte	.LASF209
 2431 0cae 02       		.sleb128 2
ARM GAS  /var/folders/ng/s8655sgx1ys_4lf9jzm2w6n00000gn/T//ccPC48YK.s 			page 44


 2432 0caf 00       		.byte	0
 2433 0cb0 03       		.uleb128 0x3
 2434 0cb1 52090000 		.4byte	.LASF210
 2435 0cb5 0C       		.byte	0xc
 2436 0cb6 68       		.byte	0x68
 2437 0cb7 950C0000 		.4byte	0xc95
 2438 0cbb 03       		.uleb128 0x3
 2439 0cbc 16090000 		.4byte	.LASF211
 2440 0cc0 0C       		.byte	0xc
 2441 0cc1 6D       		.byte	0x6d
 2442 0cc2 C60C0000 		.4byte	0xcc6
 2443 0cc6 05       		.uleb128 0x5
 2444 0cc7 16090000 		.4byte	.LASF211
 2445 0ccb 78       		.byte	0x78
 2446 0ccc 0C       		.byte	0xc
 2447 0ccd 87       		.byte	0x87
 2448 0cce 410D0000 		.4byte	0xd41
 2449 0cd2 07       		.uleb128 0x7
 2450 0cd3 766D7400 		.ascii	"vmt\000"
 2451 0cd7 0C       		.byte	0xc
 2452 0cd8 89       		.byte	0x89
 2453 0cd9 0A0E0000 		.4byte	0xe0a
 2454 0cdd 02       		.byte	0x2
 2455 0cde 23       		.byte	0x23
 2456 0cdf 00       		.uleb128 0
 2457 0ce0 06       		.uleb128 0x6
 2458 0ce1 8D060000 		.4byte	.LASF212
 2459 0ce5 0C       		.byte	0xc
 2460 0ce6 8A       		.byte	0x8a
 2461 0ce7 10050000 		.4byte	0x510
 2462 0ceb 02       		.byte	0x2
 2463 0cec 23       		.byte	0x23
 2464 0ced 04       		.uleb128 0x4
 2465 0cee 06       		.uleb128 0x6
 2466 0cef C2000000 		.4byte	.LASF213
 2467 0cf3 0C       		.byte	0xc
 2468 0cf4 8A       		.byte	0x8a
 2469 0cf5 B00C0000 		.4byte	0xcb0
 2470 0cf9 02       		.byte	0x2
 2471 0cfa 23       		.byte	0x23
 2472 0cfb 08       		.uleb128 0x8
 2473 0cfc 06       		.uleb128 0x6
 2474 0cfd DF090000 		.4byte	.LASF214
 2475 0d01 0C       		.byte	0xc
 2476 0d02 8A       		.byte	0x8a
 2477 0d03 2F060000 		.4byte	0x62f
 2478 0d07 02       		.byte	0x2
 2479 0d08 23       		.byte	0x23
 2480 0d09 0C       		.uleb128 0xc
 2481 0d0a 06       		.uleb128 0x6
 2482 0d0b 46020000 		.4byte	.LASF215
 2483 0d0f 0C       		.byte	0xc
 2484 0d10 8A       		.byte	0x8a
 2485 0d11 3A060000 		.4byte	0x63a
 2486 0d15 02       		.byte	0x2
 2487 0d16 23       		.byte	0x23
 2488 0d17 30       		.uleb128 0x30
ARM GAS  /var/folders/ng/s8655sgx1ys_4lf9jzm2w6n00000gn/T//ccPC48YK.s 			page 45


 2489 0d18 07       		.uleb128 0x7
 2490 0d19 696200   		.ascii	"ib\000"
 2491 0d1c 0C       		.byte	0xc
 2492 0d1d 8A       		.byte	0x8a
 2493 0d1e 150E0000 		.4byte	0xe15
 2494 0d22 02       		.byte	0x2
 2495 0d23 23       		.byte	0x23
 2496 0d24 54       		.uleb128 0x54
 2497 0d25 07       		.uleb128 0x7
 2498 0d26 6F6200   		.ascii	"ob\000"
 2499 0d29 0C       		.byte	0xc
 2500 0d2a 8A       		.byte	0x8a
 2501 0d2b 150E0000 		.4byte	0xe15
 2502 0d2f 02       		.byte	0x2
 2503 0d30 23       		.byte	0x23
 2504 0d31 64       		.uleb128 0x64
 2505 0d32 06       		.uleb128 0x6
 2506 0d33 89020000 		.4byte	.LASF216
 2507 0d37 0C       		.byte	0xc
 2508 0d38 8A       		.byte	0x8a
 2509 0d39 250E0000 		.4byte	0xe25
 2510 0d3d 02       		.byte	0x2
 2511 0d3e 23       		.byte	0x23
 2512 0d3f 74       		.uleb128 0x74
 2513 0d40 00       		.byte	0
 2514 0d41 08       		.uleb128 0x8
 2515 0d42 0C       		.byte	0xc
 2516 0d43 0D       		.byte	0xd
 2517 0d44 D7       		.byte	0xd7
 2518 0d45 820D0000 		.4byte	0xd82
 2519 0d49 06       		.uleb128 0x6
 2520 0d4a 32040000 		.4byte	.LASF217
 2521 0d4e 0D       		.byte	0xd
 2522 0d4f DB       		.byte	0xdb
 2523 0d50 86000000 		.4byte	0x86
 2524 0d54 02       		.byte	0x2
 2525 0d55 23       		.byte	0x23
 2526 0d56 00       		.uleb128 0
 2527 0d57 07       		.uleb128 0x7
 2528 0d58 63723100 		.ascii	"cr1\000"
 2529 0d5c 0D       		.byte	0xd
 2530 0d5d E0       		.byte	0xe0
 2531 0d5e 62000000 		.4byte	0x62
 2532 0d62 02       		.byte	0x2
 2533 0d63 23       		.byte	0x23
 2534 0d64 04       		.uleb128 0x4
 2535 0d65 07       		.uleb128 0x7
 2536 0d66 63723200 		.ascii	"cr2\000"
 2537 0d6a 0D       		.byte	0xd
 2538 0d6b E4       		.byte	0xe4
 2539 0d6c 62000000 		.4byte	0x62
 2540 0d70 02       		.byte	0x2
 2541 0d71 23       		.byte	0x23
 2542 0d72 06       		.uleb128 0x6
 2543 0d73 07       		.uleb128 0x7
 2544 0d74 63723300 		.ascii	"cr3\000"
 2545 0d78 0D       		.byte	0xd
ARM GAS  /var/folders/ng/s8655sgx1ys_4lf9jzm2w6n00000gn/T//ccPC48YK.s 			page 46


 2546 0d79 E8       		.byte	0xe8
 2547 0d7a 62000000 		.4byte	0x62
 2548 0d7e 02       		.byte	0x2
 2549 0d7f 23       		.byte	0x23
 2550 0d80 08       		.uleb128 0x8
 2551 0d81 00       		.byte	0
 2552 0d82 03       		.uleb128 0x3
 2553 0d83 59000000 		.4byte	.LASF218
 2554 0d87 0D       		.byte	0xd
 2555 0d88 E9       		.byte	0xe9
 2556 0d89 410D0000 		.4byte	0xd41
 2557 0d8d 05       		.uleb128 0x5
 2558 0d8e 60050000 		.4byte	.LASF219
 2559 0d92 20       		.byte	0x20
 2560 0d93 0C       		.byte	0xc
 2561 0d94 7C       		.byte	0x7c
 2562 0d95 0A0E0000 		.4byte	0xe0a
 2563 0d99 06       		.uleb128 0x6
 2564 0d9a 72000000 		.4byte	.LASF220
 2565 0d9e 0C       		.byte	0xc
 2566 0d9f 7D       		.byte	0x7d
 2567 0da0 6A060000 		.4byte	0x66a
 2568 0da4 02       		.byte	0x2
 2569 0da5 23       		.byte	0x23
 2570 0da6 00       		.uleb128 0
 2571 0da7 06       		.uleb128 0x6
 2572 0da8 AC060000 		.4byte	.LASF221
 2573 0dac 0C       		.byte	0xc
 2574 0dad 7D       		.byte	0x7d
 2575 0dae 8A060000 		.4byte	0x68a
 2576 0db2 02       		.byte	0x2
 2577 0db3 23       		.byte	0x23
 2578 0db4 04       		.uleb128 0x4
 2579 0db5 07       		.uleb128 0x7
 2580 0db6 70757400 		.ascii	"put\000"
 2581 0dba 0C       		.byte	0xc
 2582 0dbb 7D       		.byte	0x7d
 2583 0dbc A5060000 		.4byte	0x6a5
 2584 0dc0 02       		.byte	0x2
 2585 0dc1 23       		.byte	0x23
 2586 0dc2 08       		.uleb128 0x8
 2587 0dc3 07       		.uleb128 0x7
 2588 0dc4 67657400 		.ascii	"get\000"
 2589 0dc8 0C       		.byte	0xc
 2590 0dc9 7D       		.byte	0x7d
 2591 0dca 68050000 		.4byte	0x568
 2592 0dce 02       		.byte	0x2
 2593 0dcf 23       		.byte	0x23
 2594 0dd0 0C       		.uleb128 0xc
 2595 0dd1 06       		.uleb128 0x6
 2596 0dd2 C8000000 		.4byte	.LASF222
 2597 0dd6 0C       		.byte	0xc
 2598 0dd7 7D       		.byte	0x7d
 2599 0dd8 2A0C0000 		.4byte	0xc2a
 2600 0ddc 02       		.byte	0x2
 2601 0ddd 23       		.byte	0x23
 2602 0dde 10       		.uleb128 0x10
ARM GAS  /var/folders/ng/s8655sgx1ys_4lf9jzm2w6n00000gn/T//ccPC48YK.s 			page 47


 2603 0ddf 06       		.uleb128 0x6
 2604 0de0 CF030000 		.4byte	.LASF223
 2605 0de4 0C       		.byte	0xc
 2606 0de5 7D       		.byte	0x7d
 2607 0de6 450C0000 		.4byte	0xc45
 2608 0dea 02       		.byte	0x2
 2609 0deb 23       		.byte	0x23
 2610 0dec 14       		.uleb128 0x14
 2611 0ded 06       		.uleb128 0x6
 2612 0dee 66000000 		.4byte	.LASF224
 2613 0df2 0C       		.byte	0xc
 2614 0df3 7D       		.byte	0x7d
 2615 0df4 6A0C0000 		.4byte	0xc6a
 2616 0df8 02       		.byte	0x2
 2617 0df9 23       		.byte	0x23
 2618 0dfa 18       		.uleb128 0x18
 2619 0dfb 06       		.uleb128 0x6
 2620 0dfc A1010000 		.4byte	.LASF225
 2621 0e00 0C       		.byte	0xc
 2622 0e01 7D       		.byte	0x7d
 2623 0e02 8F0C0000 		.4byte	0xc8f
 2624 0e06 02       		.byte	0x2
 2625 0e07 23       		.byte	0x23
 2626 0e08 1C       		.uleb128 0x1c
 2627 0e09 00       		.byte	0
 2628 0e0a 09       		.uleb128 0x9
 2629 0e0b 04       		.byte	0x4
 2630 0e0c 100E0000 		.4byte	0xe10
 2631 0e10 10       		.uleb128 0x10
 2632 0e11 8D0D0000 		.4byte	0xd8d
 2633 0e15 16       		.uleb128 0x16
 2634 0e16 49000000 		.4byte	0x49
 2635 0e1a 250E0000 		.4byte	0xe25
 2636 0e1e 17       		.uleb128 0x17
 2637 0e1f 4B040000 		.4byte	0x44b
 2638 0e23 0F       		.byte	0xf
 2639 0e24 00       		.byte	0
 2640 0e25 09       		.uleb128 0x9
 2641 0e26 04       		.byte	0x4
 2642 0e27 040C0000 		.4byte	0xc04
 2643 0e2b 09       		.uleb128 0x9
 2644 0e2c 04       		.byte	0x4
 2645 0e2d 3A060000 		.4byte	0x63a
 2646 0e31 1C       		.uleb128 0x1c
 2647 0e32 70050000 		.4byte	.LASF228
 2648 0e36 01       		.byte	0x1
 2649 0e37 7A       		.byte	0x7a
 2650 0e38 01       		.byte	0x1
 2651 0e39 01       		.byte	0x1
 2652 0e3a 480E0000 		.4byte	0xe48
 2653 0e3e 1D       		.uleb128 0x1d
 2654 0e3f 7500     		.ascii	"u\000"
 2655 0e41 01       		.byte	0x1
 2656 0e42 7A       		.byte	0x7a
 2657 0e43 250E0000 		.4byte	0xe25
 2658 0e47 00       		.byte	0
 2659 0e48 1E       		.uleb128 0x1e
ARM GAS  /var/folders/ng/s8655sgx1ys_4lf9jzm2w6n00000gn/T//ccPC48YK.s 			page 48


 2660 0e49 B0090000 		.4byte	.LASF226
 2661 0e4d 01       		.byte	0x1
 2662 0e4e CB       		.byte	0xcb
 2663 0e4f 01       		.byte	0x1
 2664 0e50 00000000 		.4byte	.LFB122
 2665 0e54 14000000 		.4byte	.LFE122
 2666 0e58 02       		.byte	0x2
 2667 0e59 7D       		.byte	0x7d
 2668 0e5a 00       		.sleb128 0
 2669 0e5b 01       		.byte	0x1
 2670 0e5c 6F0E0000 		.4byte	0xe6f
 2671 0e60 1F       		.uleb128 0x1f
 2672 0e61 717000   		.ascii	"qp\000"
 2673 0e64 01       		.byte	0x1
 2674 0e65 CB       		.byte	0xcb
 2675 0e66 23060000 		.4byte	0x623
 2676 0e6a 00000000 		.4byte	.LLST0
 2677 0e6e 00       		.byte	0
 2678 0e6f 1E       		.uleb128 0x1e
 2679 0e70 B8090000 		.4byte	.LASF227
 2680 0e74 01       		.byte	0x1
 2681 0e75 D3       		.byte	0xd3
 2682 0e76 01       		.byte	0x1
 2683 0e77 00000000 		.4byte	.LFB123
 2684 0e7b 14000000 		.4byte	.LFE123
 2685 0e7f 02       		.byte	0x2
 2686 0e80 7D       		.byte	0x7d
 2687 0e81 00       		.sleb128 0
 2688 0e82 01       		.byte	0x1
 2689 0e83 960E0000 		.4byte	0xe96
 2690 0e87 1F       		.uleb128 0x1f
 2691 0e88 717000   		.ascii	"qp\000"
 2692 0e8b 01       		.byte	0x1
 2693 0e8c D3       		.byte	0xd3
 2694 0e8d 23060000 		.4byte	0x623
 2695 0e91 21000000 		.4byte	.LLST1
 2696 0e95 00       		.byte	0
 2697 0e96 1C       		.uleb128 0x1c
 2698 0e97 30010000 		.4byte	.LASF229
 2699 0e9b 01       		.byte	0x1
 2700 0e9c 87       		.byte	0x87
 2701 0e9d 01       		.byte	0x1
 2702 0e9e 01       		.byte	0x1
 2703 0e9f C40E0000 		.4byte	0xec4
 2704 0ea3 1D       		.uleb128 0x1d
 2705 0ea4 73647000 		.ascii	"sdp\000"
 2706 0ea8 01       		.byte	0x1
 2707 0ea9 87       		.byte	0x87
 2708 0eaa C40E0000 		.4byte	0xec4
 2709 0eae 1D       		.uleb128 0x1d
 2710 0eaf 737200   		.ascii	"sr\000"
 2711 0eb2 01       		.byte	0x1
 2712 0eb3 87       		.byte	0x87
 2713 0eb4 62000000 		.4byte	0x62
 2714 0eb8 20       		.uleb128 0x20
 2715 0eb9 73747300 		.ascii	"sts\000"
 2716 0ebd 01       		.byte	0x1
ARM GAS  /var/folders/ng/s8655sgx1ys_4lf9jzm2w6n00000gn/T//ccPC48YK.s 			page 49


 2717 0ebe 88       		.byte	0x88
 2718 0ebf FA000000 		.4byte	0xfa
 2719 0ec3 00       		.byte	0
 2720 0ec4 09       		.uleb128 0x9
 2721 0ec5 04       		.byte	0x4
 2722 0ec6 BB0C0000 		.4byte	0xcbb
 2723 0eca 21       		.uleb128 0x21
 2724 0ecb D7000000 		.4byte	.LASF230
 2725 0ecf 01       		.byte	0x1
 2726 0ed0 9A       		.byte	0x9a
 2727 0ed1 01       		.byte	0x1
 2728 0ed2 00000000 		.4byte	.LFB121
 2729 0ed6 16010000 		.4byte	.LFE121
 2730 0eda 42000000 		.4byte	.LLST2
 2731 0ede 01       		.byte	0x1
 2732 0edf C3100000 		.4byte	0x10c3
 2733 0ee3 1F       		.uleb128 0x1f
 2734 0ee4 73647000 		.ascii	"sdp\000"
 2735 0ee8 01       		.byte	0x1
 2736 0ee9 9A       		.byte	0x9a
 2737 0eea C40E0000 		.4byte	0xec4
 2738 0eee 62000000 		.4byte	.LLST3
 2739 0ef2 22       		.uleb128 0x22
 2740 0ef3 7500     		.ascii	"u\000"
 2741 0ef5 01       		.byte	0x1
 2742 0ef6 9B       		.byte	0x9b
 2743 0ef7 250E0000 		.4byte	0xe25
 2744 0efb 01       		.byte	0x1
 2745 0efc 55       		.byte	0x55
 2746 0efd 22       		.uleb128 0x22
 2747 0efe 63723100 		.ascii	"cr1\000"
 2748 0f02 01       		.byte	0x1
 2749 0f03 9C       		.byte	0x9c
 2750 0f04 62000000 		.4byte	0x62
 2751 0f08 01       		.byte	0x1
 2752 0f09 58       		.byte	0x58
 2753 0f0a 23       		.uleb128 0x23
 2754 0f0b 737200   		.ascii	"sr\000"
 2755 0f0e 01       		.byte	0x1
 2756 0f0f 9D       		.byte	0x9d
 2757 0f10 62000000 		.4byte	0x62
 2758 0f14 80000000 		.4byte	.LLST4
 2759 0f18 24       		.uleb128 0x24
 2760 0f19 1E000000 		.4byte	.LBB15
 2761 0f1d 24000000 		.4byte	.LBE15
 2762 0f21 350F0000 		.4byte	0xf35
 2763 0f25 23       		.uleb128 0x23
 2764 0f26 746D7000 		.ascii	"tmp\000"
 2765 0f2a 01       		.byte	0x1
 2766 0f2b A8       		.byte	0xa8
 2767 0f2c 86000000 		.4byte	0x86
 2768 0f30 A9000000 		.4byte	.LLST5
 2769 0f34 00       		.byte	0
 2770 0f35 25       		.uleb128 0x25
 2771 0f36 960E0000 		.4byte	0xe96
 2772 0f3a 2A000000 		.4byte	.LBB16
 2773 0f3e 00000000 		.4byte	.Ldebug_ranges0+0
ARM GAS  /var/folders/ng/s8655sgx1ys_4lf9jzm2w6n00000gn/T//ccPC48YK.s 			page 50


 2774 0f42 01       		.byte	0x1
 2775 0f43 AC       		.byte	0xac
 2776 0f44 6F0F0000 		.4byte	0xf6f
 2777 0f48 26       		.uleb128 0x26
 2778 0f49 AE0E0000 		.4byte	0xeae
 2779 0f4d BC000000 		.4byte	.LLST6
 2780 0f51 27       		.uleb128 0x27
 2781 0f52 A30E0000 		.4byte	0xea3
 2782 0f56 28       		.uleb128 0x28
 2783 0f57 18000000 		.4byte	.Ldebug_ranges0+0x18
 2784 0f5b 29       		.uleb128 0x29
 2785 0f5c B80E0000 		.4byte	0xeb8
 2786 0f60 CF000000 		.4byte	.LLST7
 2787 0f64 2A       		.uleb128 0x2a
 2788 0f65 7E000000 		.4byte	.LVL22
 2789 0f69 21130000 		.4byte	0x1321
 2790 0f6d 00       		.byte	0
 2791 0f6e 00       		.byte	0
 2792 0f6f 24       		.uleb128 0x24
 2793 0f70 80000000 		.4byte	.LBB20
 2794 0f74 86000000 		.4byte	.LBE20
 2795 0f78 8C0F0000 		.4byte	0xf8c
 2796 0f7c 23       		.uleb128 0x23
 2797 0f7d 746D7000 		.ascii	"tmp\000"
 2798 0f81 01       		.byte	0x1
 2799 0f82 B0       		.byte	0xb0
 2800 0f83 86000000 		.4byte	0x86
 2801 0f87 EE000000 		.4byte	.LLST8
 2802 0f8b 00       		.byte	0
 2803 0f8c 24       		.uleb128 0x24
 2804 0f8d 9E000000 		.4byte	.LBB21
 2805 0f91 A4000000 		.4byte	.LBE21
 2806 0f95 A90F0000 		.4byte	0xfa9
 2807 0f99 23       		.uleb128 0x23
 2808 0f9a 746D7000 		.ascii	"tmp\000"
 2809 0f9e 01       		.byte	0x1
 2810 0f9f C2       		.byte	0xc2
 2811 0fa0 86000000 		.4byte	0x86
 2812 0fa4 17010000 		.4byte	.LLST9
 2813 0fa8 00       		.byte	0
 2814 0fa9 24       		.uleb128 0x24
 2815 0faa AC000000 		.4byte	.LBB22
 2816 0fae B2000000 		.4byte	.LBE22
 2817 0fb2 C60F0000 		.4byte	0xfc6
 2818 0fb6 23       		.uleb128 0x23
 2819 0fb7 746D7000 		.ascii	"tmp\000"
 2820 0fbb 01       		.byte	0x1
 2821 0fbc C4       		.byte	0xc4
 2822 0fbd 86000000 		.4byte	0x86
 2823 0fc1 2A010000 		.4byte	.LLST10
 2824 0fc5 00       		.byte	0
 2825 0fc6 24       		.uleb128 0x24
 2826 0fc7 C6000000 		.4byte	.LBB23
 2827 0fcb CC000000 		.4byte	.LBE23
 2828 0fcf E30F0000 		.4byte	0xfe3
 2829 0fd3 23       		.uleb128 0x23
 2830 0fd4 746D7000 		.ascii	"tmp\000"
ARM GAS  /var/folders/ng/s8655sgx1ys_4lf9jzm2w6n00000gn/T//ccPC48YK.s 			page 51


 2831 0fd8 01       		.byte	0x1
 2832 0fd9 A1       		.byte	0xa1
 2833 0fda 86000000 		.4byte	0x86
 2834 0fde 3D010000 		.4byte	.LLST11
 2835 0fe2 00       		.byte	0
 2836 0fe3 24       		.uleb128 0x24
 2837 0fe4 D6000000 		.4byte	.LBB24
 2838 0fe8 DC000000 		.4byte	.LBE24
 2839 0fec 00100000 		.4byte	0x1000
 2840 0ff0 23       		.uleb128 0x23
 2841 0ff1 746D7000 		.ascii	"tmp\000"
 2842 0ff5 01       		.byte	0x1
 2843 0ff6 A3       		.byte	0xa3
 2844 0ff7 86000000 		.4byte	0x86
 2845 0ffb 50010000 		.4byte	.LLST12
 2846 0fff 00       		.byte	0
 2847 1000 24       		.uleb128 0x24
 2848 1001 E4000000 		.4byte	.LBB25
 2849 1005 16010000 		.4byte	.LBE25
 2850 1009 7E100000 		.4byte	0x107e
 2851 100d 23       		.uleb128 0x23
 2852 100e 6200     		.ascii	"b\000"
 2853 1010 01       		.byte	0x1
 2854 1011 B4       		.byte	0xb4
 2855 1012 E4000000 		.4byte	0xe4
 2856 1016 6E010000 		.4byte	.LLST13
 2857 101a 24       		.uleb128 0x24
 2858 101b E4000000 		.4byte	.LBB26
 2859 101f EA000000 		.4byte	.LBE26
 2860 1023 37100000 		.4byte	0x1037
 2861 1027 23       		.uleb128 0x23
 2862 1028 746D7000 		.ascii	"tmp\000"
 2863 102c 01       		.byte	0x1
 2864 102d B5       		.byte	0xb5
 2865 102e 86000000 		.4byte	0x86
 2866 1032 8C010000 		.4byte	.LLST14
 2867 1036 00       		.byte	0
 2868 1037 24       		.uleb128 0x24
 2869 1038 FA000000 		.4byte	.LBB27
 2870 103c 02010000 		.4byte	.LBE27
 2871 1040 54100000 		.4byte	0x1054
 2872 1044 23       		.uleb128 0x23
 2873 1045 746D7000 		.ascii	"tmp\000"
 2874 1049 01       		.byte	0x1
 2875 104a BD       		.byte	0xbd
 2876 104b 86000000 		.4byte	0x86
 2877 104f 9F010000 		.4byte	.LLST15
 2878 1053 00       		.byte	0
 2879 1054 2B       		.uleb128 0x2b
 2880 1055 F2000000 		.4byte	.LVL41
 2881 1059 40130000 		.4byte	0x1340
 2882 105d 68100000 		.4byte	0x1068
 2883 1061 2C       		.uleb128 0x2c
 2884 1062 01       		.byte	0x1
 2885 1063 50       		.byte	0x50
 2886 1064 02       		.byte	0x2
 2887 1065 76       		.byte	0x76
ARM GAS  /var/folders/ng/s8655sgx1ys_4lf9jzm2w6n00000gn/T//ccPC48YK.s 			page 52


 2888 1066 30       		.sleb128 48
 2889 1067 00       		.byte	0
 2890 1068 2D       		.uleb128 0x2d
 2891 1069 0A010000 		.4byte	.LVL46
 2892 106d 21130000 		.4byte	0x1321
 2893 1071 2C       		.uleb128 0x2c
 2894 1072 01       		.byte	0x1
 2895 1073 51       		.byte	0x51
 2896 1074 01       		.byte	0x1
 2897 1075 38       		.byte	0x38
 2898 1076 2C       		.uleb128 0x2c
 2899 1077 01       		.byte	0x1
 2900 1078 50       		.byte	0x50
 2901 1079 02       		.byte	0x2
 2902 107a 76       		.byte	0x76
 2903 107b 04       		.sleb128 4
 2904 107c 00       		.byte	0
 2905 107d 00       		.byte	0
 2906 107e 2B       		.uleb128 0x2b
 2907 107f 38000000 		.4byte	.LVL13
 2908 1083 59130000 		.4byte	0x1359
 2909 1087 92100000 		.4byte	0x1092
 2910 108b 2C       		.uleb128 0x2c
 2911 108c 01       		.byte	0x1
 2912 108d 50       		.byte	0x50
 2913 108e 02       		.byte	0x2
 2914 108f 76       		.byte	0x76
 2915 1090 00       		.sleb128 0
 2916 1091 00       		.byte	0
 2917 1092 2B       		.uleb128 0x2b
 2918 1093 AC000000 		.4byte	.LVL29
 2919 1097 21130000 		.4byte	0x1321
 2920 109b AB100000 		.4byte	0x10ab
 2921 109f 2C       		.uleb128 0x2c
 2922 10a0 01       		.byte	0x1
 2923 10a1 51       		.byte	0x51
 2924 10a2 01       		.byte	0x1
 2925 10a3 40       		.byte	0x40
 2926 10a4 2C       		.uleb128 0x2c
 2927 10a5 01       		.byte	0x1
 2928 10a6 50       		.byte	0x50
 2929 10a7 02       		.byte	0x2
 2930 10a8 76       		.byte	0x76
 2931 10a9 04       		.sleb128 4
 2932 10aa 00       		.byte	0
 2933 10ab 2D       		.uleb128 0x2d
 2934 10ac D6000000 		.4byte	.LVL36
 2935 10b0 21130000 		.4byte	0x1321
 2936 10b4 2C       		.uleb128 0x2c
 2937 10b5 01       		.byte	0x1
 2938 10b6 51       		.byte	0x51
 2939 10b7 03       		.byte	0x3
 2940 10b8 0A       		.byte	0xa
 2941 10b9 0002     		.2byte	0x200
 2942 10bb 2C       		.uleb128 0x2c
 2943 10bc 01       		.byte	0x1
 2944 10bd 50       		.byte	0x50
ARM GAS  /var/folders/ng/s8655sgx1ys_4lf9jzm2w6n00000gn/T//ccPC48YK.s 			page 53


 2945 10be 02       		.byte	0x2
 2946 10bf 76       		.byte	0x76
 2947 10c0 04       		.sleb128 4
 2948 10c1 00       		.byte	0
 2949 10c2 00       		.byte	0
 2950 10c3 2E       		.uleb128 0x2e
 2951 10c4 01       		.byte	0x1
 2952 10c5 710A0000 		.4byte	.LASF231
 2953 10c9 01       		.byte	0x1
 2954 10ca 0701     		.2byte	0x107
 2955 10cc 01       		.byte	0x1
 2956 10cd 00000000 		.4byte	.LFB124
 2957 10d1 16000000 		.4byte	.LFE124
 2958 10d5 C8010000 		.4byte	.LLST16
 2959 10d9 01       		.byte	0x1
 2960 10da 00110000 		.4byte	0x1100
 2961 10de 2B       		.uleb128 0x2b
 2962 10df 0E000000 		.4byte	.LVL47
 2963 10e3 CA0E0000 		.4byte	0xeca
 2964 10e7 F5100000 		.4byte	0x10f5
 2965 10eb 2C       		.uleb128 0x2c
 2966 10ec 01       		.byte	0x1
 2967 10ed 50       		.byte	0x50
 2968 10ee 05       		.byte	0x5
 2969 10ef 03       		.byte	0x3
 2970 10f0 00000000 		.4byte	.LANCHOR0
 2971 10f4 00       		.byte	0
 2972 10f5 2F       		.uleb128 0x2f
 2973 10f6 16000000 		.4byte	.LVL48
 2974 10fa 01       		.byte	0x1
 2975 10fb 73130000 		.4byte	0x1373
 2976 10ff 00       		.byte	0
 2977 1100 2E       		.uleb128 0x2e
 2978 1101 01       		.byte	0x1
 2979 1102 8A000000 		.4byte	.LASF232
 2980 1106 01       		.byte	0x1
 2981 1107 1A01     		.2byte	0x11a
 2982 1109 01       		.byte	0x1
 2983 110a 00000000 		.4byte	.LFB125
 2984 110e 16000000 		.4byte	.LFE125
 2985 1112 E8010000 		.4byte	.LLST17
 2986 1116 01       		.byte	0x1
 2987 1117 3D110000 		.4byte	0x113d
 2988 111b 2B       		.uleb128 0x2b
 2989 111c 0E000000 		.4byte	.LVL49
 2990 1120 CA0E0000 		.4byte	0xeca
 2991 1124 32110000 		.4byte	0x1132
 2992 1128 2C       		.uleb128 0x2c
 2993 1129 01       		.byte	0x1
 2994 112a 50       		.byte	0x50
 2995 112b 05       		.byte	0x5
 2996 112c 03       		.byte	0x3
 2997 112d 00000000 		.4byte	.LANCHOR1
 2998 1131 00       		.byte	0
 2999 1132 2F       		.uleb128 0x2f
 3000 1133 16000000 		.4byte	.LVL50
 3001 1137 01       		.byte	0x1
ARM GAS  /var/folders/ng/s8655sgx1ys_4lf9jzm2w6n00000gn/T//ccPC48YK.s 			page 54


 3002 1138 73130000 		.4byte	0x1373
 3003 113c 00       		.byte	0
 3004 113d 2E       		.uleb128 0x2e
 3005 113e 01       		.byte	0x1
 3006 113f 98050000 		.4byte	.LASF233
 3007 1143 01       		.byte	0x1
 3008 1144 7901     		.2byte	0x179
 3009 1146 01       		.byte	0x1
 3010 1147 00000000 		.4byte	.LFB126
 3011 114b 48000000 		.4byte	.LFE126
 3012 114f 08020000 		.4byte	.LLST18
 3013 1153 01       		.byte	0x1
 3014 1154 99110000 		.4byte	0x1199
 3015 1158 2B       		.uleb128 0x2b
 3016 1159 1E000000 		.4byte	.LVL51
 3017 115d 7E130000 		.4byte	0x137e
 3018 1161 7A110000 		.4byte	0x117a
 3019 1165 2C       		.uleb128 0x2c
 3020 1166 01       		.byte	0x1
 3021 1167 52       		.byte	0x52
 3022 1168 05       		.byte	0x5
 3023 1169 03       		.byte	0x3
 3024 116a 00000000 		.4byte	notify1
 3025 116e 2C       		.uleb128 0x2c
 3026 116f 01       		.byte	0x1
 3027 1170 51       		.byte	0x51
 3028 1171 01       		.byte	0x1
 3029 1172 30       		.byte	0x30
 3030 1173 2C       		.uleb128 0x2c
 3031 1174 01       		.byte	0x1
 3032 1175 50       		.byte	0x50
 3033 1176 02       		.byte	0x2
 3034 1177 75       		.byte	0x75
 3035 1178 00       		.sleb128 0
 3036 1179 00       		.byte	0
 3037 117a 2D       		.uleb128 0x2d
 3038 117b 3C000000 		.4byte	.LVL52
 3039 117f 7E130000 		.4byte	0x137e
 3040 1183 2C       		.uleb128 0x2c
 3041 1184 01       		.byte	0x1
 3042 1185 52       		.byte	0x52
 3043 1186 05       		.byte	0x5
 3044 1187 03       		.byte	0x3
 3045 1188 00000000 		.4byte	notify2
 3046 118c 2C       		.uleb128 0x2c
 3047 118d 01       		.byte	0x1
 3048 118e 51       		.byte	0x51
 3049 118f 01       		.byte	0x1
 3050 1190 30       		.byte	0x30
 3051 1191 2C       		.uleb128 0x2c
 3052 1192 01       		.byte	0x1
 3053 1193 50       		.byte	0x50
 3054 1194 02       		.byte	0x2
 3055 1195 74       		.byte	0x74
 3056 1196 00       		.sleb128 0
 3057 1197 00       		.byte	0
 3058 1198 00       		.byte	0
ARM GAS  /var/folders/ng/s8655sgx1ys_4lf9jzm2w6n00000gn/T//ccPC48YK.s 			page 55


 3059 1199 1C       		.uleb128 0x1c
 3060 119a E8070000 		.4byte	.LASF234
 3061 119e 01       		.byte	0x1
 3062 119f 5C       		.byte	0x5c
 3063 11a0 01       		.byte	0x1
 3064 11a1 01       		.byte	0x1
 3065 11a2 C6110000 		.4byte	0x11c6
 3066 11a6 1D       		.uleb128 0x1d
 3067 11a7 73647000 		.ascii	"sdp\000"
 3068 11ab 01       		.byte	0x1
 3069 11ac 5C       		.byte	0x5c
 3070 11ad C40E0000 		.4byte	0xec4
 3071 11b1 30       		.uleb128 0x30
 3072 11b2 BB000000 		.4byte	.LASF235
 3073 11b6 01       		.byte	0x1
 3074 11b7 5C       		.byte	0x5c
 3075 11b8 C6110000 		.4byte	0x11c6
 3076 11bc 20       		.uleb128 0x20
 3077 11bd 7500     		.ascii	"u\000"
 3078 11bf 01       		.byte	0x1
 3079 11c0 5D       		.byte	0x5d
 3080 11c1 250E0000 		.4byte	0xe25
 3081 11c5 00       		.byte	0
 3082 11c6 09       		.uleb128 0x9
 3083 11c7 04       		.byte	0x4
 3084 11c8 CC110000 		.4byte	0x11cc
 3085 11cc 10       		.uleb128 0x10
 3086 11cd 820D0000 		.4byte	0xd82
 3087 11d1 2E       		.uleb128 0x2e
 3088 11d2 01       		.byte	0x1
 3089 11d3 A7010000 		.4byte	.LASF236
 3090 11d7 01       		.byte	0x1
 3091 11d8 A401     		.2byte	0x1a4
 3092 11da 01       		.byte	0x1
 3093 11db 00000000 		.4byte	.LFB127
 3094 11df C8000000 		.4byte	.LFE127
 3095 11e3 28020000 		.4byte	.LLST19
 3096 11e7 01       		.byte	0x1
 3097 11e8 6F120000 		.4byte	0x126f
 3098 11ec 31       		.uleb128 0x31
 3099 11ed 73647000 		.ascii	"sdp\000"
 3100 11f1 01       		.byte	0x1
 3101 11f2 A401     		.2byte	0x1a4
 3102 11f4 C40E0000 		.4byte	0xec4
 3103 11f8 48020000 		.4byte	.LLST20
 3104 11fc 32       		.uleb128 0x32
 3105 11fd BB000000 		.4byte	.LASF235
 3106 1201 01       		.byte	0x1
 3107 1202 A401     		.2byte	0x1a4
 3108 1204 C6110000 		.4byte	0x11c6
 3109 1208 7C020000 		.4byte	.LLST21
 3110 120c 33       		.uleb128 0x33
 3111 120d 99110000 		.4byte	0x1199
 3112 1211 12000000 		.4byte	.LBB30
 3113 1215 30000000 		.4byte	.Ldebug_ranges0+0x30
 3114 1219 01       		.byte	0x1
 3115 121a D501     		.2byte	0x1d5
ARM GAS  /var/folders/ng/s8655sgx1ys_4lf9jzm2w6n00000gn/T//ccPC48YK.s 			page 56


 3116 121c 3E120000 		.4byte	0x123e
 3117 1220 27       		.uleb128 0x27
 3118 1221 B1110000 		.4byte	0x11b1
 3119 1225 26       		.uleb128 0x26
 3120 1226 A6110000 		.4byte	0x11a6
 3121 122a CF020000 		.4byte	.LLST22
 3122 122e 28       		.uleb128 0x28
 3123 122f 48000000 		.4byte	.Ldebug_ranges0+0x48
 3124 1233 29       		.uleb128 0x29
 3125 1234 BC110000 		.4byte	0x11bc
 3126 1238 ED020000 		.4byte	.LLST23
 3127 123c 00       		.byte	0
 3128 123d 00       		.byte	0
 3129 123e 2B       		.uleb128 0x2b
 3130 123f 8E000000 		.4byte	.LVL60
 3131 1243 9D130000 		.4byte	0x139d
 3132 1247 58120000 		.4byte	0x1258
 3133 124b 2C       		.uleb128 0x2c
 3134 124c 01       		.byte	0x1
 3135 124d 51       		.byte	0x51
 3136 124e 02       		.byte	0x2
 3137 124f 08       		.byte	0x8
 3138 1250 C0       		.byte	0xc0
 3139 1251 2C       		.uleb128 0x2c
 3140 1252 01       		.byte	0x1
 3141 1253 50       		.byte	0x50
 3142 1254 02       		.byte	0x2
 3143 1255 08       		.byte	0x8
 3144 1256 26       		.byte	0x26
 3145 1257 00       		.byte	0
 3146 1258 2D       		.uleb128 0x2d
 3147 1259 BA000000 		.4byte	.LVL64
 3148 125d 9D130000 		.4byte	0x139d
 3149 1261 2C       		.uleb128 0x2c
 3150 1262 01       		.byte	0x1
 3151 1263 51       		.byte	0x51
 3152 1264 02       		.byte	0x2
 3153 1265 08       		.byte	0x8
 3154 1266 C0       		.byte	0xc0
 3155 1267 2C       		.uleb128 0x2c
 3156 1268 01       		.byte	0x1
 3157 1269 50       		.byte	0x50
 3158 126a 02       		.byte	0x2
 3159 126b 08       		.byte	0x8
 3160 126c 25       		.byte	0x25
 3161 126d 00       		.byte	0
 3162 126e 00       		.byte	0
 3163 126f 34       		.uleb128 0x34
 3164 1270 01       		.byte	0x1
 3165 1271 D20A0000 		.4byte	.LASF237
 3166 1275 01       		.byte	0x1
 3167 1276 E101     		.2byte	0x1e1
 3168 1278 01       		.byte	0x1
 3169 1279 00000000 		.4byte	.LFB128
 3170 127d 54000000 		.4byte	.LFE128
 3171 1281 02       		.byte	0x2
 3172 1282 7D       		.byte	0x7d
ARM GAS  /var/folders/ng/s8655sgx1ys_4lf9jzm2w6n00000gn/T//ccPC48YK.s 			page 57


 3173 1283 00       		.sleb128 0
 3174 1284 01       		.byte	0x1
 3175 1285 DE120000 		.4byte	0x12de
 3176 1289 31       		.uleb128 0x31
 3177 128a 73647000 		.ascii	"sdp\000"
 3178 128e 01       		.byte	0x1
 3179 128f E101     		.2byte	0x1e1
 3180 1291 C40E0000 		.4byte	0xec4
 3181 1295 18030000 		.4byte	.LLST24
 3182 1299 33       		.uleb128 0x33
 3183 129a 310E0000 		.4byte	0xe31
 3184 129e 0C000000 		.4byte	.LBB34
 3185 12a2 60000000 		.4byte	.Ldebug_ranges0+0x60
 3186 12a6 01       		.byte	0x1
 3187 12a7 E401     		.2byte	0x1e4
 3188 12a9 B7120000 		.4byte	0x12b7
 3189 12ad 26       		.uleb128 0x26
 3190 12ae 3E0E0000 		.4byte	0xe3e
 3191 12b2 52030000 		.4byte	.LLST25
 3192 12b6 00       		.byte	0
 3193 12b7 35       		.uleb128 0x35
 3194 12b8 34000000 		.4byte	.LVL69
 3195 12bc 01       		.byte	0x1
 3196 12bd B7130000 		.4byte	0x13b7
 3197 12c1 CC120000 		.4byte	0x12cc
 3198 12c5 2C       		.uleb128 0x2c
 3199 12c6 01       		.byte	0x1
 3200 12c7 50       		.byte	0x50
 3201 12c8 02       		.byte	0x2
 3202 12c9 08       		.byte	0x8
 3203 12ca 26       		.byte	0x26
 3204 12cb 00       		.byte	0
 3205 12cc 36       		.uleb128 0x36
 3206 12cd 4A000000 		.4byte	.LVL72
 3207 12d1 01       		.byte	0x1
 3208 12d2 B7130000 		.4byte	0x13b7
 3209 12d6 2C       		.uleb128 0x2c
 3210 12d7 01       		.byte	0x1
 3211 12d8 50       		.byte	0x50
 3212 12d9 02       		.byte	0x2
 3213 12da 08       		.byte	0x8
 3214 12db 25       		.byte	0x25
 3215 12dc 00       		.byte	0
 3216 12dd 00       		.byte	0
 3217 12de 37       		.uleb128 0x37
 3218 12df FA010000 		.4byte	.LASF238
 3219 12e3 01       		.byte	0x1
 3220 12e4 49       		.byte	0x49
 3221 12e5 CC110000 		.4byte	0x11cc
 3222 12e9 05       		.byte	0x5
 3223 12ea 03       		.byte	0x3
 3224 12eb 00000000 		.4byte	default_config
 3225 12ef 38       		.uleb128 0x38
 3226 12f0 120A0000 		.4byte	.LASF239
 3227 12f4 0F       		.byte	0xf
 3228 12f5 9806     		.2byte	0x698
 3229 12f7 2C090000 		.4byte	0x92c
ARM GAS  /var/folders/ng/s8655sgx1ys_4lf9jzm2w6n00000gn/T//ccPC48YK.s 			page 58


 3230 12fb 01       		.byte	0x1
 3231 12fc 01       		.byte	0x1
 3232 12fd 39       		.uleb128 0x39
 3233 12fe 53443100 		.ascii	"SD1\000"
 3234 1302 01       		.byte	0x1
 3235 1303 28       		.byte	0x28
 3236 1304 BB0C0000 		.4byte	0xcbb
 3237 1308 01       		.byte	0x1
 3238 1309 05       		.byte	0x5
 3239 130a 03       		.byte	0x3
 3240 130b 00000000 		.4byte	SD1
 3241 130f 39       		.uleb128 0x39
 3242 1310 53443200 		.ascii	"SD2\000"
 3243 1314 01       		.byte	0x1
 3244 1315 2D       		.byte	0x2d
 3245 1316 BB0C0000 		.4byte	0xcbb
 3246 131a 01       		.byte	0x1
 3247 131b 05       		.byte	0x5
 3248 131c 03       		.byte	0x3
 3249 131d 00000000 		.4byte	SD2
 3250 1321 3A       		.uleb128 0x3a
 3251 1322 01       		.byte	0x1
 3252 1323 80070000 		.4byte	.LASF240
 3253 1327 09       		.byte	0x9
 3254 1328 BA       		.byte	0xba
 3255 1329 01       		.byte	0x1
 3256 132a 01       		.byte	0x1
 3257 132b 3A130000 		.4byte	0x133a
 3258 132f 12       		.uleb128 0x12
 3259 1330 3A130000 		.4byte	0x133a
 3260 1334 12       		.uleb128 0x12
 3261 1335 FA000000 		.4byte	0xfa
 3262 1339 00       		.byte	0
 3263 133a 09       		.uleb128 0x9
 3264 133b 04       		.byte	0x4
 3265 133c 10050000 		.4byte	0x510
 3266 1340 3B       		.uleb128 0x3b
 3267 1341 01       		.byte	0x1
 3268 1342 F3060000 		.4byte	.LASF248
 3269 1346 0A       		.byte	0xa
 3270 1347 6E01     		.2byte	0x16e
 3271 1349 01       		.byte	0x1
 3272 134a E4000000 		.4byte	0xe4
 3273 134e 01       		.byte	0x1
 3274 134f 59130000 		.4byte	0x1359
 3275 1353 12       		.uleb128 0x12
 3276 1354 2B0E0000 		.4byte	0xe2b
 3277 1358 00       		.byte	0
 3278 1359 3C       		.uleb128 0x3c
 3279 135a 01       		.byte	0x1
 3280 135b D0050000 		.4byte	.LASF241
 3281 135f 0C       		.byte	0xc
 3282 1360 3901     		.2byte	0x139
 3283 1362 01       		.byte	0x1
 3284 1363 01       		.byte	0x1
 3285 1364 73130000 		.4byte	0x1373
 3286 1368 12       		.uleb128 0x12
ARM GAS  /var/folders/ng/s8655sgx1ys_4lf9jzm2w6n00000gn/T//ccPC48YK.s 			page 59


 3287 1369 C40E0000 		.4byte	0xec4
 3288 136d 12       		.uleb128 0x12
 3289 136e 49000000 		.4byte	0x49
 3290 1372 00       		.byte	0
 3291 1373 3D       		.uleb128 0x3d
 3292 1374 01       		.byte	0x1
 3293 1375 FC060000 		.4byte	.LASF249
 3294 1379 07       		.byte	0x7
 3295 137a 0302     		.2byte	0x203
 3296 137c 01       		.byte	0x1
 3297 137d 01       		.byte	0x1
 3298 137e 3C       		.uleb128 0x3c
 3299 137f 01       		.byte	0x1
 3300 1380 C6010000 		.4byte	.LASF242
 3301 1384 0C       		.byte	0xc
 3302 1385 3601     		.2byte	0x136
 3303 1387 01       		.byte	0x1
 3304 1388 01       		.byte	0x1
 3305 1389 9D130000 		.4byte	0x139d
 3306 138d 12       		.uleb128 0x12
 3307 138e C40E0000 		.4byte	0xec4
 3308 1392 12       		.uleb128 0x12
 3309 1393 06060000 		.4byte	0x606
 3310 1397 12       		.uleb128 0x12
 3311 1398 06060000 		.4byte	0x606
 3312 139c 00       		.byte	0
 3313 139d 3C       		.uleb128 0x3c
 3314 139e 01       		.byte	0x1
 3315 139f 570A0000 		.4byte	.LASF243
 3316 13a3 0E       		.byte	0xe
 3317 13a4 2301     		.2byte	0x123
 3318 13a6 01       		.byte	0x1
 3319 13a7 01       		.byte	0x1
 3320 13a8 B7130000 		.4byte	0x13b7
 3321 13ac 12       		.uleb128 0x12
 3322 13ad 86000000 		.4byte	0x86
 3323 13b1 12       		.uleb128 0x12
 3324 13b2 86000000 		.4byte	0x86
 3325 13b6 00       		.byte	0
 3326 13b7 3E       		.uleb128 0x3e
 3327 13b8 01       		.byte	0x1
 3328 13b9 9E070000 		.4byte	.LASF250
 3329 13bd 0E       		.byte	0xe
 3330 13be 2401     		.2byte	0x124
 3331 13c0 01       		.byte	0x1
 3332 13c1 01       		.byte	0x1
 3333 13c2 12       		.uleb128 0x12
 3334 13c3 86000000 		.4byte	0x86
 3335 13c7 00       		.byte	0
 3336 13c8 00       		.byte	0
 3337              		.section	.debug_abbrev,"",%progbits
 3338              	.Ldebug_abbrev0:
 3339 0000 01       		.uleb128 0x1
 3340 0001 11       		.uleb128 0x11
 3341 0002 01       		.byte	0x1
 3342 0003 25       		.uleb128 0x25
 3343 0004 0E       		.uleb128 0xe
ARM GAS  /var/folders/ng/s8655sgx1ys_4lf9jzm2w6n00000gn/T//ccPC48YK.s 			page 60


 3344 0005 13       		.uleb128 0x13
 3345 0006 0B       		.uleb128 0xb
 3346 0007 03       		.uleb128 0x3
 3347 0008 0E       		.uleb128 0xe
 3348 0009 1B       		.uleb128 0x1b
 3349 000a 0E       		.uleb128 0xe
 3350 000b 55       		.uleb128 0x55
 3351 000c 06       		.uleb128 0x6
 3352 000d 11       		.uleb128 0x11
 3353 000e 01       		.uleb128 0x1
 3354 000f 52       		.uleb128 0x52
 3355 0010 01       		.uleb128 0x1
 3356 0011 10       		.uleb128 0x10
 3357 0012 06       		.uleb128 0x6
 3358 0013 00       		.byte	0
 3359 0014 00       		.byte	0
 3360 0015 02       		.uleb128 0x2
 3361 0016 24       		.uleb128 0x24
 3362 0017 00       		.byte	0
 3363 0018 0B       		.uleb128 0xb
 3364 0019 0B       		.uleb128 0xb
 3365 001a 3E       		.uleb128 0x3e
 3366 001b 0B       		.uleb128 0xb
 3367 001c 03       		.uleb128 0x3
 3368 001d 08       		.uleb128 0x8
 3369 001e 00       		.byte	0
 3370 001f 00       		.byte	0
 3371 0020 03       		.uleb128 0x3
 3372 0021 16       		.uleb128 0x16
 3373 0022 00       		.byte	0
 3374 0023 03       		.uleb128 0x3
 3375 0024 0E       		.uleb128 0xe
 3376 0025 3A       		.uleb128 0x3a
 3377 0026 0B       		.uleb128 0xb
 3378 0027 3B       		.uleb128 0x3b
 3379 0028 0B       		.uleb128 0xb
 3380 0029 49       		.uleb128 0x49
 3381 002a 13       		.uleb128 0x13
 3382 002b 00       		.byte	0
 3383 002c 00       		.byte	0
 3384 002d 04       		.uleb128 0x4
 3385 002e 24       		.uleb128 0x24
 3386 002f 00       		.byte	0
 3387 0030 0B       		.uleb128 0xb
 3388 0031 0B       		.uleb128 0xb
 3389 0032 3E       		.uleb128 0x3e
 3390 0033 0B       		.uleb128 0xb
 3391 0034 03       		.uleb128 0x3
 3392 0035 0E       		.uleb128 0xe
 3393 0036 00       		.byte	0
 3394 0037 00       		.byte	0
 3395 0038 05       		.uleb128 0x5
 3396 0039 13       		.uleb128 0x13
 3397 003a 01       		.byte	0x1
 3398 003b 03       		.uleb128 0x3
 3399 003c 0E       		.uleb128 0xe
 3400 003d 0B       		.uleb128 0xb
ARM GAS  /var/folders/ng/s8655sgx1ys_4lf9jzm2w6n00000gn/T//ccPC48YK.s 			page 61


 3401 003e 0B       		.uleb128 0xb
 3402 003f 3A       		.uleb128 0x3a
 3403 0040 0B       		.uleb128 0xb
 3404 0041 3B       		.uleb128 0x3b
 3405 0042 0B       		.uleb128 0xb
 3406 0043 01       		.uleb128 0x1
 3407 0044 13       		.uleb128 0x13
 3408 0045 00       		.byte	0
 3409 0046 00       		.byte	0
 3410 0047 06       		.uleb128 0x6
 3411 0048 0D       		.uleb128 0xd
 3412 0049 00       		.byte	0
 3413 004a 03       		.uleb128 0x3
 3414 004b 0E       		.uleb128 0xe
 3415 004c 3A       		.uleb128 0x3a
 3416 004d 0B       		.uleb128 0xb
 3417 004e 3B       		.uleb128 0x3b
 3418 004f 0B       		.uleb128 0xb
 3419 0050 49       		.uleb128 0x49
 3420 0051 13       		.uleb128 0x13
 3421 0052 38       		.uleb128 0x38
 3422 0053 0A       		.uleb128 0xa
 3423 0054 00       		.byte	0
 3424 0055 00       		.byte	0
 3425 0056 07       		.uleb128 0x7
 3426 0057 0D       		.uleb128 0xd
 3427 0058 00       		.byte	0
 3428 0059 03       		.uleb128 0x3
 3429 005a 08       		.uleb128 0x8
 3430 005b 3A       		.uleb128 0x3a
 3431 005c 0B       		.uleb128 0xb
 3432 005d 3B       		.uleb128 0x3b
 3433 005e 0B       		.uleb128 0xb
 3434 005f 49       		.uleb128 0x49
 3435 0060 13       		.uleb128 0x13
 3436 0061 38       		.uleb128 0x38
 3437 0062 0A       		.uleb128 0xa
 3438 0063 00       		.byte	0
 3439 0064 00       		.byte	0
 3440 0065 08       		.uleb128 0x8
 3441 0066 13       		.uleb128 0x13
 3442 0067 01       		.byte	0x1
 3443 0068 0B       		.uleb128 0xb
 3444 0069 0B       		.uleb128 0xb
 3445 006a 3A       		.uleb128 0x3a
 3446 006b 0B       		.uleb128 0xb
 3447 006c 3B       		.uleb128 0x3b
 3448 006d 0B       		.uleb128 0xb
 3449 006e 01       		.uleb128 0x1
 3450 006f 13       		.uleb128 0x13
 3451 0070 00       		.byte	0
 3452 0071 00       		.byte	0
 3453 0072 09       		.uleb128 0x9
 3454 0073 0F       		.uleb128 0xf
 3455 0074 00       		.byte	0
 3456 0075 0B       		.uleb128 0xb
 3457 0076 0B       		.uleb128 0xb
ARM GAS  /var/folders/ng/s8655sgx1ys_4lf9jzm2w6n00000gn/T//ccPC48YK.s 			page 62


 3458 0077 49       		.uleb128 0x49
 3459 0078 13       		.uleb128 0x13
 3460 0079 00       		.byte	0
 3461 007a 00       		.byte	0
 3462 007b 0A       		.uleb128 0xa
 3463 007c 0F       		.uleb128 0xf
 3464 007d 00       		.byte	0
 3465 007e 0B       		.uleb128 0xb
 3466 007f 0B       		.uleb128 0xb
 3467 0080 00       		.byte	0
 3468 0081 00       		.byte	0
 3469 0082 0B       		.uleb128 0xb
 3470 0083 13       		.uleb128 0x13
 3471 0084 01       		.byte	0x1
 3472 0085 03       		.uleb128 0x3
 3473 0086 0E       		.uleb128 0xe
 3474 0087 0B       		.uleb128 0xb
 3475 0088 0B       		.uleb128 0xb
 3476 0089 3A       		.uleb128 0x3a
 3477 008a 0B       		.uleb128 0xb
 3478 008b 3B       		.uleb128 0x3b
 3479 008c 05       		.uleb128 0x5
 3480 008d 01       		.uleb128 0x1
 3481 008e 13       		.uleb128 0x13
 3482 008f 00       		.byte	0
 3483 0090 00       		.byte	0
 3484 0091 0C       		.uleb128 0xc
 3485 0092 0D       		.uleb128 0xd
 3486 0093 00       		.byte	0
 3487 0094 03       		.uleb128 0x3
 3488 0095 08       		.uleb128 0x8
 3489 0096 3A       		.uleb128 0x3a
 3490 0097 0B       		.uleb128 0xb
 3491 0098 3B       		.uleb128 0x3b
 3492 0099 05       		.uleb128 0x5
 3493 009a 49       		.uleb128 0x49
 3494 009b 13       		.uleb128 0x13
 3495 009c 38       		.uleb128 0x38
 3496 009d 0A       		.uleb128 0xa
 3497 009e 00       		.byte	0
 3498 009f 00       		.byte	0
 3499 00a0 0D       		.uleb128 0xd
 3500 00a1 35       		.uleb128 0x35
 3501 00a2 00       		.byte	0
 3502 00a3 49       		.uleb128 0x49
 3503 00a4 13       		.uleb128 0x13
 3504 00a5 00       		.byte	0
 3505 00a6 00       		.byte	0
 3506 00a7 0E       		.uleb128 0xe
 3507 00a8 17       		.uleb128 0x17
 3508 00a9 01       		.byte	0x1
 3509 00aa 0B       		.uleb128 0xb
 3510 00ab 0B       		.uleb128 0xb
 3511 00ac 3A       		.uleb128 0x3a
 3512 00ad 0B       		.uleb128 0xb
 3513 00ae 3B       		.uleb128 0x3b
 3514 00af 0B       		.uleb128 0xb
ARM GAS  /var/folders/ng/s8655sgx1ys_4lf9jzm2w6n00000gn/T//ccPC48YK.s 			page 63


 3515 00b0 01       		.uleb128 0x1
 3516 00b1 13       		.uleb128 0x13
 3517 00b2 00       		.byte	0
 3518 00b3 00       		.byte	0
 3519 00b4 0F       		.uleb128 0xf
 3520 00b5 0D       		.uleb128 0xd
 3521 00b6 00       		.byte	0
 3522 00b7 03       		.uleb128 0x3
 3523 00b8 0E       		.uleb128 0xe
 3524 00b9 3A       		.uleb128 0x3a
 3525 00ba 0B       		.uleb128 0xb
 3526 00bb 3B       		.uleb128 0x3b
 3527 00bc 0B       		.uleb128 0xb
 3528 00bd 49       		.uleb128 0x49
 3529 00be 13       		.uleb128 0x13
 3530 00bf 00       		.byte	0
 3531 00c0 00       		.byte	0
 3532 00c1 10       		.uleb128 0x10
 3533 00c2 26       		.uleb128 0x26
 3534 00c3 00       		.byte	0
 3535 00c4 49       		.uleb128 0x49
 3536 00c5 13       		.uleb128 0x13
 3537 00c6 00       		.byte	0
 3538 00c7 00       		.byte	0
 3539 00c8 11       		.uleb128 0x11
 3540 00c9 15       		.uleb128 0x15
 3541 00ca 01       		.byte	0x1
 3542 00cb 27       		.uleb128 0x27
 3543 00cc 0C       		.uleb128 0xc
 3544 00cd 49       		.uleb128 0x49
 3545 00ce 13       		.uleb128 0x13
 3546 00cf 01       		.uleb128 0x1
 3547 00d0 13       		.uleb128 0x13
 3548 00d1 00       		.byte	0
 3549 00d2 00       		.byte	0
 3550 00d3 12       		.uleb128 0x12
 3551 00d4 05       		.uleb128 0x5
 3552 00d5 00       		.byte	0
 3553 00d6 49       		.uleb128 0x49
 3554 00d7 13       		.uleb128 0x13
 3555 00d8 00       		.byte	0
 3556 00d9 00       		.byte	0
 3557 00da 13       		.uleb128 0x13
 3558 00db 15       		.uleb128 0x15
 3559 00dc 01       		.byte	0x1
 3560 00dd 27       		.uleb128 0x27
 3561 00de 0C       		.uleb128 0xc
 3562 00df 01       		.uleb128 0x1
 3563 00e0 13       		.uleb128 0x13
 3564 00e1 00       		.byte	0
 3565 00e2 00       		.byte	0
 3566 00e3 14       		.uleb128 0x14
 3567 00e4 04       		.uleb128 0x4
 3568 00e5 01       		.byte	0x1
 3569 00e6 03       		.uleb128 0x3
 3570 00e7 0E       		.uleb128 0xe
 3571 00e8 0B       		.uleb128 0xb
ARM GAS  /var/folders/ng/s8655sgx1ys_4lf9jzm2w6n00000gn/T//ccPC48YK.s 			page 64


 3572 00e9 0B       		.uleb128 0xb
 3573 00ea 3A       		.uleb128 0x3a
 3574 00eb 0B       		.uleb128 0xb
 3575 00ec 3B       		.uleb128 0x3b
 3576 00ed 0B       		.uleb128 0xb
 3577 00ee 01       		.uleb128 0x1
 3578 00ef 13       		.uleb128 0x13
 3579 00f0 00       		.byte	0
 3580 00f1 00       		.byte	0
 3581 00f2 15       		.uleb128 0x15
 3582 00f3 28       		.uleb128 0x28
 3583 00f4 00       		.byte	0
 3584 00f5 03       		.uleb128 0x3
 3585 00f6 0E       		.uleb128 0xe
 3586 00f7 1C       		.uleb128 0x1c
 3587 00f8 0D       		.uleb128 0xd
 3588 00f9 00       		.byte	0
 3589 00fa 00       		.byte	0
 3590 00fb 16       		.uleb128 0x16
 3591 00fc 01       		.uleb128 0x1
 3592 00fd 01       		.byte	0x1
 3593 00fe 49       		.uleb128 0x49
 3594 00ff 13       		.uleb128 0x13
 3595 0100 01       		.uleb128 0x1
 3596 0101 13       		.uleb128 0x13
 3597 0102 00       		.byte	0
 3598 0103 00       		.byte	0
 3599 0104 17       		.uleb128 0x17
 3600 0105 21       		.uleb128 0x21
 3601 0106 00       		.byte	0
 3602 0107 49       		.uleb128 0x49
 3603 0108 13       		.uleb128 0x13
 3604 0109 2F       		.uleb128 0x2f
 3605 010a 0B       		.uleb128 0xb
 3606 010b 00       		.byte	0
 3607 010c 00       		.byte	0
 3608 010d 18       		.uleb128 0x18
 3609 010e 13       		.uleb128 0x13
 3610 010f 01       		.byte	0x1
 3611 0110 0B       		.uleb128 0xb
 3612 0111 0B       		.uleb128 0xb
 3613 0112 3A       		.uleb128 0x3a
 3614 0113 0B       		.uleb128 0xb
 3615 0114 3B       		.uleb128 0x3b
 3616 0115 05       		.uleb128 0x5
 3617 0116 01       		.uleb128 0x1
 3618 0117 13       		.uleb128 0x13
 3619 0118 00       		.byte	0
 3620 0119 00       		.byte	0
 3621 011a 19       		.uleb128 0x19
 3622 011b 0D       		.uleb128 0xd
 3623 011c 00       		.byte	0
 3624 011d 03       		.uleb128 0x3
 3625 011e 0E       		.uleb128 0xe
 3626 011f 3A       		.uleb128 0x3a
 3627 0120 0B       		.uleb128 0xb
 3628 0121 3B       		.uleb128 0x3b
ARM GAS  /var/folders/ng/s8655sgx1ys_4lf9jzm2w6n00000gn/T//ccPC48YK.s 			page 65


 3629 0122 05       		.uleb128 0x5
 3630 0123 49       		.uleb128 0x49
 3631 0124 13       		.uleb128 0x13
 3632 0125 38       		.uleb128 0x38
 3633 0126 0A       		.uleb128 0xa
 3634 0127 00       		.byte	0
 3635 0128 00       		.byte	0
 3636 0129 1A       		.uleb128 0x1a
 3637 012a 16       		.uleb128 0x16
 3638 012b 00       		.byte	0
 3639 012c 03       		.uleb128 0x3
 3640 012d 0E       		.uleb128 0xe
 3641 012e 3A       		.uleb128 0x3a
 3642 012f 0B       		.uleb128 0xb
 3643 0130 3B       		.uleb128 0x3b
 3644 0131 05       		.uleb128 0x5
 3645 0132 49       		.uleb128 0x49
 3646 0133 13       		.uleb128 0x13
 3647 0134 00       		.byte	0
 3648 0135 00       		.byte	0
 3649 0136 1B       		.uleb128 0x1b
 3650 0137 04       		.uleb128 0x4
 3651 0138 01       		.byte	0x1
 3652 0139 0B       		.uleb128 0xb
 3653 013a 0B       		.uleb128 0xb
 3654 013b 3A       		.uleb128 0x3a
 3655 013c 0B       		.uleb128 0xb
 3656 013d 3B       		.uleb128 0x3b
 3657 013e 0B       		.uleb128 0xb
 3658 013f 01       		.uleb128 0x1
 3659 0140 13       		.uleb128 0x13
 3660 0141 00       		.byte	0
 3661 0142 00       		.byte	0
 3662 0143 1C       		.uleb128 0x1c
 3663 0144 2E       		.uleb128 0x2e
 3664 0145 01       		.byte	0x1
 3665 0146 03       		.uleb128 0x3
 3666 0147 0E       		.uleb128 0xe
 3667 0148 3A       		.uleb128 0x3a
 3668 0149 0B       		.uleb128 0xb
 3669 014a 3B       		.uleb128 0x3b
 3670 014b 0B       		.uleb128 0xb
 3671 014c 27       		.uleb128 0x27
 3672 014d 0C       		.uleb128 0xc
 3673 014e 20       		.uleb128 0x20
 3674 014f 0B       		.uleb128 0xb
 3675 0150 01       		.uleb128 0x1
 3676 0151 13       		.uleb128 0x13
 3677 0152 00       		.byte	0
 3678 0153 00       		.byte	0
 3679 0154 1D       		.uleb128 0x1d
 3680 0155 05       		.uleb128 0x5
 3681 0156 00       		.byte	0
 3682 0157 03       		.uleb128 0x3
 3683 0158 08       		.uleb128 0x8
 3684 0159 3A       		.uleb128 0x3a
 3685 015a 0B       		.uleb128 0xb
ARM GAS  /var/folders/ng/s8655sgx1ys_4lf9jzm2w6n00000gn/T//ccPC48YK.s 			page 66


 3686 015b 3B       		.uleb128 0x3b
 3687 015c 0B       		.uleb128 0xb
 3688 015d 49       		.uleb128 0x49
 3689 015e 13       		.uleb128 0x13
 3690 015f 00       		.byte	0
 3691 0160 00       		.byte	0
 3692 0161 1E       		.uleb128 0x1e
 3693 0162 2E       		.uleb128 0x2e
 3694 0163 01       		.byte	0x1
 3695 0164 03       		.uleb128 0x3
 3696 0165 0E       		.uleb128 0xe
 3697 0166 3A       		.uleb128 0x3a
 3698 0167 0B       		.uleb128 0xb
 3699 0168 3B       		.uleb128 0x3b
 3700 0169 0B       		.uleb128 0xb
 3701 016a 27       		.uleb128 0x27
 3702 016b 0C       		.uleb128 0xc
 3703 016c 11       		.uleb128 0x11
 3704 016d 01       		.uleb128 0x1
 3705 016e 12       		.uleb128 0x12
 3706 016f 01       		.uleb128 0x1
 3707 0170 40       		.uleb128 0x40
 3708 0171 0A       		.uleb128 0xa
 3709 0172 9742     		.uleb128 0x2117
 3710 0174 0C       		.uleb128 0xc
 3711 0175 01       		.uleb128 0x1
 3712 0176 13       		.uleb128 0x13
 3713 0177 00       		.byte	0
 3714 0178 00       		.byte	0
 3715 0179 1F       		.uleb128 0x1f
 3716 017a 05       		.uleb128 0x5
 3717 017b 00       		.byte	0
 3718 017c 03       		.uleb128 0x3
 3719 017d 08       		.uleb128 0x8
 3720 017e 3A       		.uleb128 0x3a
 3721 017f 0B       		.uleb128 0xb
 3722 0180 3B       		.uleb128 0x3b
 3723 0181 0B       		.uleb128 0xb
 3724 0182 49       		.uleb128 0x49
 3725 0183 13       		.uleb128 0x13
 3726 0184 02       		.uleb128 0x2
 3727 0185 06       		.uleb128 0x6
 3728 0186 00       		.byte	0
 3729 0187 00       		.byte	0
 3730 0188 20       		.uleb128 0x20
 3731 0189 34       		.uleb128 0x34
 3732 018a 00       		.byte	0
 3733 018b 03       		.uleb128 0x3
 3734 018c 08       		.uleb128 0x8
 3735 018d 3A       		.uleb128 0x3a
 3736 018e 0B       		.uleb128 0xb
 3737 018f 3B       		.uleb128 0x3b
 3738 0190 0B       		.uleb128 0xb
 3739 0191 49       		.uleb128 0x49
 3740 0192 13       		.uleb128 0x13
 3741 0193 00       		.byte	0
 3742 0194 00       		.byte	0
ARM GAS  /var/folders/ng/s8655sgx1ys_4lf9jzm2w6n00000gn/T//ccPC48YK.s 			page 67


 3743 0195 21       		.uleb128 0x21
 3744 0196 2E       		.uleb128 0x2e
 3745 0197 01       		.byte	0x1
 3746 0198 03       		.uleb128 0x3
 3747 0199 0E       		.uleb128 0xe
 3748 019a 3A       		.uleb128 0x3a
 3749 019b 0B       		.uleb128 0xb
 3750 019c 3B       		.uleb128 0x3b
 3751 019d 0B       		.uleb128 0xb
 3752 019e 27       		.uleb128 0x27
 3753 019f 0C       		.uleb128 0xc
 3754 01a0 11       		.uleb128 0x11
 3755 01a1 01       		.uleb128 0x1
 3756 01a2 12       		.uleb128 0x12
 3757 01a3 01       		.uleb128 0x1
 3758 01a4 40       		.uleb128 0x40
 3759 01a5 06       		.uleb128 0x6
 3760 01a6 9742     		.uleb128 0x2117
 3761 01a8 0C       		.uleb128 0xc
 3762 01a9 01       		.uleb128 0x1
 3763 01aa 13       		.uleb128 0x13
 3764 01ab 00       		.byte	0
 3765 01ac 00       		.byte	0
 3766 01ad 22       		.uleb128 0x22
 3767 01ae 34       		.uleb128 0x34
 3768 01af 00       		.byte	0
 3769 01b0 03       		.uleb128 0x3
 3770 01b1 08       		.uleb128 0x8
 3771 01b2 3A       		.uleb128 0x3a
 3772 01b3 0B       		.uleb128 0xb
 3773 01b4 3B       		.uleb128 0x3b
 3774 01b5 0B       		.uleb128 0xb
 3775 01b6 49       		.uleb128 0x49
 3776 01b7 13       		.uleb128 0x13
 3777 01b8 02       		.uleb128 0x2
 3778 01b9 0A       		.uleb128 0xa
 3779 01ba 00       		.byte	0
 3780 01bb 00       		.byte	0
 3781 01bc 23       		.uleb128 0x23
 3782 01bd 34       		.uleb128 0x34
 3783 01be 00       		.byte	0
 3784 01bf 03       		.uleb128 0x3
 3785 01c0 08       		.uleb128 0x8
 3786 01c1 3A       		.uleb128 0x3a
 3787 01c2 0B       		.uleb128 0xb
 3788 01c3 3B       		.uleb128 0x3b
 3789 01c4 0B       		.uleb128 0xb
 3790 01c5 49       		.uleb128 0x49
 3791 01c6 13       		.uleb128 0x13
 3792 01c7 02       		.uleb128 0x2
 3793 01c8 06       		.uleb128 0x6
 3794 01c9 00       		.byte	0
 3795 01ca 00       		.byte	0
 3796 01cb 24       		.uleb128 0x24
 3797 01cc 0B       		.uleb128 0xb
 3798 01cd 01       		.byte	0x1
 3799 01ce 11       		.uleb128 0x11
ARM GAS  /var/folders/ng/s8655sgx1ys_4lf9jzm2w6n00000gn/T//ccPC48YK.s 			page 68


 3800 01cf 01       		.uleb128 0x1
 3801 01d0 12       		.uleb128 0x12
 3802 01d1 01       		.uleb128 0x1
 3803 01d2 01       		.uleb128 0x1
 3804 01d3 13       		.uleb128 0x13
 3805 01d4 00       		.byte	0
 3806 01d5 00       		.byte	0
 3807 01d6 25       		.uleb128 0x25
 3808 01d7 1D       		.uleb128 0x1d
 3809 01d8 01       		.byte	0x1
 3810 01d9 31       		.uleb128 0x31
 3811 01da 13       		.uleb128 0x13
 3812 01db 52       		.uleb128 0x52
 3813 01dc 01       		.uleb128 0x1
 3814 01dd 55       		.uleb128 0x55
 3815 01de 06       		.uleb128 0x6
 3816 01df 58       		.uleb128 0x58
 3817 01e0 0B       		.uleb128 0xb
 3818 01e1 59       		.uleb128 0x59
 3819 01e2 0B       		.uleb128 0xb
 3820 01e3 01       		.uleb128 0x1
 3821 01e4 13       		.uleb128 0x13
 3822 01e5 00       		.byte	0
 3823 01e6 00       		.byte	0
 3824 01e7 26       		.uleb128 0x26
 3825 01e8 05       		.uleb128 0x5
 3826 01e9 00       		.byte	0
 3827 01ea 31       		.uleb128 0x31
 3828 01eb 13       		.uleb128 0x13
 3829 01ec 02       		.uleb128 0x2
 3830 01ed 06       		.uleb128 0x6
 3831 01ee 00       		.byte	0
 3832 01ef 00       		.byte	0
 3833 01f0 27       		.uleb128 0x27
 3834 01f1 05       		.uleb128 0x5
 3835 01f2 00       		.byte	0
 3836 01f3 31       		.uleb128 0x31
 3837 01f4 13       		.uleb128 0x13
 3838 01f5 00       		.byte	0
 3839 01f6 00       		.byte	0
 3840 01f7 28       		.uleb128 0x28
 3841 01f8 0B       		.uleb128 0xb
 3842 01f9 01       		.byte	0x1
 3843 01fa 55       		.uleb128 0x55
 3844 01fb 06       		.uleb128 0x6
 3845 01fc 00       		.byte	0
 3846 01fd 00       		.byte	0
 3847 01fe 29       		.uleb128 0x29
 3848 01ff 34       		.uleb128 0x34
 3849 0200 00       		.byte	0
 3850 0201 31       		.uleb128 0x31
 3851 0202 13       		.uleb128 0x13
 3852 0203 02       		.uleb128 0x2
 3853 0204 06       		.uleb128 0x6
 3854 0205 00       		.byte	0
 3855 0206 00       		.byte	0
 3856 0207 2A       		.uleb128 0x2a
ARM GAS  /var/folders/ng/s8655sgx1ys_4lf9jzm2w6n00000gn/T//ccPC48YK.s 			page 69


 3857 0208 898201   		.uleb128 0x4109
 3858 020b 00       		.byte	0
 3859 020c 11       		.uleb128 0x11
 3860 020d 01       		.uleb128 0x1
 3861 020e 31       		.uleb128 0x31
 3862 020f 13       		.uleb128 0x13
 3863 0210 00       		.byte	0
 3864 0211 00       		.byte	0
 3865 0212 2B       		.uleb128 0x2b
 3866 0213 898201   		.uleb128 0x4109
 3867 0216 01       		.byte	0x1
 3868 0217 11       		.uleb128 0x11
 3869 0218 01       		.uleb128 0x1
 3870 0219 31       		.uleb128 0x31
 3871 021a 13       		.uleb128 0x13
 3872 021b 01       		.uleb128 0x1
 3873 021c 13       		.uleb128 0x13
 3874 021d 00       		.byte	0
 3875 021e 00       		.byte	0
 3876 021f 2C       		.uleb128 0x2c
 3877 0220 8A8201   		.uleb128 0x410a
 3878 0223 00       		.byte	0
 3879 0224 02       		.uleb128 0x2
 3880 0225 0A       		.uleb128 0xa
 3881 0226 9142     		.uleb128 0x2111
 3882 0228 0A       		.uleb128 0xa
 3883 0229 00       		.byte	0
 3884 022a 00       		.byte	0
 3885 022b 2D       		.uleb128 0x2d
 3886 022c 898201   		.uleb128 0x4109
 3887 022f 01       		.byte	0x1
 3888 0230 11       		.uleb128 0x11
 3889 0231 01       		.uleb128 0x1
 3890 0232 31       		.uleb128 0x31
 3891 0233 13       		.uleb128 0x13
 3892 0234 00       		.byte	0
 3893 0235 00       		.byte	0
 3894 0236 2E       		.uleb128 0x2e
 3895 0237 2E       		.uleb128 0x2e
 3896 0238 01       		.byte	0x1
 3897 0239 3F       		.uleb128 0x3f
 3898 023a 0C       		.uleb128 0xc
 3899 023b 03       		.uleb128 0x3
 3900 023c 0E       		.uleb128 0xe
 3901 023d 3A       		.uleb128 0x3a
 3902 023e 0B       		.uleb128 0xb
 3903 023f 3B       		.uleb128 0x3b
 3904 0240 05       		.uleb128 0x5
 3905 0241 27       		.uleb128 0x27
 3906 0242 0C       		.uleb128 0xc
 3907 0243 11       		.uleb128 0x11
 3908 0244 01       		.uleb128 0x1
 3909 0245 12       		.uleb128 0x12
 3910 0246 01       		.uleb128 0x1
 3911 0247 40       		.uleb128 0x40
 3912 0248 06       		.uleb128 0x6
 3913 0249 9742     		.uleb128 0x2117
ARM GAS  /var/folders/ng/s8655sgx1ys_4lf9jzm2w6n00000gn/T//ccPC48YK.s 			page 70


 3914 024b 0C       		.uleb128 0xc
 3915 024c 01       		.uleb128 0x1
 3916 024d 13       		.uleb128 0x13
 3917 024e 00       		.byte	0
 3918 024f 00       		.byte	0
 3919 0250 2F       		.uleb128 0x2f
 3920 0251 898201   		.uleb128 0x4109
 3921 0254 00       		.byte	0
 3922 0255 11       		.uleb128 0x11
 3923 0256 01       		.uleb128 0x1
 3924 0257 9542     		.uleb128 0x2115
 3925 0259 0C       		.uleb128 0xc
 3926 025a 31       		.uleb128 0x31
 3927 025b 13       		.uleb128 0x13
 3928 025c 00       		.byte	0
 3929 025d 00       		.byte	0
 3930 025e 30       		.uleb128 0x30
 3931 025f 05       		.uleb128 0x5
 3932 0260 00       		.byte	0
 3933 0261 03       		.uleb128 0x3
 3934 0262 0E       		.uleb128 0xe
 3935 0263 3A       		.uleb128 0x3a
 3936 0264 0B       		.uleb128 0xb
 3937 0265 3B       		.uleb128 0x3b
 3938 0266 0B       		.uleb128 0xb
 3939 0267 49       		.uleb128 0x49
 3940 0268 13       		.uleb128 0x13
 3941 0269 00       		.byte	0
 3942 026a 00       		.byte	0
 3943 026b 31       		.uleb128 0x31
 3944 026c 05       		.uleb128 0x5
 3945 026d 00       		.byte	0
 3946 026e 03       		.uleb128 0x3
 3947 026f 08       		.uleb128 0x8
 3948 0270 3A       		.uleb128 0x3a
 3949 0271 0B       		.uleb128 0xb
 3950 0272 3B       		.uleb128 0x3b
 3951 0273 05       		.uleb128 0x5
 3952 0274 49       		.uleb128 0x49
 3953 0275 13       		.uleb128 0x13
 3954 0276 02       		.uleb128 0x2
 3955 0277 06       		.uleb128 0x6
 3956 0278 00       		.byte	0
 3957 0279 00       		.byte	0
 3958 027a 32       		.uleb128 0x32
 3959 027b 05       		.uleb128 0x5
 3960 027c 00       		.byte	0
 3961 027d 03       		.uleb128 0x3
 3962 027e 0E       		.uleb128 0xe
 3963 027f 3A       		.uleb128 0x3a
 3964 0280 0B       		.uleb128 0xb
 3965 0281 3B       		.uleb128 0x3b
 3966 0282 05       		.uleb128 0x5
 3967 0283 49       		.uleb128 0x49
 3968 0284 13       		.uleb128 0x13
 3969 0285 02       		.uleb128 0x2
 3970 0286 06       		.uleb128 0x6
ARM GAS  /var/folders/ng/s8655sgx1ys_4lf9jzm2w6n00000gn/T//ccPC48YK.s 			page 71


 3971 0287 00       		.byte	0
 3972 0288 00       		.byte	0
 3973 0289 33       		.uleb128 0x33
 3974 028a 1D       		.uleb128 0x1d
 3975 028b 01       		.byte	0x1
 3976 028c 31       		.uleb128 0x31
 3977 028d 13       		.uleb128 0x13
 3978 028e 52       		.uleb128 0x52
 3979 028f 01       		.uleb128 0x1
 3980 0290 55       		.uleb128 0x55
 3981 0291 06       		.uleb128 0x6
 3982 0292 58       		.uleb128 0x58
 3983 0293 0B       		.uleb128 0xb
 3984 0294 59       		.uleb128 0x59
 3985 0295 05       		.uleb128 0x5
 3986 0296 01       		.uleb128 0x1
 3987 0297 13       		.uleb128 0x13
 3988 0298 00       		.byte	0
 3989 0299 00       		.byte	0
 3990 029a 34       		.uleb128 0x34
 3991 029b 2E       		.uleb128 0x2e
 3992 029c 01       		.byte	0x1
 3993 029d 3F       		.uleb128 0x3f
 3994 029e 0C       		.uleb128 0xc
 3995 029f 03       		.uleb128 0x3
 3996 02a0 0E       		.uleb128 0xe
 3997 02a1 3A       		.uleb128 0x3a
 3998 02a2 0B       		.uleb128 0xb
 3999 02a3 3B       		.uleb128 0x3b
 4000 02a4 05       		.uleb128 0x5
 4001 02a5 27       		.uleb128 0x27
 4002 02a6 0C       		.uleb128 0xc
 4003 02a7 11       		.uleb128 0x11
 4004 02a8 01       		.uleb128 0x1
 4005 02a9 12       		.uleb128 0x12
 4006 02aa 01       		.uleb128 0x1
 4007 02ab 40       		.uleb128 0x40
 4008 02ac 0A       		.uleb128 0xa
 4009 02ad 9742     		.uleb128 0x2117
 4010 02af 0C       		.uleb128 0xc
 4011 02b0 01       		.uleb128 0x1
 4012 02b1 13       		.uleb128 0x13
 4013 02b2 00       		.byte	0
 4014 02b3 00       		.byte	0
 4015 02b4 35       		.uleb128 0x35
 4016 02b5 898201   		.uleb128 0x4109
 4017 02b8 01       		.byte	0x1
 4018 02b9 11       		.uleb128 0x11
 4019 02ba 01       		.uleb128 0x1
 4020 02bb 9542     		.uleb128 0x2115
 4021 02bd 0C       		.uleb128 0xc
 4022 02be 31       		.uleb128 0x31
 4023 02bf 13       		.uleb128 0x13
 4024 02c0 01       		.uleb128 0x1
 4025 02c1 13       		.uleb128 0x13
 4026 02c2 00       		.byte	0
 4027 02c3 00       		.byte	0
ARM GAS  /var/folders/ng/s8655sgx1ys_4lf9jzm2w6n00000gn/T//ccPC48YK.s 			page 72


 4028 02c4 36       		.uleb128 0x36
 4029 02c5 898201   		.uleb128 0x4109
 4030 02c8 01       		.byte	0x1
 4031 02c9 11       		.uleb128 0x11
 4032 02ca 01       		.uleb128 0x1
 4033 02cb 9542     		.uleb128 0x2115
 4034 02cd 0C       		.uleb128 0xc
 4035 02ce 31       		.uleb128 0x31
 4036 02cf 13       		.uleb128 0x13
 4037 02d0 00       		.byte	0
 4038 02d1 00       		.byte	0
 4039 02d2 37       		.uleb128 0x37
 4040 02d3 34       		.uleb128 0x34
 4041 02d4 00       		.byte	0
 4042 02d5 03       		.uleb128 0x3
 4043 02d6 0E       		.uleb128 0xe
 4044 02d7 3A       		.uleb128 0x3a
 4045 02d8 0B       		.uleb128 0xb
 4046 02d9 3B       		.uleb128 0x3b
 4047 02da 0B       		.uleb128 0xb
 4048 02db 49       		.uleb128 0x49
 4049 02dc 13       		.uleb128 0x13
 4050 02dd 02       		.uleb128 0x2
 4051 02de 0A       		.uleb128 0xa
 4052 02df 00       		.byte	0
 4053 02e0 00       		.byte	0
 4054 02e1 38       		.uleb128 0x38
 4055 02e2 34       		.uleb128 0x34
 4056 02e3 00       		.byte	0
 4057 02e4 03       		.uleb128 0x3
 4058 02e5 0E       		.uleb128 0xe
 4059 02e6 3A       		.uleb128 0x3a
 4060 02e7 0B       		.uleb128 0xb
 4061 02e8 3B       		.uleb128 0x3b
 4062 02e9 05       		.uleb128 0x5
 4063 02ea 49       		.uleb128 0x49
 4064 02eb 13       		.uleb128 0x13
 4065 02ec 3F       		.uleb128 0x3f
 4066 02ed 0C       		.uleb128 0xc
 4067 02ee 3C       		.uleb128 0x3c
 4068 02ef 0C       		.uleb128 0xc
 4069 02f0 00       		.byte	0
 4070 02f1 00       		.byte	0
 4071 02f2 39       		.uleb128 0x39
 4072 02f3 34       		.uleb128 0x34
 4073 02f4 00       		.byte	0
 4074 02f5 03       		.uleb128 0x3
 4075 02f6 08       		.uleb128 0x8
 4076 02f7 3A       		.uleb128 0x3a
 4077 02f8 0B       		.uleb128 0xb
 4078 02f9 3B       		.uleb128 0x3b
 4079 02fa 0B       		.uleb128 0xb
 4080 02fb 49       		.uleb128 0x49
 4081 02fc 13       		.uleb128 0x13
 4082 02fd 3F       		.uleb128 0x3f
 4083 02fe 0C       		.uleb128 0xc
 4084 02ff 02       		.uleb128 0x2
ARM GAS  /var/folders/ng/s8655sgx1ys_4lf9jzm2w6n00000gn/T//ccPC48YK.s 			page 73


 4085 0300 0A       		.uleb128 0xa
 4086 0301 00       		.byte	0
 4087 0302 00       		.byte	0
 4088 0303 3A       		.uleb128 0x3a
 4089 0304 2E       		.uleb128 0x2e
 4090 0305 01       		.byte	0x1
 4091 0306 3F       		.uleb128 0x3f
 4092 0307 0C       		.uleb128 0xc
 4093 0308 03       		.uleb128 0x3
 4094 0309 0E       		.uleb128 0xe
 4095 030a 3A       		.uleb128 0x3a
 4096 030b 0B       		.uleb128 0xb
 4097 030c 3B       		.uleb128 0x3b
 4098 030d 0B       		.uleb128 0xb
 4099 030e 27       		.uleb128 0x27
 4100 030f 0C       		.uleb128 0xc
 4101 0310 3C       		.uleb128 0x3c
 4102 0311 0C       		.uleb128 0xc
 4103 0312 01       		.uleb128 0x1
 4104 0313 13       		.uleb128 0x13
 4105 0314 00       		.byte	0
 4106 0315 00       		.byte	0
 4107 0316 3B       		.uleb128 0x3b
 4108 0317 2E       		.uleb128 0x2e
 4109 0318 01       		.byte	0x1
 4110 0319 3F       		.uleb128 0x3f
 4111 031a 0C       		.uleb128 0xc
 4112 031b 03       		.uleb128 0x3
 4113 031c 0E       		.uleb128 0xe
 4114 031d 3A       		.uleb128 0x3a
 4115 031e 0B       		.uleb128 0xb
 4116 031f 3B       		.uleb128 0x3b
 4117 0320 05       		.uleb128 0x5
 4118 0321 27       		.uleb128 0x27
 4119 0322 0C       		.uleb128 0xc
 4120 0323 49       		.uleb128 0x49
 4121 0324 13       		.uleb128 0x13
 4122 0325 3C       		.uleb128 0x3c
 4123 0326 0C       		.uleb128 0xc
 4124 0327 01       		.uleb128 0x1
 4125 0328 13       		.uleb128 0x13
 4126 0329 00       		.byte	0
 4127 032a 00       		.byte	0
 4128 032b 3C       		.uleb128 0x3c
 4129 032c 2E       		.uleb128 0x2e
 4130 032d 01       		.byte	0x1
 4131 032e 3F       		.uleb128 0x3f
 4132 032f 0C       		.uleb128 0xc
 4133 0330 03       		.uleb128 0x3
 4134 0331 0E       		.uleb128 0xe
 4135 0332 3A       		.uleb128 0x3a
 4136 0333 0B       		.uleb128 0xb
 4137 0334 3B       		.uleb128 0x3b
 4138 0335 05       		.uleb128 0x5
 4139 0336 27       		.uleb128 0x27
 4140 0337 0C       		.uleb128 0xc
 4141 0338 3C       		.uleb128 0x3c
ARM GAS  /var/folders/ng/s8655sgx1ys_4lf9jzm2w6n00000gn/T//ccPC48YK.s 			page 74


 4142 0339 0C       		.uleb128 0xc
 4143 033a 01       		.uleb128 0x1
 4144 033b 13       		.uleb128 0x13
 4145 033c 00       		.byte	0
 4146 033d 00       		.byte	0
 4147 033e 3D       		.uleb128 0x3d
 4148 033f 2E       		.uleb128 0x2e
 4149 0340 00       		.byte	0
 4150 0341 3F       		.uleb128 0x3f
 4151 0342 0C       		.uleb128 0xc
 4152 0343 03       		.uleb128 0x3
 4153 0344 0E       		.uleb128 0xe
 4154 0345 3A       		.uleb128 0x3a
 4155 0346 0B       		.uleb128 0xb
 4156 0347 3B       		.uleb128 0x3b
 4157 0348 05       		.uleb128 0x5
 4158 0349 27       		.uleb128 0x27
 4159 034a 0C       		.uleb128 0xc
 4160 034b 3C       		.uleb128 0x3c
 4161 034c 0C       		.uleb128 0xc
 4162 034d 00       		.byte	0
 4163 034e 00       		.byte	0
 4164 034f 3E       		.uleb128 0x3e
 4165 0350 2E       		.uleb128 0x2e
 4166 0351 01       		.byte	0x1
 4167 0352 3F       		.uleb128 0x3f
 4168 0353 0C       		.uleb128 0xc
 4169 0354 03       		.uleb128 0x3
 4170 0355 0E       		.uleb128 0xe
 4171 0356 3A       		.uleb128 0x3a
 4172 0357 0B       		.uleb128 0xb
 4173 0358 3B       		.uleb128 0x3b
 4174 0359 05       		.uleb128 0x5
 4175 035a 27       		.uleb128 0x27
 4176 035b 0C       		.uleb128 0xc
 4177 035c 3C       		.uleb128 0x3c
 4178 035d 0C       		.uleb128 0xc
 4179 035e 00       		.byte	0
 4180 035f 00       		.byte	0
 4181 0360 00       		.byte	0
 4182              		.section	.debug_loc,"",%progbits
 4183              	.Ldebug_loc0:
 4184              	.LLST0:
 4185 0000 00000000 		.4byte	.LVL0
 4186 0004 0C000000 		.4byte	.LVL1
 4187 0008 0100     		.2byte	0x1
 4188 000a 50       		.byte	0x50
 4189 000b 0C000000 		.4byte	.LVL1
 4190 000f 14000000 		.4byte	.LFE122
 4191 0013 0400     		.2byte	0x4
 4192 0015 F3       		.byte	0xf3
 4193 0016 01       		.uleb128 0x1
 4194 0017 50       		.byte	0x50
 4195 0018 9F       		.byte	0x9f
 4196 0019 00000000 		.4byte	0
 4197 001d 00000000 		.4byte	0
 4198              	.LLST1:
ARM GAS  /var/folders/ng/s8655sgx1ys_4lf9jzm2w6n00000gn/T//ccPC48YK.s 			page 75


 4199 0021 00000000 		.4byte	.LVL2
 4200 0025 0C000000 		.4byte	.LVL3
 4201 0029 0100     		.2byte	0x1
 4202 002b 50       		.byte	0x50
 4203 002c 0C000000 		.4byte	.LVL3
 4204 0030 14000000 		.4byte	.LFE123
 4205 0034 0400     		.2byte	0x4
 4206 0036 F3       		.byte	0xf3
 4207 0037 01       		.uleb128 0x1
 4208 0038 50       		.byte	0x50
 4209 0039 9F       		.byte	0x9f
 4210 003a 00000000 		.4byte	0
 4211 003e 00000000 		.4byte	0
 4212              	.LLST2:
 4213 0042 00000000 		.4byte	.LFB121
 4214 0046 04000000 		.4byte	.LCFI0
 4215 004a 0200     		.2byte	0x2
 4216 004c 7D       		.byte	0x7d
 4217 004d 00       		.sleb128 0
 4218 004e 04000000 		.4byte	.LCFI0
 4219 0052 16010000 		.4byte	.LFE121
 4220 0056 0200     		.2byte	0x2
 4221 0058 7D       		.byte	0x7d
 4222 0059 18       		.sleb128 24
 4223 005a 00000000 		.4byte	0
 4224 005e 00000000 		.4byte	0
 4225              	.LLST3:
 4226 0062 00000000 		.4byte	.LVL4
 4227 0066 16000000 		.4byte	.LVL6
 4228 006a 0100     		.2byte	0x1
 4229 006c 50       		.byte	0x50
 4230 006d 16000000 		.4byte	.LVL6
 4231 0071 16010000 		.4byte	.LFE121
 4232 0075 0100     		.2byte	0x1
 4233 0077 56       		.byte	0x56
 4234 0078 00000000 		.4byte	0
 4235 007c 00000000 		.4byte	0
 4236              	.LLST4:
 4237 0080 1A000000 		.4byte	.LVL7
 4238 0084 2E000000 		.4byte	.LVL12
 4239 0088 0100     		.2byte	0x1
 4240 008a 54       		.byte	0x54
 4241 008b 3C000000 		.4byte	.LVL14
 4242 008f 44000000 		.4byte	.LVL15
 4243 0093 0100     		.2byte	0x1
 4244 0095 50       		.byte	0x50
 4245 0096 C6000000 		.4byte	.LVL33
 4246 009a E4000000 		.4byte	.LVL38
 4247 009e 0100     		.2byte	0x1
 4248 00a0 54       		.byte	0x54
 4249 00a1 00000000 		.4byte	0
 4250 00a5 00000000 		.4byte	0
 4251              	.LLST5:
 4252 00a9 24000000 		.4byte	.LVL10
 4253 00ad 26000000 		.4byte	.LVL11
 4254 00b1 0100     		.2byte	0x1
 4255 00b3 53       		.byte	0x53
ARM GAS  /var/folders/ng/s8655sgx1ys_4lf9jzm2w6n00000gn/T//ccPC48YK.s 			page 76


 4256 00b4 00000000 		.4byte	0
 4257 00b8 00000000 		.4byte	0
 4258              	.LLST6:
 4259 00bc 48000000 		.4byte	.LVL16
 4260 00c0 64000000 		.4byte	.LVL18
 4261 00c4 0100     		.2byte	0x1
 4262 00c6 54       		.byte	0x54
 4263 00c7 00000000 		.4byte	0
 4264 00cb 00000000 		.4byte	0
 4265              	.LLST7:
 4266 00cf 48000000 		.4byte	.LVL16
 4267 00d3 5A000000 		.4byte	.LVL17
 4268 00d7 0200     		.2byte	0x2
 4269 00d9 30       		.byte	0x30
 4270 00da 9F       		.byte	0x9f
 4271 00db 5A000000 		.4byte	.LVL17
 4272 00df 7D000000 		.4byte	.LVL22-1
 4273 00e3 0100     		.2byte	0x1
 4274 00e5 51       		.byte	0x51
 4275 00e6 00000000 		.4byte	0
 4276 00ea 00000000 		.4byte	0
 4277              	.LLST8:
 4278 00ee 86000000 		.4byte	.LVL24
 4279 00f2 92000000 		.4byte	.LVL25
 4280 00f6 0100     		.2byte	0x1
 4281 00f8 53       		.byte	0x53
 4282 00f9 96000000 		.4byte	.LVL26
 4283 00fd A0000000 		.4byte	.LVL27
 4284 0101 0100     		.2byte	0x1
 4285 0103 53       		.byte	0x53
 4286 0104 C2000000 		.4byte	.LVL32
 4287 0108 C6000000 		.4byte	.LVL33
 4288 010c 0100     		.2byte	0x1
 4289 010e 53       		.byte	0x53
 4290 010f 00000000 		.4byte	0
 4291 0113 00000000 		.4byte	0
 4292              	.LLST9:
 4293 0117 A4000000 		.4byte	.LVL28
 4294 011b AB000000 		.4byte	.LVL29-1
 4295 011f 0100     		.2byte	0x1
 4296 0121 53       		.byte	0x53
 4297 0122 00000000 		.4byte	0
 4298 0126 00000000 		.4byte	0
 4299              	.LLST10:
 4300 012a B2000000 		.4byte	.LVL31
 4301 012e C6000000 		.4byte	.LVL33
 4302 0132 0100     		.2byte	0x1
 4303 0134 53       		.byte	0x53
 4304 0135 00000000 		.4byte	0
 4305 0139 00000000 		.4byte	0
 4306              	.LLST11:
 4307 013d CC000000 		.4byte	.LVL35
 4308 0141 D5000000 		.4byte	.LVL36-1
 4309 0145 0100     		.2byte	0x1
 4310 0147 53       		.byte	0x53
 4311 0148 00000000 		.4byte	0
 4312 014c 00000000 		.4byte	0
ARM GAS  /var/folders/ng/s8655sgx1ys_4lf9jzm2w6n00000gn/T//ccPC48YK.s 			page 77


 4313              	.LLST12:
 4314 0150 1E000000 		.4byte	.LVL8
 4315 0154 20000000 		.4byte	.LVL9
 4316 0158 0100     		.2byte	0x1
 4317 015a 53       		.byte	0x53
 4318 015b DC000000 		.4byte	.LVL37
 4319 015f E4000000 		.4byte	.LVL38
 4320 0163 0100     		.2byte	0x1
 4321 0165 53       		.byte	0x53
 4322 0166 00000000 		.4byte	0
 4323 016a 00000000 		.4byte	0
 4324              	.LLST13:
 4325 016e F2000000 		.4byte	.LVL41
 4326 0172 FA000000 		.4byte	.LVL42
 4327 0176 0100     		.2byte	0x1
 4328 0178 50       		.byte	0x50
 4329 0179 02010000 		.4byte	.LVL44
 4330 017d 04010000 		.4byte	.LVL45
 4331 0181 0100     		.2byte	0x1
 4332 0183 50       		.byte	0x50
 4333 0184 00000000 		.4byte	0
 4334 0188 00000000 		.4byte	0
 4335              	.LLST14:
 4336 018c EA000000 		.4byte	.LVL40
 4337 0190 F1000000 		.4byte	.LVL41-1
 4338 0194 0100     		.2byte	0x1
 4339 0196 53       		.byte	0x53
 4340 0197 00000000 		.4byte	0
 4341 019b 00000000 		.4byte	0
 4342              	.LLST15:
 4343 019f 96000000 		.4byte	.LVL26
 4344 01a3 A0000000 		.4byte	.LVL27
 4345 01a7 0100     		.2byte	0x1
 4346 01a9 53       		.byte	0x53
 4347 01aa C2000000 		.4byte	.LVL32
 4348 01ae C6000000 		.4byte	.LVL33
 4349 01b2 0100     		.2byte	0x1
 4350 01b4 53       		.byte	0x53
 4351 01b5 00010000 		.4byte	.LVL43
 4352 01b9 02010000 		.4byte	.LVL44
 4353 01bd 0100     		.2byte	0x1
 4354 01bf 53       		.byte	0x53
 4355 01c0 00000000 		.4byte	0
 4356 01c4 00000000 		.4byte	0
 4357              	.LLST16:
 4358 01c8 00000000 		.4byte	.LFB124
 4359 01cc 02000000 		.4byte	.LCFI1
 4360 01d0 0200     		.2byte	0x2
 4361 01d2 7D       		.byte	0x7d
 4362 01d3 00       		.sleb128 0
 4363 01d4 02000000 		.4byte	.LCFI1
 4364 01d8 16000000 		.4byte	.LFE124
 4365 01dc 0200     		.2byte	0x2
 4366 01de 7D       		.byte	0x7d
 4367 01df 08       		.sleb128 8
 4368 01e0 00000000 		.4byte	0
 4369 01e4 00000000 		.4byte	0
ARM GAS  /var/folders/ng/s8655sgx1ys_4lf9jzm2w6n00000gn/T//ccPC48YK.s 			page 78


 4370              	.LLST17:
 4371 01e8 00000000 		.4byte	.LFB125
 4372 01ec 02000000 		.4byte	.LCFI2
 4373 01f0 0200     		.2byte	0x2
 4374 01f2 7D       		.byte	0x7d
 4375 01f3 00       		.sleb128 0
 4376 01f4 02000000 		.4byte	.LCFI2
 4377 01f8 16000000 		.4byte	.LFE125
 4378 01fc 0200     		.2byte	0x2
 4379 01fe 7D       		.byte	0x7d
 4380 01ff 08       		.sleb128 8
 4381 0200 00000000 		.4byte	0
 4382 0204 00000000 		.4byte	0
 4383              	.LLST18:
 4384 0208 00000000 		.4byte	.LFB126
 4385 020c 02000000 		.4byte	.LCFI3
 4386 0210 0200     		.2byte	0x2
 4387 0212 7D       		.byte	0x7d
 4388 0213 00       		.sleb128 0
 4389 0214 02000000 		.4byte	.LCFI3
 4390 0218 48000000 		.4byte	.LFE126
 4391 021c 0200     		.2byte	0x2
 4392 021e 7D       		.byte	0x7d
 4393 021f 10       		.sleb128 16
 4394 0220 00000000 		.4byte	0
 4395 0224 00000000 		.4byte	0
 4396              	.LLST19:
 4397 0228 00000000 		.4byte	.LFB127
 4398 022c 02000000 		.4byte	.LCFI4
 4399 0230 0200     		.2byte	0x2
 4400 0232 7D       		.byte	0x7d
 4401 0233 00       		.sleb128 0
 4402 0234 02000000 		.4byte	.LCFI4
 4403 0238 C8000000 		.4byte	.LFE127
 4404 023c 0200     		.2byte	0x2
 4405 023e 7D       		.byte	0x7d
 4406 023f 10       		.sleb128 16
 4407 0240 00000000 		.4byte	0
 4408 0244 00000000 		.4byte	0
 4409              	.LLST20:
 4410 0248 00000000 		.4byte	.LVL53
 4411 024c 12000000 		.4byte	.LVL54
 4412 0250 0100     		.2byte	0x1
 4413 0252 50       		.byte	0x50
 4414 0253 12000000 		.4byte	.LVL54
 4415 0257 6A000000 		.4byte	.LVL57
 4416 025b 0100     		.2byte	0x1
 4417 025d 55       		.byte	0x55
 4418 025e 6A000000 		.4byte	.LVL57
 4419 0262 6C000000 		.4byte	.LVL58
 4420 0266 0100     		.2byte	0x1
 4421 0268 50       		.byte	0x50
 4422 0269 6C000000 		.4byte	.LVL58
 4423 026d C8000000 		.4byte	.LFE127
 4424 0271 0100     		.2byte	0x1
 4425 0273 55       		.byte	0x55
 4426 0274 00000000 		.4byte	0
ARM GAS  /var/folders/ng/s8655sgx1ys_4lf9jzm2w6n00000gn/T//ccPC48YK.s 			page 79


 4427 0278 00000000 		.4byte	0
 4428              	.LLST21:
 4429 027c 00000000 		.4byte	.LVL53
 4430 0280 12000000 		.4byte	.LVL54
 4431 0284 0100     		.2byte	0x1
 4432 0286 51       		.byte	0x51
 4433 0287 12000000 		.4byte	.LVL54
 4434 028b 6A000000 		.4byte	.LVL57
 4435 028f 0400     		.2byte	0x4
 4436 0291 F3       		.byte	0xf3
 4437 0292 01       		.uleb128 0x1
 4438 0293 51       		.byte	0x51
 4439 0294 9F       		.byte	0x9f
 4440 0295 6A000000 		.4byte	.LVL57
 4441 0299 72000000 		.4byte	.LVL59
 4442 029d 0100     		.2byte	0x1
 4443 029f 51       		.byte	0x51
 4444 02a0 72000000 		.4byte	.LVL59
 4445 02a4 A2000000 		.4byte	.LVL62
 4446 02a8 0400     		.2byte	0x4
 4447 02aa F3       		.byte	0xf3
 4448 02ab 01       		.uleb128 0x1
 4449 02ac 51       		.byte	0x51
 4450 02ad 9F       		.byte	0x9f
 4451 02ae A2000000 		.4byte	.LVL62
 4452 02b2 B2000000 		.4byte	.LVL63
 4453 02b6 0100     		.2byte	0x1
 4454 02b8 51       		.byte	0x51
 4455 02b9 B2000000 		.4byte	.LVL63
 4456 02bd C8000000 		.4byte	.LFE127
 4457 02c1 0400     		.2byte	0x4
 4458 02c3 F3       		.byte	0xf3
 4459 02c4 01       		.uleb128 0x1
 4460 02c5 51       		.byte	0x51
 4461 02c6 9F       		.byte	0x9f
 4462 02c7 00000000 		.4byte	0
 4463 02cb 00000000 		.4byte	0
 4464              	.LLST22:
 4465 02cf 12000000 		.4byte	.LVL54
 4466 02d3 6A000000 		.4byte	.LVL57
 4467 02d7 0100     		.2byte	0x1
 4468 02d9 55       		.byte	0x55
 4469 02da 90000000 		.4byte	.LVL61
 4470 02de A2000000 		.4byte	.LVL62
 4471 02e2 0100     		.2byte	0x1
 4472 02e4 55       		.byte	0x55
 4473 02e5 00000000 		.4byte	0
 4474 02e9 00000000 		.4byte	0
 4475              	.LLST23:
 4476 02ed 18000000 		.4byte	.LVL55
 4477 02f1 68000000 		.4byte	.LVL56
 4478 02f5 0100     		.2byte	0x1
 4479 02f7 53       		.byte	0x53
 4480 02f8 68000000 		.4byte	.LVL56
 4481 02fc 6A000000 		.4byte	.LVL57
 4482 0300 0300     		.2byte	0x3
 4483 0302 75       		.byte	0x75
ARM GAS  /var/folders/ng/s8655sgx1ys_4lf9jzm2w6n00000gn/T//ccPC48YK.s 			page 80


 4484 0303 F400     		.sleb128 116
 4485 0305 90000000 		.4byte	.LVL61
 4486 0309 A2000000 		.4byte	.LVL62
 4487 030d 0100     		.2byte	0x1
 4488 030f 53       		.byte	0x53
 4489 0310 00000000 		.4byte	0
 4490 0314 00000000 		.4byte	0
 4491              	.LLST24:
 4492 0318 00000000 		.4byte	.LVL65
 4493 031c 28000000 		.4byte	.LVL68
 4494 0320 0100     		.2byte	0x1
 4495 0322 50       		.byte	0x50
 4496 0323 28000000 		.4byte	.LVL68
 4497 0327 34000000 		.4byte	.LVL69
 4498 032b 0400     		.2byte	0x4
 4499 032d F3       		.byte	0xf3
 4500 032e 01       		.uleb128 0x1
 4501 032f 50       		.byte	0x50
 4502 0330 9F       		.byte	0x9f
 4503 0331 34000000 		.4byte	.LVL69
 4504 0335 3E000000 		.4byte	.LVL70
 4505 0339 0100     		.2byte	0x1
 4506 033b 50       		.byte	0x50
 4507 033c 3E000000 		.4byte	.LVL70
 4508 0340 54000000 		.4byte	.LFE128
 4509 0344 0400     		.2byte	0x4
 4510 0346 F3       		.byte	0xf3
 4511 0347 01       		.uleb128 0x1
 4512 0348 50       		.byte	0x50
 4513 0349 9F       		.byte	0x9f
 4514 034a 00000000 		.4byte	0
 4515 034e 00000000 		.4byte	0
 4516              	.LLST25:
 4517 0352 0C000000 		.4byte	.LVL66
 4518 0356 1A000000 		.4byte	.LVL67
 4519 035a 0100     		.2byte	0x1
 4520 035c 51       		.byte	0x51
 4521 035d 1A000000 		.4byte	.LVL67
 4522 0361 28000000 		.4byte	.LVL68
 4523 0365 0300     		.2byte	0x3
 4524 0367 70       		.byte	0x70
 4525 0368 F400     		.sleb128 116
 4526 036a 28000000 		.4byte	.LVL68
 4527 036e 33000000 		.4byte	.LVL69-1
 4528 0372 0500     		.2byte	0x5
 4529 0374 F3       		.byte	0xf3
 4530 0375 01       		.uleb128 0x1
 4531 0376 50       		.byte	0x50
 4532 0377 23       		.byte	0x23
 4533 0378 74       		.uleb128 0x74
 4534 0379 34000000 		.4byte	.LVL69
 4535 037d 44000000 		.4byte	.LVL71
 4536 0381 0100     		.2byte	0x1
 4537 0383 51       		.byte	0x51
 4538 0384 44000000 		.4byte	.LVL71
 4539 0388 49000000 		.4byte	.LVL72-1
 4540 038c 0500     		.2byte	0x5
ARM GAS  /var/folders/ng/s8655sgx1ys_4lf9jzm2w6n00000gn/T//ccPC48YK.s 			page 81


 4541 038e F3       		.byte	0xf3
 4542 038f 01       		.uleb128 0x1
 4543 0390 50       		.byte	0x50
 4544 0391 23       		.byte	0x23
 4545 0392 74       		.uleb128 0x74
 4546 0393 00000000 		.4byte	0
 4547 0397 00000000 		.4byte	0
 4548              		.section	.debug_aranges,"",%progbits
 4549 0000 54000000 		.4byte	0x54
 4550 0004 0200     		.2byte	0x2
 4551 0006 00000000 		.4byte	.Ldebug_info0
 4552 000a 04       		.byte	0x4
 4553 000b 00       		.byte	0
 4554 000c 0000     		.2byte	0
 4555 000e 0000     		.2byte	0
 4556 0010 00000000 		.4byte	.LFB122
 4557 0014 14000000 		.4byte	.LFE122-.LFB122
 4558 0018 00000000 		.4byte	.LFB123
 4559 001c 14000000 		.4byte	.LFE123-.LFB123
 4560 0020 00000000 		.4byte	.LFB121
 4561 0024 16010000 		.4byte	.LFE121-.LFB121
 4562 0028 00000000 		.4byte	.LFB124
 4563 002c 16000000 		.4byte	.LFE124-.LFB124
 4564 0030 00000000 		.4byte	.LFB125
 4565 0034 16000000 		.4byte	.LFE125-.LFB125
 4566 0038 00000000 		.4byte	.LFB126
 4567 003c 48000000 		.4byte	.LFE126-.LFB126
 4568 0040 00000000 		.4byte	.LFB127
 4569 0044 C8000000 		.4byte	.LFE127-.LFB127
 4570 0048 00000000 		.4byte	.LFB128
 4571 004c 54000000 		.4byte	.LFE128-.LFB128
 4572 0050 00000000 		.4byte	0
 4573 0054 00000000 		.4byte	0
 4574              		.section	.debug_ranges,"",%progbits
 4575              	.Ldebug_ranges0:
 4576 0000 2A000000 		.4byte	.LBB16
 4577 0004 2E000000 		.4byte	.LBE16
 4578 0008 48000000 		.4byte	.LBB19
 4579 000c 80000000 		.4byte	.LBE19
 4580 0010 00000000 		.4byte	0
 4581 0014 00000000 		.4byte	0
 4582 0018 2A000000 		.4byte	.LBB17
 4583 001c 2E000000 		.4byte	.LBE17
 4584 0020 48000000 		.4byte	.LBB18
 4585 0024 80000000 		.4byte	.LBE18
 4586 0028 00000000 		.4byte	0
 4587 002c 00000000 		.4byte	0
 4588 0030 12000000 		.4byte	.LBB30
 4589 0034 6A000000 		.4byte	.LBE30
 4590 0038 90000000 		.4byte	.LBB33
 4591 003c A2000000 		.4byte	.LBE33
 4592 0040 00000000 		.4byte	0
 4593 0044 00000000 		.4byte	0
 4594 0048 12000000 		.4byte	.LBB31
 4595 004c 6A000000 		.4byte	.LBE31
 4596 0050 90000000 		.4byte	.LBB32
 4597 0054 A2000000 		.4byte	.LBE32
ARM GAS  /var/folders/ng/s8655sgx1ys_4lf9jzm2w6n00000gn/T//ccPC48YK.s 			page 82


 4598 0058 00000000 		.4byte	0
 4599 005c 00000000 		.4byte	0
 4600 0060 0C000000 		.4byte	.LBB34
 4601 0064 0E000000 		.4byte	.LBE34
 4602 0068 10000000 		.4byte	.LBB37
 4603 006c 16000000 		.4byte	.LBE37
 4604 0070 00000000 		.4byte	0
 4605 0074 00000000 		.4byte	0
 4606 0078 00000000 		.4byte	.LFB122
 4607 007c 14000000 		.4byte	.LFE122
 4608 0080 00000000 		.4byte	.LFB123
 4609 0084 14000000 		.4byte	.LFE123
 4610 0088 00000000 		.4byte	.LFB121
 4611 008c 16010000 		.4byte	.LFE121
 4612 0090 00000000 		.4byte	.LFB124
 4613 0094 16000000 		.4byte	.LFE124
 4614 0098 00000000 		.4byte	.LFB125
 4615 009c 16000000 		.4byte	.LFE125
 4616 00a0 00000000 		.4byte	.LFB126
 4617 00a4 48000000 		.4byte	.LFE126
 4618 00a8 00000000 		.4byte	.LFB127
 4619 00ac C8000000 		.4byte	.LFE127
 4620 00b0 00000000 		.4byte	.LFB128
 4621 00b4 54000000 		.4byte	.LFE128
 4622 00b8 00000000 		.4byte	0
 4623 00bc 00000000 		.4byte	0
 4624              		.section	.debug_line,"",%progbits
 4625              	.Ldebug_line0:
 4626 0000 0D040000 		.section	.debug_str,"MS",%progbits,1
 4626      0200D002 
 4626      00000201 
 4626      FB0E0D00 
 4626      01010101 
 4627              	.LASF2:
 4628 0000 73697A65 		.ascii	"size_t\000"
 4628      5F7400
 4629              	.LASF130:
 4630 0007 54494D38 		.ascii	"TIM8_UP_TIM13_IRQn\000"
 4630      5F55505F 
 4630      54494D31 
 4630      335F4952 
 4630      516E00
 4631              	.LASF49:
 4632 001a 73697A65 		.ascii	"sizetype\000"
 4632      74797065 
 4632      00
 4633              	.LASF23:
 4634 0023 73797374 		.ascii	"systime_t\000"
 4634      696D655F 
 4634      7400
 4635              	.LASF201:
 4636 002d 504C4C49 		.ascii	"PLLI2SCFGR\000"
 4636      32534346 
 4636      475200
 4637              	.LASF28:
 4638 0038 705F6374 		.ascii	"p_ctx\000"
 4638      7800
ARM GAS  /var/folders/ng/s8655sgx1ys_4lf9jzm2w6n00000gn/T//ccPC48YK.s 			page 83


 4639              	.LASF19:
 4640 003e 74707269 		.ascii	"tprio_t\000"
 4640      6F5F7400 
 4641              	.LASF38:
 4642 0046 705F6D73 		.ascii	"p_msgqueue\000"
 4642      67717565 
 4642      756500
 4643              	.LASF8:
 4644 0051 696E7433 		.ascii	"int32_t\000"
 4644      325F7400 
 4645              	.LASF218:
 4646 0059 53657269 		.ascii	"SerialConfig\000"
 4646      616C436F 
 4646      6E666967 
 4646      00
 4647              	.LASF224:
 4648 0066 77726974 		.ascii	"writet\000"
 4648      657400
 4649              	.LASF205:
 4650 006d 47545052 		.ascii	"GTPR\000"
 4650      00
 4651              	.LASF220:
 4652 0072 77726974 		.ascii	"write\000"
 4652      6500
 4653              	.LASF143:
 4654 0078 444D4132 		.ascii	"DMA2_Stream1_IRQn\000"
 4654      5F537472 
 4654      65616D31 
 4654      5F495251 
 4654      6E00
 4655              	.LASF232:
 4656 008a 56656374 		.ascii	"VectorD8\000"
 4656      6F724438 
 4656      00
 4657              	.LASF137:
 4658 0093 53504933 		.ascii	"SPI3_IRQn\000"
 4658      5F495251 
 4658      6E00
 4659              	.LASF90:
 4660 009d 464C4153 		.ascii	"FLASH_IRQn\000"
 4660      485F4952 
 4660      516E00
 4661              	.LASF164:
 4662 00a8 44434D49 		.ascii	"DCMI_IRQn\000"
 4662      5F495251 
 4662      6E00
 4663              	.LASF58:
 4664 00b2 656C5F66 		.ascii	"el_flags\000"
 4664      6C616773 
 4664      00
 4665              	.LASF235:
 4666 00bb 636F6E66 		.ascii	"config\000"
 4666      696700
 4667              	.LASF213:
 4668 00c2 73746174 		.ascii	"state\000"
 4668      6500
 4669              	.LASF222:
ARM GAS  /var/folders/ng/s8655sgx1ys_4lf9jzm2w6n00000gn/T//ccPC48YK.s 			page 84


 4670 00c8 70757474 		.ascii	"putt\000"
 4670      00
 4671              	.LASF114:
 4672 00cd 54494D32 		.ascii	"TIM2_IRQn\000"
 4672      5F495251 
 4672      6E00
 4673              	.LASF230:
 4674 00d7 73657276 		.ascii	"serve_interrupt\000"
 4674      655F696E 
 4674      74657272 
 4674      75707400 
 4675              	.LASF244:
 4676 00e7 474E5520 		.ascii	"GNU C 4.7.4 20130913 (release) [ARM/embedded-4_7-br"
 4676      4320342E 
 4676      372E3420 
 4676      32303133 
 4676      30393133 
 4677 011a 616E6368 		.ascii	"anch revision 202601]\000"
 4677      20726576 
 4677      6973696F 
 4677      6E203230 
 4677      32363031 
 4678              	.LASF229:
 4679 0130 7365745F 		.ascii	"set_error\000"
 4679      6572726F 
 4679      7200
 4680              	.LASF150:
 4681 013a 43414E32 		.ascii	"CAN2_RX0_IRQn\000"
 4681      5F525830 
 4681      5F495251 
 4681      6E00
 4682              	.LASF157:
 4683 0148 55534152 		.ascii	"USART6_IRQn\000"
 4683      54365F49 
 4683      52516E00 
 4684              	.LASF52:
 4685 0154 6D5F6F77 		.ascii	"m_owner\000"
 4685      6E657200 
 4686              	.LASF62:
 4687 015c 65786974 		.ascii	"exitcode\000"
 4687      636F6465 
 4687      00
 4688              	.LASF162:
 4689 0165 4F54475F 		.ascii	"OTG_HS_WKUP_IRQn\000"
 4689      48535F57 
 4689      4B55505F 
 4689      4952516E 
 4689      00
 4690              	.LASF70:
 4691 0176 715F746F 		.ascii	"q_top\000"
 4691      7000
 4692              	.LASF64:
 4693 017c 65776D61 		.ascii	"ewmask\000"
 4693      736B00
 4694              	.LASF129:
 4695 0183 54494D38 		.ascii	"TIM8_BRK_TIM12_IRQn\000"
 4695      5F42524B 
ARM GAS  /var/folders/ng/s8655sgx1ys_4lf9jzm2w6n00000gn/T//ccPC48YK.s 			page 85


 4695      5F54494D 
 4695      31325F49 
 4695      52516E00 
 4696              	.LASF192:
 4697 0197 41484232 		.ascii	"AHB2LPENR\000"
 4697      4C50454E 
 4697      5200
 4698              	.LASF225:
 4699 01a1 72656164 		.ascii	"readt\000"
 4699      7400
 4700              	.LASF236:
 4701 01a7 73645F6C 		.ascii	"sd_lld_start\000"
 4701      6C645F73 
 4701      74617274 
 4701      00
 4702              	.LASF69:
 4703 01b4 715F6275 		.ascii	"q_buffer\000"
 4703      66666572 
 4703      00
 4704              	.LASF73:
 4705 01bd 715F6E6F 		.ascii	"q_notify\000"
 4705      74696679 
 4705      00
 4706              	.LASF242:
 4707 01c6 73644F62 		.ascii	"sdObjectInit\000"
 4707      6A656374 
 4707      496E6974 
 4707      00
 4708              	.LASF29:
 4709 01d3 705F6E65 		.ascii	"p_newer\000"
 4709      77657200 
 4710              	.LASF9:
 4711 01db 6C6F6E67 		.ascii	"long int\000"
 4711      20696E74 
 4711      00
 4712              	.LASF25:
 4713 01e4 705F6E65 		.ascii	"p_next\000"
 4713      787400
 4714              	.LASF72:
 4715 01eb 715F7264 		.ascii	"q_rdptr\000"
 4715      70747200 
 4716              	.LASF26:
 4717 01f3 705F7072 		.ascii	"p_prev\000"
 4717      657600
 4718              	.LASF238:
 4719 01fa 64656661 		.ascii	"default_config\000"
 4719      756C745F 
 4719      636F6E66 
 4719      696700
 4720              	.LASF154:
 4721 0209 444D4132 		.ascii	"DMA2_Stream5_IRQn\000"
 4721      5F537472 
 4721      65616D35 
 4721      5F495251 
 4721      6E00
 4722              	.LASF16:
 4723 021b 74737461 		.ascii	"tstate_t\000"
ARM GAS  /var/folders/ng/s8655sgx1ys_4lf9jzm2w6n00000gn/T//ccPC48YK.s 			page 86


 4723      74655F74 
 4723      00
 4724              	.LASF41:
 4725 0224 705F6D74 		.ascii	"p_mtxlist\000"
 4725      786C6973 
 4725      7400
 4726              	.LASF112:
 4727 022e 54494D31 		.ascii	"TIM1_TRG_COM_TIM11_IRQn\000"
 4727      5F545247 
 4727      5F434F4D 
 4727      5F54494D 
 4727      31315F49 
 4728              	.LASF215:
 4729 0246 6F717565 		.ascii	"oqueue\000"
 4729      756500
 4730              	.LASF46:
 4731 024d 72656761 		.ascii	"regarm_t\000"
 4731      726D5F74 
 4731      00
 4732              	.LASF189:
 4733 0256 41504232 		.ascii	"APB2ENR\000"
 4733      454E5200 
 4734              	.LASF191:
 4735 025e 41484231 		.ascii	"AHB1LPENR\000"
 4735      4C50454E 
 4735      5200
 4736              	.LASF85:
 4737 0268 53797354 		.ascii	"SysTick_IRQn\000"
 4737      69636B5F 
 4737      4952516E 
 4737      00
 4738              	.LASF125:
 4739 0275 55534152 		.ascii	"USART3_IRQn\000"
 4739      54335F49 
 4739      52516E00 
 4740              	.LASF203:
 4741 0281 44434B43 		.ascii	"DCKCFGR\000"
 4741      46475200 
 4742              	.LASF216:
 4743 0289 75736172 		.ascii	"usart\000"
 4743      7400
 4744              	.LASF1:
 4745 028f 7369676E 		.ascii	"signed char\000"
 4745      65642063 
 4745      68617200 
 4746              	.LASF35:
 4747 029b 705F7072 		.ascii	"p_preempt\000"
 4747      65656D70 
 4747      7400
 4748              	.LASF3:
 4749 02a5 75696E74 		.ascii	"uint8_t\000"
 4749      385F7400 
 4750              	.LASF21:
 4751 02ad 6576656E 		.ascii	"eventmask_t\000"
 4751      746D6173 
 4751      6B5F7400 
 4752              	.LASF48:
ARM GAS  /var/folders/ng/s8655sgx1ys_4lf9jzm2w6n00000gn/T//ccPC48YK.s 			page 87


 4753 02b9 636F6E74 		.ascii	"context\000"
 4753      65787400 
 4754              	.LASF99:
 4755 02c1 444D4131 		.ascii	"DMA1_Stream2_IRQn\000"
 4755      5F537472 
 4755      65616D32 
 4755      5F495251 
 4755      6E00
 4756              	.LASF180:
 4757 02d3 52455345 		.ascii	"RESERVED0\000"
 4757      52564544 
 4757      3000
 4758              	.LASF183:
 4759 02dd 52455345 		.ascii	"RESERVED1\000"
 4759      52564544 
 4759      3100
 4760              	.LASF4:
 4761 02e7 756E7369 		.ascii	"unsigned char\000"
 4761      676E6564 
 4761      20636861 
 4761      7200
 4762              	.LASF146:
 4763 02f5 444D4132 		.ascii	"DMA2_Stream4_IRQn\000"
 4763      5F537472 
 4763      65616D34 
 4763      5F495251 
 4763      6E00
 4764              	.LASF194:
 4765 0307 52455345 		.ascii	"RESERVED4\000"
 4765      52564544 
 4765      3400
 4766              	.LASF74:
 4767 0311 715F6C69 		.ascii	"q_link\000"
 4767      6E6B00
 4768              	.LASF199:
 4769 0318 52455345 		.ascii	"RESERVED6\000"
 4769      52564544 
 4769      3600
 4770              	.LASF172:
 4771 0322 53504936 		.ascii	"SPI6_IRQn\000"
 4771      5F495251 
 4771      6E00
 4772              	.LASF118:
 4773 032c 49324331 		.ascii	"I2C1_ER_IRQn\000"
 4773      5F45525F 
 4773      4952516E 
 4773      00
 4774              	.LASF152:
 4775 0339 43414E32 		.ascii	"CAN2_SCE_IRQn\000"
 4775      5F534345 
 4775      5F495251 
 4775      6E00
 4776              	.LASF207:
 4777 0347 53445F55 		.ascii	"SD_UNINIT\000"
 4777      4E494E49 
 4777      5400
 4778              	.LASF14:
ARM GAS  /var/folders/ng/s8655sgx1ys_4lf9jzm2w6n00000gn/T//ccPC48YK.s 			page 88


 4779 0351 5F426F6F 		.ascii	"_Bool\000"
 4779      6C00
 4780              	.LASF187:
 4781 0357 52455345 		.ascii	"RESERVED2\000"
 4781      52564544 
 4781      3200
 4782              	.LASF190:
 4783 0361 52455345 		.ascii	"RESERVED3\000"
 4783      52564544 
 4783      3300
 4784              	.LASF136:
 4785 036b 54494D35 		.ascii	"TIM5_IRQn\000"
 4785      5F495251 
 4785      6E00
 4786              	.LASF197:
 4787 0375 52455345 		.ascii	"RESERVED5\000"
 4787      52564544 
 4787      3500
 4788              	.LASF81:
 4789 037f 55736167 		.ascii	"UsageFault_IRQn\000"
 4789      65466175 
 4789      6C745F49 
 4789      52516E00 
 4790              	.LASF65:
 4791 038f 63686172 		.ascii	"char\000"
 4791      00
 4792              	.LASF27:
 4793 0394 705F7072 		.ascii	"p_prio\000"
 4793      696F00
 4794              	.LASF185:
 4795 039b 41484232 		.ascii	"AHB2ENR\000"
 4795      454E5200 
 4796              	.LASF66:
 4797 03a3 47656E65 		.ascii	"GenericQueue\000"
 4797      72696351 
 4797      75657565 
 4797      00
 4798              	.LASF63:
 4799 03b0 77746F62 		.ascii	"wtobjp\000"
 4799      6A7000
 4800              	.LASF106:
 4801 03b7 43414E31 		.ascii	"CAN1_RX0_IRQn\000"
 4801      5F525830 
 4801      5F495251 
 4801      6E00
 4802              	.LASF171:
 4803 03c5 53504935 		.ascii	"SPI5_IRQn\000"
 4803      5F495251 
 4803      6E00
 4804              	.LASF223:
 4805 03cf 67657474 		.ascii	"gett\000"
 4805      00
 4806              	.LASF206:
 4807 03d4 55534152 		.ascii	"USART_TypeDef\000"
 4807      545F5479 
 4807      70654465 
 4807      6600
ARM GAS  /var/folders/ng/s8655sgx1ys_4lf9jzm2w6n00000gn/T//ccPC48YK.s 			page 89


 4808              	.LASF77:
 4809 03e2 4F757470 		.ascii	"OutputQueue\000"
 4809      75745175 
 4809      65756500 
 4810              	.LASF173:
 4811 03ee 53414931 		.ascii	"SAI1_IRQn\000"
 4811      5F495251 
 4811      6E00
 4812              	.LASF116:
 4813 03f8 54494D34 		.ascii	"TIM4_IRQn\000"
 4813      5F495251 
 4813      6E00
 4814              	.LASF124:
 4815 0402 55534152 		.ascii	"USART2_IRQn\000"
 4815      54325F49 
 4815      52516E00 
 4816              	.LASF169:
 4817 040e 55415254 		.ascii	"UART8_IRQn\000"
 4817      385F4952 
 4817      516E00
 4818              	.LASF198:
 4819 0419 42444352 		.ascii	"BDCR\000"
 4819      00
 4820              	.LASF117:
 4821 041e 49324331 		.ascii	"I2C1_EV_IRQn\000"
 4821      5F45565F 
 4821      4952516E 
 4821      00
 4822              	.LASF47:
 4823 042b 696E7463 		.ascii	"intctx\000"
 4823      747800
 4824              	.LASF217:
 4825 0432 73706565 		.ascii	"speed\000"
 4825      6400
 4826              	.LASF40:
 4827 0438 705F6570 		.ascii	"p_epending\000"
 4827      656E6469 
 4827      6E6700
 4828              	.LASF176:
 4829 0443 43464752 		.ascii	"CFGR\000"
 4829      00
 4830              	.LASF113:
 4831 0448 54494D31 		.ascii	"TIM1_CC_IRQn\000"
 4831      5F43435F 
 4831      4952516E 
 4831      00
 4832              	.LASF166:
 4833 0455 48415348 		.ascii	"HASH_RNG_IRQn\000"
 4833      5F524E47 
 4833      5F495251 
 4833      6E00
 4834              	.LASF93:
 4835 0463 45585449 		.ascii	"EXTI1_IRQn\000"
 4835      315F4952 
 4835      516E00
 4836              	.LASF105:
 4837 046e 43414E31 		.ascii	"CAN1_TX_IRQn\000"
ARM GAS  /var/folders/ng/s8655sgx1ys_4lf9jzm2w6n00000gn/T//ccPC48YK.s 			page 90


 4837      5F54585F 
 4837      4952516E 
 4837      00
 4838              	.LASF102:
 4839 047b 444D4131 		.ascii	"DMA1_Stream5_IRQn\000"
 4839      5F537472 
 4839      65616D35 
 4839      5F495251 
 4839      6E00
 4840              	.LASF131:
 4841 048d 54494D38 		.ascii	"TIM8_TRG_COM_TIM14_IRQn\000"
 4841      5F545247 
 4841      5F434F4D 
 4841      5F54494D 
 4841      31345F49 
 4842              	.LASF60:
 4843 04a5 65735F6E 		.ascii	"es_next\000"
 4843      65787400 
 4844              	.LASF68:
 4845 04ad 715F636F 		.ascii	"q_counter\000"
 4845      756E7465 
 4845      7200
 4846              	.LASF153:
 4847 04b7 4F54475F 		.ascii	"OTG_FS_IRQn\000"
 4847      46535F49 
 4847      52516E00 
 4848              	.LASF78:
 4849 04c3 4E6F6E4D 		.ascii	"NonMaskableInt_IRQn\000"
 4849      61736B61 
 4849      626C6549 
 4849      6E745F49 
 4849      52516E00 
 4850              	.LASF59:
 4851 04d7 4576656E 		.ascii	"EventSource\000"
 4851      74536F75 
 4851      72636500 
 4852              	.LASF86:
 4853 04e3 57574447 		.ascii	"WWDG_IRQn\000"
 4853      5F495251 
 4853      6E00
 4854              	.LASF11:
 4855 04ed 6C6F6E67 		.ascii	"long unsigned int\000"
 4855      20756E73 
 4855      69676E65 
 4855      6420696E 
 4855      7400
 4856              	.LASF79:
 4857 04ff 4D656D6F 		.ascii	"MemoryManagement_IRQn\000"
 4857      72794D61 
 4857      6E616765 
 4857      6D656E74 
 4857      5F495251 
 4858              	.LASF88:
 4859 0515 54414D50 		.ascii	"TAMP_STAMP_IRQn\000"
 4859      5F535441 
 4859      4D505F49 
 4859      52516E00 
ARM GAS  /var/folders/ng/s8655sgx1ys_4lf9jzm2w6n00000gn/T//ccPC48YK.s 			page 91


 4860              	.LASF246:
 4861 0525 2F557365 		.ascii	"/Users/jseng/aithon/DemoMode\000"
 4861      72732F6A 
 4861      73656E67 
 4861      2F616974 
 4861      686F6E2F 
 4862              	.LASF108:
 4863 0542 43414E31 		.ascii	"CAN1_SCE_IRQn\000"
 4863      5F534345 
 4863      5F495251 
 4863      6E00
 4864              	.LASF55:
 4865 0550 656C5F6E 		.ascii	"el_next\000"
 4865      65787400 
 4866              	.LASF71:
 4867 0558 715F7772 		.ascii	"q_wrptr\000"
 4867      70747200 
 4868              	.LASF219:
 4869 0560 53657269 		.ascii	"SerialDriverVMT\000"
 4869      616C4472 
 4869      69766572 
 4869      564D5400 
 4870              	.LASF228:
 4871 0570 75736172 		.ascii	"usart_deinit\000"
 4871      745F6465 
 4871      696E6974 
 4871      00
 4872              	.LASF120:
 4873 057d 49324332 		.ascii	"I2C2_ER_IRQn\000"
 4873      5F45525F 
 4873      4952516E 
 4873      00
 4874              	.LASF80:
 4875 058a 42757346 		.ascii	"BusFault_IRQn\000"
 4875      61756C74 
 4875      5F495251 
 4875      6E00
 4876              	.LASF233:
 4877 0598 73645F6C 		.ascii	"sd_lld_init\000"
 4877      6C645F69 
 4877      6E697400 
 4878              	.LASF175:
 4879 05a4 504C4C43 		.ascii	"PLLCFGR\000"
 4879      46475200 
 4880              	.LASF139:
 4881 05ac 55415254 		.ascii	"UART5_IRQn\000"
 4881      355F4952 
 4881      516E00
 4882              	.LASF110:
 4883 05b7 54494D31 		.ascii	"TIM1_BRK_TIM9_IRQn\000"
 4883      5F42524B 
 4883      5F54494D 
 4883      395F4952 
 4883      516E00
 4884              	.LASF50:
 4885 05ca 4D757465 		.ascii	"Mutex\000"
 4885      7800
ARM GAS  /var/folders/ng/s8655sgx1ys_4lf9jzm2w6n00000gn/T//ccPC48YK.s 			page 92


 4886              	.LASF241:
 4887 05d0 7364496E 		.ascii	"sdIncomingDataI\000"
 4887      636F6D69 
 4887      6E674461 
 4887      74614900 
 4888              	.LASF141:
 4889 05e0 54494D37 		.ascii	"TIM7_IRQn\000"
 4889      5F495251 
 4889      6E00
 4890              	.LASF12:
 4891 05ea 6C6F6E67 		.ascii	"long long int\000"
 4891      206C6F6E 
 4891      6720696E 
 4891      7400
 4892              	.LASF148:
 4893 05f8 4554485F 		.ascii	"ETH_WKUP_IRQn\000"
 4893      574B5550 
 4893      5F495251 
 4893      6E00
 4894              	.LASF122:
 4895 0606 53504932 		.ascii	"SPI2_IRQn\000"
 4895      5F495251 
 4895      6E00
 4896              	.LASF163:
 4897 0610 4F54475F 		.ascii	"OTG_HS_IRQn\000"
 4897      48535F49 
 4897      52516E00 
 4898              	.LASF51:
 4899 061c 6D5F7175 		.ascii	"m_queue\000"
 4899      65756500 
 4900              	.LASF200:
 4901 0624 53534347 		.ascii	"SSCGR\000"
 4901      5200
 4902              	.LASF121:
 4903 062a 53504931 		.ascii	"SPI1_IRQn\000"
 4903      5F495251 
 4903      6E00
 4904              	.LASF82:
 4905 0634 53564361 		.ascii	"SVCall_IRQn\000"
 4905      6C6C5F49 
 4905      52516E00 
 4906              	.LASF182:
 4907 0640 41504232 		.ascii	"APB2RSTR\000"
 4907      52535452 
 4907      00
 4908              	.LASF167:
 4909 0649 4650555F 		.ascii	"FPU_IRQn\000"
 4909      4952516E 
 4909      00
 4910              	.LASF138:
 4911 0652 55415254 		.ascii	"UART4_IRQn\000"
 4911      345F4952 
 4911      516E00
 4912              	.LASF196:
 4913 065d 41504232 		.ascii	"APB2LPENR\000"
 4913      4C50454E 
 4913      5200
ARM GAS  /var/folders/ng/s8655sgx1ys_4lf9jzm2w6n00000gn/T//ccPC48YK.s 			page 93


 4914              	.LASF75:
 4915 0667 716E6F74 		.ascii	"qnotify_t\000"
 4915      6966795F 
 4915      7400
 4916              	.LASF37:
 4917 0671 705F7761 		.ascii	"p_waiting\000"
 4917      6974696E 
 4917      6700
 4918              	.LASF142:
 4919 067b 444D4132 		.ascii	"DMA2_Stream0_IRQn\000"
 4919      5F537472 
 4919      65616D30 
 4919      5F495251 
 4919      6E00
 4920              	.LASF212:
 4921 068d 6576656E 		.ascii	"event\000"
 4921      7400
 4922              	.LASF128:
 4923 0693 4F54475F 		.ascii	"OTG_FS_WKUP_IRQn\000"
 4923      46535F57 
 4923      4B55505F 
 4923      4952516E 
 4923      00
 4924              	.LASF33:
 4925 06a4 705F666C 		.ascii	"p_flags\000"
 4925      61677300 
 4926              	.LASF221:
 4927 06ac 72656164 		.ascii	"read\000"
 4927      00
 4928              	.LASF0:
 4929 06b1 756E7369 		.ascii	"unsigned int\000"
 4929      676E6564 
 4929      20696E74 
 4929      00
 4930              	.LASF140:
 4931 06be 54494D36 		.ascii	"TIM6_DAC_IRQn\000"
 4931      5F444143 
 4931      5F495251 
 4931      6E00
 4932              	.LASF174:
 4933 06cc 444D4132 		.ascii	"DMA2D_IRQn\000"
 4933      445F4952 
 4933      516E00
 4934              	.LASF43:
 4935 06d7 705F6D70 		.ascii	"p_mpool\000"
 4935      6F6F6C00 
 4936              	.LASF119:
 4937 06df 49324332 		.ascii	"I2C2_EV_IRQn\000"
 4937      5F45565F 
 4937      4952516E 
 4937      00
 4938              	.LASF34:
 4939 06ec 705F7265 		.ascii	"p_refs\000"
 4939      667300
 4940              	.LASF248:
 4941 06f3 63684F51 		.ascii	"chOQGetI\000"
 4941      47657449 
ARM GAS  /var/folders/ng/s8655sgx1ys_4lf9jzm2w6n00000gn/T//ccPC48YK.s 			page 94


 4941      00
 4942              	.LASF249:
 4943 06fc 5F706F72 		.ascii	"_port_irq_epilogue\000"
 4943      745F6972 
 4943      715F6570 
 4943      696C6F67 
 4943      756500
 4944              	.LASF45:
 4945 070f 54687265 		.ascii	"ThreadsList\000"
 4945      6164734C 
 4945      69737400 
 4946              	.LASF195:
 4947 071b 41504231 		.ascii	"APB1LPENR\000"
 4947      4C50454E 
 4947      5200
 4948              	.LASF98:
 4949 0725 444D4131 		.ascii	"DMA1_Stream1_IRQn\000"
 4949      5F537472 
 4949      65616D31 
 4949      5F495251 
 4949      6E00
 4950              	.LASF22:
 4951 0737 666C6167 		.ascii	"flagsmask_t\000"
 4951      736D6173 
 4951      6B5F7400 
 4952              	.LASF145:
 4953 0743 444D4132 		.ascii	"DMA2_Stream3_IRQn\000"
 4953      5F537472 
 4953      65616D33 
 4953      5F495251 
 4953      6E00
 4954              	.LASF149:
 4955 0755 43414E32 		.ascii	"CAN2_TX_IRQn\000"
 4955      5F54585F 
 4955      4952516E 
 4955      00
 4956              	.LASF36:
 4957 0762 705F7469 		.ascii	"p_time\000"
 4957      6D6500
 4958              	.LASF247:
 4959 0769 4952516E 		.ascii	"IRQn\000"
 4959      00
 4960              	.LASF103:
 4961 076e 444D4131 		.ascii	"DMA1_Stream6_IRQn\000"
 4961      5F537472 
 4961      65616D36 
 4961      5F495251 
 4961      6E00
 4962              	.LASF240:
 4963 0780 63684576 		.ascii	"chEvtBroadcastFlagsI\000"
 4963      7442726F 
 4963      61646361 
 4963      7374466C 
 4963      61677349 
 4964              	.LASF179:
 4965 0795 41484233 		.ascii	"AHB3RSTR\000"
 4965      52535452 
ARM GAS  /var/folders/ng/s8655sgx1ys_4lf9jzm2w6n00000gn/T//ccPC48YK.s 			page 95


 4965      00
 4966              	.LASF250:
 4967 079e 6E766963 		.ascii	"nvicDisableVector\000"
 4967      44697361 
 4967      626C6556 
 4967      6563746F 
 4967      7200
 4968              	.LASF42:
 4969 07b0 705F7265 		.ascii	"p_realprio\000"
 4969      616C7072 
 4969      696F00
 4970              	.LASF156:
 4971 07bb 444D4132 		.ascii	"DMA2_Stream7_IRQn\000"
 4971      5F537472 
 4971      65616D37 
 4971      5F495251 
 4971      6E00
 4972              	.LASF97:
 4973 07cd 444D4131 		.ascii	"DMA1_Stream0_IRQn\000"
 4973      5F537472 
 4973      65616D30 
 4973      5F495251 
 4973      6E00
 4974              	.LASF181:
 4975 07df 41504231 		.ascii	"APB1RSTR\000"
 4975      52535452 
 4975      00
 4976              	.LASF234:
 4977 07e8 75736172 		.ascii	"usart_init\000"
 4977      745F696E 
 4977      697400
 4978              	.LASF127:
 4979 07f3 5254435F 		.ascii	"RTC_Alarm_IRQn\000"
 4979      416C6172 
 4979      6D5F4952 
 4979      516E00
 4980              	.LASF188:
 4981 0802 41504231 		.ascii	"APB1ENR\000"
 4981      454E5200 
 4982              	.LASF170:
 4983 080a 53504934 		.ascii	"SPI4_IRQn\000"
 4983      5F495251 
 4983      6E00
 4984              	.LASF134:
 4985 0814 464D435F 		.ascii	"FMC_IRQn\000"
 4985      4952516E 
 4985      00
 4986              	.LASF159:
 4987 081d 49324333 		.ascii	"I2C3_ER_IRQn\000"
 4987      5F45525F 
 4987      4952516E 
 4987      00
 4988              	.LASF165:
 4989 082a 43525950 		.ascii	"CRYP_IRQn\000"
 4989      5F495251 
 4989      6E00
 4990              	.LASF126:
ARM GAS  /var/folders/ng/s8655sgx1ys_4lf9jzm2w6n00000gn/T//ccPC48YK.s 			page 96


 4991 0834 45585449 		.ascii	"EXTI15_10_IRQn\000"
 4991      31355F31 
 4991      305F4952 
 4991      516E00
 4992              	.LASF13:
 4993 0843 6C6F6E67 		.ascii	"long long unsigned int\000"
 4993      206C6F6E 
 4993      6720756E 
 4993      7369676E 
 4993      65642069 
 4994              	.LASF30:
 4995 085a 705F6F6C 		.ascii	"p_older\000"
 4995      64657200 
 4996              	.LASF6:
 4997 0862 75696E74 		.ascii	"uint16_t\000"
 4997      31365F74 
 4997      00
 4998              	.LASF20:
 4999 086b 6D73675F 		.ascii	"msg_t\000"
 4999      7400
 5000              	.LASF115:
 5001 0871 54494D33 		.ascii	"TIM3_IRQn\000"
 5001      5F495251 
 5001      6E00
 5002              	.LASF123:
 5003 087b 55534152 		.ascii	"USART1_IRQn\000"
 5003      54315F49 
 5003      52516E00 
 5004              	.LASF168:
 5005 0887 55415254 		.ascii	"UART7_IRQn\000"
 5005      375F4952 
 5005      516E00
 5006              	.LASF18:
 5007 0892 74736C69 		.ascii	"tslices_t\000"
 5007      6365735F 
 5007      7400
 5008              	.LASF94:
 5009 089c 45585449 		.ascii	"EXTI2_IRQn\000"
 5009      325F4952 
 5009      516E00
 5010              	.LASF151:
 5011 08a7 43414E32 		.ascii	"CAN2_RX1_IRQn\000"
 5011      5F525831 
 5011      5F495251 
 5011      6E00
 5012              	.LASF104:
 5013 08b5 4144435F 		.ascii	"ADC_IRQn\000"
 5013      4952516E 
 5013      00
 5014              	.LASF193:
 5015 08be 41484233 		.ascii	"AHB3LPENR\000"
 5015      4C50454E 
 5015      5200
 5016              	.LASF245:
 5017 08c8 2E2E2F41 		.ascii	"../AithonLibrary/ChibiOS/os/hal/platforms/STM32/USA"
 5017      6974686F 
 5017      6E4C6962 
ARM GAS  /var/folders/ng/s8655sgx1ys_4lf9jzm2w6n00000gn/T//ccPC48YK.s 			page 97


 5017      72617279 
 5017      2F436869 
 5018 08fb 52547631 		.ascii	"RTv1/serial_lld.c\000"
 5018      2F736572 
 5018      69616C5F 
 5018      6C6C642E 
 5018      6300
 5019              	.LASF87:
 5020 090d 5056445F 		.ascii	"PVD_IRQn\000"
 5020      4952516E 
 5020      00
 5021              	.LASF211:
 5022 0916 53657269 		.ascii	"SerialDriver\000"
 5022      616C4472 
 5022      69766572 
 5022      00
 5023              	.LASF67:
 5024 0923 715F7761 		.ascii	"q_waiting\000"
 5024      6974696E 
 5024      6700
 5025              	.LASF92:
 5026 092d 45585449 		.ascii	"EXTI0_IRQn\000"
 5026      305F4952 
 5026      516E00
 5027              	.LASF15:
 5028 0938 746D6F64 		.ascii	"tmode_t\000"
 5028      655F7400 
 5029              	.LASF101:
 5030 0940 444D4131 		.ascii	"DMA1_Stream4_IRQn\000"
 5030      5F537472 
 5030      65616D34 
 5030      5F495251 
 5030      6E00
 5031              	.LASF210:
 5032 0952 73647374 		.ascii	"sdstate_t\000"
 5032      6174655F 
 5032      7400
 5033              	.LASF155:
 5034 095c 444D4132 		.ascii	"DMA2_Stream6_IRQn\000"
 5034      5F537472 
 5034      65616D36 
 5034      5F495251 
 5034      6E00
 5035              	.LASF184:
 5036 096e 41484231 		.ascii	"AHB1ENR\000"
 5036      454E5200 
 5037              	.LASF83:
 5038 0976 44656275 		.ascii	"DebugMonitor_IRQn\000"
 5038      674D6F6E 
 5038      69746F72 
 5038      5F495251 
 5038      6E00
 5039              	.LASF209:
 5040 0988 53445F52 		.ascii	"SD_READY\000"
 5040      45414459 
 5040      00
 5041              	.LASF158:
ARM GAS  /var/folders/ng/s8655sgx1ys_4lf9jzm2w6n00000gn/T//ccPC48YK.s 			page 98


 5042 0991 49324333 		.ascii	"I2C3_EV_IRQn\000"
 5042      5F45565F 
 5042      4952516E 
 5042      00
 5043              	.LASF178:
 5044 099e 41484232 		.ascii	"AHB2RSTR\000"
 5044      52535452 
 5044      00
 5045              	.LASF147:
 5046 09a7 4554485F 		.ascii	"ETH_IRQn\000"
 5046      4952516E 
 5046      00
 5047              	.LASF226:
 5048 09b0 6E6F7469 		.ascii	"notify1\000"
 5048      66793100 
 5049              	.LASF227:
 5050 09b8 6E6F7469 		.ascii	"notify2\000"
 5050      66793200 
 5051              	.LASF204:
 5052 09c0 5243435F 		.ascii	"RCC_TypeDef\000"
 5052      54797065 
 5052      44656600 
 5053              	.LASF5:
 5054 09cc 73686F72 		.ascii	"short int\000"
 5054      7420696E 
 5054      7400
 5055              	.LASF91:
 5056 09d6 5243435F 		.ascii	"RCC_IRQn\000"
 5056      4952516E 
 5056      00
 5057              	.LASF214:
 5058 09df 69717565 		.ascii	"iqueue\000"
 5058      756500
 5059              	.LASF100:
 5060 09e6 444D4131 		.ascii	"DMA1_Stream3_IRQn\000"
 5060      5F537472 
 5060      65616D33 
 5060      5F495251 
 5060      6E00
 5061              	.LASF24:
 5062 09f8 54687265 		.ascii	"Thread\000"
 5062      616400
 5063              	.LASF111:
 5064 09ff 54494D31 		.ascii	"TIM1_UP_TIM10_IRQn\000"
 5064      5F55505F 
 5064      54494D31 
 5064      305F4952 
 5064      516E00
 5065              	.LASF239:
 5066 0a12 49544D5F 		.ascii	"ITM_RxBuffer\000"
 5066      52784275 
 5066      66666572 
 5066      00
 5067              	.LASF17:
 5068 0a1f 74726566 		.ascii	"trefs_t\000"
 5068      735F7400 
 5069              	.LASF160:
ARM GAS  /var/folders/ng/s8655sgx1ys_4lf9jzm2w6n00000gn/T//ccPC48YK.s 			page 99


 5070 0a27 4F54475F 		.ascii	"OTG_HS_EP1_OUT_IRQn\000"
 5070      48535F45 
 5070      50315F4F 
 5070      55545F49 
 5070      52516E00 
 5071              	.LASF89:
 5072 0a3b 5254435F 		.ascii	"RTC_WKUP_IRQn\000"
 5072      574B5550 
 5072      5F495251 
 5072      6E00
 5073              	.LASF54:
 5074 0a49 4576656E 		.ascii	"EventListener\000"
 5074      744C6973 
 5074      74656E65 
 5074      7200
 5075              	.LASF243:
 5076 0a57 6E766963 		.ascii	"nvicEnableVector\000"
 5076      456E6162 
 5076      6C655665 
 5076      63746F72 
 5076      00
 5077              	.LASF10:
 5078 0a68 75696E74 		.ascii	"uint32_t\000"
 5078      33325F74 
 5078      00
 5079              	.LASF231:
 5080 0a71 56656374 		.ascii	"VectorD4\000"
 5080      6F724434 
 5080      00
 5081              	.LASF107:
 5082 0a7a 43414E31 		.ascii	"CAN1_RX1_IRQn\000"
 5082      5F525831 
 5082      5F495251 
 5082      6E00
 5083              	.LASF44:
 5084 0a88 54687265 		.ascii	"ThreadsQueue\000"
 5084      61647351 
 5084      75657565 
 5084      00
 5085              	.LASF109:
 5086 0a95 45585449 		.ascii	"EXTI9_5_IRQn\000"
 5086      395F355F 
 5086      4952516E 
 5086      00
 5087              	.LASF202:
 5088 0aa2 504C4C53 		.ascii	"PLLSAICFGR\000"
 5088      41494346 
 5088      475200
 5089              	.LASF61:
 5090 0aad 7264796D 		.ascii	"rdymsg\000"
 5090      736700
 5091              	.LASF96:
 5092 0ab4 45585449 		.ascii	"EXTI4_IRQn\000"
 5092      345F4952 
 5092      516E00
 5093              	.LASF7:
 5094 0abf 73686F72 		.ascii	"short unsigned int\000"
ARM GAS  /var/folders/ng/s8655sgx1ys_4lf9jzm2w6n00000gn/T//ccPC48YK.s 			page 100


 5094      7420756E 
 5094      7369676E 
 5094      65642069 
 5094      6E7400
 5095              	.LASF237:
 5096 0ad2 73645F6C 		.ascii	"sd_lld_stop\000"
 5096      6C645F73 
 5096      746F7000 
 5097              	.LASF132:
 5098 0ade 54494D38 		.ascii	"TIM8_CC_IRQn\000"
 5098      5F43435F 
 5098      4952516E 
 5098      00
 5099              	.LASF135:
 5100 0aeb 5344494F 		.ascii	"SDIO_IRQn\000"
 5100      5F495251 
 5100      6E00
 5101              	.LASF76:
 5102 0af5 496E7075 		.ascii	"InputQueue\000"
 5102      74517565 
 5102      756500
 5103              	.LASF95:
 5104 0b00 45585449 		.ascii	"EXTI3_IRQn\000"
 5104      335F4952 
 5104      516E00
 5105              	.LASF84:
 5106 0b0b 50656E64 		.ascii	"PendSV_IRQn\000"
 5106      53565F49 
 5106      52516E00 
 5107              	.LASF161:
 5108 0b17 4F54475F 		.ascii	"OTG_HS_EP1_IN_IRQn\000"
 5108      48535F45 
 5108      50315F49 
 5108      4E5F4952 
 5108      516E00
 5109              	.LASF133:
 5110 0b2a 444D4131 		.ascii	"DMA1_Stream7_IRQn\000"
 5110      5F537472 
 5110      65616D37 
 5110      5F495251 
 5110      6E00
 5111              	.LASF177:
 5112 0b3c 41484231 		.ascii	"AHB1RSTR\000"
 5112      52535452 
 5112      00
 5113              	.LASF208:
 5114 0b45 53445F53 		.ascii	"SD_STOP\000"
 5114      544F5000 
 5115              	.LASF57:
 5116 0b4d 656C5F6D 		.ascii	"el_mask\000"
 5116      61736B00 
 5117              	.LASF31:
 5118 0b55 705F6E61 		.ascii	"p_name\000"
 5118      6D6500
 5119              	.LASF53:
 5120 0b5c 6D5F6E65 		.ascii	"m_next\000"
 5120      787400
ARM GAS  /var/folders/ng/s8655sgx1ys_4lf9jzm2w6n00000gn/T//ccPC48YK.s 			page 101


 5121              	.LASF186:
 5122 0b63 41484233 		.ascii	"AHB3ENR\000"
 5122      454E5200 
 5123              	.LASF144:
 5124 0b6b 444D4132 		.ascii	"DMA2_Stream2_IRQn\000"
 5124      5F537472 
 5124      65616D32 
 5124      5F495251 
 5124      6E00
 5125              	.LASF39:
 5126 0b7d 705F6D73 		.ascii	"p_msg\000"
 5126      6700
 5127              	.LASF56:
 5128 0b83 656C5F6C 		.ascii	"el_listener\000"
 5128      69737465 
 5128      6E657200 
 5129              	.LASF32:
 5130 0b8f 705F7374 		.ascii	"p_state\000"
 5130      61746500 
 5131              		.ident	"GCC: (GNU Tools for ARM Embedded Processors) 4.7.4 20130913 (release) [ARM/embedded-4_7-br
ARM GAS  /var/folders/ng/s8655sgx1ys_4lf9jzm2w6n00000gn/T//ccPC48YK.s 			page 102


DEFINED SYMBOLS
                            *ABS*:0000000000000000 serial_lld.c
/var/folders/ng/s8655sgx1ys_4lf9jzm2w6n00000gn/T//ccPC48YK.s:20     .text.notify1:0000000000000000 $t
/var/folders/ng/s8655sgx1ys_4lf9jzm2w6n00000gn/T//ccPC48YK.s:25     .text.notify1:0000000000000000 notify1
/var/folders/ng/s8655sgx1ys_4lf9jzm2w6n00000gn/T//ccPC48YK.s:47     .text.notify2:0000000000000000 $t
/var/folders/ng/s8655sgx1ys_4lf9jzm2w6n00000gn/T//ccPC48YK.s:52     .text.notify2:0000000000000000 notify2
/var/folders/ng/s8655sgx1ys_4lf9jzm2w6n00000gn/T//ccPC48YK.s:73     .text.serve_interrupt:0000000000000000 $t
/var/folders/ng/s8655sgx1ys_4lf9jzm2w6n00000gn/T//ccPC48YK.s:78     .text.serve_interrupt:0000000000000000 serve_interrupt
/var/folders/ng/s8655sgx1ys_4lf9jzm2w6n00000gn/T//ccPC48YK.s:353    .text.VectorD4:0000000000000000 $t
/var/folders/ng/s8655sgx1ys_4lf9jzm2w6n00000gn/T//ccPC48YK.s:359    .text.VectorD4:0000000000000000 VectorD4
/var/folders/ng/s8655sgx1ys_4lf9jzm2w6n00000gn/T//ccPC48YK.s:738    .bss.SD1:0000000000000000 .LANCHOR0
/var/folders/ng/s8655sgx1ys_4lf9jzm2w6n00000gn/T//ccPC48YK.s:384    .text.VectorD8:0000000000000000 $t
/var/folders/ng/s8655sgx1ys_4lf9jzm2w6n00000gn/T//ccPC48YK.s:390    .text.VectorD8:0000000000000000 VectorD8
/var/folders/ng/s8655sgx1ys_4lf9jzm2w6n00000gn/T//ccPC48YK.s:745    .bss.SD2:0000000000000000 .LANCHOR1
/var/folders/ng/s8655sgx1ys_4lf9jzm2w6n00000gn/T//ccPC48YK.s:415    .text.sd_lld_init:0000000000000000 $t
/var/folders/ng/s8655sgx1ys_4lf9jzm2w6n00000gn/T//ccPC48YK.s:421    .text.sd_lld_init:0000000000000000 sd_lld_init
/var/folders/ng/s8655sgx1ys_4lf9jzm2w6n00000gn/T//ccPC48YK.s:472    .text.sd_lld_start:0000000000000000 $t
/var/folders/ng/s8655sgx1ys_4lf9jzm2w6n00000gn/T//ccPC48YK.s:478    .text.sd_lld_start:0000000000000000 sd_lld_start
/var/folders/ng/s8655sgx1ys_4lf9jzm2w6n00000gn/T//ccPC48YK.s:627    .text.sd_lld_start:00000000000000bc $d
/var/folders/ng/s8655sgx1ys_4lf9jzm2w6n00000gn/T//ccPC48YK.s:634    .text.sd_lld_stop:0000000000000000 $t
/var/folders/ng/s8655sgx1ys_4lf9jzm2w6n00000gn/T//ccPC48YK.s:640    .text.sd_lld_stop:0000000000000000 sd_lld_stop
/var/folders/ng/s8655sgx1ys_4lf9jzm2w6n00000gn/T//ccPC48YK.s:718    .text.sd_lld_stop:000000000000004c $d
/var/folders/ng/s8655sgx1ys_4lf9jzm2w6n00000gn/T//ccPC48YK.s:748    .bss.SD2:0000000000000000 SD2
/var/folders/ng/s8655sgx1ys_4lf9jzm2w6n00000gn/T//ccPC48YK.s:741    .bss.SD1:0000000000000000 SD1
/var/folders/ng/s8655sgx1ys_4lf9jzm2w6n00000gn/T//ccPC48YK.s:726    .rodata.default_config:0000000000000000 $d
/var/folders/ng/s8655sgx1ys_4lf9jzm2w6n00000gn/T//ccPC48YK.s:730    .rodata.default_config:0000000000000000 default_config
/var/folders/ng/s8655sgx1ys_4lf9jzm2w6n00000gn/T//ccPC48YK.s:737    .bss.SD1:0000000000000000 $d
/var/folders/ng/s8655sgx1ys_4lf9jzm2w6n00000gn/T//ccPC48YK.s:744    .bss.SD2:0000000000000000 $d
                     .debug_frame:0000000000000010 $d
/var/folders/ng/s8655sgx1ys_4lf9jzm2w6n00000gn/T//ccPC48YK.s:633    .text.sd_lld_start:00000000000000c8 $t
/var/folders/ng/s8655sgx1ys_4lf9jzm2w6n00000gn/T//ccPC48YK.s:725    .text.sd_lld_stop:0000000000000054 $t

UNDEFINED SYMBOLS
sdIncomingDataI
chEvtBroadcastFlagsI
chOQGetI
_port_irq_epilogue
sdObjectInit
nvicEnableVector
nvicDisableVector
