ARM GAS  /var/folders/ng/s8655sgx1ys_4lf9jzm2w6n00000gn/T//cczMVSN4.s 			page 1


   1              		.syntax unified
   2              		.cpu cortex-m4
   3              		.eabi_attribute 27, 3
   4              		.fpu fpv4-sp-d16
   5              		.eabi_attribute 20, 1
   6              		.eabi_attribute 21, 1
   7              		.eabi_attribute 23, 3
   8              		.eabi_attribute 24, 1
   9              		.eabi_attribute 25, 1
  10              		.eabi_attribute 26, 1
  11              		.eabi_attribute 30, 2
  12              		.eabi_attribute 34, 1
  13              		.eabi_attribute 18, 4
  14              		.thumb
  15              		.file	"servos.c"
  16              		.text
  17              	.Ltext0:
  18              		.cfi_sections	.debug_frame
  19              		.section	.text.servo_enableAll,"ax",%progbits
  20              		.align	2
  21              		.p2align 4,,15
  22              		.global	servo_enableAll
  23              		.thumb
  24              		.thumb_func
  25              		.type	servo_enableAll, %function
  26              	servo_enableAll:
  27              	.LFB120:
  28              		.file 1 "../AithonLibrary/servos.c"
  29              		.loc 1 39 0
  30              		.cfi_startproc
  31              		@ args = 0, pretend = 0, frame = 0
  32              		@ frame_needed = 0, uses_anonymous_args = 0
  33 0000 08B5     		push	{r3, lr}
  34              	.LCFI0:
  35              		.cfi_def_cfa_offset 8
  36              		.cfi_offset 3, -8
  37              		.cfi_offset 14, -4
  38              		.loc 1 40 0
  39 0002 40F20000 		movw	r0, #:lower16:PWMD4
  40 0006 40F20001 		movw	r1, #:lower16:.LANCHOR0
  41 000a C0F20000 		movt	r0, #:upper16:PWMD4
  42 000e C0F20001 		movt	r1, #:upper16:.LANCHOR0
  43 0012 FFF7FEFF 		bl	pwmStart
  44              	.LVL0:
  45              		.loc 1 41 0
  46 0016 40F20000 		movw	r0, #:lower16:PWMD8
  47 001a 40F20001 		movw	r1, #:lower16:.LANCHOR1
  48 001e C0F20000 		movt	r0, #:upper16:PWMD8
  49 0022 C0F20001 		movt	r1, #:upper16:.LANCHOR1
  50              		.loc 1 42 0
  51 0026 BDE80840 		pop	{r3, lr}
  52              		.loc 1 41 0
  53 002a FFF7FEBF 		b	pwmStart
  54              	.LVL1:
  55              		.cfi_endproc
  56              	.LFE120:
  57              		.size	servo_enableAll, .-servo_enableAll
ARM GAS  /var/folders/ng/s8655sgx1ys_4lf9jzm2w6n00000gn/T//cczMVSN4.s 			page 2


  58              		.section	.text._servo_init,"ax",%progbits
  59              		.align	2
  60              		.p2align 4,,15
  61              		.global	_servo_init
  62              		.thumb
  63              		.thumb_func
  64              		.type	_servo_init, %function
  65              	_servo_init:
  66              	.LFB119:
  67              		.loc 1 34 0
  68              		.cfi_startproc
  69              		@ args = 0, pretend = 0, frame = 0
  70              		@ frame_needed = 0, uses_anonymous_args = 0
  71              		@ link register save eliminated.
  72              		.loc 1 36 0
  73              		.loc 1 35 0
  74 0000 FFF7FEBF 		b	servo_enableAll
  75              	.LVL2:
  76              		.cfi_endproc
  77              	.LFE119:
  78              		.size	_servo_init, .-_servo_init
  79 0004 AFF30080 		.section	.text.servo_disableAll,"ax",%progbits
  79      AFF30080 
  79      AFF30080 
  80              		.align	2
  81              		.p2align 4,,15
  82              		.global	servo_disableAll
  83              		.thumb
  84              		.thumb_func
  85              		.type	servo_disableAll, %function
  86              	servo_disableAll:
  87              	.LFB121:
  88              		.loc 1 45 0
  89              		.cfi_startproc
  90              		@ args = 0, pretend = 0, frame = 0
  91              		@ frame_needed = 0, uses_anonymous_args = 0
  92 0000 08B5     		push	{r3, lr}
  93              	.LCFI1:
  94              		.cfi_def_cfa_offset 8
  95              		.cfi_offset 3, -8
  96              		.cfi_offset 14, -4
  97              		.loc 1 46 0
  98 0002 40F20000 		movw	r0, #:lower16:PWMD4
  99 0006 C0F20000 		movt	r0, #:upper16:PWMD4
 100 000a FFF7FEFF 		bl	pwmStop
 101              	.LVL3:
 102              		.loc 1 47 0
 103 000e 40F20000 		movw	r0, #:lower16:PWMD8
 104 0012 C0F20000 		movt	r0, #:upper16:PWMD8
 105              		.loc 1 48 0
 106 0016 BDE80840 		pop	{r3, lr}
 107              		.loc 1 47 0
 108 001a FFF7FEBF 		b	pwmStop
 109              	.LVL4:
 110              		.cfi_endproc
 111              	.LFE121:
 112              		.size	servo_disableAll, .-servo_disableAll
ARM GAS  /var/folders/ng/s8655sgx1ys_4lf9jzm2w6n00000gn/T//cczMVSN4.s 			page 3


 113 001e 00BF     		.section	.text.servo_set,"ax",%progbits
 114              		.align	2
 115              		.p2align 4,,15
 116              		.global	servo_set
 117              		.thumb
 118              		.thumb_func
 119              		.type	servo_set, %function
 120              	servo_set:
 121              	.LFB122:
 122              		.loc 1 51 0
 123              		.cfi_startproc
 124              		@ args = 0, pretend = 0, frame = 0
 125              		@ frame_needed = 0, uses_anonymous_args = 0
 126              		@ link register save eliminated.
 127              	.LVL5:
 128              		.loc 1 59 0
 129 0000 0328     		cmp	r0, #3
 130              		.loc 1 51 0
 131 0002 10B4     		push	{r4}
 132              	.LCFI2:
 133              		.cfi_def_cfa_offset 4
 134              		.cfi_offset 4, -4
 135              		.loc 1 51 0
 136 0004 0346     		mov	r3, r0
 137              		.loc 1 59 0
 138 0006 11D9     		bls	.L8
 139              		.loc 1 63 0
 140 0008 0728     		cmp	r0, #7
 141 000a 01DD     		ble	.L9
 142              		.loc 1 67 0
 143 000c 10BC     		pop	{r4}
 144 000e 7047     		bx	lr
 145              	.L9:
 146              		.loc 1 65 0
 147 0010 01EB8101 		add	r1, r1, r1, lsl #2
 148              	.LVL6:
 149 0014 4C00     		lsls	r4, r1, #1
 150 0016 031F     		subs	r3, r0, #4
 151 0018 04F2EE24 		addw	r4, r4, #750
 152 001c 4FF6FE72 		movw	r2, #65534
 153 0020 0948     		ldr	r0, .L10
 154              	.LVL7:
 155 0022 D9B2     		uxtb	r1, r3
 156 0024 2240     		ands	r2, r2, r4
 157              		.loc 1 67 0
 158 0026 10BC     		pop	{r4}
 159              		.loc 1 65 0
 160 0028 FFF7FEBF 		b	pwmEnableChannel
 161              	.LVL8:
 162              	.L8:
 163              		.loc 1 61 0
 164 002c 01EB8100 		add	r0, r1, r1, lsl #2
 165              	.LVL9:
 166 0030 4200     		lsls	r2, r0, #1
 167 0032 02F2EE24 		addw	r4, r2, #750
 168 0036 0548     		ldr	r0, .L10+4
 169 0038 4FF6FE72 		movw	r2, #65534
ARM GAS  /var/folders/ng/s8655sgx1ys_4lf9jzm2w6n00000gn/T//cczMVSN4.s 			page 4


 170 003c D9B2     		uxtb	r1, r3
 171              	.LVL10:
 172 003e 2240     		ands	r2, r2, r4
 173              		.loc 1 67 0
 174 0040 10BC     		pop	{r4}
 175              		.loc 1 61 0
 176 0042 FFF7FEBF 		b	pwmEnableChannel
 177              	.LVL11:
 178              	.L11:
 179 0046 00BF     		.align	2
 180              	.L10:
 181 0048 00000000 		.word	PWMD8
 182 004c 00000000 		.word	PWMD4
 183              		.cfi_endproc
 184              	.LFE122:
 185              		.size	servo_set, .-servo_set
 186              		.section	.rodata._pwmcfg4,"a",%progbits
 187              		.align	2
 188              		.set	.LANCHOR0,. + 0
 189              		.type	_pwmcfg4, %object
 190              		.size	_pwmcfg4, 56
 191              	_pwmcfg4:
 192 0000 40420F00 		.word	1000000
 193 0004 204E     		.short	20000
 194 0006 0000     		.space	2
 195 0008 00000000 		.word	0
 196 000c 01000000 		.word	1
 197 0010 00000000 		.word	0
 198 0014 01000000 		.word	1
 199 0018 00000000 		.word	0
 200 001c 01000000 		.word	1
 201 0020 00000000 		.word	0
 202 0024 01000000 		.word	1
 203 0028 00000000 		.word	0
 204 002c 00000000 		.word	0
 205 0030 00000000 		.word	0
 206 0034 00000000 		.word	0
 207              		.section	.rodata._pwmcfg8,"a",%progbits
 208              		.align	2
 209              		.set	.LANCHOR1,. + 0
 210              		.type	_pwmcfg8, %object
 211              		.size	_pwmcfg8, 56
 212              	_pwmcfg8:
 213 0000 40420F00 		.word	1000000
 214 0004 204E     		.short	20000
 215 0006 0000     		.space	2
 216 0008 00000000 		.word	0
 217 000c 01000000 		.word	1
 218 0010 00000000 		.word	0
 219 0014 01000000 		.word	1
 220 0018 00000000 		.word	0
 221 001c 01000000 		.word	1
 222 0020 00000000 		.word	0
 223 0024 01000000 		.word	1
 224 0028 00000000 		.word	0
 225 002c 00000000 		.word	0
 226 0030 00000000 		.word	0
ARM GAS  /var/folders/ng/s8655sgx1ys_4lf9jzm2w6n00000gn/T//cczMVSN4.s 			page 5


 227 0034 00000000 		.word	0
 228              		.text
 229              	.Letext0:
 230              		.file 2 "/Users/jseng/gccarm/bin/../lib/gcc/arm-none-eabi/4.7.4/../../../../arm-none-eabi/include/
 231              		.file 3 "../AithonLibrary/ChibiOS/os/hal/include/pwm.h"
 232              		.file 4 "../AithonLibrary/ChibiOS/os/hal/platforms/STM32/TIMv1/pwm_lld.h"
 233              		.file 5 "../AithonLibrary/ChibiOS/os/hal/platforms/STM32/TIMv1/stm32_tim.h"
 234              		.file 6 "../AithonLibrary/ChibiOS/os/ports/common/ARMCMx/CMSIS/include/core_cm4.h"
 235              		.section	.debug_info,"",%progbits
 236              	.Ldebug_info0:
 237 0000 5B050000 		.4byte	0x55b
 238 0004 0200     		.2byte	0x2
 239 0006 00000000 		.4byte	.Ldebug_abbrev0
 240 000a 04       		.byte	0x4
 241 000b 01       		.uleb128 0x1
 242 000c E5010000 		.4byte	.LASF61
 243 0010 01       		.byte	0x1
 244 0011 80000000 		.4byte	.LASF62
 245 0015 B5000000 		.4byte	.LASF63
 246 0019 00000000 		.4byte	.Ldebug_ranges0+0
 247 001d 00000000 		.4byte	0
 248 0021 00000000 		.4byte	0
 249 0025 00000000 		.4byte	.Ldebug_line0
 250 0029 02       		.uleb128 0x2
 251 002a 04       		.byte	0x4
 252 002b 05       		.byte	0x5
 253 002c 696E7400 		.ascii	"int\000"
 254 0030 03       		.uleb128 0x3
 255 0031 04       		.byte	0x4
 256 0032 07       		.byte	0x7
 257 0033 84010000 		.4byte	.LASF0
 258 0037 03       		.uleb128 0x3
 259 0038 01       		.byte	0x1
 260 0039 06       		.byte	0x6
 261 003a 58010000 		.4byte	.LASF1
 262 003e 04       		.uleb128 0x4
 263 003f 78000000 		.4byte	.LASF4
 264 0043 02       		.byte	0x2
 265 0044 2A       		.byte	0x2a
 266 0045 49000000 		.4byte	0x49
 267 0049 03       		.uleb128 0x3
 268 004a 01       		.byte	0x1
 269 004b 08       		.byte	0x8
 270 004c 30010000 		.4byte	.LASF2
 271 0050 03       		.uleb128 0x3
 272 0051 02       		.byte	0x2
 273 0052 05       		.byte	0x5
 274 0053 34000000 		.4byte	.LASF3
 275 0057 04       		.uleb128 0x4
 276 0058 91010000 		.4byte	.LASF5
 277 005c 02       		.byte	0x2
 278 005d 36       		.byte	0x36
 279 005e 62000000 		.4byte	0x62
 280 0062 03       		.uleb128 0x3
 281 0063 02       		.byte	0x2
 282 0064 07       		.byte	0x7
 283 0065 A9010000 		.4byte	.LASF6
ARM GAS  /var/folders/ng/s8655sgx1ys_4lf9jzm2w6n00000gn/T//cczMVSN4.s 			page 6


 284 0069 04       		.uleb128 0x4
 285 006a CD010000 		.4byte	.LASF7
 286 006e 02       		.byte	0x2
 287 006f 4F       		.byte	0x4f
 288 0070 74000000 		.4byte	0x74
 289 0074 03       		.uleb128 0x3
 290 0075 04       		.byte	0x4
 291 0076 05       		.byte	0x5
 292 0077 EE000000 		.4byte	.LASF8
 293 007b 04       		.uleb128 0x4
 294 007c 7B010000 		.4byte	.LASF9
 295 0080 02       		.byte	0x2
 296 0081 50       		.byte	0x50
 297 0082 86000000 		.4byte	0x86
 298 0086 03       		.uleb128 0x3
 299 0087 04       		.byte	0x4
 300 0088 07       		.byte	0x7
 301 0089 2E020000 		.4byte	.LASF10
 302 008d 03       		.uleb128 0x3
 303 008e 08       		.byte	0x8
 304 008f 05       		.byte	0x5
 305 0090 DB000000 		.4byte	.LASF11
 306 0094 03       		.uleb128 0x3
 307 0095 08       		.byte	0x8
 308 0096 07       		.byte	0x7
 309 0097 64010000 		.4byte	.LASF12
 310 009b 03       		.uleb128 0x3
 311 009c 01       		.byte	0x1
 312 009d 02       		.byte	0x2
 313 009e DF010000 		.4byte	.LASF13
 314 00a2 05       		.uleb128 0x5
 315 00a3 7B000000 		.4byte	0x7b
 316 00a7 03       		.uleb128 0x3
 317 00a8 04       		.byte	0x4
 318 00a9 07       		.byte	0x7
 319 00aa 4D000000 		.4byte	.LASF14
 320 00ae 03       		.uleb128 0x3
 321 00af 01       		.byte	0x1
 322 00b0 08       		.byte	0x8
 323 00b1 E9000000 		.4byte	.LASF15
 324 00b5 06       		.uleb128 0x6
 325 00b6 7B000000 		.4byte	0x7b
 326 00ba C5000000 		.4byte	0xc5
 327 00be 07       		.uleb128 0x7
 328 00bf A7000000 		.4byte	0xa7
 329 00c3 03       		.byte	0x3
 330 00c4 00       		.byte	0
 331 00c5 05       		.uleb128 0x5
 332 00c6 69000000 		.4byte	0x69
 333 00ca 08       		.uleb128 0x8
 334 00cb 01       		.byte	0x1
 335 00cc 03       		.byte	0x3
 336 00cd 55       		.byte	0x55
 337 00ce E5000000 		.4byte	0xe5
 338 00d2 09       		.uleb128 0x9
 339 00d3 25010000 		.4byte	.LASF16
 340 00d7 00       		.sleb128 0
ARM GAS  /var/folders/ng/s8655sgx1ys_4lf9jzm2w6n00000gn/T//cczMVSN4.s 			page 7


 341 00d8 09       		.uleb128 0x9
 342 00d9 55020000 		.4byte	.LASF17
 343 00dd 01       		.sleb128 1
 344 00de 09       		.uleb128 0x9
 345 00df 4B020000 		.4byte	.LASF18
 346 00e3 02       		.sleb128 2
 347 00e4 00       		.byte	0
 348 00e5 04       		.uleb128 0x4
 349 00e6 40020000 		.4byte	.LASF19
 350 00ea 03       		.byte	0x3
 351 00eb 59       		.byte	0x59
 352 00ec CA000000 		.4byte	0xca
 353 00f0 04       		.uleb128 0x4
 354 00f1 9A010000 		.4byte	.LASF20
 355 00f5 03       		.byte	0x3
 356 00f6 5E       		.byte	0x5e
 357 00f7 FB000000 		.4byte	0xfb
 358 00fb 0A       		.uleb128 0xa
 359 00fc 9A010000 		.4byte	.LASF20
 360 0100 14       		.byte	0x14
 361 0101 04       		.byte	0x4
 362 0102 6F01     		.2byte	0x16f
 363 0104 54010000 		.4byte	0x154
 364 0108 0B       		.uleb128 0xb
 365 0109 1C000000 		.4byte	.LASF21
 366 010d 04       		.byte	0x4
 367 010e 7301     		.2byte	0x173
 368 0110 E5000000 		.4byte	0xe5
 369 0114 02       		.byte	0x2
 370 0115 23       		.byte	0x23
 371 0116 00       		.uleb128 0
 372 0117 0B       		.uleb128 0xb
 373 0118 71000000 		.4byte	.LASF22
 374 011c 04       		.byte	0x4
 375 011d 7701     		.2byte	0x177
 376 011f B2030000 		.4byte	0x3b2
 377 0123 02       		.byte	0x2
 378 0124 23       		.byte	0x23
 379 0125 04       		.uleb128 0x4
 380 0126 0B       		.uleb128 0xb
 381 0127 02010000 		.4byte	.LASF23
 382 012b 04       		.byte	0x4
 383 012c 7B01     		.2byte	0x17b
 384 012e E3020000 		.4byte	0x2e3
 385 0132 02       		.byte	0x2
 386 0133 23       		.byte	0x23
 387 0134 08       		.uleb128 0x8
 388 0135 0B       		.uleb128 0xb
 389 0136 F7000000 		.4byte	.LASF24
 390 013a 04       		.byte	0x4
 391 013b 8301     		.2byte	0x183
 392 013d 7B000000 		.4byte	0x7b
 393 0141 02       		.byte	0x2
 394 0142 23       		.byte	0x23
 395 0143 0C       		.uleb128 0xc
 396 0144 0C       		.uleb128 0xc
 397 0145 74696D00 		.ascii	"tim\000"
ARM GAS  /var/folders/ng/s8655sgx1ys_4lf9jzm2w6n00000gn/T//cczMVSN4.s 			page 8


 398 0149 04       		.byte	0x4
 399 014a 8701     		.2byte	0x187
 400 014c BD030000 		.4byte	0x3bd
 401 0150 02       		.byte	0x2
 402 0151 23       		.byte	0x23
 403 0152 10       		.uleb128 0x10
 404 0153 00       		.byte	0
 405 0154 04       		.uleb128 0x4
 406 0155 BB020000 		.4byte	.LASF25
 407 0159 03       		.byte	0x3
 408 015a 65       		.byte	0x65
 409 015b 5F010000 		.4byte	0x15f
 410 015f 0D       		.uleb128 0xd
 411 0160 04       		.byte	0x4
 412 0161 65010000 		.4byte	0x165
 413 0165 0E       		.uleb128 0xe
 414 0166 01       		.byte	0x1
 415 0167 71010000 		.4byte	0x171
 416 016b 0F       		.uleb128 0xf
 417 016c 71010000 		.4byte	0x171
 418 0170 00       		.byte	0
 419 0171 0D       		.uleb128 0xd
 420 0172 04       		.byte	0x4
 421 0173 F0000000 		.4byte	0xf0
 422 0177 10       		.uleb128 0x10
 423 0178 60       		.byte	0x60
 424 0179 05       		.byte	0x5
 425 017a 9E01     		.2byte	0x19e
 426 017c BA020000 		.4byte	0x2ba
 427 0180 0C       		.uleb128 0xc
 428 0181 43523100 		.ascii	"CR1\000"
 429 0185 05       		.byte	0x5
 430 0186 9F01     		.2byte	0x19f
 431 0188 A2000000 		.4byte	0xa2
 432 018c 02       		.byte	0x2
 433 018d 23       		.byte	0x23
 434 018e 00       		.uleb128 0
 435 018f 0C       		.uleb128 0xc
 436 0190 43523200 		.ascii	"CR2\000"
 437 0194 05       		.byte	0x5
 438 0195 A001     		.2byte	0x1a0
 439 0197 A2000000 		.4byte	0xa2
 440 019b 02       		.byte	0x2
 441 019c 23       		.byte	0x23
 442 019d 04       		.uleb128 0x4
 443 019e 0B       		.uleb128 0xb
 444 019f 20010000 		.4byte	.LASF26
 445 01a3 05       		.byte	0x5
 446 01a4 A101     		.2byte	0x1a1
 447 01a6 A2000000 		.4byte	0xa2
 448 01aa 02       		.byte	0x2
 449 01ab 23       		.byte	0x23
 450 01ac 08       		.uleb128 0x8
 451 01ad 0B       		.uleb128 0xb
 452 01ae A4010000 		.4byte	.LASF27
 453 01b2 05       		.byte	0x5
 454 01b3 A201     		.2byte	0x1a2
ARM GAS  /var/folders/ng/s8655sgx1ys_4lf9jzm2w6n00000gn/T//cczMVSN4.s 			page 9


 455 01b5 A2000000 		.4byte	0xa2
 456 01b9 02       		.byte	0x2
 457 01ba 23       		.byte	0x23
 458 01bb 0C       		.uleb128 0xc
 459 01bc 0C       		.uleb128 0xc
 460 01bd 535200   		.ascii	"SR\000"
 461 01c0 05       		.byte	0x5
 462 01c1 A301     		.2byte	0x1a3
 463 01c3 A2000000 		.4byte	0xa2
 464 01c7 02       		.byte	0x2
 465 01c8 23       		.byte	0x23
 466 01c9 10       		.uleb128 0x10
 467 01ca 0C       		.uleb128 0xc
 468 01cb 45475200 		.ascii	"EGR\000"
 469 01cf 05       		.byte	0x5
 470 01d0 A401     		.2byte	0x1a4
 471 01d2 A2000000 		.4byte	0xa2
 472 01d6 02       		.byte	0x2
 473 01d7 23       		.byte	0x23
 474 01d8 14       		.uleb128 0x14
 475 01d9 0B       		.uleb128 0xb
 476 01da 1A010000 		.4byte	.LASF28
 477 01de 05       		.byte	0x5
 478 01df A501     		.2byte	0x1a5
 479 01e1 A2000000 		.4byte	0xa2
 480 01e5 02       		.byte	0x2
 481 01e6 23       		.byte	0x23
 482 01e7 18       		.uleb128 0x18
 483 01e8 0B       		.uleb128 0xb
 484 01e9 22000000 		.4byte	.LASF29
 485 01ed 05       		.byte	0x5
 486 01ee A601     		.2byte	0x1a6
 487 01f0 A2000000 		.4byte	0xa2
 488 01f4 02       		.byte	0x2
 489 01f5 23       		.byte	0x23
 490 01f6 1C       		.uleb128 0x1c
 491 01f7 0B       		.uleb128 0xb
 492 01f8 00000000 		.4byte	.LASF30
 493 01fc 05       		.byte	0x5
 494 01fd A701     		.2byte	0x1a7
 495 01ff A2000000 		.4byte	0xa2
 496 0203 02       		.byte	0x2
 497 0204 23       		.byte	0x23
 498 0205 20       		.uleb128 0x20
 499 0206 0C       		.uleb128 0xc
 500 0207 434E5400 		.ascii	"CNT\000"
 501 020b 05       		.byte	0x5
 502 020c A801     		.2byte	0x1a8
 503 020e A2000000 		.4byte	0xa2
 504 0212 02       		.byte	0x2
 505 0213 23       		.byte	0x23
 506 0214 24       		.uleb128 0x24
 507 0215 0C       		.uleb128 0xc
 508 0216 50534300 		.ascii	"PSC\000"
 509 021a 05       		.byte	0x5
 510 021b A901     		.2byte	0x1a9
 511 021d A2000000 		.4byte	0xa2
ARM GAS  /var/folders/ng/s8655sgx1ys_4lf9jzm2w6n00000gn/T//cczMVSN4.s 			page 10


 512 0221 02       		.byte	0x2
 513 0222 23       		.byte	0x23
 514 0223 28       		.uleb128 0x28
 515 0224 0C       		.uleb128 0xc
 516 0225 41525200 		.ascii	"ARR\000"
 517 0229 05       		.byte	0x5
 518 022a AA01     		.2byte	0x1aa
 519 022c A2000000 		.4byte	0xa2
 520 0230 02       		.byte	0x2
 521 0231 23       		.byte	0x23
 522 0232 2C       		.uleb128 0x2c
 523 0233 0C       		.uleb128 0xc
 524 0234 52435200 		.ascii	"RCR\000"
 525 0238 05       		.byte	0x5
 526 0239 AB01     		.2byte	0x1ab
 527 023b A2000000 		.4byte	0xa2
 528 023f 02       		.byte	0x2
 529 0240 23       		.byte	0x23
 530 0241 30       		.uleb128 0x30
 531 0242 0C       		.uleb128 0xc
 532 0243 43435200 		.ascii	"CCR\000"
 533 0247 05       		.byte	0x5
 534 0248 AC01     		.2byte	0x1ac
 535 024a BA020000 		.4byte	0x2ba
 536 024e 02       		.byte	0x2
 537 024f 23       		.byte	0x23
 538 0250 34       		.uleb128 0x34
 539 0251 0B       		.uleb128 0xb
 540 0252 C8010000 		.4byte	.LASF31
 541 0256 05       		.byte	0x5
 542 0257 AD01     		.2byte	0x1ad
 543 0259 A2000000 		.4byte	0xa2
 544 025d 02       		.byte	0x2
 545 025e 23       		.byte	0x23
 546 025f 44       		.uleb128 0x44
 547 0260 0C       		.uleb128 0xc
 548 0261 44435200 		.ascii	"DCR\000"
 549 0265 05       		.byte	0x5
 550 0266 AE01     		.2byte	0x1ae
 551 0268 A2000000 		.4byte	0xa2
 552 026c 02       		.byte	0x2
 553 026d 23       		.byte	0x23
 554 026e 48       		.uleb128 0x48
 555 026f 0B       		.uleb128 0xb
 556 0270 0E000000 		.4byte	.LASF32
 557 0274 05       		.byte	0x5
 558 0275 AF01     		.2byte	0x1af
 559 0277 A2000000 		.4byte	0xa2
 560 027b 02       		.byte	0x2
 561 027c 23       		.byte	0x23
 562 027d 4C       		.uleb128 0x4c
 563 027e 0C       		.uleb128 0xc
 564 027f 4F5200   		.ascii	"OR\000"
 565 0282 05       		.byte	0x5
 566 0283 B001     		.2byte	0x1b0
 567 0285 A2000000 		.4byte	0xa2
 568 0289 02       		.byte	0x2
ARM GAS  /var/folders/ng/s8655sgx1ys_4lf9jzm2w6n00000gn/T//cczMVSN4.s 			page 11


 569 028a 23       		.byte	0x23
 570 028b 50       		.uleb128 0x50
 571 028c 0B       		.uleb128 0xb
 572 028d 28000000 		.4byte	.LASF33
 573 0291 05       		.byte	0x5
 574 0292 B101     		.2byte	0x1b1
 575 0294 A2000000 		.4byte	0xa2
 576 0298 02       		.byte	0x2
 577 0299 23       		.byte	0x23
 578 029a 54       		.uleb128 0x54
 579 029b 0B       		.uleb128 0xb
 580 029c 47010000 		.4byte	.LASF34
 581 02a0 05       		.byte	0x5
 582 02a1 B201     		.2byte	0x1b2
 583 02a3 A2000000 		.4byte	0xa2
 584 02a7 02       		.byte	0x2
 585 02a8 23       		.byte	0x23
 586 02a9 58       		.uleb128 0x58
 587 02aa 0B       		.uleb128 0xb
 588 02ab FD000000 		.4byte	.LASF35
 589 02af 05       		.byte	0x5
 590 02b0 B301     		.2byte	0x1b3
 591 02b2 A2000000 		.4byte	0xa2
 592 02b6 02       		.byte	0x2
 593 02b7 23       		.byte	0x23
 594 02b8 5C       		.uleb128 0x5c
 595 02b9 00       		.byte	0
 596 02ba 05       		.uleb128 0x5
 597 02bb B5000000 		.4byte	0xb5
 598 02bf 11       		.uleb128 0x11
 599 02c0 BC010000 		.4byte	.LASF36
 600 02c4 05       		.byte	0x5
 601 02c5 B401     		.2byte	0x1b4
 602 02c7 77010000 		.4byte	0x177
 603 02cb 11       		.uleb128 0x11
 604 02cc 8F020000 		.4byte	.LASF37
 605 02d0 04       		.byte	0x4
 606 02d1 2001     		.2byte	0x120
 607 02d3 7B000000 		.4byte	0x7b
 608 02d7 11       		.uleb128 0x11
 609 02d8 56000000 		.4byte	.LASF38
 610 02dc 04       		.byte	0x4
 611 02dd 2501     		.2byte	0x125
 612 02df 3E000000 		.4byte	0x3e
 613 02e3 11       		.uleb128 0x11
 614 02e4 3E000000 		.4byte	.LASF39
 615 02e8 04       		.byte	0x4
 616 02e9 2A01     		.2byte	0x12a
 617 02eb 57000000 		.4byte	0x57
 618 02ef 10       		.uleb128 0x10
 619 02f0 08       		.byte	0x8
 620 02f1 04       		.byte	0x4
 621 02f2 2F01     		.2byte	0x12f
 622 02f4 17030000 		.4byte	0x317
 623 02f8 0B       		.uleb128 0xb
 624 02f9 63000000 		.4byte	.LASF40
 625 02fd 04       		.byte	0x4
ARM GAS  /var/folders/ng/s8655sgx1ys_4lf9jzm2w6n00000gn/T//cczMVSN4.s 			page 12


 626 02fe 3301     		.2byte	0x133
 627 0300 CB020000 		.4byte	0x2cb
 628 0304 02       		.byte	0x2
 629 0305 23       		.byte	0x23
 630 0306 00       		.uleb128 0
 631 0307 0B       		.uleb128 0xb
 632 0308 C9020000 		.4byte	.LASF41
 633 030c 04       		.byte	0x4
 634 030d 3901     		.2byte	0x139
 635 030f 54010000 		.4byte	0x154
 636 0313 02       		.byte	0x2
 637 0314 23       		.byte	0x23
 638 0315 04       		.uleb128 0x4
 639 0316 00       		.byte	0
 640 0317 11       		.uleb128 0x11
 641 0318 75020000 		.4byte	.LASF42
 642 031c 04       		.byte	0x4
 643 031d 3B01     		.2byte	0x13b
 644 031f EF020000 		.4byte	0x2ef
 645 0323 10       		.uleb128 0x10
 646 0324 38       		.byte	0x38
 647 0325 04       		.byte	0x4
 648 0326 4001     		.2byte	0x140
 649 0328 96030000 		.4byte	0x396
 650 032c 0B       		.uleb128 0xb
 651 032d 6B020000 		.4byte	.LASF43
 652 0331 04       		.byte	0x4
 653 0332 4601     		.2byte	0x146
 654 0334 7B000000 		.4byte	0x7b
 655 0338 02       		.byte	0x2
 656 0339 23       		.byte	0x23
 657 033a 00       		.uleb128 0
 658 033b 0B       		.uleb128 0xb
 659 033c 02010000 		.4byte	.LASF23
 660 0340 04       		.byte	0x4
 661 0341 4C01     		.2byte	0x14c
 662 0343 E3020000 		.4byte	0x2e3
 663 0347 02       		.byte	0x2
 664 0348 23       		.byte	0x23
 665 0349 04       		.uleb128 0x4
 666 034a 0B       		.uleb128 0xb
 667 034b C9020000 		.4byte	.LASF41
 668 034f 04       		.byte	0x4
 669 0350 5201     		.2byte	0x152
 670 0352 54010000 		.4byte	0x154
 671 0356 02       		.byte	0x2
 672 0357 23       		.byte	0x23
 673 0358 08       		.uleb128 0x8
 674 0359 0B       		.uleb128 0xb
 675 035a 68000000 		.4byte	.LASF44
 676 035e 04       		.byte	0x4
 677 035f 5601     		.2byte	0x156
 678 0361 96030000 		.4byte	0x396
 679 0365 02       		.byte	0x2
 680 0366 23       		.byte	0x23
 681 0367 0C       		.uleb128 0xc
 682 0368 0C       		.uleb128 0xc
ARM GAS  /var/folders/ng/s8655sgx1ys_4lf9jzm2w6n00000gn/T//cczMVSN4.s 			page 13


 683 0369 63723200 		.ascii	"cr2\000"
 684 036d 04       		.byte	0x4
 685 036e 5C01     		.2byte	0x15c
 686 0370 7B000000 		.4byte	0x7b
 687 0374 02       		.byte	0x2
 688 0375 23       		.byte	0x23
 689 0376 2C       		.uleb128 0x2c
 690 0377 0B       		.uleb128 0xb
 691 0378 99020000 		.4byte	.LASF45
 692 037c 04       		.byte	0x4
 693 037d 6201     		.2byte	0x162
 694 037f 7B000000 		.4byte	0x7b
 695 0383 02       		.byte	0x2
 696 0384 23       		.byte	0x23
 697 0385 30       		.uleb128 0x30
 698 0386 0B       		.uleb128 0xb
 699 0387 5E020000 		.4byte	.LASF46
 700 038b 04       		.byte	0x4
 701 038c 6901     		.2byte	0x169
 702 038e 7B000000 		.4byte	0x7b
 703 0392 02       		.byte	0x2
 704 0393 23       		.byte	0x23
 705 0394 34       		.uleb128 0x34
 706 0395 00       		.byte	0
 707 0396 06       		.uleb128 0x6
 708 0397 17030000 		.4byte	0x317
 709 039b A6030000 		.4byte	0x3a6
 710 039f 07       		.uleb128 0x7
 711 03a0 A7000000 		.4byte	0xa7
 712 03a4 03       		.byte	0x3
 713 03a5 00       		.byte	0
 714 03a6 11       		.uleb128 0x11
 715 03a7 AB000000 		.4byte	.LASF47
 716 03ab 04       		.byte	0x4
 717 03ac 6A01     		.2byte	0x16a
 718 03ae 23030000 		.4byte	0x323
 719 03b2 0D       		.uleb128 0xd
 720 03b3 04       		.byte	0x4
 721 03b4 B8030000 		.4byte	0x3b8
 722 03b8 12       		.uleb128 0x12
 723 03b9 A6030000 		.4byte	0x3a6
 724 03bd 0D       		.uleb128 0xd
 725 03be 04       		.byte	0x4
 726 03bf BF020000 		.4byte	0x2bf
 727 03c3 13       		.uleb128 0x13
 728 03c4 01       		.byte	0x1
 729 03c5 AB020000 		.4byte	.LASF48
 730 03c9 01       		.byte	0x1
 731 03ca 26       		.byte	0x26
 732 03cb 01       		.byte	0x1
 733 03cc 00000000 		.4byte	.LFB120
 734 03d0 2E000000 		.4byte	.LFE120
 735 03d4 00000000 		.4byte	.LLST0
 736 03d8 01       		.byte	0x1
 737 03d9 09040000 		.4byte	0x409
 738 03dd 14       		.uleb128 0x14
 739 03de 16000000 		.4byte	.LVL0
ARM GAS  /var/folders/ng/s8655sgx1ys_4lf9jzm2w6n00000gn/T//cczMVSN4.s 			page 14


 740 03e2 17050000 		.4byte	0x517
 741 03e6 F4030000 		.4byte	0x3f4
 742 03ea 15       		.uleb128 0x15
 743 03eb 01       		.byte	0x1
 744 03ec 51       		.byte	0x51
 745 03ed 05       		.byte	0x5
 746 03ee 03       		.byte	0x3
 747 03ef 00000000 		.4byte	.LANCHOR0
 748 03f3 00       		.byte	0
 749 03f4 16       		.uleb128 0x16
 750 03f5 2E000000 		.4byte	.LVL1
 751 03f9 01       		.byte	0x1
 752 03fa 17050000 		.4byte	0x517
 753 03fe 15       		.uleb128 0x15
 754 03ff 01       		.byte	0x1
 755 0400 51       		.byte	0x51
 756 0401 05       		.byte	0x5
 757 0402 03       		.byte	0x3
 758 0403 00000000 		.4byte	.LANCHOR1
 759 0407 00       		.byte	0
 760 0408 00       		.byte	0
 761 0409 17       		.uleb128 0x17
 762 040a 01       		.byte	0x1
 763 040b 4C010000 		.4byte	.LASF49
 764 040f 01       		.byte	0x1
 765 0410 21       		.byte	0x21
 766 0411 01       		.byte	0x1
 767 0412 00000000 		.4byte	.LFB119
 768 0416 04000000 		.4byte	.LFE119
 769 041a 02       		.byte	0x2
 770 041b 7D       		.byte	0x7d
 771 041c 00       		.sleb128 0
 772 041d 01       		.byte	0x1
 773 041e 2D040000 		.4byte	0x42d
 774 0422 18       		.uleb128 0x18
 775 0423 04000000 		.4byte	.LVL2
 776 0427 01       		.byte	0x1
 777 0428 C3030000 		.4byte	0x3c3
 778 042c 00       		.byte	0
 779 042d 13       		.uleb128 0x13
 780 042e 01       		.byte	0x1
 781 042f 09010000 		.4byte	.LASF50
 782 0433 01       		.byte	0x1
 783 0434 2C       		.byte	0x2c
 784 0435 01       		.byte	0x1
 785 0436 00000000 		.4byte	.LFB121
 786 043a 1E000000 		.4byte	.LFE121
 787 043e 20000000 		.4byte	.LLST1
 788 0442 01       		.byte	0x1
 789 0443 5B040000 		.4byte	0x45b
 790 0447 19       		.uleb128 0x19
 791 0448 0E000000 		.4byte	.LVL3
 792 044c 30050000 		.4byte	0x530
 793 0450 18       		.uleb128 0x18
 794 0451 1E000000 		.4byte	.LVL4
 795 0455 01       		.byte	0x1
 796 0456 30050000 		.4byte	0x530
ARM GAS  /var/folders/ng/s8655sgx1ys_4lf9jzm2w6n00000gn/T//cczMVSN4.s 			page 15


 797 045a 00       		.byte	0
 798 045b 13       		.uleb128 0x13
 799 045c 01       		.byte	0x1
 800 045d D5010000 		.4byte	.LASF51
 801 0461 01       		.byte	0x1
 802 0462 32       		.byte	0x32
 803 0463 01       		.byte	0x1
 804 0464 00000000 		.4byte	.LFB122
 805 0468 50000000 		.4byte	.LFE122
 806 046c 40000000 		.4byte	.LLST2
 807 0470 01       		.byte	0x1
 808 0471 CB040000 		.4byte	0x4cb
 809 0475 1A       		.uleb128 0x1a
 810 0476 3E010000 		.4byte	.LASF52
 811 047a 01       		.byte	0x1
 812 047b 32       		.byte	0x32
 813 047c 29000000 		.4byte	0x29
 814 0480 60000000 		.4byte	.LLST3
 815 0484 1A       		.uleb128 0x1a
 816 0485 86020000 		.4byte	.LASF53
 817 0489 01       		.byte	0x1
 818 048a 32       		.byte	0x32
 819 048b 29000000 		.4byte	0x29
 820 048f B2000000 		.4byte	.LLST4
 821 0493 1B       		.uleb128 0x1b
 822 0494 2C000000 		.4byte	.LVL8
 823 0498 01       		.byte	0x1
 824 0499 44050000 		.4byte	0x544
 825 049d B5040000 		.4byte	0x4b5
 826 04a1 15       		.uleb128 0x15
 827 04a2 01       		.byte	0x1
 828 04a3 52       		.byte	0x52
 829 04a4 06       		.byte	0x6
 830 04a5 74       		.byte	0x74
 831 04a6 00       		.sleb128 0
 832 04a7 0A       		.byte	0xa
 833 04a8 FEFF     		.2byte	0xfffe
 834 04aa 1A       		.byte	0x1a
 835 04ab 15       		.uleb128 0x15
 836 04ac 01       		.byte	0x1
 837 04ad 51       		.byte	0x51
 838 04ae 05       		.byte	0x5
 839 04af F3       		.byte	0xf3
 840 04b0 01       		.uleb128 0x1
 841 04b1 50       		.byte	0x50
 842 04b2 34       		.byte	0x34
 843 04b3 1C       		.byte	0x1c
 844 04b4 00       		.byte	0
 845 04b5 16       		.uleb128 0x16
 846 04b6 46000000 		.4byte	.LVL11
 847 04ba 01       		.byte	0x1
 848 04bb 44050000 		.4byte	0x544
 849 04bf 15       		.uleb128 0x15
 850 04c0 01       		.byte	0x1
 851 04c1 52       		.byte	0x52
 852 04c2 06       		.byte	0x6
 853 04c3 74       		.byte	0x74
ARM GAS  /var/folders/ng/s8655sgx1ys_4lf9jzm2w6n00000gn/T//cczMVSN4.s 			page 16


 854 04c4 00       		.sleb128 0
 855 04c5 0A       		.byte	0xa
 856 04c6 FEFF     		.2byte	0xfffe
 857 04c8 1A       		.byte	0x1a
 858 04c9 00       		.byte	0
 859 04ca 00       		.byte	0
 860 04cb 1C       		.uleb128 0x1c
 861 04cc 05000000 		.4byte	.LASF54
 862 04d0 01       		.byte	0x1
 863 04d1 03       		.byte	0x3
 864 04d2 B8030000 		.4byte	0x3b8
 865 04d6 05       		.byte	0x5
 866 04d7 03       		.byte	0x3
 867 04d8 00000000 		.4byte	_pwmcfg4
 868 04dc 1C       		.uleb128 0x1c
 869 04dd 13000000 		.4byte	.LASF55
 870 04e1 01       		.byte	0x1
 871 04e2 12       		.byte	0x12
 872 04e3 B8030000 		.4byte	0x3b8
 873 04e7 05       		.byte	0x5
 874 04e8 03       		.byte	0x3
 875 04e9 00000000 		.4byte	_pwmcfg8
 876 04ed 1D       		.uleb128 0x1d
 877 04ee 9E020000 		.4byte	.LASF56
 878 04f2 06       		.byte	0x6
 879 04f3 9806     		.2byte	0x698
 880 04f5 C5000000 		.4byte	0xc5
 881 04f9 01       		.byte	0x1
 882 04fa 01       		.byte	0x1
 883 04fb 1D       		.uleb128 0x1d
 884 04fc 2E000000 		.4byte	.LASF57
 885 0500 04       		.byte	0x4
 886 0501 BF01     		.2byte	0x1bf
 887 0503 F0000000 		.4byte	0xf0
 888 0507 01       		.byte	0x1
 889 0508 01       		.byte	0x1
 890 0509 1D       		.uleb128 0x1d
 891 050a 47000000 		.4byte	.LASF58
 892 050e 04       		.byte	0x4
 893 050f C701     		.2byte	0x1c7
 894 0511 F0000000 		.4byte	0xf0
 895 0515 01       		.byte	0x1
 896 0516 01       		.byte	0x1
 897 0517 1E       		.uleb128 0x1e
 898 0518 01       		.byte	0x1
 899 0519 D2000000 		.4byte	.LASF59
 900 051d 03       		.byte	0x3
 901 051e F4       		.byte	0xf4
 902 051f 01       		.byte	0x1
 903 0520 01       		.byte	0x1
 904 0521 30050000 		.4byte	0x530
 905 0525 0F       		.uleb128 0xf
 906 0526 71010000 		.4byte	0x171
 907 052a 0F       		.uleb128 0xf
 908 052b B2030000 		.4byte	0x3b2
 909 052f 00       		.byte	0
 910 0530 1E       		.uleb128 0x1e
ARM GAS  /var/folders/ng/s8655sgx1ys_4lf9jzm2w6n00000gn/T//cczMVSN4.s 			page 17


 911 0531 01       		.byte	0x1
 912 0532 63020000 		.4byte	.LASF60
 913 0536 03       		.byte	0x3
 914 0537 F5       		.byte	0xf5
 915 0538 01       		.byte	0x1
 916 0539 01       		.byte	0x1
 917 053a 44050000 		.4byte	0x544
 918 053e 0F       		.uleb128 0xf
 919 053f 71010000 		.4byte	0x171
 920 0543 00       		.byte	0
 921 0544 1F       		.uleb128 0x1f
 922 0545 01       		.byte	0x1
 923 0546 9A000000 		.4byte	.LASF64
 924 054a 03       		.byte	0x3
 925 054b F7       		.byte	0xf7
 926 054c 01       		.byte	0x1
 927 054d 01       		.byte	0x1
 928 054e 0F       		.uleb128 0xf
 929 054f 71010000 		.4byte	0x171
 930 0553 0F       		.uleb128 0xf
 931 0554 D7020000 		.4byte	0x2d7
 932 0558 0F       		.uleb128 0xf
 933 0559 E3020000 		.4byte	0x2e3
 934 055d 00       		.byte	0
 935 055e 00       		.byte	0
 936              		.section	.debug_abbrev,"",%progbits
 937              	.Ldebug_abbrev0:
 938 0000 01       		.uleb128 0x1
 939 0001 11       		.uleb128 0x11
 940 0002 01       		.byte	0x1
 941 0003 25       		.uleb128 0x25
 942 0004 0E       		.uleb128 0xe
 943 0005 13       		.uleb128 0x13
 944 0006 0B       		.uleb128 0xb
 945 0007 03       		.uleb128 0x3
 946 0008 0E       		.uleb128 0xe
 947 0009 1B       		.uleb128 0x1b
 948 000a 0E       		.uleb128 0xe
 949 000b 55       		.uleb128 0x55
 950 000c 06       		.uleb128 0x6
 951 000d 11       		.uleb128 0x11
 952 000e 01       		.uleb128 0x1
 953 000f 52       		.uleb128 0x52
 954 0010 01       		.uleb128 0x1
 955 0011 10       		.uleb128 0x10
 956 0012 06       		.uleb128 0x6
 957 0013 00       		.byte	0
 958 0014 00       		.byte	0
 959 0015 02       		.uleb128 0x2
 960 0016 24       		.uleb128 0x24
 961 0017 00       		.byte	0
 962 0018 0B       		.uleb128 0xb
 963 0019 0B       		.uleb128 0xb
 964 001a 3E       		.uleb128 0x3e
 965 001b 0B       		.uleb128 0xb
 966 001c 03       		.uleb128 0x3
 967 001d 08       		.uleb128 0x8
ARM GAS  /var/folders/ng/s8655sgx1ys_4lf9jzm2w6n00000gn/T//cczMVSN4.s 			page 18


 968 001e 00       		.byte	0
 969 001f 00       		.byte	0
 970 0020 03       		.uleb128 0x3
 971 0021 24       		.uleb128 0x24
 972 0022 00       		.byte	0
 973 0023 0B       		.uleb128 0xb
 974 0024 0B       		.uleb128 0xb
 975 0025 3E       		.uleb128 0x3e
 976 0026 0B       		.uleb128 0xb
 977 0027 03       		.uleb128 0x3
 978 0028 0E       		.uleb128 0xe
 979 0029 00       		.byte	0
 980 002a 00       		.byte	0
 981 002b 04       		.uleb128 0x4
 982 002c 16       		.uleb128 0x16
 983 002d 00       		.byte	0
 984 002e 03       		.uleb128 0x3
 985 002f 0E       		.uleb128 0xe
 986 0030 3A       		.uleb128 0x3a
 987 0031 0B       		.uleb128 0xb
 988 0032 3B       		.uleb128 0x3b
 989 0033 0B       		.uleb128 0xb
 990 0034 49       		.uleb128 0x49
 991 0035 13       		.uleb128 0x13
 992 0036 00       		.byte	0
 993 0037 00       		.byte	0
 994 0038 05       		.uleb128 0x5
 995 0039 35       		.uleb128 0x35
 996 003a 00       		.byte	0
 997 003b 49       		.uleb128 0x49
 998 003c 13       		.uleb128 0x13
 999 003d 00       		.byte	0
 1000 003e 00       		.byte	0
 1001 003f 06       		.uleb128 0x6
 1002 0040 01       		.uleb128 0x1
 1003 0041 01       		.byte	0x1
 1004 0042 49       		.uleb128 0x49
 1005 0043 13       		.uleb128 0x13
 1006 0044 01       		.uleb128 0x1
 1007 0045 13       		.uleb128 0x13
 1008 0046 00       		.byte	0
 1009 0047 00       		.byte	0
 1010 0048 07       		.uleb128 0x7
 1011 0049 21       		.uleb128 0x21
 1012 004a 00       		.byte	0
 1013 004b 49       		.uleb128 0x49
 1014 004c 13       		.uleb128 0x13
 1015 004d 2F       		.uleb128 0x2f
 1016 004e 0B       		.uleb128 0xb
 1017 004f 00       		.byte	0
 1018 0050 00       		.byte	0
 1019 0051 08       		.uleb128 0x8
 1020 0052 04       		.uleb128 0x4
 1021 0053 01       		.byte	0x1
 1022 0054 0B       		.uleb128 0xb
 1023 0055 0B       		.uleb128 0xb
 1024 0056 3A       		.uleb128 0x3a
ARM GAS  /var/folders/ng/s8655sgx1ys_4lf9jzm2w6n00000gn/T//cczMVSN4.s 			page 19


 1025 0057 0B       		.uleb128 0xb
 1026 0058 3B       		.uleb128 0x3b
 1027 0059 0B       		.uleb128 0xb
 1028 005a 01       		.uleb128 0x1
 1029 005b 13       		.uleb128 0x13
 1030 005c 00       		.byte	0
 1031 005d 00       		.byte	0
 1032 005e 09       		.uleb128 0x9
 1033 005f 28       		.uleb128 0x28
 1034 0060 00       		.byte	0
 1035 0061 03       		.uleb128 0x3
 1036 0062 0E       		.uleb128 0xe
 1037 0063 1C       		.uleb128 0x1c
 1038 0064 0D       		.uleb128 0xd
 1039 0065 00       		.byte	0
 1040 0066 00       		.byte	0
 1041 0067 0A       		.uleb128 0xa
 1042 0068 13       		.uleb128 0x13
 1043 0069 01       		.byte	0x1
 1044 006a 03       		.uleb128 0x3
 1045 006b 0E       		.uleb128 0xe
 1046 006c 0B       		.uleb128 0xb
 1047 006d 0B       		.uleb128 0xb
 1048 006e 3A       		.uleb128 0x3a
 1049 006f 0B       		.uleb128 0xb
 1050 0070 3B       		.uleb128 0x3b
 1051 0071 05       		.uleb128 0x5
 1052 0072 01       		.uleb128 0x1
 1053 0073 13       		.uleb128 0x13
 1054 0074 00       		.byte	0
 1055 0075 00       		.byte	0
 1056 0076 0B       		.uleb128 0xb
 1057 0077 0D       		.uleb128 0xd
 1058 0078 00       		.byte	0
 1059 0079 03       		.uleb128 0x3
 1060 007a 0E       		.uleb128 0xe
 1061 007b 3A       		.uleb128 0x3a
 1062 007c 0B       		.uleb128 0xb
 1063 007d 3B       		.uleb128 0x3b
 1064 007e 05       		.uleb128 0x5
 1065 007f 49       		.uleb128 0x49
 1066 0080 13       		.uleb128 0x13
 1067 0081 38       		.uleb128 0x38
 1068 0082 0A       		.uleb128 0xa
 1069 0083 00       		.byte	0
 1070 0084 00       		.byte	0
 1071 0085 0C       		.uleb128 0xc
 1072 0086 0D       		.uleb128 0xd
 1073 0087 00       		.byte	0
 1074 0088 03       		.uleb128 0x3
 1075 0089 08       		.uleb128 0x8
 1076 008a 3A       		.uleb128 0x3a
 1077 008b 0B       		.uleb128 0xb
 1078 008c 3B       		.uleb128 0x3b
 1079 008d 05       		.uleb128 0x5
 1080 008e 49       		.uleb128 0x49
 1081 008f 13       		.uleb128 0x13
ARM GAS  /var/folders/ng/s8655sgx1ys_4lf9jzm2w6n00000gn/T//cczMVSN4.s 			page 20


 1082 0090 38       		.uleb128 0x38
 1083 0091 0A       		.uleb128 0xa
 1084 0092 00       		.byte	0
 1085 0093 00       		.byte	0
 1086 0094 0D       		.uleb128 0xd
 1087 0095 0F       		.uleb128 0xf
 1088 0096 00       		.byte	0
 1089 0097 0B       		.uleb128 0xb
 1090 0098 0B       		.uleb128 0xb
 1091 0099 49       		.uleb128 0x49
 1092 009a 13       		.uleb128 0x13
 1093 009b 00       		.byte	0
 1094 009c 00       		.byte	0
 1095 009d 0E       		.uleb128 0xe
 1096 009e 15       		.uleb128 0x15
 1097 009f 01       		.byte	0x1
 1098 00a0 27       		.uleb128 0x27
 1099 00a1 0C       		.uleb128 0xc
 1100 00a2 01       		.uleb128 0x1
 1101 00a3 13       		.uleb128 0x13
 1102 00a4 00       		.byte	0
 1103 00a5 00       		.byte	0
 1104 00a6 0F       		.uleb128 0xf
 1105 00a7 05       		.uleb128 0x5
 1106 00a8 00       		.byte	0
 1107 00a9 49       		.uleb128 0x49
 1108 00aa 13       		.uleb128 0x13
 1109 00ab 00       		.byte	0
 1110 00ac 00       		.byte	0
 1111 00ad 10       		.uleb128 0x10
 1112 00ae 13       		.uleb128 0x13
 1113 00af 01       		.byte	0x1
 1114 00b0 0B       		.uleb128 0xb
 1115 00b1 0B       		.uleb128 0xb
 1116 00b2 3A       		.uleb128 0x3a
 1117 00b3 0B       		.uleb128 0xb
 1118 00b4 3B       		.uleb128 0x3b
 1119 00b5 05       		.uleb128 0x5
 1120 00b6 01       		.uleb128 0x1
 1121 00b7 13       		.uleb128 0x13
 1122 00b8 00       		.byte	0
 1123 00b9 00       		.byte	0
 1124 00ba 11       		.uleb128 0x11
 1125 00bb 16       		.uleb128 0x16
 1126 00bc 00       		.byte	0
 1127 00bd 03       		.uleb128 0x3
 1128 00be 0E       		.uleb128 0xe
 1129 00bf 3A       		.uleb128 0x3a
 1130 00c0 0B       		.uleb128 0xb
 1131 00c1 3B       		.uleb128 0x3b
 1132 00c2 05       		.uleb128 0x5
 1133 00c3 49       		.uleb128 0x49
 1134 00c4 13       		.uleb128 0x13
 1135 00c5 00       		.byte	0
 1136 00c6 00       		.byte	0
 1137 00c7 12       		.uleb128 0x12
 1138 00c8 26       		.uleb128 0x26
ARM GAS  /var/folders/ng/s8655sgx1ys_4lf9jzm2w6n00000gn/T//cczMVSN4.s 			page 21


 1139 00c9 00       		.byte	0
 1140 00ca 49       		.uleb128 0x49
 1141 00cb 13       		.uleb128 0x13
 1142 00cc 00       		.byte	0
 1143 00cd 00       		.byte	0
 1144 00ce 13       		.uleb128 0x13
 1145 00cf 2E       		.uleb128 0x2e
 1146 00d0 01       		.byte	0x1
 1147 00d1 3F       		.uleb128 0x3f
 1148 00d2 0C       		.uleb128 0xc
 1149 00d3 03       		.uleb128 0x3
 1150 00d4 0E       		.uleb128 0xe
 1151 00d5 3A       		.uleb128 0x3a
 1152 00d6 0B       		.uleb128 0xb
 1153 00d7 3B       		.uleb128 0x3b
 1154 00d8 0B       		.uleb128 0xb
 1155 00d9 27       		.uleb128 0x27
 1156 00da 0C       		.uleb128 0xc
 1157 00db 11       		.uleb128 0x11
 1158 00dc 01       		.uleb128 0x1
 1159 00dd 12       		.uleb128 0x12
 1160 00de 01       		.uleb128 0x1
 1161 00df 40       		.uleb128 0x40
 1162 00e0 06       		.uleb128 0x6
 1163 00e1 9742     		.uleb128 0x2117
 1164 00e3 0C       		.uleb128 0xc
 1165 00e4 01       		.uleb128 0x1
 1166 00e5 13       		.uleb128 0x13
 1167 00e6 00       		.byte	0
 1168 00e7 00       		.byte	0
 1169 00e8 14       		.uleb128 0x14
 1170 00e9 898201   		.uleb128 0x4109
 1171 00ec 01       		.byte	0x1
 1172 00ed 11       		.uleb128 0x11
 1173 00ee 01       		.uleb128 0x1
 1174 00ef 31       		.uleb128 0x31
 1175 00f0 13       		.uleb128 0x13
 1176 00f1 01       		.uleb128 0x1
 1177 00f2 13       		.uleb128 0x13
 1178 00f3 00       		.byte	0
 1179 00f4 00       		.byte	0
 1180 00f5 15       		.uleb128 0x15
 1181 00f6 8A8201   		.uleb128 0x410a
 1182 00f9 00       		.byte	0
 1183 00fa 02       		.uleb128 0x2
 1184 00fb 0A       		.uleb128 0xa
 1185 00fc 9142     		.uleb128 0x2111
 1186 00fe 0A       		.uleb128 0xa
 1187 00ff 00       		.byte	0
 1188 0100 00       		.byte	0
 1189 0101 16       		.uleb128 0x16
 1190 0102 898201   		.uleb128 0x4109
 1191 0105 01       		.byte	0x1
 1192 0106 11       		.uleb128 0x11
 1193 0107 01       		.uleb128 0x1
 1194 0108 9542     		.uleb128 0x2115
 1195 010a 0C       		.uleb128 0xc
ARM GAS  /var/folders/ng/s8655sgx1ys_4lf9jzm2w6n00000gn/T//cczMVSN4.s 			page 22


 1196 010b 31       		.uleb128 0x31
 1197 010c 13       		.uleb128 0x13
 1198 010d 00       		.byte	0
 1199 010e 00       		.byte	0
 1200 010f 17       		.uleb128 0x17
 1201 0110 2E       		.uleb128 0x2e
 1202 0111 01       		.byte	0x1
 1203 0112 3F       		.uleb128 0x3f
 1204 0113 0C       		.uleb128 0xc
 1205 0114 03       		.uleb128 0x3
 1206 0115 0E       		.uleb128 0xe
 1207 0116 3A       		.uleb128 0x3a
 1208 0117 0B       		.uleb128 0xb
 1209 0118 3B       		.uleb128 0x3b
 1210 0119 0B       		.uleb128 0xb
 1211 011a 27       		.uleb128 0x27
 1212 011b 0C       		.uleb128 0xc
 1213 011c 11       		.uleb128 0x11
 1214 011d 01       		.uleb128 0x1
 1215 011e 12       		.uleb128 0x12
 1216 011f 01       		.uleb128 0x1
 1217 0120 40       		.uleb128 0x40
 1218 0121 0A       		.uleb128 0xa
 1219 0122 9742     		.uleb128 0x2117
 1220 0124 0C       		.uleb128 0xc
 1221 0125 01       		.uleb128 0x1
 1222 0126 13       		.uleb128 0x13
 1223 0127 00       		.byte	0
 1224 0128 00       		.byte	0
 1225 0129 18       		.uleb128 0x18
 1226 012a 898201   		.uleb128 0x4109
 1227 012d 00       		.byte	0
 1228 012e 11       		.uleb128 0x11
 1229 012f 01       		.uleb128 0x1
 1230 0130 9542     		.uleb128 0x2115
 1231 0132 0C       		.uleb128 0xc
 1232 0133 31       		.uleb128 0x31
 1233 0134 13       		.uleb128 0x13
 1234 0135 00       		.byte	0
 1235 0136 00       		.byte	0
 1236 0137 19       		.uleb128 0x19
 1237 0138 898201   		.uleb128 0x4109
 1238 013b 00       		.byte	0
 1239 013c 11       		.uleb128 0x11
 1240 013d 01       		.uleb128 0x1
 1241 013e 31       		.uleb128 0x31
 1242 013f 13       		.uleb128 0x13
 1243 0140 00       		.byte	0
 1244 0141 00       		.byte	0
 1245 0142 1A       		.uleb128 0x1a
 1246 0143 05       		.uleb128 0x5
 1247 0144 00       		.byte	0
 1248 0145 03       		.uleb128 0x3
 1249 0146 0E       		.uleb128 0xe
 1250 0147 3A       		.uleb128 0x3a
 1251 0148 0B       		.uleb128 0xb
 1252 0149 3B       		.uleb128 0x3b
ARM GAS  /var/folders/ng/s8655sgx1ys_4lf9jzm2w6n00000gn/T//cczMVSN4.s 			page 23


 1253 014a 0B       		.uleb128 0xb
 1254 014b 49       		.uleb128 0x49
 1255 014c 13       		.uleb128 0x13
 1256 014d 02       		.uleb128 0x2
 1257 014e 06       		.uleb128 0x6
 1258 014f 00       		.byte	0
 1259 0150 00       		.byte	0
 1260 0151 1B       		.uleb128 0x1b
 1261 0152 898201   		.uleb128 0x4109
 1262 0155 01       		.byte	0x1
 1263 0156 11       		.uleb128 0x11
 1264 0157 01       		.uleb128 0x1
 1265 0158 9542     		.uleb128 0x2115
 1266 015a 0C       		.uleb128 0xc
 1267 015b 31       		.uleb128 0x31
 1268 015c 13       		.uleb128 0x13
 1269 015d 01       		.uleb128 0x1
 1270 015e 13       		.uleb128 0x13
 1271 015f 00       		.byte	0
 1272 0160 00       		.byte	0
 1273 0161 1C       		.uleb128 0x1c
 1274 0162 34       		.uleb128 0x34
 1275 0163 00       		.byte	0
 1276 0164 03       		.uleb128 0x3
 1277 0165 0E       		.uleb128 0xe
 1278 0166 3A       		.uleb128 0x3a
 1279 0167 0B       		.uleb128 0xb
 1280 0168 3B       		.uleb128 0x3b
 1281 0169 0B       		.uleb128 0xb
 1282 016a 49       		.uleb128 0x49
 1283 016b 13       		.uleb128 0x13
 1284 016c 02       		.uleb128 0x2
 1285 016d 0A       		.uleb128 0xa
 1286 016e 00       		.byte	0
 1287 016f 00       		.byte	0
 1288 0170 1D       		.uleb128 0x1d
 1289 0171 34       		.uleb128 0x34
 1290 0172 00       		.byte	0
 1291 0173 03       		.uleb128 0x3
 1292 0174 0E       		.uleb128 0xe
 1293 0175 3A       		.uleb128 0x3a
 1294 0176 0B       		.uleb128 0xb
 1295 0177 3B       		.uleb128 0x3b
 1296 0178 05       		.uleb128 0x5
 1297 0179 49       		.uleb128 0x49
 1298 017a 13       		.uleb128 0x13
 1299 017b 3F       		.uleb128 0x3f
 1300 017c 0C       		.uleb128 0xc
 1301 017d 3C       		.uleb128 0x3c
 1302 017e 0C       		.uleb128 0xc
 1303 017f 00       		.byte	0
 1304 0180 00       		.byte	0
 1305 0181 1E       		.uleb128 0x1e
 1306 0182 2E       		.uleb128 0x2e
 1307 0183 01       		.byte	0x1
 1308 0184 3F       		.uleb128 0x3f
 1309 0185 0C       		.uleb128 0xc
ARM GAS  /var/folders/ng/s8655sgx1ys_4lf9jzm2w6n00000gn/T//cczMVSN4.s 			page 24


 1310 0186 03       		.uleb128 0x3
 1311 0187 0E       		.uleb128 0xe
 1312 0188 3A       		.uleb128 0x3a
 1313 0189 0B       		.uleb128 0xb
 1314 018a 3B       		.uleb128 0x3b
 1315 018b 0B       		.uleb128 0xb
 1316 018c 27       		.uleb128 0x27
 1317 018d 0C       		.uleb128 0xc
 1318 018e 3C       		.uleb128 0x3c
 1319 018f 0C       		.uleb128 0xc
 1320 0190 01       		.uleb128 0x1
 1321 0191 13       		.uleb128 0x13
 1322 0192 00       		.byte	0
 1323 0193 00       		.byte	0
 1324 0194 1F       		.uleb128 0x1f
 1325 0195 2E       		.uleb128 0x2e
 1326 0196 01       		.byte	0x1
 1327 0197 3F       		.uleb128 0x3f
 1328 0198 0C       		.uleb128 0xc
 1329 0199 03       		.uleb128 0x3
 1330 019a 0E       		.uleb128 0xe
 1331 019b 3A       		.uleb128 0x3a
 1332 019c 0B       		.uleb128 0xb
 1333 019d 3B       		.uleb128 0x3b
 1334 019e 0B       		.uleb128 0xb
 1335 019f 27       		.uleb128 0x27
 1336 01a0 0C       		.uleb128 0xc
 1337 01a1 3C       		.uleb128 0x3c
 1338 01a2 0C       		.uleb128 0xc
 1339 01a3 00       		.byte	0
 1340 01a4 00       		.byte	0
 1341 01a5 00       		.byte	0
 1342              		.section	.debug_loc,"",%progbits
 1343              	.Ldebug_loc0:
 1344              	.LLST0:
 1345 0000 00000000 		.4byte	.LFB120
 1346 0004 02000000 		.4byte	.LCFI0
 1347 0008 0200     		.2byte	0x2
 1348 000a 7D       		.byte	0x7d
 1349 000b 00       		.sleb128 0
 1350 000c 02000000 		.4byte	.LCFI0
 1351 0010 2E000000 		.4byte	.LFE120
 1352 0014 0200     		.2byte	0x2
 1353 0016 7D       		.byte	0x7d
 1354 0017 08       		.sleb128 8
 1355 0018 00000000 		.4byte	0
 1356 001c 00000000 		.4byte	0
 1357              	.LLST1:
 1358 0020 00000000 		.4byte	.LFB121
 1359 0024 02000000 		.4byte	.LCFI1
 1360 0028 0200     		.2byte	0x2
 1361 002a 7D       		.byte	0x7d
 1362 002b 00       		.sleb128 0
 1363 002c 02000000 		.4byte	.LCFI1
 1364 0030 1E000000 		.4byte	.LFE121
 1365 0034 0200     		.2byte	0x2
 1366 0036 7D       		.byte	0x7d
ARM GAS  /var/folders/ng/s8655sgx1ys_4lf9jzm2w6n00000gn/T//cczMVSN4.s 			page 25


 1367 0037 08       		.sleb128 8
 1368 0038 00000000 		.4byte	0
 1369 003c 00000000 		.4byte	0
 1370              	.LLST2:
 1371 0040 00000000 		.4byte	.LFB122
 1372 0044 04000000 		.4byte	.LCFI2
 1373 0048 0200     		.2byte	0x2
 1374 004a 7D       		.byte	0x7d
 1375 004b 00       		.sleb128 0
 1376 004c 04000000 		.4byte	.LCFI2
 1377 0050 50000000 		.4byte	.LFE122
 1378 0054 0200     		.2byte	0x2
 1379 0056 7D       		.byte	0x7d
 1380 0057 04       		.sleb128 4
 1381 0058 00000000 		.4byte	0
 1382 005c 00000000 		.4byte	0
 1383              	.LLST3:
 1384 0060 00000000 		.4byte	.LVL5
 1385 0064 22000000 		.4byte	.LVL7
 1386 0068 0100     		.2byte	0x1
 1387 006a 50       		.byte	0x50
 1388 006b 22000000 		.4byte	.LVL7
 1389 006f 2B000000 		.4byte	.LVL8-1
 1390 0073 0300     		.2byte	0x3
 1391 0075 73       		.byte	0x73
 1392 0076 04       		.sleb128 4
 1393 0077 9F       		.byte	0x9f
 1394 0078 2B000000 		.4byte	.LVL8-1
 1395 007c 2C000000 		.4byte	.LVL8
 1396 0080 0400     		.2byte	0x4
 1397 0082 F3       		.byte	0xf3
 1398 0083 01       		.uleb128 0x1
 1399 0084 50       		.byte	0x50
 1400 0085 9F       		.byte	0x9f
 1401 0086 2C000000 		.4byte	.LVL8
 1402 008a 30000000 		.4byte	.LVL9
 1403 008e 0100     		.2byte	0x1
 1404 0090 50       		.byte	0x50
 1405 0091 30000000 		.4byte	.LVL9
 1406 0095 45000000 		.4byte	.LVL11-1
 1407 0099 0100     		.2byte	0x1
 1408 009b 53       		.byte	0x53
 1409 009c 45000000 		.4byte	.LVL11-1
 1410 00a0 50000000 		.4byte	.LFE122
 1411 00a4 0400     		.2byte	0x4
 1412 00a6 F3       		.byte	0xf3
 1413 00a7 01       		.uleb128 0x1
 1414 00a8 50       		.byte	0x50
 1415 00a9 9F       		.byte	0x9f
 1416 00aa 00000000 		.4byte	0
 1417 00ae 00000000 		.4byte	0
 1418              	.LLST4:
 1419 00b2 00000000 		.4byte	.LVL5
 1420 00b6 14000000 		.4byte	.LVL6
 1421 00ba 0100     		.2byte	0x1
 1422 00bc 51       		.byte	0x51
 1423 00bd 14000000 		.4byte	.LVL6
ARM GAS  /var/folders/ng/s8655sgx1ys_4lf9jzm2w6n00000gn/T//cczMVSN4.s 			page 26


 1424 00c1 2C000000 		.4byte	.LVL8
 1425 00c5 0400     		.2byte	0x4
 1426 00c7 F3       		.byte	0xf3
 1427 00c8 01       		.uleb128 0x1
 1428 00c9 51       		.byte	0x51
 1429 00ca 9F       		.byte	0x9f
 1430 00cb 2C000000 		.4byte	.LVL8
 1431 00cf 3E000000 		.4byte	.LVL10
 1432 00d3 0100     		.2byte	0x1
 1433 00d5 51       		.byte	0x51
 1434 00d6 3E000000 		.4byte	.LVL10
 1435 00da 50000000 		.4byte	.LFE122
 1436 00de 0400     		.2byte	0x4
 1437 00e0 F3       		.byte	0xf3
 1438 00e1 01       		.uleb128 0x1
 1439 00e2 51       		.byte	0x51
 1440 00e3 9F       		.byte	0x9f
 1441 00e4 00000000 		.4byte	0
 1442 00e8 00000000 		.4byte	0
 1443              		.section	.debug_aranges,"",%progbits
 1444 0000 34000000 		.4byte	0x34
 1445 0004 0200     		.2byte	0x2
 1446 0006 00000000 		.4byte	.Ldebug_info0
 1447 000a 04       		.byte	0x4
 1448 000b 00       		.byte	0
 1449 000c 0000     		.2byte	0
 1450 000e 0000     		.2byte	0
 1451 0010 00000000 		.4byte	.LFB120
 1452 0014 2E000000 		.4byte	.LFE120-.LFB120
 1453 0018 00000000 		.4byte	.LFB119
 1454 001c 04000000 		.4byte	.LFE119-.LFB119
 1455 0020 00000000 		.4byte	.LFB121
 1456 0024 1E000000 		.4byte	.LFE121-.LFB121
 1457 0028 00000000 		.4byte	.LFB122
 1458 002c 50000000 		.4byte	.LFE122-.LFB122
 1459 0030 00000000 		.4byte	0
 1460 0034 00000000 		.4byte	0
 1461              		.section	.debug_ranges,"",%progbits
 1462              	.Ldebug_ranges0:
 1463 0000 00000000 		.4byte	.LFB120
 1464 0004 2E000000 		.4byte	.LFE120
 1465 0008 00000000 		.4byte	.LFB119
 1466 000c 04000000 		.4byte	.LFE119
 1467 0010 00000000 		.4byte	.LFB121
 1468 0014 1E000000 		.4byte	.LFE121
 1469 0018 00000000 		.4byte	.LFB122
 1470 001c 50000000 		.4byte	.LFE122
 1471 0020 00000000 		.4byte	0
 1472 0024 00000000 		.4byte	0
 1473              		.section	.debug_line,"",%progbits
 1474              	.Ldebug_line0:
 1475 0000 C0010000 		.section	.debug_str,"MS",%progbits,1
 1475      02006401 
 1475      00000201 
 1475      FB0E0D00 
 1475      01010101 
 1476              	.LASF30:
ARM GAS  /var/folders/ng/s8655sgx1ys_4lf9jzm2w6n00000gn/T//cczMVSN4.s 			page 27


 1477 0000 43434552 		.ascii	"CCER\000"
 1477      00
 1478              	.LASF54:
 1479 0005 5F70776D 		.ascii	"_pwmcfg4\000"
 1479      63666734 
 1479      00
 1480              	.LASF32:
 1481 000e 444D4152 		.ascii	"DMAR\000"
 1481      00
 1482              	.LASF55:
 1483 0013 5F70776D 		.ascii	"_pwmcfg8\000"
 1483      63666738 
 1483      00
 1484              	.LASF21:
 1485 001c 73746174 		.ascii	"state\000"
 1485      6500
 1486              	.LASF29:
 1487 0022 43434D52 		.ascii	"CCMR2\000"
 1487      3200
 1488              	.LASF33:
 1489 0028 43434D52 		.ascii	"CCMR3\000"
 1489      3300
 1490              	.LASF57:
 1491 002e 50574D44 		.ascii	"PWMD4\000"
 1491      3400
 1492              	.LASF3:
 1493 0034 73686F72 		.ascii	"short int\000"
 1493      7420696E 
 1493      7400
 1494              	.LASF39:
 1495 003e 70776D63 		.ascii	"pwmcnt_t\000"
 1495      6E745F74 
 1495      00
 1496              	.LASF58:
 1497 0047 50574D44 		.ascii	"PWMD8\000"
 1497      3800
 1498              	.LASF14:
 1499 004d 73697A65 		.ascii	"sizetype\000"
 1499      74797065 
 1499      00
 1500              	.LASF38:
 1501 0056 70776D63 		.ascii	"pwmchannel_t\000"
 1501      68616E6E 
 1501      656C5F74 
 1501      00
 1502              	.LASF40:
 1503 0063 6D6F6465 		.ascii	"mode\000"
 1503      00
 1504              	.LASF44:
 1505 0068 6368616E 		.ascii	"channels\000"
 1505      6E656C73 
 1505      00
 1506              	.LASF22:
 1507 0071 636F6E66 		.ascii	"config\000"
 1507      696700
 1508              	.LASF4:
 1509 0078 75696E74 		.ascii	"uint8_t\000"
ARM GAS  /var/folders/ng/s8655sgx1ys_4lf9jzm2w6n00000gn/T//cczMVSN4.s 			page 28


 1509      385F7400 
 1510              	.LASF62:
 1511 0080 2E2E2F41 		.ascii	"../AithonLibrary/servos.c\000"
 1511      6974686F 
 1511      6E4C6962 
 1511      72617279 
 1511      2F736572 
 1512              	.LASF64:
 1513 009a 70776D45 		.ascii	"pwmEnableChannel\000"
 1513      6E61626C 
 1513      65436861 
 1513      6E6E656C 
 1513      00
 1514              	.LASF47:
 1515 00ab 50574D43 		.ascii	"PWMConfig\000"
 1515      6F6E6669 
 1515      6700
 1516              	.LASF63:
 1517 00b5 2F557365 		.ascii	"/Users/jseng/aithon/DemoMode\000"
 1517      72732F6A 
 1517      73656E67 
 1517      2F616974 
 1517      686F6E2F 
 1518              	.LASF59:
 1519 00d2 70776D53 		.ascii	"pwmStart\000"
 1519      74617274 
 1519      00
 1520              	.LASF11:
 1521 00db 6C6F6E67 		.ascii	"long long int\000"
 1521      206C6F6E 
 1521      6720696E 
 1521      7400
 1522              	.LASF15:
 1523 00e9 63686172 		.ascii	"char\000"
 1523      00
 1524              	.LASF8:
 1525 00ee 6C6F6E67 		.ascii	"long int\000"
 1525      20696E74 
 1525      00
 1526              	.LASF24:
 1527 00f7 636C6F63 		.ascii	"clock\000"
 1527      6B00
 1528              	.LASF35:
 1529 00fd 43435236 		.ascii	"CCR6\000"
 1529      00
 1530              	.LASF23:
 1531 0102 70657269 		.ascii	"period\000"
 1531      6F6400
 1532              	.LASF50:
 1533 0109 73657276 		.ascii	"servo_disableAll\000"
 1533      6F5F6469 
 1533      7361626C 
 1533      65416C6C 
 1533      00
 1534              	.LASF28:
 1535 011a 43434D52 		.ascii	"CCMR1\000"
 1535      3100
ARM GAS  /var/folders/ng/s8655sgx1ys_4lf9jzm2w6n00000gn/T//cczMVSN4.s 			page 29


 1536              	.LASF26:
 1537 0120 534D4352 		.ascii	"SMCR\000"
 1537      00
 1538              	.LASF16:
 1539 0125 50574D5F 		.ascii	"PWM_UNINIT\000"
 1539      554E494E 
 1539      495400
 1540              	.LASF2:
 1541 0130 756E7369 		.ascii	"unsigned char\000"
 1541      676E6564 
 1541      20636861 
 1541      7200
 1542              	.LASF52:
 1543 013e 73657276 		.ascii	"servoNum\000"
 1543      6F4E756D 
 1543      00
 1544              	.LASF34:
 1545 0147 43435235 		.ascii	"CCR5\000"
 1545      00
 1546              	.LASF49:
 1547 014c 5F736572 		.ascii	"_servo_init\000"
 1547      766F5F69 
 1547      6E697400 
 1548              	.LASF1:
 1549 0158 7369676E 		.ascii	"signed char\000"
 1549      65642063 
 1549      68617200 
 1550              	.LASF12:
 1551 0164 6C6F6E67 		.ascii	"long long unsigned int\000"
 1551      206C6F6E 
 1551      6720756E 
 1551      7369676E 
 1551      65642069 
 1552              	.LASF9:
 1553 017b 75696E74 		.ascii	"uint32_t\000"
 1553      33325F74 
 1553      00
 1554              	.LASF0:
 1555 0184 756E7369 		.ascii	"unsigned int\000"
 1555      676E6564 
 1555      20696E74 
 1555      00
 1556              	.LASF5:
 1557 0191 75696E74 		.ascii	"uint16_t\000"
 1557      31365F74 
 1557      00
 1558              	.LASF20:
 1559 019a 50574D44 		.ascii	"PWMDriver\000"
 1559      72697665 
 1559      7200
 1560              	.LASF27:
 1561 01a4 44494552 		.ascii	"DIER\000"
 1561      00
 1562              	.LASF6:
 1563 01a9 73686F72 		.ascii	"short unsigned int\000"
 1563      7420756E 
 1563      7369676E 
ARM GAS  /var/folders/ng/s8655sgx1ys_4lf9jzm2w6n00000gn/T//cczMVSN4.s 			page 30


 1563      65642069 
 1563      6E7400
 1564              	.LASF36:
 1565 01bc 73746D33 		.ascii	"stm32_tim_t\000"
 1565      325F7469 
 1565      6D5F7400 
 1566              	.LASF31:
 1567 01c8 42445452 		.ascii	"BDTR\000"
 1567      00
 1568              	.LASF7:
 1569 01cd 696E7433 		.ascii	"int32_t\000"
 1569      325F7400 
 1570              	.LASF51:
 1571 01d5 73657276 		.ascii	"servo_set\000"
 1571      6F5F7365 
 1571      7400
 1572              	.LASF13:
 1573 01df 5F426F6F 		.ascii	"_Bool\000"
 1573      6C00
 1574              	.LASF61:
 1575 01e5 474E5520 		.ascii	"GNU C 4.7.4 20130913 (release) [ARM/embedded-4_7-br"
 1575      4320342E 
 1575      372E3420 
 1575      32303133 
 1575      30393133 
 1576 0218 616E6368 		.ascii	"anch revision 202601]\000"
 1576      20726576 
 1576      6973696F 
 1576      6E203230 
 1576      32363031 
 1577              	.LASF10:
 1578 022e 6C6F6E67 		.ascii	"long unsigned int\000"
 1578      20756E73 
 1578      69676E65 
 1578      6420696E 
 1578      7400
 1579              	.LASF19:
 1580 0240 70776D73 		.ascii	"pwmstate_t\000"
 1580      74617465 
 1580      5F7400
 1581              	.LASF18:
 1582 024b 50574D5F 		.ascii	"PWM_READY\000"
 1582      52454144 
 1582      5900
 1583              	.LASF17:
 1584 0255 50574D5F 		.ascii	"PWM_STOP\000"
 1584      53544F50 
 1584      00
 1585              	.LASF46:
 1586 025e 64696572 		.ascii	"dier\000"
 1586      00
 1587              	.LASF60:
 1588 0263 70776D53 		.ascii	"pwmStop\000"
 1588      746F7000 
 1589              	.LASF43:
 1590 026b 66726571 		.ascii	"frequency\000"
 1590      75656E63 
ARM GAS  /var/folders/ng/s8655sgx1ys_4lf9jzm2w6n00000gn/T//cczMVSN4.s 			page 31


 1590      7900
 1591              	.LASF42:
 1592 0275 50574D43 		.ascii	"PWMChannelConfig\000"
 1592      68616E6E 
 1592      656C436F 
 1592      6E666967 
 1592      00
 1593              	.LASF53:
 1594 0286 706F7369 		.ascii	"position\000"
 1594      74696F6E 
 1594      00
 1595              	.LASF37:
 1596 028f 70776D6D 		.ascii	"pwmmode_t\000"
 1596      6F64655F 
 1596      7400
 1597              	.LASF45:
 1598 0299 62647472 		.ascii	"bdtr\000"
 1598      00
 1599              	.LASF56:
 1600 029e 49544D5F 		.ascii	"ITM_RxBuffer\000"
 1600      52784275 
 1600      66666572 
 1600      00
 1601              	.LASF48:
 1602 02ab 73657276 		.ascii	"servo_enableAll\000"
 1602      6F5F656E 
 1602      61626C65 
 1602      416C6C00 
 1603              	.LASF25:
 1604 02bb 70776D63 		.ascii	"pwmcallback_t\000"
 1604      616C6C62 
 1604      61636B5F 
 1604      7400
 1605              	.LASF41:
 1606 02c9 63616C6C 		.ascii	"callback\000"
 1606      6261636B 
 1606      00
 1607              		.ident	"GCC: (GNU Tools for ARM Embedded Processors) 4.7.4 20130913 (release) [ARM/embedded-4_7-br
ARM GAS  /var/folders/ng/s8655sgx1ys_4lf9jzm2w6n00000gn/T//cczMVSN4.s 			page 32


DEFINED SYMBOLS
                            *ABS*:0000000000000000 servos.c
/var/folders/ng/s8655sgx1ys_4lf9jzm2w6n00000gn/T//cczMVSN4.s:20     .text.servo_enableAll:0000000000000000 $t
/var/folders/ng/s8655sgx1ys_4lf9jzm2w6n00000gn/T//cczMVSN4.s:26     .text.servo_enableAll:0000000000000000 servo_enableAll
/var/folders/ng/s8655sgx1ys_4lf9jzm2w6n00000gn/T//cczMVSN4.s:188    .rodata._pwmcfg4:0000000000000000 .LANCHOR0
/var/folders/ng/s8655sgx1ys_4lf9jzm2w6n00000gn/T//cczMVSN4.s:209    .rodata._pwmcfg8:0000000000000000 .LANCHOR1
/var/folders/ng/s8655sgx1ys_4lf9jzm2w6n00000gn/T//cczMVSN4.s:59     .text._servo_init:0000000000000000 $t
/var/folders/ng/s8655sgx1ys_4lf9jzm2w6n00000gn/T//cczMVSN4.s:65     .text._servo_init:0000000000000000 _servo_init
/var/folders/ng/s8655sgx1ys_4lf9jzm2w6n00000gn/T//cczMVSN4.s:80     .text.servo_disableAll:0000000000000000 $t
/var/folders/ng/s8655sgx1ys_4lf9jzm2w6n00000gn/T//cczMVSN4.s:86     .text.servo_disableAll:0000000000000000 servo_disableAll
/var/folders/ng/s8655sgx1ys_4lf9jzm2w6n00000gn/T//cczMVSN4.s:114    .text.servo_set:0000000000000000 $t
/var/folders/ng/s8655sgx1ys_4lf9jzm2w6n00000gn/T//cczMVSN4.s:120    .text.servo_set:0000000000000000 servo_set
/var/folders/ng/s8655sgx1ys_4lf9jzm2w6n00000gn/T//cczMVSN4.s:181    .text.servo_set:0000000000000048 $d
/var/folders/ng/s8655sgx1ys_4lf9jzm2w6n00000gn/T//cczMVSN4.s:187    .rodata._pwmcfg4:0000000000000000 $d
/var/folders/ng/s8655sgx1ys_4lf9jzm2w6n00000gn/T//cczMVSN4.s:191    .rodata._pwmcfg4:0000000000000000 _pwmcfg4
/var/folders/ng/s8655sgx1ys_4lf9jzm2w6n00000gn/T//cczMVSN4.s:208    .rodata._pwmcfg8:0000000000000000 $d
/var/folders/ng/s8655sgx1ys_4lf9jzm2w6n00000gn/T//cczMVSN4.s:212    .rodata._pwmcfg8:0000000000000000 _pwmcfg8
                     .debug_frame:0000000000000010 $d

UNDEFINED SYMBOLS
PWMD4
pwmStart
PWMD8
pwmStop
pwmEnableChannel
