ARM GAS  /var/folders/ng/s8655sgx1ys_4lf9jzm2w6n00000gn/T//cczMVSN4.s 			page 1


   1              		.syntax unified
   2              		.cpu cortex-m4
   3              		.eabi_attribute 27, 3
   4              		.fpu fpv4-sp-d16
   5              		.eabi_attribute 20, 1
   6              		.eabi_attribute 21, 1
   7              		.eabi_attribute 23, 3
   8              		.eabi_attribute 24, 1
   9              		.eabi_attribute 25, 1
  10              		.eabi_attribute 26, 1
  11              		.eabi_attribute 30, 2
  12              		.eabi_attribute 34, 1
  13              		.eabi_attribute 18, 4
  14              		.thumb
  15              		.file	"servos.c"
  16              		.text
  17              	.Ltext0:
  18              		.cfi_sections	.debug_frame
  19              		.section	.text.servo_enableAll,"ax",%progbits
  20              		.align	2
  21              		.p2align 4,,15
  22              		.global	servo_enableAll
  23              		.thumb
  24              		.thumb_func
  25              		.type	servo_enableAll, %function
  26              	servo_enableAll:
  27              	.LFB120:
  28              		.file 1 "../AithonLibrary/servos.c"
  29              		.loc 1 39 0
  30              		.cfi_startproc
  31              		@ args = 0, pretend = 0, frame = 0
  32              		@ frame_needed = 0, uses_anonymous_args = 0
  33 0000 08B5     		push	{r3, lr}
  34              	.LCFI0:
  35              		.cfi_def_cfa_offset 8
  36              		.cfi_offset 3, -8
  37              		.cfi_offset 14, -4
  38              		.loc 1 40 0
  39 0002 40F20000 		movw	r0, #:lower16:PWMD4
  40 0006 40F20001 		movw	r1, #:lower16:.LANCHOR0
  41 000a C0F20000 		movt	r0, #:upper16:PWMD4
  42 000e C0F20001 		movt	r1, #:upper16:.LANCHOR0
  43 0012 FFF7FEFF 		bl	pwmStart
  44              	.LVL0:
  45              		.loc 1 41 0
  46 0016 40F20000 		movw	r0, #:lower16:PWMD8
  47 001a 40F20001 		movw	r1, #:lower16:.LANCHOR1
  48 001e C0F20000 		movt	r0, #:upper16:PWMD8
  49 0022 C0F20001 		movt	r1, #:upper16:.LANCHOR1
  50              		.loc 1 42 0
  51 0026 BDE80840 		pop	{r3, lr}
  52              		.loc 1 41 0
  53 002a FFF7FEBF 		b	pwmStart
  54              	.LVL1:
  55              		.cfi_endproc
  56              	.LFE120:
  57              		.size	servo_enableAll, .-servo_enableAll
ARM GAS  /var/folders/ng/s8655sgx1ys_4lf9jzm2w6n00000gn/T//cczMVSN4.s 			page 2


  58              		.section	.text._servo_init,"ax",%progbits
  59              		.align	2
  60              		.p2align 4,,15
  61              		.global	_servo_init
  62              		.thumb
  63              		.thumb_func
  64              		.type	_servo_init, %function
  65              	_servo_init:
  66              	.LFB119:
  67              		.loc 1 34 0
  68              		.cfi_startproc
  69              		@ args = 0, pretend = 0, frame = 0
  70              		@ frame_needed = 0, uses_anonymous_args = 0
  71              		@ link register save eliminated.
  72              		.loc 1 36 0
  73              		.loc 1 35 0
  74 0000 FFF7FEBF 		b	servo_enableAll
  75              	.LVL2:
  76              		.cfi_endproc
  77              	.LFE119:
  78              		.size	_servo_init, .-_servo_init
  79 0004 AFF30080 		.section	.text.servo_disableAll,"ax",%progbits
  79      AFF30080 
  79      AFF30080 
  80              		.align	2
  81              		.p2align 4,,15
  82              		.global	servo_disableAll
  83              		.thumb
  84              		.thumb_func
  85              		.type	servo_disableAll, %function
  86              	servo_disableAll:
  87              	.LFB121:
  88              		.loc 1 45 0
  89              		.cfi_startproc
  90              		@ args = 0, pretend = 0, frame = 0
  91              		@ frame_needed = 0, uses_anonymous_args = 0
  92 0000 08B5     		push	{r3, lr}
  93              	.LCFI1:
  94              		.cfi_def_cfa_offset 8
  95              		.cfi_offset 3, -8
  96              		.cfi_offset 14, -4
  97              		.loc 1 46 0
  98 0002 40F20000 		movw	r0, #:lower16:PWMD4
  99 0006 C0F20000 		movt	r0, #:upper16:PWMD4
 100 000a FFF7FEFF 		bl	pwmStop
 101              	.LVL3:
 102              		.loc 1 47 0
 103 000e 40F20000 		movw	r0, #:lower16:PWMD8
 104 0012 C0F20000 		movt	r0, #:upper16:PWMD8
 105              		.loc 1 48 0
 106 0016 BDE80840 		pop	{r3, lr}
 107              		.loc 1 47 0
 108 001a FFF7FEBF 		b	pwmStop
 109              	.LVL4:
 110              		.cfi_endproc
 111              	.LFE121:
 112              		.size	servo_disableAll, .-servo_disableAll
ARM GAS  /var/folders/ng/s8655sgx1ys_4lf9jzm2w6n00000gn/T//cczMVSN4.s 			page 3


 113 001e 00BF     		.section	.text.servo_set,"ax",%progbits
 114              		.align	2
 115              		.p2align 4,,15
 116              		.global	servo_set
 117              		.thumb
 118              		.thumb_func
 119              		.type	servo_set, %function
 120              	servo_set:
 121              	.LFB122:
 122              		.loc 1 51 0
 123              		.cfi_startproc
 124              		@ args = 0, pretend = 0, frame = 0
 125              		@ frame_needed = 0, uses_anonymous_args = 0
 126              		@ link register save eliminated.
 127              	.LVL5:
 128              		.loc 1 59 0
 129 0000 0328     		cmp	r0, #3
 130              		.loc 1 51 0
 131 0002 10B4     		push	{r4}
 132              	.LCFI2:
 133              		.cfi_def_cfa_offset 4
 134              		.cfi_offset 4, -4
 135              		.loc 1 51 0
 136 0004 0346     		mov	r3, r0
 137              		.loc 1 59 0
 138 0006 11D9     		bls	.L8
 139              		.loc 1 63 0
 140 0008 0728     		cmp	r0, #7
 141 000a 01DD     		ble	.L9
 142              		.loc 1 67 0
 143 000c 10BC     		pop	{r4}
 144 000e 7047     		bx	lr
 145              	.L9:
 146              		.loc 1 65 0
 147 0010 01EB8101 		add	r1, r1, r1, lsl #2
 148              	.LVL6:
 149 0014 4C00     		lsls	r4, r1, #1
 150 0016 031F     		subs	r3, r0, #4
 151 0018 04F2EE24 		addw	r4, r4, #750
 152 001c 4FF6FE72 		movw	r2, #65534
 153 0020 0948     		ldr	r0, .L10
 154              	.LVL7:
 155 0022 D9B2     		uxtb	r1, r3
 156 0024 2240     		ands	r2, r2, r4
 157              		.loc 1 67 0
 158 0026 10BC     		pop	{r4}
 159              		.loc 1 65 0
 160 0028 FFF7FEBF 		b	pwmEnableChannel
 161              	.LVL8:
 162              	.L8:
 163              		.loc 1 61 0
 164 002c 01EB8100 		add	r0, r1, r1, lsl #2
 165              	.LVL9:
 166 0030 4200     		lsls	r2, r0, #1
 167 0032 02F2EE24 		addw	r4, r2, #750
 168 0036 0548     		ldr	r0, .L10+4
 169 0038 4FF6FE72 		movw	r2, #65534
ARM GAS  /var/folders/ng/s8655sgx1ys_4lf9jzm2w6n00000gn/T//cczMVSN4.s 			page 4


 170 003c D9B2     		uxtb	r1, r3
 171              	.LVL10:
 172 003e 2240     		ands	r2, r2, r4
 173              		.loc 1 67 0
 174 0040 10BC     		pop	{r4}
 175              		.loc 1 61 0
 176 0042 FFF7FEBF 		b	pwmEnableChannel
 177              	.LVL11:
 178              	.L11:
 179 0046 00BF     		.align	2
 180              	.L10:
 181 0048 00000000 		.word	PWMD8
 182 004c 00000000 		.word	PWMD4
 183              		.cfi_endproc
 184              	.LFE122:
 185              		.size	servo_set, .-servo_set
 186              		.section	.rodata._pwmcfg4,"a",%progbits
 187              		.align	2
 188              		.set	.LANCHOR0,. + 0
 189              		.type	_pwmcfg4, %object
 190              		.size	_pwmcfg4, 56
 191              	_pwmcfg4:
 192 0000 40420F00 		.word	1000000
 193 0004 204E     		.short	20000
 194 0006 0000     		.space	2
 195 0008 00000000 		.word	0
 196 000c 01000000 		.word	1
 197 0010 00000000 		.word	0
 198 0014 01000000 		.word	1
 199 0018 00000000 		.word	0
 200 001c 01000000 		.word	1
 201 0020 00000000 		.word	0
 202 0024 01000000 		.word	1
 203 0028 00000000 		.word	0
 204 002c 00000000 		.word	0
 205 0030 00000000 		.word	0
 206 0034 00000000 		.word	0
 207              		.section	.rodata._pwmcfg8,"a",%progbits
 208              		.align	2
 209              		.set	.LANCHOR1,. + 0
 210              		.type	_pwmcfg8, %object
 211              		.size	_pwmcfg8, 56
 212              	_pwmcfg8:
 213 0000 40420F00 		.word	1000000
 214 0004 204E     		.short	20000
 215 0006 0000     		.space	2
 216 0008 00000000 		.word	0
 217 000c 01000000 		.word	1
 218 0010 00000000 		.word	0
 219 0014 01000000 		.word	1
 220 0018 00000000 		.word	0
 221 001c 01000000 		.word	1
 222 0020 00000000 		.word	0
 223 0024 01000000 		.word	1
 224 0028 00000000 		.word	0
 225 002c 00000000 		.word	0
 226 0030 00000000 		.word	0
ARM GAS  /var/folders/ng/s8655sgx1ys_4lf9jzm2w6n00000gn/T//cczMVSN4.s 			page 5


 227 0034 00000000 		.word	0
 228              		.text
 229              	.Letext0:
 230              		.file 2 "/Users/jseng/gccarm/bin/../lib/gcc/arm-none-eabi/4.7.4/../../../../arm-none-eabi/include/
 231              		.file 3 "../AithonLibrary/ChibiOS/os/hal/include/pwm.h"
 232              		.file 4 "../AithonLibrary/ChibiOS/os/hal/platforms/STM32/TIMv1/pwm_lld.h"
 233              		.file 5 "../AithonLibrary/ChibiOS/os/hal/platforms/STM32/TIMv1/stm32_tim.h"
 234              		.file 6 "../AithonLibrary/ChibiOS/os/ports/common/ARMCMx/CMSIS/include/core_cm4.h"