ARM GAS  /var/folders/ng/s8655sgx1ys_4lf9jzm2w6n00000gn/T//ccWK92CN.s 			page 1


   1              		.syntax unified
   2              		.cpu cortex-m4
   3              		.eabi_attribute 27, 3
   4              		.fpu fpv4-sp-d16
   5              		.eabi_attribute 20, 1
   6              		.eabi_attribute 21, 1
   7              		.eabi_attribute 23, 3
   8              		.eabi_attribute 24, 1
   9              		.eabi_attribute 25, 1
  10              		.eabi_attribute 26, 1
  11              		.eabi_attribute 30, 2
  12              		.eabi_attribute 34, 1
  13              		.eabi_attribute 18, 4
  14              		.thumb
  15              		.file	"spi_lld.c"
  16              		.text
  17              	.Ltext0:
  18              		.cfi_sections	.debug_frame
  19              		.section	.text.spi_lld_serve_tx_interrupt,"ax",%progbits
  20              		.align	2
  21              		.p2align 4,,15
  22              		.thumb
  23              		.thumb_func
  24              		.type	spi_lld_serve_tx_interrupt, %function
  25              	spi_lld_serve_tx_interrupt:
  26              	.LFB119:
  27              		.file 1 "../AithonLibrary/ChibiOS/os/hal/platforms/STM32/SPIv1/spi_lld.c"
  28              		.loc 1 159 0
  29              		.cfi_startproc
  30              		@ args = 0, pretend = 0, frame = 0
  31              		@ frame_needed = 0, uses_anonymous_args = 0
  32              		@ link register save eliminated.
  33              	.LVL0:
  34              		.loc 1 164 0
  35 0000 11F00C0F 		tst	r1, #12
  36 0004 00D1     		bne	.L4
  37 0006 7047     		bx	lr
  38              	.L4:
  39              		.loc 1 171 0
  40              		.loc 1 165 0
  41 0008 FFF7FEBF 		b	port_halt
  42              	.LVL1:
  43              		.cfi_endproc
  44              	.LFE119:
  45              		.size	spi_lld_serve_tx_interrupt, .-spi_lld_serve_tx_interrupt
  46 000c AFF30080 		.section	.text.spi_lld_serve_rx_interrupt,"ax",%progbits
  47              		.align	2
  48              		.p2align 4,,15
  49              		.thumb
  50              		.thumb_func
  51              		.type	spi_lld_serve_rx_interrupt, %function
  52              	spi_lld_serve_rx_interrupt:
  53              	.LFB118:
  54              		.loc 1 133 0
  55              		.cfi_startproc
  56              		@ args = 0, pretend = 0, frame = 0
  57              		@ frame_needed = 0, uses_anonymous_args = 0
ARM GAS  /var/folders/ng/s8655sgx1ys_4lf9jzm2w6n00000gn/T//ccWK92CN.s 			page 2


  58              	.LVL2:
  59              		.loc 1 137 0
  60 0000 11F00C0F 		tst	r1, #12
  61              		.loc 1 133 0
  62 0004 38B5     		push	{r3, r4, r5, lr}
  63              	.LCFI0:
  64              		.cfi_def_cfa_offset 16
  65              		.cfi_offset 3, -16
  66              		.cfi_offset 4, -12
  67              		.cfi_offset 5, -8
  68              		.cfi_offset 14, -4
  69              		.loc 1 133 0
  70 0006 0446     		mov	r4, r0
  71              		.loc 1 137 0
  72 0008 39D1     		bne	.L20
  73              	.LVL3:
  74              	.L6:
  75              		.loc 1 145 0
  76 000a 606A     		ldr	r0, [r4, #36]
  77 000c 0268     		ldr	r2, [r0, #0]
  78 000e 1368     		ldr	r3, [r2, #0]
  79 0010 23F01F01 		bic	r1, r3, #31
  80 0014 1160     		str	r1, [r2, #0]
  81              	.L7:
  82              		.loc 1 145 0 is_stmt 0 discriminator 1
  83 0016 1568     		ldr	r5, [r2, #0]
  84 0018 E907     		lsls	r1, r5, #31
  85 001a FCD4     		bmi	.L7
  86              		.loc 1 145 0 discriminator 2
  87 001c 057A     		ldrb	r5, [r0, #8]	@ zero_extendqisi2
  88              		.loc 1 146 0 is_stmt 1 discriminator 2
  89 001e 216A     		ldr	r1, [r4, #32]
  90              		.loc 1 145 0 discriminator 2
  91 0020 4368     		ldr	r3, [r0, #4]
  92              		.loc 1 146 0 discriminator 2
  93 0022 0A68     		ldr	r2, [r1, #0]
  94              		.loc 1 145 0 discriminator 2
  95 0024 3D20     		movs	r0, #61
  96 0026 00FA05F0 		lsl	r0, r0, r5
  97 002a 1860     		str	r0, [r3, #0]
  98              		.loc 1 146 0 discriminator 2
  99 002c 1368     		ldr	r3, [r2, #0]
 100 002e 23F01F00 		bic	r0, r3, #31
 101 0032 1060     		str	r0, [r2, #0]
 102              	.L8:
 103              		.loc 1 146 0 is_stmt 0 discriminator 1
 104 0034 1368     		ldr	r3, [r2, #0]
 105 0036 DB07     		lsls	r3, r3, #31
 106 0038 FCD4     		bmi	.L8
 107              		.loc 1 150 0 is_stmt 1 discriminator 2
 108 003a 6368     		ldr	r3, [r4, #4]
 109              		.loc 1 146 0 discriminator 2
 110 003c 087A     		ldrb	r0, [r1, #8]	@ zero_extendqisi2
 111 003e 4A68     		ldr	r2, [r1, #4]
 112              		.loc 1 150 0 discriminator 2
 113 0040 1B68     		ldr	r3, [r3, #0]
 114              		.loc 1 146 0 discriminator 2
ARM GAS  /var/folders/ng/s8655sgx1ys_4lf9jzm2w6n00000gn/T//ccWK92CN.s 			page 3


 115 0042 3D21     		movs	r1, #61
 116 0044 01FA00F1 		lsl	r1, r1, r0
 117 0048 1160     		str	r1, [r2, #0]
 118              		.loc 1 150 0 discriminator 2
 119 004a ABB1     		cbz	r3, .L9
 120              		.loc 1 150 0 is_stmt 0 discriminator 1
 121 004c 0420     		movs	r0, #4
 122 004e 2070     		strb	r0, [r4, #0]
 123 0050 2046     		mov	r0, r4
 124 0052 9847     		blx	r3
 125              	.LVL4:
 126 0054 2278     		ldrb	r2, [r4, #0]	@ zero_extendqisi2
 127 0056 042A     		cmp	r2, #4
 128 0058 0ED0     		beq	.L9
 129              	.L10:
 130              	.LBB2:
 131              		.loc 1 150 0 discriminator 4
 132 005a 2023     		movs	r3, #32
 133              	.LVL5:
 134              	@ 150 "../AithonLibrary/ChibiOS/os/hal/platforms/STM32/SPIv1/spi_lld.c" 1
 135 005c 83F31188 		msr     BASEPRI, r3
 136              	@ 0 "" 2
 137              	.LVL6:
 138              		.thumb
 139              	.LBE2:
 140 0060 A168     		ldr	r1, [r4, #8]
 141 0062 29B1     		cbz	r1, .L11
 142              	.LVL7:
 143              	.LBB3:
 144              		.loc 1 150 0 discriminator 5
 145 0064 0022     		movs	r2, #0
 146 0066 A260     		str	r2, [r4, #8]
 147 0068 0846     		mov	r0, r1
 148 006a 4A62     		str	r2, [r1, #36]
 149 006c FFF7FEFF 		bl	chSchReadyI
 150              	.LVL8:
 151              	.L11:
 152              	.LBE3:
 153              	.LBB4:
 154              		.loc 1 150 0 discriminator 6
 155 0070 0023     		movs	r3, #0
 156              	.LVL9:
 157              	@ 150 "../AithonLibrary/ChibiOS/os/hal/platforms/STM32/SPIv1/spi_lld.c" 1
 158 0072 83F31188 		msr     BASEPRI, r3
 159              	@ 0 "" 2
 160              	.LVL10:
 161              		.thumb
 162 0076 38BD     		pop	{r3, r4, r5, pc}
 163              	.LVL11:
 164              	.L9:
 165              	.LBE4:
 166              		.loc 1 150 0 discriminator 2
 167 0078 0223     		movs	r3, #2
 168 007a 2370     		strb	r3, [r4, #0]
 169 007c EDE7     		b	.L10
 170              	.LVL12:
 171              	.L20:
ARM GAS  /var/folders/ng/s8655sgx1ys_4lf9jzm2w6n00000gn/T//ccWK92CN.s 			page 4


 172              		.loc 1 138 0 is_stmt 1
 173 007e FFF7FEFF 		bl	port_halt
 174              	.LVL13:
 175 0082 C2E7     		b	.L6
 176              		.cfi_endproc
 177              	.LFE118:
 178              		.size	spi_lld_serve_rx_interrupt, .-spi_lld_serve_rx_interrupt
 179 0084 AFF30080 		.section	.text.spi_lld_init,"ax",%progbits
 179      AFF30080 
 179      AFF30080 
 180              		.align	2
 181              		.p2align 4,,15
 182              		.global	spi_lld_init
 183              		.thumb
 184              		.thumb_func
 185              		.type	spi_lld_init, %function
 186              	spi_lld_init:
 187              	.LFB120:
 188              		.loc 1 186 0
 189              		.cfi_startproc
 190              		@ args = 0, pretend = 0, frame = 0
 191              		@ frame_needed = 0, uses_anonymous_args = 0
 192 0000 F8B5     		push	{r3, r4, r5, r6, r7, lr}
 193              	.LCFI1:
 194              		.cfi_def_cfa_offset 24
 195              		.cfi_offset 3, -24
 196              		.cfi_offset 4, -20
 197              		.cfi_offset 5, -16
 198              		.cfi_offset 6, -12
 199              		.cfi_offset 7, -8
 200              		.cfi_offset 14, -4
 201              		.loc 1 188 0
 202 0002 40F20003 		movw	r3, #:lower16:.LANCHOR0
 203              		.loc 1 191 0
 204 0006 40F20005 		movw	r5, #:lower16:.LANCHOR1
 205 000a C0F20005 		movt	r5, #:upper16:.LANCHOR1
 206              		.loc 1 188 0
 207 000e C0F20003 		movt	r3, #:upper16:.LANCHOR0
 208              		.loc 1 193 0
 209 0012 194E     		ldr	r6, .L22
 210              		.loc 1 188 0
 211 0014 4FF6FF72 		movw	r2, #65535
 212              		.loc 1 191 0
 213 0018 2846     		mov	r0, r5
 214              		.loc 1 227 0
 215 001a 40F20004 		movw	r4, #:lower16:.LANCHOR2
 216 001e C0F20004 		movt	r4, #:upper16:.LANCHOR2
 217              		.loc 1 188 0
 218 0022 1A80     		strh	r2, [r3, #0]	@ movhi
 219              		.loc 1 191 0
 220 0024 FFF7FEFF 		bl	spiObjectInit
 221              	.LVL14:
 222              		.loc 1 192 0
 223 0028 4FF44051 		mov	r1, #12288
 224              		.loc 1 195 0
 225 002c 1622     		movs	r2, #22
 226              		.loc 1 201 0
ARM GAS  /var/folders/ng/s8655sgx1ys_4lf9jzm2w6n00000gn/T//ccWK92CN.s 			page 5


 227 002e 4623     		movs	r3, #70
 228              		.loc 1 192 0
 229 0030 C4F20101 		movt	r1, 16385
 230              		.loc 1 195 0
 231 0034 C0F20162 		movt	r2, 1537
 232              		.loc 1 201 0
 233 0038 C0F20163 		movt	r3, 1537
 234              		.loc 1 194 0
 235 003c 06F12407 		add	r7, r6, #36
 236              		.loc 1 227 0
 237 0040 2046     		mov	r0, r4
 238              		.loc 1 192 0
 239 0042 E961     		str	r1, [r5, #28]
 240              		.loc 1 193 0
 241 0044 2E62     		str	r6, [r5, #32]
 242              		.loc 1 195 0
 243 0046 AA62     		str	r2, [r5, #40]
 244              		.loc 1 201 0
 245 0048 EB62     		str	r3, [r5, #44]
 246              		.loc 1 194 0
 247 004a 6F62     		str	r7, [r5, #36]
 248              		.loc 1 227 0
 249 004c FFF7FEFF 		bl	spiObjectInit
 250              	.LVL15:
 251              		.loc 1 228 0
 252 0050 4FF47051 		mov	r1, #15360
 253              		.loc 1 231 0
 254 0054 1622     		movs	r2, #22
 255              		.loc 1 237 0
 256 0056 4623     		movs	r3, #70
 257              		.loc 1 229 0
 258 0058 A6F14800 		sub	r0, r6, #72
 259              		.loc 1 228 0
 260 005c C4F20001 		movt	r1, 16384
 261              		.loc 1 230 0
 262 0060 0C3E     		subs	r6, r6, #12
 263              		.loc 1 231 0
 264 0062 C0F20102 		movt	r2, 1
 265              		.loc 1 237 0
 266 0066 C0F20103 		movt	r3, 1
 267              		.loc 1 228 0
 268 006a E161     		str	r1, [r4, #28]
 269              		.loc 1 229 0
 270 006c 2062     		str	r0, [r4, #32]
 271              		.loc 1 230 0
 272 006e 6662     		str	r6, [r4, #36]
 273              		.loc 1 231 0
 274 0070 A262     		str	r2, [r4, #40]
 275              		.loc 1 237 0
 276 0072 E362     		str	r3, [r4, #44]
 277 0074 F8BD     		pop	{r3, r4, r5, r6, r7, pc}
 278              	.L23:
 279 0076 00BF     		.align	2
 280              	.L22:
 281 0078 60000000 		.word	_stm32_dma_streams+96
 282              		.cfi_endproc
 283              	.LFE120:
ARM GAS  /var/folders/ng/s8655sgx1ys_4lf9jzm2w6n00000gn/T//ccWK92CN.s 			page 6


 284              		.size	spi_lld_init, .-spi_lld_init
 285 007c AFF30080 		.section	.text.spi_lld_start,"ax",%progbits
 286              		.align	2
 287              		.p2align 4,,15
 288              		.global	spi_lld_start
 289              		.thumb
 290              		.thumb_func
 291              		.type	spi_lld_start, %function
 292              	spi_lld_start:
 293              	.LFB121:
 294              		.loc 1 306 0
 295              		.cfi_startproc
 296              		@ args = 0, pretend = 0, frame = 0
 297              		@ frame_needed = 0, uses_anonymous_args = 0
 298              	.LVL16:
 299              		.loc 1 309 0
 300 0000 0378     		ldrb	r3, [r0, #0]	@ zero_extendqisi2
 301 0002 012B     		cmp	r3, #1
 302              		.loc 1 306 0
 303 0004 10B5     		push	{r4, lr}
 304              	.LCFI2:
 305              		.cfi_def_cfa_offset 8
 306              		.cfi_offset 4, -8
 307              		.cfi_offset 14, -4
 308              		.loc 1 306 0
 309 0006 0446     		mov	r4, r0
 310              		.loc 1 309 0
 311 0008 27D0     		beq	.L31
 312 000a C369     		ldr	r3, [r0, #28]
 313              	.LVL17:
 314              	.L25:
 315              		.loc 1 413 0
 316 000c 6068     		ldr	r0, [r4, #4]
 317 000e 4289     		ldrh	r2, [r0, #10]
 318              		.loc 1 416 0
 319 0010 A06A     		ldr	r0, [r4, #40]
 320              		.loc 1 413 0
 321 0012 02F40061 		and	r1, r2, #2048
 322 0016 89B2     		uxth	r1, r1
 323 0018 B9B1     		cbz	r1, .L32
 324              		.loc 1 424 0
 325 001a E16A     		ldr	r1, [r4, #44]
 326              		.loc 1 422 0
 327 001c 20F4F040 		bic	r0, r0, #30720
 328              		.loc 1 424 0
 329 0020 21F4F041 		bic	r1, r1, #30720
 330              		.loc 1 423 0
 331 0024 40F42050 		orr	r0, r0, #10240
 332              		.loc 1 425 0
 333 0028 41F42051 		orr	r1, r1, #10240
 334              		.loc 1 422 0
 335 002c A062     		str	r0, [r4, #40]
 336              		.loc 1 424 0
 337 002e E162     		str	r1, [r4, #44]
 338              	.L29:
 339              		.loc 1 429 0
 340 0030 42F44172 		orr	r2, r2, #772
ARM GAS  /var/folders/ng/s8655sgx1ys_4lf9jzm2w6n00000gn/T//ccWK92CN.s 			page 7


 341              		.loc 1 428 0
 342 0034 0020     		movs	r0, #0
 343              		.loc 1 431 0
 344 0036 0721     		movs	r1, #7
 345              		.loc 1 428 0
 346 0038 1880     		strh	r0, [r3, #0]	@ movhi
 347              		.loc 1 429 0
 348 003a 1A80     		strh	r2, [r3, #0]	@ movhi
 349              		.loc 1 431 0
 350 003c 9980     		strh	r1, [r3, #4]	@ movhi
 351              		.loc 1 432 0
 352 003e 1A88     		ldrh	r2, [r3, #0]
 353 0040 90B2     		uxth	r0, r2
 354 0042 40F04001 		orr	r1, r0, #64
 355 0046 1980     		strh	r1, [r3, #0]	@ movhi
 356 0048 10BD     		pop	{r4, pc}
 357              	.L32:
 358              		.loc 1 418 0
 359 004a E16A     		ldr	r1, [r4, #44]
 360              		.loc 1 416 0
 361 004c 20F4F040 		bic	r0, r0, #30720
 362              		.loc 1 418 0
 363 0050 21F4F041 		bic	r1, r1, #30720
 364              		.loc 1 415 0
 365 0054 A062     		str	r0, [r4, #40]
 366              		.loc 1 417 0
 367 0056 E162     		str	r1, [r4, #44]
 368 0058 EAE7     		b	.L29
 369              	.LVL18:
 370              	.L31:
 371              		.loc 1 311 0
 372 005a 1D48     		ldr	r0, .L35
 373              	.LVL19:
 374 005c 8442     		cmp	r4, r0
 375 005e 0CD0     		beq	.L33
 376              		.loc 1 343 0
 377 0060 1C49     		ldr	r1, .L35+4
 378 0062 8C42     		cmp	r4, r1
 379 0064 1ED0     		beq	.L34
 380              	.L27:
 381              		.loc 1 408 0
 382 0066 206A     		ldr	r0, [r4, #32]
 383              		.loc 1 409 0
 384 0068 616A     		ldr	r1, [r4, #36]
 385              		.loc 1 408 0
 386 006a E369     		ldr	r3, [r4, #28]
 387 006c 0068     		ldr	r0, [r0, #0]
 388              		.loc 1 409 0
 389 006e 0968     		ldr	r1, [r1, #0]
 390              		.loc 1 408 0
 391 0070 03F10C02 		add	r2, r3, #12
 392 0074 8260     		str	r2, [r0, #8]
 393              		.loc 1 409 0
 394 0076 8A60     		str	r2, [r1, #8]
 395 0078 C8E7     		b	.L25
 396              	.L33:
 397              	.LBB5:
ARM GAS  /var/folders/ng/s8655sgx1ys_4lf9jzm2w6n00000gn/T//ccWK92CN.s 			page 8


 398              		.loc 1 313 0
 399 007a 0A21     		movs	r1, #10
 400 007c 164A     		ldr	r2, .L35+8
 401 007e 206A     		ldr	r0, [r4, #32]
 402 0080 2346     		mov	r3, r4
 403 0082 FFF7FEFF 		bl	dmaStreamAllocate
 404              	.LVL20:
 405              		.loc 1 318 0
 406 0086 154A     		ldr	r2, .L35+12
 407 0088 606A     		ldr	r0, [r4, #36]
 408 008a 0A21     		movs	r1, #10
 409 008c 2346     		mov	r3, r4
 410 008e FFF7FEFF 		bl	dmaStreamAllocate
 411              	.LVL21:
 412              		.loc 1 323 0
 413 0092 4FF46051 		mov	r1, #14336
 414 0096 C4F20201 		movt	r1, 16386
 415 009a 4B6C     		ldr	r3, [r1, #68]
 416 009c 43F48052 		orr	r2, r3, #4096
 417 00a0 4A64     		str	r2, [r1, #68]
 418 00a2 E0E7     		b	.L27
 419              	.L34:
 420              	.LBE5:
 421              	.LBB6:
 422              		.loc 1 345 0
 423 00a4 0A21     		movs	r1, #10
 424 00a6 0C4A     		ldr	r2, .L35+8
 425 00a8 206A     		ldr	r0, [r4, #32]
 426 00aa 2346     		mov	r3, r4
 427 00ac FFF7FEFF 		bl	dmaStreamAllocate
 428              	.LVL22:
 429              		.loc 1 350 0
 430 00b0 0A4A     		ldr	r2, .L35+12
 431 00b2 606A     		ldr	r0, [r4, #36]
 432 00b4 2346     		mov	r3, r4
 433 00b6 0A21     		movs	r1, #10
 434 00b8 FFF7FEFF 		bl	dmaStreamAllocate
 435              	.LVL23:
 436              		.loc 1 355 0
 437 00bc 4FF46053 		mov	r3, #14336
 438 00c0 C4F20203 		movt	r3, 16386
 439 00c4 1A6C     		ldr	r2, [r3, #64]
 440 00c6 42F40040 		orr	r0, r2, #32768
 441 00ca 1864     		str	r0, [r3, #64]
 442 00cc CBE7     		b	.L27
 443              	.L36:
 444 00ce 00BF     		.align	2
 445              	.L35:
 446 00d0 00000000 		.word	.LANCHOR1
 447 00d4 00000000 		.word	.LANCHOR2
 448 00d8 00000000 		.word	spi_lld_serve_rx_interrupt
 449 00dc 00000000 		.word	spi_lld_serve_tx_interrupt
 450              	.LBE6:
 451              		.cfi_endproc
 452              	.LFE121:
 453              		.size	spi_lld_start, .-spi_lld_start
 454              		.section	.text.spi_lld_stop,"ax",%progbits
ARM GAS  /var/folders/ng/s8655sgx1ys_4lf9jzm2w6n00000gn/T//ccWK92CN.s 			page 9


 455              		.align	2
 456              		.p2align 4,,15
 457              		.global	spi_lld_stop
 458              		.thumb
 459              		.thumb_func
 460              		.type	spi_lld_stop, %function
 461              	spi_lld_stop:
 462              	.LFB122:
 463              		.loc 1 442 0
 464              		.cfi_startproc
 465              		@ args = 0, pretend = 0, frame = 0
 466              		@ frame_needed = 0, uses_anonymous_args = 0
 467              	.LVL24:
 468              		.loc 1 445 0
 469 0000 0378     		ldrb	r3, [r0, #0]	@ zero_extendqisi2
 470 0002 022B     		cmp	r3, #2
 471              		.loc 1 442 0
 472 0004 10B5     		push	{r4, lr}
 473              	.LCFI3:
 474              		.cfi_def_cfa_offset 8
 475              		.cfi_offset 4, -8
 476              		.cfi_offset 14, -4
 477              		.loc 1 442 0
 478 0006 0446     		mov	r4, r0
 479              		.loc 1 445 0
 480 0008 00D0     		beq	.L42
 481              	.LVL25:
 482              	.L37:
 483 000a 10BD     		pop	{r4, pc}
 484              	.LVL26:
 485              	.L42:
 486              		.loc 1 448 0
 487 000c C169     		ldr	r1, [r0, #28]
 488              		.loc 1 450 0
 489 000e 006A     		ldr	r0, [r0, #32]
 490              	.LVL27:
 491              		.loc 1 448 0
 492 0010 0022     		movs	r2, #0
 493 0012 0A80     		strh	r2, [r1, #0]	@ movhi
 494              		.loc 1 449 0
 495 0014 8A80     		strh	r2, [r1, #4]	@ movhi
 496              		.loc 1 450 0
 497 0016 FFF7FEFF 		bl	dmaStreamRelease
 498              	.LVL28:
 499              		.loc 1 451 0
 500 001a 606A     		ldr	r0, [r4, #36]
 501 001c FFF7FEFF 		bl	dmaStreamRelease
 502              	.LVL29:
 503              		.loc 1 454 0
 504 0020 0B48     		ldr	r0, .L44
 505 0022 8442     		cmp	r4, r0
 506 0024 0BD0     		beq	.L43
 507              		.loc 1 462 0
 508 0026 0B4B     		ldr	r3, .L44+4
 509 0028 9C42     		cmp	r4, r3
 510 002a EED1     		bne	.L37
 511              		.loc 1 463 0
ARM GAS  /var/folders/ng/s8655sgx1ys_4lf9jzm2w6n00000gn/T//ccWK92CN.s 			page 10


 512 002c 4FF46051 		mov	r1, #14336
 513 0030 C4F20201 		movt	r1, 16386
 514 0034 0A6C     		ldr	r2, [r1, #64]
 515 0036 22F40040 		bic	r0, r2, #32768
 516 003a 0864     		str	r0, [r1, #64]
 517 003c E5E7     		b	.L37
 518              	.L43:
 519              		.loc 1 455 0
 520 003e 4FF46053 		mov	r3, #14336
 521 0042 C4F20203 		movt	r3, 16386
 522 0046 596C     		ldr	r1, [r3, #68]
 523 0048 21F48052 		bic	r2, r1, #4096
 524 004c 5A64     		str	r2, [r3, #68]
 525 004e 10BD     		pop	{r4, pc}
 526              	.L45:
 527              		.align	2
 528              	.L44:
 529 0050 00000000 		.word	.LANCHOR1
 530 0054 00000000 		.word	.LANCHOR2
 531              		.cfi_endproc
 532              	.LFE122:
 533              		.size	spi_lld_stop, .-spi_lld_stop
 534 0058 AFF30080 		.section	.text.spi_lld_select,"ax",%progbits
 534      AFF30080 
 535              		.align	2
 536              		.p2align 4,,15
 537              		.global	spi_lld_select
 538              		.thumb
 539              		.thumb_func
 540              		.type	spi_lld_select, %function
 541              	spi_lld_select:
 542              	.LFB123:
 543              		.loc 1 487 0
 544              		.cfi_startproc
 545              		@ args = 0, pretend = 0, frame = 0
 546              		@ frame_needed = 0, uses_anonymous_args = 0
 547              		@ link register save eliminated.
 548              	.LVL30:
 549              		.loc 1 489 0
 550 0000 4368     		ldr	r3, [r0, #4]
 551 0002 1A89     		ldrh	r2, [r3, #8]
 552 0004 5868     		ldr	r0, [r3, #4]
 553              	.LVL31:
 554 0006 0121     		movs	r1, #1
 555 0008 01FA02F3 		lsl	r3, r1, r2
 556 000c 9AB2     		uxth	r2, r3
 557 000e 4283     		strh	r2, [r0, #26]	@ movhi
 558 0010 7047     		bx	lr
 559              		.cfi_endproc
 560              	.LFE123:
 561              		.size	spi_lld_select, .-spi_lld_select
 562 0012 00BFAFF3 		.section	.text.spi_lld_unselect,"ax",%progbits
 562      0080AFF3 
 562      0080AFF3 
 562      0080
 563              		.align	2
 564              		.p2align 4,,15
ARM GAS  /var/folders/ng/s8655sgx1ys_4lf9jzm2w6n00000gn/T//ccWK92CN.s 			page 11


 565              		.global	spi_lld_unselect
 566              		.thumb
 567              		.thumb_func
 568              		.type	spi_lld_unselect, %function
 569              	spi_lld_unselect:
 570              	.LFB124:
 571              		.loc 1 500 0
 572              		.cfi_startproc
 573              		@ args = 0, pretend = 0, frame = 0
 574              		@ frame_needed = 0, uses_anonymous_args = 0
 575              		@ link register save eliminated.
 576              	.LVL32:
 577              		.loc 1 502 0
 578 0000 4368     		ldr	r3, [r0, #4]
 579 0002 1A89     		ldrh	r2, [r3, #8]
 580 0004 5868     		ldr	r0, [r3, #4]
 581              	.LVL33:
 582 0006 0121     		movs	r1, #1
 583 0008 01FA02F3 		lsl	r3, r1, r2
 584 000c 9AB2     		uxth	r2, r3
 585 000e 0283     		strh	r2, [r0, #24]	@ movhi
 586 0010 7047     		bx	lr
 587              		.cfi_endproc
 588              	.LFE124:
 589              		.size	spi_lld_unselect, .-spi_lld_unselect
 590 0012 00BFAFF3 		.section	.text.spi_lld_ignore,"ax",%progbits
 590      0080AFF3 
 590      0080AFF3 
 590      0080
 591              		.align	2
 592              		.p2align 4,,15
 593              		.global	spi_lld_ignore
 594              		.thumb
 595              		.thumb_func
 596              		.type	spi_lld_ignore, %function
 597              	spi_lld_ignore:
 598              	.LFB125:
 599              		.loc 1 516 0
 600              		.cfi_startproc
 601              		@ args = 0, pretend = 0, frame = 0
 602              		@ frame_needed = 0, uses_anonymous_args = 0
 603              		@ link register save eliminated.
 604              	.LVL34:
 605              		.loc 1 518 0
 606 0000 026A     		ldr	r2, [r0, #32]
 607              		.loc 1 522 0
 608 0002 436A     		ldr	r3, [r0, #36]
 609              		.loc 1 518 0
 610 0004 1268     		ldr	r2, [r2, #0]
 611              		.loc 1 522 0
 612 0006 1B68     		ldr	r3, [r3, #0]
 613              		.loc 1 516 0
 614 0008 70B4     		push	{r4, r5, r6}
 615              	.LCFI4:
 616              		.cfi_def_cfa_offset 12
 617              		.cfi_offset 4, -12
 618              		.cfi_offset 5, -8
ARM GAS  /var/folders/ng/s8655sgx1ys_4lf9jzm2w6n00000gn/T//ccWK92CN.s 			page 12


 619              		.cfi_offset 6, -4
 620              		.loc 1 520 0
 621 000a 866A     		ldr	r6, [r0, #40]
 622              		.loc 1 524 0
 623 000c C56A     		ldr	r5, [r0, #44]
 624              		.loc 1 518 0
 625 000e 40F20004 		movw	r4, #:lower16:.LANCHOR3
 626              		.loc 1 522 0
 627 0012 40F20000 		movw	r0, #:lower16:.LANCHOR0
 628              	.LVL35:
 629 0016 C0F20000 		movt	r0, #:upper16:.LANCHOR0
 630              		.loc 1 518 0
 631 001a C0F20004 		movt	r4, #:upper16:.LANCHOR3
 632 001e D460     		str	r4, [r2, #12]
 633              		.loc 1 519 0
 634 0020 5160     		str	r1, [r2, #4]
 635              		.loc 1 520 0
 636 0022 1660     		str	r6, [r2, #0]
 637              		.loc 1 522 0
 638 0024 D860     		str	r0, [r3, #12]
 639              		.loc 1 523 0
 640 0026 5960     		str	r1, [r3, #4]
 641              		.loc 1 524 0
 642 0028 1D60     		str	r5, [r3, #0]
 643              		.loc 1 526 0
 644 002a 1168     		ldr	r1, [r2, #0]
 645              	.LVL36:
 646 002c 41F00100 		orr	r0, r1, #1
 647 0030 1060     		str	r0, [r2, #0]
 648              		.loc 1 527 0
 649 0032 1A68     		ldr	r2, [r3, #0]
 650              	.LVL37:
 651 0034 42F00101 		orr	r1, r2, #1
 652 0038 1960     		str	r1, [r3, #0]
 653              		.loc 1 528 0
 654 003a 70BC     		pop	{r4, r5, r6}
 655 003c 7047     		bx	lr
 656              		.cfi_endproc
 657              	.LFE125:
 658              		.size	spi_lld_ignore, .-spi_lld_ignore
 659 003e 00BF     		.section	.text.spi_lld_exchange,"ax",%progbits
 660              		.align	2
 661              		.p2align 4,,15
 662              		.global	spi_lld_exchange
 663              		.thumb
 664              		.thumb_func
 665              		.type	spi_lld_exchange, %function
 666              	spi_lld_exchange:
 667              	.LFB126:
 668              		.loc 1 546 0
 669              		.cfi_startproc
 670              		@ args = 0, pretend = 0, frame = 0
 671              		@ frame_needed = 0, uses_anonymous_args = 0
 672              		@ link register save eliminated.
 673              	.LVL38:
 674 0000 F0B4     		push	{r4, r5, r6, r7}
 675              	.LCFI5:
ARM GAS  /var/folders/ng/s8655sgx1ys_4lf9jzm2w6n00000gn/T//ccWK92CN.s 			page 13


 676              		.cfi_def_cfa_offset 16
 677              		.cfi_offset 4, -16
 678              		.cfi_offset 5, -12
 679              		.cfi_offset 6, -8
 680              		.cfi_offset 7, -4
 681              		.loc 1 548 0
 682 0002 046A     		ldr	r4, [r0, #32]
 683              		.loc 1 552 0
 684 0004 476A     		ldr	r7, [r0, #36]
 685              		.loc 1 550 0
 686 0006 866A     		ldr	r6, [r0, #40]
 687              		.loc 1 554 0
 688 0008 C56A     		ldr	r5, [r0, #44]
 689              		.loc 1 548 0
 690 000a 2468     		ldr	r4, [r4, #0]
 691              		.loc 1 552 0
 692 000c 3868     		ldr	r0, [r7, #0]
 693              	.LVL39:
 694              		.loc 1 548 0
 695 000e E360     		str	r3, [r4, #12]
 696              		.loc 1 550 0
 697 0010 46F48066 		orr	r6, r6, #1024
 698              		.loc 1 554 0
 699 0014 45F48065 		orr	r5, r5, #1024
 700              		.loc 1 549 0
 701 0018 6160     		str	r1, [r4, #4]
 702              		.loc 1 550 0
 703 001a 2660     		str	r6, [r4, #0]
 704              		.loc 1 552 0
 705 001c C260     		str	r2, [r0, #12]
 706              		.loc 1 553 0
 707 001e 4160     		str	r1, [r0, #4]
 708              		.loc 1 554 0
 709 0020 0560     		str	r5, [r0, #0]
 710              		.loc 1 556 0
 711 0022 2368     		ldr	r3, [r4, #0]
 712              	.LVL40:
 713 0024 43F00101 		orr	r1, r3, #1
 714              	.LVL41:
 715 0028 2160     		str	r1, [r4, #0]
 716              		.loc 1 557 0
 717 002a 0268     		ldr	r2, [r0, #0]
 718              	.LVL42:
 719 002c 42F00103 		orr	r3, r2, #1
 720 0030 0360     		str	r3, [r0, #0]
 721              		.loc 1 558 0
 722 0032 F0BC     		pop	{r4, r5, r6, r7}
 723 0034 7047     		bx	lr
 724              		.cfi_endproc
 725              	.LFE126:
 726              		.size	spi_lld_exchange, .-spi_lld_exchange
 727 0036 00BFAFF3 		.section	.text.spi_lld_send,"ax",%progbits
 727      0080AFF3 
 727      0080
 728              		.align	2
 729              		.p2align 4,,15
 730              		.global	spi_lld_send
ARM GAS  /var/folders/ng/s8655sgx1ys_4lf9jzm2w6n00000gn/T//ccWK92CN.s 			page 14


 731              		.thumb
 732              		.thumb_func
 733              		.type	spi_lld_send, %function
 734              	spi_lld_send:
 735              	.LFB127:
 736              		.loc 1 573 0
 737              		.cfi_startproc
 738              		@ args = 0, pretend = 0, frame = 0
 739              		@ frame_needed = 0, uses_anonymous_args = 0
 740              		@ link register save eliminated.
 741              	.LVL43:
 742 0000 F0B4     		push	{r4, r5, r6, r7}
 743              	.LCFI6:
 744              		.cfi_def_cfa_offset 16
 745              		.cfi_offset 4, -16
 746              		.cfi_offset 5, -12
 747              		.cfi_offset 6, -8
 748              		.cfi_offset 7, -4
 749              		.loc 1 575 0
 750 0002 036A     		ldr	r3, [r0, #32]
 751              		.loc 1 579 0
 752 0004 476A     		ldr	r7, [r0, #36]
 753              		.loc 1 581 0
 754 0006 C66A     		ldr	r6, [r0, #44]
 755              		.loc 1 575 0
 756 0008 1C68     		ldr	r4, [r3, #0]
 757              		.loc 1 577 0
 758 000a 806A     		ldr	r0, [r0, #40]
 759              	.LVL44:
 760              		.loc 1 579 0
 761 000c 3B68     		ldr	r3, [r7, #0]
 762              		.loc 1 575 0
 763 000e 40F20005 		movw	r5, #:lower16:.LANCHOR3
 764 0012 C0F20005 		movt	r5, #:upper16:.LANCHOR3
 765              		.loc 1 581 0
 766 0016 46F48066 		orr	r6, r6, #1024
 767              		.loc 1 575 0
 768 001a E560     		str	r5, [r4, #12]
 769              		.loc 1 576 0
 770 001c 6160     		str	r1, [r4, #4]
 771              		.loc 1 577 0
 772 001e 2060     		str	r0, [r4, #0]
 773              		.loc 1 579 0
 774 0020 DA60     		str	r2, [r3, #12]
 775              		.loc 1 580 0
 776 0022 5960     		str	r1, [r3, #4]
 777              		.loc 1 581 0
 778 0024 1E60     		str	r6, [r3, #0]
 779              		.loc 1 583 0
 780 0026 2268     		ldr	r2, [r4, #0]
 781              	.LVL45:
 782 0028 42F00101 		orr	r1, r2, #1
 783              	.LVL46:
 784 002c 2160     		str	r1, [r4, #0]
 785              		.loc 1 584 0
 786 002e 1868     		ldr	r0, [r3, #0]
 787 0030 40F00102 		orr	r2, r0, #1
ARM GAS  /var/folders/ng/s8655sgx1ys_4lf9jzm2w6n00000gn/T//ccWK92CN.s 			page 15


 788 0034 1A60     		str	r2, [r3, #0]
 789              		.loc 1 585 0
 790 0036 F0BC     		pop	{r4, r5, r6, r7}
 791 0038 7047     		bx	lr
 792              		.cfi_endproc
 793              	.LFE127:
 794              		.size	spi_lld_send, .-spi_lld_send
 795 003a 00BFAFF3 		.section	.text.spi_lld_receive,"ax",%progbits
 795      0080
 796              		.align	2
 797              		.p2align 4,,15
 798              		.global	spi_lld_receive
 799              		.thumb
 800              		.thumb_func
 801              		.type	spi_lld_receive, %function
 802              	spi_lld_receive:
 803              	.LFB128:
 804              		.loc 1 600 0
 805              		.cfi_startproc
 806              		@ args = 0, pretend = 0, frame = 0
 807              		@ frame_needed = 0, uses_anonymous_args = 0
 808              		@ link register save eliminated.
 809              	.LVL47:
 810 0000 70B4     		push	{r4, r5, r6}
 811              	.LCFI7:
 812              		.cfi_def_cfa_offset 12
 813              		.cfi_offset 4, -12
 814              		.cfi_offset 5, -8
 815              		.cfi_offset 6, -4
 816              		.loc 1 606 0
 817 0002 436A     		ldr	r3, [r0, #36]
 818              		.loc 1 602 0
 819 0004 046A     		ldr	r4, [r0, #32]
 820              		.loc 1 604 0
 821 0006 866A     		ldr	r6, [r0, #40]
 822              		.loc 1 602 0
 823 0008 2468     		ldr	r4, [r4, #0]
 824              		.loc 1 606 0
 825 000a 1B68     		ldr	r3, [r3, #0]
 826              		.loc 1 608 0
 827 000c C06A     		ldr	r0, [r0, #44]
 828              	.LVL48:
 829              		.loc 1 602 0
 830 000e E260     		str	r2, [r4, #12]
 831              		.loc 1 606 0
 832 0010 40F20005 		movw	r5, #:lower16:.LANCHOR0
 833              		.loc 1 604 0
 834 0014 46F48066 		orr	r6, r6, #1024
 835              		.loc 1 606 0
 836 0018 C0F20005 		movt	r5, #:upper16:.LANCHOR0
 837              		.loc 1 603 0
 838 001c 6160     		str	r1, [r4, #4]
 839              		.loc 1 604 0
 840 001e 2660     		str	r6, [r4, #0]
 841              		.loc 1 606 0
 842 0020 DD60     		str	r5, [r3, #12]
 843              		.loc 1 607 0
ARM GAS  /var/folders/ng/s8655sgx1ys_4lf9jzm2w6n00000gn/T//ccWK92CN.s 			page 16


 844 0022 5960     		str	r1, [r3, #4]
 845              		.loc 1 608 0
 846 0024 1860     		str	r0, [r3, #0]
 847              		.loc 1 610 0
 848 0026 2268     		ldr	r2, [r4, #0]
 849              	.LVL49:
 850 0028 42F00101 		orr	r1, r2, #1
 851              	.LVL50:
 852 002c 2160     		str	r1, [r4, #0]
 853              		.loc 1 611 0
 854 002e 1868     		ldr	r0, [r3, #0]
 855 0030 40F00102 		orr	r2, r0, #1
 856 0034 1A60     		str	r2, [r3, #0]
 857              		.loc 1 612 0
 858 0036 70BC     		pop	{r4, r5, r6}
 859 0038 7047     		bx	lr
 860              		.cfi_endproc
 861              	.LFE128:
 862              		.size	spi_lld_receive, .-spi_lld_receive
 863 003a 00BFAFF3 		.section	.text.spi_lld_polled_exchange,"ax",%progbits
 863      0080
 864              		.align	2
 865              		.p2align 4,,15
 866              		.global	spi_lld_polled_exchange
 867              		.thumb
 868              		.thumb_func
 869              		.type	spi_lld_polled_exchange, %function
 870              	spi_lld_polled_exchange:
 871              	.LFB129:
 872              		.loc 1 626 0
 873              		.cfi_startproc
 874              		@ args = 0, pretend = 0, frame = 0
 875              		@ frame_needed = 0, uses_anonymous_args = 0
 876              		@ link register save eliminated.
 877              	.LVL51:
 878              		.loc 1 628 0
 879 0000 C269     		ldr	r2, [r0, #28]
 880 0002 9181     		strh	r1, [r2, #12]	@ movhi
 881              	.LVL52:
 882              	.L53:
 883              		.loc 1 629 0 discriminator 1
 884 0004 1389     		ldrh	r3, [r2, #8]
 885 0006 D807     		lsls	r0, r3, #31
 886 0008 FCD5     		bpl	.L53
 887              		.loc 1 631 0
 888 000a 9089     		ldrh	r0, [r2, #12]
 889              		.loc 1 632 0
 890 000c 80B2     		uxth	r0, r0
 891 000e 7047     		bx	lr
 892              		.cfi_endproc
 893              	.LFE129:
 894              		.size	spi_lld_polled_exchange, .-spi_lld_polled_exchange
 895              		.global	SPID3
 896              		.global	SPID1
 897              		.section	.bss.dummytx,"aw",%nobits
 898              		.align	1
 899              		.set	.LANCHOR0,. + 0
ARM GAS  /var/folders/ng/s8655sgx1ys_4lf9jzm2w6n00000gn/T//ccWK92CN.s 			page 17


 900              		.type	dummytx, %object
 901              		.size	dummytx, 2
 902              	dummytx:
 903 0000 0000     		.space	2
 904              		.section	.bss.SPID1,"aw",%nobits
 905              		.align	2
 906              		.set	.LANCHOR1,. + 0
 907              		.type	SPID1, %object
 908              		.size	SPID1, 48
 909              	SPID1:
 910 0000 00000000 		.space	48
 910      00000000 
 910      00000000 
 910      00000000 
 910      00000000 
 911              		.section	.bss.SPID3,"aw",%nobits
 912              		.align	2
 913              		.set	.LANCHOR2,. + 0
 914              		.type	SPID3, %object
 915              		.size	SPID3, 48
 916              	SPID3:
 917 0000 00000000 		.space	48
 917      00000000 
 917      00000000 
 917      00000000 
 917      00000000 
 918              		.section	.bss.dummyrx,"aw",%nobits
 919              		.align	1
 920              		.set	.LANCHOR3,. + 0
 921              		.type	dummyrx, %object
 922              		.size	dummyrx, 2
 923              	dummyrx:
 924 0000 0000     		.space	2
 925              		.text
 926              	.Letext0:
 927              		.file 2 "/Users/jseng/gccarm/bin/../lib/gcc/arm-none-eabi/4.7.4/include/stddef.h"
 928              		.file 3 "/Users/jseng/gccarm/bin/../lib/gcc/arm-none-eabi/4.7.4/../../../../arm-none-eabi/include/
 929              		.file 4 "../AithonLibrary/ChibiOS/os/ports/GCC/ARMCMx/chtypes.h"
 930              		.file 5 "../AithonLibrary/ChibiOS/os/kernel/include/chlists.h"
 931              		.file 6 "../AithonLibrary/ChibiOS/os/kernel/include/chthreads.h"
 932              		.file 7 "../AithonLibrary/ChibiOS/os/ports/GCC/ARMCMx/chcore_v7m.h"
 933              		.file 8 "../AithonLibrary/ChibiOS/os/kernel/include/chmtx.h"
 934              		.file 9 "../AithonLibrary/ChibiOS/os/hal/platforms/STM32F4xx/stm32f4xx.h"
 935              		.file 10 "../AithonLibrary/ChibiOS/os/hal/platforms/STM32F4xx/stm32_dma.h"
 936              		.file 11 "../AithonLibrary/ChibiOS/os/hal/platforms/STM32/GPIOv2/pal_lld.h"
 937              		.file 12 "../AithonLibrary/ChibiOS/os/hal/include/spi.h"
 938              		.file 13 "../AithonLibrary/ChibiOS/os/hal/platforms/STM32/SPIv1/spi_lld.h"
 939              		.file 14 "../AithonLibrary/ChibiOS/os/ports/common/ARMCMx/CMSIS/include/core_cm4.h"
 940              		.file 15 "../AithonLibrary/ChibiOS/os/kernel/include/chschd.h"