ARM GAS  /var/folders/ng/s8655sgx1ys_4lf9jzm2w6n00000gn/T//ccWK92CN.s 			page 1


   1              		.syntax unified
   2              		.cpu cortex-m4
   3              		.eabi_attribute 27, 3
   4              		.fpu fpv4-sp-d16
   5              		.eabi_attribute 20, 1
   6              		.eabi_attribute 21, 1
   7              		.eabi_attribute 23, 3
   8              		.eabi_attribute 24, 1
   9              		.eabi_attribute 25, 1
  10              		.eabi_attribute 26, 1
  11              		.eabi_attribute 30, 2
  12              		.eabi_attribute 34, 1
  13              		.eabi_attribute 18, 4
  14              		.thumb
  15              		.file	"spi_lld.c"
  16              		.text
  17              	.Ltext0:
  18              		.cfi_sections	.debug_frame
  19              		.section	.text.spi_lld_serve_tx_interrupt,"ax",%progbits
  20              		.align	2
  21              		.p2align 4,,15
  22              		.thumb
  23              		.thumb_func
  24              		.type	spi_lld_serve_tx_interrupt, %function
  25              	spi_lld_serve_tx_interrupt:
  26              	.LFB119:
  27              		.file 1 "../AithonLibrary/ChibiOS/os/hal/platforms/STM32/SPIv1/spi_lld.c"
  28              		.loc 1 159 0
  29              		.cfi_startproc
  30              		@ args = 0, pretend = 0, frame = 0
  31              		@ frame_needed = 0, uses_anonymous_args = 0
  32              		@ link register save eliminated.
  33              	.LVL0:
  34              		.loc 1 164 0
  35 0000 11F00C0F 		tst	r1, #12
  36 0004 00D1     		bne	.L4
  37 0006 7047     		bx	lr
  38              	.L4:
  39              		.loc 1 171 0
  40              		.loc 1 165 0
  41 0008 FFF7FEBF 		b	port_halt
  42              	.LVL1:
  43              		.cfi_endproc
  44              	.LFE119:
  45              		.size	spi_lld_serve_tx_interrupt, .-spi_lld_serve_tx_interrupt
  46 000c AFF30080 		.section	.text.spi_lld_serve_rx_interrupt,"ax",%progbits
  47              		.align	2
  48              		.p2align 4,,15
  49              		.thumb
  50              		.thumb_func
  51              		.type	spi_lld_serve_rx_interrupt, %function
  52              	spi_lld_serve_rx_interrupt:
  53              	.LFB118:
  54              		.loc 1 133 0
  55              		.cfi_startproc
  56              		@ args = 0, pretend = 0, frame = 0
  57              		@ frame_needed = 0, uses_anonymous_args = 0
ARM GAS  /var/folders/ng/s8655sgx1ys_4lf9jzm2w6n00000gn/T//ccWK92CN.s 			page 2


  58              	.LVL2:
  59              		.loc 1 137 0
  60 0000 11F00C0F 		tst	r1, #12
  61              		.loc 1 133 0
  62 0004 38B5     		push	{r3, r4, r5, lr}
  63              	.LCFI0:
  64              		.cfi_def_cfa_offset 16
  65              		.cfi_offset 3, -16
  66              		.cfi_offset 4, -12
  67              		.cfi_offset 5, -8
  68              		.cfi_offset 14, -4
  69              		.loc 1 133 0
  70 0006 0446     		mov	r4, r0
  71              		.loc 1 137 0
  72 0008 39D1     		bne	.L20
  73              	.LVL3:
  74              	.L6:
  75              		.loc 1 145 0
  76 000a 606A     		ldr	r0, [r4, #36]
  77 000c 0268     		ldr	r2, [r0, #0]
  78 000e 1368     		ldr	r3, [r2, #0]
  79 0010 23F01F01 		bic	r1, r3, #31
  80 0014 1160     		str	r1, [r2, #0]
  81              	.L7:
  82              		.loc 1 145 0 is_stmt 0 discriminator 1
  83 0016 1568     		ldr	r5, [r2, #0]
  84 0018 E907     		lsls	r1, r5, #31
  85 001a FCD4     		bmi	.L7
  86              		.loc 1 145 0 discriminator 2
  87 001c 057A     		ldrb	r5, [r0, #8]	@ zero_extendqisi2
  88              		.loc 1 146 0 is_stmt 1 discriminator 2
  89 001e 216A     		ldr	r1, [r4, #32]
  90              		.loc 1 145 0 discriminator 2
  91 0020 4368     		ldr	r3, [r0, #4]
  92              		.loc 1 146 0 discriminator 2
  93 0022 0A68     		ldr	r2, [r1, #0]
  94              		.loc 1 145 0 discriminator 2
  95 0024 3D20     		movs	r0, #61
  96 0026 00FA05F0 		lsl	r0, r0, r5
  97 002a 1860     		str	r0, [r3, #0]
  98              		.loc 1 146 0 discriminator 2
  99 002c 1368     		ldr	r3, [r2, #0]
 100 002e 23F01F00 		bic	r0, r3, #31
 101 0032 1060     		str	r0, [r2, #0]
 102              	.L8:
 103              		.loc 1 146 0 is_stmt 0 discriminator 1
 104 0034 1368     		ldr	r3, [r2, #0]
 105 0036 DB07     		lsls	r3, r3, #31
 106 0038 FCD4     		bmi	.L8
 107              		.loc 1 150 0 is_stmt 1 discriminator 2
 108 003a 6368     		ldr	r3, [r4, #4]
 109              		.loc 1 146 0 discriminator 2
 110 003c 087A     		ldrb	r0, [r1, #8]	@ zero_extendqisi2
 111 003e 4A68     		ldr	r2, [r1, #4]
 112              		.loc 1 150 0 discriminator 2
 113 0040 1B68     		ldr	r3, [r3, #0]
 114              		.loc 1 146 0 discriminator 2
ARM GAS  /var/folders/ng/s8655sgx1ys_4lf9jzm2w6n00000gn/T//ccWK92CN.s 			page 3


 115 0042 3D21     		movs	r1, #61
 116 0044 01FA00F1 		lsl	r1, r1, r0
 117 0048 1160     		str	r1, [r2, #0]
 118              		.loc 1 150 0 discriminator 2
 119 004a ABB1     		cbz	r3, .L9
 120              		.loc 1 150 0 is_stmt 0 discriminator 1
 121 004c 0420     		movs	r0, #4
 122 004e 2070     		strb	r0, [r4, #0]
 123 0050 2046     		mov	r0, r4
 124 0052 9847     		blx	r3
 125              	.LVL4:
 126 0054 2278     		ldrb	r2, [r4, #0]	@ zero_extendqisi2
 127 0056 042A     		cmp	r2, #4
 128 0058 0ED0     		beq	.L9
 129              	.L10:
 130              	.LBB2:
 131              		.loc 1 150 0 discriminator 4
 132 005a 2023     		movs	r3, #32
 133              	.LVL5:
 134              	@ 150 "../AithonLibrary/ChibiOS/os/hal/platforms/STM32/SPIv1/spi_lld.c" 1
 135 005c 83F31188 		msr     BASEPRI, r3
 136              	@ 0 "" 2
 137              	.LVL6:
 138              		.thumb
 139              	.LBE2:
 140 0060 A168     		ldr	r1, [r4, #8]
 141 0062 29B1     		cbz	r1, .L11
 142              	.LVL7:
 143              	.LBB3:
 144              		.loc 1 150 0 discriminator 5
 145 0064 0022     		movs	r2, #0
 146 0066 A260     		str	r2, [r4, #8]
 147 0068 0846     		mov	r0, r1
 148 006a 4A62     		str	r2, [r1, #36]
 149 006c FFF7FEFF 		bl	chSchReadyI
 150              	.LVL8:
 151              	.L11:
 152              	.LBE3:
 153              	.LBB4:
 154              		.loc 1 150 0 discriminator 6
 155 0070 0023     		movs	r3, #0
 156              	.LVL9:
 157              	@ 150 "../AithonLibrary/ChibiOS/os/hal/platforms/STM32/SPIv1/spi_lld.c" 1
 158 0072 83F31188 		msr     BASEPRI, r3
 159              	@ 0 "" 2
 160              	.LVL10:
 161              		.thumb
 162 0076 38BD     		pop	{r3, r4, r5, pc}
 163              	.LVL11:
 164              	.L9:
 165              	.LBE4:
 166              		.loc 1 150 0 discriminator 2
 167 0078 0223     		movs	r3, #2
 168 007a 2370     		strb	r3, [r4, #0]
 169 007c EDE7     		b	.L10
 170              	.LVL12:
 171              	.L20:
ARM GAS  /var/folders/ng/s8655sgx1ys_4lf9jzm2w6n00000gn/T//ccWK92CN.s 			page 4


 172              		.loc 1 138 0 is_stmt 1
 173 007e FFF7FEFF 		bl	port_halt
 174              	.LVL13:
 175 0082 C2E7     		b	.L6
 176              		.cfi_endproc
 177              	.LFE118:
 178              		.size	spi_lld_serve_rx_interrupt, .-spi_lld_serve_rx_interrupt
 179 0084 AFF30080 		.section	.text.spi_lld_init,"ax",%progbits
 179      AFF30080 
 179      AFF30080 
 180              		.align	2
 181              		.p2align 4,,15
 182              		.global	spi_lld_init
 183              		.thumb
 184              		.thumb_func
 185              		.type	spi_lld_init, %function
 186              	spi_lld_init:
 187              	.LFB120:
 188              		.loc 1 186 0
 189              		.cfi_startproc
 190              		@ args = 0, pretend = 0, frame = 0
 191              		@ frame_needed = 0, uses_anonymous_args = 0
 192 0000 F8B5     		push	{r3, r4, r5, r6, r7, lr}
 193              	.LCFI1:
 194              		.cfi_def_cfa_offset 24
 195              		.cfi_offset 3, -24
 196              		.cfi_offset 4, -20
 197              		.cfi_offset 5, -16
 198              		.cfi_offset 6, -12
 199              		.cfi_offset 7, -8
 200              		.cfi_offset 14, -4
 201              		.loc 1 188 0
 202 0002 40F20003 		movw	r3, #:lower16:.LANCHOR0
 203              		.loc 1 191 0
 204 0006 40F20005 		movw	r5, #:lower16:.LANCHOR1
 205 000a C0F20005 		movt	r5, #:upper16:.LANCHOR1
 206              		.loc 1 188 0
 207 000e C0F20003 		movt	r3, #:upper16:.LANCHOR0
 208              		.loc 1 193 0
 209 0012 194E     		ldr	r6, .L22
 210              		.loc 1 188 0
 211 0014 4FF6FF72 		movw	r2, #65535
 212              		.loc 1 191 0
 213 0018 2846     		mov	r0, r5
 214              		.loc 1 227 0
 215 001a 40F20004 		movw	r4, #:lower16:.LANCHOR2
 216 001e C0F20004 		movt	r4, #:upper16:.LANCHOR2
 217              		.loc 1 188 0
 218 0022 1A80     		strh	r2, [r3, #0]	@ movhi
 219              		.loc 1 191 0
 220 0024 FFF7FEFF 		bl	spiObjectInit
 221              	.LVL14:
 222              		.loc 1 192 0
 223 0028 4FF44051 		mov	r1, #12288
 224              		.loc 1 195 0
 225 002c 1622     		movs	r2, #22
 226              		.loc 1 201 0
ARM GAS  /var/folders/ng/s8655sgx1ys_4lf9jzm2w6n00000gn/T//ccWK92CN.s 			page 5


 227 002e 4623     		movs	r3, #70
 228              		.loc 1 192 0
 229 0030 C4F20101 		movt	r1, 16385
 230              		.loc 1 195 0
 231 0034 C0F20162 		movt	r2, 1537
 232              		.loc 1 201 0
 233 0038 C0F20163 		movt	r3, 1537
 234              		.loc 1 194 0
 235 003c 06F12407 		add	r7, r6, #36
 236              		.loc 1 227 0
 237 0040 2046     		mov	r0, r4
 238              		.loc 1 192 0
 239 0042 E961     		str	r1, [r5, #28]
 240              		.loc 1 193 0
 241 0044 2E62     		str	r6, [r5, #32]
 242              		.loc 1 195 0
 243 0046 AA62     		str	r2, [r5, #40]
 244              		.loc 1 201 0
 245 0048 EB62     		str	r3, [r5, #44]
 246              		.loc 1 194 0
 247 004a 6F62     		str	r7, [r5, #36]
 248              		.loc 1 227 0
 249 004c FFF7FEFF 		bl	spiObjectInit
 250              	.LVL15:
 251              		.loc 1 228 0
 252 0050 4FF47051 		mov	r1, #15360
 253              		.loc 1 231 0
 254 0054 1622     		movs	r2, #22
 255              		.loc 1 237 0
 256 0056 4623     		movs	r3, #70
 257              		.loc 1 229 0
 258 0058 A6F14800 		sub	r0, r6, #72
 259              		.loc 1 228 0
 260 005c C4F20001 		movt	r1, 16384
 261              		.loc 1 230 0
 262 0060 0C3E     		subs	r6, r6, #12
 263              		.loc 1 231 0
 264 0062 C0F20102 		movt	r2, 1
 265              		.loc 1 237 0
 266 0066 C0F20103 		movt	r3, 1
 267              		.loc 1 228 0
 268 006a E161     		str	r1, [r4, #28]
 269              		.loc 1 229 0
 270 006c 2062     		str	r0, [r4, #32]
 271              		.loc 1 230 0
 272 006e 6662     		str	r6, [r4, #36]
 273              		.loc 1 231 0
 274 0070 A262     		str	r2, [r4, #40]
 275              		.loc 1 237 0
 276 0072 E362     		str	r3, [r4, #44]
 277 0074 F8BD     		pop	{r3, r4, r5, r6, r7, pc}
 278              	.L23:
 279 0076 00BF     		.align	2
 280              	.L22:
 281 0078 60000000 		.word	_stm32_dma_streams+96
 282              		.cfi_endproc
 283              	.LFE120:
ARM GAS  /var/folders/ng/s8655sgx1ys_4lf9jzm2w6n00000gn/T//ccWK92CN.s 			page 6


 284              		.size	spi_lld_init, .-spi_lld_init
 285 007c AFF30080 		.section	.text.spi_lld_start,"ax",%progbits
 286              		.align	2
 287              		.p2align 4,,15
 288              		.global	spi_lld_start
 289              		.thumb
 290              		.thumb_func
 291              		.type	spi_lld_start, %function
 292              	spi_lld_start:
 293              	.LFB121:
 294              		.loc 1 306 0
 295              		.cfi_startproc
 296              		@ args = 0, pretend = 0, frame = 0
 297              		@ frame_needed = 0, uses_anonymous_args = 0
 298              	.LVL16:
 299              		.loc 1 309 0
 300 0000 0378     		ldrb	r3, [r0, #0]	@ zero_extendqisi2
 301 0002 012B     		cmp	r3, #1
 302              		.loc 1 306 0
 303 0004 10B5     		push	{r4, lr}
 304              	.LCFI2:
 305              		.cfi_def_cfa_offset 8
 306              		.cfi_offset 4, -8
 307              		.cfi_offset 14, -4
 308              		.loc 1 306 0
 309 0006 0446     		mov	r4, r0
 310              		.loc 1 309 0
 311 0008 27D0     		beq	.L31
 312 000a C369     		ldr	r3, [r0, #28]
 313              	.LVL17:
 314              	.L25:
 315              		.loc 1 413 0
 316 000c 6068     		ldr	r0, [r4, #4]
 317 000e 4289     		ldrh	r2, [r0, #10]
 318              		.loc 1 416 0
 319 0010 A06A     		ldr	r0, [r4, #40]
 320              		.loc 1 413 0
 321 0012 02F40061 		and	r1, r2, #2048
 322 0016 89B2     		uxth	r1, r1
 323 0018 B9B1     		cbz	r1, .L32
 324              		.loc 1 424 0
 325 001a E16A     		ldr	r1, [r4, #44]
 326              		.loc 1 422 0
 327 001c 20F4F040 		bic	r0, r0, #30720
 328              		.loc 1 424 0
 329 0020 21F4F041 		bic	r1, r1, #30720
 330              		.loc 1 423 0
 331 0024 40F42050 		orr	r0, r0, #10240
 332              		.loc 1 425 0
 333 0028 41F42051 		orr	r1, r1, #10240
 334              		.loc 1 422 0
 335 002c A062     		str	r0, [r4, #40]
 336              		.loc 1 424 0
 337 002e E162     		str	r1, [r4, #44]
 338              	.L29:
 339              		.loc 1 429 0
 340 0030 42F44172 		orr	r2, r2, #772
ARM GAS  /var/folders/ng/s8655sgx1ys_4lf9jzm2w6n00000gn/T//ccWK92CN.s 			page 7


 341              		.loc 1 428 0
 342 0034 0020     		movs	r0, #0
 343              		.loc 1 431 0
 344 0036 0721     		movs	r1, #7
 345              		.loc 1 428 0
 346 0038 1880     		strh	r0, [r3, #0]	@ movhi
 347              		.loc 1 429 0
 348 003a 1A80     		strh	r2, [r3, #0]	@ movhi
 349              		.loc 1 431 0
 350 003c 9980     		strh	r1, [r3, #4]	@ movhi
 351              		.loc 1 432 0
 352 003e 1A88     		ldrh	r2, [r3, #0]
 353 0040 90B2     		uxth	r0, r2
 354 0042 40F04001 		orr	r1, r0, #64
 355 0046 1980     		strh	r1, [r3, #0]	@ movhi
 356 0048 10BD     		pop	{r4, pc}
 357              	.L32:
 358              		.loc 1 418 0
 359 004a E16A     		ldr	r1, [r4, #44]
 360              		.loc 1 416 0
 361 004c 20F4F040 		bic	r0, r0, #30720
 362              		.loc 1 418 0
 363 0050 21F4F041 		bic	r1, r1, #30720
 364              		.loc 1 415 0
 365 0054 A062     		str	r0, [r4, #40]
 366              		.loc 1 417 0
 367 0056 E162     		str	r1, [r4, #44]
 368 0058 EAE7     		b	.L29
 369              	.LVL18:
 370              	.L31:
 371              		.loc 1 311 0
 372 005a 1D48     		ldr	r0, .L35
 373              	.LVL19:
 374 005c 8442     		cmp	r4, r0
 375 005e 0CD0     		beq	.L33
 376              		.loc 1 343 0
 377 0060 1C49     		ldr	r1, .L35+4
 378 0062 8C42     		cmp	r4, r1
 379 0064 1ED0     		beq	.L34
 380              	.L27:
 381              		.loc 1 408 0
 382 0066 206A     		ldr	r0, [r4, #32]
 383              		.loc 1 409 0
 384 0068 616A     		ldr	r1, [r4, #36]
 385              		.loc 1 408 0
 386 006a E369     		ldr	r3, [r4, #28]
 387 006c 0068     		ldr	r0, [r0, #0]
 388              		.loc 1 409 0
 389 006e 0968     		ldr	r1, [r1, #0]
 390              		.loc 1 408 0
 391 0070 03F10C02 		add	r2, r3, #12
 392 0074 8260     		str	r2, [r0, #8]
 393              		.loc 1 409 0
 394 0076 8A60     		str	r2, [r1, #8]
 395 0078 C8E7     		b	.L25
 396              	.L33:
 397              	.LBB5:
ARM GAS  /var/folders/ng/s8655sgx1ys_4lf9jzm2w6n00000gn/T//ccWK92CN.s 			page 8


 398              		.loc 1 313 0
 399 007a 0A21     		movs	r1, #10
 400 007c 164A     		ldr	r2, .L35+8
 401 007e 206A     		ldr	r0, [r4, #32]
 402 0080 2346     		mov	r3, r4
 403 0082 FFF7FEFF 		bl	dmaStreamAllocate
 404              	.LVL20:
 405              		.loc 1 318 0
 406 0086 154A     		ldr	r2, .L35+12
 407 0088 606A     		ldr	r0, [r4, #36]
 408 008a 0A21     		movs	r1, #10
 409 008c 2346     		mov	r3, r4
 410 008e FFF7FEFF 		bl	dmaStreamAllocate
 411              	.LVL21:
 412              		.loc 1 323 0
 413 0092 4FF46051 		mov	r1, #14336
 414 0096 C4F20201 		movt	r1, 16386
 415 009a 4B6C     		ldr	r3, [r1, #68]
 416 009c 43F48052 		orr	r2, r3, #4096
 417 00a0 4A64     		str	r2, [r1, #68]
 418 00a2 E0E7     		b	.L27
 419              	.L34:
 420              	.LBE5:
 421              	.LBB6:
 422              		.loc 1 345 0
 423 00a4 0A21     		movs	r1, #10
 424 00a6 0C4A     		ldr	r2, .L35+8
 425 00a8 206A     		ldr	r0, [r4, #32]
 426 00aa 2346     		mov	r3, r4
 427 00ac FFF7FEFF 		bl	dmaStreamAllocate
 428              	.LVL22:
 429              		.loc 1 350 0
 430 00b0 0A4A     		ldr	r2, .L35+12
 431 00b2 606A     		ldr	r0, [r4, #36]
 432 00b4 2346     		mov	r3, r4
 433 00b6 0A21     		movs	r1, #10
 434 00b8 FFF7FEFF 		bl	dmaStreamAllocate
 435              	.LVL23:
 436              		.loc 1 355 0
 437 00bc 4FF46053 		mov	r3, #14336
 438 00c0 C4F20203 		movt	r3, 16386
 439 00c4 1A6C     		ldr	r2, [r3, #64]
 440 00c6 42F40040 		orr	r0, r2, #32768
 441 00ca 1864     		str	r0, [r3, #64]
 442 00cc CBE7     		b	.L27
 443              	.L36:
 444 00ce 00BF     		.align	2
 445              	.L35:
 446 00d0 00000000 		.word	.LANCHOR1
 447 00d4 00000000 		.word	.LANCHOR2
 448 00d8 00000000 		.word	spi_lld_serve_rx_interrupt
 449 00dc 00000000 		.word	spi_lld_serve_tx_interrupt
 450              	.LBE6:
 451              		.cfi_endproc
 452              	.LFE121:
 453              		.size	spi_lld_start, .-spi_lld_start
 454              		.section	.text.spi_lld_stop,"ax",%progbits
ARM GAS  /var/folders/ng/s8655sgx1ys_4lf9jzm2w6n00000gn/T//ccWK92CN.s 			page 9


 455              		.align	2
 456              		.p2align 4,,15
 457              		.global	spi_lld_stop
 458              		.thumb
 459              		.thumb_func
 460              		.type	spi_lld_stop, %function
 461              	spi_lld_stop:
 462              	.LFB122:
 463              		.loc 1 442 0
 464              		.cfi_startproc
 465              		@ args = 0, pretend = 0, frame = 0
 466              		@ frame_needed = 0, uses_anonymous_args = 0
 467              	.LVL24:
 468              		.loc 1 445 0
 469 0000 0378     		ldrb	r3, [r0, #0]	@ zero_extendqisi2
 470 0002 022B     		cmp	r3, #2
 471              		.loc 1 442 0
 472 0004 10B5     		push	{r4, lr}
 473              	.LCFI3:
 474              		.cfi_def_cfa_offset 8
 475              		.cfi_offset 4, -8
 476              		.cfi_offset 14, -4
 477              		.loc 1 442 0
 478 0006 0446     		mov	r4, r0
 479              		.loc 1 445 0
 480 0008 00D0     		beq	.L42
 481              	.LVL25:
 482              	.L37:
 483 000a 10BD     		pop	{r4, pc}
 484              	.LVL26:
 485              	.L42:
 486              		.loc 1 448 0
 487 000c C169     		ldr	r1, [r0, #28]
 488              		.loc 1 450 0
 489 000e 006A     		ldr	r0, [r0, #32]
 490              	.LVL27:
 491              		.loc 1 448 0
 492 0010 0022     		movs	r2, #0
 493 0012 0A80     		strh	r2, [r1, #0]	@ movhi
 494              		.loc 1 449 0
 495 0014 8A80     		strh	r2, [r1, #4]	@ movhi
 496              		.loc 1 450 0
 497 0016 FFF7FEFF 		bl	dmaStreamRelease
 498              	.LVL28:
 499              		.loc 1 451 0
 500 001a 606A     		ldr	r0, [r4, #36]
 501 001c FFF7FEFF 		bl	dmaStreamRelease
 502              	.LVL29:
 503              		.loc 1 454 0
 504 0020 0B48     		ldr	r0, .L44
 505 0022 8442     		cmp	r4, r0
 506 0024 0BD0     		beq	.L43
 507              		.loc 1 462 0
 508 0026 0B4B     		ldr	r3, .L44+4
 509 0028 9C42     		cmp	r4, r3
 510 002a EED1     		bne	.L37
 511              		.loc 1 463 0
ARM GAS  /var/folders/ng/s8655sgx1ys_4lf9jzm2w6n00000gn/T//ccWK92CN.s 			page 10


 512 002c 4FF46051 		mov	r1, #14336
 513 0030 C4F20201 		movt	r1, 16386
 514 0034 0A6C     		ldr	r2, [r1, #64]
 515 0036 22F40040 		bic	r0, r2, #32768
 516 003a 0864     		str	r0, [r1, #64]
 517 003c E5E7     		b	.L37
 518              	.L43:
 519              		.loc 1 455 0
 520 003e 4FF46053 		mov	r3, #14336
 521 0042 C4F20203 		movt	r3, 16386
 522 0046 596C     		ldr	r1, [r3, #68]
 523 0048 21F48052 		bic	r2, r1, #4096
 524 004c 5A64     		str	r2, [r3, #68]
 525 004e 10BD     		pop	{r4, pc}
 526              	.L45:
 527              		.align	2
 528              	.L44:
 529 0050 00000000 		.word	.LANCHOR1
 530 0054 00000000 		.word	.LANCHOR2
 531              		.cfi_endproc
 532              	.LFE122:
 533              		.size	spi_lld_stop, .-spi_lld_stop
 534 0058 AFF30080 		.section	.text.spi_lld_select,"ax",%progbits
 534      AFF30080 
 535              		.align	2
 536              		.p2align 4,,15
 537              		.global	spi_lld_select
 538              		.thumb
 539              		.thumb_func
 540              		.type	spi_lld_select, %function
 541              	spi_lld_select:
 542              	.LFB123:
 543              		.loc 1 487 0
 544              		.cfi_startproc
 545              		@ args = 0, pretend = 0, frame = 0
 546              		@ frame_needed = 0, uses_anonymous_args = 0
 547              		@ link register save eliminated.
 548              	.LVL30:
 549              		.loc 1 489 0
 550 0000 4368     		ldr	r3, [r0, #4]
 551 0002 1A89     		ldrh	r2, [r3, #8]
 552 0004 5868     		ldr	r0, [r3, #4]
 553              	.LVL31:
 554 0006 0121     		movs	r1, #1
 555 0008 01FA02F3 		lsl	r3, r1, r2
 556 000c 9AB2     		uxth	r2, r3
 557 000e 4283     		strh	r2, [r0, #26]	@ movhi
 558 0010 7047     		bx	lr
 559              		.cfi_endproc
 560              	.LFE123:
 561              		.size	spi_lld_select, .-spi_lld_select
 562 0012 00BFAFF3 		.section	.text.spi_lld_unselect,"ax",%progbits
 562      0080AFF3 
 562      0080AFF3 
 562      0080
 563              		.align	2
 564              		.p2align 4,,15
ARM GAS  /var/folders/ng/s8655sgx1ys_4lf9jzm2w6n00000gn/T//ccWK92CN.s 			page 11


 565              		.global	spi_lld_unselect
 566              		.thumb
 567              		.thumb_func
 568              		.type	spi_lld_unselect, %function
 569              	spi_lld_unselect:
 570              	.LFB124:
 571              		.loc 1 500 0
 572              		.cfi_startproc
 573              		@ args = 0, pretend = 0, frame = 0
 574              		@ frame_needed = 0, uses_anonymous_args = 0
 575              		@ link register save eliminated.
 576              	.LVL32:
 577              		.loc 1 502 0
 578 0000 4368     		ldr	r3, [r0, #4]
 579 0002 1A89     		ldrh	r2, [r3, #8]
 580 0004 5868     		ldr	r0, [r3, #4]
 581              	.LVL33:
 582 0006 0121     		movs	r1, #1
 583 0008 01FA02F3 		lsl	r3, r1, r2
 584 000c 9AB2     		uxth	r2, r3
 585 000e 0283     		strh	r2, [r0, #24]	@ movhi
 586 0010 7047     		bx	lr
 587              		.cfi_endproc
 588              	.LFE124:
 589              		.size	spi_lld_unselect, .-spi_lld_unselect
 590 0012 00BFAFF3 		.section	.text.spi_lld_ignore,"ax",%progbits
 590      0080AFF3 
 590      0080AFF3 
 590      0080
 591              		.align	2
 592              		.p2align 4,,15
 593              		.global	spi_lld_ignore
 594              		.thumb
 595              		.thumb_func
 596              		.type	spi_lld_ignore, %function
 597              	spi_lld_ignore:
 598              	.LFB125:
 599              		.loc 1 516 0
 600              		.cfi_startproc
 601              		@ args = 0, pretend = 0, frame = 0
 602              		@ frame_needed = 0, uses_anonymous_args = 0
 603              		@ link register save eliminated.
 604              	.LVL34:
 605              		.loc 1 518 0
 606 0000 026A     		ldr	r2, [r0, #32]
 607              		.loc 1 522 0
 608 0002 436A     		ldr	r3, [r0, #36]
 609              		.loc 1 518 0
 610 0004 1268     		ldr	r2, [r2, #0]
 611              		.loc 1 522 0
 612 0006 1B68     		ldr	r3, [r3, #0]
 613              		.loc 1 516 0
 614 0008 70B4     		push	{r4, r5, r6}
 615              	.LCFI4:
 616              		.cfi_def_cfa_offset 12
 617              		.cfi_offset 4, -12
 618              		.cfi_offset 5, -8
ARM GAS  /var/folders/ng/s8655sgx1ys_4lf9jzm2w6n00000gn/T//ccWK92CN.s 			page 12


 619              		.cfi_offset 6, -4
 620              		.loc 1 520 0
 621 000a 866A     		ldr	r6, [r0, #40]
 622              		.loc 1 524 0
 623 000c C56A     		ldr	r5, [r0, #44]
 624              		.loc 1 518 0
 625 000e 40F20004 		movw	r4, #:lower16:.LANCHOR3
 626              		.loc 1 522 0
 627 0012 40F20000 		movw	r0, #:lower16:.LANCHOR0
 628              	.LVL35:
 629 0016 C0F20000 		movt	r0, #:upper16:.LANCHOR0
 630              		.loc 1 518 0
 631 001a C0F20004 		movt	r4, #:upper16:.LANCHOR3
 632 001e D460     		str	r4, [r2, #12]
 633              		.loc 1 519 0
 634 0020 5160     		str	r1, [r2, #4]
 635              		.loc 1 520 0
 636 0022 1660     		str	r6, [r2, #0]
 637              		.loc 1 522 0
 638 0024 D860     		str	r0, [r3, #12]
 639              		.loc 1 523 0
 640 0026 5960     		str	r1, [r3, #4]
 641              		.loc 1 524 0
 642 0028 1D60     		str	r5, [r3, #0]
 643              		.loc 1 526 0
 644 002a 1168     		ldr	r1, [r2, #0]
 645              	.LVL36:
 646 002c 41F00100 		orr	r0, r1, #1
 647 0030 1060     		str	r0, [r2, #0]
 648              		.loc 1 527 0
 649 0032 1A68     		ldr	r2, [r3, #0]
 650              	.LVL37:
 651 0034 42F00101 		orr	r1, r2, #1
 652 0038 1960     		str	r1, [r3, #0]
 653              		.loc 1 528 0
 654 003a 70BC     		pop	{r4, r5, r6}
 655 003c 7047     		bx	lr
 656              		.cfi_endproc
 657              	.LFE125:
 658              		.size	spi_lld_ignore, .-spi_lld_ignore
 659 003e 00BF     		.section	.text.spi_lld_exchange,"ax",%progbits
 660              		.align	2
 661              		.p2align 4,,15
 662              		.global	spi_lld_exchange
 663              		.thumb
 664              		.thumb_func
 665              		.type	spi_lld_exchange, %function
 666              	spi_lld_exchange:
 667              	.LFB126:
 668              		.loc 1 546 0
 669              		.cfi_startproc
 670              		@ args = 0, pretend = 0, frame = 0
 671              		@ frame_needed = 0, uses_anonymous_args = 0
 672              		@ link register save eliminated.
 673              	.LVL38:
 674 0000 F0B4     		push	{r4, r5, r6, r7}
 675              	.LCFI5:
ARM GAS  /var/folders/ng/s8655sgx1ys_4lf9jzm2w6n00000gn/T//ccWK92CN.s 			page 13


 676              		.cfi_def_cfa_offset 16
 677              		.cfi_offset 4, -16
 678              		.cfi_offset 5, -12
 679              		.cfi_offset 6, -8
 680              		.cfi_offset 7, -4
 681              		.loc 1 548 0
 682 0002 046A     		ldr	r4, [r0, #32]
 683              		.loc 1 552 0
 684 0004 476A     		ldr	r7, [r0, #36]
 685              		.loc 1 550 0
 686 0006 866A     		ldr	r6, [r0, #40]
 687              		.loc 1 554 0
 688 0008 C56A     		ldr	r5, [r0, #44]
 689              		.loc 1 548 0
 690 000a 2468     		ldr	r4, [r4, #0]
 691              		.loc 1 552 0
 692 000c 3868     		ldr	r0, [r7, #0]
 693              	.LVL39:
 694              		.loc 1 548 0
 695 000e E360     		str	r3, [r4, #12]
 696              		.loc 1 550 0
 697 0010 46F48066 		orr	r6, r6, #1024
 698              		.loc 1 554 0
 699 0014 45F48065 		orr	r5, r5, #1024
 700              		.loc 1 549 0
 701 0018 6160     		str	r1, [r4, #4]
 702              		.loc 1 550 0
 703 001a 2660     		str	r6, [r4, #0]
 704              		.loc 1 552 0
 705 001c C260     		str	r2, [r0, #12]
 706              		.loc 1 553 0
 707 001e 4160     		str	r1, [r0, #4]
 708              		.loc 1 554 0
 709 0020 0560     		str	r5, [r0, #0]
 710              		.loc 1 556 0
 711 0022 2368     		ldr	r3, [r4, #0]
 712              	.LVL40:
 713 0024 43F00101 		orr	r1, r3, #1
 714              	.LVL41:
 715 0028 2160     		str	r1, [r4, #0]
 716              		.loc 1 557 0
 717 002a 0268     		ldr	r2, [r0, #0]
 718              	.LVL42:
 719 002c 42F00103 		orr	r3, r2, #1
 720 0030 0360     		str	r3, [r0, #0]
 721              		.loc 1 558 0
 722 0032 F0BC     		pop	{r4, r5, r6, r7}
 723 0034 7047     		bx	lr
 724              		.cfi_endproc
 725              	.LFE126:
 726              		.size	spi_lld_exchange, .-spi_lld_exchange
 727 0036 00BFAFF3 		.section	.text.spi_lld_send,"ax",%progbits
 727      0080AFF3 
 727      0080
 728              		.align	2
 729              		.p2align 4,,15
 730              		.global	spi_lld_send
ARM GAS  /var/folders/ng/s8655sgx1ys_4lf9jzm2w6n00000gn/T//ccWK92CN.s 			page 14


 731              		.thumb
 732              		.thumb_func
 733              		.type	spi_lld_send, %function
 734              	spi_lld_send:
 735              	.LFB127:
 736              		.loc 1 573 0
 737              		.cfi_startproc
 738              		@ args = 0, pretend = 0, frame = 0
 739              		@ frame_needed = 0, uses_anonymous_args = 0
 740              		@ link register save eliminated.
 741              	.LVL43:
 742 0000 F0B4     		push	{r4, r5, r6, r7}
 743              	.LCFI6:
 744              		.cfi_def_cfa_offset 16
 745              		.cfi_offset 4, -16
 746              		.cfi_offset 5, -12
 747              		.cfi_offset 6, -8
 748              		.cfi_offset 7, -4
 749              		.loc 1 575 0
 750 0002 036A     		ldr	r3, [r0, #32]
 751              		.loc 1 579 0
 752 0004 476A     		ldr	r7, [r0, #36]
 753              		.loc 1 581 0
 754 0006 C66A     		ldr	r6, [r0, #44]
 755              		.loc 1 575 0
 756 0008 1C68     		ldr	r4, [r3, #0]
 757              		.loc 1 577 0
 758 000a 806A     		ldr	r0, [r0, #40]
 759              	.LVL44:
 760              		.loc 1 579 0
 761 000c 3B68     		ldr	r3, [r7, #0]
 762              		.loc 1 575 0
 763 000e 40F20005 		movw	r5, #:lower16:.LANCHOR3
 764 0012 C0F20005 		movt	r5, #:upper16:.LANCHOR3
 765              		.loc 1 581 0
 766 0016 46F48066 		orr	r6, r6, #1024
 767              		.loc 1 575 0
 768 001a E560     		str	r5, [r4, #12]
 769              		.loc 1 576 0
 770 001c 6160     		str	r1, [r4, #4]
 771              		.loc 1 577 0
 772 001e 2060     		str	r0, [r4, #0]
 773              		.loc 1 579 0
 774 0020 DA60     		str	r2, [r3, #12]
 775              		.loc 1 580 0
 776 0022 5960     		str	r1, [r3, #4]
 777              		.loc 1 581 0
 778 0024 1E60     		str	r6, [r3, #0]
 779              		.loc 1 583 0
 780 0026 2268     		ldr	r2, [r4, #0]
 781              	.LVL45:
 782 0028 42F00101 		orr	r1, r2, #1
 783              	.LVL46:
 784 002c 2160     		str	r1, [r4, #0]
 785              		.loc 1 584 0
 786 002e 1868     		ldr	r0, [r3, #0]
 787 0030 40F00102 		orr	r2, r0, #1
ARM GAS  /var/folders/ng/s8655sgx1ys_4lf9jzm2w6n00000gn/T//ccWK92CN.s 			page 15


 788 0034 1A60     		str	r2, [r3, #0]
 789              		.loc 1 585 0
 790 0036 F0BC     		pop	{r4, r5, r6, r7}
 791 0038 7047     		bx	lr
 792              		.cfi_endproc
 793              	.LFE127:
 794              		.size	spi_lld_send, .-spi_lld_send
 795 003a 00BFAFF3 		.section	.text.spi_lld_receive,"ax",%progbits
 795      0080
 796              		.align	2
 797              		.p2align 4,,15
 798              		.global	spi_lld_receive
 799              		.thumb
 800              		.thumb_func
 801              		.type	spi_lld_receive, %function
 802              	spi_lld_receive:
 803              	.LFB128:
 804              		.loc 1 600 0
 805              		.cfi_startproc
 806              		@ args = 0, pretend = 0, frame = 0
 807              		@ frame_needed = 0, uses_anonymous_args = 0
 808              		@ link register save eliminated.
 809              	.LVL47:
 810 0000 70B4     		push	{r4, r5, r6}
 811              	.LCFI7:
 812              		.cfi_def_cfa_offset 12
 813              		.cfi_offset 4, -12
 814              		.cfi_offset 5, -8
 815              		.cfi_offset 6, -4
 816              		.loc 1 606 0
 817 0002 436A     		ldr	r3, [r0, #36]
 818              		.loc 1 602 0
 819 0004 046A     		ldr	r4, [r0, #32]
 820              		.loc 1 604 0
 821 0006 866A     		ldr	r6, [r0, #40]
 822              		.loc 1 602 0
 823 0008 2468     		ldr	r4, [r4, #0]
 824              		.loc 1 606 0
 825 000a 1B68     		ldr	r3, [r3, #0]
 826              		.loc 1 608 0
 827 000c C06A     		ldr	r0, [r0, #44]
 828              	.LVL48:
 829              		.loc 1 602 0
 830 000e E260     		str	r2, [r4, #12]
 831              		.loc 1 606 0
 832 0010 40F20005 		movw	r5, #:lower16:.LANCHOR0
 833              		.loc 1 604 0
 834 0014 46F48066 		orr	r6, r6, #1024
 835              		.loc 1 606 0
 836 0018 C0F20005 		movt	r5, #:upper16:.LANCHOR0
 837              		.loc 1 603 0
 838 001c 6160     		str	r1, [r4, #4]
 839              		.loc 1 604 0
 840 001e 2660     		str	r6, [r4, #0]
 841              		.loc 1 606 0
 842 0020 DD60     		str	r5, [r3, #12]
 843              		.loc 1 607 0
ARM GAS  /var/folders/ng/s8655sgx1ys_4lf9jzm2w6n00000gn/T//ccWK92CN.s 			page 16


 844 0022 5960     		str	r1, [r3, #4]
 845              		.loc 1 608 0
 846 0024 1860     		str	r0, [r3, #0]
 847              		.loc 1 610 0
 848 0026 2268     		ldr	r2, [r4, #0]
 849              	.LVL49:
 850 0028 42F00101 		orr	r1, r2, #1
 851              	.LVL50:
 852 002c 2160     		str	r1, [r4, #0]
 853              		.loc 1 611 0
 854 002e 1868     		ldr	r0, [r3, #0]
 855 0030 40F00102 		orr	r2, r0, #1
 856 0034 1A60     		str	r2, [r3, #0]
 857              		.loc 1 612 0
 858 0036 70BC     		pop	{r4, r5, r6}
 859 0038 7047     		bx	lr
 860              		.cfi_endproc
 861              	.LFE128:
 862              		.size	spi_lld_receive, .-spi_lld_receive
 863 003a 00BFAFF3 		.section	.text.spi_lld_polled_exchange,"ax",%progbits
 863      0080
 864              		.align	2
 865              		.p2align 4,,15
 866              		.global	spi_lld_polled_exchange
 867              		.thumb
 868              		.thumb_func
 869              		.type	spi_lld_polled_exchange, %function
 870              	spi_lld_polled_exchange:
 871              	.LFB129:
 872              		.loc 1 626 0
 873              		.cfi_startproc
 874              		@ args = 0, pretend = 0, frame = 0
 875              		@ frame_needed = 0, uses_anonymous_args = 0
 876              		@ link register save eliminated.
 877              	.LVL51:
 878              		.loc 1 628 0
 879 0000 C269     		ldr	r2, [r0, #28]
 880 0002 9181     		strh	r1, [r2, #12]	@ movhi
 881              	.LVL52:
 882              	.L53:
 883              		.loc 1 629 0 discriminator 1
 884 0004 1389     		ldrh	r3, [r2, #8]
 885 0006 D807     		lsls	r0, r3, #31
 886 0008 FCD5     		bpl	.L53
 887              		.loc 1 631 0
 888 000a 9089     		ldrh	r0, [r2, #12]
 889              		.loc 1 632 0
 890 000c 80B2     		uxth	r0, r0
 891 000e 7047     		bx	lr
 892              		.cfi_endproc
 893              	.LFE129:
 894              		.size	spi_lld_polled_exchange, .-spi_lld_polled_exchange
 895              		.global	SPID3
 896              		.global	SPID1
 897              		.section	.bss.dummytx,"aw",%nobits
 898              		.align	1
 899              		.set	.LANCHOR0,. + 0
ARM GAS  /var/folders/ng/s8655sgx1ys_4lf9jzm2w6n00000gn/T//ccWK92CN.s 			page 17


 900              		.type	dummytx, %object
 901              		.size	dummytx, 2
 902              	dummytx:
 903 0000 0000     		.space	2
 904              		.section	.bss.SPID1,"aw",%nobits
 905              		.align	2
 906              		.set	.LANCHOR1,. + 0
 907              		.type	SPID1, %object
 908              		.size	SPID1, 48
 909              	SPID1:
 910 0000 00000000 		.space	48
 910      00000000 
 910      00000000 
 910      00000000 
 910      00000000 
 911              		.section	.bss.SPID3,"aw",%nobits
 912              		.align	2
 913              		.set	.LANCHOR2,. + 0
 914              		.type	SPID3, %object
 915              		.size	SPID3, 48
 916              	SPID3:
 917 0000 00000000 		.space	48
 917      00000000 
 917      00000000 
 917      00000000 
 917      00000000 
 918              		.section	.bss.dummyrx,"aw",%nobits
 919              		.align	1
 920              		.set	.LANCHOR3,. + 0
 921              		.type	dummyrx, %object
 922              		.size	dummyrx, 2
 923              	dummyrx:
 924 0000 0000     		.space	2
 925              		.text
 926              	.Letext0:
 927              		.file 2 "/Users/jseng/gccarm/bin/../lib/gcc/arm-none-eabi/4.7.4/include/stddef.h"
 928              		.file 3 "/Users/jseng/gccarm/bin/../lib/gcc/arm-none-eabi/4.7.4/../../../../arm-none-eabi/include/
 929              		.file 4 "../AithonLibrary/ChibiOS/os/ports/GCC/ARMCMx/chtypes.h"
 930              		.file 5 "../AithonLibrary/ChibiOS/os/kernel/include/chlists.h"
 931              		.file 6 "../AithonLibrary/ChibiOS/os/kernel/include/chthreads.h"
 932              		.file 7 "../AithonLibrary/ChibiOS/os/ports/GCC/ARMCMx/chcore_v7m.h"
 933              		.file 8 "../AithonLibrary/ChibiOS/os/kernel/include/chmtx.h"
 934              		.file 9 "../AithonLibrary/ChibiOS/os/hal/platforms/STM32F4xx/stm32f4xx.h"
 935              		.file 10 "../AithonLibrary/ChibiOS/os/hal/platforms/STM32F4xx/stm32_dma.h"
 936              		.file 11 "../AithonLibrary/ChibiOS/os/hal/platforms/STM32/GPIOv2/pal_lld.h"
 937              		.file 12 "../AithonLibrary/ChibiOS/os/hal/include/spi.h"
 938              		.file 13 "../AithonLibrary/ChibiOS/os/hal/platforms/STM32/SPIv1/spi_lld.h"
 939              		.file 14 "../AithonLibrary/ChibiOS/os/ports/common/ARMCMx/CMSIS/include/core_cm4.h"
 940              		.file 15 "../AithonLibrary/ChibiOS/os/kernel/include/chschd.h"
 941              		.section	.debug_info,"",%progbits
 942              	.Ldebug_info0:
 943 0000 6B100000 		.4byte	0x106b
 944 0004 0200     		.2byte	0x2
 945 0006 00000000 		.4byte	.Ldebug_abbrev0
 946 000a 04       		.byte	0x4
 947 000b 01       		.uleb128 0x1
 948 000c 5F010000 		.4byte	.LASF164
ARM GAS  /var/folders/ng/s8655sgx1ys_4lf9jzm2w6n00000gn/T//ccWK92CN.s 			page 18


 949 0010 01       		.byte	0x1
 950 0011 15010000 		.4byte	.LASF165
 951 0015 1A020000 		.4byte	.LASF166
 952 0019 00000000 		.4byte	.Ldebug_ranges0+0
 953 001d 00000000 		.4byte	0
 954 0021 00000000 		.4byte	0
 955 0025 00000000 		.4byte	.Ldebug_line0
 956 0029 02       		.uleb128 0x2
 957 002a 04       		.byte	0x4
 958 002b 05       		.byte	0x5
 959 002c 696E7400 		.ascii	"int\000"
 960 0030 03       		.uleb128 0x3
 961 0031 0D000000 		.4byte	.LASF2
 962 0035 02       		.byte	0x2
 963 0036 D5       		.byte	0xd5
 964 0037 3B000000 		.4byte	0x3b
 965 003b 04       		.uleb128 0x4
 966 003c 04       		.byte	0x4
 967 003d 07       		.byte	0x7
 968 003e 77020000 		.4byte	.LASF0
 969 0042 04       		.uleb128 0x4
 970 0043 01       		.byte	0x1
 971 0044 06       		.byte	0x6
 972 0045 DB000000 		.4byte	.LASF1
 973 0049 03       		.uleb128 0x3
 974 004a 66060000 		.4byte	.LASF3
 975 004e 03       		.byte	0x3
 976 004f 2A       		.byte	0x2a
 977 0050 54000000 		.4byte	0x54
 978 0054 04       		.uleb128 0x4
 979 0055 01       		.byte	0x1
 980 0056 08       		.byte	0x8
 981 0057 8C040000 		.4byte	.LASF4
 982 005b 04       		.uleb128 0x4
 983 005c 02       		.byte	0x2
 984 005d 05       		.byte	0x5
 985 005e D3040000 		.4byte	.LASF5
 986 0062 03       		.uleb128 0x3
 987 0063 2B030000 		.4byte	.LASF6
 988 0067 03       		.byte	0x3
 989 0068 36       		.byte	0x36
 990 0069 6D000000 		.4byte	0x6d
 991 006d 04       		.uleb128 0x4
 992 006e 02       		.byte	0x2
 993 006f 07       		.byte	0x7
 994 0070 EF020000 		.4byte	.LASF7
 995 0074 03       		.uleb128 0x3
 996 0075 84040000 		.4byte	.LASF8
 997 0079 03       		.byte	0x3
 998 007a 4F       		.byte	0x4f
 999 007b 7F000000 		.4byte	0x7f
 1000 007f 04       		.uleb128 0x4
 1001 0080 04       		.byte	0x4
 1002 0081 05       		.byte	0x5
 1003 0082 AE010000 		.4byte	.LASF9
 1004 0086 03       		.uleb128 0x3
 1005 0087 40050000 		.4byte	.LASF10
ARM GAS  /var/folders/ng/s8655sgx1ys_4lf9jzm2w6n00000gn/T//ccWK92CN.s 			page 19


 1006 008b 03       		.byte	0x3
 1007 008c 50       		.byte	0x50
 1008 008d 91000000 		.4byte	0x91
 1009 0091 04       		.uleb128 0x4
 1010 0092 04       		.byte	0x4
 1011 0093 07       		.byte	0x7
 1012 0094 5D050000 		.4byte	.LASF11
 1013 0098 04       		.uleb128 0x4
 1014 0099 08       		.byte	0x8
 1015 009a 05       		.byte	0x5
 1016 009b CD000000 		.4byte	.LASF12
 1017 009f 04       		.uleb128 0x4
 1018 00a0 08       		.byte	0x8
 1019 00a1 07       		.byte	0x7
 1020 00a2 47000000 		.4byte	.LASF13
 1021 00a6 03       		.uleb128 0x3
 1022 00a7 06010000 		.4byte	.LASF14
 1023 00ab 04       		.byte	0x4
 1024 00ac 2B       		.byte	0x2b
 1025 00ad B1000000 		.4byte	0xb1
 1026 00b1 04       		.uleb128 0x4
 1027 00b2 01       		.byte	0x1
 1028 00b3 02       		.byte	0x2
 1029 00b4 7E040000 		.4byte	.LASF15
 1030 00b8 03       		.uleb128 0x3
 1031 00b9 23030000 		.4byte	.LASF16
 1032 00bd 04       		.byte	0x4
 1033 00be 2C       		.byte	0x2c
 1034 00bf 49000000 		.4byte	0x49
 1035 00c3 03       		.uleb128 0x3
 1036 00c4 E5010000 		.4byte	.LASF17
 1037 00c8 04       		.byte	0x4
 1038 00c9 2D       		.byte	0x2d
 1039 00ca 49000000 		.4byte	0x49
 1040 00ce 03       		.uleb128 0x3
 1041 00cf 00000000 		.4byte	.LASF18
 1042 00d3 04       		.byte	0x4
 1043 00d4 2E       		.byte	0x2e
 1044 00d5 49000000 		.4byte	0x49
 1045 00d9 03       		.uleb128 0x3
 1046 00da 55010000 		.4byte	.LASF19
 1047 00de 04       		.byte	0x4
 1048 00df 2F       		.byte	0x2f
 1049 00e0 49000000 		.4byte	0x49
 1050 00e4 03       		.uleb128 0x3
 1051 00e5 70040000 		.4byte	.LASF20
 1052 00e9 04       		.byte	0x4
 1053 00ea 30       		.byte	0x30
 1054 00eb 86000000 		.4byte	0x86
 1055 00ef 03       		.uleb128 0x3
 1056 00f0 0D030000 		.4byte	.LASF21
 1057 00f4 04       		.byte	0x4
 1058 00f5 31       		.byte	0x31
 1059 00f6 74000000 		.4byte	0x74
 1060 00fa 03       		.uleb128 0x3
 1061 00fb 4A030000 		.4byte	.LASF22
 1062 00ff 04       		.byte	0x4
ARM GAS  /var/folders/ng/s8655sgx1ys_4lf9jzm2w6n00000gn/T//ccWK92CN.s 			page 20


 1063 0100 33       		.byte	0x33
 1064 0101 86000000 		.4byte	0x86
 1065 0105 03       		.uleb128 0x3
 1066 0106 CA050000 		.4byte	.LASF23
 1067 010a 04       		.byte	0x4
 1068 010b 35       		.byte	0x35
 1069 010c 86000000 		.4byte	0x86
 1070 0110 03       		.uleb128 0x3
 1071 0111 1F050000 		.4byte	.LASF24
 1072 0115 05       		.byte	0x5
 1073 0116 2A       		.byte	0x2a
 1074 0117 1B010000 		.4byte	0x11b
 1075 011b 05       		.uleb128 0x5
 1076 011c 1F050000 		.4byte	.LASF24
 1077 0120 48       		.byte	0x48
 1078 0121 06       		.byte	0x6
 1079 0122 5E       		.byte	0x5e
 1080 0123 40020000 		.4byte	0x240
 1081 0127 06       		.uleb128 0x6
 1082 0128 9F030000 		.4byte	.LASF25
 1083 012c 06       		.byte	0x6
 1084 012d 5F       		.byte	0x5f
 1085 012e 65020000 		.4byte	0x265
 1086 0132 02       		.byte	0x2
 1087 0133 23       		.byte	0x23
 1088 0134 00       		.uleb128 0
 1089 0135 06       		.uleb128 0x6
 1090 0136 4B040000 		.4byte	.LASF26
 1091 013a 06       		.byte	0x6
 1092 013b 61       		.byte	0x61
 1093 013c 65020000 		.4byte	0x265
 1094 0140 02       		.byte	0x2
 1095 0141 23       		.byte	0x23
 1096 0142 04       		.uleb128 0x4
 1097 0143 06       		.uleb128 0x6
 1098 0144 B8000000 		.4byte	.LASF27
 1099 0148 06       		.byte	0x6
 1100 0149 63       		.byte	0x63
 1101 014a E4000000 		.4byte	0xe4
 1102 014e 02       		.byte	0x2
 1103 014f 23       		.byte	0x23
 1104 0150 08       		.uleb128 0x8
 1105 0151 06       		.uleb128 0x6
 1106 0152 EC060000 		.4byte	.LASF28
 1107 0156 06       		.byte	0x6
 1108 0157 64       		.byte	0x64
 1109 0158 23040000 		.4byte	0x423
 1110 015c 02       		.byte	0x2
 1111 015d 23       		.byte	0x23
 1112 015e 0C       		.uleb128 0xc
 1113 015f 06       		.uleb128 0x6
 1114 0160 EE010000 		.4byte	.LASF29
 1115 0164 06       		.byte	0x6
 1116 0165 66       		.byte	0x66
 1117 0166 65020000 		.4byte	0x265
 1118 016a 02       		.byte	0x2
 1119 016b 23       		.byte	0x23
ARM GAS  /var/folders/ng/s8655sgx1ys_4lf9jzm2w6n00000gn/T//ccWK92CN.s 			page 21


 1120 016c 10       		.uleb128 0x10
 1121 016d 06       		.uleb128 0x6
 1122 016e C0030000 		.4byte	.LASF30
 1123 0172 06       		.byte	0x6
 1124 0173 67       		.byte	0x67
 1125 0174 65020000 		.4byte	0x265
 1126 0178 02       		.byte	0x2
 1127 0179 23       		.byte	0x23
 1128 017a 14       		.uleb128 0x14
 1129 017b 06       		.uleb128 0x6
 1130 017c 9B060000 		.4byte	.LASF31
 1131 0180 06       		.byte	0x6
 1132 0181 6E       		.byte	0x6e
 1133 0182 D4040000 		.4byte	0x4d4
 1134 0186 02       		.byte	0x2
 1135 0187 23       		.byte	0x23
 1136 0188 18       		.uleb128 0x18
 1137 0189 06       		.uleb128 0x6
 1138 018a C1040000 		.4byte	.LASF32
 1139 018e 06       		.byte	0x6
 1140 018f 79       		.byte	0x79
 1141 0190 C3000000 		.4byte	0xc3
 1142 0194 02       		.byte	0x2
 1143 0195 23       		.byte	0x23
 1144 0196 1C       		.uleb128 0x1c
 1145 0197 06       		.uleb128 0x6
 1146 0198 06050000 		.4byte	.LASF33
 1147 019c 06       		.byte	0x6
 1148 019d 7D       		.byte	0x7d
 1149 019e B8000000 		.4byte	0xb8
 1150 01a2 02       		.byte	0x2
 1151 01a3 23       		.byte	0x23
 1152 01a4 1D       		.uleb128 0x1d
 1153 01a5 06       		.uleb128 0x6
 1154 01a6 E7030000 		.4byte	.LASF34
 1155 01aa 06       		.byte	0x6
 1156 01ab 82       		.byte	0x82
 1157 01ac CE000000 		.4byte	0xce
 1158 01b0 02       		.byte	0x2
 1159 01b1 23       		.byte	0x23
 1160 01b2 1E       		.uleb128 0x1e
 1161 01b3 06       		.uleb128 0x6
 1162 01b4 DD040000 		.4byte	.LASF35
 1163 01b8 06       		.byte	0x6
 1164 01b9 88       		.byte	0x88
 1165 01ba D9000000 		.4byte	0xd9
 1166 01be 02       		.byte	0x2
 1167 01bf 23       		.byte	0x23
 1168 01c0 1F       		.uleb128 0x1f
 1169 01c1 06       		.uleb128 0x6
 1170 01c2 A0020000 		.4byte	.LASF36
 1171 01c6 06       		.byte	0x6
 1172 01c7 8F       		.byte	0x8f
 1173 01c8 52040000 		.4byte	0x452
 1174 01cc 02       		.byte	0x2
 1175 01cd 23       		.byte	0x23
 1176 01ce 20       		.uleb128 0x20
ARM GAS  /var/folders/ng/s8655sgx1ys_4lf9jzm2w6n00000gn/T//ccWK92CN.s 			page 22


 1177 01cf 07       		.uleb128 0x7
 1178 01d0 705F7500 		.ascii	"p_u\000"
 1179 01d4 06       		.byte	0x6
 1180 01d5 B4       		.byte	0xb4
 1181 01d6 9F040000 		.4byte	0x49f
 1182 01da 02       		.byte	0x2
 1183 01db 23       		.byte	0x23
 1184 01dc 24       		.uleb128 0x24
 1185 01dd 06       		.uleb128 0x6
 1186 01de F2060000 		.4byte	.LASF37
 1187 01e2 06       		.byte	0x6
 1188 01e3 B9       		.byte	0xb9
 1189 01e4 8D020000 		.4byte	0x28d
 1190 01e8 02       		.byte	0x2
 1191 01e9 23       		.byte	0x23
 1192 01ea 28       		.uleb128 0x28
 1193 01eb 06       		.uleb128 0x6
 1194 01ec B6020000 		.4byte	.LASF38
 1195 01f0 06       		.byte	0x6
 1196 01f1 BF       		.byte	0xbf
 1197 01f2 6B020000 		.4byte	0x26b
 1198 01f6 02       		.byte	0x2
 1199 01f7 23       		.byte	0x23
 1200 01f8 2C       		.uleb128 0x2c
 1201 01f9 06       		.uleb128 0x6
 1202 01fa CC060000 		.4byte	.LASF39
 1203 01fe 06       		.byte	0x6
 1204 01ff C3       		.byte	0xc3
 1205 0200 EF000000 		.4byte	0xef
 1206 0204 02       		.byte	0x2
 1207 0205 23       		.byte	0x23
 1208 0206 34       		.uleb128 0x34
 1209 0207 06       		.uleb128 0x6
 1210 0208 26050000 		.4byte	.LASF40
 1211 020c 06       		.byte	0x6
 1212 020d C9       		.byte	0xc9
 1213 020e FA000000 		.4byte	0xfa
 1214 0212 02       		.byte	0x2
 1215 0213 23       		.byte	0x23
 1216 0214 38       		.uleb128 0x38
 1217 0215 06       		.uleb128 0x6
 1218 0216 C9040000 		.4byte	.LASF41
 1219 021a 06       		.byte	0x6
 1220 021b D0       		.byte	0xd0
 1221 021c E6040000 		.4byte	0x4e6
 1222 0220 02       		.byte	0x2
 1223 0221 23       		.byte	0x23
 1224 0222 3C       		.uleb128 0x3c
 1225 0223 06       		.uleb128 0x6
 1226 0224 D4050000 		.4byte	.LASF42
 1227 0228 06       		.byte	0x6
 1228 0229 D4       		.byte	0xd4
 1229 022a E4000000 		.4byte	0xe4
 1230 022e 02       		.byte	0x2
 1231 022f 23       		.byte	0x23
 1232 0230 40       		.uleb128 0x40
 1233 0231 06       		.uleb128 0x6
ARM GAS  /var/folders/ng/s8655sgx1ys_4lf9jzm2w6n00000gn/T//ccWK92CN.s 			page 23


 1234 0232 37020000 		.4byte	.LASF43
 1235 0236 06       		.byte	0x6
 1236 0237 DA       		.byte	0xda
 1237 0238 A3020000 		.4byte	0x2a3
 1238 023c 02       		.byte	0x2
 1239 023d 23       		.byte	0x23
 1240 023e 44       		.uleb128 0x44
 1241 023f 00       		.byte	0
 1242 0240 08       		.uleb128 0x8
 1243 0241 08       		.byte	0x8
 1244 0242 05       		.byte	0x5
 1245 0243 61       		.byte	0x61
 1246 0244 65020000 		.4byte	0x265
 1247 0248 06       		.uleb128 0x6
 1248 0249 9F030000 		.4byte	.LASF25
 1249 024d 05       		.byte	0x5
 1250 024e 62       		.byte	0x62
 1251 024f 65020000 		.4byte	0x265
 1252 0253 02       		.byte	0x2
 1253 0254 23       		.byte	0x23
 1254 0255 00       		.uleb128 0
 1255 0256 06       		.uleb128 0x6
 1256 0257 4B040000 		.4byte	.LASF26
 1257 025b 05       		.byte	0x5
 1258 025c 64       		.byte	0x64
 1259 025d 65020000 		.4byte	0x265
 1260 0261 02       		.byte	0x2
 1261 0262 23       		.byte	0x23
 1262 0263 04       		.uleb128 0x4
 1263 0264 00       		.byte	0
 1264 0265 09       		.uleb128 0x9
 1265 0266 04       		.byte	0x4
 1266 0267 10010000 		.4byte	0x110
 1267 026b 03       		.uleb128 0x3
 1268 026c C8030000 		.4byte	.LASF44
 1269 0270 05       		.byte	0x5
 1270 0271 66       		.byte	0x66
 1271 0272 40020000 		.4byte	0x240
 1272 0276 08       		.uleb128 0x8
 1273 0277 04       		.byte	0x4
 1274 0278 05       		.byte	0x5
 1275 0279 6B       		.byte	0x6b
 1276 027a 8D020000 		.4byte	0x28d
 1277 027e 06       		.uleb128 0x6
 1278 027f 9F030000 		.4byte	.LASF25
 1279 0283 05       		.byte	0x5
 1280 0284 6D       		.byte	0x6d
 1281 0285 65020000 		.4byte	0x265
 1282 0289 02       		.byte	0x2
 1283 028a 23       		.byte	0x23
 1284 028b 00       		.uleb128 0
 1285 028c 00       		.byte	0
 1286 028d 03       		.uleb128 0x3
 1287 028e 3E030000 		.4byte	.LASF45
 1288 0292 05       		.byte	0x5
 1289 0293 70       		.byte	0x70
 1290 0294 76020000 		.4byte	0x276
ARM GAS  /var/folders/ng/s8655sgx1ys_4lf9jzm2w6n00000gn/T//ccWK92CN.s 			page 24


 1291 0298 03       		.uleb128 0x3
 1292 0299 3F020000 		.4byte	.LASF46
 1293 029d 07       		.byte	0x7
 1294 029e E5       		.byte	0xe5
 1295 029f A3020000 		.4byte	0x2a3
 1296 02a3 0A       		.uleb128 0xa
 1297 02a4 04       		.byte	0x4
 1298 02a5 0B       		.uleb128 0xb
 1299 02a6 20060000 		.4byte	.LASF47
 1300 02aa 64       		.byte	0x64
 1301 02ab 07       		.byte	0x7
 1302 02ac 0C01     		.2byte	0x10c
 1303 02ae 23040000 		.4byte	0x423
 1304 02b2 0C       		.uleb128 0xc
 1305 02b3 73313600 		.ascii	"s16\000"
 1306 02b7 07       		.byte	0x7
 1307 02b8 0E01     		.2byte	0x10e
 1308 02ba 98020000 		.4byte	0x298
 1309 02be 02       		.byte	0x2
 1310 02bf 23       		.byte	0x23
 1311 02c0 00       		.uleb128 0
 1312 02c1 0C       		.uleb128 0xc
 1313 02c2 73313700 		.ascii	"s17\000"
 1314 02c6 07       		.byte	0x7
 1315 02c7 0F01     		.2byte	0x10f
 1316 02c9 98020000 		.4byte	0x298
 1317 02cd 02       		.byte	0x2
 1318 02ce 23       		.byte	0x23
 1319 02cf 04       		.uleb128 0x4
 1320 02d0 0C       		.uleb128 0xc
 1321 02d1 73313800 		.ascii	"s18\000"
 1322 02d5 07       		.byte	0x7
 1323 02d6 1001     		.2byte	0x110
 1324 02d8 98020000 		.4byte	0x298
 1325 02dc 02       		.byte	0x2
 1326 02dd 23       		.byte	0x23
 1327 02de 08       		.uleb128 0x8
 1328 02df 0C       		.uleb128 0xc
 1329 02e0 73313900 		.ascii	"s19\000"
 1330 02e4 07       		.byte	0x7
 1331 02e5 1101     		.2byte	0x111
 1332 02e7 98020000 		.4byte	0x298
 1333 02eb 02       		.byte	0x2
 1334 02ec 23       		.byte	0x23
 1335 02ed 0C       		.uleb128 0xc
 1336 02ee 0C       		.uleb128 0xc
 1337 02ef 73323000 		.ascii	"s20\000"
 1338 02f3 07       		.byte	0x7
 1339 02f4 1201     		.2byte	0x112
 1340 02f6 98020000 		.4byte	0x298
 1341 02fa 02       		.byte	0x2
 1342 02fb 23       		.byte	0x23
 1343 02fc 10       		.uleb128 0x10
 1344 02fd 0C       		.uleb128 0xc
 1345 02fe 73323100 		.ascii	"s21\000"
 1346 0302 07       		.byte	0x7
 1347 0303 1301     		.2byte	0x113
ARM GAS  /var/folders/ng/s8655sgx1ys_4lf9jzm2w6n00000gn/T//ccWK92CN.s 			page 25


 1348 0305 98020000 		.4byte	0x298
 1349 0309 02       		.byte	0x2
 1350 030a 23       		.byte	0x23
 1351 030b 14       		.uleb128 0x14
 1352 030c 0C       		.uleb128 0xc
 1353 030d 73323200 		.ascii	"s22\000"
 1354 0311 07       		.byte	0x7
 1355 0312 1401     		.2byte	0x114
 1356 0314 98020000 		.4byte	0x298
 1357 0318 02       		.byte	0x2
 1358 0319 23       		.byte	0x23
 1359 031a 18       		.uleb128 0x18
 1360 031b 0C       		.uleb128 0xc
 1361 031c 73323300 		.ascii	"s23\000"
 1362 0320 07       		.byte	0x7
 1363 0321 1501     		.2byte	0x115
 1364 0323 98020000 		.4byte	0x298
 1365 0327 02       		.byte	0x2
 1366 0328 23       		.byte	0x23
 1367 0329 1C       		.uleb128 0x1c
 1368 032a 0C       		.uleb128 0xc
 1369 032b 73323400 		.ascii	"s24\000"
 1370 032f 07       		.byte	0x7
 1371 0330 1601     		.2byte	0x116
 1372 0332 98020000 		.4byte	0x298
 1373 0336 02       		.byte	0x2
 1374 0337 23       		.byte	0x23
 1375 0338 20       		.uleb128 0x20
 1376 0339 0C       		.uleb128 0xc
 1377 033a 73323500 		.ascii	"s25\000"
 1378 033e 07       		.byte	0x7
 1379 033f 1701     		.2byte	0x117
 1380 0341 98020000 		.4byte	0x298
 1381 0345 02       		.byte	0x2
 1382 0346 23       		.byte	0x23
 1383 0347 24       		.uleb128 0x24
 1384 0348 0C       		.uleb128 0xc
 1385 0349 73323600 		.ascii	"s26\000"
 1386 034d 07       		.byte	0x7
 1387 034e 1801     		.2byte	0x118
 1388 0350 98020000 		.4byte	0x298
 1389 0354 02       		.byte	0x2
 1390 0355 23       		.byte	0x23
 1391 0356 28       		.uleb128 0x28
 1392 0357 0C       		.uleb128 0xc
 1393 0358 73323700 		.ascii	"s27\000"
 1394 035c 07       		.byte	0x7
 1395 035d 1901     		.2byte	0x119
 1396 035f 98020000 		.4byte	0x298
 1397 0363 02       		.byte	0x2
 1398 0364 23       		.byte	0x23
 1399 0365 2C       		.uleb128 0x2c
 1400 0366 0C       		.uleb128 0xc
 1401 0367 73323800 		.ascii	"s28\000"
 1402 036b 07       		.byte	0x7
 1403 036c 1A01     		.2byte	0x11a
 1404 036e 98020000 		.4byte	0x298
ARM GAS  /var/folders/ng/s8655sgx1ys_4lf9jzm2w6n00000gn/T//ccWK92CN.s 			page 26


 1405 0372 02       		.byte	0x2
 1406 0373 23       		.byte	0x23
 1407 0374 30       		.uleb128 0x30
 1408 0375 0C       		.uleb128 0xc
 1409 0376 73323900 		.ascii	"s29\000"
 1410 037a 07       		.byte	0x7
 1411 037b 1B01     		.2byte	0x11b
 1412 037d 98020000 		.4byte	0x298
 1413 0381 02       		.byte	0x2
 1414 0382 23       		.byte	0x23
 1415 0383 34       		.uleb128 0x34
 1416 0384 0C       		.uleb128 0xc
 1417 0385 73333000 		.ascii	"s30\000"
 1418 0389 07       		.byte	0x7
 1419 038a 1C01     		.2byte	0x11c
 1420 038c 98020000 		.4byte	0x298
 1421 0390 02       		.byte	0x2
 1422 0391 23       		.byte	0x23
 1423 0392 38       		.uleb128 0x38
 1424 0393 0C       		.uleb128 0xc
 1425 0394 73333100 		.ascii	"s31\000"
 1426 0398 07       		.byte	0x7
 1427 0399 1D01     		.2byte	0x11d
 1428 039b 98020000 		.4byte	0x298
 1429 039f 02       		.byte	0x2
 1430 03a0 23       		.byte	0x23
 1431 03a1 3C       		.uleb128 0x3c
 1432 03a2 0C       		.uleb128 0xc
 1433 03a3 723400   		.ascii	"r4\000"
 1434 03a6 07       		.byte	0x7
 1435 03a7 1F01     		.2byte	0x11f
 1436 03a9 98020000 		.4byte	0x298
 1437 03ad 02       		.byte	0x2
 1438 03ae 23       		.byte	0x23
 1439 03af 40       		.uleb128 0x40
 1440 03b0 0C       		.uleb128 0xc
 1441 03b1 723500   		.ascii	"r5\000"
 1442 03b4 07       		.byte	0x7
 1443 03b5 2001     		.2byte	0x120
 1444 03b7 98020000 		.4byte	0x298
 1445 03bb 02       		.byte	0x2
 1446 03bc 23       		.byte	0x23
 1447 03bd 44       		.uleb128 0x44
 1448 03be 0C       		.uleb128 0xc
 1449 03bf 723600   		.ascii	"r6\000"
 1450 03c2 07       		.byte	0x7
 1451 03c3 2101     		.2byte	0x121
 1452 03c5 98020000 		.4byte	0x298
 1453 03c9 02       		.byte	0x2
 1454 03ca 23       		.byte	0x23
 1455 03cb 48       		.uleb128 0x48
 1456 03cc 0C       		.uleb128 0xc
 1457 03cd 723700   		.ascii	"r7\000"
 1458 03d0 07       		.byte	0x7
 1459 03d1 2201     		.2byte	0x122
 1460 03d3 98020000 		.4byte	0x298
 1461 03d7 02       		.byte	0x2
ARM GAS  /var/folders/ng/s8655sgx1ys_4lf9jzm2w6n00000gn/T//ccWK92CN.s 			page 27


 1462 03d8 23       		.byte	0x23
 1463 03d9 4C       		.uleb128 0x4c
 1464 03da 0C       		.uleb128 0xc
 1465 03db 723800   		.ascii	"r8\000"
 1466 03de 07       		.byte	0x7
 1467 03df 2301     		.2byte	0x123
 1468 03e1 98020000 		.4byte	0x298
 1469 03e5 02       		.byte	0x2
 1470 03e6 23       		.byte	0x23
 1471 03e7 50       		.uleb128 0x50
 1472 03e8 0C       		.uleb128 0xc
 1473 03e9 723900   		.ascii	"r9\000"
 1474 03ec 07       		.byte	0x7
 1475 03ed 2401     		.2byte	0x124
 1476 03ef 98020000 		.4byte	0x298
 1477 03f3 02       		.byte	0x2
 1478 03f4 23       		.byte	0x23
 1479 03f5 54       		.uleb128 0x54
 1480 03f6 0C       		.uleb128 0xc
 1481 03f7 72313000 		.ascii	"r10\000"
 1482 03fb 07       		.byte	0x7
 1483 03fc 2501     		.2byte	0x125
 1484 03fe 98020000 		.4byte	0x298
 1485 0402 02       		.byte	0x2
 1486 0403 23       		.byte	0x23
 1487 0404 58       		.uleb128 0x58
 1488 0405 0C       		.uleb128 0xc
 1489 0406 72313100 		.ascii	"r11\000"
 1490 040a 07       		.byte	0x7
 1491 040b 2601     		.2byte	0x126
 1492 040d 98020000 		.4byte	0x298
 1493 0411 02       		.byte	0x2
 1494 0412 23       		.byte	0x23
 1495 0413 5C       		.uleb128 0x5c
 1496 0414 0C       		.uleb128 0xc
 1497 0415 6C7200   		.ascii	"lr\000"
 1498 0418 07       		.byte	0x7
 1499 0419 2701     		.2byte	0x127
 1500 041b 98020000 		.4byte	0x298
 1501 041f 02       		.byte	0x2
 1502 0420 23       		.byte	0x23
 1503 0421 60       		.uleb128 0x60
 1504 0422 00       		.byte	0
 1505 0423 0B       		.uleb128 0xb
 1506 0424 E7020000 		.4byte	.LASF48
 1507 0428 04       		.byte	0x4
 1508 0429 07       		.byte	0x7
 1509 042a 3101     		.2byte	0x131
 1510 042c 40040000 		.4byte	0x440
 1511 0430 0C       		.uleb128 0xc
 1512 0431 72313300 		.ascii	"r13\000"
 1513 0435 07       		.byte	0x7
 1514 0436 3201     		.2byte	0x132
 1515 0438 40040000 		.4byte	0x440
 1516 043c 02       		.byte	0x2
 1517 043d 23       		.byte	0x23
 1518 043e 00       		.uleb128 0
ARM GAS  /var/folders/ng/s8655sgx1ys_4lf9jzm2w6n00000gn/T//ccWK92CN.s 			page 28


 1519 043f 00       		.byte	0
 1520 0440 09       		.uleb128 0x9
 1521 0441 04       		.byte	0x4
 1522 0442 A5020000 		.4byte	0x2a5
 1523 0446 0D       		.uleb128 0xd
 1524 0447 86000000 		.4byte	0x86
 1525 044b 04       		.uleb128 0x4
 1526 044c 04       		.byte	0x4
 1527 044d 07       		.byte	0x7
 1528 044e 7F030000 		.4byte	.LASF49
 1529 0452 0D       		.uleb128 0xd
 1530 0453 05010000 		.4byte	0x105
 1531 0457 05       		.uleb128 0x5
 1532 0458 56030000 		.4byte	.LASF50
 1533 045c 10       		.byte	0x10
 1534 045d 08       		.byte	0x8
 1535 045e 2C       		.byte	0x2c
 1536 045f 8E040000 		.4byte	0x48e
 1537 0463 06       		.uleb128 0x6
 1538 0464 0D010000 		.4byte	.LASF51
 1539 0468 08       		.byte	0x8
 1540 0469 2D       		.byte	0x2d
 1541 046a 6B020000 		.4byte	0x26b
 1542 046e 02       		.byte	0x2
 1543 046f 23       		.byte	0x23
 1544 0470 00       		.uleb128 0
 1545 0471 06       		.uleb128 0x6
 1546 0472 D2060000 		.4byte	.LASF52
 1547 0476 08       		.byte	0x8
 1548 0477 2F       		.byte	0x2f
 1549 0478 65020000 		.4byte	0x265
 1550 047c 02       		.byte	0x2
 1551 047d 23       		.byte	0x23
 1552 047e 08       		.uleb128 0x8
 1553 047f 06       		.uleb128 0x6
 1554 0480 C3050000 		.4byte	.LASF53
 1555 0484 08       		.byte	0x8
 1556 0485 31       		.byte	0x31
 1557 0486 8E040000 		.4byte	0x48e
 1558 048a 02       		.byte	0x2
 1559 048b 23       		.byte	0x23
 1560 048c 0C       		.uleb128 0xc
 1561 048d 00       		.byte	0
 1562 048e 09       		.uleb128 0x9
 1563 048f 04       		.byte	0x4
 1564 0490 57040000 		.4byte	0x457
 1565 0494 03       		.uleb128 0x3
 1566 0495 56030000 		.4byte	.LASF50
 1567 0499 08       		.byte	0x8
 1568 049a 33       		.byte	0x33
 1569 049b 57040000 		.4byte	0x457
 1570 049f 0E       		.uleb128 0xe
 1571 04a0 04       		.byte	0x4
 1572 04a1 06       		.byte	0x6
 1573 04a2 96       		.byte	0x96
 1574 04a3 D4040000 		.4byte	0x4d4
 1575 04a7 0F       		.uleb128 0xf
ARM GAS  /var/folders/ng/s8655sgx1ys_4lf9jzm2w6n00000gn/T//ccWK92CN.s 			page 29


 1576 04a8 14000000 		.4byte	.LASF54
 1577 04ac 06       		.byte	0x6
 1578 04ad 9D       		.byte	0x9d
 1579 04ae EF000000 		.4byte	0xef
 1580 04b2 0F       		.uleb128 0xf
 1581 04b3 6E000000 		.4byte	.LASF55
 1582 04b7 06       		.byte	0x6
 1583 04b8 A4       		.byte	0xa4
 1584 04b9 EF000000 		.4byte	0xef
 1585 04bd 0F       		.uleb128 0xf
 1586 04be 79060000 		.4byte	.LASF56
 1587 04c2 06       		.byte	0x6
 1588 04c3 AB       		.byte	0xab
 1589 04c4 A3020000 		.4byte	0x2a3
 1590 04c8 0F       		.uleb128 0xf
 1591 04c9 FF040000 		.4byte	.LASF57
 1592 04cd 06       		.byte	0x6
 1593 04ce B2       		.byte	0xb2
 1594 04cf FA000000 		.4byte	0xfa
 1595 04d3 00       		.byte	0
 1596 04d4 09       		.uleb128 0x9
 1597 04d5 04       		.byte	0x4
 1598 04d6 DA040000 		.4byte	0x4da
 1599 04da 10       		.uleb128 0x10
 1600 04db DF040000 		.4byte	0x4df
 1601 04df 04       		.uleb128 0x4
 1602 04e0 01       		.byte	0x1
 1603 04e1 08       		.byte	0x8
 1604 04e2 7B050000 		.4byte	.LASF58
 1605 04e6 09       		.uleb128 0x9
 1606 04e7 04       		.byte	0x4
 1607 04e8 94040000 		.4byte	0x494
 1608 04ec 11       		.uleb128 0x11
 1609 04ed 86000000 		.4byte	0x86
 1610 04f1 FC040000 		.4byte	0x4fc
 1611 04f5 12       		.uleb128 0x12
 1612 04f6 4B040000 		.4byte	0x44b
 1613 04fa 01       		.byte	0x1
 1614 04fb 00       		.byte	0
 1615 04fc 0D       		.uleb128 0xd
 1616 04fd 62000000 		.4byte	0x62
 1617 0501 0D       		.uleb128 0xd
 1618 0502 74000000 		.4byte	0x74
 1619 0506 13       		.uleb128 0x13
 1620 0507 18       		.byte	0x18
 1621 0508 09       		.byte	0x9
 1622 0509 B102     		.2byte	0x2b1
 1623 050b 69050000 		.4byte	0x569
 1624 050f 0C       		.uleb128 0xc
 1625 0510 435200   		.ascii	"CR\000"
 1626 0513 09       		.byte	0x9
 1627 0514 B302     		.2byte	0x2b3
 1628 0516 46040000 		.4byte	0x446
 1629 051a 02       		.byte	0x2
 1630 051b 23       		.byte	0x23
 1631 051c 00       		.uleb128 0
 1632 051d 14       		.uleb128 0x14
ARM GAS  /var/folders/ng/s8655sgx1ys_4lf9jzm2w6n00000gn/T//ccWK92CN.s 			page 30


 1633 051e E6050000 		.4byte	.LASF59
 1634 0522 09       		.byte	0x9
 1635 0523 B402     		.2byte	0x2b4
 1636 0525 46040000 		.4byte	0x446
 1637 0529 02       		.byte	0x2
 1638 052a 23       		.byte	0x23
 1639 052b 04       		.uleb128 0x4
 1640 052c 0C       		.uleb128 0xc
 1641 052d 50415200 		.ascii	"PAR\000"
 1642 0531 09       		.byte	0x9
 1643 0532 B502     		.2byte	0x2b5
 1644 0534 46040000 		.4byte	0x446
 1645 0538 02       		.byte	0x2
 1646 0539 23       		.byte	0x23
 1647 053a 08       		.uleb128 0x8
 1648 053b 14       		.uleb128 0x14
 1649 053c 08000000 		.4byte	.LASF60
 1650 0540 09       		.byte	0x9
 1651 0541 B602     		.2byte	0x2b6
 1652 0543 46040000 		.4byte	0x446
 1653 0547 02       		.byte	0x2
 1654 0548 23       		.byte	0x23
 1655 0549 0C       		.uleb128 0xc
 1656 054a 14       		.uleb128 0x14
 1657 054b 27060000 		.4byte	.LASF61
 1658 054f 09       		.byte	0x9
 1659 0550 B702     		.2byte	0x2b7
 1660 0552 46040000 		.4byte	0x446
 1661 0556 02       		.byte	0x2
 1662 0557 23       		.byte	0x23
 1663 0558 10       		.uleb128 0x10
 1664 0559 0C       		.uleb128 0xc
 1665 055a 46435200 		.ascii	"FCR\000"
 1666 055e 09       		.byte	0x9
 1667 055f B802     		.2byte	0x2b8
 1668 0561 46040000 		.4byte	0x446
 1669 0565 02       		.byte	0x2
 1670 0566 23       		.byte	0x23
 1671 0567 14       		.uleb128 0x14
 1672 0568 00       		.byte	0
 1673 0569 15       		.uleb128 0x15
 1674 056a EB050000 		.4byte	.LASF62
 1675 056e 09       		.byte	0x9
 1676 056f B902     		.2byte	0x2b9
 1677 0571 06050000 		.4byte	0x506
 1678 0575 13       		.uleb128 0x13
 1679 0576 90       		.byte	0x90
 1680 0577 09       		.byte	0x9
 1681 0578 5804     		.2byte	0x458
 1682 057a 62070000 		.4byte	0x762
 1683 057e 0C       		.uleb128 0xc
 1684 057f 435200   		.ascii	"CR\000"
 1685 0582 09       		.byte	0x9
 1686 0583 5A04     		.2byte	0x45a
 1687 0585 46040000 		.4byte	0x446
 1688 0589 02       		.byte	0x2
 1689 058a 23       		.byte	0x23
ARM GAS  /var/folders/ng/s8655sgx1ys_4lf9jzm2w6n00000gn/T//ccWK92CN.s 			page 31


 1690 058b 00       		.uleb128 0
 1691 058c 14       		.uleb128 0x14
 1692 058d 13030000 		.4byte	.LASF63
 1693 0591 09       		.byte	0x9
 1694 0592 5B04     		.2byte	0x45b
 1695 0594 46040000 		.4byte	0x446
 1696 0598 02       		.byte	0x2
 1697 0599 23       		.byte	0x23
 1698 059a 04       		.uleb128 0x4
 1699 059b 14       		.uleb128 0x14
 1700 059c 9B020000 		.4byte	.LASF64
 1701 05a0 09       		.byte	0x9
 1702 05a1 5C04     		.2byte	0x45c
 1703 05a3 46040000 		.4byte	0x446
 1704 05a7 02       		.byte	0x2
 1705 05a8 23       		.byte	0x23
 1706 05a9 08       		.uleb128 0x8
 1707 05aa 0C       		.uleb128 0xc
 1708 05ab 43495200 		.ascii	"CIR\000"
 1709 05af 09       		.byte	0x9
 1710 05b0 5D04     		.2byte	0x45d
 1711 05b2 46040000 		.4byte	0x446
 1712 05b6 02       		.byte	0x2
 1713 05b7 23       		.byte	0x23
 1714 05b8 0C       		.uleb128 0xc
 1715 05b9 14       		.uleb128 0x14
 1716 05ba EC000000 		.4byte	.LASF65
 1717 05be 09       		.byte	0x9
 1718 05bf 5E04     		.2byte	0x45e
 1719 05c1 46040000 		.4byte	0x446
 1720 05c5 02       		.byte	0x2
 1721 05c6 23       		.byte	0x23
 1722 05c7 10       		.uleb128 0x10
 1723 05c8 14       		.uleb128 0x14
 1724 05c9 AF050000 		.4byte	.LASF66
 1725 05cd 09       		.byte	0x9
 1726 05ce 5F04     		.2byte	0x45f
 1727 05d0 46040000 		.4byte	0x446
 1728 05d4 02       		.byte	0x2
 1729 05d5 23       		.byte	0x23
 1730 05d6 14       		.uleb128 0x14
 1731 05d7 14       		.uleb128 0x14
 1732 05d8 16050000 		.4byte	.LASF67
 1733 05dc 09       		.byte	0x9
 1734 05dd 6004     		.2byte	0x460
 1735 05df 46040000 		.4byte	0x446
 1736 05e3 02       		.byte	0x2
 1737 05e4 23       		.byte	0x23
 1738 05e5 18       		.uleb128 0x18
 1739 05e6 14       		.uleb128 0x14
 1740 05e7 19040000 		.4byte	.LASF68
 1741 05eb 09       		.byte	0x9
 1742 05ec 6104     		.2byte	0x461
 1743 05ee 86000000 		.4byte	0x86
 1744 05f2 02       		.byte	0x2
 1745 05f3 23       		.byte	0x23
 1746 05f4 1C       		.uleb128 0x1c
ARM GAS  /var/folders/ng/s8655sgx1ys_4lf9jzm2w6n00000gn/T//ccWK92CN.s 			page 32


 1747 05f5 14       		.uleb128 0x14
 1748 05f6 EE030000 		.4byte	.LASF69
 1749 05fa 09       		.byte	0x9
 1750 05fb 6204     		.2byte	0x462
 1751 05fd 46040000 		.4byte	0x446
 1752 0601 02       		.byte	0x2
 1753 0602 23       		.byte	0x23
 1754 0603 20       		.uleb128 0x20
 1755 0604 14       		.uleb128 0x14
 1756 0605 D2010000 		.4byte	.LASF70
 1757 0609 09       		.byte	0x9
 1758 060a 6304     		.2byte	0x463
 1759 060c 46040000 		.4byte	0x446
 1760 0610 02       		.byte	0x2
 1761 0611 23       		.byte	0x23
 1762 0612 24       		.uleb128 0x24
 1763 0613 14       		.uleb128 0x14
 1764 0614 23040000 		.4byte	.LASF71
 1765 0618 09       		.byte	0x9
 1766 0619 6404     		.2byte	0x464
 1767 061b EC040000 		.4byte	0x4ec
 1768 061f 02       		.byte	0x2
 1769 0620 23       		.byte	0x23
 1770 0621 28       		.uleb128 0x28
 1771 0622 14       		.uleb128 0x14
 1772 0623 A2060000 		.4byte	.LASF72
 1773 0627 09       		.byte	0x9
 1774 0628 6504     		.2byte	0x465
 1775 062a 46040000 		.4byte	0x446
 1776 062e 02       		.byte	0x2
 1777 062f 23       		.byte	0x23
 1778 0630 30       		.uleb128 0x30
 1779 0631 14       		.uleb128 0x14
 1780 0632 09060000 		.4byte	.LASF73
 1781 0636 09       		.byte	0x9
 1782 0637 6604     		.2byte	0x466
 1783 0639 46040000 		.4byte	0x446
 1784 063d 02       		.byte	0x2
 1785 063e 23       		.byte	0x23
 1786 063f 34       		.uleb128 0x34
 1787 0640 14       		.uleb128 0x14
 1788 0641 C1020000 		.4byte	.LASF74
 1789 0645 09       		.byte	0x9
 1790 0646 6704     		.2byte	0x467
 1791 0648 46040000 		.4byte	0x446
 1792 064c 02       		.byte	0x2
 1793 064d 23       		.byte	0x23
 1794 064e 38       		.uleb128 0x38
 1795 064f 14       		.uleb128 0x14
 1796 0650 2D040000 		.4byte	.LASF75
 1797 0654 09       		.byte	0x9
 1798 0655 6804     		.2byte	0x468
 1799 0657 86000000 		.4byte	0x86
 1800 065b 02       		.byte	0x2
 1801 065c 23       		.byte	0x23
 1802 065d 3C       		.uleb128 0x3c
 1803 065e 14       		.uleb128 0x14
ARM GAS  /var/folders/ng/s8655sgx1ys_4lf9jzm2w6n00000gn/T//ccWK92CN.s 			page 33


 1804 065f 55050000 		.4byte	.LASF76
 1805 0663 09       		.byte	0x9
 1806 0664 6904     		.2byte	0x469
 1807 0666 46040000 		.4byte	0x446
 1808 066a 02       		.byte	0x2
 1809 066b 23       		.byte	0x23
 1810 066c 40       		.uleb128 0x40
 1811 066d 14       		.uleb128 0x14
 1812 066e 0E050000 		.4byte	.LASF77
 1813 0672 09       		.byte	0x9
 1814 0673 6A04     		.2byte	0x46a
 1815 0675 46040000 		.4byte	0x446
 1816 0679 02       		.byte	0x2
 1817 067a 23       		.byte	0x23
 1818 067b 44       		.uleb128 0x44
 1819 067c 14       		.uleb128 0x14
 1820 067d 37040000 		.4byte	.LASF78
 1821 0681 09       		.byte	0x9
 1822 0682 6B04     		.2byte	0x46b
 1823 0684 EC040000 		.4byte	0x4ec
 1824 0688 02       		.byte	0x2
 1825 0689 23       		.byte	0x23
 1826 068a 48       		.uleb128 0x48
 1827 068b 14       		.uleb128 0x14
 1828 068c AE000000 		.4byte	.LASF79
 1829 0690 09       		.byte	0x9
 1830 0691 6C04     		.2byte	0x46c
 1831 0693 46040000 		.4byte	0x446
 1832 0697 02       		.byte	0x2
 1833 0698 23       		.byte	0x23
 1834 0699 50       		.uleb128 0x50
 1835 069a 14       		.uleb128 0x14
 1836 069b D5030000 		.4byte	.LASF80
 1837 069f 09       		.byte	0x9
 1838 06a0 6D04     		.2byte	0x46d
 1839 06a2 46040000 		.4byte	0x446
 1840 06a6 02       		.byte	0x2
 1841 06a7 23       		.byte	0x23
 1842 06a8 54       		.uleb128 0x54
 1843 06a9 14       		.uleb128 0x14
 1844 06aa E7040000 		.4byte	.LASF81
 1845 06ae 09       		.byte	0x9
 1846 06af 6E04     		.2byte	0x46e
 1847 06b1 46040000 		.4byte	0x446
 1848 06b5 02       		.byte	0x2
 1849 06b6 23       		.byte	0x23
 1850 06b7 58       		.uleb128 0x58
 1851 06b8 14       		.uleb128 0x14
 1852 06b9 41040000 		.4byte	.LASF82
 1853 06bd 09       		.byte	0x9
 1854 06be 6F04     		.2byte	0x46f
 1855 06c0 86000000 		.4byte	0x86
 1856 06c4 02       		.byte	0x2
 1857 06c5 23       		.byte	0x23
 1858 06c6 5C       		.uleb128 0x5c
 1859 06c7 14       		.uleb128 0x14
 1860 06c8 DB010000 		.4byte	.LASF83
ARM GAS  /var/folders/ng/s8655sgx1ys_4lf9jzm2w6n00000gn/T//ccWK92CN.s 			page 34


 1861 06cc 09       		.byte	0x9
 1862 06cd 7004     		.2byte	0x470
 1863 06cf 46040000 		.4byte	0x446
 1864 06d3 02       		.byte	0x2
 1865 06d4 23       		.byte	0x23
 1866 06d5 60       		.uleb128 0x60
 1867 06d6 14       		.uleb128 0x14
 1868 06d7 34030000 		.4byte	.LASF84
 1869 06db 09       		.byte	0x9
 1870 06dc 7104     		.2byte	0x471
 1871 06de 46040000 		.4byte	0x446
 1872 06e2 02       		.byte	0x2
 1873 06e3 23       		.byte	0x23
 1874 06e4 64       		.uleb128 0x64
 1875 06e5 14       		.uleb128 0x14
 1876 06e6 36050000 		.4byte	.LASF85
 1877 06ea 09       		.byte	0x9
 1878 06eb 7204     		.2byte	0x472
 1879 06ed EC040000 		.4byte	0x4ec
 1880 06f1 02       		.byte	0x2
 1881 06f2 23       		.byte	0x23
 1882 06f3 68       		.uleb128 0x68
 1883 06f4 14       		.uleb128 0x14
 1884 06f5 4C060000 		.4byte	.LASF86
 1885 06f9 09       		.byte	0x9
 1886 06fa 7304     		.2byte	0x473
 1887 06fc 46040000 		.4byte	0x446
 1888 0700 02       		.byte	0x2
 1889 0701 23       		.byte	0x23
 1890 0702 70       		.uleb128 0x70
 1891 0703 0C       		.uleb128 0xc
 1892 0704 43535200 		.ascii	"CSR\000"
 1893 0708 09       		.byte	0x9
 1894 0709 7404     		.2byte	0x474
 1895 070b 46040000 		.4byte	0x446
 1896 070f 02       		.byte	0x2
 1897 0710 23       		.byte	0x23
 1898 0711 74       		.uleb128 0x74
 1899 0712 14       		.uleb128 0x14
 1900 0713 52040000 		.4byte	.LASF87
 1901 0717 09       		.byte	0x9
 1902 0718 7504     		.2byte	0x475
 1903 071a EC040000 		.4byte	0x4ec
 1904 071e 02       		.byte	0x2
 1905 071f 23       		.byte	0x23
 1906 0720 78       		.uleb128 0x78
 1907 0721 14       		.uleb128 0x14
 1908 0722 37060000 		.4byte	.LASF88
 1909 0726 09       		.byte	0x9
 1910 0727 7604     		.2byte	0x476
 1911 0729 46040000 		.4byte	0x446
 1912 072d 03       		.byte	0x3
 1913 072e 23       		.byte	0x23
 1914 072f 8001     		.uleb128 0x80
 1915 0731 14       		.uleb128 0x14
 1916 0732 02030000 		.4byte	.LASF89
 1917 0736 09       		.byte	0x9
ARM GAS  /var/folders/ng/s8655sgx1ys_4lf9jzm2w6n00000gn/T//ccWK92CN.s 			page 35


 1918 0737 7704     		.2byte	0x477
 1919 0739 46040000 		.4byte	0x446
 1920 073d 03       		.byte	0x3
 1921 073e 23       		.byte	0x23
 1922 073f 8401     		.uleb128 0x84
 1923 0741 14       		.uleb128 0x14
 1924 0742 07040000 		.4byte	.LASF90
 1925 0746 09       		.byte	0x9
 1926 0747 7804     		.2byte	0x478
 1927 0749 46040000 		.4byte	0x446
 1928 074d 03       		.byte	0x3
 1929 074e 23       		.byte	0x23
 1930 074f 8801     		.uleb128 0x88
 1931 0751 14       		.uleb128 0x14
 1932 0752 C5000000 		.4byte	.LASF91
 1933 0756 09       		.byte	0x9
 1934 0757 7904     		.2byte	0x479
 1935 0759 46040000 		.4byte	0x446
 1936 075d 03       		.byte	0x3
 1937 075e 23       		.byte	0x23
 1938 075f 8C01     		.uleb128 0x8c
 1939 0761 00       		.byte	0
 1940 0762 15       		.uleb128 0x15
 1941 0763 CF020000 		.4byte	.LASF92
 1942 0767 09       		.byte	0x9
 1943 0768 7B04     		.2byte	0x47b
 1944 076a 75050000 		.4byte	0x575
 1945 076e 13       		.uleb128 0x13
 1946 076f 24       		.byte	0x24
 1947 0770 09       		.byte	0x9
 1948 0771 E304     		.2byte	0x4e3
 1949 0773 84080000 		.4byte	0x884
 1950 0777 0C       		.uleb128 0xc
 1951 0778 43523100 		.ascii	"CR1\000"
 1952 077c 09       		.byte	0x9
 1953 077d E504     		.2byte	0x4e5
 1954 077f FC040000 		.4byte	0x4fc
 1955 0783 02       		.byte	0x2
 1956 0784 23       		.byte	0x23
 1957 0785 00       		.uleb128 0
 1958 0786 14       		.uleb128 0x14
 1959 0787 19040000 		.4byte	.LASF68
 1960 078b 09       		.byte	0x9
 1961 078c E604     		.2byte	0x4e6
 1962 078e 62000000 		.4byte	0x62
 1963 0792 02       		.byte	0x2
 1964 0793 23       		.byte	0x23
 1965 0794 02       		.uleb128 0x2
 1966 0795 0C       		.uleb128 0xc
 1967 0796 43523200 		.ascii	"CR2\000"
 1968 079a 09       		.byte	0x9
 1969 079b E704     		.2byte	0x4e7
 1970 079d FC040000 		.4byte	0x4fc
 1971 07a1 02       		.byte	0x2
 1972 07a2 23       		.byte	0x23
 1973 07a3 04       		.uleb128 0x4
 1974 07a4 14       		.uleb128 0x14
ARM GAS  /var/folders/ng/s8655sgx1ys_4lf9jzm2w6n00000gn/T//ccWK92CN.s 			page 36


 1975 07a5 23040000 		.4byte	.LASF71
 1976 07a9 09       		.byte	0x9
 1977 07aa E804     		.2byte	0x4e8
 1978 07ac 62000000 		.4byte	0x62
 1979 07b0 02       		.byte	0x2
 1980 07b1 23       		.byte	0x23
 1981 07b2 06       		.uleb128 0x6
 1982 07b3 0C       		.uleb128 0xc
 1983 07b4 535200   		.ascii	"SR\000"
 1984 07b7 09       		.byte	0x9
 1985 07b8 E904     		.2byte	0x4e9
 1986 07ba FC040000 		.4byte	0x4fc
 1987 07be 02       		.byte	0x2
 1988 07bf 23       		.byte	0x23
 1989 07c0 08       		.uleb128 0x8
 1990 07c1 14       		.uleb128 0x14
 1991 07c2 2D040000 		.4byte	.LASF75
 1992 07c6 09       		.byte	0x9
 1993 07c7 EA04     		.2byte	0x4ea
 1994 07c9 62000000 		.4byte	0x62
 1995 07cd 02       		.byte	0x2
 1996 07ce 23       		.byte	0x23
 1997 07cf 0A       		.uleb128 0xa
 1998 07d0 0C       		.uleb128 0xc
 1999 07d1 445200   		.ascii	"DR\000"
 2000 07d4 09       		.byte	0x9
 2001 07d5 EB04     		.2byte	0x4eb
 2002 07d7 FC040000 		.4byte	0x4fc
 2003 07db 02       		.byte	0x2
 2004 07dc 23       		.byte	0x23
 2005 07dd 0C       		.uleb128 0xc
 2006 07de 14       		.uleb128 0x14
 2007 07df 37040000 		.4byte	.LASF78
 2008 07e3 09       		.byte	0x9
 2009 07e4 EC04     		.2byte	0x4ec
 2010 07e6 62000000 		.4byte	0x62
 2011 07ea 02       		.byte	0x2
 2012 07eb 23       		.byte	0x23
 2013 07ec 0E       		.uleb128 0xe
 2014 07ed 14       		.uleb128 0x14
 2015 07ee FC030000 		.4byte	.LASF93
 2016 07f2 09       		.byte	0x9
 2017 07f3 ED04     		.2byte	0x4ed
 2018 07f5 FC040000 		.4byte	0x4fc
 2019 07f9 02       		.byte	0x2
 2020 07fa 23       		.byte	0x23
 2021 07fb 10       		.uleb128 0x10
 2022 07fc 14       		.uleb128 0x14
 2023 07fd 41040000 		.4byte	.LASF82
 2024 0801 09       		.byte	0x9
 2025 0802 EE04     		.2byte	0x4ee
 2026 0804 62000000 		.4byte	0x62
 2027 0808 02       		.byte	0x2
 2028 0809 23       		.byte	0x23
 2029 080a 12       		.uleb128 0x12
 2030 080b 14       		.uleb128 0x14
 2031 080c 51060000 		.4byte	.LASF94
ARM GAS  /var/folders/ng/s8655sgx1ys_4lf9jzm2w6n00000gn/T//ccWK92CN.s 			page 37


 2032 0810 09       		.byte	0x9
 2033 0811 EF04     		.2byte	0x4ef
 2034 0813 FC040000 		.4byte	0x4fc
 2035 0817 02       		.byte	0x2
 2036 0818 23       		.byte	0x23
 2037 0819 14       		.uleb128 0x14
 2038 081a 14       		.uleb128 0x14
 2039 081b 36050000 		.4byte	.LASF85
 2040 081f 09       		.byte	0x9
 2041 0820 F004     		.2byte	0x4f0
 2042 0822 62000000 		.4byte	0x62
 2043 0826 02       		.byte	0x2
 2044 0827 23       		.byte	0x23
 2045 0828 16       		.uleb128 0x16
 2046 0829 14       		.uleb128 0x14
 2047 082a 12040000 		.4byte	.LASF95
 2048 082e 09       		.byte	0x9
 2049 082f F104     		.2byte	0x4f1
 2050 0831 FC040000 		.4byte	0x4fc
 2051 0835 02       		.byte	0x2
 2052 0836 23       		.byte	0x23
 2053 0837 18       		.uleb128 0x18
 2054 0838 14       		.uleb128 0x14
 2055 0839 52040000 		.4byte	.LASF87
 2056 083d 09       		.byte	0x9
 2057 083e F204     		.2byte	0x4f2
 2058 0840 62000000 		.4byte	0x62
 2059 0844 02       		.byte	0x2
 2060 0845 23       		.byte	0x23
 2061 0846 1A       		.uleb128 0x1a
 2062 0847 14       		.uleb128 0x14
 2063 0848 FE000000 		.4byte	.LASF96
 2064 084c 09       		.byte	0x9
 2065 084d F304     		.2byte	0x4f3
 2066 084f FC040000 		.4byte	0x4fc
 2067 0853 02       		.byte	0x2
 2068 0854 23       		.byte	0x23
 2069 0855 1C       		.uleb128 0x1c
 2070 0856 14       		.uleb128 0x14
 2071 0857 5C040000 		.4byte	.LASF97
 2072 085b 09       		.byte	0x9
 2073 085c F404     		.2byte	0x4f4
 2074 085e 62000000 		.4byte	0x62
 2075 0862 02       		.byte	0x2
 2076 0863 23       		.byte	0x23
 2077 0864 1E       		.uleb128 0x1e
 2078 0865 14       		.uleb128 0x14
 2079 0866 79030000 		.4byte	.LASF98
 2080 086a 09       		.byte	0x9
 2081 086b F504     		.2byte	0x4f5
 2082 086d FC040000 		.4byte	0x4fc
 2083 0871 02       		.byte	0x2
 2084 0872 23       		.byte	0x23
 2085 0873 20       		.uleb128 0x20
 2086 0874 14       		.uleb128 0x14
 2087 0875 66040000 		.4byte	.LASF99
 2088 0879 09       		.byte	0x9
ARM GAS  /var/folders/ng/s8655sgx1ys_4lf9jzm2w6n00000gn/T//ccWK92CN.s 			page 38


 2089 087a F604     		.2byte	0x4f6
 2090 087c 62000000 		.4byte	0x62
 2091 0880 02       		.byte	0x2
 2092 0881 23       		.byte	0x23
 2093 0882 22       		.uleb128 0x22
 2094 0883 00       		.byte	0
 2095 0884 15       		.uleb128 0x15
 2096 0885 6F050000 		.4byte	.LASF100
 2097 0889 09       		.byte	0x9
 2098 088a F704     		.2byte	0x4f7
 2099 088c 6E070000 		.4byte	0x76e
 2100 0890 08       		.uleb128 0x8
 2101 0891 0C       		.byte	0xc
 2102 0892 0A       		.byte	0xa
 2103 0893 DA       		.byte	0xda
 2104 0894 DF080000 		.4byte	0x8df
 2105 0898 06       		.uleb128 0x6
 2106 0899 34000000 		.4byte	.LASF101
 2107 089d 0A       		.byte	0xa
 2108 089e DB       		.byte	0xdb
 2109 089f DF080000 		.4byte	0x8df
 2110 08a3 02       		.byte	0x2
 2111 08a4 23       		.byte	0x23
 2112 08a5 00       		.uleb128 0
 2113 08a6 06       		.uleb128 0x6
 2114 08a7 31050000 		.4byte	.LASF102
 2115 08ab 0A       		.byte	0xa
 2116 08ac DC       		.byte	0xdc
 2117 08ad E5080000 		.4byte	0x8e5
 2118 08b1 02       		.byte	0x2
 2119 08b2 23       		.byte	0x23
 2120 08b3 04       		.uleb128 0x4
 2121 08b4 06       		.uleb128 0x6
 2122 08b5 E0020000 		.4byte	.LASF103
 2123 08b9 0A       		.byte	0xa
 2124 08ba DD       		.byte	0xdd
 2125 08bb 49000000 		.4byte	0x49
 2126 08bf 02       		.byte	0x2
 2127 08c0 23       		.byte	0x23
 2128 08c1 08       		.uleb128 0x8
 2129 08c2 06       		.uleb128 0x6
 2130 08c3 48020000 		.4byte	.LASF104
 2131 08c7 0A       		.byte	0xa
 2132 08c8 DF       		.byte	0xdf
 2133 08c9 49000000 		.4byte	0x49
 2134 08cd 02       		.byte	0x2
 2135 08ce 23       		.byte	0x23
 2136 08cf 09       		.uleb128 0x9
 2137 08d0 06       		.uleb128 0x6
 2138 08d1 1B000000 		.4byte	.LASF105
 2139 08d5 0A       		.byte	0xa
 2140 08d6 E0       		.byte	0xe0
 2141 08d7 49000000 		.4byte	0x49
 2142 08db 02       		.byte	0x2
 2143 08dc 23       		.byte	0x23
 2144 08dd 0A       		.uleb128 0xa
 2145 08de 00       		.byte	0
ARM GAS  /var/folders/ng/s8655sgx1ys_4lf9jzm2w6n00000gn/T//ccWK92CN.s 			page 39


 2146 08df 09       		.uleb128 0x9
 2147 08e0 04       		.byte	0x4
 2148 08e1 69050000 		.4byte	0x569
 2149 08e5 09       		.uleb128 0x9
 2150 08e6 04       		.byte	0x4
 2151 08e7 46040000 		.4byte	0x446
 2152 08eb 03       		.uleb128 0x3
 2153 08ec 9A040000 		.4byte	.LASF106
 2154 08f0 0A       		.byte	0xa
 2155 08f1 E1       		.byte	0xe1
 2156 08f2 90080000 		.4byte	0x890
 2157 08f6 03       		.uleb128 0x3
 2158 08f7 A7020000 		.4byte	.LASF107
 2159 08fb 0A       		.byte	0xa
 2160 08fc EA       		.byte	0xea
 2161 08fd 01090000 		.4byte	0x901
 2162 0901 09       		.uleb128 0x9
 2163 0902 04       		.byte	0x4
 2164 0903 07090000 		.4byte	0x907
 2165 0907 16       		.uleb128 0x16
 2166 0908 01       		.byte	0x1
 2167 0909 18090000 		.4byte	0x918
 2168 090d 17       		.uleb128 0x17
 2169 090e A3020000 		.4byte	0x2a3
 2170 0912 17       		.uleb128 0x17
 2171 0913 86000000 		.4byte	0x86
 2172 0917 00       		.byte	0
 2173 0918 08       		.uleb128 0x8
 2174 0919 04       		.byte	0x4
 2175 091a 0B       		.byte	0xb
 2176 091b 96       		.byte	0x96
 2177 091c 3D090000 		.4byte	0x93d
 2178 0920 07       		.uleb128 0x7
 2179 0921 73657400 		.ascii	"set\000"
 2180 0925 0B       		.byte	0xb
 2181 0926 97       		.byte	0x97
 2182 0927 62000000 		.4byte	0x62
 2183 092b 02       		.byte	0x2
 2184 092c 23       		.byte	0x23
 2185 092d 00       		.uleb128 0
 2186 092e 06       		.uleb128 0x6
 2187 092f 88030000 		.4byte	.LASF108
 2188 0933 0B       		.byte	0xb
 2189 0934 98       		.byte	0x98
 2190 0935 62000000 		.4byte	0x62
 2191 0939 02       		.byte	0x2
 2192 093a 23       		.byte	0x23
 2193 093b 02       		.uleb128 0x2
 2194 093c 00       		.byte	0
 2195 093d 0E       		.uleb128 0xe
 2196 093e 04       		.byte	0x4
 2197 093f 0B       		.byte	0xb
 2198 0940 94       		.byte	0x94
 2199 0941 58090000 		.4byte	0x958
 2200 0945 18       		.uleb128 0x18
 2201 0946 5700     		.ascii	"W\000"
 2202 0948 0B       		.byte	0xb
ARM GAS  /var/folders/ng/s8655sgx1ys_4lf9jzm2w6n00000gn/T//ccWK92CN.s 			page 40


 2203 0949 95       		.byte	0x95
 2204 094a 86000000 		.4byte	0x86
 2205 094e 18       		.uleb128 0x18
 2206 094f 4800     		.ascii	"H\000"
 2207 0951 0B       		.byte	0xb
 2208 0952 99       		.byte	0x99
 2209 0953 18090000 		.4byte	0x918
 2210 0957 00       		.byte	0
 2211 0958 08       		.uleb128 0x8
 2212 0959 28       		.byte	0x28
 2213 095a 0B       		.byte	0xb
 2214 095b 8C       		.byte	0x8c
 2215 095c ED090000 		.4byte	0x9ed
 2216 0960 06       		.uleb128 0x6
 2217 0961 41000000 		.4byte	.LASF109
 2218 0965 0B       		.byte	0xb
 2219 0966 8E       		.byte	0x8e
 2220 0967 46040000 		.4byte	0x446
 2221 096b 02       		.byte	0x2
 2222 096c 23       		.byte	0x23
 2223 096d 00       		.uleb128 0
 2224 096e 06       		.uleb128 0x6
 2225 096f 22000000 		.4byte	.LASF110
 2226 0973 0B       		.byte	0xb
 2227 0974 8F       		.byte	0x8f
 2228 0975 46040000 		.4byte	0x446
 2229 0979 02       		.byte	0x2
 2230 097a 23       		.byte	0x23
 2231 097b 04       		.uleb128 0x4
 2232 097c 06       		.uleb128 0x6
 2233 097d DF030000 		.4byte	.LASF111
 2234 0981 0B       		.byte	0xb
 2235 0982 90       		.byte	0x90
 2236 0983 46040000 		.4byte	0x446
 2237 0987 02       		.byte	0x2
 2238 0988 23       		.byte	0x23
 2239 0989 08       		.uleb128 0x8
 2240 098a 06       		.uleb128 0x6
 2241 098b 68000000 		.4byte	.LASF112
 2242 098f 0B       		.byte	0xb
 2243 0990 91       		.byte	0x91
 2244 0991 46040000 		.4byte	0x446
 2245 0995 02       		.byte	0x2
 2246 0996 23       		.byte	0x23
 2247 0997 0C       		.uleb128 0xc
 2248 0998 07       		.uleb128 0x7
 2249 0999 49445200 		.ascii	"IDR\000"
 2250 099d 0B       		.byte	0xb
 2251 099e 92       		.byte	0x92
 2252 099f 46040000 		.4byte	0x446
 2253 09a3 02       		.byte	0x2
 2254 09a4 23       		.byte	0x23
 2255 09a5 10       		.uleb128 0x10
 2256 09a6 07       		.uleb128 0x7
 2257 09a7 4F445200 		.ascii	"ODR\000"
 2258 09ab 0B       		.byte	0xb
 2259 09ac 93       		.byte	0x93
ARM GAS  /var/folders/ng/s8655sgx1ys_4lf9jzm2w6n00000gn/T//ccWK92CN.s 			page 41


 2260 09ad 46040000 		.4byte	0x446
 2261 09b1 02       		.byte	0x2
 2262 09b2 23       		.byte	0x23
 2263 09b3 14       		.uleb128 0x14
 2264 09b4 06       		.uleb128 0x6
 2265 09b5 E7000000 		.4byte	.LASF113
 2266 09b9 0B       		.byte	0xb
 2267 09ba 9A       		.byte	0x9a
 2268 09bb ED090000 		.4byte	0x9ed
 2269 09bf 02       		.byte	0x2
 2270 09c0 23       		.byte	0x23
 2271 09c1 18       		.uleb128 0x18
 2272 09c2 06       		.uleb128 0x6
 2273 09c3 DB020000 		.4byte	.LASF114
 2274 09c7 0B       		.byte	0xb
 2275 09c8 9B       		.byte	0x9b
 2276 09c9 46040000 		.4byte	0x446
 2277 09cd 02       		.byte	0x2
 2278 09ce 23       		.byte	0x23
 2279 09cf 1C       		.uleb128 0x1c
 2280 09d0 06       		.uleb128 0x6
 2281 09d1 02040000 		.4byte	.LASF115
 2282 09d5 0B       		.byte	0xb
 2283 09d6 9C       		.byte	0x9c
 2284 09d7 46040000 		.4byte	0x446
 2285 09db 02       		.byte	0x2
 2286 09dc 23       		.byte	0x23
 2287 09dd 20       		.uleb128 0x20
 2288 09de 06       		.uleb128 0x6
 2289 09df F7030000 		.4byte	.LASF116
 2290 09e3 0B       		.byte	0xb
 2291 09e4 9D       		.byte	0x9d
 2292 09e5 46040000 		.4byte	0x446
 2293 09e9 02       		.byte	0x2
 2294 09ea 23       		.byte	0x23
 2295 09eb 24       		.uleb128 0x24
 2296 09ec 00       		.byte	0
 2297 09ed 0D       		.uleb128 0xd
 2298 09ee 3D090000 		.4byte	0x93d
 2299 09f2 03       		.uleb128 0x3
 2300 09f3 07020000 		.4byte	.LASF117
 2301 09f7 0B       		.byte	0xb
 2302 09f8 9E       		.byte	0x9e
 2303 09f9 58090000 		.4byte	0x958
 2304 09fd 03       		.uleb128 0x3
 2305 09fe B3030000 		.4byte	.LASF118
 2306 0a02 0B       		.byte	0xb
 2307 0a03 F0       		.byte	0xf0
 2308 0a04 86000000 		.4byte	0x86
 2309 0a08 03       		.uleb128 0x3
 2310 0a09 FE050000 		.4byte	.LASF119
 2311 0a0d 0B       		.byte	0xb
 2312 0a0e FD       		.byte	0xfd
 2313 0a0f 130A0000 		.4byte	0xa13
 2314 0a13 09       		.uleb128 0x9
 2315 0a14 04       		.byte	0x4
 2316 0a15 F2090000 		.4byte	0x9f2
ARM GAS  /var/folders/ng/s8655sgx1ys_4lf9jzm2w6n00000gn/T//ccWK92CN.s 			page 42


 2317 0a19 09       		.uleb128 0x9
 2318 0a1a 04       		.byte	0x4
 2319 0a1b 1F0A0000 		.4byte	0xa1f
 2320 0a1f 10       		.uleb128 0x10
 2321 0a20 EB080000 		.4byte	0x8eb
 2322 0a24 19       		.uleb128 0x19
 2323 0a25 01       		.byte	0x1
 2324 0a26 0C       		.byte	0xc
 2325 0a27 55       		.byte	0x55
 2326 0a28 4B0A0000 		.4byte	0xa4b
 2327 0a2c 1A       		.uleb128 0x1a
 2328 0a2d 2C060000 		.4byte	.LASF120
 2329 0a31 00       		.sleb128 0
 2330 0a32 1A       		.uleb128 0x1a
 2331 0a33 F5000000 		.4byte	.LASF121
 2332 0a37 01       		.sleb128 1
 2333 0a38 1A       		.uleb128 0x1a
 2334 0a39 5E000000 		.4byte	.LASF122
 2335 0a3d 02       		.sleb128 2
 2336 0a3e 1A       		.uleb128 0x1a
 2337 0a3f 29000000 		.4byte	.LASF123
 2338 0a43 03       		.sleb128 3
 2339 0a44 1A       		.uleb128 0x1a
 2340 0a45 91050000 		.4byte	.LASF124
 2341 0a49 04       		.sleb128 4
 2342 0a4a 00       		.byte	0
 2343 0a4b 03       		.uleb128 0x3
 2344 0a4c B8050000 		.4byte	.LASF125
 2345 0a50 0C       		.byte	0xc
 2346 0a51 5B       		.byte	0x5b
 2347 0a52 240A0000 		.4byte	0xa24
 2348 0a56 15       		.uleb128 0x15
 2349 0a57 8A000000 		.4byte	.LASF126
 2350 0a5b 0D       		.byte	0xd
 2351 0a5c E701     		.2byte	0x1e7
 2352 0a5e 620A0000 		.4byte	0xa62
 2353 0a62 0B       		.uleb128 0xb
 2354 0a63 8A000000 		.4byte	.LASF126
 2355 0a67 30       		.byte	0x30
 2356 0a68 0D       		.byte	0xd
 2357 0a69 0B02     		.2byte	0x20b
 2358 0a6b F70A0000 		.4byte	0xaf7
 2359 0a6f 14       		.uleb128 0x14
 2360 0a70 A8010000 		.4byte	.LASF127
 2361 0a74 0D       		.byte	0xd
 2362 0a75 0F02     		.2byte	0x20f
 2363 0a77 4B0A0000 		.4byte	0xa4b
 2364 0a7b 02       		.byte	0x2
 2365 0a7c 23       		.byte	0x23
 2366 0a7d 00       		.uleb128 0
 2367 0a7e 14       		.uleb128 0x14
 2368 0a7f 9E050000 		.4byte	.LASF128
 2369 0a83 0D       		.byte	0xd
 2370 0a84 1302     		.2byte	0x213
 2371 0a86 6D0B0000 		.4byte	0xb6d
 2372 0a8a 02       		.byte	0x2
 2373 0a8b 23       		.byte	0x23
ARM GAS  /var/folders/ng/s8655sgx1ys_4lf9jzm2w6n00000gn/T//ccWK92CN.s 			page 43


 2374 0a8c 04       		.uleb128 0x4
 2375 0a8d 14       		.uleb128 0x14
 2376 0a8e DF050000 		.4byte	.LASF129
 2377 0a92 0D       		.byte	0xd
 2378 0a93 1802     		.2byte	0x218
 2379 0a95 65020000 		.4byte	0x265
 2380 0a99 02       		.byte	0x2
 2381 0a9a 23       		.byte	0x23
 2382 0a9b 08       		.uleb128 0x8
 2383 0a9c 14       		.uleb128 0x14
 2384 0a9d 78040000 		.4byte	.LASF130
 2385 0aa1 0D       		.byte	0xd
 2386 0aa2 1F02     		.2byte	0x21f
 2387 0aa4 94040000 		.4byte	0x494
 2388 0aa8 02       		.byte	0x2
 2389 0aa9 23       		.byte	0x23
 2390 0aaa 0C       		.uleb128 0xc
 2391 0aab 0C       		.uleb128 0xc
 2392 0aac 73706900 		.ascii	"spi\000"
 2393 0ab0 0D       		.byte	0xd
 2394 0ab1 2B02     		.2byte	0x22b
 2395 0ab3 780B0000 		.4byte	0xb78
 2396 0ab7 02       		.byte	0x2
 2397 0ab8 23       		.byte	0x23
 2398 0ab9 1C       		.uleb128 0x1c
 2399 0aba 14       		.uleb128 0x14
 2400 0abb 3B000000 		.4byte	.LASF131
 2401 0abf 0D       		.byte	0xd
 2402 0ac0 2F02     		.2byte	0x22f
 2403 0ac2 190A0000 		.4byte	0xa19
 2404 0ac6 02       		.byte	0x2
 2405 0ac7 23       		.byte	0x23
 2406 0ac8 20       		.uleb128 0x20
 2407 0ac9 14       		.uleb128 0x14
 2408 0aca 14020000 		.4byte	.LASF132
 2409 0ace 0D       		.byte	0xd
 2410 0acf 3302     		.2byte	0x233
 2411 0ad1 190A0000 		.4byte	0xa19
 2412 0ad5 02       		.byte	0x2
 2413 0ad6 23       		.byte	0x23
 2414 0ad7 24       		.uleb128 0x24
 2415 0ad8 14       		.uleb128 0x14
 2416 0ad9 FD010000 		.4byte	.LASF133
 2417 0add 0D       		.byte	0xd
 2418 0ade 3702     		.2byte	0x237
 2419 0ae0 86000000 		.4byte	0x86
 2420 0ae4 02       		.byte	0x2
 2421 0ae5 23       		.byte	0x23
 2422 0ae6 28       		.uleb128 0x28
 2423 0ae7 14       		.uleb128 0x14
 2424 0ae8 60020000 		.4byte	.LASF134
 2425 0aec 0D       		.byte	0xd
 2426 0aed 3B02     		.2byte	0x23b
 2427 0aef 86000000 		.4byte	0x86
 2428 0af3 02       		.byte	0x2
 2429 0af4 23       		.byte	0x23
 2430 0af5 2C       		.uleb128 0x2c
ARM GAS  /var/folders/ng/s8655sgx1ys_4lf9jzm2w6n00000gn/T//ccWK92CN.s 			page 44


 2431 0af6 00       		.byte	0
 2432 0af7 15       		.uleb128 0x15
 2433 0af8 52020000 		.4byte	.LASF135
 2434 0afc 0D       		.byte	0xd
 2435 0afd EF01     		.2byte	0x1ef
 2436 0aff 030B0000 		.4byte	0xb03
 2437 0b03 09       		.uleb128 0x9
 2438 0b04 04       		.byte	0x4
 2439 0b05 090B0000 		.4byte	0xb09
 2440 0b09 16       		.uleb128 0x16
 2441 0b0a 01       		.byte	0x1
 2442 0b0b 150B0000 		.4byte	0xb15
 2443 0b0f 17       		.uleb128 0x17
 2444 0b10 150B0000 		.4byte	0xb15
 2445 0b14 00       		.byte	0
 2446 0b15 09       		.uleb128 0x9
 2447 0b16 04       		.byte	0x4
 2448 0b17 560A0000 		.4byte	0xa56
 2449 0b1b 13       		.uleb128 0x13
 2450 0b1c 0C       		.byte	0xc
 2451 0b1d 0D       		.byte	0xd
 2452 0b1e F401     		.2byte	0x1f4
 2453 0b20 610B0000 		.4byte	0xb61
 2454 0b24 14       		.uleb128 0x14
 2455 0b25 F6010000 		.4byte	.LASF136
 2456 0b29 0D       		.byte	0xd
 2457 0b2a F801     		.2byte	0x1f8
 2458 0b2c F70A0000 		.4byte	0xaf7
 2459 0b30 02       		.byte	0x2
 2460 0b31 23       		.byte	0x23
 2461 0b32 00       		.uleb128 0
 2462 0b33 14       		.uleb128 0x14
 2463 0b34 94000000 		.4byte	.LASF137
 2464 0b38 0D       		.byte	0xd
 2465 0b39 FD01     		.2byte	0x1fd
 2466 0b3b 080A0000 		.4byte	0xa08
 2467 0b3f 02       		.byte	0x2
 2468 0b40 23       		.byte	0x23
 2469 0b41 04       		.uleb128 0x4
 2470 0b42 14       		.uleb128 0x14
 2471 0b43 BF000000 		.4byte	.LASF138
 2472 0b47 0D       		.byte	0xd
 2473 0b48 0102     		.2byte	0x201
 2474 0b4a 62000000 		.4byte	0x62
 2475 0b4e 02       		.byte	0x2
 2476 0b4f 23       		.byte	0x23
 2477 0b50 08       		.uleb128 0x8
 2478 0b51 0C       		.uleb128 0xc
 2479 0b52 63723100 		.ascii	"cr1\000"
 2480 0b56 0D       		.byte	0xd
 2481 0b57 0502     		.2byte	0x205
 2482 0b59 62000000 		.4byte	0x62
 2483 0b5d 02       		.byte	0x2
 2484 0b5e 23       		.byte	0x23
 2485 0b5f 0A       		.uleb128 0xa
 2486 0b60 00       		.byte	0
 2487 0b61 15       		.uleb128 0x15
ARM GAS  /var/folders/ng/s8655sgx1ys_4lf9jzm2w6n00000gn/T//ccWK92CN.s 			page 45


 2488 0b62 C2060000 		.4byte	.LASF139
 2489 0b66 0D       		.byte	0xd
 2490 0b67 0602     		.2byte	0x206
 2491 0b69 1B0B0000 		.4byte	0xb1b
 2492 0b6d 09       		.uleb128 0x9
 2493 0b6e 04       		.byte	0x4
 2494 0b6f 730B0000 		.4byte	0xb73
 2495 0b73 10       		.uleb128 0x10
 2496 0b74 610B0000 		.4byte	0xb61
 2497 0b78 09       		.uleb128 0x9
 2498 0b79 04       		.byte	0x4
 2499 0b7a 84080000 		.4byte	0x884
 2500 0b7e 1B       		.uleb128 0x1b
 2501 0b7f 80060000 		.4byte	.LASF142
 2502 0b83 01       		.byte	0x1
 2503 0b84 9F       		.byte	0x9f
 2504 0b85 01       		.byte	0x1
 2505 0b86 00000000 		.4byte	.LFB119
 2506 0b8a 0C000000 		.4byte	.LFE119
 2507 0b8e 02       		.byte	0x2
 2508 0b8f 7D       		.byte	0x7d
 2509 0b90 00       		.sleb128 0
 2510 0b91 01       		.byte	0x1
 2511 0b92 BF0B0000 		.4byte	0xbbf
 2512 0b96 1C       		.uleb128 0x1c
 2513 0b97 6E060000 		.4byte	.LASF140
 2514 0b9b 01       		.byte	0x1
 2515 0b9c 9F       		.byte	0x9f
 2516 0b9d 150B0000 		.4byte	0xb15
 2517 0ba1 00000000 		.4byte	.LLST0
 2518 0ba5 1C       		.uleb128 0x1c
 2519 0ba6 73060000 		.4byte	.LASF141
 2520 0baa 01       		.byte	0x1
 2521 0bab 9F       		.byte	0x9f
 2522 0bac 86000000 		.4byte	0x86
 2523 0bb0 21000000 		.4byte	.LLST1
 2524 0bb4 1D       		.uleb128 0x1d
 2525 0bb5 0C000000 		.4byte	.LVL1
 2526 0bb9 01       		.byte	0x1
 2527 0bba FD0F0000 		.4byte	0xffd
 2528 0bbe 00       		.byte	0
 2529 0bbf 1E       		.uleb128 0x1e
 2530 0bc0 B7010000 		.4byte	.LASF143
 2531 0bc4 01       		.byte	0x1
 2532 0bc5 85       		.byte	0x85
 2533 0bc6 01       		.byte	0x1
 2534 0bc7 00000000 		.4byte	.LFB118
 2535 0bcb 84000000 		.4byte	.LFE118
 2536 0bcf 42000000 		.4byte	.LLST2
 2537 0bd3 01       		.byte	0x1
 2538 0bd4 6F0C0000 		.4byte	0xc6f
 2539 0bd8 1C       		.uleb128 0x1c
 2540 0bd9 6E060000 		.4byte	.LASF140
 2541 0bdd 01       		.byte	0x1
 2542 0bde 85       		.byte	0x85
 2543 0bdf 150B0000 		.4byte	0xb15
 2544 0be3 62000000 		.4byte	.LLST3
ARM GAS  /var/folders/ng/s8655sgx1ys_4lf9jzm2w6n00000gn/T//ccWK92CN.s 			page 46


 2545 0be7 1C       		.uleb128 0x1c
 2546 0be8 73060000 		.4byte	.LASF141
 2547 0bec 01       		.byte	0x1
 2548 0bed 85       		.byte	0x85
 2549 0bee 86000000 		.4byte	0x86
 2550 0bf2 96000000 		.4byte	.LLST4
 2551 0bf6 1F       		.uleb128 0x1f
 2552 0bf7 5A000000 		.4byte	.LBB2
 2553 0bfb 60000000 		.4byte	.LBE2
 2554 0bff 130C0000 		.4byte	0xc13
 2555 0c03 20       		.uleb128 0x20
 2556 0c04 746D7000 		.ascii	"tmp\000"
 2557 0c08 01       		.byte	0x1
 2558 0c09 96       		.byte	0x96
 2559 0c0a 86000000 		.4byte	0x86
 2560 0c0e D0000000 		.4byte	.LLST5
 2561 0c12 00       		.byte	0
 2562 0c13 1F       		.uleb128 0x1f
 2563 0c14 64000000 		.4byte	.LBB3
 2564 0c18 70000000 		.4byte	.LBE3
 2565 0c1c 380C0000 		.4byte	0xc38
 2566 0c20 20       		.uleb128 0x20
 2567 0c21 747000   		.ascii	"tp\000"
 2568 0c24 01       		.byte	0x1
 2569 0c25 96       		.byte	0x96
 2570 0c26 65020000 		.4byte	0x265
 2571 0c2a EE000000 		.4byte	.LLST6
 2572 0c2e 21       		.uleb128 0x21
 2573 0c2f 70000000 		.4byte	.LVL8
 2574 0c33 08100000 		.4byte	0x1008
 2575 0c37 00       		.byte	0
 2576 0c38 1F       		.uleb128 0x1f
 2577 0c39 70000000 		.4byte	.LBB4
 2578 0c3d 78000000 		.4byte	.LBE4
 2579 0c41 550C0000 		.4byte	0xc55
 2580 0c45 20       		.uleb128 0x20
 2581 0c46 746D7000 		.ascii	"tmp\000"
 2582 0c4a 01       		.byte	0x1
 2583 0c4b 96       		.byte	0x96
 2584 0c4c 86000000 		.4byte	0x86
 2585 0c50 01010000 		.4byte	.LLST7
 2586 0c54 00       		.byte	0
 2587 0c55 22       		.uleb128 0x22
 2588 0c56 54000000 		.4byte	.LVL4
 2589 0c5a 650C0000 		.4byte	0xc65
 2590 0c5e 23       		.uleb128 0x23
 2591 0c5f 01       		.byte	0x1
 2592 0c60 50       		.byte	0x50
 2593 0c61 02       		.byte	0x2
 2594 0c62 74       		.byte	0x74
 2595 0c63 00       		.sleb128 0
 2596 0c64 00       		.byte	0
 2597 0c65 21       		.uleb128 0x21
 2598 0c66 82000000 		.4byte	.LVL13
 2599 0c6a FD0F0000 		.4byte	0xffd
 2600 0c6e 00       		.byte	0
 2601 0c6f 24       		.uleb128 0x24
ARM GAS  /var/folders/ng/s8655sgx1ys_4lf9jzm2w6n00000gn/T//ccWK92CN.s 			page 47


 2602 0c70 01       		.byte	0x1
 2603 0c71 5C030000 		.4byte	.LASF144
 2604 0c75 01       		.byte	0x1
 2605 0c76 BA       		.byte	0xba
 2606 0c77 01       		.byte	0x1
 2607 0c78 00000000 		.4byte	.LFB120
 2608 0c7c 7C000000 		.4byte	.LFE120
 2609 0c80 14010000 		.4byte	.LLST8
 2610 0c84 01       		.byte	0x1
 2611 0c85 AE0C0000 		.4byte	0xcae
 2612 0c89 25       		.uleb128 0x25
 2613 0c8a 28000000 		.4byte	.LVL14
 2614 0c8e 20100000 		.4byte	0x1020
 2615 0c92 9D0C0000 		.4byte	0xc9d
 2616 0c96 23       		.uleb128 0x23
 2617 0c97 01       		.byte	0x1
 2618 0c98 50       		.byte	0x50
 2619 0c99 02       		.byte	0x2
 2620 0c9a 75       		.byte	0x75
 2621 0c9b 00       		.sleb128 0
 2622 0c9c 00       		.byte	0
 2623 0c9d 26       		.uleb128 0x26
 2624 0c9e 50000000 		.4byte	.LVL15
 2625 0ca2 20100000 		.4byte	0x1020
 2626 0ca6 23       		.uleb128 0x23
 2627 0ca7 01       		.byte	0x1
 2628 0ca8 50       		.byte	0x50
 2629 0ca9 02       		.byte	0x2
 2630 0caa 74       		.byte	0x74
 2631 0cab 00       		.sleb128 0
 2632 0cac 00       		.byte	0
 2633 0cad 00       		.byte	0
 2634 0cae 27       		.uleb128 0x27
 2635 0caf 01       		.byte	0x1
 2636 0cb0 58060000 		.4byte	.LASF145
 2637 0cb4 01       		.byte	0x1
 2638 0cb5 3201     		.2byte	0x132
 2639 0cb7 01       		.byte	0x1
 2640 0cb8 00000000 		.4byte	.LFB121
 2641 0cbc E0000000 		.4byte	.LFE121
 2642 0cc0 34010000 		.4byte	.LLST9
 2643 0cc4 01       		.byte	0x1
 2644 0cc5 860D0000 		.4byte	0xd86
 2645 0cc9 28       		.uleb128 0x28
 2646 0cca 6E060000 		.4byte	.LASF140
 2647 0cce 01       		.byte	0x1
 2648 0ccf 3201     		.2byte	0x132
 2649 0cd1 150B0000 		.4byte	0xb15
 2650 0cd5 54010000 		.4byte	.LLST10
 2651 0cd9 1F       		.uleb128 0x1f
 2652 0cda 7A000000 		.4byte	.LBB5
 2653 0cde A4000000 		.4byte	.LBE5
 2654 0ce2 310D0000 		.4byte	0xd31
 2655 0ce6 29       		.uleb128 0x29
 2656 0ce7 6200     		.ascii	"b\000"
 2657 0ce9 01       		.byte	0x1
 2658 0cea 3801     		.2byte	0x138
ARM GAS  /var/folders/ng/s8655sgx1ys_4lf9jzm2w6n00000gn/T//ccWK92CN.s 			page 48


 2659 0cec A6000000 		.4byte	0xa6
 2660 0cf0 25       		.uleb128 0x25
 2661 0cf1 86000000 		.4byte	.LVL20
 2662 0cf5 35100000 		.4byte	0x1035
 2663 0cf9 120D0000 		.4byte	0xd12
 2664 0cfd 23       		.uleb128 0x23
 2665 0cfe 01       		.byte	0x1
 2666 0cff 53       		.byte	0x53
 2667 0d00 02       		.byte	0x2
 2668 0d01 74       		.byte	0x74
 2669 0d02 00       		.sleb128 0
 2670 0d03 23       		.uleb128 0x23
 2671 0d04 01       		.byte	0x1
 2672 0d05 52       		.byte	0x52
 2673 0d06 05       		.byte	0x5
 2674 0d07 03       		.byte	0x3
 2675 0d08 00000000 		.4byte	spi_lld_serve_rx_interrupt
 2676 0d0c 23       		.uleb128 0x23
 2677 0d0d 01       		.byte	0x1
 2678 0d0e 51       		.byte	0x51
 2679 0d0f 01       		.byte	0x1
 2680 0d10 3A       		.byte	0x3a
 2681 0d11 00       		.byte	0
 2682 0d12 26       		.uleb128 0x26
 2683 0d13 92000000 		.4byte	.LVL21
 2684 0d17 35100000 		.4byte	0x1035
 2685 0d1b 23       		.uleb128 0x23
 2686 0d1c 01       		.byte	0x1
 2687 0d1d 53       		.byte	0x53
 2688 0d1e 02       		.byte	0x2
 2689 0d1f 74       		.byte	0x74
 2690 0d20 00       		.sleb128 0
 2691 0d21 23       		.uleb128 0x23
 2692 0d22 01       		.byte	0x1
 2693 0d23 52       		.byte	0x52
 2694 0d24 05       		.byte	0x5
 2695 0d25 03       		.byte	0x3
 2696 0d26 00000000 		.4byte	spi_lld_serve_tx_interrupt
 2697 0d2a 23       		.uleb128 0x23
 2698 0d2b 01       		.byte	0x1
 2699 0d2c 51       		.byte	0x51
 2700 0d2d 01       		.byte	0x1
 2701 0d2e 3A       		.byte	0x3a
 2702 0d2f 00       		.byte	0
 2703 0d30 00       		.byte	0
 2704 0d31 2A       		.uleb128 0x2a
 2705 0d32 A4000000 		.4byte	.LBB6
 2706 0d36 E0000000 		.4byte	.LBE6
 2707 0d3a 29       		.uleb128 0x29
 2708 0d3b 6200     		.ascii	"b\000"
 2709 0d3d 01       		.byte	0x1
 2710 0d3e 5801     		.2byte	0x158
 2711 0d40 A6000000 		.4byte	0xa6
 2712 0d44 25       		.uleb128 0x25
 2713 0d45 B0000000 		.4byte	.LVL22
 2714 0d49 35100000 		.4byte	0x1035
 2715 0d4d 660D0000 		.4byte	0xd66
ARM GAS  /var/folders/ng/s8655sgx1ys_4lf9jzm2w6n00000gn/T//ccWK92CN.s 			page 49


 2716 0d51 23       		.uleb128 0x23
 2717 0d52 01       		.byte	0x1
 2718 0d53 53       		.byte	0x53
 2719 0d54 02       		.byte	0x2
 2720 0d55 74       		.byte	0x74
 2721 0d56 00       		.sleb128 0
 2722 0d57 23       		.uleb128 0x23
 2723 0d58 01       		.byte	0x1
 2724 0d59 52       		.byte	0x52
 2725 0d5a 05       		.byte	0x5
 2726 0d5b 03       		.byte	0x3
 2727 0d5c 00000000 		.4byte	spi_lld_serve_rx_interrupt
 2728 0d60 23       		.uleb128 0x23
 2729 0d61 01       		.byte	0x1
 2730 0d62 51       		.byte	0x51
 2731 0d63 01       		.byte	0x1
 2732 0d64 3A       		.byte	0x3a
 2733 0d65 00       		.byte	0
 2734 0d66 26       		.uleb128 0x26
 2735 0d67 BC000000 		.4byte	.LVL23
 2736 0d6b 35100000 		.4byte	0x1035
 2737 0d6f 23       		.uleb128 0x23
 2738 0d70 01       		.byte	0x1
 2739 0d71 53       		.byte	0x53
 2740 0d72 02       		.byte	0x2
 2741 0d73 74       		.byte	0x74
 2742 0d74 00       		.sleb128 0
 2743 0d75 23       		.uleb128 0x23
 2744 0d76 01       		.byte	0x1
 2745 0d77 52       		.byte	0x52
 2746 0d78 05       		.byte	0x5
 2747 0d79 03       		.byte	0x3
 2748 0d7a 00000000 		.4byte	spi_lld_serve_tx_interrupt
 2749 0d7e 23       		.uleb128 0x23
 2750 0d7f 01       		.byte	0x1
 2751 0d80 51       		.byte	0x51
 2752 0d81 01       		.byte	0x1
 2753 0d82 3A       		.byte	0x3a
 2754 0d83 00       		.byte	0
 2755 0d84 00       		.byte	0
 2756 0d85 00       		.byte	0
 2757 0d86 27       		.uleb128 0x27
 2758 0d87 01       		.byte	0x1
 2759 0d88 A6030000 		.4byte	.LASF146
 2760 0d8c 01       		.byte	0x1
 2761 0d8d BA01     		.2byte	0x1ba
 2762 0d8f 01       		.byte	0x1
 2763 0d90 00000000 		.4byte	.LFB122
 2764 0d94 58000000 		.4byte	.LFE122
 2765 0d98 88010000 		.4byte	.LLST11
 2766 0d9c 01       		.byte	0x1
 2767 0d9d C40D0000 		.4byte	0xdc4
 2768 0da1 28       		.uleb128 0x28
 2769 0da2 6E060000 		.4byte	.LASF140
 2770 0da6 01       		.byte	0x1
 2771 0da7 BA01     		.2byte	0x1ba
 2772 0da9 150B0000 		.4byte	0xb15
ARM GAS  /var/folders/ng/s8655sgx1ys_4lf9jzm2w6n00000gn/T//ccWK92CN.s 			page 50


 2773 0dad A8010000 		.4byte	.LLST12
 2774 0db1 21       		.uleb128 0x21
 2775 0db2 1A000000 		.4byte	.LVL28
 2776 0db6 5D100000 		.4byte	0x105d
 2777 0dba 21       		.uleb128 0x21
 2778 0dbb 20000000 		.4byte	.LVL29
 2779 0dbf 5D100000 		.4byte	0x105d
 2780 0dc3 00       		.byte	0
 2781 0dc4 2B       		.uleb128 0x2b
 2782 0dc5 01       		.byte	0x1
 2783 0dc6 11060000 		.4byte	.LASF147
 2784 0dca 01       		.byte	0x1
 2785 0dcb E701     		.2byte	0x1e7
 2786 0dcd 01       		.byte	0x1
 2787 0dce 00000000 		.4byte	.LFB123
 2788 0dd2 12000000 		.4byte	.LFE123
 2789 0dd6 02       		.byte	0x2
 2790 0dd7 7D       		.byte	0x7d
 2791 0dd8 00       		.sleb128 0
 2792 0dd9 01       		.byte	0x1
 2793 0dda EF0D0000 		.4byte	0xdef
 2794 0dde 28       		.uleb128 0x28
 2795 0ddf 6E060000 		.4byte	.LASF140
 2796 0de3 01       		.byte	0x1
 2797 0de4 E701     		.2byte	0x1e7
 2798 0de6 150B0000 		.4byte	0xb15
 2799 0dea DC010000 		.4byte	.LLST13
 2800 0dee 00       		.byte	0
 2801 0def 2B       		.uleb128 0x2b
 2802 0df0 01       		.byte	0x1
 2803 0df1 84020000 		.4byte	.LASF148
 2804 0df5 01       		.byte	0x1
 2805 0df6 F401     		.2byte	0x1f4
 2806 0df8 01       		.byte	0x1
 2807 0df9 00000000 		.4byte	.LFB124
 2808 0dfd 12000000 		.4byte	.LFE124
 2809 0e01 02       		.byte	0x2
 2810 0e02 7D       		.byte	0x7d
 2811 0e03 00       		.sleb128 0
 2812 0e04 01       		.byte	0x1
 2813 0e05 1A0E0000 		.4byte	0xe1a
 2814 0e09 28       		.uleb128 0x28
 2815 0e0a 6E060000 		.4byte	.LASF140
 2816 0e0e 01       		.byte	0x1
 2817 0e0f F401     		.2byte	0x1f4
 2818 0e11 150B0000 		.4byte	0xb15
 2819 0e15 FD010000 		.4byte	.LLST14
 2820 0e19 00       		.byte	0
 2821 0e1a 27       		.uleb128 0x27
 2822 0e1b 01       		.byte	0x1
 2823 0e1c 3D060000 		.4byte	.LASF149
 2824 0e20 01       		.byte	0x1
 2825 0e21 0402     		.2byte	0x204
 2826 0e23 01       		.byte	0x1
 2827 0e24 00000000 		.4byte	.LFB125
 2828 0e28 3E000000 		.4byte	.LFE125
 2829 0e2c 1E020000 		.4byte	.LLST15
ARM GAS  /var/folders/ng/s8655sgx1ys_4lf9jzm2w6n00000gn/T//ccWK92CN.s 			page 51


 2830 0e30 01       		.byte	0x1
 2831 0e31 540E0000 		.4byte	0xe54
 2832 0e35 28       		.uleb128 0x28
 2833 0e36 6E060000 		.4byte	.LASF140
 2834 0e3a 01       		.byte	0x1
 2835 0e3b 0402     		.2byte	0x204
 2836 0e3d 150B0000 		.4byte	0xb15
 2837 0e41 3E020000 		.4byte	.LLST16
 2838 0e45 2C       		.uleb128 0x2c
 2839 0e46 6E00     		.ascii	"n\000"
 2840 0e48 01       		.byte	0x1
 2841 0e49 0402     		.2byte	0x204
 2842 0e4b 30000000 		.4byte	0x30
 2843 0e4f 5F020000 		.4byte	.LLST17
 2844 0e53 00       		.byte	0
 2845 0e54 27       		.uleb128 0x27
 2846 0e55 01       		.byte	0x1
 2847 0e56 8E030000 		.4byte	.LASF150
 2848 0e5a 01       		.byte	0x1
 2849 0e5b 2102     		.2byte	0x221
 2850 0e5d 01       		.byte	0x1
 2851 0e5e 00000000 		.4byte	.LFB126
 2852 0e62 36000000 		.4byte	.LFE126
 2853 0e66 91020000 		.4byte	.LLST18
 2854 0e6a 01       		.byte	0x1
 2855 0e6b AE0E0000 		.4byte	0xeae
 2856 0e6f 28       		.uleb128 0x28
 2857 0e70 6E060000 		.4byte	.LASF140
 2858 0e74 01       		.byte	0x1
 2859 0e75 2102     		.2byte	0x221
 2860 0e77 150B0000 		.4byte	0xb15
 2861 0e7b B1020000 		.4byte	.LLST19
 2862 0e7f 2C       		.uleb128 0x2c
 2863 0e80 6E00     		.ascii	"n\000"
 2864 0e82 01       		.byte	0x1
 2865 0e83 2102     		.2byte	0x221
 2866 0e85 30000000 		.4byte	0x30
 2867 0e89 D2020000 		.4byte	.LLST20
 2868 0e8d 28       		.uleb128 0x28
 2869 0e8e 95020000 		.4byte	.LASF151
 2870 0e92 01       		.byte	0x1
 2871 0e93 2202     		.2byte	0x222
 2872 0e95 AE0E0000 		.4byte	0xeae
 2873 0e99 F1020000 		.4byte	.LLST21
 2874 0e9d 28       		.uleb128 0x28
 2875 0e9e A8000000 		.4byte	.LASF152
 2876 0ea2 01       		.byte	0x1
 2877 0ea3 2202     		.2byte	0x222
 2878 0ea5 A3020000 		.4byte	0x2a3
 2879 0ea9 10030000 		.4byte	.LLST22
 2880 0ead 00       		.byte	0
 2881 0eae 09       		.uleb128 0x9
 2882 0eaf 04       		.byte	0x4
 2883 0eb0 B40E0000 		.4byte	0xeb4
 2884 0eb4 2D       		.uleb128 0x2d
 2885 0eb5 27       		.uleb128 0x27
 2886 0eb6 01       		.byte	0x1
ARM GAS  /var/folders/ng/s8655sgx1ys_4lf9jzm2w6n00000gn/T//ccWK92CN.s 			page 52


 2887 0eb7 6A020000 		.4byte	.LASF153
 2888 0ebb 01       		.byte	0x1
 2889 0ebc 3D02     		.2byte	0x23d
 2890 0ebe 01       		.byte	0x1
 2891 0ebf 00000000 		.4byte	.LFB127
 2892 0ec3 3A000000 		.4byte	.LFE127
 2893 0ec7 2F030000 		.4byte	.LLST23
 2894 0ecb 01       		.byte	0x1
 2895 0ecc FF0E0000 		.4byte	0xeff
 2896 0ed0 28       		.uleb128 0x28
 2897 0ed1 6E060000 		.4byte	.LASF140
 2898 0ed5 01       		.byte	0x1
 2899 0ed6 3D02     		.2byte	0x23d
 2900 0ed8 150B0000 		.4byte	0xb15
 2901 0edc 4F030000 		.4byte	.LLST24
 2902 0ee0 2C       		.uleb128 0x2c
 2903 0ee1 6E00     		.ascii	"n\000"
 2904 0ee3 01       		.byte	0x1
 2905 0ee4 3D02     		.2byte	0x23d
 2906 0ee6 30000000 		.4byte	0x30
 2907 0eea 70030000 		.4byte	.LLST25
 2908 0eee 28       		.uleb128 0x28
 2909 0eef 95020000 		.4byte	.LASF151
 2910 0ef3 01       		.byte	0x1
 2911 0ef4 3D02     		.2byte	0x23d
 2912 0ef6 AE0E0000 		.4byte	0xeae
 2913 0efa 8F030000 		.4byte	.LLST26
 2914 0efe 00       		.byte	0
 2915 0eff 27       		.uleb128 0x27
 2916 0f00 01       		.byte	0x1
 2917 0f01 69030000 		.4byte	.LASF154
 2918 0f05 01       		.byte	0x1
 2919 0f06 5802     		.2byte	0x258
 2920 0f08 01       		.byte	0x1
 2921 0f09 00000000 		.4byte	.LFB128
 2922 0f0d 3A000000 		.4byte	.LFE128
 2923 0f11 AE030000 		.4byte	.LLST27
 2924 0f15 01       		.byte	0x1
 2925 0f16 490F0000 		.4byte	0xf49
 2926 0f1a 28       		.uleb128 0x28
 2927 0f1b 6E060000 		.4byte	.LASF140
 2928 0f1f 01       		.byte	0x1
 2929 0f20 5802     		.2byte	0x258
 2930 0f22 150B0000 		.4byte	0xb15
 2931 0f26 CE030000 		.4byte	.LLST28
 2932 0f2a 2C       		.uleb128 0x2c
 2933 0f2b 6E00     		.ascii	"n\000"
 2934 0f2d 01       		.byte	0x1
 2935 0f2e 5802     		.2byte	0x258
 2936 0f30 30000000 		.4byte	0x30
 2937 0f34 EF030000 		.4byte	.LLST29
 2938 0f38 28       		.uleb128 0x28
 2939 0f39 A8000000 		.4byte	.LASF152
 2940 0f3d 01       		.byte	0x1
 2941 0f3e 5802     		.2byte	0x258
 2942 0f40 A3020000 		.4byte	0x2a3
 2943 0f44 0E040000 		.4byte	.LLST30
ARM GAS  /var/folders/ng/s8655sgx1ys_4lf9jzm2w6n00000gn/T//ccWK92CN.s 			page 53


 2944 0f48 00       		.byte	0
 2945 0f49 2E       		.uleb128 0x2e
 2946 0f4a 01       		.byte	0x1
 2947 0f4b AA060000 		.4byte	.LASF167
 2948 0f4f 01       		.byte	0x1
 2949 0f50 7202     		.2byte	0x272
 2950 0f52 01       		.byte	0x1
 2951 0f53 62000000 		.4byte	0x62
 2952 0f57 00000000 		.4byte	.LFB129
 2953 0f5b 10000000 		.4byte	.LFE129
 2954 0f5f 02       		.byte	0x2
 2955 0f60 7D       		.byte	0x7d
 2956 0f61 00       		.sleb128 0
 2957 0f62 01       		.byte	0x1
 2958 0f63 860F0000 		.4byte	0xf86
 2959 0f67 28       		.uleb128 0x28
 2960 0f68 6E060000 		.4byte	.LASF140
 2961 0f6c 01       		.byte	0x1
 2962 0f6d 7202     		.2byte	0x272
 2963 0f6f 150B0000 		.4byte	0xb15
 2964 0f73 2D040000 		.4byte	.LLST31
 2965 0f77 2F       		.uleb128 0x2f
 2966 0f78 C9020000 		.4byte	.LASF155
 2967 0f7c 01       		.byte	0x1
 2968 0f7d 7202     		.2byte	0x272
 2969 0f7f 62000000 		.4byte	0x62
 2970 0f83 01       		.byte	0x1
 2971 0f84 51       		.byte	0x51
 2972 0f85 00       		.byte	0
 2973 0f86 30       		.uleb128 0x30
 2974 0f87 B9040000 		.4byte	.LASF156
 2975 0f8b 01       		.byte	0x1
 2976 0f8c 78       		.byte	0x78
 2977 0f8d 62000000 		.4byte	0x62
 2978 0f91 05       		.byte	0x5
 2979 0f92 03       		.byte	0x3
 2980 0f93 00000000 		.4byte	dummytx
 2981 0f97 30       		.uleb128 0x30
 2982 0f98 1B030000 		.4byte	.LASF157
 2983 0f9c 01       		.byte	0x1
 2984 0f9d 79       		.byte	0x79
 2985 0f9e 62000000 		.4byte	0x62
 2986 0fa2 05       		.byte	0x5
 2987 0fa3 03       		.byte	0x3
 2988 0fa4 00000000 		.4byte	dummyrx
 2989 0fa8 31       		.uleb128 0x31
 2990 0fa9 9B000000 		.4byte	.LASF158
 2991 0fad 0E       		.byte	0xe
 2992 0fae 9806     		.2byte	0x698
 2993 0fb0 01050000 		.4byte	0x501
 2994 0fb4 01       		.byte	0x1
 2995 0fb5 01       		.byte	0x1
 2996 0fb6 11       		.uleb128 0x11
 2997 0fb7 EB080000 		.4byte	0x8eb
 2998 0fbb C60F0000 		.4byte	0xfc6
 2999 0fbf 12       		.uleb128 0x12
 3000 0fc0 4B040000 		.4byte	0x44b
ARM GAS  /var/folders/ng/s8655sgx1ys_4lf9jzm2w6n00000gn/T//ccWK92CN.s 			page 54


 3001 0fc4 0F       		.byte	0xf
 3002 0fc5 00       		.byte	0
 3003 0fc6 31       		.uleb128 0x31
 3004 0fc7 77000000 		.4byte	.LASF159
 3005 0fcb 0A       		.byte	0xa
 3006 0fcc BB01     		.2byte	0x1bb
 3007 0fce D40F0000 		.4byte	0xfd4
 3008 0fd2 01       		.byte	0x1
 3009 0fd3 01       		.byte	0x1
 3010 0fd4 10       		.uleb128 0x10
 3011 0fd5 B60F0000 		.4byte	0xfb6
 3012 0fd9 32       		.uleb128 0x32
 3013 0fda AD040000 		.4byte	.LASF160
 3014 0fde 01       		.byte	0x1
 3015 0fdf 58       		.byte	0x58
 3016 0fe0 560A0000 		.4byte	0xa56
 3017 0fe4 01       		.byte	0x1
 3018 0fe5 05       		.byte	0x5
 3019 0fe6 03       		.byte	0x3
 3020 0fe7 00000000 		.4byte	SPID1
 3021 0feb 32       		.uleb128 0x32
 3022 0fec B3040000 		.4byte	.LASF161
 3023 0ff0 01       		.byte	0x1
 3024 0ff1 62       		.byte	0x62
 3025 0ff2 560A0000 		.4byte	0xa56
 3026 0ff6 01       		.byte	0x1
 3027 0ff7 05       		.byte	0x5
 3028 0ff8 03       		.byte	0x3
 3029 0ff9 00000000 		.4byte	SPID3
 3030 0ffd 33       		.uleb128 0x33
 3031 0ffe 01       		.byte	0x1
 3032 0fff A5050000 		.4byte	.LASF168
 3033 1003 07       		.byte	0x7
 3034 1004 0102     		.2byte	0x201
 3035 1006 01       		.byte	0x1
 3036 1007 01       		.byte	0x1
 3037 1008 34       		.uleb128 0x34
 3038 1009 01       		.byte	0x1
 3039 100a 49050000 		.4byte	.LASF162
 3040 100e 0F       		.byte	0xf
 3041 100f 90       		.byte	0x90
 3042 1010 01       		.byte	0x1
 3043 1011 65020000 		.4byte	0x265
 3044 1015 01       		.byte	0x1
 3045 1016 20100000 		.4byte	0x1020
 3046 101a 17       		.uleb128 0x17
 3047 101b 65020000 		.4byte	0x265
 3048 101f 00       		.byte	0
 3049 1020 35       		.uleb128 0x35
 3050 1021 01       		.byte	0x1
 3051 1022 F1040000 		.4byte	.LASF169
 3052 1026 0C       		.byte	0xc
 3053 1027 2F01     		.2byte	0x12f
 3054 1029 01       		.byte	0x1
 3055 102a 01       		.byte	0x1
 3056 102b 35100000 		.4byte	0x1035
 3057 102f 17       		.uleb128 0x17
ARM GAS  /var/folders/ng/s8655sgx1ys_4lf9jzm2w6n00000gn/T//ccWK92CN.s 			page 55


 3058 1030 150B0000 		.4byte	0xb15
 3059 1034 00       		.byte	0
 3060 1035 36       		.uleb128 0x36
 3061 1036 01       		.byte	0x1
 3062 1037 DA060000 		.4byte	.LASF163
 3063 103b 0A       		.byte	0xa
 3064 103c C201     		.2byte	0x1c2
 3065 103e 01       		.byte	0x1
 3066 103f A6000000 		.4byte	0xa6
 3067 1043 01       		.byte	0x1
 3068 1044 5D100000 		.4byte	0x105d
 3069 1048 17       		.uleb128 0x17
 3070 1049 190A0000 		.4byte	0xa19
 3071 104d 17       		.uleb128 0x17
 3072 104e 86000000 		.4byte	0x86
 3073 1052 17       		.uleb128 0x17
 3074 1053 F6080000 		.4byte	0x8f6
 3075 1057 17       		.uleb128 0x17
 3076 1058 A3020000 		.4byte	0x2a3
 3077 105c 00       		.byte	0
 3078 105d 37       		.uleb128 0x37
 3079 105e 01       		.byte	0x1
 3080 105f 80050000 		.4byte	.LASF170
 3081 1063 0A       		.byte	0xa
 3082 1064 C601     		.2byte	0x1c6
 3083 1066 01       		.byte	0x1
 3084 1067 01       		.byte	0x1
 3085 1068 17       		.uleb128 0x17
 3086 1069 190A0000 		.4byte	0xa19
 3087 106d 00       		.byte	0
 3088 106e 00       		.byte	0
 3089              		.section	.debug_abbrev,"",%progbits
 3090              	.Ldebug_abbrev0:
 3091 0000 01       		.uleb128 0x1
 3092 0001 11       		.uleb128 0x11
 3093 0002 01       		.byte	0x1
 3094 0003 25       		.uleb128 0x25
 3095 0004 0E       		.uleb128 0xe
 3096 0005 13       		.uleb128 0x13
 3097 0006 0B       		.uleb128 0xb
 3098 0007 03       		.uleb128 0x3
 3099 0008 0E       		.uleb128 0xe
 3100 0009 1B       		.uleb128 0x1b
 3101 000a 0E       		.uleb128 0xe
 3102 000b 55       		.uleb128 0x55
 3103 000c 06       		.uleb128 0x6
 3104 000d 11       		.uleb128 0x11
 3105 000e 01       		.uleb128 0x1
 3106 000f 52       		.uleb128 0x52
 3107 0010 01       		.uleb128 0x1
 3108 0011 10       		.uleb128 0x10
 3109 0012 06       		.uleb128 0x6
 3110 0013 00       		.byte	0
 3111 0014 00       		.byte	0
 3112 0015 02       		.uleb128 0x2
 3113 0016 24       		.uleb128 0x24
 3114 0017 00       		.byte	0
ARM GAS  /var/folders/ng/s8655sgx1ys_4lf9jzm2w6n00000gn/T//ccWK92CN.s 			page 56


 3115 0018 0B       		.uleb128 0xb
 3116 0019 0B       		.uleb128 0xb
 3117 001a 3E       		.uleb128 0x3e
 3118 001b 0B       		.uleb128 0xb
 3119 001c 03       		.uleb128 0x3
 3120 001d 08       		.uleb128 0x8
 3121 001e 00       		.byte	0
 3122 001f 00       		.byte	0
 3123 0020 03       		.uleb128 0x3
 3124 0021 16       		.uleb128 0x16
 3125 0022 00       		.byte	0
 3126 0023 03       		.uleb128 0x3
 3127 0024 0E       		.uleb128 0xe
 3128 0025 3A       		.uleb128 0x3a
 3129 0026 0B       		.uleb128 0xb
 3130 0027 3B       		.uleb128 0x3b
 3131 0028 0B       		.uleb128 0xb
 3132 0029 49       		.uleb128 0x49
 3133 002a 13       		.uleb128 0x13
 3134 002b 00       		.byte	0
 3135 002c 00       		.byte	0
 3136 002d 04       		.uleb128 0x4
 3137 002e 24       		.uleb128 0x24
 3138 002f 00       		.byte	0
 3139 0030 0B       		.uleb128 0xb
 3140 0031 0B       		.uleb128 0xb
 3141 0032 3E       		.uleb128 0x3e
 3142 0033 0B       		.uleb128 0xb
 3143 0034 03       		.uleb128 0x3
 3144 0035 0E       		.uleb128 0xe
 3145 0036 00       		.byte	0
 3146 0037 00       		.byte	0
 3147 0038 05       		.uleb128 0x5
 3148 0039 13       		.uleb128 0x13
 3149 003a 01       		.byte	0x1
 3150 003b 03       		.uleb128 0x3
 3151 003c 0E       		.uleb128 0xe
 3152 003d 0B       		.uleb128 0xb
 3153 003e 0B       		.uleb128 0xb
 3154 003f 3A       		.uleb128 0x3a
 3155 0040 0B       		.uleb128 0xb
 3156 0041 3B       		.uleb128 0x3b
 3157 0042 0B       		.uleb128 0xb
 3158 0043 01       		.uleb128 0x1
 3159 0044 13       		.uleb128 0x13
 3160 0045 00       		.byte	0
 3161 0046 00       		.byte	0
 3162 0047 06       		.uleb128 0x6
 3163 0048 0D       		.uleb128 0xd
 3164 0049 00       		.byte	0
 3165 004a 03       		.uleb128 0x3
 3166 004b 0E       		.uleb128 0xe
 3167 004c 3A       		.uleb128 0x3a
 3168 004d 0B       		.uleb128 0xb
 3169 004e 3B       		.uleb128 0x3b
 3170 004f 0B       		.uleb128 0xb
 3171 0050 49       		.uleb128 0x49
ARM GAS  /var/folders/ng/s8655sgx1ys_4lf9jzm2w6n00000gn/T//ccWK92CN.s 			page 57


 3172 0051 13       		.uleb128 0x13
 3173 0052 38       		.uleb128 0x38
 3174 0053 0A       		.uleb128 0xa
 3175 0054 00       		.byte	0
 3176 0055 00       		.byte	0
 3177 0056 07       		.uleb128 0x7
 3178 0057 0D       		.uleb128 0xd
 3179 0058 00       		.byte	0
 3180 0059 03       		.uleb128 0x3
 3181 005a 08       		.uleb128 0x8
 3182 005b 3A       		.uleb128 0x3a
 3183 005c 0B       		.uleb128 0xb
 3184 005d 3B       		.uleb128 0x3b
 3185 005e 0B       		.uleb128 0xb
 3186 005f 49       		.uleb128 0x49
 3187 0060 13       		.uleb128 0x13
 3188 0061 38       		.uleb128 0x38
 3189 0062 0A       		.uleb128 0xa
 3190 0063 00       		.byte	0
 3191 0064 00       		.byte	0
 3192 0065 08       		.uleb128 0x8
 3193 0066 13       		.uleb128 0x13
 3194 0067 01       		.byte	0x1
 3195 0068 0B       		.uleb128 0xb
 3196 0069 0B       		.uleb128 0xb
 3197 006a 3A       		.uleb128 0x3a
 3198 006b 0B       		.uleb128 0xb
 3199 006c 3B       		.uleb128 0x3b
 3200 006d 0B       		.uleb128 0xb
 3201 006e 01       		.uleb128 0x1
 3202 006f 13       		.uleb128 0x13
 3203 0070 00       		.byte	0
 3204 0071 00       		.byte	0
 3205 0072 09       		.uleb128 0x9
 3206 0073 0F       		.uleb128 0xf
 3207 0074 00       		.byte	0
 3208 0075 0B       		.uleb128 0xb
 3209 0076 0B       		.uleb128 0xb
 3210 0077 49       		.uleb128 0x49
 3211 0078 13       		.uleb128 0x13
 3212 0079 00       		.byte	0
 3213 007a 00       		.byte	0
 3214 007b 0A       		.uleb128 0xa
 3215 007c 0F       		.uleb128 0xf
 3216 007d 00       		.byte	0
 3217 007e 0B       		.uleb128 0xb
 3218 007f 0B       		.uleb128 0xb
 3219 0080 00       		.byte	0
 3220 0081 00       		.byte	0
 3221 0082 0B       		.uleb128 0xb
 3222 0083 13       		.uleb128 0x13
 3223 0084 01       		.byte	0x1
 3224 0085 03       		.uleb128 0x3
 3225 0086 0E       		.uleb128 0xe
 3226 0087 0B       		.uleb128 0xb
 3227 0088 0B       		.uleb128 0xb
 3228 0089 3A       		.uleb128 0x3a
ARM GAS  /var/folders/ng/s8655sgx1ys_4lf9jzm2w6n00000gn/T//ccWK92CN.s 			page 58


 3229 008a 0B       		.uleb128 0xb
 3230 008b 3B       		.uleb128 0x3b
 3231 008c 05       		.uleb128 0x5
 3232 008d 01       		.uleb128 0x1
 3233 008e 13       		.uleb128 0x13
 3234 008f 00       		.byte	0
 3235 0090 00       		.byte	0
 3236 0091 0C       		.uleb128 0xc
 3237 0092 0D       		.uleb128 0xd
 3238 0093 00       		.byte	0
 3239 0094 03       		.uleb128 0x3
 3240 0095 08       		.uleb128 0x8
 3241 0096 3A       		.uleb128 0x3a
 3242 0097 0B       		.uleb128 0xb
 3243 0098 3B       		.uleb128 0x3b
 3244 0099 05       		.uleb128 0x5
 3245 009a 49       		.uleb128 0x49
 3246 009b 13       		.uleb128 0x13
 3247 009c 38       		.uleb128 0x38
 3248 009d 0A       		.uleb128 0xa
 3249 009e 00       		.byte	0
 3250 009f 00       		.byte	0
 3251 00a0 0D       		.uleb128 0xd
 3252 00a1 35       		.uleb128 0x35
 3253 00a2 00       		.byte	0
 3254 00a3 49       		.uleb128 0x49
 3255 00a4 13       		.uleb128 0x13
 3256 00a5 00       		.byte	0
 3257 00a6 00       		.byte	0
 3258 00a7 0E       		.uleb128 0xe
 3259 00a8 17       		.uleb128 0x17
 3260 00a9 01       		.byte	0x1
 3261 00aa 0B       		.uleb128 0xb
 3262 00ab 0B       		.uleb128 0xb
 3263 00ac 3A       		.uleb128 0x3a
 3264 00ad 0B       		.uleb128 0xb
 3265 00ae 3B       		.uleb128 0x3b
 3266 00af 0B       		.uleb128 0xb
 3267 00b0 01       		.uleb128 0x1
 3268 00b1 13       		.uleb128 0x13
 3269 00b2 00       		.byte	0
 3270 00b3 00       		.byte	0
 3271 00b4 0F       		.uleb128 0xf
 3272 00b5 0D       		.uleb128 0xd
 3273 00b6 00       		.byte	0
 3274 00b7 03       		.uleb128 0x3
 3275 00b8 0E       		.uleb128 0xe
 3276 00b9 3A       		.uleb128 0x3a
 3277 00ba 0B       		.uleb128 0xb
 3278 00bb 3B       		.uleb128 0x3b
 3279 00bc 0B       		.uleb128 0xb
 3280 00bd 49       		.uleb128 0x49
 3281 00be 13       		.uleb128 0x13
 3282 00bf 00       		.byte	0
 3283 00c0 00       		.byte	0
 3284 00c1 10       		.uleb128 0x10
 3285 00c2 26       		.uleb128 0x26
ARM GAS  /var/folders/ng/s8655sgx1ys_4lf9jzm2w6n00000gn/T//ccWK92CN.s 			page 59


 3286 00c3 00       		.byte	0
 3287 00c4 49       		.uleb128 0x49
 3288 00c5 13       		.uleb128 0x13
 3289 00c6 00       		.byte	0
 3290 00c7 00       		.byte	0
 3291 00c8 11       		.uleb128 0x11
 3292 00c9 01       		.uleb128 0x1
 3293 00ca 01       		.byte	0x1
 3294 00cb 49       		.uleb128 0x49
 3295 00cc 13       		.uleb128 0x13
 3296 00cd 01       		.uleb128 0x1
 3297 00ce 13       		.uleb128 0x13
 3298 00cf 00       		.byte	0
 3299 00d0 00       		.byte	0
 3300 00d1 12       		.uleb128 0x12
 3301 00d2 21       		.uleb128 0x21
 3302 00d3 00       		.byte	0
 3303 00d4 49       		.uleb128 0x49
 3304 00d5 13       		.uleb128 0x13
 3305 00d6 2F       		.uleb128 0x2f
 3306 00d7 0B       		.uleb128 0xb
 3307 00d8 00       		.byte	0
 3308 00d9 00       		.byte	0
 3309 00da 13       		.uleb128 0x13
 3310 00db 13       		.uleb128 0x13
 3311 00dc 01       		.byte	0x1
 3312 00dd 0B       		.uleb128 0xb
 3313 00de 0B       		.uleb128 0xb
 3314 00df 3A       		.uleb128 0x3a
 3315 00e0 0B       		.uleb128 0xb
 3316 00e1 3B       		.uleb128 0x3b
 3317 00e2 05       		.uleb128 0x5
 3318 00e3 01       		.uleb128 0x1
 3319 00e4 13       		.uleb128 0x13
 3320 00e5 00       		.byte	0
 3321 00e6 00       		.byte	0
 3322 00e7 14       		.uleb128 0x14
 3323 00e8 0D       		.uleb128 0xd
 3324 00e9 00       		.byte	0
 3325 00ea 03       		.uleb128 0x3
 3326 00eb 0E       		.uleb128 0xe
 3327 00ec 3A       		.uleb128 0x3a
 3328 00ed 0B       		.uleb128 0xb
 3329 00ee 3B       		.uleb128 0x3b
 3330 00ef 05       		.uleb128 0x5
 3331 00f0 49       		.uleb128 0x49
 3332 00f1 13       		.uleb128 0x13
 3333 00f2 38       		.uleb128 0x38
 3334 00f3 0A       		.uleb128 0xa
 3335 00f4 00       		.byte	0
 3336 00f5 00       		.byte	0
 3337 00f6 15       		.uleb128 0x15
 3338 00f7 16       		.uleb128 0x16
 3339 00f8 00       		.byte	0
 3340 00f9 03       		.uleb128 0x3
 3341 00fa 0E       		.uleb128 0xe
 3342 00fb 3A       		.uleb128 0x3a
ARM GAS  /var/folders/ng/s8655sgx1ys_4lf9jzm2w6n00000gn/T//ccWK92CN.s 			page 60


 3343 00fc 0B       		.uleb128 0xb
 3344 00fd 3B       		.uleb128 0x3b
 3345 00fe 05       		.uleb128 0x5
 3346 00ff 49       		.uleb128 0x49
 3347 0100 13       		.uleb128 0x13
 3348 0101 00       		.byte	0
 3349 0102 00       		.byte	0
 3350 0103 16       		.uleb128 0x16
 3351 0104 15       		.uleb128 0x15
 3352 0105 01       		.byte	0x1
 3353 0106 27       		.uleb128 0x27
 3354 0107 0C       		.uleb128 0xc
 3355 0108 01       		.uleb128 0x1
 3356 0109 13       		.uleb128 0x13
 3357 010a 00       		.byte	0
 3358 010b 00       		.byte	0
 3359 010c 17       		.uleb128 0x17
 3360 010d 05       		.uleb128 0x5
 3361 010e 00       		.byte	0
 3362 010f 49       		.uleb128 0x49
 3363 0110 13       		.uleb128 0x13
 3364 0111 00       		.byte	0
 3365 0112 00       		.byte	0
 3366 0113 18       		.uleb128 0x18
 3367 0114 0D       		.uleb128 0xd
 3368 0115 00       		.byte	0
 3369 0116 03       		.uleb128 0x3
 3370 0117 08       		.uleb128 0x8
 3371 0118 3A       		.uleb128 0x3a
 3372 0119 0B       		.uleb128 0xb
 3373 011a 3B       		.uleb128 0x3b
 3374 011b 0B       		.uleb128 0xb
 3375 011c 49       		.uleb128 0x49
 3376 011d 13       		.uleb128 0x13
 3377 011e 00       		.byte	0
 3378 011f 00       		.byte	0
 3379 0120 19       		.uleb128 0x19
 3380 0121 04       		.uleb128 0x4
 3381 0122 01       		.byte	0x1
 3382 0123 0B       		.uleb128 0xb
 3383 0124 0B       		.uleb128 0xb
 3384 0125 3A       		.uleb128 0x3a
 3385 0126 0B       		.uleb128 0xb
 3386 0127 3B       		.uleb128 0x3b
 3387 0128 0B       		.uleb128 0xb
 3388 0129 01       		.uleb128 0x1
 3389 012a 13       		.uleb128 0x13
 3390 012b 00       		.byte	0
 3391 012c 00       		.byte	0
 3392 012d 1A       		.uleb128 0x1a
 3393 012e 28       		.uleb128 0x28
 3394 012f 00       		.byte	0
 3395 0130 03       		.uleb128 0x3
 3396 0131 0E       		.uleb128 0xe
 3397 0132 1C       		.uleb128 0x1c
 3398 0133 0D       		.uleb128 0xd
 3399 0134 00       		.byte	0
ARM GAS  /var/folders/ng/s8655sgx1ys_4lf9jzm2w6n00000gn/T//ccWK92CN.s 			page 61


 3400 0135 00       		.byte	0
 3401 0136 1B       		.uleb128 0x1b
 3402 0137 2E       		.uleb128 0x2e
 3403 0138 01       		.byte	0x1
 3404 0139 03       		.uleb128 0x3
 3405 013a 0E       		.uleb128 0xe
 3406 013b 3A       		.uleb128 0x3a
 3407 013c 0B       		.uleb128 0xb
 3408 013d 3B       		.uleb128 0x3b
 3409 013e 0B       		.uleb128 0xb
 3410 013f 27       		.uleb128 0x27
 3411 0140 0C       		.uleb128 0xc
 3412 0141 11       		.uleb128 0x11
 3413 0142 01       		.uleb128 0x1
 3414 0143 12       		.uleb128 0x12
 3415 0144 01       		.uleb128 0x1
 3416 0145 40       		.uleb128 0x40
 3417 0146 0A       		.uleb128 0xa
 3418 0147 9742     		.uleb128 0x2117
 3419 0149 0C       		.uleb128 0xc
 3420 014a 01       		.uleb128 0x1
 3421 014b 13       		.uleb128 0x13
 3422 014c 00       		.byte	0
 3423 014d 00       		.byte	0
 3424 014e 1C       		.uleb128 0x1c
 3425 014f 05       		.uleb128 0x5
 3426 0150 00       		.byte	0
 3427 0151 03       		.uleb128 0x3
 3428 0152 0E       		.uleb128 0xe
 3429 0153 3A       		.uleb128 0x3a
 3430 0154 0B       		.uleb128 0xb
 3431 0155 3B       		.uleb128 0x3b
 3432 0156 0B       		.uleb128 0xb
 3433 0157 49       		.uleb128 0x49
 3434 0158 13       		.uleb128 0x13
 3435 0159 02       		.uleb128 0x2
 3436 015a 06       		.uleb128 0x6
 3437 015b 00       		.byte	0
 3438 015c 00       		.byte	0
 3439 015d 1D       		.uleb128 0x1d
 3440 015e 898201   		.uleb128 0x4109
 3441 0161 00       		.byte	0
 3442 0162 11       		.uleb128 0x11
 3443 0163 01       		.uleb128 0x1
 3444 0164 9542     		.uleb128 0x2115
 3445 0166 0C       		.uleb128 0xc
 3446 0167 31       		.uleb128 0x31
 3447 0168 13       		.uleb128 0x13
 3448 0169 00       		.byte	0
 3449 016a 00       		.byte	0
 3450 016b 1E       		.uleb128 0x1e
 3451 016c 2E       		.uleb128 0x2e
 3452 016d 01       		.byte	0x1
 3453 016e 03       		.uleb128 0x3
 3454 016f 0E       		.uleb128 0xe
 3455 0170 3A       		.uleb128 0x3a
 3456 0171 0B       		.uleb128 0xb
ARM GAS  /var/folders/ng/s8655sgx1ys_4lf9jzm2w6n00000gn/T//ccWK92CN.s 			page 62


 3457 0172 3B       		.uleb128 0x3b
 3458 0173 0B       		.uleb128 0xb
 3459 0174 27       		.uleb128 0x27
 3460 0175 0C       		.uleb128 0xc
 3461 0176 11       		.uleb128 0x11
 3462 0177 01       		.uleb128 0x1
 3463 0178 12       		.uleb128 0x12
 3464 0179 01       		.uleb128 0x1
 3465 017a 40       		.uleb128 0x40
 3466 017b 06       		.uleb128 0x6
 3467 017c 9742     		.uleb128 0x2117
 3468 017e 0C       		.uleb128 0xc
 3469 017f 01       		.uleb128 0x1
 3470 0180 13       		.uleb128 0x13
 3471 0181 00       		.byte	0
 3472 0182 00       		.byte	0
 3473 0183 1F       		.uleb128 0x1f
 3474 0184 0B       		.uleb128 0xb
 3475 0185 01       		.byte	0x1
 3476 0186 11       		.uleb128 0x11
 3477 0187 01       		.uleb128 0x1
 3478 0188 12       		.uleb128 0x12
 3479 0189 01       		.uleb128 0x1
 3480 018a 01       		.uleb128 0x1
 3481 018b 13       		.uleb128 0x13
 3482 018c 00       		.byte	0
 3483 018d 00       		.byte	0
 3484 018e 20       		.uleb128 0x20
 3485 018f 34       		.uleb128 0x34
 3486 0190 00       		.byte	0
 3487 0191 03       		.uleb128 0x3
 3488 0192 08       		.uleb128 0x8
 3489 0193 3A       		.uleb128 0x3a
 3490 0194 0B       		.uleb128 0xb
 3491 0195 3B       		.uleb128 0x3b
 3492 0196 0B       		.uleb128 0xb
 3493 0197 49       		.uleb128 0x49
 3494 0198 13       		.uleb128 0x13
 3495 0199 02       		.uleb128 0x2
 3496 019a 06       		.uleb128 0x6
 3497 019b 00       		.byte	0
 3498 019c 00       		.byte	0
 3499 019d 21       		.uleb128 0x21
 3500 019e 898201   		.uleb128 0x4109
 3501 01a1 00       		.byte	0
 3502 01a2 11       		.uleb128 0x11
 3503 01a3 01       		.uleb128 0x1
 3504 01a4 31       		.uleb128 0x31
 3505 01a5 13       		.uleb128 0x13
 3506 01a6 00       		.byte	0
 3507 01a7 00       		.byte	0
 3508 01a8 22       		.uleb128 0x22
 3509 01a9 898201   		.uleb128 0x4109
 3510 01ac 01       		.byte	0x1
 3511 01ad 11       		.uleb128 0x11
 3512 01ae 01       		.uleb128 0x1
 3513 01af 01       		.uleb128 0x1
ARM GAS  /var/folders/ng/s8655sgx1ys_4lf9jzm2w6n00000gn/T//ccWK92CN.s 			page 63


 3514 01b0 13       		.uleb128 0x13
 3515 01b1 00       		.byte	0
 3516 01b2 00       		.byte	0
 3517 01b3 23       		.uleb128 0x23
 3518 01b4 8A8201   		.uleb128 0x410a
 3519 01b7 00       		.byte	0
 3520 01b8 02       		.uleb128 0x2
 3521 01b9 0A       		.uleb128 0xa
 3522 01ba 9142     		.uleb128 0x2111
 3523 01bc 0A       		.uleb128 0xa
 3524 01bd 00       		.byte	0
 3525 01be 00       		.byte	0
 3526 01bf 24       		.uleb128 0x24
 3527 01c0 2E       		.uleb128 0x2e
 3528 01c1 01       		.byte	0x1
 3529 01c2 3F       		.uleb128 0x3f
 3530 01c3 0C       		.uleb128 0xc
 3531 01c4 03       		.uleb128 0x3
 3532 01c5 0E       		.uleb128 0xe
 3533 01c6 3A       		.uleb128 0x3a
 3534 01c7 0B       		.uleb128 0xb
 3535 01c8 3B       		.uleb128 0x3b
 3536 01c9 0B       		.uleb128 0xb
 3537 01ca 27       		.uleb128 0x27
 3538 01cb 0C       		.uleb128 0xc
 3539 01cc 11       		.uleb128 0x11
 3540 01cd 01       		.uleb128 0x1
 3541 01ce 12       		.uleb128 0x12
 3542 01cf 01       		.uleb128 0x1
 3543 01d0 40       		.uleb128 0x40
 3544 01d1 06       		.uleb128 0x6
 3545 01d2 9742     		.uleb128 0x2117
 3546 01d4 0C       		.uleb128 0xc
 3547 01d5 01       		.uleb128 0x1
 3548 01d6 13       		.uleb128 0x13
 3549 01d7 00       		.byte	0
 3550 01d8 00       		.byte	0
 3551 01d9 25       		.uleb128 0x25
 3552 01da 898201   		.uleb128 0x4109
 3553 01dd 01       		.byte	0x1
 3554 01de 11       		.uleb128 0x11
 3555 01df 01       		.uleb128 0x1
 3556 01e0 31       		.uleb128 0x31
 3557 01e1 13       		.uleb128 0x13
 3558 01e2 01       		.uleb128 0x1
 3559 01e3 13       		.uleb128 0x13
 3560 01e4 00       		.byte	0
 3561 01e5 00       		.byte	0
 3562 01e6 26       		.uleb128 0x26
 3563 01e7 898201   		.uleb128 0x4109
 3564 01ea 01       		.byte	0x1
 3565 01eb 11       		.uleb128 0x11
 3566 01ec 01       		.uleb128 0x1
 3567 01ed 31       		.uleb128 0x31
 3568 01ee 13       		.uleb128 0x13
 3569 01ef 00       		.byte	0
 3570 01f0 00       		.byte	0
ARM GAS  /var/folders/ng/s8655sgx1ys_4lf9jzm2w6n00000gn/T//ccWK92CN.s 			page 64


 3571 01f1 27       		.uleb128 0x27
 3572 01f2 2E       		.uleb128 0x2e
 3573 01f3 01       		.byte	0x1
 3574 01f4 3F       		.uleb128 0x3f
 3575 01f5 0C       		.uleb128 0xc
 3576 01f6 03       		.uleb128 0x3
 3577 01f7 0E       		.uleb128 0xe
 3578 01f8 3A       		.uleb128 0x3a
 3579 01f9 0B       		.uleb128 0xb
 3580 01fa 3B       		.uleb128 0x3b
 3581 01fb 05       		.uleb128 0x5
 3582 01fc 27       		.uleb128 0x27
 3583 01fd 0C       		.uleb128 0xc
 3584 01fe 11       		.uleb128 0x11
 3585 01ff 01       		.uleb128 0x1
 3586 0200 12       		.uleb128 0x12
 3587 0201 01       		.uleb128 0x1
 3588 0202 40       		.uleb128 0x40
 3589 0203 06       		.uleb128 0x6
 3590 0204 9742     		.uleb128 0x2117
 3591 0206 0C       		.uleb128 0xc
 3592 0207 01       		.uleb128 0x1
 3593 0208 13       		.uleb128 0x13
 3594 0209 00       		.byte	0
 3595 020a 00       		.byte	0
 3596 020b 28       		.uleb128 0x28
 3597 020c 05       		.uleb128 0x5
 3598 020d 00       		.byte	0
 3599 020e 03       		.uleb128 0x3
 3600 020f 0E       		.uleb128 0xe
 3601 0210 3A       		.uleb128 0x3a
 3602 0211 0B       		.uleb128 0xb
 3603 0212 3B       		.uleb128 0x3b
 3604 0213 05       		.uleb128 0x5
 3605 0214 49       		.uleb128 0x49
 3606 0215 13       		.uleb128 0x13
 3607 0216 02       		.uleb128 0x2
 3608 0217 06       		.uleb128 0x6
 3609 0218 00       		.byte	0
 3610 0219 00       		.byte	0
 3611 021a 29       		.uleb128 0x29
 3612 021b 34       		.uleb128 0x34
 3613 021c 00       		.byte	0
 3614 021d 03       		.uleb128 0x3
 3615 021e 08       		.uleb128 0x8
 3616 021f 3A       		.uleb128 0x3a
 3617 0220 0B       		.uleb128 0xb
 3618 0221 3B       		.uleb128 0x3b
 3619 0222 05       		.uleb128 0x5
 3620 0223 49       		.uleb128 0x49
 3621 0224 13       		.uleb128 0x13
 3622 0225 00       		.byte	0
 3623 0226 00       		.byte	0
 3624 0227 2A       		.uleb128 0x2a
 3625 0228 0B       		.uleb128 0xb
 3626 0229 01       		.byte	0x1
 3627 022a 11       		.uleb128 0x11
ARM GAS  /var/folders/ng/s8655sgx1ys_4lf9jzm2w6n00000gn/T//ccWK92CN.s 			page 65


 3628 022b 01       		.uleb128 0x1
 3629 022c 12       		.uleb128 0x12
 3630 022d 01       		.uleb128 0x1
 3631 022e 00       		.byte	0
 3632 022f 00       		.byte	0
 3633 0230 2B       		.uleb128 0x2b
 3634 0231 2E       		.uleb128 0x2e
 3635 0232 01       		.byte	0x1
 3636 0233 3F       		.uleb128 0x3f
 3637 0234 0C       		.uleb128 0xc
 3638 0235 03       		.uleb128 0x3
 3639 0236 0E       		.uleb128 0xe
 3640 0237 3A       		.uleb128 0x3a
 3641 0238 0B       		.uleb128 0xb
 3642 0239 3B       		.uleb128 0x3b
 3643 023a 05       		.uleb128 0x5
 3644 023b 27       		.uleb128 0x27
 3645 023c 0C       		.uleb128 0xc
 3646 023d 11       		.uleb128 0x11
 3647 023e 01       		.uleb128 0x1
 3648 023f 12       		.uleb128 0x12
 3649 0240 01       		.uleb128 0x1
 3650 0241 40       		.uleb128 0x40
 3651 0242 0A       		.uleb128 0xa
 3652 0243 9742     		.uleb128 0x2117
 3653 0245 0C       		.uleb128 0xc
 3654 0246 01       		.uleb128 0x1
 3655 0247 13       		.uleb128 0x13
 3656 0248 00       		.byte	0
 3657 0249 00       		.byte	0
 3658 024a 2C       		.uleb128 0x2c
 3659 024b 05       		.uleb128 0x5
 3660 024c 00       		.byte	0
 3661 024d 03       		.uleb128 0x3
 3662 024e 08       		.uleb128 0x8
 3663 024f 3A       		.uleb128 0x3a
 3664 0250 0B       		.uleb128 0xb
 3665 0251 3B       		.uleb128 0x3b
 3666 0252 05       		.uleb128 0x5
 3667 0253 49       		.uleb128 0x49
 3668 0254 13       		.uleb128 0x13
 3669 0255 02       		.uleb128 0x2
 3670 0256 06       		.uleb128 0x6
 3671 0257 00       		.byte	0
 3672 0258 00       		.byte	0
 3673 0259 2D       		.uleb128 0x2d
 3674 025a 26       		.uleb128 0x26
 3675 025b 00       		.byte	0
 3676 025c 00       		.byte	0
 3677 025d 00       		.byte	0
 3678 025e 2E       		.uleb128 0x2e
 3679 025f 2E       		.uleb128 0x2e
 3680 0260 01       		.byte	0x1
 3681 0261 3F       		.uleb128 0x3f
 3682 0262 0C       		.uleb128 0xc
 3683 0263 03       		.uleb128 0x3
 3684 0264 0E       		.uleb128 0xe
ARM GAS  /var/folders/ng/s8655sgx1ys_4lf9jzm2w6n00000gn/T//ccWK92CN.s 			page 66


 3685 0265 3A       		.uleb128 0x3a
 3686 0266 0B       		.uleb128 0xb
 3687 0267 3B       		.uleb128 0x3b
 3688 0268 05       		.uleb128 0x5
 3689 0269 27       		.uleb128 0x27
 3690 026a 0C       		.uleb128 0xc
 3691 026b 49       		.uleb128 0x49
 3692 026c 13       		.uleb128 0x13
 3693 026d 11       		.uleb128 0x11
 3694 026e 01       		.uleb128 0x1
 3695 026f 12       		.uleb128 0x12
 3696 0270 01       		.uleb128 0x1
 3697 0271 40       		.uleb128 0x40
 3698 0272 0A       		.uleb128 0xa
 3699 0273 9742     		.uleb128 0x2117
 3700 0275 0C       		.uleb128 0xc
 3701 0276 01       		.uleb128 0x1
 3702 0277 13       		.uleb128 0x13
 3703 0278 00       		.byte	0
 3704 0279 00       		.byte	0
 3705 027a 2F       		.uleb128 0x2f
 3706 027b 05       		.uleb128 0x5
 3707 027c 00       		.byte	0
 3708 027d 03       		.uleb128 0x3
 3709 027e 0E       		.uleb128 0xe
 3710 027f 3A       		.uleb128 0x3a
 3711 0280 0B       		.uleb128 0xb
 3712 0281 3B       		.uleb128 0x3b
 3713 0282 05       		.uleb128 0x5
 3714 0283 49       		.uleb128 0x49
 3715 0284 13       		.uleb128 0x13
 3716 0285 02       		.uleb128 0x2
 3717 0286 0A       		.uleb128 0xa
 3718 0287 00       		.byte	0
 3719 0288 00       		.byte	0
 3720 0289 30       		.uleb128 0x30
 3721 028a 34       		.uleb128 0x34
 3722 028b 00       		.byte	0
 3723 028c 03       		.uleb128 0x3
 3724 028d 0E       		.uleb128 0xe
 3725 028e 3A       		.uleb128 0x3a
 3726 028f 0B       		.uleb128 0xb
 3727 0290 3B       		.uleb128 0x3b
 3728 0291 0B       		.uleb128 0xb
 3729 0292 49       		.uleb128 0x49
 3730 0293 13       		.uleb128 0x13
 3731 0294 02       		.uleb128 0x2
 3732 0295 0A       		.uleb128 0xa
 3733 0296 00       		.byte	0
 3734 0297 00       		.byte	0
 3735 0298 31       		.uleb128 0x31
 3736 0299 34       		.uleb128 0x34
 3737 029a 00       		.byte	0
 3738 029b 03       		.uleb128 0x3
 3739 029c 0E       		.uleb128 0xe
 3740 029d 3A       		.uleb128 0x3a
 3741 029e 0B       		.uleb128 0xb
ARM GAS  /var/folders/ng/s8655sgx1ys_4lf9jzm2w6n00000gn/T//ccWK92CN.s 			page 67


 3742 029f 3B       		.uleb128 0x3b
 3743 02a0 05       		.uleb128 0x5
 3744 02a1 49       		.uleb128 0x49
 3745 02a2 13       		.uleb128 0x13
 3746 02a3 3F       		.uleb128 0x3f
 3747 02a4 0C       		.uleb128 0xc
 3748 02a5 3C       		.uleb128 0x3c
 3749 02a6 0C       		.uleb128 0xc
 3750 02a7 00       		.byte	0
 3751 02a8 00       		.byte	0
 3752 02a9 32       		.uleb128 0x32
 3753 02aa 34       		.uleb128 0x34
 3754 02ab 00       		.byte	0
 3755 02ac 03       		.uleb128 0x3
 3756 02ad 0E       		.uleb128 0xe
 3757 02ae 3A       		.uleb128 0x3a
 3758 02af 0B       		.uleb128 0xb
 3759 02b0 3B       		.uleb128 0x3b
 3760 02b1 0B       		.uleb128 0xb
 3761 02b2 49       		.uleb128 0x49
 3762 02b3 13       		.uleb128 0x13
 3763 02b4 3F       		.uleb128 0x3f
 3764 02b5 0C       		.uleb128 0xc
 3765 02b6 02       		.uleb128 0x2
 3766 02b7 0A       		.uleb128 0xa
 3767 02b8 00       		.byte	0
 3768 02b9 00       		.byte	0
 3769 02ba 33       		.uleb128 0x33
 3770 02bb 2E       		.uleb128 0x2e
 3771 02bc 00       		.byte	0
 3772 02bd 3F       		.uleb128 0x3f
 3773 02be 0C       		.uleb128 0xc
 3774 02bf 03       		.uleb128 0x3
 3775 02c0 0E       		.uleb128 0xe
 3776 02c1 3A       		.uleb128 0x3a
 3777 02c2 0B       		.uleb128 0xb
 3778 02c3 3B       		.uleb128 0x3b
 3779 02c4 05       		.uleb128 0x5
 3780 02c5 27       		.uleb128 0x27
 3781 02c6 0C       		.uleb128 0xc
 3782 02c7 3C       		.uleb128 0x3c
 3783 02c8 0C       		.uleb128 0xc
 3784 02c9 00       		.byte	0
 3785 02ca 00       		.byte	0
 3786 02cb 34       		.uleb128 0x34
 3787 02cc 2E       		.uleb128 0x2e
 3788 02cd 01       		.byte	0x1
 3789 02ce 3F       		.uleb128 0x3f
 3790 02cf 0C       		.uleb128 0xc
 3791 02d0 03       		.uleb128 0x3
 3792 02d1 0E       		.uleb128 0xe
 3793 02d2 3A       		.uleb128 0x3a
 3794 02d3 0B       		.uleb128 0xb
 3795 02d4 3B       		.uleb128 0x3b
 3796 02d5 0B       		.uleb128 0xb
 3797 02d6 27       		.uleb128 0x27
 3798 02d7 0C       		.uleb128 0xc
ARM GAS  /var/folders/ng/s8655sgx1ys_4lf9jzm2w6n00000gn/T//ccWK92CN.s 			page 68


 3799 02d8 49       		.uleb128 0x49
 3800 02d9 13       		.uleb128 0x13
 3801 02da 3C       		.uleb128 0x3c
 3802 02db 0C       		.uleb128 0xc
 3803 02dc 01       		.uleb128 0x1
 3804 02dd 13       		.uleb128 0x13
 3805 02de 00       		.byte	0
 3806 02df 00       		.byte	0
 3807 02e0 35       		.uleb128 0x35
 3808 02e1 2E       		.uleb128 0x2e
 3809 02e2 01       		.byte	0x1
 3810 02e3 3F       		.uleb128 0x3f
 3811 02e4 0C       		.uleb128 0xc
 3812 02e5 03       		.uleb128 0x3
 3813 02e6 0E       		.uleb128 0xe
 3814 02e7 3A       		.uleb128 0x3a
 3815 02e8 0B       		.uleb128 0xb
 3816 02e9 3B       		.uleb128 0x3b
 3817 02ea 05       		.uleb128 0x5
 3818 02eb 27       		.uleb128 0x27
 3819 02ec 0C       		.uleb128 0xc
 3820 02ed 3C       		.uleb128 0x3c
 3821 02ee 0C       		.uleb128 0xc
 3822 02ef 01       		.uleb128 0x1
 3823 02f0 13       		.uleb128 0x13
 3824 02f1 00       		.byte	0
 3825 02f2 00       		.byte	0
 3826 02f3 36       		.uleb128 0x36
 3827 02f4 2E       		.uleb128 0x2e
 3828 02f5 01       		.byte	0x1
 3829 02f6 3F       		.uleb128 0x3f
 3830 02f7 0C       		.uleb128 0xc
 3831 02f8 03       		.uleb128 0x3
 3832 02f9 0E       		.uleb128 0xe
 3833 02fa 3A       		.uleb128 0x3a
 3834 02fb 0B       		.uleb128 0xb
 3835 02fc 3B       		.uleb128 0x3b
 3836 02fd 05       		.uleb128 0x5
 3837 02fe 27       		.uleb128 0x27
 3838 02ff 0C       		.uleb128 0xc
 3839 0300 49       		.uleb128 0x49
 3840 0301 13       		.uleb128 0x13
 3841 0302 3C       		.uleb128 0x3c
 3842 0303 0C       		.uleb128 0xc
 3843 0304 01       		.uleb128 0x1
 3844 0305 13       		.uleb128 0x13
 3845 0306 00       		.byte	0
 3846 0307 00       		.byte	0
 3847 0308 37       		.uleb128 0x37
 3848 0309 2E       		.uleb128 0x2e
 3849 030a 01       		.byte	0x1
 3850 030b 3F       		.uleb128 0x3f
 3851 030c 0C       		.uleb128 0xc
 3852 030d 03       		.uleb128 0x3
 3853 030e 0E       		.uleb128 0xe
 3854 030f 3A       		.uleb128 0x3a
 3855 0310 0B       		.uleb128 0xb
ARM GAS  /var/folders/ng/s8655sgx1ys_4lf9jzm2w6n00000gn/T//ccWK92CN.s 			page 69


 3856 0311 3B       		.uleb128 0x3b
 3857 0312 05       		.uleb128 0x5
 3858 0313 27       		.uleb128 0x27
 3859 0314 0C       		.uleb128 0xc
 3860 0315 3C       		.uleb128 0x3c
 3861 0316 0C       		.uleb128 0xc
 3862 0317 00       		.byte	0
 3863 0318 00       		.byte	0
 3864 0319 00       		.byte	0
 3865              		.section	.debug_loc,"",%progbits
 3866              	.Ldebug_loc0:
 3867              	.LLST0:
 3868 0000 00000000 		.4byte	.LVL0
 3869 0004 0B000000 		.4byte	.LVL1-1
 3870 0008 0100     		.2byte	0x1
 3871 000a 50       		.byte	0x50
 3872 000b 0B000000 		.4byte	.LVL1-1
 3873 000f 0C000000 		.4byte	.LFE119
 3874 0013 0400     		.2byte	0x4
 3875 0015 F3       		.byte	0xf3
 3876 0016 01       		.uleb128 0x1
 3877 0017 50       		.byte	0x50
 3878 0018 9F       		.byte	0x9f
 3879 0019 00000000 		.4byte	0
 3880 001d 00000000 		.4byte	0
 3881              	.LLST1:
 3882 0021 00000000 		.4byte	.LVL0
 3883 0025 0B000000 		.4byte	.LVL1-1
 3884 0029 0100     		.2byte	0x1
 3885 002b 51       		.byte	0x51
 3886 002c 0B000000 		.4byte	.LVL1-1
 3887 0030 0C000000 		.4byte	.LFE119
 3888 0034 0400     		.2byte	0x4
 3889 0036 F3       		.byte	0xf3
 3890 0037 01       		.uleb128 0x1
 3891 0038 51       		.byte	0x51
 3892 0039 9F       		.byte	0x9f
 3893 003a 00000000 		.4byte	0
 3894 003e 00000000 		.4byte	0
 3895              	.LLST2:
 3896 0042 00000000 		.4byte	.LFB118
 3897 0046 06000000 		.4byte	.LCFI0
 3898 004a 0200     		.2byte	0x2
 3899 004c 7D       		.byte	0x7d
 3900 004d 00       		.sleb128 0
 3901 004e 06000000 		.4byte	.LCFI0
 3902 0052 84000000 		.4byte	.LFE118
 3903 0056 0200     		.2byte	0x2
 3904 0058 7D       		.byte	0x7d
 3905 0059 10       		.sleb128 16
 3906 005a 00000000 		.4byte	0
 3907 005e 00000000 		.4byte	0
 3908              	.LLST3:
 3909 0062 00000000 		.4byte	.LVL2
 3910 0066 0A000000 		.4byte	.LVL3
 3911 006a 0100     		.2byte	0x1
 3912 006c 50       		.byte	0x50
ARM GAS  /var/folders/ng/s8655sgx1ys_4lf9jzm2w6n00000gn/T//ccWK92CN.s 			page 70


 3913 006d 0A000000 		.4byte	.LVL3
 3914 0071 7E000000 		.4byte	.LVL12
 3915 0075 0100     		.2byte	0x1
 3916 0077 54       		.byte	0x54
 3917 0078 7E000000 		.4byte	.LVL12
 3918 007c 81000000 		.4byte	.LVL13-1
 3919 0080 0100     		.2byte	0x1
 3920 0082 50       		.byte	0x50
 3921 0083 81000000 		.4byte	.LVL13-1
 3922 0087 84000000 		.4byte	.LFE118
 3923 008b 0100     		.2byte	0x1
 3924 008d 54       		.byte	0x54
 3925 008e 00000000 		.4byte	0
 3926 0092 00000000 		.4byte	0
 3927              	.LLST4:
 3928 0096 00000000 		.4byte	.LVL2
 3929 009a 0A000000 		.4byte	.LVL3
 3930 009e 0100     		.2byte	0x1
 3931 00a0 51       		.byte	0x51
 3932 00a1 0A000000 		.4byte	.LVL3
 3933 00a5 7E000000 		.4byte	.LVL12
 3934 00a9 0400     		.2byte	0x4
 3935 00ab F3       		.byte	0xf3
 3936 00ac 01       		.uleb128 0x1
 3937 00ad 51       		.byte	0x51
 3938 00ae 9F       		.byte	0x9f
 3939 00af 7E000000 		.4byte	.LVL12
 3940 00b3 81000000 		.4byte	.LVL13-1
 3941 00b7 0100     		.2byte	0x1
 3942 00b9 51       		.byte	0x51
 3943 00ba 81000000 		.4byte	.LVL13-1
 3944 00be 84000000 		.4byte	.LFE118
 3945 00c2 0400     		.2byte	0x4
 3946 00c4 F3       		.byte	0xf3
 3947 00c5 01       		.uleb128 0x1
 3948 00c6 51       		.byte	0x51
 3949 00c7 9F       		.byte	0x9f
 3950 00c8 00000000 		.4byte	0
 3951 00cc 00000000 		.4byte	0
 3952              	.LLST5:
 3953 00d0 60000000 		.4byte	.LVL6
 3954 00d4 6F000000 		.4byte	.LVL8-1
 3955 00d8 0100     		.2byte	0x1
 3956 00da 53       		.byte	0x53
 3957 00db 70000000 		.4byte	.LVL8
 3958 00df 72000000 		.4byte	.LVL9
 3959 00e3 0100     		.2byte	0x1
 3960 00e5 53       		.byte	0x53
 3961 00e6 00000000 		.4byte	0
 3962 00ea 00000000 		.4byte	0
 3963              	.LLST6:
 3964 00ee 64000000 		.4byte	.LVL7
 3965 00f2 6F000000 		.4byte	.LVL8-1
 3966 00f6 0100     		.2byte	0x1
 3967 00f8 51       		.byte	0x51
 3968 00f9 00000000 		.4byte	0
 3969 00fd 00000000 		.4byte	0
ARM GAS  /var/folders/ng/s8655sgx1ys_4lf9jzm2w6n00000gn/T//ccWK92CN.s 			page 71


 3970              	.LLST7:
 3971 0101 76000000 		.4byte	.LVL10
 3972 0105 78000000 		.4byte	.LVL11
 3973 0109 0100     		.2byte	0x1
 3974 010b 53       		.byte	0x53
 3975 010c 00000000 		.4byte	0
 3976 0110 00000000 		.4byte	0
 3977              	.LLST8:
 3978 0114 00000000 		.4byte	.LFB120
 3979 0118 02000000 		.4byte	.LCFI1
 3980 011c 0200     		.2byte	0x2
 3981 011e 7D       		.byte	0x7d
 3982 011f 00       		.sleb128 0
 3983 0120 02000000 		.4byte	.LCFI1
 3984 0124 7C000000 		.4byte	.LFE120
 3985 0128 0200     		.2byte	0x2
 3986 012a 7D       		.byte	0x7d
 3987 012b 18       		.sleb128 24
 3988 012c 00000000 		.4byte	0
 3989 0130 00000000 		.4byte	0
 3990              	.LLST9:
 3991 0134 00000000 		.4byte	.LFB121
 3992 0138 06000000 		.4byte	.LCFI2
 3993 013c 0200     		.2byte	0x2
 3994 013e 7D       		.byte	0x7d
 3995 013f 00       		.sleb128 0
 3996 0140 06000000 		.4byte	.LCFI2
 3997 0144 E0000000 		.4byte	.LFE121
 3998 0148 0200     		.2byte	0x2
 3999 014a 7D       		.byte	0x7d
 4000 014b 08       		.sleb128 8
 4001 014c 00000000 		.4byte	0
 4002 0150 00000000 		.4byte	0
 4003              	.LLST10:
 4004 0154 00000000 		.4byte	.LVL16
 4005 0158 0C000000 		.4byte	.LVL17
 4006 015c 0100     		.2byte	0x1
 4007 015e 50       		.byte	0x50
 4008 015f 0C000000 		.4byte	.LVL17
 4009 0163 5A000000 		.4byte	.LVL18
 4010 0167 0100     		.2byte	0x1
 4011 0169 54       		.byte	0x54
 4012 016a 5A000000 		.4byte	.LVL18
 4013 016e 5C000000 		.4byte	.LVL19
 4014 0172 0100     		.2byte	0x1
 4015 0174 50       		.byte	0x50
 4016 0175 5C000000 		.4byte	.LVL19
 4017 0179 E0000000 		.4byte	.LFE121
 4018 017d 0100     		.2byte	0x1
 4019 017f 54       		.byte	0x54
 4020 0180 00000000 		.4byte	0
 4021 0184 00000000 		.4byte	0
 4022              	.LLST11:
 4023 0188 00000000 		.4byte	.LFB122
 4024 018c 06000000 		.4byte	.LCFI3
 4025 0190 0200     		.2byte	0x2
 4026 0192 7D       		.byte	0x7d
ARM GAS  /var/folders/ng/s8655sgx1ys_4lf9jzm2w6n00000gn/T//ccWK92CN.s 			page 72


 4027 0193 00       		.sleb128 0
 4028 0194 06000000 		.4byte	.LCFI3
 4029 0198 58000000 		.4byte	.LFE122
 4030 019c 0200     		.2byte	0x2
 4031 019e 7D       		.byte	0x7d
 4032 019f 08       		.sleb128 8
 4033 01a0 00000000 		.4byte	0
 4034 01a4 00000000 		.4byte	0
 4035              	.LLST12:
 4036 01a8 00000000 		.4byte	.LVL24
 4037 01ac 0A000000 		.4byte	.LVL25
 4038 01b0 0100     		.2byte	0x1
 4039 01b2 50       		.byte	0x50
 4040 01b3 0A000000 		.4byte	.LVL25
 4041 01b7 0C000000 		.4byte	.LVL26
 4042 01bb 0100     		.2byte	0x1
 4043 01bd 54       		.byte	0x54
 4044 01be 0C000000 		.4byte	.LVL26
 4045 01c2 10000000 		.4byte	.LVL27
 4046 01c6 0100     		.2byte	0x1
 4047 01c8 50       		.byte	0x50
 4048 01c9 10000000 		.4byte	.LVL27
 4049 01cd 58000000 		.4byte	.LFE122
 4050 01d1 0100     		.2byte	0x1
 4051 01d3 54       		.byte	0x54
 4052 01d4 00000000 		.4byte	0
 4053 01d8 00000000 		.4byte	0
 4054              	.LLST13:
 4055 01dc 00000000 		.4byte	.LVL30
 4056 01e0 06000000 		.4byte	.LVL31
 4057 01e4 0100     		.2byte	0x1
 4058 01e6 50       		.byte	0x50
 4059 01e7 06000000 		.4byte	.LVL31
 4060 01eb 12000000 		.4byte	.LFE123
 4061 01ef 0400     		.2byte	0x4
 4062 01f1 F3       		.byte	0xf3
 4063 01f2 01       		.uleb128 0x1
 4064 01f3 50       		.byte	0x50
 4065 01f4 9F       		.byte	0x9f
 4066 01f5 00000000 		.4byte	0
 4067 01f9 00000000 		.4byte	0
 4068              	.LLST14:
 4069 01fd 00000000 		.4byte	.LVL32
 4070 0201 06000000 		.4byte	.LVL33
 4071 0205 0100     		.2byte	0x1
 4072 0207 50       		.byte	0x50
 4073 0208 06000000 		.4byte	.LVL33
 4074 020c 12000000 		.4byte	.LFE124
 4075 0210 0400     		.2byte	0x4
 4076 0212 F3       		.byte	0xf3
 4077 0213 01       		.uleb128 0x1
 4078 0214 50       		.byte	0x50
 4079 0215 9F       		.byte	0x9f
 4080 0216 00000000 		.4byte	0
 4081 021a 00000000 		.4byte	0
 4082              	.LLST15:
 4083 021e 00000000 		.4byte	.LFB125
ARM GAS  /var/folders/ng/s8655sgx1ys_4lf9jzm2w6n00000gn/T//ccWK92CN.s 			page 73


 4084 0222 0A000000 		.4byte	.LCFI4
 4085 0226 0200     		.2byte	0x2
 4086 0228 7D       		.byte	0x7d
 4087 0229 00       		.sleb128 0
 4088 022a 0A000000 		.4byte	.LCFI4
 4089 022e 3E000000 		.4byte	.LFE125
 4090 0232 0200     		.2byte	0x2
 4091 0234 7D       		.byte	0x7d
 4092 0235 0C       		.sleb128 12
 4093 0236 00000000 		.4byte	0
 4094 023a 00000000 		.4byte	0
 4095              	.LLST16:
 4096 023e 00000000 		.4byte	.LVL34
 4097 0242 16000000 		.4byte	.LVL35
 4098 0246 0100     		.2byte	0x1
 4099 0248 50       		.byte	0x50
 4100 0249 16000000 		.4byte	.LVL35
 4101 024d 3E000000 		.4byte	.LFE125
 4102 0251 0400     		.2byte	0x4
 4103 0253 F3       		.byte	0xf3
 4104 0254 01       		.uleb128 0x1
 4105 0255 50       		.byte	0x50
 4106 0256 9F       		.byte	0x9f
 4107 0257 00000000 		.4byte	0
 4108 025b 00000000 		.4byte	0
 4109              	.LLST17:
 4110 025f 00000000 		.4byte	.LVL34
 4111 0263 2C000000 		.4byte	.LVL36
 4112 0267 0100     		.2byte	0x1
 4113 0269 51       		.byte	0x51
 4114 026a 2C000000 		.4byte	.LVL36
 4115 026e 34000000 		.4byte	.LVL37
 4116 0272 0200     		.2byte	0x2
 4117 0274 72       		.byte	0x72
 4118 0275 04       		.sleb128 4
 4119 0276 34000000 		.4byte	.LVL37
 4120 027a 3E000000 		.4byte	.LFE125
 4121 027e 0900     		.2byte	0x9
 4122 0280 F3       		.byte	0xf3
 4123 0281 01       		.uleb128 0x1
 4124 0282 50       		.byte	0x50
 4125 0283 23       		.byte	0x23
 4126 0284 20       		.uleb128 0x20
 4127 0285 06       		.byte	0x6
 4128 0286 06       		.byte	0x6
 4129 0287 23       		.byte	0x23
 4130 0288 04       		.uleb128 0x4
 4131 0289 00000000 		.4byte	0
 4132 028d 00000000 		.4byte	0
 4133              	.LLST18:
 4134 0291 00000000 		.4byte	.LFB126
 4135 0295 02000000 		.4byte	.LCFI5
 4136 0299 0200     		.2byte	0x2
 4137 029b 7D       		.byte	0x7d
 4138 029c 00       		.sleb128 0
 4139 029d 02000000 		.4byte	.LCFI5
 4140 02a1 36000000 		.4byte	.LFE126
ARM GAS  /var/folders/ng/s8655sgx1ys_4lf9jzm2w6n00000gn/T//ccWK92CN.s 			page 74


 4141 02a5 0200     		.2byte	0x2
 4142 02a7 7D       		.byte	0x7d
 4143 02a8 10       		.sleb128 16
 4144 02a9 00000000 		.4byte	0
 4145 02ad 00000000 		.4byte	0
 4146              	.LLST19:
 4147 02b1 00000000 		.4byte	.LVL38
 4148 02b5 0E000000 		.4byte	.LVL39
 4149 02b9 0100     		.2byte	0x1
 4150 02bb 50       		.byte	0x50
 4151 02bc 0E000000 		.4byte	.LVL39
 4152 02c0 36000000 		.4byte	.LFE126
 4153 02c4 0400     		.2byte	0x4
 4154 02c6 F3       		.byte	0xf3
 4155 02c7 01       		.uleb128 0x1
 4156 02c8 50       		.byte	0x50
 4157 02c9 9F       		.byte	0x9f
 4158 02ca 00000000 		.4byte	0
 4159 02ce 00000000 		.4byte	0
 4160              	.LLST20:
 4161 02d2 00000000 		.4byte	.LVL38
 4162 02d6 28000000 		.4byte	.LVL41
 4163 02da 0100     		.2byte	0x1
 4164 02dc 51       		.byte	0x51
 4165 02dd 28000000 		.4byte	.LVL41
 4166 02e1 36000000 		.4byte	.LFE126
 4167 02e5 0200     		.2byte	0x2
 4168 02e7 74       		.byte	0x74
 4169 02e8 04       		.sleb128 4
 4170 02e9 00000000 		.4byte	0
 4171 02ed 00000000 		.4byte	0
 4172              	.LLST21:
 4173 02f1 00000000 		.4byte	.LVL38
 4174 02f5 2C000000 		.4byte	.LVL42
 4175 02f9 0100     		.2byte	0x1
 4176 02fb 52       		.byte	0x52
 4177 02fc 2C000000 		.4byte	.LVL42
 4178 0300 36000000 		.4byte	.LFE126
 4179 0304 0200     		.2byte	0x2
 4180 0306 70       		.byte	0x70
 4181 0307 0C       		.sleb128 12
 4182 0308 00000000 		.4byte	0
 4183 030c 00000000 		.4byte	0
 4184              	.LLST22:
 4185 0310 00000000 		.4byte	.LVL38
 4186 0314 24000000 		.4byte	.LVL40
 4187 0318 0100     		.2byte	0x1
 4188 031a 53       		.byte	0x53
 4189 031b 24000000 		.4byte	.LVL40
 4190 031f 36000000 		.4byte	.LFE126
 4191 0323 0200     		.2byte	0x2
 4192 0325 74       		.byte	0x74
 4193 0326 0C       		.sleb128 12
 4194 0327 00000000 		.4byte	0
 4195 032b 00000000 		.4byte	0
 4196              	.LLST23:
 4197 032f 00000000 		.4byte	.LFB127
ARM GAS  /var/folders/ng/s8655sgx1ys_4lf9jzm2w6n00000gn/T//ccWK92CN.s 			page 75


 4198 0333 02000000 		.4byte	.LCFI6
 4199 0337 0200     		.2byte	0x2
 4200 0339 7D       		.byte	0x7d
 4201 033a 00       		.sleb128 0
 4202 033b 02000000 		.4byte	.LCFI6
 4203 033f 3A000000 		.4byte	.LFE127
 4204 0343 0200     		.2byte	0x2
 4205 0345 7D       		.byte	0x7d
 4206 0346 10       		.sleb128 16
 4207 0347 00000000 		.4byte	0
 4208 034b 00000000 		.4byte	0
 4209              	.LLST24:
 4210 034f 00000000 		.4byte	.LVL43
 4211 0353 0C000000 		.4byte	.LVL44
 4212 0357 0100     		.2byte	0x1
 4213 0359 50       		.byte	0x50
 4214 035a 0C000000 		.4byte	.LVL44
 4215 035e 3A000000 		.4byte	.LFE127
 4216 0362 0400     		.2byte	0x4
 4217 0364 F3       		.byte	0xf3
 4218 0365 01       		.uleb128 0x1
 4219 0366 50       		.byte	0x50
 4220 0367 9F       		.byte	0x9f
 4221 0368 00000000 		.4byte	0
 4222 036c 00000000 		.4byte	0
 4223              	.LLST25:
 4224 0370 00000000 		.4byte	.LVL43
 4225 0374 2C000000 		.4byte	.LVL46
 4226 0378 0100     		.2byte	0x1
 4227 037a 51       		.byte	0x51
 4228 037b 2C000000 		.4byte	.LVL46
 4229 037f 3A000000 		.4byte	.LFE127
 4230 0383 0200     		.2byte	0x2
 4231 0385 74       		.byte	0x74
 4232 0386 04       		.sleb128 4
 4233 0387 00000000 		.4byte	0
 4234 038b 00000000 		.4byte	0
 4235              	.LLST26:
 4236 038f 00000000 		.4byte	.LVL43
 4237 0393 28000000 		.4byte	.LVL45
 4238 0397 0100     		.2byte	0x1
 4239 0399 52       		.byte	0x52
 4240 039a 28000000 		.4byte	.LVL45
 4241 039e 3A000000 		.4byte	.LFE127
 4242 03a2 0200     		.2byte	0x2
 4243 03a4 73       		.byte	0x73
 4244 03a5 0C       		.sleb128 12
 4245 03a6 00000000 		.4byte	0
 4246 03aa 00000000 		.4byte	0
 4247              	.LLST27:
 4248 03ae 00000000 		.4byte	.LFB128
 4249 03b2 02000000 		.4byte	.LCFI7
 4250 03b6 0200     		.2byte	0x2
 4251 03b8 7D       		.byte	0x7d
 4252 03b9 00       		.sleb128 0
 4253 03ba 02000000 		.4byte	.LCFI7
 4254 03be 3A000000 		.4byte	.LFE128
ARM GAS  /var/folders/ng/s8655sgx1ys_4lf9jzm2w6n00000gn/T//ccWK92CN.s 			page 76


 4255 03c2 0200     		.2byte	0x2
 4256 03c4 7D       		.byte	0x7d
 4257 03c5 0C       		.sleb128 12
 4258 03c6 00000000 		.4byte	0
 4259 03ca 00000000 		.4byte	0
 4260              	.LLST28:
 4261 03ce 00000000 		.4byte	.LVL47
 4262 03d2 0E000000 		.4byte	.LVL48
 4263 03d6 0100     		.2byte	0x1
 4264 03d8 50       		.byte	0x50
 4265 03d9 0E000000 		.4byte	.LVL48
 4266 03dd 3A000000 		.4byte	.LFE128
 4267 03e1 0400     		.2byte	0x4
 4268 03e3 F3       		.byte	0xf3
 4269 03e4 01       		.uleb128 0x1
 4270 03e5 50       		.byte	0x50
 4271 03e6 9F       		.byte	0x9f
 4272 03e7 00000000 		.4byte	0
 4273 03eb 00000000 		.4byte	0
 4274              	.LLST29:
 4275 03ef 00000000 		.4byte	.LVL47
 4276 03f3 2C000000 		.4byte	.LVL50
 4277 03f7 0100     		.2byte	0x1
 4278 03f9 51       		.byte	0x51
 4279 03fa 2C000000 		.4byte	.LVL50
 4280 03fe 3A000000 		.4byte	.LFE128
 4281 0402 0200     		.2byte	0x2
 4282 0404 74       		.byte	0x74
 4283 0405 04       		.sleb128 4
 4284 0406 00000000 		.4byte	0
 4285 040a 00000000 		.4byte	0
 4286              	.LLST30:
 4287 040e 00000000 		.4byte	.LVL47
 4288 0412 28000000 		.4byte	.LVL49
 4289 0416 0100     		.2byte	0x1
 4290 0418 52       		.byte	0x52
 4291 0419 28000000 		.4byte	.LVL49
 4292 041d 3A000000 		.4byte	.LFE128
 4293 0421 0200     		.2byte	0x2
 4294 0423 74       		.byte	0x74
 4295 0424 0C       		.sleb128 12
 4296 0425 00000000 		.4byte	0
 4297 0429 00000000 		.4byte	0
 4298              	.LLST31:
 4299 042d 00000000 		.4byte	.LVL51
 4300 0431 04000000 		.4byte	.LVL52
 4301 0435 0100     		.2byte	0x1
 4302 0437 50       		.byte	0x50
 4303 0438 04000000 		.4byte	.LVL52
 4304 043c 10000000 		.4byte	.LFE129
 4305 0440 0400     		.2byte	0x4
 4306 0442 F3       		.byte	0xf3
 4307 0443 01       		.uleb128 0x1
 4308 0444 50       		.byte	0x50
 4309 0445 9F       		.byte	0x9f
 4310 0446 00000000 		.4byte	0
 4311 044a 00000000 		.4byte	0
ARM GAS  /var/folders/ng/s8655sgx1ys_4lf9jzm2w6n00000gn/T//ccWK92CN.s 			page 77


 4312              		.section	.debug_aranges,"",%progbits
 4313 0000 74000000 		.4byte	0x74
 4314 0004 0200     		.2byte	0x2
 4315 0006 00000000 		.4byte	.Ldebug_info0
 4316 000a 04       		.byte	0x4
 4317 000b 00       		.byte	0
 4318 000c 0000     		.2byte	0
 4319 000e 0000     		.2byte	0
 4320 0010 00000000 		.4byte	.LFB119
 4321 0014 0C000000 		.4byte	.LFE119-.LFB119
 4322 0018 00000000 		.4byte	.LFB118
 4323 001c 84000000 		.4byte	.LFE118-.LFB118
 4324 0020 00000000 		.4byte	.LFB120
 4325 0024 7C000000 		.4byte	.LFE120-.LFB120
 4326 0028 00000000 		.4byte	.LFB121
 4327 002c E0000000 		.4byte	.LFE121-.LFB121
 4328 0030 00000000 		.4byte	.LFB122
 4329 0034 58000000 		.4byte	.LFE122-.LFB122
 4330 0038 00000000 		.4byte	.LFB123
 4331 003c 12000000 		.4byte	.LFE123-.LFB123
 4332 0040 00000000 		.4byte	.LFB124
 4333 0044 12000000 		.4byte	.LFE124-.LFB124
 4334 0048 00000000 		.4byte	.LFB125
 4335 004c 3E000000 		.4byte	.LFE125-.LFB125
 4336 0050 00000000 		.4byte	.LFB126
 4337 0054 36000000 		.4byte	.LFE126-.LFB126
 4338 0058 00000000 		.4byte	.LFB127
 4339 005c 3A000000 		.4byte	.LFE127-.LFB127
 4340 0060 00000000 		.4byte	.LFB128
 4341 0064 3A000000 		.4byte	.LFE128-.LFB128
 4342 0068 00000000 		.4byte	.LFB129
 4343 006c 10000000 		.4byte	.LFE129-.LFB129
 4344 0070 00000000 		.4byte	0
 4345 0074 00000000 		.4byte	0
 4346              		.section	.debug_ranges,"",%progbits
 4347              	.Ldebug_ranges0:
 4348 0000 00000000 		.4byte	.LFB119
 4349 0004 0C000000 		.4byte	.LFE119
 4350 0008 00000000 		.4byte	.LFB118
 4351 000c 84000000 		.4byte	.LFE118
 4352 0010 00000000 		.4byte	.LFB120
 4353 0014 7C000000 		.4byte	.LFE120
 4354 0018 00000000 		.4byte	.LFB121
 4355 001c E0000000 		.4byte	.LFE121
 4356 0020 00000000 		.4byte	.LFB122
 4357 0024 58000000 		.4byte	.LFE122
 4358 0028 00000000 		.4byte	.LFB123
 4359 002c 12000000 		.4byte	.LFE123
 4360 0030 00000000 		.4byte	.LFB124
 4361 0034 12000000 		.4byte	.LFE124
 4362 0038 00000000 		.4byte	.LFB125
 4363 003c 3E000000 		.4byte	.LFE125
 4364 0040 00000000 		.4byte	.LFB126
 4365 0044 36000000 		.4byte	.LFE126
 4366 0048 00000000 		.4byte	.LFB127
 4367 004c 3A000000 		.4byte	.LFE127
 4368 0050 00000000 		.4byte	.LFB128
ARM GAS  /var/folders/ng/s8655sgx1ys_4lf9jzm2w6n00000gn/T//ccWK92CN.s 			page 78


 4369 0054 3A000000 		.4byte	.LFE128
 4370 0058 00000000 		.4byte	.LFB129
 4371 005c 10000000 		.4byte	.LFE129
 4372 0060 00000000 		.4byte	0
 4373 0064 00000000 		.4byte	0
 4374              		.section	.debug_line,"",%progbits
 4375              	.Ldebug_line0:
 4376 0000 E1040000 		.section	.debug_str,"MS",%progbits,1
 4376      0200CE02 
 4376      00000201 
 4376      FB0E0D00 
 4376      01010101 
 4377              	.LASF18:
 4378 0000 74726566 		.ascii	"trefs_t\000"
 4378      735F7400 
 4379              	.LASF60:
 4380 0008 4D304152 		.ascii	"M0AR\000"
 4380      00
 4381              	.LASF2:
 4382 000d 73697A65 		.ascii	"size_t\000"
 4382      5F7400
 4383              	.LASF54:
 4384 0014 7264796D 		.ascii	"rdymsg\000"
 4384      736700
 4385              	.LASF105:
 4386 001b 76656374 		.ascii	"vector\000"
 4386      6F7200
 4387              	.LASF110:
 4388 0022 4F545950 		.ascii	"OTYPER\000"
 4388      455200
 4389              	.LASF123:
 4390 0029 5350495F 		.ascii	"SPI_ACTIVE\000"
 4390      41435449 
 4390      564500
 4391              	.LASF101:
 4392 0034 73747265 		.ascii	"stream\000"
 4392      616D00
 4393              	.LASF131:
 4394 003b 646D6172 		.ascii	"dmarx\000"
 4394      7800
 4395              	.LASF109:
 4396 0041 4D4F4445 		.ascii	"MODER\000"
 4396      5200
 4397              	.LASF13:
 4398 0047 6C6F6E67 		.ascii	"long long unsigned int\000"
 4398      206C6F6E 
 4398      6720756E 
 4398      7369676E 
 4398      65642069 
 4399              	.LASF122:
 4400 005e 5350495F 		.ascii	"SPI_READY\000"
 4400      52454144 
 4400      5900
 4401              	.LASF112:
 4402 0068 50555044 		.ascii	"PUPDR\000"
 4402      5200
 4403              	.LASF55:
ARM GAS  /var/folders/ng/s8655sgx1ys_4lf9jzm2w6n00000gn/T//ccWK92CN.s 			page 79


 4404 006e 65786974 		.ascii	"exitcode\000"
 4404      636F6465 
 4404      00
 4405              	.LASF159:
 4406 0077 5F73746D 		.ascii	"_stm32_dma_streams\000"
 4406      33325F64 
 4406      6D615F73 
 4406      74726561 
 4406      6D7300
 4407              	.LASF126:
 4408 008a 53504944 		.ascii	"SPIDriver\000"
 4408      72697665 
 4408      7200
 4409              	.LASF137:
 4410 0094 7373706F 		.ascii	"ssport\000"
 4410      727400
 4411              	.LASF158:
 4412 009b 49544D5F 		.ascii	"ITM_RxBuffer\000"
 4412      52784275 
 4412      66666572 
 4412      00
 4413              	.LASF152:
 4414 00a8 72786275 		.ascii	"rxbuf\000"
 4414      6600
 4415              	.LASF79:
 4416 00ae 41484231 		.ascii	"AHB1LPENR\000"
 4416      4C50454E 
 4416      5200
 4417              	.LASF27:
 4418 00b8 705F7072 		.ascii	"p_prio\000"
 4418      696F00
 4419              	.LASF138:
 4420 00bf 73737061 		.ascii	"sspad\000"
 4420      6400
 4421              	.LASF91:
 4422 00c5 44434B43 		.ascii	"DCKCFGR\000"
 4422      46475200 
 4423              	.LASF12:
 4424 00cd 6C6F6E67 		.ascii	"long long int\000"
 4424      206C6F6E 
 4424      6720696E 
 4424      7400
 4425              	.LASF1:
 4426 00db 7369676E 		.ascii	"signed char\000"
 4426      65642063 
 4426      68617200 
 4427              	.LASF113:
 4428 00e7 42535252 		.ascii	"BSRR\000"
 4428      00
 4429              	.LASF65:
 4430 00ec 41484231 		.ascii	"AHB1RSTR\000"
 4430      52535452 
 4430      00
 4431              	.LASF121:
 4432 00f5 5350495F 		.ascii	"SPI_STOP\000"
 4432      53544F50 
 4432      00
ARM GAS  /var/folders/ng/s8655sgx1ys_4lf9jzm2w6n00000gn/T//ccWK92CN.s 			page 80


 4433              	.LASF96:
 4434 00fe 49325343 		.ascii	"I2SCFGR\000"
 4434      46475200 
 4435              	.LASF14:
 4436 0106 626F6F6C 		.ascii	"bool_t\000"
 4436      5F7400
 4437              	.LASF51:
 4438 010d 6D5F7175 		.ascii	"m_queue\000"
 4438      65756500 
 4439              	.LASF165:
 4440 0115 2E2E2F41 		.ascii	"../AithonLibrary/ChibiOS/os/hal/platforms/STM32/SPI"
 4440      6974686F 
 4440      6E4C6962 
 4440      72617279 
 4440      2F436869 
 4441 0148 76312F73 		.ascii	"v1/spi_lld.c\000"
 4441      70695F6C 
 4441      6C642E63 
 4441      00
 4442              	.LASF19:
 4443 0155 74736C69 		.ascii	"tslices_t\000"
 4443      6365735F 
 4443      7400
 4444              	.LASF164:
 4445 015f 474E5520 		.ascii	"GNU C 4.7.4 20130913 (release) [ARM/embedded-4_7-br"
 4445      4320342E 
 4445      372E3420 
 4445      32303133 
 4445      30393133 
 4446 0192 616E6368 		.ascii	"anch revision 202601]\000"
 4446      20726576 
 4446      6973696F 
 4446      6E203230 
 4446      32363031 
 4447              	.LASF127:
 4448 01a8 73746174 		.ascii	"state\000"
 4448      6500
 4449              	.LASF9:
 4450 01ae 6C6F6E67 		.ascii	"long int\000"
 4450      20696E74 
 4450      00
 4451              	.LASF143:
 4452 01b7 7370695F 		.ascii	"spi_lld_serve_rx_interrupt\000"
 4452      6C6C645F 
 4452      73657276 
 4452      655F7278 
 4452      5F696E74 
 4453              	.LASF70:
 4454 01d2 41504232 		.ascii	"APB2RSTR\000"
 4454      52535452 
 4454      00
 4455              	.LASF83:
 4456 01db 41504231 		.ascii	"APB1LPENR\000"
 4456      4C50454E 
 4456      5200
 4457              	.LASF17:
 4458 01e5 74737461 		.ascii	"tstate_t\000"
ARM GAS  /var/folders/ng/s8655sgx1ys_4lf9jzm2w6n00000gn/T//ccWK92CN.s 			page 81


 4458      74655F74 
 4458      00
 4459              	.LASF29:
 4460 01ee 705F6E65 		.ascii	"p_newer\000"
 4460      77657200 
 4461              	.LASF136:
 4462 01f6 656E645F 		.ascii	"end_cb\000"
 4462      636200
 4463              	.LASF133:
 4464 01fd 7278646D 		.ascii	"rxdmamode\000"
 4464      616D6F64 
 4464      6500
 4465              	.LASF117:
 4466 0207 4750494F 		.ascii	"GPIO_TypeDef\000"
 4466      5F547970 
 4466      65446566 
 4466      00
 4467              	.LASF132:
 4468 0214 646D6174 		.ascii	"dmatx\000"
 4468      7800
 4469              	.LASF166:
 4470 021a 2F557365 		.ascii	"/Users/jseng/aithon/DemoMode\000"
 4470      72732F6A 
 4470      73656E67 
 4470      2F616974 
 4470      686F6E2F 
 4471              	.LASF43:
 4472 0237 705F6D70 		.ascii	"p_mpool\000"
 4472      6F6F6C00 
 4473              	.LASF46:
 4474 023f 72656761 		.ascii	"regarm_t\000"
 4474      726D5F74 
 4474      00
 4475              	.LASF104:
 4476 0248 73656C66 		.ascii	"selfindex\000"
 4476      696E6465 
 4476      7800
 4477              	.LASF135:
 4478 0252 73706963 		.ascii	"spicallback_t\000"
 4478      616C6C62 
 4478      61636B5F 
 4478      7400
 4479              	.LASF134:
 4480 0260 7478646D 		.ascii	"txdmamode\000"
 4480      616D6F64 
 4480      6500
 4481              	.LASF153:
 4482 026a 7370695F 		.ascii	"spi_lld_send\000"
 4482      6C6C645F 
 4482      73656E64 
 4482      00
 4483              	.LASF0:
 4484 0277 756E7369 		.ascii	"unsigned int\000"
 4484      676E6564 
 4484      20696E74 
 4484      00
 4485              	.LASF148:
ARM GAS  /var/folders/ng/s8655sgx1ys_4lf9jzm2w6n00000gn/T//ccWK92CN.s 			page 82


 4486 0284 7370695F 		.ascii	"spi_lld_unselect\000"
 4486      6C6C645F 
 4486      756E7365 
 4486      6C656374 
 4486      00
 4487              	.LASF151:
 4488 0295 74786275 		.ascii	"txbuf\000"
 4488      6600
 4489              	.LASF64:
 4490 029b 43464752 		.ascii	"CFGR\000"
 4490      00
 4491              	.LASF36:
 4492 02a0 705F7469 		.ascii	"p_time\000"
 4492      6D6500
 4493              	.LASF107:
 4494 02a7 73746D33 		.ascii	"stm32_dmaisr_t\000"
 4494      325F646D 
 4494      61697372 
 4494      5F7400
 4495              	.LASF38:
 4496 02b6 705F6D73 		.ascii	"p_msgqueue\000"
 4496      67717565 
 4496      756500
 4497              	.LASF74:
 4498 02c1 41484233 		.ascii	"AHB3ENR\000"
 4498      454E5200 
 4499              	.LASF155:
 4500 02c9 6672616D 		.ascii	"frame\000"
 4500      6500
 4501              	.LASF92:
 4502 02cf 5243435F 		.ascii	"RCC_TypeDef\000"
 4502      54797065 
 4502      44656600 
 4503              	.LASF114:
 4504 02db 4C434B52 		.ascii	"LCKR\000"
 4504      00
 4505              	.LASF103:
 4506 02e0 69736869 		.ascii	"ishift\000"
 4506      667400
 4507              	.LASF48:
 4508 02e7 636F6E74 		.ascii	"context\000"
 4508      65787400 
 4509              	.LASF7:
 4510 02ef 73686F72 		.ascii	"short unsigned int\000"
 4510      7420756E 
 4510      7369676E 
 4510      65642069 
 4510      6E7400
 4511              	.LASF89:
 4512 0302 504C4C49 		.ascii	"PLLI2SCFGR\000"
 4512      32534346 
 4512      475200
 4513              	.LASF21:
 4514 030d 6D73675F 		.ascii	"msg_t\000"
 4514      7400
 4515              	.LASF63:
 4516 0313 504C4C43 		.ascii	"PLLCFGR\000"
ARM GAS  /var/folders/ng/s8655sgx1ys_4lf9jzm2w6n00000gn/T//ccWK92CN.s 			page 83


 4516      46475200 
 4517              	.LASF157:
 4518 031b 64756D6D 		.ascii	"dummyrx\000"
 4518      79727800 
 4519              	.LASF16:
 4520 0323 746D6F64 		.ascii	"tmode_t\000"
 4520      655F7400 
 4521              	.LASF6:
 4522 032b 75696E74 		.ascii	"uint16_t\000"
 4522      31365F74 
 4522      00
 4523              	.LASF84:
 4524 0334 41504232 		.ascii	"APB2LPENR\000"
 4524      4C50454E 
 4524      5200
 4525              	.LASF45:
 4526 033e 54687265 		.ascii	"ThreadsList\000"
 4526      6164734C 
 4526      69737400 
 4527              	.LASF22:
 4528 034a 6576656E 		.ascii	"eventmask_t\000"
 4528      746D6173 
 4528      6B5F7400 
 4529              	.LASF50:
 4530 0356 4D757465 		.ascii	"Mutex\000"
 4530      7800
 4531              	.LASF144:
 4532 035c 7370695F 		.ascii	"spi_lld_init\000"
 4532      6C6C645F 
 4532      696E6974 
 4532      00
 4533              	.LASF154:
 4534 0369 7370695F 		.ascii	"spi_lld_receive\000"
 4534      6C6C645F 
 4534      72656365 
 4534      69766500 
 4535              	.LASF98:
 4536 0379 49325350 		.ascii	"I2SPR\000"
 4536      5200
 4537              	.LASF49:
 4538 037f 73697A65 		.ascii	"sizetype\000"
 4538      74797065 
 4538      00
 4539              	.LASF108:
 4540 0388 636C6561 		.ascii	"clear\000"
 4540      7200
 4541              	.LASF150:
 4542 038e 7370695F 		.ascii	"spi_lld_exchange\000"
 4542      6C6C645F 
 4542      65786368 
 4542      616E6765 
 4542      00
 4543              	.LASF25:
 4544 039f 705F6E65 		.ascii	"p_next\000"
 4544      787400
 4545              	.LASF146:
 4546 03a6 7370695F 		.ascii	"spi_lld_stop\000"
ARM GAS  /var/folders/ng/s8655sgx1ys_4lf9jzm2w6n00000gn/T//ccWK92CN.s 			page 84


 4546      6C6C645F 
 4546      73746F70 
 4546      00
 4547              	.LASF118:
 4548 03b3 696F706F 		.ascii	"ioportmask_t\000"
 4548      72746D61 
 4548      736B5F74 
 4548      00
 4549              	.LASF30:
 4550 03c0 705F6F6C 		.ascii	"p_older\000"
 4550      64657200 
 4551              	.LASF44:
 4552 03c8 54687265 		.ascii	"ThreadsQueue\000"
 4552      61647351 
 4552      75657565 
 4552      00
 4553              	.LASF80:
 4554 03d5 41484232 		.ascii	"AHB2LPENR\000"
 4554      4C50454E 
 4554      5200
 4555              	.LASF111:
 4556 03df 4F535045 		.ascii	"OSPEEDR\000"
 4556      45445200 
 4557              	.LASF34:
 4558 03e7 705F7265 		.ascii	"p_refs\000"
 4558      667300
 4559              	.LASF69:
 4560 03ee 41504231 		.ascii	"APB1RSTR\000"
 4560      52535452 
 4560      00
 4561              	.LASF116:
 4562 03f7 41465248 		.ascii	"AFRH\000"
 4562      00
 4563              	.LASF93:
 4564 03fc 43524350 		.ascii	"CRCPR\000"
 4564      5200
 4565              	.LASF115:
 4566 0402 4146524C 		.ascii	"AFRL\000"
 4566      00
 4567              	.LASF90:
 4568 0407 504C4C53 		.ascii	"PLLSAICFGR\000"
 4568      41494346 
 4568      475200
 4569              	.LASF95:
 4570 0412 54584352 		.ascii	"TXCRCR\000"
 4570      435200
 4571              	.LASF68:
 4572 0419 52455345 		.ascii	"RESERVED0\000"
 4572      52564544 
 4572      3000
 4573              	.LASF71:
 4574 0423 52455345 		.ascii	"RESERVED1\000"
 4574      52564544 
 4574      3100
 4575              	.LASF75:
 4576 042d 52455345 		.ascii	"RESERVED2\000"
 4576      52564544 
ARM GAS  /var/folders/ng/s8655sgx1ys_4lf9jzm2w6n00000gn/T//ccWK92CN.s 			page 85


 4576      3200
 4577              	.LASF78:
 4578 0437 52455345 		.ascii	"RESERVED3\000"
 4578      52564544 
 4578      3300
 4579              	.LASF82:
 4580 0441 52455345 		.ascii	"RESERVED4\000"
 4580      52564544 
 4580      3400
 4581              	.LASF26:
 4582 044b 705F7072 		.ascii	"p_prev\000"
 4582      657600
 4583              	.LASF87:
 4584 0452 52455345 		.ascii	"RESERVED6\000"
 4584      52564544 
 4584      3600
 4585              	.LASF97:
 4586 045c 52455345 		.ascii	"RESERVED7\000"
 4586      52564544 
 4586      3700
 4587              	.LASF99:
 4588 0466 52455345 		.ascii	"RESERVED8\000"
 4588      52564544 
 4588      3800
 4589              	.LASF20:
 4590 0470 74707269 		.ascii	"tprio_t\000"
 4590      6F5F7400 
 4591              	.LASF130:
 4592 0478 6D757465 		.ascii	"mutex\000"
 4592      7800
 4593              	.LASF15:
 4594 047e 5F426F6F 		.ascii	"_Bool\000"
 4594      6C00
 4595              	.LASF8:
 4596 0484 696E7433 		.ascii	"int32_t\000"
 4596      325F7400 
 4597              	.LASF4:
 4598 048c 756E7369 		.ascii	"unsigned char\000"
 4598      676E6564 
 4598      20636861 
 4598      7200
 4599              	.LASF106:
 4600 049a 73746D33 		.ascii	"stm32_dma_stream_t\000"
 4600      325F646D 
 4600      615F7374 
 4600      7265616D 
 4600      5F7400
 4601              	.LASF160:
 4602 04ad 53504944 		.ascii	"SPID1\000"
 4602      3100
 4603              	.LASF161:
 4604 04b3 53504944 		.ascii	"SPID3\000"
 4604      3300
 4605              	.LASF156:
 4606 04b9 64756D6D 		.ascii	"dummytx\000"
 4606      79747800 
 4607              	.LASF32:
ARM GAS  /var/folders/ng/s8655sgx1ys_4lf9jzm2w6n00000gn/T//ccWK92CN.s 			page 86


 4608 04c1 705F7374 		.ascii	"p_state\000"
 4608      61746500 
 4609              	.LASF41:
 4610 04c9 705F6D74 		.ascii	"p_mtxlist\000"
 4610      786C6973 
 4610      7400
 4611              	.LASF5:
 4612 04d3 73686F72 		.ascii	"short int\000"
 4612      7420696E 
 4612      7400
 4613              	.LASF35:
 4614 04dd 705F7072 		.ascii	"p_preempt\000"
 4614      65656D70 
 4614      7400
 4615              	.LASF81:
 4616 04e7 41484233 		.ascii	"AHB3LPENR\000"
 4616      4C50454E 
 4616      5200
 4617              	.LASF169:
 4618 04f1 7370694F 		.ascii	"spiObjectInit\000"
 4618      626A6563 
 4618      74496E69 
 4618      7400
 4619              	.LASF57:
 4620 04ff 65776D61 		.ascii	"ewmask\000"
 4620      736B00
 4621              	.LASF33:
 4622 0506 705F666C 		.ascii	"p_flags\000"
 4622      61677300 
 4623              	.LASF77:
 4624 050e 41504232 		.ascii	"APB2ENR\000"
 4624      454E5200 
 4625              	.LASF67:
 4626 0516 41484233 		.ascii	"AHB3RSTR\000"
 4626      52535452 
 4626      00
 4627              	.LASF24:
 4628 051f 54687265 		.ascii	"Thread\000"
 4628      616400
 4629              	.LASF40:
 4630 0526 705F6570 		.ascii	"p_epending\000"
 4630      656E6469 
 4630      6E6700
 4631              	.LASF102:
 4632 0531 69666372 		.ascii	"ifcr\000"
 4632      00
 4633              	.LASF85:
 4634 0536 52455345 		.ascii	"RESERVED5\000"
 4634      52564544 
 4634      3500
 4635              	.LASF10:
 4636 0540 75696E74 		.ascii	"uint32_t\000"
 4636      33325F74 
 4636      00
 4637              	.LASF162:
 4638 0549 63685363 		.ascii	"chSchReadyI\000"
 4638      68526561 
ARM GAS  /var/folders/ng/s8655sgx1ys_4lf9jzm2w6n00000gn/T//ccWK92CN.s 			page 87


 4638      64794900 
 4639              	.LASF76:
 4640 0555 41504231 		.ascii	"APB1ENR\000"
 4640      454E5200 
 4641              	.LASF11:
 4642 055d 6C6F6E67 		.ascii	"long unsigned int\000"
 4642      20756E73 
 4642      69676E65 
 4642      6420696E 
 4642      7400
 4643              	.LASF100:
 4644 056f 5350495F 		.ascii	"SPI_TypeDef\000"
 4644      54797065 
 4644      44656600 
 4645              	.LASF58:
 4646 057b 63686172 		.ascii	"char\000"
 4646      00
 4647              	.LASF170:
 4648 0580 646D6153 		.ascii	"dmaStreamRelease\000"
 4648      74726561 
 4648      6D52656C 
 4648      65617365 
 4648      00
 4649              	.LASF124:
 4650 0591 5350495F 		.ascii	"SPI_COMPLETE\000"
 4650      434F4D50 
 4650      4C455445 
 4650      00
 4651              	.LASF128:
 4652 059e 636F6E66 		.ascii	"config\000"
 4652      696700
 4653              	.LASF168:
 4654 05a5 706F7274 		.ascii	"port_halt\000"
 4654      5F68616C 
 4654      7400
 4655              	.LASF66:
 4656 05af 41484232 		.ascii	"AHB2RSTR\000"
 4656      52535452 
 4656      00
 4657              	.LASF125:
 4658 05b8 73706973 		.ascii	"spistate_t\000"
 4658      74617465 
 4658      5F7400
 4659              	.LASF53:
 4660 05c3 6D5F6E65 		.ascii	"m_next\000"
 4660      787400
 4661              	.LASF23:
 4662 05ca 73797374 		.ascii	"systime_t\000"
 4662      696D655F 
 4662      7400
 4663              	.LASF42:
 4664 05d4 705F7265 		.ascii	"p_realprio\000"
 4664      616C7072 
 4664      696F00
 4665              	.LASF129:
 4666 05df 74687265 		.ascii	"thread\000"
 4666      616400
ARM GAS  /var/folders/ng/s8655sgx1ys_4lf9jzm2w6n00000gn/T//ccWK92CN.s 			page 88


 4667              	.LASF59:
 4668 05e6 4E445452 		.ascii	"NDTR\000"
 4668      00
 4669              	.LASF62:
 4670 05eb 444D415F 		.ascii	"DMA_Stream_TypeDef\000"
 4670      53747265 
 4670      616D5F54 
 4670      79706544 
 4670      656600
 4671              	.LASF119:
 4672 05fe 696F706F 		.ascii	"ioportid_t\000"
 4672      72746964 
 4672      5F7400
 4673              	.LASF73:
 4674 0609 41484232 		.ascii	"AHB2ENR\000"
 4674      454E5200 
 4675              	.LASF147:
 4676 0611 7370695F 		.ascii	"spi_lld_select\000"
 4676      6C6C645F 
 4676      73656C65 
 4676      637400
 4677              	.LASF47:
 4678 0620 696E7463 		.ascii	"intctx\000"
 4678      747800
 4679              	.LASF61:
 4680 0627 4D314152 		.ascii	"M1AR\000"
 4680      00
 4681              	.LASF120:
 4682 062c 5350495F 		.ascii	"SPI_UNINIT\000"
 4682      554E494E 
 4682      495400
 4683              	.LASF88:
 4684 0637 53534347 		.ascii	"SSCGR\000"
 4684      5200
 4685              	.LASF149:
 4686 063d 7370695F 		.ascii	"spi_lld_ignore\000"
 4686      6C6C645F 
 4686      69676E6F 
 4686      726500
 4687              	.LASF86:
 4688 064c 42444352 		.ascii	"BDCR\000"
 4688      00
 4689              	.LASF94:
 4690 0651 52584352 		.ascii	"RXCRCR\000"
 4690      435200
 4691              	.LASF145:
 4692 0658 7370695F 		.ascii	"spi_lld_start\000"
 4692      6C6C645F 
 4692      73746172 
 4692      7400
 4693              	.LASF3:
 4694 0666 75696E74 		.ascii	"uint8_t\000"
 4694      385F7400 
 4695              	.LASF140:
 4696 066e 73706970 		.ascii	"spip\000"
 4696      00
 4697              	.LASF141:
ARM GAS  /var/folders/ng/s8655sgx1ys_4lf9jzm2w6n00000gn/T//ccWK92CN.s 			page 89


 4698 0673 666C6167 		.ascii	"flags\000"
 4698      7300
 4699              	.LASF56:
 4700 0679 77746F62 		.ascii	"wtobjp\000"
 4700      6A7000
 4701              	.LASF142:
 4702 0680 7370695F 		.ascii	"spi_lld_serve_tx_interrupt\000"
 4702      6C6C645F 
 4702      73657276 
 4702      655F7478 
 4702      5F696E74 
 4703              	.LASF31:
 4704 069b 705F6E61 		.ascii	"p_name\000"
 4704      6D6500
 4705              	.LASF72:
 4706 06a2 41484231 		.ascii	"AHB1ENR\000"
 4706      454E5200 
 4707              	.LASF167:
 4708 06aa 7370695F 		.ascii	"spi_lld_polled_exchange\000"
 4708      6C6C645F 
 4708      706F6C6C 
 4708      65645F65 
 4708      78636861 
 4709              	.LASF139:
 4710 06c2 53504943 		.ascii	"SPIConfig\000"
 4710      6F6E6669 
 4710      6700
 4711              	.LASF39:
 4712 06cc 705F6D73 		.ascii	"p_msg\000"
 4712      6700
 4713              	.LASF52:
 4714 06d2 6D5F6F77 		.ascii	"m_owner\000"
 4714      6E657200 
 4715              	.LASF163:
 4716 06da 646D6153 		.ascii	"dmaStreamAllocate\000"
 4716      74726561 
 4716      6D416C6C 
 4716      6F636174 
 4716      6500
 4717              	.LASF28:
 4718 06ec 705F6374 		.ascii	"p_ctx\000"
 4718      7800
 4719              	.LASF37:
 4720 06f2 705F7761 		.ascii	"p_waiting\000"
 4720      6974696E 
 4720      6700
 4721              		.ident	"GCC: (GNU Tools for ARM Embedded Processors) 4.7.4 20130913 (release) [ARM/embedded-4_7-br
ARM GAS  /var/folders/ng/s8655sgx1ys_4lf9jzm2w6n00000gn/T//ccWK92CN.s 			page 90


DEFINED SYMBOLS
                            *ABS*:0000000000000000 spi_lld.c
/var/folders/ng/s8655sgx1ys_4lf9jzm2w6n00000gn/T//ccWK92CN.s:20     .text.spi_lld_serve_tx_interrupt:0000000000000000 $t
/var/folders/ng/s8655sgx1ys_4lf9jzm2w6n00000gn/T//ccWK92CN.s:25     .text.spi_lld_serve_tx_interrupt:0000000000000000 spi_lld_serve_tx_interrupt
/var/folders/ng/s8655sgx1ys_4lf9jzm2w6n00000gn/T//ccWK92CN.s:47     .text.spi_lld_serve_rx_interrupt:0000000000000000 $t
/var/folders/ng/s8655sgx1ys_4lf9jzm2w6n00000gn/T//ccWK92CN.s:52     .text.spi_lld_serve_rx_interrupt:0000000000000000 spi_lld_serve_rx_interrupt
/var/folders/ng/s8655sgx1ys_4lf9jzm2w6n00000gn/T//ccWK92CN.s:180    .text.spi_lld_init:0000000000000000 $t
/var/folders/ng/s8655sgx1ys_4lf9jzm2w6n00000gn/T//ccWK92CN.s:186    .text.spi_lld_init:0000000000000000 spi_lld_init
/var/folders/ng/s8655sgx1ys_4lf9jzm2w6n00000gn/T//ccWK92CN.s:899    .bss.dummytx:0000000000000000 .LANCHOR0
/var/folders/ng/s8655sgx1ys_4lf9jzm2w6n00000gn/T//ccWK92CN.s:906    .bss.SPID1:0000000000000000 .LANCHOR1
/var/folders/ng/s8655sgx1ys_4lf9jzm2w6n00000gn/T//ccWK92CN.s:913    .bss.SPID3:0000000000000000 .LANCHOR2
/var/folders/ng/s8655sgx1ys_4lf9jzm2w6n00000gn/T//ccWK92CN.s:281    .text.spi_lld_init:0000000000000078 $d
/var/folders/ng/s8655sgx1ys_4lf9jzm2w6n00000gn/T//ccWK92CN.s:286    .text.spi_lld_start:0000000000000000 $t
/var/folders/ng/s8655sgx1ys_4lf9jzm2w6n00000gn/T//ccWK92CN.s:292    .text.spi_lld_start:0000000000000000 spi_lld_start
/var/folders/ng/s8655sgx1ys_4lf9jzm2w6n00000gn/T//ccWK92CN.s:446    .text.spi_lld_start:00000000000000d0 $d
/var/folders/ng/s8655sgx1ys_4lf9jzm2w6n00000gn/T//ccWK92CN.s:455    .text.spi_lld_stop:0000000000000000 $t
/var/folders/ng/s8655sgx1ys_4lf9jzm2w6n00000gn/T//ccWK92CN.s:461    .text.spi_lld_stop:0000000000000000 spi_lld_stop
/var/folders/ng/s8655sgx1ys_4lf9jzm2w6n00000gn/T//ccWK92CN.s:529    .text.spi_lld_stop:0000000000000050 $d
/var/folders/ng/s8655sgx1ys_4lf9jzm2w6n00000gn/T//ccWK92CN.s:535    .text.spi_lld_select:0000000000000000 $t
/var/folders/ng/s8655sgx1ys_4lf9jzm2w6n00000gn/T//ccWK92CN.s:541    .text.spi_lld_select:0000000000000000 spi_lld_select
/var/folders/ng/s8655sgx1ys_4lf9jzm2w6n00000gn/T//ccWK92CN.s:563    .text.spi_lld_unselect:0000000000000000 $t
/var/folders/ng/s8655sgx1ys_4lf9jzm2w6n00000gn/T//ccWK92CN.s:569    .text.spi_lld_unselect:0000000000000000 spi_lld_unselect
/var/folders/ng/s8655sgx1ys_4lf9jzm2w6n00000gn/T//ccWK92CN.s:591    .text.spi_lld_ignore:0000000000000000 $t
/var/folders/ng/s8655sgx1ys_4lf9jzm2w6n00000gn/T//ccWK92CN.s:597    .text.spi_lld_ignore:0000000000000000 spi_lld_ignore
/var/folders/ng/s8655sgx1ys_4lf9jzm2w6n00000gn/T//ccWK92CN.s:920    .bss.dummyrx:0000000000000000 .LANCHOR3
/var/folders/ng/s8655sgx1ys_4lf9jzm2w6n00000gn/T//ccWK92CN.s:660    .text.spi_lld_exchange:0000000000000000 $t
/var/folders/ng/s8655sgx1ys_4lf9jzm2w6n00000gn/T//ccWK92CN.s:666    .text.spi_lld_exchange:0000000000000000 spi_lld_exchange
/var/folders/ng/s8655sgx1ys_4lf9jzm2w6n00000gn/T//ccWK92CN.s:728    .text.spi_lld_send:0000000000000000 $t
/var/folders/ng/s8655sgx1ys_4lf9jzm2w6n00000gn/T//ccWK92CN.s:734    .text.spi_lld_send:0000000000000000 spi_lld_send
/var/folders/ng/s8655sgx1ys_4lf9jzm2w6n00000gn/T//ccWK92CN.s:796    .text.spi_lld_receive:0000000000000000 $t
/var/folders/ng/s8655sgx1ys_4lf9jzm2w6n00000gn/T//ccWK92CN.s:802    .text.spi_lld_receive:0000000000000000 spi_lld_receive
/var/folders/ng/s8655sgx1ys_4lf9jzm2w6n00000gn/T//ccWK92CN.s:864    .text.spi_lld_polled_exchange:0000000000000000 $t
/var/folders/ng/s8655sgx1ys_4lf9jzm2w6n00000gn/T//ccWK92CN.s:870    .text.spi_lld_polled_exchange:0000000000000000 spi_lld_polled_exchange
/var/folders/ng/s8655sgx1ys_4lf9jzm2w6n00000gn/T//ccWK92CN.s:916    .bss.SPID3:0000000000000000 SPID3
/var/folders/ng/s8655sgx1ys_4lf9jzm2w6n00000gn/T//ccWK92CN.s:909    .bss.SPID1:0000000000000000 SPID1
/var/folders/ng/s8655sgx1ys_4lf9jzm2w6n00000gn/T//ccWK92CN.s:898    .bss.dummytx:0000000000000000 $d
/var/folders/ng/s8655sgx1ys_4lf9jzm2w6n00000gn/T//ccWK92CN.s:902    .bss.dummytx:0000000000000000 dummytx
/var/folders/ng/s8655sgx1ys_4lf9jzm2w6n00000gn/T//ccWK92CN.s:905    .bss.SPID1:0000000000000000 $d
/var/folders/ng/s8655sgx1ys_4lf9jzm2w6n00000gn/T//ccWK92CN.s:912    .bss.SPID3:0000000000000000 $d
/var/folders/ng/s8655sgx1ys_4lf9jzm2w6n00000gn/T//ccWK92CN.s:919    .bss.dummyrx:0000000000000000 $d
/var/folders/ng/s8655sgx1ys_4lf9jzm2w6n00000gn/T//ccWK92CN.s:923    .bss.dummyrx:0000000000000000 dummyrx
                     .debug_frame:0000000000000010 $d
/var/folders/ng/s8655sgx1ys_4lf9jzm2w6n00000gn/T//ccWK92CN.s:285    .text.spi_lld_init:000000000000007c $t
/var/folders/ng/s8655sgx1ys_4lf9jzm2w6n00000gn/T//ccWK92CN.s:534    .text.spi_lld_stop:0000000000000058 $t

UNDEFINED SYMBOLS
port_halt
chSchReadyI
spiObjectInit
_stm32_dma_streams
dmaStreamAllocate
dmaStreamRelease
