ARM GAS  /var/folders/ng/s8655sgx1ys_4lf9jzm2w6n00000gn/T//ccCaeVmP.s 			page 1


   1              		.syntax unified
   2              		.cpu cortex-m4
   3              		.eabi_attribute 27, 3
   4              		.fpu fpv4-sp-d16
   5              		.eabi_attribute 20, 1
   6              		.eabi_attribute 21, 1
   7              		.eabi_attribute 23, 3
   8              		.eabi_attribute 24, 1
   9              		.eabi_attribute 25, 1
  10              		.eabi_attribute 26, 1
  11              		.eabi_attribute 30, 2
  12              		.eabi_attribute 34, 1
  13              		.eabi_attribute 18, 4
  14              		.thumb
  15              		.file	"stm_flash.c"
  16              		.text
  17              	.Ltext0:
  18              		.cfi_sections	.debug_frame
  19              		.section	.text.FLASH_SetLatency,"ax",%progbits
  20              		.align	2
  21              		.p2align 4,,15
  22              		.global	FLASH_SetLatency
  23              		.thumb
  24              		.thumb_func
  25              		.type	FLASH_SetLatency, %function
  26              	FLASH_SetLatency:
  27              	.LFB111:
  28              		.file 1 "../AithonLibrary/stm_flash.c"
  29              		.loc 1 167 0
  30              		.cfi_startproc
  31              		@ args = 0, pretend = 0, frame = 0
  32              		@ frame_needed = 0, uses_anonymous_args = 0
  33              		@ link register save eliminated.
  34              	.LVL0:
  35              		.loc 1 170 0
  36 0000 4FF47053 		mov	r3, #15360
  37 0004 C4F20203 		movt	r3, 16386
  38 0008 C0B2     		uxtb	r0, r0
  39              	.LVL1:
  40 000a 1870     		strb	r0, [r3, #0]
  41 000c 7047     		bx	lr
  42              		.cfi_endproc
  43              	.LFE111:
  44              		.size	FLASH_SetLatency, .-FLASH_SetLatency
  45 000e 00BF     		.section	.text.FLASH_PrefetchBufferCmd,"ax",%progbits
  46              		.align	2
  47              		.p2align 4,,15
  48              		.global	FLASH_PrefetchBufferCmd
  49              		.thumb
  50              		.thumb_func
  51              		.type	FLASH_PrefetchBufferCmd, %function
  52              	FLASH_PrefetchBufferCmd:
  53              	.LFB112:
  54              		.loc 1 180 0
  55              		.cfi_startproc
  56              		@ args = 0, pretend = 0, frame = 0
  57              		@ frame_needed = 0, uses_anonymous_args = 0
ARM GAS  /var/folders/ng/s8655sgx1ys_4lf9jzm2w6n00000gn/T//ccCaeVmP.s 			page 2


  58              		@ link register save eliminated.
  59              	.LVL2:
  60              		.loc 1 185 0
  61 0000 4FF47053 		mov	r3, #15360
  62 0004 C4F20203 		movt	r3, 16386
  63 0008 1A68     		ldr	r2, [r3, #0]
  64              		.loc 1 183 0
  65 000a 18B9     		cbnz	r0, .L6
  66              		.loc 1 189 0
  67 000c 22F48070 		bic	r0, r2, #256
  68              	.LVL3:
  69 0010 1860     		str	r0, [r3, #0]
  70 0012 7047     		bx	lr
  71              	.LVL4:
  72              	.L6:
  73              		.loc 1 185 0
  74 0014 42F48071 		orr	r1, r2, #256
  75 0018 1960     		str	r1, [r3, #0]
  76 001a 7047     		bx	lr
  77              		.cfi_endproc
  78              	.LFE112:
  79              		.size	FLASH_PrefetchBufferCmd, .-FLASH_PrefetchBufferCmd
  80 001c AFF30080 		.section	.text.FLASH_InstructionCacheCmd,"ax",%progbits
  81              		.align	2
  82              		.p2align 4,,15
  83              		.global	FLASH_InstructionCacheCmd
  84              		.thumb
  85              		.thumb_func
  86              		.type	FLASH_InstructionCacheCmd, %function
  87              	FLASH_InstructionCacheCmd:
  88              	.LFB113:
  89              		.loc 1 200 0
  90              		.cfi_startproc
  91              		@ args = 0, pretend = 0, frame = 0
  92              		@ frame_needed = 0, uses_anonymous_args = 0
  93              		@ link register save eliminated.
  94              	.LVL5:
  95              		.loc 1 204 0
  96 0000 4FF47053 		mov	r3, #15360
  97 0004 C4F20203 		movt	r3, 16386
  98 0008 1A68     		ldr	r2, [r3, #0]
  99              		.loc 1 202 0
 100 000a 18B9     		cbnz	r0, .L10
 101              		.loc 1 208 0
 102 000c 22F40070 		bic	r0, r2, #512
 103              	.LVL6:
 104 0010 1860     		str	r0, [r3, #0]
 105 0012 7047     		bx	lr
 106              	.LVL7:
 107              	.L10:
 108              		.loc 1 204 0
 109 0014 42F40071 		orr	r1, r2, #512
 110 0018 1960     		str	r1, [r3, #0]
 111 001a 7047     		bx	lr
 112              		.cfi_endproc
 113              	.LFE113:
 114              		.size	FLASH_InstructionCacheCmd, .-FLASH_InstructionCacheCmd
ARM GAS  /var/folders/ng/s8655sgx1ys_4lf9jzm2w6n00000gn/T//ccCaeVmP.s 			page 3


 115 001c AFF30080 		.section	.text.FLASH_DataCacheCmd,"ax",%progbits
 116              		.align	2
 117              		.p2align 4,,15
 118              		.global	FLASH_DataCacheCmd
 119              		.thumb
 120              		.thumb_func
 121              		.type	FLASH_DataCacheCmd, %function
 122              	FLASH_DataCacheCmd:
 123              	.LFB114:
 124              		.loc 1 219 0
 125              		.cfi_startproc
 126              		@ args = 0, pretend = 0, frame = 0
 127              		@ frame_needed = 0, uses_anonymous_args = 0
 128              		@ link register save eliminated.
 129              	.LVL8:
 130              		.loc 1 223 0
 131 0000 4FF47053 		mov	r3, #15360
 132 0004 C4F20203 		movt	r3, 16386
 133 0008 1A68     		ldr	r2, [r3, #0]
 134              		.loc 1 221 0
 135 000a 18B9     		cbnz	r0, .L14
 136              		.loc 1 227 0
 137 000c 22F48060 		bic	r0, r2, #1024
 138              	.LVL9:
 139 0010 1860     		str	r0, [r3, #0]
 140 0012 7047     		bx	lr
 141              	.LVL10:
 142              	.L14:
 143              		.loc 1 223 0
 144 0014 42F48061 		orr	r1, r2, #1024
 145 0018 1960     		str	r1, [r3, #0]
 146 001a 7047     		bx	lr
 147              		.cfi_endproc
 148              	.LFE114:
 149              		.size	FLASH_DataCacheCmd, .-FLASH_DataCacheCmd
 150 001c AFF30080 		.section	.text.FLASH_InstructionCacheReset,"ax",%progbits
 151              		.align	2
 152              		.p2align 4,,15
 153              		.global	FLASH_InstructionCacheReset
 154              		.thumb
 155              		.thumb_func
 156              		.type	FLASH_InstructionCacheReset, %function
 157              	FLASH_InstructionCacheReset:
 158              	.LFB115:
 159              		.loc 1 238 0
 160              		.cfi_startproc
 161              		@ args = 0, pretend = 0, frame = 0
 162              		@ frame_needed = 0, uses_anonymous_args = 0
 163              		@ link register save eliminated.
 164              		.loc 1 239 0
 165 0000 4FF47053 		mov	r3, #15360
 166 0004 C4F20203 		movt	r3, 16386
 167 0008 1A68     		ldr	r2, [r3, #0]
 168 000a 42F40060 		orr	r0, r2, #2048
 169 000e 1860     		str	r0, [r3, #0]
 170 0010 7047     		bx	lr
 171              		.cfi_endproc
ARM GAS  /var/folders/ng/s8655sgx1ys_4lf9jzm2w6n00000gn/T//ccCaeVmP.s 			page 4


 172              	.LFE115:
 173              		.size	FLASH_InstructionCacheReset, .-FLASH_InstructionCacheReset
 174 0012 00BFAFF3 		.section	.text.FLASH_DataCacheReset,"ax",%progbits
 174      0080AFF3 
 174      0080AFF3 
 174      0080
 175              		.align	2
 176              		.p2align 4,,15
 177              		.global	FLASH_DataCacheReset
 178              		.thumb
 179              		.thumb_func
 180              		.type	FLASH_DataCacheReset, %function
 181              	FLASH_DataCacheReset:
 182              	.LFB116:
 183              		.loc 1 249 0
 184              		.cfi_startproc
 185              		@ args = 0, pretend = 0, frame = 0
 186              		@ frame_needed = 0, uses_anonymous_args = 0
 187              		@ link register save eliminated.
 188              		.loc 1 250 0
 189 0000 4FF47053 		mov	r3, #15360
 190 0004 C4F20203 		movt	r3, 16386
 191 0008 1A68     		ldr	r2, [r3, #0]
 192 000a 42F48050 		orr	r0, r2, #4096
 193 000e 1860     		str	r0, [r3, #0]
 194 0010 7047     		bx	lr
 195              		.cfi_endproc
 196              	.LFE116:
 197              		.size	FLASH_DataCacheReset, .-FLASH_DataCacheReset
 198 0012 00BFAFF3 		.section	.text.FLASH_Unlock,"ax",%progbits
 198      0080AFF3 
 198      0080AFF3 
 198      0080
 199              		.align	2
 200              		.p2align 4,,15
 201              		.global	FLASH_Unlock
 202              		.thumb
 203              		.thumb_func
 204              		.type	FLASH_Unlock, %function
 205              	FLASH_Unlock:
 206              	.LFB117:
 207              		.loc 1 293 0
 208              		.cfi_startproc
 209              		@ args = 0, pretend = 0, frame = 0
 210              		@ frame_needed = 0, uses_anonymous_args = 0
 211              		@ link register save eliminated.
 212              		.loc 1 294 0
 213 0000 4FF47053 		mov	r3, #15360
 214 0004 C4F20203 		movt	r3, 16386
 215 0008 1A69     		ldr	r2, [r3, #16]
 216 000a 002A     		cmp	r2, #0
 217 000c 09DA     		bge	.L17
 218              		.loc 1 297 0
 219 000e 40F22311 		movw	r1, #291
 220              		.loc 1 298 0
 221 0012 48F6AB10 		movw	r0, #35243
 222              		.loc 1 297 0
ARM GAS  /var/folders/ng/s8655sgx1ys_4lf9jzm2w6n00000gn/T//ccCaeVmP.s 			page 5


 223 0016 C4F26751 		movt	r1, 17767
 224              		.loc 1 298 0
 225 001a CCF6EF50 		movt	r0, 52719
 226              		.loc 1 297 0
 227 001e 5960     		str	r1, [r3, #4]
 228              		.loc 1 298 0
 229 0020 5860     		str	r0, [r3, #4]
 230              	.L17:
 231 0022 7047     		bx	lr
 232              		.cfi_endproc
 233              	.LFE117:
 234              		.size	FLASH_Unlock, .-FLASH_Unlock
 235 0024 AFF30080 		.section	.text.FLASH_Lock,"ax",%progbits
 235      AFF30080 
 235      AFF30080 
 236              		.align	2
 237              		.p2align 4,,15
 238              		.global	FLASH_Lock
 239              		.thumb
 240              		.thumb_func
 241              		.type	FLASH_Lock, %function
 242              	FLASH_Lock:
 243              	.LFB118:
 244              		.loc 1 308 0
 245              		.cfi_startproc
 246              		@ args = 0, pretend = 0, frame = 0
 247              		@ frame_needed = 0, uses_anonymous_args = 0
 248              		@ link register save eliminated.
 249              		.loc 1 310 0
 250 0000 4FF47053 		mov	r3, #15360
 251 0004 C4F20203 		movt	r3, 16386
 252 0008 1A69     		ldr	r2, [r3, #16]
 253 000a 42F00040 		orr	r0, r2, #-2147483648
 254 000e 1861     		str	r0, [r3, #16]
 255 0010 7047     		bx	lr
 256              		.cfi_endproc
 257              	.LFE118:
 258              		.size	FLASH_Lock, .-FLASH_Lock
 259 0012 00BFAFF3 		.section	.text.FLASH_ITConfig,"ax",%progbits
 259      0080AFF3 
 259      0080AFF3 
 259      0080
 260              		.align	2
 261              		.p2align 4,,15
 262              		.global	FLASH_ITConfig
 263              		.thumb
 264              		.thumb_func
 265              		.type	FLASH_ITConfig, %function
 266              	FLASH_ITConfig:
 267              	.LFB127:
 268              		.loc 1 647 0
 269              		.cfi_startproc
 270              		@ args = 0, pretend = 0, frame = 0
 271              		@ frame_needed = 0, uses_anonymous_args = 0
 272              		@ link register save eliminated.
 273              	.LVL11:
 274              		.loc 1 652 0
ARM GAS  /var/folders/ng/s8655sgx1ys_4lf9jzm2w6n00000gn/T//ccCaeVmP.s 			page 6


 275 0000 4FF47053 		mov	r3, #15360
 276 0004 C4F20203 		movt	r3, 16386
 277 0008 1A69     		ldr	r2, [r3, #16]
 278              		.loc 1 649 0
 279 000a 19B9     		cbnz	r1, .L23
 280              		.loc 1 657 0
 281 000c 22EA0000 		bic	r0, r2, r0
 282              	.LVL12:
 283 0010 1861     		str	r0, [r3, #16]
 284 0012 7047     		bx	lr
 285              	.LVL13:
 286              	.L23:
 287              		.loc 1 652 0
 288 0014 1043     		orrs	r0, r0, r2
 289              	.LVL14:
 290 0016 1861     		str	r0, [r3, #16]
 291 0018 7047     		bx	lr
 292              		.cfi_endproc
 293              	.LFE127:
 294              		.size	FLASH_ITConfig, .-FLASH_ITConfig
 295 001a 00BFAFF3 		.section	.text.FLASH_GetFlagStatus,"ax",%progbits
 295      0080
 296              		.align	2
 297              		.p2align 4,,15
 298              		.global	FLASH_GetFlagStatus
 299              		.thumb
 300              		.thumb_func
 301              		.type	FLASH_GetFlagStatus, %function
 302              	FLASH_GetFlagStatus:
 303              	.LFB128:
 304              		.loc 1 675 0
 305              		.cfi_startproc
 306              		@ args = 0, pretend = 0, frame = 0
 307              		@ frame_needed = 0, uses_anonymous_args = 0
 308              		@ link register save eliminated.
 309              	.LVL15:
 310              		.loc 1 678 0
 311 0000 4FF47053 		mov	r3, #15360
 312 0004 C4F20203 		movt	r3, 16386
 313 0008 D968     		ldr	r1, [r3, #12]
 314              	.LVL16:
 315 000a 0842     		tst	r0, r1
 316              		.loc 1 688 0
 317 000c 0CBF     		ite	eq
 318 000e 0020     		moveq	r0, #0
 319 0010 0120     		movne	r0, #1
 320              	.LVL17:
 321 0012 7047     		bx	lr
 322              		.cfi_endproc
 323              	.LFE128:
 324              		.size	FLASH_GetFlagStatus, .-FLASH_GetFlagStatus
 325 0014 AFF30080 		.section	.text.FLASH_ClearFlag,"ax",%progbits
 325      AFF30080 
 325      AFF30080 
 326              		.align	2
 327              		.p2align 4,,15
 328              		.global	FLASH_ClearFlag
ARM GAS  /var/folders/ng/s8655sgx1ys_4lf9jzm2w6n00000gn/T//ccCaeVmP.s 			page 7


 329              		.thumb
 330              		.thumb_func
 331              		.type	FLASH_ClearFlag, %function
 332              	FLASH_ClearFlag:
 333              	.LFB129:
 334              		.loc 1 703 0
 335              		.cfi_startproc
 336              		@ args = 0, pretend = 0, frame = 0
 337              		@ frame_needed = 0, uses_anonymous_args = 0
 338              		@ link register save eliminated.
 339              	.LVL18:
 340              		.loc 1 706 0
 341 0000 4FF47053 		mov	r3, #15360
 342 0004 C4F20203 		movt	r3, 16386
 343 0008 D860     		str	r0, [r3, #12]
 344 000a 7047     		bx	lr
 345              		.cfi_endproc
 346              	.LFE129:
 347              		.size	FLASH_ClearFlag, .-FLASH_ClearFlag
 348 000c AFF30080 		.section	.text.FLASH_GetStatus,"ax",%progbits
 349              		.align	2
 350              		.p2align 4,,15
 351              		.global	FLASH_GetStatus
 352              		.thumb
 353              		.thumb_func
 354              		.type	FLASH_GetStatus, %function
 355              	FLASH_GetStatus:
 356              	.LFB130:
 357              		.loc 1 716 0
 358              		.cfi_startproc
 359              		@ args = 0, pretend = 0, frame = 0
 360              		@ frame_needed = 0, uses_anonymous_args = 0
 361              		@ link register save eliminated.
 362              	.LVL19:
 363              		.loc 1 719 0
 364 0000 4FF47053 		mov	r3, #15360
 365 0004 C4F20203 		movt	r3, 16386
 366 0008 DA68     		ldr	r2, [r3, #12]
 367 000a D103     		lsls	r1, r2, #15
 368 000c 0AD4     		bmi	.L29
 369              		.loc 1 725 0
 370 000e D868     		ldr	r0, [r3, #12]
 371 0010 C206     		lsls	r2, r0, #27
 372 0012 01D5     		bpl	.L33
 373              		.loc 1 727 0
 374 0014 0520     		movs	r0, #5
 375 0016 7047     		bx	lr
 376              	.L33:
 377              		.loc 1 731 0
 378 0018 D968     		ldr	r1, [r3, #12]
 379 001a 11F0EF0F 		tst	r1, #239
 380 001e 03D0     		beq	.L34
 381              		.loc 1 733 0
 382 0020 0620     		movs	r0, #6
 383              	.LVL20:
 384              		.loc 1 750 0
 385 0022 7047     		bx	lr
ARM GAS  /var/folders/ng/s8655sgx1ys_4lf9jzm2w6n00000gn/T//ccCaeVmP.s 			page 8


 386              	.LVL21:
 387              	.L29:
 388              		.loc 1 721 0
 389 0024 0120     		movs	r0, #1
 390 0026 7047     		bx	lr
 391              	.L34:
 392              	.LBB4:
 393              	.LBB5:
 394              		.loc 1 737 0
 395 0028 DB68     		ldr	r3, [r3, #12]
 396 002a 13F0020F 		tst	r3, #2
 397              		.loc 1 739 0
 398 002e 0CBF     		ite	eq
 399 0030 0820     		moveq	r0, #8
 400 0032 0720     		movne	r0, #7
 401 0034 7047     		bx	lr
 402              	.LBE5:
 403              	.LBE4:
 404              		.cfi_endproc
 405              	.LFE130:
 406              		.size	FLASH_GetStatus, .-FLASH_GetStatus
 407 0036 00BFAFF3 		.section	.text.FLASH_EraseSectorGetStatus,"ax",%progbits
 407      0080AFF3 
 407      0080
 408              		.align	2
 409              		.p2align 4,,15
 410              		.global	FLASH_EraseSectorGetStatus
 411              		.thumb
 412              		.thumb_func
 413              		.type	FLASH_EraseSectorGetStatus, %function
 414              	FLASH_EraseSectorGetStatus:
 415              	.LFB121:
 416              		.loc 1 409 0
 417              		.cfi_startproc
 418              		@ args = 0, pretend = 0, frame = 0
 419              		@ frame_needed = 0, uses_anonymous_args = 0
 420 0000 08B5     		push	{r3, lr}
 421              	.LCFI0:
 422              		.cfi_def_cfa_offset 8
 423              		.cfi_offset 3, -8
 424              		.cfi_offset 14, -4
 425              		.loc 1 410 0
 426 0002 FFF7FEFF 		bl	FLASH_GetStatus
 427              	.LVL22:
 428              		.loc 1 411 0
 429 0006 0128     		cmp	r0, #1
 430 0008 07D0     		beq	.L36
 431              		.loc 1 414 0
 432 000a 4FF47053 		mov	r3, #15360
 433 000e C4F20203 		movt	r3, 16386
 434 0012 1A69     		ldr	r2, [r3, #16]
 435 0014 22F00401 		bic	r1, r2, #4
 436 0018 1961     		str	r1, [r3, #16]
 437              	.L36:
 438              		.loc 1 417 0
 439 001a 08BD     		pop	{r3, pc}
 440              		.cfi_endproc
ARM GAS  /var/folders/ng/s8655sgx1ys_4lf9jzm2w6n00000gn/T//ccCaeVmP.s 			page 9


 441              	.LFE121:
 442              		.size	FLASH_EraseSectorGetStatus, .-FLASH_EraseSectorGetStatus
 443 001c AFF30080 		.section	.text.FLASH_WaitForLastOperation,"ax",%progbits
 444              		.align	2
 445              		.p2align 4,,15
 446              		.global	FLASH_WaitForLastOperation
 447              		.thumb
 448              		.thumb_func
 449              		.type	FLASH_WaitForLastOperation, %function
 450              	FLASH_WaitForLastOperation:
 451              	.LFB131:
 452              		.loc 1 759 0
 453              		.cfi_startproc
 454              		@ args = 0, pretend = 0, frame = 8
 455              		@ frame_needed = 0, uses_anonymous_args = 0
 456 0000 00B5     		push	{lr}
 457              	.LCFI1:
 458              		.cfi_def_cfa_offset 4
 459              		.cfi_offset 14, -4
 460 0002 83B0     		sub	sp, sp, #12
 461              	.LCFI2:
 462              		.cfi_def_cfa_offset 16
 463              		.loc 1 760 0
 464 0004 0823     		movs	r3, #8
 465 0006 8DF80730 		strb	r3, [sp, #7]
 466              	.LVL23:
 467              	.L53:
 468              		.loc 1 763 0
 469 000a FFF7FEFF 		bl	FLASH_GetStatus
 470              	.LVL24:
 471 000e 8DF80700 		strb	r0, [sp, #7]
 472              		.loc 1 768 0
 473 0012 9DF80700 		ldrb	r0, [sp, #7]	@ zero_extendqisi2
 474              	.LVL25:
 475 0016 0128     		cmp	r0, #1
 476 0018 F7D0     		beq	.L53
 477              		.loc 1 773 0
 478 001a 9DF80700 		ldrb	r0, [sp, #7]	@ zero_extendqisi2
 479              	.LVL26:
 480              	.LVL27:
 481              		.loc 1 774 0
 482 001e 03B0     		add	sp, sp, #12
 483 0020 00BD     		pop	{pc}
 484              		.cfi_endproc
 485              	.LFE131:
 486              		.size	FLASH_WaitForLastOperation, .-FLASH_WaitForLastOperation
 487 0022 00BFAFF3 		.section	.text.FLASH_ProgramByte,"ax",%progbits
 487      0080AFF3 
 487      0080AFF3 
 487      0080
 488              		.align	2
 489              		.p2align 4,,15
 490              		.global	FLASH_ProgramByte
 491              		.thumb
 492              		.thumb_func
 493              		.type	FLASH_ProgramByte, %function
 494              	FLASH_ProgramByte:
ARM GAS  /var/folders/ng/s8655sgx1ys_4lf9jzm2w6n00000gn/T//ccCaeVmP.s 			page 10


 495              	.LFB126:
 496              		.loc 1 595 0
 497              		.cfi_startproc
 498              		@ args = 0, pretend = 0, frame = 0
 499              		@ frame_needed = 0, uses_anonymous_args = 0
 500              	.LVL28:
 501 0000 70B5     		push	{r4, r5, r6, lr}
 502              	.LCFI3:
 503              		.cfi_def_cfa_offset 16
 504              		.cfi_offset 4, -16
 505              		.cfi_offset 5, -12
 506              		.cfi_offset 6, -8
 507              		.cfi_offset 14, -4
 508              		.loc 1 595 0
 509 0002 0546     		mov	r5, r0
 510 0004 0E46     		mov	r6, r1
 511              		.loc 1 600 0
 512 0006 FFF7FEFF 		bl	FLASH_WaitForLastOperation
 513              	.LVL29:
 514              		.loc 1 602 0
 515 000a 0828     		cmp	r0, #8
 516 000c 00D0     		beq	.L56
 517              		.loc 1 620 0
 518 000e 70BD     		pop	{r4, r5, r6, pc}
 519              	.L56:
 520              		.loc 1 605 0
 521 0010 4FF47054 		mov	r4, #15360
 522 0014 C4F20204 		movt	r4, 16386
 523 0018 2369     		ldr	r3, [r4, #16]
 524 001a 23F44070 		bic	r0, r3, #768
 525              	.LVL30:
 526 001e 2061     		str	r0, [r4, #16]
 527              		.loc 1 606 0
 528 0020 2169     		ldr	r1, [r4, #16]
 529 0022 2161     		str	r1, [r4, #16]
 530              		.loc 1 607 0
 531 0024 2269     		ldr	r2, [r4, #16]
 532 0026 42F00103 		orr	r3, r2, #1
 533 002a 2361     		str	r3, [r4, #16]
 534              		.loc 1 609 0
 535 002c 2E70     		strb	r6, [r5, #0]
 536              		.loc 1 612 0
 537 002e FFF7FEFF 		bl	FLASH_WaitForLastOperation
 538              	.LVL31:
 539              		.loc 1 615 0
 540 0032 2169     		ldr	r1, [r4, #16]
 541 0034 21F00102 		bic	r2, r1, #1
 542 0038 2261     		str	r2, [r4, #16]
 543              		.loc 1 620 0
 544 003a 70BD     		pop	{r4, r5, r6, pc}
 545              		.cfi_endproc
 546              	.LFE126:
 547              		.size	FLASH_ProgramByte, .-FLASH_ProgramByte
 548 003c AFF30080 		.section	.text.FLASH_ProgramHalfWord,"ax",%progbits
 549              		.align	2
 550              		.p2align 4,,15
 551              		.global	FLASH_ProgramHalfWord
ARM GAS  /var/folders/ng/s8655sgx1ys_4lf9jzm2w6n00000gn/T//ccCaeVmP.s 			page 11


 552              		.thumb
 553              		.thumb_func
 554              		.type	FLASH_ProgramHalfWord, %function
 555              	FLASH_ProgramHalfWord:
 556              	.LFB125:
 557              		.loc 1 559 0
 558              		.cfi_startproc
 559              		@ args = 0, pretend = 0, frame = 0
 560              		@ frame_needed = 0, uses_anonymous_args = 0
 561              	.LVL32:
 562 0000 70B5     		push	{r4, r5, r6, lr}
 563              	.LCFI4:
 564              		.cfi_def_cfa_offset 16
 565              		.cfi_offset 4, -16
 566              		.cfi_offset 5, -12
 567              		.cfi_offset 6, -8
 568              		.cfi_offset 14, -4
 569              		.loc 1 559 0
 570 0002 0546     		mov	r5, r0
 571 0004 0E46     		mov	r6, r1
 572              		.loc 1 564 0
 573 0006 FFF7FEFF 		bl	FLASH_WaitForLastOperation
 574              	.LVL33:
 575              		.loc 1 566 0
 576 000a 0828     		cmp	r0, #8
 577 000c 00D0     		beq	.L59
 578              		.loc 1 583 0
 579 000e 70BD     		pop	{r4, r5, r6, pc}
 580              	.L59:
 581              		.loc 1 569 0
 582 0010 4FF47054 		mov	r4, #15360
 583 0014 C4F20204 		movt	r4, 16386
 584 0018 2369     		ldr	r3, [r4, #16]
 585 001a 23F44070 		bic	r0, r3, #768
 586              	.LVL34:
 587 001e 2061     		str	r0, [r4, #16]
 588              		.loc 1 570 0
 589 0020 2169     		ldr	r1, [r4, #16]
 590 0022 41F48072 		orr	r2, r1, #256
 591 0026 2261     		str	r2, [r4, #16]
 592              		.loc 1 571 0
 593 0028 2369     		ldr	r3, [r4, #16]
 594 002a 43F00100 		orr	r0, r3, #1
 595 002e 2061     		str	r0, [r4, #16]
 596              		.loc 1 573 0
 597 0030 2E80     		strh	r6, [r5, #0]	@ movhi
 598              		.loc 1 576 0
 599 0032 FFF7FEFF 		bl	FLASH_WaitForLastOperation
 600              	.LVL35:
 601              		.loc 1 579 0
 602 0036 2169     		ldr	r1, [r4, #16]
 603 0038 21F00102 		bic	r2, r1, #1
 604 003c 2261     		str	r2, [r4, #16]
 605              		.loc 1 583 0
 606 003e 70BD     		pop	{r4, r5, r6, pc}
 607              		.cfi_endproc
 608              	.LFE125:
ARM GAS  /var/folders/ng/s8655sgx1ys_4lf9jzm2w6n00000gn/T//ccCaeVmP.s 			page 12


 609              		.size	FLASH_ProgramHalfWord, .-FLASH_ProgramHalfWord
 610              		.section	.text.FLASH_ProgramWord,"ax",%progbits
 611              		.align	2
 612              		.p2align 4,,15
 613              		.global	FLASH_ProgramWord
 614              		.thumb
 615              		.thumb_func
 616              		.type	FLASH_ProgramWord, %function
 617              	FLASH_ProgramWord:
 618              	.LFB124:
 619              		.loc 1 523 0
 620              		.cfi_startproc
 621              		@ args = 0, pretend = 0, frame = 0
 622              		@ frame_needed = 0, uses_anonymous_args = 0
 623              	.LVL36:
 624 0000 70B5     		push	{r4, r5, r6, lr}
 625              	.LCFI5:
 626              		.cfi_def_cfa_offset 16
 627              		.cfi_offset 4, -16
 628              		.cfi_offset 5, -12
 629              		.cfi_offset 6, -8
 630              		.cfi_offset 14, -4
 631              		.loc 1 523 0
 632 0002 0546     		mov	r5, r0
 633 0004 0E46     		mov	r6, r1
 634              		.loc 1 528 0
 635 0006 FFF7FEFF 		bl	FLASH_WaitForLastOperation
 636              	.LVL37:
 637              		.loc 1 530 0
 638 000a 0828     		cmp	r0, #8
 639 000c 00D0     		beq	.L62
 640              		.loc 1 547 0
 641 000e 70BD     		pop	{r4, r5, r6, pc}
 642              	.L62:
 643              		.loc 1 533 0
 644 0010 4FF47054 		mov	r4, #15360
 645 0014 C4F20204 		movt	r4, 16386
 646 0018 2369     		ldr	r3, [r4, #16]
 647 001a 23F44070 		bic	r0, r3, #768
 648              	.LVL38:
 649 001e 2061     		str	r0, [r4, #16]
 650              		.loc 1 534 0
 651 0020 2169     		ldr	r1, [r4, #16]
 652 0022 41F40072 		orr	r2, r1, #512
 653 0026 2261     		str	r2, [r4, #16]
 654              		.loc 1 535 0
 655 0028 2369     		ldr	r3, [r4, #16]
 656 002a 43F00100 		orr	r0, r3, #1
 657 002e 2061     		str	r0, [r4, #16]
 658              		.loc 1 537 0
 659 0030 2E60     		str	r6, [r5, #0]
 660              		.loc 1 540 0
 661 0032 FFF7FEFF 		bl	FLASH_WaitForLastOperation
 662              	.LVL39:
 663              		.loc 1 543 0
 664 0036 2169     		ldr	r1, [r4, #16]
 665 0038 21F00102 		bic	r2, r1, #1
ARM GAS  /var/folders/ng/s8655sgx1ys_4lf9jzm2w6n00000gn/T//ccCaeVmP.s 			page 13


 666 003c 2261     		str	r2, [r4, #16]
 667              		.loc 1 547 0
 668 003e 70BD     		pop	{r4, r5, r6, pc}
 669              		.cfi_endproc
 670              	.LFE124:
 671              		.size	FLASH_ProgramWord, .-FLASH_ProgramWord
 672              		.section	.text.FLASH_ProgramDoubleWord,"ax",%progbits
 673              		.align	2
 674              		.p2align 4,,15
 675              		.global	FLASH_ProgramDoubleWord
 676              		.thumb
 677              		.thumb_func
 678              		.type	FLASH_ProgramDoubleWord, %function
 679              	FLASH_ProgramDoubleWord:
 680              	.LFB123:
 681              		.loc 1 487 0
 682              		.cfi_startproc
 683              		@ args = 0, pretend = 0, frame = 0
 684              		@ frame_needed = 0, uses_anonymous_args = 0
 685              	.LVL40:
 686 0000 F8B5     		push	{r3, r4, r5, r6, r7, lr}
 687              	.LCFI6:
 688              		.cfi_def_cfa_offset 24
 689              		.cfi_offset 3, -24
 690              		.cfi_offset 4, -20
 691              		.cfi_offset 5, -16
 692              		.cfi_offset 6, -12
 693              		.cfi_offset 7, -8
 694              		.cfi_offset 14, -4
 695              		.loc 1 487 0
 696 0002 0746     		mov	r7, r0
 697 0004 1446     		mov	r4, r2
 698 0006 1D46     		mov	r5, r3
 699              		.loc 1 492 0
 700 0008 FFF7FEFF 		bl	FLASH_WaitForLastOperation
 701              	.LVL41:
 702              		.loc 1 494 0
 703 000c 0828     		cmp	r0, #8
 704 000e 00D0     		beq	.L65
 705              		.loc 1 511 0
 706 0010 F8BD     		pop	{r3, r4, r5, r6, r7, pc}
 707              	.L65:
 708              		.loc 1 497 0
 709 0012 4FF47056 		mov	r6, #15360
 710 0016 C4F20206 		movt	r6, 16386
 711 001a 3369     		ldr	r3, [r6, #16]
 712 001c 23F44070 		bic	r0, r3, #768
 713              	.LVL42:
 714 0020 3061     		str	r0, [r6, #16]
 715              		.loc 1 498 0
 716 0022 3169     		ldr	r1, [r6, #16]
 717 0024 41F44072 		orr	r2, r1, #768
 718 0028 3261     		str	r2, [r6, #16]
 719              		.loc 1 499 0
 720 002a 3369     		ldr	r3, [r6, #16]
 721 002c 43F00100 		orr	r0, r3, #1
 722 0030 3061     		str	r0, [r6, #16]
ARM GAS  /var/folders/ng/s8655sgx1ys_4lf9jzm2w6n00000gn/T//ccCaeVmP.s 			page 14


 723              		.loc 1 501 0
 724 0032 C7E90045 		strd	r4, [r7]
 725              		.loc 1 504 0
 726 0036 FFF7FEFF 		bl	FLASH_WaitForLastOperation
 727              	.LVL43:
 728              		.loc 1 507 0
 729 003a 3169     		ldr	r1, [r6, #16]
 730 003c 21F00102 		bic	r2, r1, #1
 731 0040 3261     		str	r2, [r6, #16]
 732              		.loc 1 511 0
 733 0042 F8BD     		pop	{r3, r4, r5, r6, r7, pc}
 734              		.cfi_endproc
 735              	.LFE123:
 736              		.size	FLASH_ProgramDoubleWord, .-FLASH_ProgramDoubleWord
 737 0044 AFF30080 		.section	.text.FLASH_EraseAllSectors,"ax",%progbits
 737      AFF30080 
 737      AFF30080 
 738              		.align	2
 739              		.p2align 4,,15
 740              		.global	FLASH_EraseAllSectors
 741              		.thumb
 742              		.thumb_func
 743              		.type	FLASH_EraseAllSectors, %function
 744              	FLASH_EraseAllSectors:
 745              	.LFB122:
 746              		.loc 1 437 0
 747              		.cfi_startproc
 748              		@ args = 0, pretend = 0, frame = 0
 749              		@ frame_needed = 0, uses_anonymous_args = 0
 750              	.LVL44:
 751 0000 10B5     		push	{r4, lr}
 752              	.LCFI7:
 753              		.cfi_def_cfa_offset 8
 754              		.cfi_offset 4, -8
 755              		.cfi_offset 14, -4
 756              		.loc 1 442 0
 757 0002 38B1     		cbz	r0, .L67
 758              		.loc 1 446 0
 759 0004 0128     		cmp	r0, #1
 760 0006 1FD0     		beq	.L69
 761              		.loc 1 452 0
 762 0008 0228     		cmp	r0, #2
 763 000a 14BF     		ite	ne
 764 000c 4FF44070 		movne	r0, #768
 765 0010 4FF40070 		moveq	r0, #512
 766              	.LVL45:
 767              	.L67:
 768              		.loc 1 461 0
 769 0014 4FF47054 		mov	r4, #15360
 770 0018 C4F20204 		movt	r4, 16386
 771 001c 2369     		ldr	r3, [r4, #16]
 772 001e 23F44071 		bic	r1, r3, #768
 773 0022 2161     		str	r1, [r4, #16]
 774              		.loc 1 462 0
 775 0024 2269     		ldr	r2, [r4, #16]
 776 0026 1043     		orrs	r0, r0, r2
 777              	.LVL46:
ARM GAS  /var/folders/ng/s8655sgx1ys_4lf9jzm2w6n00000gn/T//ccCaeVmP.s 			page 15


 778 0028 2061     		str	r0, [r4, #16]
 779              		.loc 1 463 0
 780 002a 2069     		ldr	r0, [r4, #16]
 781 002c 40F00403 		orr	r3, r0, #4
 782 0030 2361     		str	r3, [r4, #16]
 783              		.loc 1 464 0
 784 0032 2169     		ldr	r1, [r4, #16]
 785 0034 41F48032 		orr	r2, r1, #65536
 786 0038 2261     		str	r2, [r4, #16]
 787              		.loc 1 467 0
 788 003a FFF7FEFF 		bl	FLASH_WaitForLastOperation
 789              	.LVL47:
 790              		.loc 1 470 0
 791 003e 2369     		ldr	r3, [r4, #16]
 792 0040 23F00401 		bic	r1, r3, #4
 793 0044 2161     		str	r1, [r4, #16]
 794              		.loc 1 475 0
 795 0046 10BD     		pop	{r4, pc}
 796              	.LVL48:
 797              	.L69:
 798              		.loc 1 448 0
 799 0048 4FF48070 		mov	r0, #256
 800              	.LVL49:
 801 004c E2E7     		b	.L67
 802              		.cfi_endproc
 803              	.LFE122:
 804              		.size	FLASH_EraseAllSectors, .-FLASH_EraseAllSectors
 805 004e 00BF     		.section	.text.FLASH_EraseSectorStart,"ax",%progbits
 806              		.align	2
 807              		.p2align 4,,15
 808              		.global	FLASH_EraseSectorStart
 809              		.thumb
 810              		.thumb_func
 811              		.type	FLASH_EraseSectorStart, %function
 812              	FLASH_EraseSectorStart:
 813              	.LFB120:
 814              		.loc 1 380 0
 815              		.cfi_startproc
 816              		@ args = 0, pretend = 0, frame = 0
 817              		@ frame_needed = 0, uses_anonymous_args = 0
 818              	.LVL50:
 819 0000 38B5     		push	{r3, r4, r5, lr}
 820              	.LCFI8:
 821              		.cfi_def_cfa_offset 16
 822              		.cfi_offset 3, -16
 823              		.cfi_offset 4, -12
 824              		.cfi_offset 5, -8
 825              		.cfi_offset 14, -4
 826              		.loc 1 380 0
 827 0002 0446     		mov	r4, r0
 828              		.loc 1 384 0
 829 0004 61B1     		cbz	r1, .L74
 830              		.loc 1 386 0
 831 0006 0129     		cmp	r1, #1
 832 0008 28D0     		beq	.L75
 833              		.loc 1 389 0
 834 000a 0229     		cmp	r1, #2
ARM GAS  /var/folders/ng/s8655sgx1ys_4lf9jzm2w6n00000gn/T//ccCaeVmP.s 			page 16


 835 000c 14BF     		ite	ne
 836 000e 4FF44075 		movne	r5, #768
 837 0012 4FF40075 		moveq	r5, #512
 838              	.LVL51:
 839              		.loc 1 394 0
 840 0016 FFF7FEFF 		bl	FLASH_WaitForLastOperation
 841              	.LVL52:
 842              		.loc 1 395 0
 843 001a 0828     		cmp	r0, #8
 844 001c 05D0     		beq	.L77
 845              	.LVL53:
 846              	.L73:
 847              		.loc 1 407 0
 848 001e 38BD     		pop	{r3, r4, r5, pc}
 849              	.LVL54:
 850              	.L74:
 851              		.loc 1 385 0
 852 0020 0D46     		mov	r5, r1
 853              	.L72:
 854              	.LVL55:
 855              		.loc 1 394 0
 856 0022 FFF7FEFF 		bl	FLASH_WaitForLastOperation
 857              	.LVL56:
 858              		.loc 1 395 0
 859 0026 0828     		cmp	r0, #8
 860 0028 F9D1     		bne	.L73
 861              	.LVL57:
 862              	.L77:
 863              		.loc 1 399 0
 864 002a 4FF47053 		mov	r3, #15360
 865 002e C4F20203 		movt	r3, 16386
 866 0032 1A69     		ldr	r2, [r3, #16]
 867 0034 22F44071 		bic	r1, r2, #768
 868 0038 1961     		str	r1, [r3, #16]
 869              		.loc 1 400 0
 870 003a 1A69     		ldr	r2, [r3, #16]
 871 003c 1543     		orrs	r5, r5, r2
 872              	.LVL58:
 873 003e 1D61     		str	r5, [r3, #16]
 874              		.loc 1 401 0
 875 0040 1969     		ldr	r1, [r3, #16]
 876 0042 21F0F802 		bic	r2, r1, #248
 877 0046 1A61     		str	r2, [r3, #16]
 878              		.loc 1 402 0
 879 0048 1969     		ldr	r1, [r3, #16]
 880 004a 41F00202 		orr	r2, r1, #2
 881 004e 1443     		orrs	r4, r4, r2
 882              	.LVL59:
 883 0050 1C61     		str	r4, [r3, #16]
 884              		.loc 1 403 0
 885 0052 1969     		ldr	r1, [r3, #16]
 886 0054 41F48032 		orr	r2, r1, #65536
 887 0058 1A61     		str	r2, [r3, #16]
 888              		.loc 1 407 0
 889 005a 38BD     		pop	{r3, r4, r5, pc}
 890              	.LVL60:
 891              	.L75:
ARM GAS  /var/folders/ng/s8655sgx1ys_4lf9jzm2w6n00000gn/T//ccCaeVmP.s 			page 17


 892              		.loc 1 387 0
 893 005c 4FF48075 		mov	r5, #256
 894 0060 DFE7     		b	.L72
 895              		.cfi_endproc
 896              	.LFE120:
 897              		.size	FLASH_EraseSectorStart, .-FLASH_EraseSectorStart
 898 0062 00BFAFF3 		.section	.text.FLASH_EraseSector,"ax",%progbits
 898      0080AFF3 
 898      0080AFF3 
 898      0080
 899              		.align	2
 900              		.p2align 4,,15
 901              		.global	FLASH_EraseSector
 902              		.thumb
 903              		.thumb_func
 904              		.type	FLASH_EraseSector, %function
 905              	FLASH_EraseSector:
 906              	.LFB119:
 907              		.loc 1 334 0
 908              		.cfi_startproc
 909              		@ args = 0, pretend = 0, frame = 0
 910              		@ frame_needed = 0, uses_anonymous_args = 0
 911              	.LVL61:
 912 0000 70B5     		push	{r4, r5, r6, lr}
 913              	.LCFI9:
 914              		.cfi_def_cfa_offset 16
 915              		.cfi_offset 4, -16
 916              		.cfi_offset 5, -12
 917              		.cfi_offset 6, -8
 918              		.cfi_offset 14, -4
 919              		.loc 1 334 0
 920 0002 0546     		mov	r5, r0
 921              		.loc 1 339 0
 922 0004 0029     		cmp	r1, #0
 923 0006 2ED0     		beq	.L81
 924              		.loc 1 343 0
 925 0008 0129     		cmp	r1, #1
 926 000a 32D0     		beq	.L82
 927              		.loc 1 349 0
 928 000c 0229     		cmp	r1, #2
 929 000e 14BF     		ite	ne
 930 0010 4FF44076 		movne	r6, #768
 931 0014 4FF40076 		moveq	r6, #512
 932              	.LVL62:
 933              		.loc 1 356 0
 934 0018 FFF7FEFF 		bl	FLASH_WaitForLastOperation
 935              	.LVL63:
 936              		.loc 1 358 0
 937 001c 0828     		cmp	r0, #8
 938 001e 27D1     		bne	.L80
 939              	.LVL64:
 940              	.L84:
 941              		.loc 1 361 0
 942 0020 4FF47054 		mov	r4, #15360
 943 0024 C4F20204 		movt	r4, 16386
 944 0028 2369     		ldr	r3, [r4, #16]
 945 002a 23F44070 		bic	r0, r3, #768
ARM GAS  /var/folders/ng/s8655sgx1ys_4lf9jzm2w6n00000gn/T//ccCaeVmP.s 			page 18


 946 002e 2061     		str	r0, [r4, #16]
 947              		.loc 1 362 0
 948 0030 2169     		ldr	r1, [r4, #16]
 949 0032 0E43     		orrs	r6, r6, r1
 950              	.LVL65:
 951 0034 2661     		str	r6, [r4, #16]
 952              		.loc 1 363 0
 953 0036 2269     		ldr	r2, [r4, #16]
 954 0038 22F0F803 		bic	r3, r2, #248
 955 003c 2361     		str	r3, [r4, #16]
 956              		.loc 1 364 0
 957 003e 2069     		ldr	r0, [r4, #16]
 958 0040 40F00201 		orr	r1, r0, #2
 959 0044 0D43     		orrs	r5, r5, r1
 960              	.LVL66:
 961 0046 2561     		str	r5, [r4, #16]
 962              		.loc 1 365 0
 963 0048 2269     		ldr	r2, [r4, #16]
 964 004a 42F48033 		orr	r3, r2, #65536
 965 004e 2361     		str	r3, [r4, #16]
 966              		.loc 1 368 0
 967 0050 FFF7FEFF 		bl	FLASH_WaitForLastOperation
 968              	.LVL67:
 969              		.loc 1 371 0
 970 0054 2169     		ldr	r1, [r4, #16]
 971 0056 21F00202 		bic	r2, r1, #2
 972 005a 2261     		str	r2, [r4, #16]
 973              		.loc 1 372 0
 974 005c 2369     		ldr	r3, [r4, #16]
 975 005e 23F0F801 		bic	r1, r3, #248
 976 0062 2161     		str	r1, [r4, #16]
 977              		.loc 1 376 0
 978 0064 70BD     		pop	{r4, r5, r6, pc}
 979              	.LVL68:
 980              	.L81:
 981              		.loc 1 341 0
 982 0066 0E46     		mov	r6, r1
 983              	.L79:
 984              	.LVL69:
 985              		.loc 1 356 0
 986 0068 FFF7FEFF 		bl	FLASH_WaitForLastOperation
 987              	.LVL70:
 988              		.loc 1 358 0
 989 006c 0828     		cmp	r0, #8
 990 006e D7D0     		beq	.L84
 991              	.LVL71:
 992              	.L80:
 993              		.loc 1 376 0
 994 0070 70BD     		pop	{r4, r5, r6, pc}
 995              	.LVL72:
 996              	.L82:
 997              		.loc 1 345 0
 998 0072 4FF48076 		mov	r6, #256
 999 0076 F7E7     		b	.L79
 1000              		.cfi_endproc
 1001              	.LFE119:
 1002              		.size	FLASH_EraseSector, .-FLASH_EraseSector
ARM GAS  /var/folders/ng/s8655sgx1ys_4lf9jzm2w6n00000gn/T//ccCaeVmP.s 			page 19


 1003 0078 AFF30080 		.text
 1003      AFF30080 
 1004              	.Letext0:
 1005              		.file 2 "/Users/jseng/gccarm/bin/../lib/gcc/arm-none-eabi/4.7.4/../../../../arm-none-eabi/include/
 1006              		.file 3 "../AithonLibrary/ChibiOS/os/hal/platforms/STM32F4xx/stm32f4xx.h"
 1007              		.file 4 "../AithonLibrary/stm_flash.h"
 1008              		.file 5 "../AithonLibrary/ChibiOS/os/ports/common/ARMCMx/CMSIS/include/core_cm4.h"
 1009              		.section	.debug_info,"",%progbits
 1010              	.Ldebug_info0:
 1011 0000 04070000 		.4byte	0x704
 1012 0004 0200     		.2byte	0x2
 1013 0006 00000000 		.4byte	.Ldebug_abbrev0
 1014 000a 04       		.byte	0x4
 1015 000b 01       		.uleb128 0x1
 1016 000c B8020000 		.4byte	.LASF65
 1017 0010 01       		.byte	0x1
 1018 0011 BF000000 		.4byte	.LASF66
 1019 0015 ED000000 		.4byte	.LASF67
 1020 0019 00000000 		.4byte	.Ldebug_ranges0+0
 1021 001d 00000000 		.4byte	0
 1022 0021 00000000 		.4byte	0
 1023 0025 00000000 		.4byte	.Ldebug_line0
 1024 0029 02       		.uleb128 0x2
 1025 002a 08       		.byte	0x8
 1026 002b 07       		.byte	0x7
 1027 002c FD010000 		.4byte	.LASF0
 1028 0030 02       		.uleb128 0x2
 1029 0031 01       		.byte	0x1
 1030 0032 06       		.byte	0x6
 1031 0033 DD010000 		.4byte	.LASF1
 1032 0037 03       		.uleb128 0x3
 1033 0038 A0000000 		.4byte	.LASF4
 1034 003c 02       		.byte	0x2
 1035 003d 2A       		.byte	0x2a
 1036 003e 42000000 		.4byte	0x42
 1037 0042 02       		.uleb128 0x2
 1038 0043 01       		.byte	0x1
 1039 0044 08       		.byte	0x8
 1040 0045 AC010000 		.4byte	.LASF2
 1041 0049 02       		.uleb128 0x2
 1042 004a 02       		.byte	0x2
 1043 004b 05       		.byte	0x5
 1044 004c 84000000 		.4byte	.LASF3
 1045 0050 03       		.uleb128 0x3
 1046 0051 80020000 		.4byte	.LASF5
 1047 0055 02       		.byte	0x2
 1048 0056 36       		.byte	0x36
 1049 0057 5B000000 		.4byte	0x5b
 1050 005b 02       		.uleb128 0x2
 1051 005c 02       		.byte	0x2
 1052 005d 07       		.byte	0x7
 1053 005e 66020000 		.4byte	.LASF6
 1054 0062 03       		.uleb128 0x3
 1055 0063 89020000 		.4byte	.LASF7
 1056 0067 02       		.byte	0x2
 1057 0068 4F       		.byte	0x4f
 1058 0069 6D000000 		.4byte	0x6d
ARM GAS  /var/folders/ng/s8655sgx1ys_4lf9jzm2w6n00000gn/T//ccCaeVmP.s 			page 20


 1059 006d 02       		.uleb128 0x2
 1060 006e 04       		.byte	0x4
 1061 006f 05       		.byte	0x5
 1062 0070 4F010000 		.4byte	.LASF8
 1063 0074 03       		.uleb128 0x3
 1064 0075 14020000 		.4byte	.LASF9
 1065 0079 02       		.byte	0x2
 1066 007a 50       		.byte	0x50
 1067 007b 7F000000 		.4byte	0x7f
 1068 007f 02       		.uleb128 0x2
 1069 0080 04       		.byte	0x4
 1070 0081 07       		.byte	0x7
 1071 0082 54020000 		.4byte	.LASF10
 1072 0086 02       		.uleb128 0x2
 1073 0087 08       		.byte	0x8
 1074 0088 05       		.byte	0x5
 1075 0089 41010000 		.4byte	.LASF11
 1076 008d 03       		.uleb128 0x3
 1077 008e 35000000 		.4byte	.LASF12
 1078 0092 02       		.byte	0x2
 1079 0093 78       		.byte	0x78
 1080 0094 29000000 		.4byte	0x29
 1081 0098 04       		.uleb128 0x4
 1082 0099 04       		.byte	0x4
 1083 009a 05       		.byte	0x5
 1084 009b 696E7400 		.ascii	"int\000"
 1085 009f 02       		.uleb128 0x2
 1086 00a0 04       		.byte	0x4
 1087 00a1 07       		.byte	0x7
 1088 00a2 2D020000 		.4byte	.LASF13
 1089 00a6 02       		.uleb128 0x2
 1090 00a7 04       		.byte	0x4
 1091 00a8 07       		.byte	0x7
 1092 00a9 50000000 		.4byte	.LASF14
 1093 00ad 05       		.uleb128 0x5
 1094 00ae 74000000 		.4byte	0x74
 1095 00b2 05       		.uleb128 0x5
 1096 00b3 62000000 		.4byte	0x62
 1097 00b7 06       		.uleb128 0x6
 1098 00b8 01       		.byte	0x1
 1099 00b9 03       		.byte	0x3
 1100 00ba F701     		.2byte	0x1f7
 1101 00bc CD000000 		.4byte	0xcd
 1102 00c0 07       		.uleb128 0x7
 1103 00c1 B2020000 		.4byte	.LASF15
 1104 00c5 00       		.sleb128 0
 1105 00c6 08       		.uleb128 0x8
 1106 00c7 53455400 		.ascii	"SET\000"
 1107 00cb 01       		.sleb128 1
 1108 00cc 00       		.byte	0
 1109 00cd 09       		.uleb128 0x9
 1110 00ce 23040000 		.4byte	.LASF16
 1111 00d2 03       		.byte	0x3
 1112 00d3 F701     		.2byte	0x1f7
 1113 00d5 B7000000 		.4byte	0xb7
 1114 00d9 06       		.uleb128 0x6
 1115 00da 01       		.byte	0x1
ARM GAS  /var/folders/ng/s8655sgx1ys_4lf9jzm2w6n00000gn/T//ccCaeVmP.s 			page 21


 1116 00db 03       		.byte	0x3
 1117 00dc F901     		.2byte	0x1f9
 1118 00de EF000000 		.4byte	0xef
 1119 00e2 07       		.uleb128 0x7
 1120 00e3 E5000000 		.4byte	.LASF17
 1121 00e7 00       		.sleb128 0
 1122 00e8 07       		.uleb128 0x7
 1123 00e9 34040000 		.4byte	.LASF18
 1124 00ed 01       		.sleb128 1
 1125 00ee 00       		.byte	0
 1126 00ef 09       		.uleb128 0x9
 1127 00f0 39030000 		.4byte	.LASF19
 1128 00f4 03       		.byte	0x3
 1129 00f5 F901     		.2byte	0x1f9
 1130 00f7 D9000000 		.4byte	0xd9
 1131 00fb 0A       		.uleb128 0xa
 1132 00fc 1C       		.byte	0x1c
 1133 00fd 03       		.byte	0x3
 1134 00fe 3E03     		.2byte	0x33e
 1135 0100 6C010000 		.4byte	0x16c
 1136 0104 0B       		.uleb128 0xb
 1137 0105 41435200 		.ascii	"ACR\000"
 1138 0109 03       		.byte	0x3
 1139 010a 4003     		.2byte	0x340
 1140 010c AD000000 		.4byte	0xad
 1141 0110 02       		.byte	0x2
 1142 0111 23       		.byte	0x23
 1143 0112 00       		.uleb128 0
 1144 0113 0C       		.uleb128 0xc
 1145 0114 8E000000 		.4byte	.LASF20
 1146 0118 03       		.byte	0x3
 1147 0119 4103     		.2byte	0x341
 1148 011b AD000000 		.4byte	0xad
 1149 011f 02       		.byte	0x2
 1150 0120 23       		.byte	0x23
 1151 0121 04       		.uleb128 0x4
 1152 0122 0C       		.uleb128 0xc
 1153 0123 39010000 		.4byte	.LASF21
 1154 0127 03       		.byte	0x3
 1155 0128 4203     		.2byte	0x342
 1156 012a AD000000 		.4byte	0xad
 1157 012e 02       		.byte	0x2
 1158 012f 23       		.byte	0x23
 1159 0130 08       		.uleb128 0x8
 1160 0131 0B       		.uleb128 0xb
 1161 0132 535200   		.ascii	"SR\000"
 1162 0135 03       		.byte	0x3
 1163 0136 4303     		.2byte	0x343
 1164 0138 AD000000 		.4byte	0xad
 1165 013c 02       		.byte	0x2
 1166 013d 23       		.byte	0x23
 1167 013e 0C       		.uleb128 0xc
 1168 013f 0B       		.uleb128 0xb
 1169 0140 435200   		.ascii	"CR\000"
 1170 0143 03       		.byte	0x3
 1171 0144 4403     		.2byte	0x344
 1172 0146 AD000000 		.4byte	0xad
ARM GAS  /var/folders/ng/s8655sgx1ys_4lf9jzm2w6n00000gn/T//ccCaeVmP.s 			page 22


 1173 014a 02       		.byte	0x2
 1174 014b 23       		.byte	0x23
 1175 014c 10       		.uleb128 0x10
 1176 014d 0C       		.uleb128 0xc
 1177 014e 2E040000 		.4byte	.LASF22
 1178 0152 03       		.byte	0x3
 1179 0153 4503     		.2byte	0x345
 1180 0155 AD000000 		.4byte	0xad
 1181 0159 02       		.byte	0x2
 1182 015a 23       		.byte	0x23
 1183 015b 14       		.uleb128 0x14
 1184 015c 0C       		.uleb128 0xc
 1185 015d 9B010000 		.4byte	.LASF23
 1186 0161 03       		.byte	0x3
 1187 0162 4603     		.2byte	0x346
 1188 0164 AD000000 		.4byte	0xad
 1189 0168 02       		.byte	0x2
 1190 0169 23       		.byte	0x23
 1191 016a 18       		.uleb128 0x18
 1192 016b 00       		.byte	0
 1193 016c 09       		.uleb128 0x9
 1194 016d DD030000 		.4byte	.LASF24
 1195 0171 03       		.byte	0x3
 1196 0172 4703     		.2byte	0x347
 1197 0174 FB000000 		.4byte	0xfb
 1198 0178 0D       		.uleb128 0xd
 1199 0179 01       		.byte	0x1
 1200 017a 04       		.byte	0x4
 1201 017b 2F       		.byte	0x2f
 1202 017c B1010000 		.4byte	0x1b1
 1203 0180 07       		.uleb128 0x7
 1204 0181 49020000 		.4byte	.LASF25
 1205 0185 01       		.sleb128 1
 1206 0186 07       		.uleb128 0x7
 1207 0187 CD030000 		.4byte	.LASF26
 1208 018b 02       		.sleb128 2
 1209 018c 07       		.uleb128 0x7
 1210 018d 13040000 		.4byte	.LASF27
 1211 0191 03       		.sleb128 3
 1212 0192 07       		.uleb128 0x7
 1213 0193 AA030000 		.4byte	.LASF28
 1214 0197 04       		.sleb128 4
 1215 0198 07       		.uleb128 0x7
 1216 0199 25000000 		.4byte	.LASF29
 1217 019d 05       		.sleb128 5
 1218 019e 07       		.uleb128 0x7
 1219 019f 84030000 		.4byte	.LASF30
 1220 01a3 06       		.sleb128 6
 1221 01a4 07       		.uleb128 0x7
 1222 01a5 58010000 		.4byte	.LASF31
 1223 01a9 07       		.sleb128 7
 1224 01aa 07       		.uleb128 0x7
 1225 01ab 3A020000 		.4byte	.LASF32
 1226 01af 08       		.sleb128 8
 1227 01b0 00       		.byte	0
 1228 01b1 03       		.uleb128 0x3
 1229 01b2 A8000000 		.4byte	.LASF33
ARM GAS  /var/folders/ng/s8655sgx1ys_4lf9jzm2w6n00000gn/T//ccCaeVmP.s 			page 23


 1230 01b6 04       		.byte	0x4
 1231 01b7 38       		.byte	0x38
 1232 01b8 78010000 		.4byte	0x178
 1233 01bc 0E       		.uleb128 0xe
 1234 01bd 01       		.byte	0x1
 1235 01be 91020000 		.4byte	.LASF68
 1236 01c2 01       		.byte	0x1
 1237 01c3 CB02     		.2byte	0x2cb
 1238 01c5 01       		.byte	0x1
 1239 01c6 B1010000 		.4byte	0x1b1
 1240 01ca 01       		.byte	0x1
 1241 01cb DC010000 		.4byte	0x1dc
 1242 01cf 0F       		.uleb128 0xf
 1243 01d0 6E010000 		.4byte	.LASF69
 1244 01d4 01       		.byte	0x1
 1245 01d5 CD02     		.2byte	0x2cd
 1246 01d7 B1010000 		.4byte	0x1b1
 1247 01db 00       		.byte	0
 1248 01dc 10       		.uleb128 0x10
 1249 01dd 01       		.byte	0x1
 1250 01de A1020000 		.4byte	.LASF34
 1251 01e2 01       		.byte	0x1
 1252 01e3 A6       		.byte	0xa6
 1253 01e4 01       		.byte	0x1
 1254 01e5 00000000 		.4byte	.LFB111
 1255 01e9 0E000000 		.4byte	.LFE111
 1256 01ed 02       		.byte	0x2
 1257 01ee 7D       		.byte	0x7d
 1258 01ef 00       		.sleb128 0
 1259 01f0 01       		.byte	0x1
 1260 01f1 05020000 		.4byte	0x205
 1261 01f5 11       		.uleb128 0x11
 1262 01f6 76030000 		.4byte	.LASF36
 1263 01fa 01       		.byte	0x1
 1264 01fb A6       		.byte	0xa6
 1265 01fc 74000000 		.4byte	0x74
 1266 0200 00000000 		.4byte	.LLST0
 1267 0204 00       		.byte	0
 1268 0205 10       		.uleb128 0x10
 1269 0206 01       		.byte	0x1
 1270 0207 C5010000 		.4byte	.LASF35
 1271 020b 01       		.byte	0x1
 1272 020c B3       		.byte	0xb3
 1273 020d 01       		.byte	0x1
 1274 020e 00000000 		.4byte	.LFB112
 1275 0212 1C000000 		.4byte	.LFE112
 1276 0216 02       		.byte	0x2
 1277 0217 7D       		.byte	0x7d
 1278 0218 00       		.sleb128 0
 1279 0219 01       		.byte	0x1
 1280 021a 2E020000 		.4byte	0x22e
 1281 021e 11       		.uleb128 0x11
 1282 021f DC000000 		.4byte	.LASF37
 1283 0223 01       		.byte	0x1
 1284 0224 B3       		.byte	0xb3
 1285 0225 EF000000 		.4byte	0xef
 1286 0229 21000000 		.4byte	.LLST1
ARM GAS  /var/folders/ng/s8655sgx1ys_4lf9jzm2w6n00000gn/T//ccCaeVmP.s 			page 24


 1287 022d 00       		.byte	0
 1288 022e 10       		.uleb128 0x10
 1289 022f 01       		.byte	0x1
 1290 0230 0A010000 		.4byte	.LASF38
 1291 0234 01       		.byte	0x1
 1292 0235 C7       		.byte	0xc7
 1293 0236 01       		.byte	0x1
 1294 0237 00000000 		.4byte	.LFB113
 1295 023b 1C000000 		.4byte	.LFE113
 1296 023f 02       		.byte	0x2
 1297 0240 7D       		.byte	0x7d
 1298 0241 00       		.sleb128 0
 1299 0242 01       		.byte	0x1
 1300 0243 57020000 		.4byte	0x257
 1301 0247 11       		.uleb128 0x11
 1302 0248 DC000000 		.4byte	.LASF37
 1303 024c 01       		.byte	0x1
 1304 024d C7       		.byte	0xc7
 1305 024e EF000000 		.4byte	0xef
 1306 0252 4D000000 		.4byte	.LLST2
 1307 0256 00       		.byte	0
 1308 0257 10       		.uleb128 0x10
 1309 0258 01       		.byte	0x1
 1310 0259 BA030000 		.4byte	.LASF39
 1311 025d 01       		.byte	0x1
 1312 025e DA       		.byte	0xda
 1313 025f 01       		.byte	0x1
 1314 0260 00000000 		.4byte	.LFB114
 1315 0264 1C000000 		.4byte	.LFE114
 1316 0268 02       		.byte	0x2
 1317 0269 7D       		.byte	0x7d
 1318 026a 00       		.sleb128 0
 1319 026b 01       		.byte	0x1
 1320 026c 80020000 		.4byte	0x280
 1321 0270 11       		.uleb128 0x11
 1322 0271 DC000000 		.4byte	.LASF37
 1323 0275 01       		.byte	0x1
 1324 0276 DA       		.byte	0xda
 1325 0277 EF000000 		.4byte	0xef
 1326 027b 79000000 		.4byte	.LLST3
 1327 027f 00       		.byte	0
 1328 0280 12       		.uleb128 0x12
 1329 0281 01       		.byte	0x1
 1330 0282 7A010000 		.4byte	.LASF40
 1331 0286 01       		.byte	0x1
 1332 0287 ED       		.byte	0xed
 1333 0288 01       		.byte	0x1
 1334 0289 00000000 		.4byte	.LFB115
 1335 028d 12000000 		.4byte	.LFE115
 1336 0291 02       		.byte	0x2
 1337 0292 7D       		.byte	0x7d
 1338 0293 00       		.sleb128 0
 1339 0294 01       		.byte	0x1
 1340 0295 12       		.uleb128 0x12
 1341 0296 01       		.byte	0x1
 1342 0297 24010000 		.4byte	.LASF41
 1343 029b 01       		.byte	0x1
ARM GAS  /var/folders/ng/s8655sgx1ys_4lf9jzm2w6n00000gn/T//ccCaeVmP.s 			page 25


 1344 029c F8       		.byte	0xf8
 1345 029d 01       		.byte	0x1
 1346 029e 00000000 		.4byte	.LFB116
 1347 02a2 12000000 		.4byte	.LFE116
 1348 02a6 02       		.byte	0x2
 1349 02a7 7D       		.byte	0x7d
 1350 02a8 00       		.sleb128 0
 1351 02a9 01       		.byte	0x1
 1352 02aa 13       		.uleb128 0x13
 1353 02ab 01       		.byte	0x1
 1354 02ac 93000000 		.4byte	.LASF42
 1355 02b0 01       		.byte	0x1
 1356 02b1 2401     		.2byte	0x124
 1357 02b3 01       		.byte	0x1
 1358 02b4 00000000 		.4byte	.LFB117
 1359 02b8 24000000 		.4byte	.LFE117
 1360 02bc 02       		.byte	0x2
 1361 02bd 7D       		.byte	0x7d
 1362 02be 00       		.sleb128 0
 1363 02bf 01       		.byte	0x1
 1364 02c0 13       		.uleb128 0x13
 1365 02c1 01       		.byte	0x1
 1366 02c2 BA010000 		.4byte	.LASF43
 1367 02c6 01       		.byte	0x1
 1368 02c7 3301     		.2byte	0x133
 1369 02c9 01       		.byte	0x1
 1370 02ca 00000000 		.4byte	.LFB118
 1371 02ce 12000000 		.4byte	.LFE118
 1372 02d2 02       		.byte	0x2
 1373 02d3 7D       		.byte	0x7d
 1374 02d4 00       		.sleb128 0
 1375 02d5 01       		.byte	0x1
 1376 02d6 14       		.uleb128 0x14
 1377 02d7 01       		.byte	0x1
 1378 02d8 00000000 		.4byte	.LASF44
 1379 02dc 01       		.byte	0x1
 1380 02dd 8602     		.2byte	0x286
 1381 02df 01       		.byte	0x1
 1382 02e0 00000000 		.4byte	.LFB127
 1383 02e4 1A000000 		.4byte	.LFE127
 1384 02e8 02       		.byte	0x2
 1385 02e9 7D       		.byte	0x7d
 1386 02ea 00       		.sleb128 0
 1387 02eb 01       		.byte	0x1
 1388 02ec 0F030000 		.4byte	0x30f
 1389 02f0 15       		.uleb128 0x15
 1390 02f1 59000000 		.4byte	.LASF45
 1391 02f5 01       		.byte	0x1
 1392 02f6 8602     		.2byte	0x286
 1393 02f8 74000000 		.4byte	0x74
 1394 02fc A5000000 		.4byte	.LLST4
 1395 0300 16       		.uleb128 0x16
 1396 0301 DC000000 		.4byte	.LASF37
 1397 0305 01       		.byte	0x1
 1398 0306 8602     		.2byte	0x286
 1399 0308 EF000000 		.4byte	0xef
 1400 030c 01       		.byte	0x1
ARM GAS  /var/folders/ng/s8655sgx1ys_4lf9jzm2w6n00000gn/T//ccCaeVmP.s 			page 26


 1401 030d 51       		.byte	0x51
 1402 030e 00       		.byte	0
 1403 030f 17       		.uleb128 0x17
 1404 0310 01       		.byte	0x1
 1405 0311 E9010000 		.4byte	.LASF48
 1406 0315 01       		.byte	0x1
 1407 0316 A202     		.2byte	0x2a2
 1408 0318 01       		.byte	0x1
 1409 0319 CD000000 		.4byte	0xcd
 1410 031d 00000000 		.4byte	.LFB128
 1411 0321 14000000 		.4byte	.LFE128
 1412 0325 02       		.byte	0x2
 1413 0326 7D       		.byte	0x7d
 1414 0327 00       		.sleb128 0
 1415 0328 01       		.byte	0x1
 1416 0329 4E030000 		.4byte	0x34e
 1417 032d 15       		.uleb128 0x15
 1418 032e 2E030000 		.4byte	.LASF46
 1419 0332 01       		.byte	0x1
 1420 0333 A202     		.2byte	0x2a2
 1421 0335 74000000 		.4byte	0x74
 1422 0339 DF000000 		.4byte	.LLST5
 1423 033d 18       		.uleb128 0x18
 1424 033e A2010000 		.4byte	.LASF50
 1425 0342 01       		.byte	0x1
 1426 0343 A402     		.2byte	0x2a4
 1427 0345 CD000000 		.4byte	0xcd
 1428 0349 00010000 		.4byte	.LLST6
 1429 034d 00       		.byte	0
 1430 034e 14       		.uleb128 0x14
 1431 034f 01       		.byte	0x1
 1432 0350 1D020000 		.4byte	.LASF47
 1433 0354 01       		.byte	0x1
 1434 0355 BE02     		.2byte	0x2be
 1435 0357 01       		.byte	0x1
 1436 0358 00000000 		.4byte	.LFB129
 1437 035c 0C000000 		.4byte	.LFE129
 1438 0360 02       		.byte	0x2
 1439 0361 7D       		.byte	0x7d
 1440 0362 00       		.sleb128 0
 1441 0363 01       		.byte	0x1
 1442 0364 77030000 		.4byte	0x377
 1443 0368 16       		.uleb128 0x16
 1444 0369 2E030000 		.4byte	.LASF46
 1445 036d 01       		.byte	0x1
 1446 036e BE02     		.2byte	0x2be
 1447 0370 74000000 		.4byte	0x74
 1448 0374 01       		.byte	0x1
 1449 0375 50       		.byte	0x50
 1450 0376 00       		.byte	0
 1451 0377 19       		.uleb128 0x19
 1452 0378 BC010000 		.4byte	0x1bc
 1453 037c 00000000 		.4byte	.LFB130
 1454 0380 36000000 		.4byte	.LFE130
 1455 0384 02       		.byte	0x2
 1456 0385 7D       		.byte	0x7d
 1457 0386 00       		.sleb128 0
ARM GAS  /var/folders/ng/s8655sgx1ys_4lf9jzm2w6n00000gn/T//ccCaeVmP.s 			page 27


 1458 0387 01       		.byte	0x1
 1459 0388 B6030000 		.4byte	0x3b6
 1460 038c 1A       		.uleb128 0x1a
 1461 038d CF010000 		.4byte	0x1cf
 1462 0391 39010000 		.4byte	.LLST7
 1463 0395 1B       		.uleb128 0x1b
 1464 0396 BC010000 		.4byte	0x1bc
 1465 039a 28000000 		.4byte	.LBB4
 1466 039e 36000000 		.4byte	.LBE4
 1467 03a2 01       		.byte	0x1
 1468 03a3 CB02     		.2byte	0x2cb
 1469 03a5 1C       		.uleb128 0x1c
 1470 03a6 28000000 		.4byte	.LBB5
 1471 03aa 36000000 		.4byte	.LBE5
 1472 03ae 1D       		.uleb128 0x1d
 1473 03af CF010000 		.4byte	0x1cf
 1474 03b3 00       		.byte	0
 1475 03b4 00       		.byte	0
 1476 03b5 00       		.byte	0
 1477 03b6 1E       		.uleb128 0x1e
 1478 03b7 01       		.byte	0x1
 1479 03b8 49030000 		.4byte	.LASF49
 1480 03bc 01       		.byte	0x1
 1481 03bd 9801     		.2byte	0x198
 1482 03bf 01       		.byte	0x1
 1483 03c0 B1010000 		.4byte	0x1b1
 1484 03c4 00000000 		.4byte	.LFB121
 1485 03c8 1C000000 		.4byte	.LFE121
 1486 03cc 64010000 		.4byte	.LLST8
 1487 03d0 01       		.byte	0x1
 1488 03d1 ED030000 		.4byte	0x3ed
 1489 03d5 1F       		.uleb128 0x1f
 1490 03d6 79020000 		.4byte	.LASF51
 1491 03da 01       		.byte	0x1
 1492 03db 9A01     		.2byte	0x19a
 1493 03dd B1010000 		.4byte	0x1b1
 1494 03e1 01       		.byte	0x1
 1495 03e2 50       		.byte	0x50
 1496 03e3 20       		.uleb128 0x20
 1497 03e4 06000000 		.4byte	.LVL22
 1498 03e8 BC010000 		.4byte	0x1bc
 1499 03ec 00       		.byte	0
 1500 03ed 1E       		.uleb128 0x1e
 1501 03ee 01       		.byte	0x1
 1502 03ef EB030000 		.4byte	.LASF52
 1503 03f3 01       		.byte	0x1
 1504 03f4 F602     		.2byte	0x2f6
 1505 03f6 01       		.byte	0x1
 1506 03f7 B1010000 		.4byte	0x1b1
 1507 03fb 00000000 		.4byte	.LFB131
 1508 03ff 22000000 		.4byte	.LFE131
 1509 0403 84010000 		.4byte	.LLST9
 1510 0407 01       		.byte	0x1
 1511 0408 26040000 		.4byte	0x426
 1512 040c 18       		.uleb128 0x18
 1513 040d 79020000 		.4byte	.LASF51
 1514 0411 01       		.byte	0x1
ARM GAS  /var/folders/ng/s8655sgx1ys_4lf9jzm2w6n00000gn/T//ccCaeVmP.s 			page 28


 1515 0412 F802     		.2byte	0x2f8
 1516 0414 26040000 		.4byte	0x426
 1517 0418 B0010000 		.4byte	.LLST10
 1518 041c 20       		.uleb128 0x20
 1519 041d 0E000000 		.4byte	.LVL24
 1520 0421 BC010000 		.4byte	0x1bc
 1521 0425 00       		.byte	0
 1522 0426 05       		.uleb128 0x5
 1523 0427 B1010000 		.4byte	0x1b1
 1524 042b 1E       		.uleb128 0x1e
 1525 042c 01       		.byte	0x1
 1526 042d 64030000 		.4byte	.LASF53
 1527 0431 01       		.byte	0x1
 1528 0432 5202     		.2byte	0x252
 1529 0434 01       		.byte	0x1
 1530 0435 B1010000 		.4byte	0x1b1
 1531 0439 00000000 		.4byte	.LFB126
 1532 043d 3C000000 		.4byte	.LFE126
 1533 0441 DA010000 		.4byte	.LLST11
 1534 0445 01       		.byte	0x1
 1535 0446 8D040000 		.4byte	0x48d
 1536 044a 15       		.uleb128 0x15
 1537 044b 7C000000 		.4byte	.LASF54
 1538 044f 01       		.byte	0x1
 1539 0450 5202     		.2byte	0x252
 1540 0452 74000000 		.4byte	0x74
 1541 0456 FA010000 		.4byte	.LLST12
 1542 045a 15       		.uleb128 0x15
 1543 045b 96010000 		.4byte	.LASF55
 1544 045f 01       		.byte	0x1
 1545 0460 5202     		.2byte	0x252
 1546 0462 37000000 		.4byte	0x37
 1547 0466 18020000 		.4byte	.LLST13
 1548 046a 18       		.uleb128 0x18
 1549 046b 79020000 		.4byte	.LASF51
 1550 046f 01       		.byte	0x1
 1551 0470 5402     		.2byte	0x254
 1552 0472 B1010000 		.4byte	0x1b1
 1553 0476 39020000 		.4byte	.LLST14
 1554 047a 20       		.uleb128 0x20
 1555 047b 0A000000 		.4byte	.LVL29
 1556 047f ED030000 		.4byte	0x3ed
 1557 0483 20       		.uleb128 0x20
 1558 0484 32000000 		.4byte	.LVL31
 1559 0488 ED030000 		.4byte	0x3ed
 1560 048c 00       		.byte	0
 1561 048d 1E       		.uleb128 0x1e
 1562 048e 01       		.byte	0x1
 1563 048f 18030000 		.4byte	.LASF56
 1564 0493 01       		.byte	0x1
 1565 0494 2E02     		.2byte	0x22e
 1566 0496 01       		.byte	0x1
 1567 0497 B1010000 		.4byte	0x1b1
 1568 049b 00000000 		.4byte	.LFB125
 1569 049f 40000000 		.4byte	.LFE125
 1570 04a3 63020000 		.4byte	.LLST15
 1571 04a7 01       		.byte	0x1
ARM GAS  /var/folders/ng/s8655sgx1ys_4lf9jzm2w6n00000gn/T//ccCaeVmP.s 			page 29


 1572 04a8 EF040000 		.4byte	0x4ef
 1573 04ac 15       		.uleb128 0x15
 1574 04ad 7C000000 		.4byte	.LASF54
 1575 04b1 01       		.byte	0x1
 1576 04b2 2E02     		.2byte	0x22e
 1577 04b4 74000000 		.4byte	0x74
 1578 04b8 83020000 		.4byte	.LLST16
 1579 04bc 15       		.uleb128 0x15
 1580 04bd 96010000 		.4byte	.LASF55
 1581 04c1 01       		.byte	0x1
 1582 04c2 2E02     		.2byte	0x22e
 1583 04c4 50000000 		.4byte	0x50
 1584 04c8 A1020000 		.4byte	.LLST17
 1585 04cc 18       		.uleb128 0x18
 1586 04cd 79020000 		.4byte	.LASF51
 1587 04d1 01       		.byte	0x1
 1588 04d2 3002     		.2byte	0x230
 1589 04d4 B1010000 		.4byte	0x1b1
 1590 04d8 C2020000 		.4byte	.LLST18
 1591 04dc 20       		.uleb128 0x20
 1592 04dd 0A000000 		.4byte	.LVL33
 1593 04e1 ED030000 		.4byte	0x3ed
 1594 04e5 20       		.uleb128 0x20
 1595 04e6 36000000 		.4byte	.LVL35
 1596 04ea ED030000 		.4byte	0x3ed
 1597 04ee 00       		.byte	0
 1598 04ef 1E       		.uleb128 0x1e
 1599 04f0 01       		.byte	0x1
 1600 04f1 98030000 		.4byte	.LASF57
 1601 04f5 01       		.byte	0x1
 1602 04f6 0A02     		.2byte	0x20a
 1603 04f8 01       		.byte	0x1
 1604 04f9 B1010000 		.4byte	0x1b1
 1605 04fd 00000000 		.4byte	.LFB124
 1606 0501 40000000 		.4byte	.LFE124
 1607 0505 EC020000 		.4byte	.LLST19
 1608 0509 01       		.byte	0x1
 1609 050a 51050000 		.4byte	0x551
 1610 050e 15       		.uleb128 0x15
 1611 050f 7C000000 		.4byte	.LASF54
 1612 0513 01       		.byte	0x1
 1613 0514 0A02     		.2byte	0x20a
 1614 0516 74000000 		.4byte	0x74
 1615 051a 0C030000 		.4byte	.LLST20
 1616 051e 15       		.uleb128 0x15
 1617 051f 96010000 		.4byte	.LASF55
 1618 0523 01       		.byte	0x1
 1619 0524 0A02     		.2byte	0x20a
 1620 0526 74000000 		.4byte	0x74
 1621 052a 2A030000 		.4byte	.LLST21
 1622 052e 18       		.uleb128 0x18
 1623 052f 79020000 		.4byte	.LASF51
 1624 0533 01       		.byte	0x1
 1625 0534 0C02     		.2byte	0x20c
 1626 0536 B1010000 		.4byte	0x1b1
 1627 053a 48030000 		.4byte	.LLST22
 1628 053e 20       		.uleb128 0x20
ARM GAS  /var/folders/ng/s8655sgx1ys_4lf9jzm2w6n00000gn/T//ccCaeVmP.s 			page 30


 1629 053f 0A000000 		.4byte	.LVL37
 1630 0543 ED030000 		.4byte	0x3ed
 1631 0547 20       		.uleb128 0x20
 1632 0548 36000000 		.4byte	.LVL39
 1633 054c ED030000 		.4byte	0x3ed
 1634 0550 00       		.byte	0
 1635 0551 1E       		.uleb128 0x1e
 1636 0552 01       		.byte	0x1
 1637 0553 3B040000 		.4byte	.LASF58
 1638 0557 01       		.byte	0x1
 1639 0558 E601     		.2byte	0x1e6
 1640 055a 01       		.byte	0x1
 1641 055b B1010000 		.4byte	0x1b1
 1642 055f 00000000 		.4byte	.LFB123
 1643 0563 44000000 		.4byte	.LFE123
 1644 0567 72030000 		.4byte	.LLST23
 1645 056b 01       		.byte	0x1
 1646 056c B3050000 		.4byte	0x5b3
 1647 0570 15       		.uleb128 0x15
 1648 0571 7C000000 		.4byte	.LASF54
 1649 0575 01       		.byte	0x1
 1650 0576 E601     		.2byte	0x1e6
 1651 0578 74000000 		.4byte	0x74
 1652 057c 92030000 		.4byte	.LLST24
 1653 0580 15       		.uleb128 0x15
 1654 0581 96010000 		.4byte	.LASF55
 1655 0585 01       		.byte	0x1
 1656 0586 E601     		.2byte	0x1e6
 1657 0588 8D000000 		.4byte	0x8d
 1658 058c B0030000 		.4byte	.LLST25
 1659 0590 18       		.uleb128 0x18
 1660 0591 79020000 		.4byte	.LASF51
 1661 0595 01       		.byte	0x1
 1662 0596 E801     		.2byte	0x1e8
 1663 0598 B1010000 		.4byte	0x1b1
 1664 059c D8030000 		.4byte	.LLST26
 1665 05a0 20       		.uleb128 0x20
 1666 05a1 0C000000 		.4byte	.LVL41
 1667 05a5 ED030000 		.4byte	0x3ed
 1668 05a9 20       		.uleb128 0x20
 1669 05aa 3A000000 		.4byte	.LVL43
 1670 05ae ED030000 		.4byte	0x3ed
 1671 05b2 00       		.byte	0
 1672 05b3 1E       		.uleb128 0x1e
 1673 05b4 01       		.byte	0x1
 1674 05b5 0F000000 		.4byte	.LASF59
 1675 05b9 01       		.byte	0x1
 1676 05ba B401     		.2byte	0x1b4
 1677 05bc 01       		.byte	0x1
 1678 05bd B1010000 		.4byte	0x1b1
 1679 05c1 00000000 		.4byte	.LFB122
 1680 05c5 4E000000 		.4byte	.LFE122
 1681 05c9 02040000 		.4byte	.LLST27
 1682 05cd 01       		.byte	0x1
 1683 05ce 0C060000 		.4byte	0x60c
 1684 05d2 15       		.uleb128 0x15
 1685 05d3 6F000000 		.4byte	.LASF60
ARM GAS  /var/folders/ng/s8655sgx1ys_4lf9jzm2w6n00000gn/T//ccCaeVmP.s 			page 31


 1686 05d7 01       		.byte	0x1
 1687 05d8 B401     		.2byte	0x1b4
 1688 05da 37000000 		.4byte	0x37
 1689 05de 22040000 		.4byte	.LLST28
 1690 05e2 18       		.uleb128 0x18
 1691 05e3 B5000000 		.4byte	.LASF61
 1692 05e7 01       		.byte	0x1
 1693 05e8 B601     		.2byte	0x1b6
 1694 05ea 74000000 		.4byte	0x74
 1695 05ee 5C040000 		.4byte	.LLST29
 1696 05f2 18       		.uleb128 0x18
 1697 05f3 79020000 		.4byte	.LASF51
 1698 05f7 01       		.byte	0x1
 1699 05f8 B701     		.2byte	0x1b7
 1700 05fa B1010000 		.4byte	0x1b1
 1701 05fe 87040000 		.4byte	.LLST30
 1702 0602 20       		.uleb128 0x20
 1703 0603 3E000000 		.4byte	.LVL47
 1704 0607 ED030000 		.4byte	0x3ed
 1705 060b 00       		.byte	0
 1706 060c 1E       		.uleb128 0x1e
 1707 060d 01       		.byte	0x1
 1708 060e 01030000 		.4byte	.LASF62
 1709 0612 01       		.byte	0x1
 1710 0613 7B01     		.2byte	0x17b
 1711 0615 01       		.byte	0x1
 1712 0616 B1010000 		.4byte	0x1b1
 1713 061a 00000000 		.4byte	.LFB120
 1714 061e 62000000 		.4byte	.LFE120
 1715 0622 B2040000 		.4byte	.LLST31
 1716 0626 01       		.byte	0x1
 1717 0627 7E060000 		.4byte	0x67e
 1718 062b 15       		.uleb128 0x15
 1719 062c 62000000 		.4byte	.LASF63
 1720 0630 01       		.byte	0x1
 1721 0631 7B01     		.2byte	0x17b
 1722 0633 74000000 		.4byte	0x74
 1723 0637 D2040000 		.4byte	.LLST32
 1724 063b 15       		.uleb128 0x15
 1725 063c 6F000000 		.4byte	.LASF60
 1726 0640 01       		.byte	0x1
 1727 0641 7B01     		.2byte	0x17b
 1728 0643 37000000 		.4byte	0x37
 1729 0647 1F050000 		.4byte	.LLST33
 1730 064b 18       		.uleb128 0x18
 1731 064c B5000000 		.4byte	.LASF61
 1732 0650 01       		.byte	0x1
 1733 0651 7D01     		.2byte	0x17d
 1734 0653 74000000 		.4byte	0x74
 1735 0657 64050000 		.4byte	.LLST34
 1736 065b 18       		.uleb128 0x18
 1737 065c 79020000 		.4byte	.LASF51
 1738 0660 01       		.byte	0x1
 1739 0661 7E01     		.2byte	0x17e
 1740 0663 B1010000 		.4byte	0x1b1
 1741 0667 A6050000 		.4byte	.LLST35
 1742 066b 20       		.uleb128 0x20
ARM GAS  /var/folders/ng/s8655sgx1ys_4lf9jzm2w6n00000gn/T//ccCaeVmP.s 			page 32


 1743 066c 1A000000 		.4byte	.LVL52
 1744 0670 ED030000 		.4byte	0x3ed
 1745 0674 20       		.uleb128 0x20
 1746 0675 26000000 		.4byte	.LVL56
 1747 0679 ED030000 		.4byte	0x3ed
 1748 067d 00       		.byte	0
 1749 067e 1E       		.uleb128 0x1e
 1750 067f 01       		.byte	0x1
 1751 0680 3E000000 		.4byte	.LASF64
 1752 0684 01       		.byte	0x1
 1753 0685 4D01     		.2byte	0x14d
 1754 0687 01       		.byte	0x1
 1755 0688 B1010000 		.4byte	0x1b1
 1756 068c 00000000 		.4byte	.LFB119
 1757 0690 78000000 		.4byte	.LFE119
 1758 0694 E8050000 		.4byte	.LLST36
 1759 0698 01       		.byte	0x1
 1760 0699 F9060000 		.4byte	0x6f9
 1761 069d 15       		.uleb128 0x15
 1762 069e 62000000 		.4byte	.LASF63
 1763 06a2 01       		.byte	0x1
 1764 06a3 4D01     		.2byte	0x14d
 1765 06a5 74000000 		.4byte	0x74
 1766 06a9 08060000 		.4byte	.LLST37
 1767 06ad 15       		.uleb128 0x15
 1768 06ae 6F000000 		.4byte	.LASF60
 1769 06b2 01       		.byte	0x1
 1770 06b3 4D01     		.2byte	0x14d
 1771 06b5 37000000 		.4byte	0x37
 1772 06b9 55060000 		.4byte	.LLST38
 1773 06bd 18       		.uleb128 0x18
 1774 06be B5000000 		.4byte	.LASF61
 1775 06c2 01       		.byte	0x1
 1776 06c3 4F01     		.2byte	0x14f
 1777 06c5 74000000 		.4byte	0x74
 1778 06c9 9A060000 		.4byte	.LLST39
 1779 06cd 18       		.uleb128 0x18
 1780 06ce 79020000 		.4byte	.LASF51
 1781 06d2 01       		.byte	0x1
 1782 06d3 5001     		.2byte	0x150
 1783 06d5 B1010000 		.4byte	0x1b1
 1784 06d9 DC060000 		.4byte	.LLST40
 1785 06dd 20       		.uleb128 0x20
 1786 06de 1C000000 		.4byte	.LVL63
 1787 06e2 ED030000 		.4byte	0x3ed
 1788 06e6 20       		.uleb128 0x20
 1789 06e7 54000000 		.4byte	.LVL67
 1790 06eb ED030000 		.4byte	0x3ed
 1791 06ef 20       		.uleb128 0x20
 1792 06f0 6C000000 		.4byte	.LVL70
 1793 06f4 ED030000 		.4byte	0x3ed
 1794 06f8 00       		.byte	0
 1795 06f9 21       		.uleb128 0x21
 1796 06fa 06040000 		.4byte	.LASF70
 1797 06fe 05       		.byte	0x5
 1798 06ff 9806     		.2byte	0x698
 1799 0701 B2000000 		.4byte	0xb2
ARM GAS  /var/folders/ng/s8655sgx1ys_4lf9jzm2w6n00000gn/T//ccCaeVmP.s 			page 33


 1800 0705 01       		.byte	0x1
 1801 0706 01       		.byte	0x1
 1802 0707 00       		.byte	0
 1803              		.section	.debug_abbrev,"",%progbits
 1804              	.Ldebug_abbrev0:
 1805 0000 01       		.uleb128 0x1
 1806 0001 11       		.uleb128 0x11
 1807 0002 01       		.byte	0x1
 1808 0003 25       		.uleb128 0x25
 1809 0004 0E       		.uleb128 0xe
 1810 0005 13       		.uleb128 0x13
 1811 0006 0B       		.uleb128 0xb
 1812 0007 03       		.uleb128 0x3
 1813 0008 0E       		.uleb128 0xe
 1814 0009 1B       		.uleb128 0x1b
 1815 000a 0E       		.uleb128 0xe
 1816 000b 55       		.uleb128 0x55
 1817 000c 06       		.uleb128 0x6
 1818 000d 11       		.uleb128 0x11
 1819 000e 01       		.uleb128 0x1
 1820 000f 52       		.uleb128 0x52
 1821 0010 01       		.uleb128 0x1
 1822 0011 10       		.uleb128 0x10
 1823 0012 06       		.uleb128 0x6
 1824 0013 00       		.byte	0
 1825 0014 00       		.byte	0
 1826 0015 02       		.uleb128 0x2
 1827 0016 24       		.uleb128 0x24
 1828 0017 00       		.byte	0
 1829 0018 0B       		.uleb128 0xb
 1830 0019 0B       		.uleb128 0xb
 1831 001a 3E       		.uleb128 0x3e
 1832 001b 0B       		.uleb128 0xb
 1833 001c 03       		.uleb128 0x3
 1834 001d 0E       		.uleb128 0xe
 1835 001e 00       		.byte	0
 1836 001f 00       		.byte	0
 1837 0020 03       		.uleb128 0x3
 1838 0021 16       		.uleb128 0x16
 1839 0022 00       		.byte	0
 1840 0023 03       		.uleb128 0x3
 1841 0024 0E       		.uleb128 0xe
 1842 0025 3A       		.uleb128 0x3a
 1843 0026 0B       		.uleb128 0xb
 1844 0027 3B       		.uleb128 0x3b
 1845 0028 0B       		.uleb128 0xb
 1846 0029 49       		.uleb128 0x49
 1847 002a 13       		.uleb128 0x13
 1848 002b 00       		.byte	0
 1849 002c 00       		.byte	0
 1850 002d 04       		.uleb128 0x4
 1851 002e 24       		.uleb128 0x24
 1852 002f 00       		.byte	0
 1853 0030 0B       		.uleb128 0xb
 1854 0031 0B       		.uleb128 0xb
 1855 0032 3E       		.uleb128 0x3e
 1856 0033 0B       		.uleb128 0xb
ARM GAS  /var/folders/ng/s8655sgx1ys_4lf9jzm2w6n00000gn/T//ccCaeVmP.s 			page 34


 1857 0034 03       		.uleb128 0x3
 1858 0035 08       		.uleb128 0x8
 1859 0036 00       		.byte	0
 1860 0037 00       		.byte	0
 1861 0038 05       		.uleb128 0x5
 1862 0039 35       		.uleb128 0x35
 1863 003a 00       		.byte	0
 1864 003b 49       		.uleb128 0x49
 1865 003c 13       		.uleb128 0x13
 1866 003d 00       		.byte	0
 1867 003e 00       		.byte	0
 1868 003f 06       		.uleb128 0x6
 1869 0040 04       		.uleb128 0x4
 1870 0041 01       		.byte	0x1
 1871 0042 0B       		.uleb128 0xb
 1872 0043 0B       		.uleb128 0xb
 1873 0044 3A       		.uleb128 0x3a
 1874 0045 0B       		.uleb128 0xb
 1875 0046 3B       		.uleb128 0x3b
 1876 0047 05       		.uleb128 0x5
 1877 0048 01       		.uleb128 0x1
 1878 0049 13       		.uleb128 0x13
 1879 004a 00       		.byte	0
 1880 004b 00       		.byte	0
 1881 004c 07       		.uleb128 0x7
 1882 004d 28       		.uleb128 0x28
 1883 004e 00       		.byte	0
 1884 004f 03       		.uleb128 0x3
 1885 0050 0E       		.uleb128 0xe
 1886 0051 1C       		.uleb128 0x1c
 1887 0052 0D       		.uleb128 0xd
 1888 0053 00       		.byte	0
 1889 0054 00       		.byte	0
 1890 0055 08       		.uleb128 0x8
 1891 0056 28       		.uleb128 0x28
 1892 0057 00       		.byte	0
 1893 0058 03       		.uleb128 0x3
 1894 0059 08       		.uleb128 0x8
 1895 005a 1C       		.uleb128 0x1c
 1896 005b 0D       		.uleb128 0xd
 1897 005c 00       		.byte	0
 1898 005d 00       		.byte	0
 1899 005e 09       		.uleb128 0x9
 1900 005f 16       		.uleb128 0x16
 1901 0060 00       		.byte	0
 1902 0061 03       		.uleb128 0x3
 1903 0062 0E       		.uleb128 0xe
 1904 0063 3A       		.uleb128 0x3a
 1905 0064 0B       		.uleb128 0xb
 1906 0065 3B       		.uleb128 0x3b
 1907 0066 05       		.uleb128 0x5
 1908 0067 49       		.uleb128 0x49
 1909 0068 13       		.uleb128 0x13
 1910 0069 00       		.byte	0
 1911 006a 00       		.byte	0
 1912 006b 0A       		.uleb128 0xa
 1913 006c 13       		.uleb128 0x13
ARM GAS  /var/folders/ng/s8655sgx1ys_4lf9jzm2w6n00000gn/T//ccCaeVmP.s 			page 35


 1914 006d 01       		.byte	0x1
 1915 006e 0B       		.uleb128 0xb
 1916 006f 0B       		.uleb128 0xb
 1917 0070 3A       		.uleb128 0x3a
 1918 0071 0B       		.uleb128 0xb
 1919 0072 3B       		.uleb128 0x3b
 1920 0073 05       		.uleb128 0x5
 1921 0074 01       		.uleb128 0x1
 1922 0075 13       		.uleb128 0x13
 1923 0076 00       		.byte	0
 1924 0077 00       		.byte	0
 1925 0078 0B       		.uleb128 0xb
 1926 0079 0D       		.uleb128 0xd
 1927 007a 00       		.byte	0
 1928 007b 03       		.uleb128 0x3
 1929 007c 08       		.uleb128 0x8
 1930 007d 3A       		.uleb128 0x3a
 1931 007e 0B       		.uleb128 0xb
 1932 007f 3B       		.uleb128 0x3b
 1933 0080 05       		.uleb128 0x5
 1934 0081 49       		.uleb128 0x49
 1935 0082 13       		.uleb128 0x13
 1936 0083 38       		.uleb128 0x38
 1937 0084 0A       		.uleb128 0xa
 1938 0085 00       		.byte	0
 1939 0086 00       		.byte	0
 1940 0087 0C       		.uleb128 0xc
 1941 0088 0D       		.uleb128 0xd
 1942 0089 00       		.byte	0
 1943 008a 03       		.uleb128 0x3
 1944 008b 0E       		.uleb128 0xe
 1945 008c 3A       		.uleb128 0x3a
 1946 008d 0B       		.uleb128 0xb
 1947 008e 3B       		.uleb128 0x3b
 1948 008f 05       		.uleb128 0x5
 1949 0090 49       		.uleb128 0x49
 1950 0091 13       		.uleb128 0x13
 1951 0092 38       		.uleb128 0x38
 1952 0093 0A       		.uleb128 0xa
 1953 0094 00       		.byte	0
 1954 0095 00       		.byte	0
 1955 0096 0D       		.uleb128 0xd
 1956 0097 04       		.uleb128 0x4
 1957 0098 01       		.byte	0x1
 1958 0099 0B       		.uleb128 0xb
 1959 009a 0B       		.uleb128 0xb
 1960 009b 3A       		.uleb128 0x3a
 1961 009c 0B       		.uleb128 0xb
 1962 009d 3B       		.uleb128 0x3b
 1963 009e 0B       		.uleb128 0xb
 1964 009f 01       		.uleb128 0x1
 1965 00a0 13       		.uleb128 0x13
 1966 00a1 00       		.byte	0
 1967 00a2 00       		.byte	0
 1968 00a3 0E       		.uleb128 0xe
 1969 00a4 2E       		.uleb128 0x2e
 1970 00a5 01       		.byte	0x1
ARM GAS  /var/folders/ng/s8655sgx1ys_4lf9jzm2w6n00000gn/T//ccCaeVmP.s 			page 36


 1971 00a6 3F       		.uleb128 0x3f
 1972 00a7 0C       		.uleb128 0xc
 1973 00a8 03       		.uleb128 0x3
 1974 00a9 0E       		.uleb128 0xe
 1975 00aa 3A       		.uleb128 0x3a
 1976 00ab 0B       		.uleb128 0xb
 1977 00ac 3B       		.uleb128 0x3b
 1978 00ad 05       		.uleb128 0x5
 1979 00ae 27       		.uleb128 0x27
 1980 00af 0C       		.uleb128 0xc
 1981 00b0 49       		.uleb128 0x49
 1982 00b1 13       		.uleb128 0x13
 1983 00b2 20       		.uleb128 0x20
 1984 00b3 0B       		.uleb128 0xb
 1985 00b4 01       		.uleb128 0x1
 1986 00b5 13       		.uleb128 0x13
 1987 00b6 00       		.byte	0
 1988 00b7 00       		.byte	0
 1989 00b8 0F       		.uleb128 0xf
 1990 00b9 34       		.uleb128 0x34
 1991 00ba 00       		.byte	0
 1992 00bb 03       		.uleb128 0x3
 1993 00bc 0E       		.uleb128 0xe
 1994 00bd 3A       		.uleb128 0x3a
 1995 00be 0B       		.uleb128 0xb
 1996 00bf 3B       		.uleb128 0x3b
 1997 00c0 05       		.uleb128 0x5
 1998 00c1 49       		.uleb128 0x49
 1999 00c2 13       		.uleb128 0x13
 2000 00c3 00       		.byte	0
 2001 00c4 00       		.byte	0
 2002 00c5 10       		.uleb128 0x10
 2003 00c6 2E       		.uleb128 0x2e
 2004 00c7 01       		.byte	0x1
 2005 00c8 3F       		.uleb128 0x3f
 2006 00c9 0C       		.uleb128 0xc
 2007 00ca 03       		.uleb128 0x3
 2008 00cb 0E       		.uleb128 0xe
 2009 00cc 3A       		.uleb128 0x3a
 2010 00cd 0B       		.uleb128 0xb
 2011 00ce 3B       		.uleb128 0x3b
 2012 00cf 0B       		.uleb128 0xb
 2013 00d0 27       		.uleb128 0x27
 2014 00d1 0C       		.uleb128 0xc
 2015 00d2 11       		.uleb128 0x11
 2016 00d3 01       		.uleb128 0x1
 2017 00d4 12       		.uleb128 0x12
 2018 00d5 01       		.uleb128 0x1
 2019 00d6 40       		.uleb128 0x40
 2020 00d7 0A       		.uleb128 0xa
 2021 00d8 9742     		.uleb128 0x2117
 2022 00da 0C       		.uleb128 0xc
 2023 00db 01       		.uleb128 0x1
 2024 00dc 13       		.uleb128 0x13
 2025 00dd 00       		.byte	0
 2026 00de 00       		.byte	0
 2027 00df 11       		.uleb128 0x11
ARM GAS  /var/folders/ng/s8655sgx1ys_4lf9jzm2w6n00000gn/T//ccCaeVmP.s 			page 37


 2028 00e0 05       		.uleb128 0x5
 2029 00e1 00       		.byte	0
 2030 00e2 03       		.uleb128 0x3
 2031 00e3 0E       		.uleb128 0xe
 2032 00e4 3A       		.uleb128 0x3a
 2033 00e5 0B       		.uleb128 0xb
 2034 00e6 3B       		.uleb128 0x3b
 2035 00e7 0B       		.uleb128 0xb
 2036 00e8 49       		.uleb128 0x49
 2037 00e9 13       		.uleb128 0x13
 2038 00ea 02       		.uleb128 0x2
 2039 00eb 06       		.uleb128 0x6
 2040 00ec 00       		.byte	0
 2041 00ed 00       		.byte	0
 2042 00ee 12       		.uleb128 0x12
 2043 00ef 2E       		.uleb128 0x2e
 2044 00f0 00       		.byte	0
 2045 00f1 3F       		.uleb128 0x3f
 2046 00f2 0C       		.uleb128 0xc
 2047 00f3 03       		.uleb128 0x3
 2048 00f4 0E       		.uleb128 0xe
 2049 00f5 3A       		.uleb128 0x3a
 2050 00f6 0B       		.uleb128 0xb
 2051 00f7 3B       		.uleb128 0x3b
 2052 00f8 0B       		.uleb128 0xb
 2053 00f9 27       		.uleb128 0x27
 2054 00fa 0C       		.uleb128 0xc
 2055 00fb 11       		.uleb128 0x11
 2056 00fc 01       		.uleb128 0x1
 2057 00fd 12       		.uleb128 0x12
 2058 00fe 01       		.uleb128 0x1
 2059 00ff 40       		.uleb128 0x40
 2060 0100 0A       		.uleb128 0xa
 2061 0101 9742     		.uleb128 0x2117
 2062 0103 0C       		.uleb128 0xc
 2063 0104 00       		.byte	0
 2064 0105 00       		.byte	0
 2065 0106 13       		.uleb128 0x13
 2066 0107 2E       		.uleb128 0x2e
 2067 0108 00       		.byte	0
 2068 0109 3F       		.uleb128 0x3f
 2069 010a 0C       		.uleb128 0xc
 2070 010b 03       		.uleb128 0x3
 2071 010c 0E       		.uleb128 0xe
 2072 010d 3A       		.uleb128 0x3a
 2073 010e 0B       		.uleb128 0xb
 2074 010f 3B       		.uleb128 0x3b
 2075 0110 05       		.uleb128 0x5
 2076 0111 27       		.uleb128 0x27
 2077 0112 0C       		.uleb128 0xc
 2078 0113 11       		.uleb128 0x11
 2079 0114 01       		.uleb128 0x1
 2080 0115 12       		.uleb128 0x12
 2081 0116 01       		.uleb128 0x1
 2082 0117 40       		.uleb128 0x40
 2083 0118 0A       		.uleb128 0xa
 2084 0119 9742     		.uleb128 0x2117
ARM GAS  /var/folders/ng/s8655sgx1ys_4lf9jzm2w6n00000gn/T//ccCaeVmP.s 			page 38


 2085 011b 0C       		.uleb128 0xc
 2086 011c 00       		.byte	0
 2087 011d 00       		.byte	0
 2088 011e 14       		.uleb128 0x14
 2089 011f 2E       		.uleb128 0x2e
 2090 0120 01       		.byte	0x1
 2091 0121 3F       		.uleb128 0x3f
 2092 0122 0C       		.uleb128 0xc
 2093 0123 03       		.uleb128 0x3
 2094 0124 0E       		.uleb128 0xe
 2095 0125 3A       		.uleb128 0x3a
 2096 0126 0B       		.uleb128 0xb
 2097 0127 3B       		.uleb128 0x3b
 2098 0128 05       		.uleb128 0x5
 2099 0129 27       		.uleb128 0x27
 2100 012a 0C       		.uleb128 0xc
 2101 012b 11       		.uleb128 0x11
 2102 012c 01       		.uleb128 0x1
 2103 012d 12       		.uleb128 0x12
 2104 012e 01       		.uleb128 0x1
 2105 012f 40       		.uleb128 0x40
 2106 0130 0A       		.uleb128 0xa
 2107 0131 9742     		.uleb128 0x2117
 2108 0133 0C       		.uleb128 0xc
 2109 0134 01       		.uleb128 0x1
 2110 0135 13       		.uleb128 0x13
 2111 0136 00       		.byte	0
 2112 0137 00       		.byte	0
 2113 0138 15       		.uleb128 0x15
 2114 0139 05       		.uleb128 0x5
 2115 013a 00       		.byte	0
 2116 013b 03       		.uleb128 0x3
 2117 013c 0E       		.uleb128 0xe
 2118 013d 3A       		.uleb128 0x3a
 2119 013e 0B       		.uleb128 0xb
 2120 013f 3B       		.uleb128 0x3b
 2121 0140 05       		.uleb128 0x5
 2122 0141 49       		.uleb128 0x49
 2123 0142 13       		.uleb128 0x13
 2124 0143 02       		.uleb128 0x2
 2125 0144 06       		.uleb128 0x6
 2126 0145 00       		.byte	0
 2127 0146 00       		.byte	0
 2128 0147 16       		.uleb128 0x16
 2129 0148 05       		.uleb128 0x5
 2130 0149 00       		.byte	0
 2131 014a 03       		.uleb128 0x3
 2132 014b 0E       		.uleb128 0xe
 2133 014c 3A       		.uleb128 0x3a
 2134 014d 0B       		.uleb128 0xb
 2135 014e 3B       		.uleb128 0x3b
 2136 014f 05       		.uleb128 0x5
 2137 0150 49       		.uleb128 0x49
 2138 0151 13       		.uleb128 0x13
 2139 0152 02       		.uleb128 0x2
 2140 0153 0A       		.uleb128 0xa
 2141 0154 00       		.byte	0
ARM GAS  /var/folders/ng/s8655sgx1ys_4lf9jzm2w6n00000gn/T//ccCaeVmP.s 			page 39


 2142 0155 00       		.byte	0
 2143 0156 17       		.uleb128 0x17
 2144 0157 2E       		.uleb128 0x2e
 2145 0158 01       		.byte	0x1
 2146 0159 3F       		.uleb128 0x3f
 2147 015a 0C       		.uleb128 0xc
 2148 015b 03       		.uleb128 0x3
 2149 015c 0E       		.uleb128 0xe
 2150 015d 3A       		.uleb128 0x3a
 2151 015e 0B       		.uleb128 0xb
 2152 015f 3B       		.uleb128 0x3b
 2153 0160 05       		.uleb128 0x5
 2154 0161 27       		.uleb128 0x27
 2155 0162 0C       		.uleb128 0xc
 2156 0163 49       		.uleb128 0x49
 2157 0164 13       		.uleb128 0x13
 2158 0165 11       		.uleb128 0x11
 2159 0166 01       		.uleb128 0x1
 2160 0167 12       		.uleb128 0x12
 2161 0168 01       		.uleb128 0x1
 2162 0169 40       		.uleb128 0x40
 2163 016a 0A       		.uleb128 0xa
 2164 016b 9742     		.uleb128 0x2117
 2165 016d 0C       		.uleb128 0xc
 2166 016e 01       		.uleb128 0x1
 2167 016f 13       		.uleb128 0x13
 2168 0170 00       		.byte	0
 2169 0171 00       		.byte	0
 2170 0172 18       		.uleb128 0x18
 2171 0173 34       		.uleb128 0x34
 2172 0174 00       		.byte	0
 2173 0175 03       		.uleb128 0x3
 2174 0176 0E       		.uleb128 0xe
 2175 0177 3A       		.uleb128 0x3a
 2176 0178 0B       		.uleb128 0xb
 2177 0179 3B       		.uleb128 0x3b
 2178 017a 05       		.uleb128 0x5
 2179 017b 49       		.uleb128 0x49
 2180 017c 13       		.uleb128 0x13
 2181 017d 02       		.uleb128 0x2
 2182 017e 06       		.uleb128 0x6
 2183 017f 00       		.byte	0
 2184 0180 00       		.byte	0
 2185 0181 19       		.uleb128 0x19
 2186 0182 2E       		.uleb128 0x2e
 2187 0183 01       		.byte	0x1
 2188 0184 31       		.uleb128 0x31
 2189 0185 13       		.uleb128 0x13
 2190 0186 11       		.uleb128 0x11
 2191 0187 01       		.uleb128 0x1
 2192 0188 12       		.uleb128 0x12
 2193 0189 01       		.uleb128 0x1
 2194 018a 40       		.uleb128 0x40
 2195 018b 0A       		.uleb128 0xa
 2196 018c 9742     		.uleb128 0x2117
 2197 018e 0C       		.uleb128 0xc
 2198 018f 01       		.uleb128 0x1
ARM GAS  /var/folders/ng/s8655sgx1ys_4lf9jzm2w6n00000gn/T//ccCaeVmP.s 			page 40


 2199 0190 13       		.uleb128 0x13
 2200 0191 00       		.byte	0
 2201 0192 00       		.byte	0
 2202 0193 1A       		.uleb128 0x1a
 2203 0194 34       		.uleb128 0x34
 2204 0195 00       		.byte	0
 2205 0196 31       		.uleb128 0x31
 2206 0197 13       		.uleb128 0x13
 2207 0198 02       		.uleb128 0x2
 2208 0199 06       		.uleb128 0x6
 2209 019a 00       		.byte	0
 2210 019b 00       		.byte	0
 2211 019c 1B       		.uleb128 0x1b
 2212 019d 1D       		.uleb128 0x1d
 2213 019e 01       		.byte	0x1
 2214 019f 31       		.uleb128 0x31
 2215 01a0 13       		.uleb128 0x13
 2216 01a1 11       		.uleb128 0x11
 2217 01a2 01       		.uleb128 0x1
 2218 01a3 12       		.uleb128 0x12
 2219 01a4 01       		.uleb128 0x1
 2220 01a5 58       		.uleb128 0x58
 2221 01a6 0B       		.uleb128 0xb
 2222 01a7 59       		.uleb128 0x59
 2223 01a8 05       		.uleb128 0x5
 2224 01a9 00       		.byte	0
 2225 01aa 00       		.byte	0
 2226 01ab 1C       		.uleb128 0x1c
 2227 01ac 0B       		.uleb128 0xb
 2228 01ad 01       		.byte	0x1
 2229 01ae 11       		.uleb128 0x11
 2230 01af 01       		.uleb128 0x1
 2231 01b0 12       		.uleb128 0x12
 2232 01b1 01       		.uleb128 0x1
 2233 01b2 00       		.byte	0
 2234 01b3 00       		.byte	0
 2235 01b4 1D       		.uleb128 0x1d
 2236 01b5 34       		.uleb128 0x34
 2237 01b6 00       		.byte	0
 2238 01b7 31       		.uleb128 0x31
 2239 01b8 13       		.uleb128 0x13
 2240 01b9 00       		.byte	0
 2241 01ba 00       		.byte	0
 2242 01bb 1E       		.uleb128 0x1e
 2243 01bc 2E       		.uleb128 0x2e
 2244 01bd 01       		.byte	0x1
 2245 01be 3F       		.uleb128 0x3f
 2246 01bf 0C       		.uleb128 0xc
 2247 01c0 03       		.uleb128 0x3
 2248 01c1 0E       		.uleb128 0xe
 2249 01c2 3A       		.uleb128 0x3a
 2250 01c3 0B       		.uleb128 0xb
 2251 01c4 3B       		.uleb128 0x3b
 2252 01c5 05       		.uleb128 0x5
 2253 01c6 27       		.uleb128 0x27
 2254 01c7 0C       		.uleb128 0xc
 2255 01c8 49       		.uleb128 0x49
ARM GAS  /var/folders/ng/s8655sgx1ys_4lf9jzm2w6n00000gn/T//ccCaeVmP.s 			page 41


 2256 01c9 13       		.uleb128 0x13
 2257 01ca 11       		.uleb128 0x11
 2258 01cb 01       		.uleb128 0x1
 2259 01cc 12       		.uleb128 0x12
 2260 01cd 01       		.uleb128 0x1
 2261 01ce 40       		.uleb128 0x40
 2262 01cf 06       		.uleb128 0x6
 2263 01d0 9742     		.uleb128 0x2117
 2264 01d2 0C       		.uleb128 0xc
 2265 01d3 01       		.uleb128 0x1
 2266 01d4 13       		.uleb128 0x13
 2267 01d5 00       		.byte	0
 2268 01d6 00       		.byte	0
 2269 01d7 1F       		.uleb128 0x1f
 2270 01d8 34       		.uleb128 0x34
 2271 01d9 00       		.byte	0
 2272 01da 03       		.uleb128 0x3
 2273 01db 0E       		.uleb128 0xe
 2274 01dc 3A       		.uleb128 0x3a
 2275 01dd 0B       		.uleb128 0xb
 2276 01de 3B       		.uleb128 0x3b
 2277 01df 05       		.uleb128 0x5
 2278 01e0 49       		.uleb128 0x49
 2279 01e1 13       		.uleb128 0x13
 2280 01e2 02       		.uleb128 0x2
 2281 01e3 0A       		.uleb128 0xa
 2282 01e4 00       		.byte	0
 2283 01e5 00       		.byte	0
 2284 01e6 20       		.uleb128 0x20
 2285 01e7 898201   		.uleb128 0x4109
 2286 01ea 00       		.byte	0
 2287 01eb 11       		.uleb128 0x11
 2288 01ec 01       		.uleb128 0x1
 2289 01ed 31       		.uleb128 0x31
 2290 01ee 13       		.uleb128 0x13
 2291 01ef 00       		.byte	0
 2292 01f0 00       		.byte	0
 2293 01f1 21       		.uleb128 0x21
 2294 01f2 34       		.uleb128 0x34
 2295 01f3 00       		.byte	0
 2296 01f4 03       		.uleb128 0x3
 2297 01f5 0E       		.uleb128 0xe
 2298 01f6 3A       		.uleb128 0x3a
 2299 01f7 0B       		.uleb128 0xb
 2300 01f8 3B       		.uleb128 0x3b
 2301 01f9 05       		.uleb128 0x5
 2302 01fa 49       		.uleb128 0x49
 2303 01fb 13       		.uleb128 0x13
 2304 01fc 3F       		.uleb128 0x3f
 2305 01fd 0C       		.uleb128 0xc
 2306 01fe 3C       		.uleb128 0x3c
 2307 01ff 0C       		.uleb128 0xc
 2308 0200 00       		.byte	0
 2309 0201 00       		.byte	0
 2310 0202 00       		.byte	0
 2311              		.section	.debug_loc,"",%progbits
 2312              	.Ldebug_loc0:
ARM GAS  /var/folders/ng/s8655sgx1ys_4lf9jzm2w6n00000gn/T//ccCaeVmP.s 			page 42


 2313              	.LLST0:
 2314 0000 00000000 		.4byte	.LVL0
 2315 0004 0A000000 		.4byte	.LVL1
 2316 0008 0100     		.2byte	0x1
 2317 000a 50       		.byte	0x50
 2318 000b 0A000000 		.4byte	.LVL1
 2319 000f 0E000000 		.4byte	.LFE111
 2320 0013 0400     		.2byte	0x4
 2321 0015 F3       		.byte	0xf3
 2322 0016 01       		.uleb128 0x1
 2323 0017 50       		.byte	0x50
 2324 0018 9F       		.byte	0x9f
 2325 0019 00000000 		.4byte	0
 2326 001d 00000000 		.4byte	0
 2327              	.LLST1:
 2328 0021 00000000 		.4byte	.LVL2
 2329 0025 10000000 		.4byte	.LVL3
 2330 0029 0100     		.2byte	0x1
 2331 002b 50       		.byte	0x50
 2332 002c 10000000 		.4byte	.LVL3
 2333 0030 14000000 		.4byte	.LVL4
 2334 0034 0400     		.2byte	0x4
 2335 0036 F3       		.byte	0xf3
 2336 0037 01       		.uleb128 0x1
 2337 0038 50       		.byte	0x50
 2338 0039 9F       		.byte	0x9f
 2339 003a 14000000 		.4byte	.LVL4
 2340 003e 1C000000 		.4byte	.LFE112
 2341 0042 0100     		.2byte	0x1
 2342 0044 50       		.byte	0x50
 2343 0045 00000000 		.4byte	0
 2344 0049 00000000 		.4byte	0
 2345              	.LLST2:
 2346 004d 00000000 		.4byte	.LVL5
 2347 0051 10000000 		.4byte	.LVL6
 2348 0055 0100     		.2byte	0x1
 2349 0057 50       		.byte	0x50
 2350 0058 10000000 		.4byte	.LVL6
 2351 005c 14000000 		.4byte	.LVL7
 2352 0060 0400     		.2byte	0x4
 2353 0062 F3       		.byte	0xf3
 2354 0063 01       		.uleb128 0x1
 2355 0064 50       		.byte	0x50
 2356 0065 9F       		.byte	0x9f
 2357 0066 14000000 		.4byte	.LVL7
 2358 006a 1C000000 		.4byte	.LFE113
 2359 006e 0100     		.2byte	0x1
 2360 0070 50       		.byte	0x50
 2361 0071 00000000 		.4byte	0
 2362 0075 00000000 		.4byte	0
 2363              	.LLST3:
 2364 0079 00000000 		.4byte	.LVL8
 2365 007d 10000000 		.4byte	.LVL9
 2366 0081 0100     		.2byte	0x1
 2367 0083 50       		.byte	0x50
 2368 0084 10000000 		.4byte	.LVL9
 2369 0088 14000000 		.4byte	.LVL10
ARM GAS  /var/folders/ng/s8655sgx1ys_4lf9jzm2w6n00000gn/T//ccCaeVmP.s 			page 43


 2370 008c 0400     		.2byte	0x4
 2371 008e F3       		.byte	0xf3
 2372 008f 01       		.uleb128 0x1
 2373 0090 50       		.byte	0x50
 2374 0091 9F       		.byte	0x9f
 2375 0092 14000000 		.4byte	.LVL10
 2376 0096 1C000000 		.4byte	.LFE114
 2377 009a 0100     		.2byte	0x1
 2378 009c 50       		.byte	0x50
 2379 009d 00000000 		.4byte	0
 2380 00a1 00000000 		.4byte	0
 2381              	.LLST4:
 2382 00a5 00000000 		.4byte	.LVL11
 2383 00a9 10000000 		.4byte	.LVL12
 2384 00ad 0100     		.2byte	0x1
 2385 00af 50       		.byte	0x50
 2386 00b0 10000000 		.4byte	.LVL12
 2387 00b4 14000000 		.4byte	.LVL13
 2388 00b8 0400     		.2byte	0x4
 2389 00ba F3       		.byte	0xf3
 2390 00bb 01       		.uleb128 0x1
 2391 00bc 50       		.byte	0x50
 2392 00bd 9F       		.byte	0x9f
 2393 00be 14000000 		.4byte	.LVL13
 2394 00c2 16000000 		.4byte	.LVL14
 2395 00c6 0100     		.2byte	0x1
 2396 00c8 50       		.byte	0x50
 2397 00c9 16000000 		.4byte	.LVL14
 2398 00cd 1A000000 		.4byte	.LFE127
 2399 00d1 0400     		.2byte	0x4
 2400 00d3 F3       		.byte	0xf3
 2401 00d4 01       		.uleb128 0x1
 2402 00d5 50       		.byte	0x50
 2403 00d6 9F       		.byte	0x9f
 2404 00d7 00000000 		.4byte	0
 2405 00db 00000000 		.4byte	0
 2406              	.LLST5:
 2407 00df 00000000 		.4byte	.LVL15
 2408 00e3 12000000 		.4byte	.LVL17
 2409 00e7 0100     		.2byte	0x1
 2410 00e9 50       		.byte	0x50
 2411 00ea 12000000 		.4byte	.LVL17
 2412 00ee 14000000 		.4byte	.LFE128
 2413 00f2 0400     		.2byte	0x4
 2414 00f4 F3       		.byte	0xf3
 2415 00f5 01       		.uleb128 0x1
 2416 00f6 50       		.byte	0x50
 2417 00f7 9F       		.byte	0x9f
 2418 00f8 00000000 		.4byte	0
 2419 00fc 00000000 		.4byte	0
 2420              	.LLST6:
 2421 0100 00000000 		.4byte	.LVL15
 2422 0104 0A000000 		.4byte	.LVL16
 2423 0108 0200     		.2byte	0x2
 2424 010a 30       		.byte	0x30
 2425 010b 9F       		.byte	0x9f
 2426 010c 0A000000 		.4byte	.LVL16
ARM GAS  /var/folders/ng/s8655sgx1ys_4lf9jzm2w6n00000gn/T//ccCaeVmP.s 			page 44


 2427 0110 12000000 		.4byte	.LVL17
 2428 0114 0800     		.2byte	0x8
 2429 0116 70       		.byte	0x70
 2430 0117 00       		.sleb128 0
 2431 0118 71       		.byte	0x71
 2432 0119 00       		.sleb128 0
 2433 011a 1A       		.byte	0x1a
 2434 011b 30       		.byte	0x30
 2435 011c 2E       		.byte	0x2e
 2436 011d 9F       		.byte	0x9f
 2437 011e 12000000 		.4byte	.LVL17
 2438 0122 14000000 		.4byte	.LFE128
 2439 0126 0900     		.2byte	0x9
 2440 0128 F3       		.byte	0xf3
 2441 0129 01       		.uleb128 0x1
 2442 012a 50       		.byte	0x50
 2443 012b 71       		.byte	0x71
 2444 012c 00       		.sleb128 0
 2445 012d 1A       		.byte	0x1a
 2446 012e 30       		.byte	0x30
 2447 012f 2E       		.byte	0x2e
 2448 0130 9F       		.byte	0x9f
 2449 0131 00000000 		.4byte	0
 2450 0135 00000000 		.4byte	0
 2451              	.LLST7:
 2452 0139 00000000 		.4byte	.LVL19
 2453 013d 22000000 		.4byte	.LVL20
 2454 0141 0200     		.2byte	0x2
 2455 0143 38       		.byte	0x38
 2456 0144 9F       		.byte	0x9f
 2457 0145 22000000 		.4byte	.LVL20
 2458 0149 24000000 		.4byte	.LVL21
 2459 014d 0100     		.2byte	0x1
 2460 014f 50       		.byte	0x50
 2461 0150 24000000 		.4byte	.LVL21
 2462 0154 36000000 		.4byte	.LFE130
 2463 0158 0200     		.2byte	0x2
 2464 015a 38       		.byte	0x38
 2465 015b 9F       		.byte	0x9f
 2466 015c 00000000 		.4byte	0
 2467 0160 00000000 		.4byte	0
 2468              	.LLST8:
 2469 0164 00000000 		.4byte	.LFB121
 2470 0168 02000000 		.4byte	.LCFI0
 2471 016c 0200     		.2byte	0x2
 2472 016e 7D       		.byte	0x7d
 2473 016f 00       		.sleb128 0
 2474 0170 02000000 		.4byte	.LCFI0
 2475 0174 1C000000 		.4byte	.LFE121
 2476 0178 0200     		.2byte	0x2
 2477 017a 7D       		.byte	0x7d
 2478 017b 08       		.sleb128 8
 2479 017c 00000000 		.4byte	0
 2480 0180 00000000 		.4byte	0
 2481              	.LLST9:
 2482 0184 00000000 		.4byte	.LFB131
 2483 0188 02000000 		.4byte	.LCFI1
ARM GAS  /var/folders/ng/s8655sgx1ys_4lf9jzm2w6n00000gn/T//ccCaeVmP.s 			page 45


 2484 018c 0200     		.2byte	0x2
 2485 018e 7D       		.byte	0x7d
 2486 018f 00       		.sleb128 0
 2487 0190 02000000 		.4byte	.LCFI1
 2488 0194 04000000 		.4byte	.LCFI2
 2489 0198 0200     		.2byte	0x2
 2490 019a 7D       		.byte	0x7d
 2491 019b 04       		.sleb128 4
 2492 019c 04000000 		.4byte	.LCFI2
 2493 01a0 22000000 		.4byte	.LFE131
 2494 01a4 0200     		.2byte	0x2
 2495 01a6 7D       		.byte	0x7d
 2496 01a7 10       		.sleb128 16
 2497 01a8 00000000 		.4byte	0
 2498 01ac 00000000 		.4byte	0
 2499              	.LLST10:
 2500 01b0 0A000000 		.4byte	.LVL23
 2501 01b4 0D000000 		.4byte	.LVL24-1
 2502 01b8 0100     		.2byte	0x1
 2503 01ba 50       		.byte	0x50
 2504 01bb 0D000000 		.4byte	.LVL24-1
 2505 01bf 16000000 		.4byte	.LVL25
 2506 01c3 0200     		.2byte	0x2
 2507 01c5 91       		.byte	0x91
 2508 01c6 77       		.sleb128 -9
 2509 01c7 16000000 		.4byte	.LVL25
 2510 01cb 1E000000 		.4byte	.LVL27
 2511 01cf 0100     		.2byte	0x1
 2512 01d1 50       		.byte	0x50
 2513 01d2 00000000 		.4byte	0
 2514 01d6 00000000 		.4byte	0
 2515              	.LLST11:
 2516 01da 00000000 		.4byte	.LFB126
 2517 01de 02000000 		.4byte	.LCFI3
 2518 01e2 0200     		.2byte	0x2
 2519 01e4 7D       		.byte	0x7d
 2520 01e5 00       		.sleb128 0
 2521 01e6 02000000 		.4byte	.LCFI3
 2522 01ea 3C000000 		.4byte	.LFE126
 2523 01ee 0200     		.2byte	0x2
 2524 01f0 7D       		.byte	0x7d
 2525 01f1 10       		.sleb128 16
 2526 01f2 00000000 		.4byte	0
 2527 01f6 00000000 		.4byte	0
 2528              	.LLST12:
 2529 01fa 00000000 		.4byte	.LVL28
 2530 01fe 09000000 		.4byte	.LVL29-1
 2531 0202 0100     		.2byte	0x1
 2532 0204 50       		.byte	0x50
 2533 0205 09000000 		.4byte	.LVL29-1
 2534 0209 3C000000 		.4byte	.LFE126
 2535 020d 0100     		.2byte	0x1
 2536 020f 55       		.byte	0x55
 2537 0210 00000000 		.4byte	0
 2538 0214 00000000 		.4byte	0
 2539              	.LLST13:
 2540 0218 00000000 		.4byte	.LVL28
ARM GAS  /var/folders/ng/s8655sgx1ys_4lf9jzm2w6n00000gn/T//ccCaeVmP.s 			page 46


 2541 021c 09000000 		.4byte	.LVL29-1
 2542 0220 0100     		.2byte	0x1
 2543 0222 51       		.byte	0x51
 2544 0223 09000000 		.4byte	.LVL29-1
 2545 0227 3C000000 		.4byte	.LFE126
 2546 022b 0400     		.2byte	0x4
 2547 022d F3       		.byte	0xf3
 2548 022e 01       		.uleb128 0x1
 2549 022f 51       		.byte	0x51
 2550 0230 9F       		.byte	0x9f
 2551 0231 00000000 		.4byte	0
 2552 0235 00000000 		.4byte	0
 2553              	.LLST14:
 2554 0239 00000000 		.4byte	.LVL28
 2555 023d 0A000000 		.4byte	.LVL29
 2556 0241 0200     		.2byte	0x2
 2557 0243 38       		.byte	0x38
 2558 0244 9F       		.byte	0x9f
 2559 0245 0A000000 		.4byte	.LVL29
 2560 0249 1E000000 		.4byte	.LVL30
 2561 024d 0100     		.2byte	0x1
 2562 024f 50       		.byte	0x50
 2563 0250 32000000 		.4byte	.LVL31
 2564 0254 3C000000 		.4byte	.LFE126
 2565 0258 0100     		.2byte	0x1
 2566 025a 50       		.byte	0x50
 2567 025b 00000000 		.4byte	0
 2568 025f 00000000 		.4byte	0
 2569              	.LLST15:
 2570 0263 00000000 		.4byte	.LFB125
 2571 0267 02000000 		.4byte	.LCFI4
 2572 026b 0200     		.2byte	0x2
 2573 026d 7D       		.byte	0x7d
 2574 026e 00       		.sleb128 0
 2575 026f 02000000 		.4byte	.LCFI4
 2576 0273 40000000 		.4byte	.LFE125
 2577 0277 0200     		.2byte	0x2
 2578 0279 7D       		.byte	0x7d
 2579 027a 10       		.sleb128 16
 2580 027b 00000000 		.4byte	0
 2581 027f 00000000 		.4byte	0
 2582              	.LLST16:
 2583 0283 00000000 		.4byte	.LVL32
 2584 0287 09000000 		.4byte	.LVL33-1
 2585 028b 0100     		.2byte	0x1
 2586 028d 50       		.byte	0x50
 2587 028e 09000000 		.4byte	.LVL33-1
 2588 0292 40000000 		.4byte	.LFE125
 2589 0296 0100     		.2byte	0x1
 2590 0298 55       		.byte	0x55
 2591 0299 00000000 		.4byte	0
 2592 029d 00000000 		.4byte	0
 2593              	.LLST17:
 2594 02a1 00000000 		.4byte	.LVL32
 2595 02a5 09000000 		.4byte	.LVL33-1
 2596 02a9 0100     		.2byte	0x1
 2597 02ab 51       		.byte	0x51
ARM GAS  /var/folders/ng/s8655sgx1ys_4lf9jzm2w6n00000gn/T//ccCaeVmP.s 			page 47


 2598 02ac 09000000 		.4byte	.LVL33-1
 2599 02b0 40000000 		.4byte	.LFE125
 2600 02b4 0400     		.2byte	0x4
 2601 02b6 F3       		.byte	0xf3
 2602 02b7 01       		.uleb128 0x1
 2603 02b8 51       		.byte	0x51
 2604 02b9 9F       		.byte	0x9f
 2605 02ba 00000000 		.4byte	0
 2606 02be 00000000 		.4byte	0
 2607              	.LLST18:
 2608 02c2 00000000 		.4byte	.LVL32
 2609 02c6 0A000000 		.4byte	.LVL33
 2610 02ca 0200     		.2byte	0x2
 2611 02cc 38       		.byte	0x38
 2612 02cd 9F       		.byte	0x9f
 2613 02ce 0A000000 		.4byte	.LVL33
 2614 02d2 1E000000 		.4byte	.LVL34
 2615 02d6 0100     		.2byte	0x1
 2616 02d8 50       		.byte	0x50
 2617 02d9 36000000 		.4byte	.LVL35
 2618 02dd 40000000 		.4byte	.LFE125
 2619 02e1 0100     		.2byte	0x1
 2620 02e3 50       		.byte	0x50
 2621 02e4 00000000 		.4byte	0
 2622 02e8 00000000 		.4byte	0
 2623              	.LLST19:
 2624 02ec 00000000 		.4byte	.LFB124
 2625 02f0 02000000 		.4byte	.LCFI5
 2626 02f4 0200     		.2byte	0x2
 2627 02f6 7D       		.byte	0x7d
 2628 02f7 00       		.sleb128 0
 2629 02f8 02000000 		.4byte	.LCFI5
 2630 02fc 40000000 		.4byte	.LFE124
 2631 0300 0200     		.2byte	0x2
 2632 0302 7D       		.byte	0x7d
 2633 0303 10       		.sleb128 16
 2634 0304 00000000 		.4byte	0
 2635 0308 00000000 		.4byte	0
 2636              	.LLST20:
 2637 030c 00000000 		.4byte	.LVL36
 2638 0310 09000000 		.4byte	.LVL37-1
 2639 0314 0100     		.2byte	0x1
 2640 0316 50       		.byte	0x50
 2641 0317 09000000 		.4byte	.LVL37-1
 2642 031b 40000000 		.4byte	.LFE124
 2643 031f 0100     		.2byte	0x1
 2644 0321 55       		.byte	0x55
 2645 0322 00000000 		.4byte	0
 2646 0326 00000000 		.4byte	0
 2647              	.LLST21:
 2648 032a 00000000 		.4byte	.LVL36
 2649 032e 09000000 		.4byte	.LVL37-1
 2650 0332 0100     		.2byte	0x1
 2651 0334 51       		.byte	0x51
 2652 0335 09000000 		.4byte	.LVL37-1
 2653 0339 40000000 		.4byte	.LFE124
 2654 033d 0100     		.2byte	0x1
ARM GAS  /var/folders/ng/s8655sgx1ys_4lf9jzm2w6n00000gn/T//ccCaeVmP.s 			page 48


 2655 033f 56       		.byte	0x56
 2656 0340 00000000 		.4byte	0
 2657 0344 00000000 		.4byte	0
 2658              	.LLST22:
 2659 0348 00000000 		.4byte	.LVL36
 2660 034c 0A000000 		.4byte	.LVL37
 2661 0350 0200     		.2byte	0x2
 2662 0352 38       		.byte	0x38
 2663 0353 9F       		.byte	0x9f
 2664 0354 0A000000 		.4byte	.LVL37
 2665 0358 1E000000 		.4byte	.LVL38
 2666 035c 0100     		.2byte	0x1
 2667 035e 50       		.byte	0x50
 2668 035f 36000000 		.4byte	.LVL39
 2669 0363 40000000 		.4byte	.LFE124
 2670 0367 0100     		.2byte	0x1
 2671 0369 50       		.byte	0x50
 2672 036a 00000000 		.4byte	0
 2673 036e 00000000 		.4byte	0
 2674              	.LLST23:
 2675 0372 00000000 		.4byte	.LFB123
 2676 0376 02000000 		.4byte	.LCFI6
 2677 037a 0200     		.2byte	0x2
 2678 037c 7D       		.byte	0x7d
 2679 037d 00       		.sleb128 0
 2680 037e 02000000 		.4byte	.LCFI6
 2681 0382 44000000 		.4byte	.LFE123
 2682 0386 0200     		.2byte	0x2
 2683 0388 7D       		.byte	0x7d
 2684 0389 18       		.sleb128 24
 2685 038a 00000000 		.4byte	0
 2686 038e 00000000 		.4byte	0
 2687              	.LLST24:
 2688 0392 00000000 		.4byte	.LVL40
 2689 0396 0B000000 		.4byte	.LVL41-1
 2690 039a 0100     		.2byte	0x1
 2691 039c 50       		.byte	0x50
 2692 039d 0B000000 		.4byte	.LVL41-1
 2693 03a1 44000000 		.4byte	.LFE123
 2694 03a5 0100     		.2byte	0x1
 2695 03a7 57       		.byte	0x57
 2696 03a8 00000000 		.4byte	0
 2697 03ac 00000000 		.4byte	0
 2698              	.LLST25:
 2699 03b0 00000000 		.4byte	.LVL40
 2700 03b4 0B000000 		.4byte	.LVL41-1
 2701 03b8 0600     		.2byte	0x6
 2702 03ba 52       		.byte	0x52
 2703 03bb 93       		.byte	0x93
 2704 03bc 04       		.uleb128 0x4
 2705 03bd 53       		.byte	0x53
 2706 03be 93       		.byte	0x93
 2707 03bf 04       		.uleb128 0x4
 2708 03c0 0B000000 		.4byte	.LVL41-1
 2709 03c4 44000000 		.4byte	.LFE123
 2710 03c8 0600     		.2byte	0x6
 2711 03ca F3       		.byte	0xf3
ARM GAS  /var/folders/ng/s8655sgx1ys_4lf9jzm2w6n00000gn/T//ccCaeVmP.s 			page 49


 2712 03cb 03       		.uleb128 0x3
 2713 03cc F5       		.byte	0xf5
 2714 03cd 02       		.uleb128 0x2
 2715 03ce 29       		.uleb128 0x29
 2716 03cf 9F       		.byte	0x9f
 2717 03d0 00000000 		.4byte	0
 2718 03d4 00000000 		.4byte	0
 2719              	.LLST26:
 2720 03d8 00000000 		.4byte	.LVL40
 2721 03dc 0C000000 		.4byte	.LVL41
 2722 03e0 0200     		.2byte	0x2
 2723 03e2 38       		.byte	0x38
 2724 03e3 9F       		.byte	0x9f
 2725 03e4 0C000000 		.4byte	.LVL41
 2726 03e8 20000000 		.4byte	.LVL42
 2727 03ec 0100     		.2byte	0x1
 2728 03ee 50       		.byte	0x50
 2729 03ef 3A000000 		.4byte	.LVL43
 2730 03f3 44000000 		.4byte	.LFE123
 2731 03f7 0100     		.2byte	0x1
 2732 03f9 50       		.byte	0x50
 2733 03fa 00000000 		.4byte	0
 2734 03fe 00000000 		.4byte	0
 2735              	.LLST27:
 2736 0402 00000000 		.4byte	.LFB122
 2737 0406 02000000 		.4byte	.LCFI7
 2738 040a 0200     		.2byte	0x2
 2739 040c 7D       		.byte	0x7d
 2740 040d 00       		.sleb128 0
 2741 040e 02000000 		.4byte	.LCFI7
 2742 0412 4E000000 		.4byte	.LFE122
 2743 0416 0200     		.2byte	0x2
 2744 0418 7D       		.byte	0x7d
 2745 0419 08       		.sleb128 8
 2746 041a 00000000 		.4byte	0
 2747 041e 00000000 		.4byte	0
 2748              	.LLST28:
 2749 0422 00000000 		.4byte	.LVL44
 2750 0426 14000000 		.4byte	.LVL45
 2751 042a 0100     		.2byte	0x1
 2752 042c 50       		.byte	0x50
 2753 042d 14000000 		.4byte	.LVL45
 2754 0431 48000000 		.4byte	.LVL48
 2755 0435 0400     		.2byte	0x4
 2756 0437 F3       		.byte	0xf3
 2757 0438 01       		.uleb128 0x1
 2758 0439 50       		.byte	0x50
 2759 043a 9F       		.byte	0x9f
 2760 043b 48000000 		.4byte	.LVL48
 2761 043f 4C000000 		.4byte	.LVL49
 2762 0443 0100     		.2byte	0x1
 2763 0445 50       		.byte	0x50
 2764 0446 4C000000 		.4byte	.LVL49
 2765 044a 4E000000 		.4byte	.LFE122
 2766 044e 0400     		.2byte	0x4
 2767 0450 F3       		.byte	0xf3
 2768 0451 01       		.uleb128 0x1
ARM GAS  /var/folders/ng/s8655sgx1ys_4lf9jzm2w6n00000gn/T//ccCaeVmP.s 			page 50


 2769 0452 50       		.byte	0x50
 2770 0453 9F       		.byte	0x9f
 2771 0454 00000000 		.4byte	0
 2772 0458 00000000 		.4byte	0
 2773              	.LLST29:
 2774 045c 00000000 		.4byte	.LVL44
 2775 0460 14000000 		.4byte	.LVL45
 2776 0464 0200     		.2byte	0x2
 2777 0466 30       		.byte	0x30
 2778 0467 9F       		.byte	0x9f
 2779 0468 14000000 		.4byte	.LVL45
 2780 046c 28000000 		.4byte	.LVL46
 2781 0470 0100     		.2byte	0x1
 2782 0472 50       		.byte	0x50
 2783 0473 48000000 		.4byte	.LVL48
 2784 0477 4E000000 		.4byte	.LFE122
 2785 047b 0200     		.2byte	0x2
 2786 047d 30       		.byte	0x30
 2787 047e 9F       		.byte	0x9f
 2788 047f 00000000 		.4byte	0
 2789 0483 00000000 		.4byte	0
 2790              	.LLST30:
 2791 0487 00000000 		.4byte	.LVL44
 2792 048b 3E000000 		.4byte	.LVL47
 2793 048f 0200     		.2byte	0x2
 2794 0491 38       		.byte	0x38
 2795 0492 9F       		.byte	0x9f
 2796 0493 3E000000 		.4byte	.LVL47
 2797 0497 48000000 		.4byte	.LVL48
 2798 049b 0100     		.2byte	0x1
 2799 049d 50       		.byte	0x50
 2800 049e 48000000 		.4byte	.LVL48
 2801 04a2 4E000000 		.4byte	.LFE122
 2802 04a6 0200     		.2byte	0x2
 2803 04a8 38       		.byte	0x38
 2804 04a9 9F       		.byte	0x9f
 2805 04aa 00000000 		.4byte	0
 2806 04ae 00000000 		.4byte	0
 2807              	.LLST31:
 2808 04b2 00000000 		.4byte	.LFB120
 2809 04b6 02000000 		.4byte	.LCFI8
 2810 04ba 0200     		.2byte	0x2
 2811 04bc 7D       		.byte	0x7d
 2812 04bd 00       		.sleb128 0
 2813 04be 02000000 		.4byte	.LCFI8
 2814 04c2 62000000 		.4byte	.LFE120
 2815 04c6 0200     		.2byte	0x2
 2816 04c8 7D       		.byte	0x7d
 2817 04c9 10       		.sleb128 16
 2818 04ca 00000000 		.4byte	0
 2819 04ce 00000000 		.4byte	0
 2820              	.LLST32:
 2821 04d2 00000000 		.4byte	.LVL50
 2822 04d6 19000000 		.4byte	.LVL52-1
 2823 04da 0100     		.2byte	0x1
 2824 04dc 50       		.byte	0x50
 2825 04dd 19000000 		.4byte	.LVL52-1
ARM GAS  /var/folders/ng/s8655sgx1ys_4lf9jzm2w6n00000gn/T//ccCaeVmP.s 			page 51


 2826 04e1 20000000 		.4byte	.LVL54
 2827 04e5 0100     		.2byte	0x1
 2828 04e7 54       		.byte	0x54
 2829 04e8 20000000 		.4byte	.LVL54
 2830 04ec 25000000 		.4byte	.LVL56-1
 2831 04f0 0100     		.2byte	0x1
 2832 04f2 50       		.byte	0x50
 2833 04f3 25000000 		.4byte	.LVL56-1
 2834 04f7 50000000 		.4byte	.LVL59
 2835 04fb 0100     		.2byte	0x1
 2836 04fd 54       		.byte	0x54
 2837 04fe 50000000 		.4byte	.LVL59
 2838 0502 5C000000 		.4byte	.LVL60
 2839 0506 0400     		.2byte	0x4
 2840 0508 F3       		.byte	0xf3
 2841 0509 01       		.uleb128 0x1
 2842 050a 50       		.byte	0x50
 2843 050b 9F       		.byte	0x9f
 2844 050c 5C000000 		.4byte	.LVL60
 2845 0510 62000000 		.4byte	.LFE120
 2846 0514 0100     		.2byte	0x1
 2847 0516 50       		.byte	0x50
 2848 0517 00000000 		.4byte	0
 2849 051b 00000000 		.4byte	0
 2850              	.LLST33:
 2851 051f 00000000 		.4byte	.LVL50
 2852 0523 19000000 		.4byte	.LVL52-1
 2853 0527 0100     		.2byte	0x1
 2854 0529 51       		.byte	0x51
 2855 052a 19000000 		.4byte	.LVL52-1
 2856 052e 20000000 		.4byte	.LVL54
 2857 0532 0400     		.2byte	0x4
 2858 0534 F3       		.byte	0xf3
 2859 0535 01       		.uleb128 0x1
 2860 0536 51       		.byte	0x51
 2861 0537 9F       		.byte	0x9f
 2862 0538 20000000 		.4byte	.LVL54
 2863 053c 25000000 		.4byte	.LVL56-1
 2864 0540 0100     		.2byte	0x1
 2865 0542 51       		.byte	0x51
 2866 0543 25000000 		.4byte	.LVL56-1
 2867 0547 5C000000 		.4byte	.LVL60
 2868 054b 0400     		.2byte	0x4
 2869 054d F3       		.byte	0xf3
 2870 054e 01       		.uleb128 0x1
 2871 054f 51       		.byte	0x51
 2872 0550 9F       		.byte	0x9f
 2873 0551 5C000000 		.4byte	.LVL60
 2874 0555 62000000 		.4byte	.LFE120
 2875 0559 0100     		.2byte	0x1
 2876 055b 51       		.byte	0x51
 2877 055c 00000000 		.4byte	0
 2878 0560 00000000 		.4byte	0
 2879              	.LLST34:
 2880 0564 00000000 		.4byte	.LVL50
 2881 0568 16000000 		.4byte	.LVL51
 2882 056c 0200     		.2byte	0x2
ARM GAS  /var/folders/ng/s8655sgx1ys_4lf9jzm2w6n00000gn/T//ccCaeVmP.s 			page 52


 2883 056e 30       		.byte	0x30
 2884 056f 9F       		.byte	0x9f
 2885 0570 16000000 		.4byte	.LVL51
 2886 0574 20000000 		.4byte	.LVL54
 2887 0578 0100     		.2byte	0x1
 2888 057a 55       		.byte	0x55
 2889 057b 20000000 		.4byte	.LVL54
 2890 057f 22000000 		.4byte	.LVL55
 2891 0583 0200     		.2byte	0x2
 2892 0585 30       		.byte	0x30
 2893 0586 9F       		.byte	0x9f
 2894 0587 22000000 		.4byte	.LVL55
 2895 058b 3E000000 		.4byte	.LVL58
 2896 058f 0100     		.2byte	0x1
 2897 0591 55       		.byte	0x55
 2898 0592 5C000000 		.4byte	.LVL60
 2899 0596 62000000 		.4byte	.LFE120
 2900 059a 0200     		.2byte	0x2
 2901 059c 30       		.byte	0x30
 2902 059d 9F       		.byte	0x9f
 2903 059e 00000000 		.4byte	0
 2904 05a2 00000000 		.4byte	0
 2905              	.LLST35:
 2906 05a6 00000000 		.4byte	.LVL50
 2907 05aa 1A000000 		.4byte	.LVL52
 2908 05ae 0200     		.2byte	0x2
 2909 05b0 38       		.byte	0x38
 2910 05b1 9F       		.byte	0x9f
 2911 05b2 1A000000 		.4byte	.LVL52
 2912 05b6 1E000000 		.4byte	.LVL53
 2913 05ba 0100     		.2byte	0x1
 2914 05bc 50       		.byte	0x50
 2915 05bd 20000000 		.4byte	.LVL54
 2916 05c1 26000000 		.4byte	.LVL56
 2917 05c5 0200     		.2byte	0x2
 2918 05c7 38       		.byte	0x38
 2919 05c8 9F       		.byte	0x9f
 2920 05c9 26000000 		.4byte	.LVL56
 2921 05cd 2A000000 		.4byte	.LVL57
 2922 05d1 0100     		.2byte	0x1
 2923 05d3 50       		.byte	0x50
 2924 05d4 5C000000 		.4byte	.LVL60
 2925 05d8 62000000 		.4byte	.LFE120
 2926 05dc 0200     		.2byte	0x2
 2927 05de 38       		.byte	0x38
 2928 05df 9F       		.byte	0x9f
 2929 05e0 00000000 		.4byte	0
 2930 05e4 00000000 		.4byte	0
 2931              	.LLST36:
 2932 05e8 00000000 		.4byte	.LFB119
 2933 05ec 02000000 		.4byte	.LCFI9
 2934 05f0 0200     		.2byte	0x2
 2935 05f2 7D       		.byte	0x7d
 2936 05f3 00       		.sleb128 0
 2937 05f4 02000000 		.4byte	.LCFI9
 2938 05f8 78000000 		.4byte	.LFE119
 2939 05fc 0200     		.2byte	0x2
ARM GAS  /var/folders/ng/s8655sgx1ys_4lf9jzm2w6n00000gn/T//ccCaeVmP.s 			page 53


 2940 05fe 7D       		.byte	0x7d
 2941 05ff 10       		.sleb128 16
 2942 0600 00000000 		.4byte	0
 2943 0604 00000000 		.4byte	0
 2944              	.LLST37:
 2945 0608 00000000 		.4byte	.LVL61
 2946 060c 1B000000 		.4byte	.LVL63-1
 2947 0610 0100     		.2byte	0x1
 2948 0612 50       		.byte	0x50
 2949 0613 1B000000 		.4byte	.LVL63-1
 2950 0617 46000000 		.4byte	.LVL66
 2951 061b 0100     		.2byte	0x1
 2952 061d 55       		.byte	0x55
 2953 061e 46000000 		.4byte	.LVL66
 2954 0622 66000000 		.4byte	.LVL68
 2955 0626 0400     		.2byte	0x4
 2956 0628 F3       		.byte	0xf3
 2957 0629 01       		.uleb128 0x1
 2958 062a 50       		.byte	0x50
 2959 062b 9F       		.byte	0x9f
 2960 062c 66000000 		.4byte	.LVL68
 2961 0630 6B000000 		.4byte	.LVL70-1
 2962 0634 0100     		.2byte	0x1
 2963 0636 50       		.byte	0x50
 2964 0637 6B000000 		.4byte	.LVL70-1
 2965 063b 72000000 		.4byte	.LVL72
 2966 063f 0100     		.2byte	0x1
 2967 0641 55       		.byte	0x55
 2968 0642 72000000 		.4byte	.LVL72
 2969 0646 78000000 		.4byte	.LFE119
 2970 064a 0100     		.2byte	0x1
 2971 064c 50       		.byte	0x50
 2972 064d 00000000 		.4byte	0
 2973 0651 00000000 		.4byte	0
 2974              	.LLST38:
 2975 0655 00000000 		.4byte	.LVL61
 2976 0659 1B000000 		.4byte	.LVL63-1
 2977 065d 0100     		.2byte	0x1
 2978 065f 51       		.byte	0x51
 2979 0660 1B000000 		.4byte	.LVL63-1
 2980 0664 66000000 		.4byte	.LVL68
 2981 0668 0400     		.2byte	0x4
 2982 066a F3       		.byte	0xf3
 2983 066b 01       		.uleb128 0x1
 2984 066c 51       		.byte	0x51
 2985 066d 9F       		.byte	0x9f
 2986 066e 66000000 		.4byte	.LVL68
 2987 0672 6B000000 		.4byte	.LVL70-1
 2988 0676 0100     		.2byte	0x1
 2989 0678 51       		.byte	0x51
 2990 0679 6B000000 		.4byte	.LVL70-1
 2991 067d 72000000 		.4byte	.LVL72
 2992 0681 0400     		.2byte	0x4
 2993 0683 F3       		.byte	0xf3
 2994 0684 01       		.uleb128 0x1
 2995 0685 51       		.byte	0x51
 2996 0686 9F       		.byte	0x9f
ARM GAS  /var/folders/ng/s8655sgx1ys_4lf9jzm2w6n00000gn/T//ccCaeVmP.s 			page 54


 2997 0687 72000000 		.4byte	.LVL72
 2998 068b 78000000 		.4byte	.LFE119
 2999 068f 0100     		.2byte	0x1
 3000 0691 51       		.byte	0x51
 3001 0692 00000000 		.4byte	0
 3002 0696 00000000 		.4byte	0
 3003              	.LLST39:
 3004 069a 00000000 		.4byte	.LVL61
 3005 069e 18000000 		.4byte	.LVL62
 3006 06a2 0200     		.2byte	0x2
 3007 06a4 30       		.byte	0x30
 3008 06a5 9F       		.byte	0x9f
 3009 06a6 18000000 		.4byte	.LVL62
 3010 06aa 34000000 		.4byte	.LVL65
 3011 06ae 0100     		.2byte	0x1
 3012 06b0 56       		.byte	0x56
 3013 06b1 66000000 		.4byte	.LVL68
 3014 06b5 68000000 		.4byte	.LVL69
 3015 06b9 0200     		.2byte	0x2
 3016 06bb 30       		.byte	0x30
 3017 06bc 9F       		.byte	0x9f
 3018 06bd 68000000 		.4byte	.LVL69
 3019 06c1 72000000 		.4byte	.LVL72
 3020 06c5 0100     		.2byte	0x1
 3021 06c7 56       		.byte	0x56
 3022 06c8 72000000 		.4byte	.LVL72
 3023 06cc 78000000 		.4byte	.LFE119
 3024 06d0 0200     		.2byte	0x2
 3025 06d2 30       		.byte	0x30
 3026 06d3 9F       		.byte	0x9f
 3027 06d4 00000000 		.4byte	0
 3028 06d8 00000000 		.4byte	0
 3029              	.LLST40:
 3030 06dc 00000000 		.4byte	.LVL61
 3031 06e0 1C000000 		.4byte	.LVL63
 3032 06e4 0200     		.2byte	0x2
 3033 06e6 38       		.byte	0x38
 3034 06e7 9F       		.byte	0x9f
 3035 06e8 1C000000 		.4byte	.LVL63
 3036 06ec 20000000 		.4byte	.LVL64
 3037 06f0 0100     		.2byte	0x1
 3038 06f2 50       		.byte	0x50
 3039 06f3 54000000 		.4byte	.LVL67
 3040 06f7 66000000 		.4byte	.LVL68
 3041 06fb 0100     		.2byte	0x1
 3042 06fd 50       		.byte	0x50
 3043 06fe 66000000 		.4byte	.LVL68
 3044 0702 6C000000 		.4byte	.LVL70
 3045 0706 0200     		.2byte	0x2
 3046 0708 38       		.byte	0x38
 3047 0709 9F       		.byte	0x9f
 3048 070a 6C000000 		.4byte	.LVL70
 3049 070e 72000000 		.4byte	.LVL72
 3050 0712 0100     		.2byte	0x1
 3051 0714 50       		.byte	0x50
 3052 0715 72000000 		.4byte	.LVL72
 3053 0719 78000000 		.4byte	.LFE119
ARM GAS  /var/folders/ng/s8655sgx1ys_4lf9jzm2w6n00000gn/T//ccCaeVmP.s 			page 55


 3054 071d 0200     		.2byte	0x2
 3055 071f 38       		.byte	0x38
 3056 0720 9F       		.byte	0x9f
 3057 0721 00000000 		.4byte	0
 3058 0725 00000000 		.4byte	0
 3059              		.section	.debug_aranges,"",%progbits
 3060 0000 BC000000 		.4byte	0xbc
 3061 0004 0200     		.2byte	0x2
 3062 0006 00000000 		.4byte	.Ldebug_info0
 3063 000a 04       		.byte	0x4
 3064 000b 00       		.byte	0
 3065 000c 0000     		.2byte	0
 3066 000e 0000     		.2byte	0
 3067 0010 00000000 		.4byte	.LFB111
 3068 0014 0E000000 		.4byte	.LFE111-.LFB111
 3069 0018 00000000 		.4byte	.LFB112
 3070 001c 1C000000 		.4byte	.LFE112-.LFB112
 3071 0020 00000000 		.4byte	.LFB113
 3072 0024 1C000000 		.4byte	.LFE113-.LFB113
 3073 0028 00000000 		.4byte	.LFB114
 3074 002c 1C000000 		.4byte	.LFE114-.LFB114
 3075 0030 00000000 		.4byte	.LFB115
 3076 0034 12000000 		.4byte	.LFE115-.LFB115
 3077 0038 00000000 		.4byte	.LFB116
 3078 003c 12000000 		.4byte	.LFE116-.LFB116
 3079 0040 00000000 		.4byte	.LFB117
 3080 0044 24000000 		.4byte	.LFE117-.LFB117
 3081 0048 00000000 		.4byte	.LFB118
 3082 004c 12000000 		.4byte	.LFE118-.LFB118
 3083 0050 00000000 		.4byte	.LFB127
 3084 0054 1A000000 		.4byte	.LFE127-.LFB127
 3085 0058 00000000 		.4byte	.LFB128
 3086 005c 14000000 		.4byte	.LFE128-.LFB128
 3087 0060 00000000 		.4byte	.LFB129
 3088 0064 0C000000 		.4byte	.LFE129-.LFB129
 3089 0068 00000000 		.4byte	.LFB130
 3090 006c 36000000 		.4byte	.LFE130-.LFB130
 3091 0070 00000000 		.4byte	.LFB121
 3092 0074 1C000000 		.4byte	.LFE121-.LFB121
 3093 0078 00000000 		.4byte	.LFB131
 3094 007c 22000000 		.4byte	.LFE131-.LFB131
 3095 0080 00000000 		.4byte	.LFB126
 3096 0084 3C000000 		.4byte	.LFE126-.LFB126
 3097 0088 00000000 		.4byte	.LFB125
 3098 008c 40000000 		.4byte	.LFE125-.LFB125
 3099 0090 00000000 		.4byte	.LFB124
 3100 0094 40000000 		.4byte	.LFE124-.LFB124
 3101 0098 00000000 		.4byte	.LFB123
 3102 009c 44000000 		.4byte	.LFE123-.LFB123
 3103 00a0 00000000 		.4byte	.LFB122
 3104 00a4 4E000000 		.4byte	.LFE122-.LFB122
 3105 00a8 00000000 		.4byte	.LFB120
 3106 00ac 62000000 		.4byte	.LFE120-.LFB120
 3107 00b0 00000000 		.4byte	.LFB119
 3108 00b4 78000000 		.4byte	.LFE119-.LFB119
 3109 00b8 00000000 		.4byte	0
 3110 00bc 00000000 		.4byte	0
ARM GAS  /var/folders/ng/s8655sgx1ys_4lf9jzm2w6n00000gn/T//ccCaeVmP.s 			page 56


 3111              		.section	.debug_ranges,"",%progbits
 3112              	.Ldebug_ranges0:
 3113 0000 00000000 		.4byte	.LFB111
 3114 0004 0E000000 		.4byte	.LFE111
 3115 0008 00000000 		.4byte	.LFB112
 3116 000c 1C000000 		.4byte	.LFE112
 3117 0010 00000000 		.4byte	.LFB113
 3118 0014 1C000000 		.4byte	.LFE113
 3119 0018 00000000 		.4byte	.LFB114
 3120 001c 1C000000 		.4byte	.LFE114
 3121 0020 00000000 		.4byte	.LFB115
 3122 0024 12000000 		.4byte	.LFE115
 3123 0028 00000000 		.4byte	.LFB116
 3124 002c 12000000 		.4byte	.LFE116
 3125 0030 00000000 		.4byte	.LFB117
 3126 0034 24000000 		.4byte	.LFE117
 3127 0038 00000000 		.4byte	.LFB118
 3128 003c 12000000 		.4byte	.LFE118
 3129 0040 00000000 		.4byte	.LFB127
 3130 0044 1A000000 		.4byte	.LFE127
 3131 0048 00000000 		.4byte	.LFB128
 3132 004c 14000000 		.4byte	.LFE128
 3133 0050 00000000 		.4byte	.LFB129
 3134 0054 0C000000 		.4byte	.LFE129
 3135 0058 00000000 		.4byte	.LFB130
 3136 005c 36000000 		.4byte	.LFE130
 3137 0060 00000000 		.4byte	.LFB121
 3138 0064 1C000000 		.4byte	.LFE121
 3139 0068 00000000 		.4byte	.LFB131
 3140 006c 22000000 		.4byte	.LFE131
 3141 0070 00000000 		.4byte	.LFB126
 3142 0074 3C000000 		.4byte	.LFE126
 3143 0078 00000000 		.4byte	.LFB125
 3144 007c 40000000 		.4byte	.LFE125
 3145 0080 00000000 		.4byte	.LFB124
 3146 0084 40000000 		.4byte	.LFE124
 3147 0088 00000000 		.4byte	.LFB123
 3148 008c 44000000 		.4byte	.LFE123
 3149 0090 00000000 		.4byte	.LFB122
 3150 0094 4E000000 		.4byte	.LFE122
 3151 0098 00000000 		.4byte	.LFB120
 3152 009c 62000000 		.4byte	.LFE120
 3153 00a0 00000000 		.4byte	.LFB119
 3154 00a4 78000000 		.4byte	.LFE119
 3155 00a8 00000000 		.4byte	0
 3156 00ac 00000000 		.4byte	0
 3157              		.section	.debug_line,"",%progbits
 3158              	.Ldebug_line0:
 3159 0000 44030000 		.section	.debug_str,"MS",%progbits,1
 3159      02003601 
 3159      00000201 
 3159      FB0E0D00 
 3159      01010101 
 3160              	.LASF44:
 3161 0000 464C4153 		.ascii	"FLASH_ITConfig\000"
 3161      485F4954 
 3161      436F6E66 
ARM GAS  /var/folders/ng/s8655sgx1ys_4lf9jzm2w6n00000gn/T//ccCaeVmP.s 			page 57


 3161      696700
 3162              	.LASF59:
 3163 000f 464C4153 		.ascii	"FLASH_EraseAllSectors\000"
 3163      485F4572 
 3163      61736541 
 3163      6C6C5365 
 3163      63746F72 
 3164              	.LASF29:
 3165 0025 464C4153 		.ascii	"FLASH_ERROR_WRP\000"
 3165      485F4552 
 3165      524F525F 
 3165      57525000 
 3166              	.LASF12:
 3167 0035 75696E74 		.ascii	"uint64_t\000"
 3167      36345F74 
 3167      00
 3168              	.LASF64:
 3169 003e 464C4153 		.ascii	"FLASH_EraseSector\000"
 3169      485F4572 
 3169      61736553 
 3169      6563746F 
 3169      7200
 3170              	.LASF14:
 3171 0050 73697A65 		.ascii	"sizetype\000"
 3171      74797065 
 3171      00
 3172              	.LASF45:
 3173 0059 464C4153 		.ascii	"FLASH_IT\000"
 3173      485F4954 
 3173      00
 3174              	.LASF63:
 3175 0062 464C4153 		.ascii	"FLASH_Sector\000"
 3175      485F5365 
 3175      63746F72 
 3175      00
 3176              	.LASF60:
 3177 006f 566F6C74 		.ascii	"VoltageRange\000"
 3177      61676552 
 3177      616E6765 
 3177      00
 3178              	.LASF54:
 3179 007c 41646472 		.ascii	"Address\000"
 3179      65737300 
 3180              	.LASF3:
 3181 0084 73686F72 		.ascii	"short int\000"
 3181      7420696E 
 3181      7400
 3182              	.LASF20:
 3183 008e 4B455952 		.ascii	"KEYR\000"
 3183      00
 3184              	.LASF42:
 3185 0093 464C4153 		.ascii	"FLASH_Unlock\000"
 3185      485F556E 
 3185      6C6F636B 
 3185      00
 3186              	.LASF4:
 3187 00a0 75696E74 		.ascii	"uint8_t\000"
ARM GAS  /var/folders/ng/s8655sgx1ys_4lf9jzm2w6n00000gn/T//ccCaeVmP.s 			page 58


 3187      385F7400 
 3188              	.LASF33:
 3189 00a8 464C4153 		.ascii	"FLASH_Status\000"
 3189      485F5374 
 3189      61747573 
 3189      00
 3190              	.LASF61:
 3191 00b5 746D705F 		.ascii	"tmp_psize\000"
 3191      7073697A 
 3191      6500
 3192              	.LASF66:
 3193 00bf 2E2E2F41 		.ascii	"../AithonLibrary/stm_flash.c\000"
 3193      6974686F 
 3193      6E4C6962 
 3193      72617279 
 3193      2F73746D 
 3194              	.LASF37:
 3195 00dc 4E657753 		.ascii	"NewState\000"
 3195      74617465 
 3195      00
 3196              	.LASF17:
 3197 00e5 44495341 		.ascii	"DISABLE\000"
 3197      424C4500 
 3198              	.LASF67:
 3199 00ed 2F557365 		.ascii	"/Users/jseng/aithon/DemoMode\000"
 3199      72732F6A 
 3199      73656E67 
 3199      2F616974 
 3199      686F6E2F 
 3200              	.LASF38:
 3201 010a 464C4153 		.ascii	"FLASH_InstructionCacheCmd\000"
 3201      485F496E 
 3201      73747275 
 3201      6374696F 
 3201      6E436163 
 3202              	.LASF41:
 3203 0124 464C4153 		.ascii	"FLASH_DataCacheReset\000"
 3203      485F4461 
 3203      74614361 
 3203      63686552 
 3203      65736574 
 3204              	.LASF21:
 3205 0139 4F50544B 		.ascii	"OPTKEYR\000"
 3205      45595200 
 3206              	.LASF11:
 3207 0141 6C6F6E67 		.ascii	"long long int\000"
 3207      206C6F6E 
 3207      6720696E 
 3207      7400
 3208              	.LASF8:
 3209 014f 6C6F6E67 		.ascii	"long int\000"
 3209      20696E74 
 3209      00
 3210              	.LASF31:
 3211 0158 464C4153 		.ascii	"FLASH_ERROR_OPERATION\000"
 3211      485F4552 
 3211      524F525F 
ARM GAS  /var/folders/ng/s8655sgx1ys_4lf9jzm2w6n00000gn/T//ccCaeVmP.s 			page 59


 3211      4F504552 
 3211      4154494F 
 3212              	.LASF69:
 3213 016e 666C6173 		.ascii	"flashstatus\000"
 3213      68737461 
 3213      74757300 
 3214              	.LASF40:
 3215 017a 464C4153 		.ascii	"FLASH_InstructionCacheReset\000"
 3215      485F496E 
 3215      73747275 
 3215      6374696F 
 3215      6E436163 
 3216              	.LASF55:
 3217 0196 44617461 		.ascii	"Data\000"
 3217      00
 3218              	.LASF23:
 3219 019b 4F505443 		.ascii	"OPTCR1\000"
 3219      523100
 3220              	.LASF50:
 3221 01a2 62697473 		.ascii	"bitstatus\000"
 3221      74617475 
 3221      7300
 3222              	.LASF2:
 3223 01ac 756E7369 		.ascii	"unsigned char\000"
 3223      676E6564 
 3223      20636861 
 3223      7200
 3224              	.LASF43:
 3225 01ba 464C4153 		.ascii	"FLASH_Lock\000"
 3225      485F4C6F 
 3225      636B00
 3226              	.LASF35:
 3227 01c5 464C4153 		.ascii	"FLASH_PrefetchBufferCmd\000"
 3227      485F5072 
 3227      65666574 
 3227      63684275 
 3227      66666572 
 3228              	.LASF1:
 3229 01dd 7369676E 		.ascii	"signed char\000"
 3229      65642063 
 3229      68617200 
 3230              	.LASF48:
 3231 01e9 464C4153 		.ascii	"FLASH_GetFlagStatus\000"
 3231      485F4765 
 3231      74466C61 
 3231      67537461 
 3231      74757300 
 3232              	.LASF0:
 3233 01fd 6C6F6E67 		.ascii	"long long unsigned int\000"
 3233      206C6F6E 
 3233      6720756E 
 3233      7369676E 
 3233      65642069 
 3234              	.LASF9:
 3235 0214 75696E74 		.ascii	"uint32_t\000"
 3235      33325F74 
 3235      00
ARM GAS  /var/folders/ng/s8655sgx1ys_4lf9jzm2w6n00000gn/T//ccCaeVmP.s 			page 60


 3236              	.LASF47:
 3237 021d 464C4153 		.ascii	"FLASH_ClearFlag\000"
 3237      485F436C 
 3237      65617246 
 3237      6C616700 
 3238              	.LASF13:
 3239 022d 756E7369 		.ascii	"unsigned int\000"
 3239      676E6564 
 3239      20696E74 
 3239      00
 3240              	.LASF32:
 3241 023a 464C4153 		.ascii	"FLASH_COMPLETE\000"
 3241      485F434F 
 3241      4D504C45 
 3241      544500
 3242              	.LASF25:
 3243 0249 464C4153 		.ascii	"FLASH_BUSY\000"
 3243      485F4255 
 3243      535900
 3244              	.LASF10:
 3245 0254 6C6F6E67 		.ascii	"long unsigned int\000"
 3245      20756E73 
 3245      69676E65 
 3245      6420696E 
 3245      7400
 3246              	.LASF6:
 3247 0266 73686F72 		.ascii	"short unsigned int\000"
 3247      7420756E 
 3247      7369676E 
 3247      65642069 
 3247      6E7400
 3248              	.LASF51:
 3249 0279 73746174 		.ascii	"status\000"
 3249      757300
 3250              	.LASF5:
 3251 0280 75696E74 		.ascii	"uint16_t\000"
 3251      31365F74 
 3251      00
 3252              	.LASF7:
 3253 0289 696E7433 		.ascii	"int32_t\000"
 3253      325F7400 
 3254              	.LASF68:
 3255 0291 464C4153 		.ascii	"FLASH_GetStatus\000"
 3255      485F4765 
 3255      74537461 
 3255      74757300 
 3256              	.LASF34:
 3257 02a1 464C4153 		.ascii	"FLASH_SetLatency\000"
 3257      485F5365 
 3257      744C6174 
 3257      656E6379 
 3257      00
 3258              	.LASF15:
 3259 02b2 52455345 		.ascii	"RESET\000"
 3259      5400
 3260              	.LASF65:
 3261 02b8 474E5520 		.ascii	"GNU C 4.7.4 20130913 (release) [ARM/embedded-4_7-br"
ARM GAS  /var/folders/ng/s8655sgx1ys_4lf9jzm2w6n00000gn/T//ccCaeVmP.s 			page 61


 3261      4320342E 
 3261      372E3420 
 3261      32303133 
 3261      30393133 
 3262 02eb 616E6368 		.ascii	"anch revision 202601]\000"
 3262      20726576 
 3262      6973696F 
 3262      6E203230 
 3262      32363031 
 3263              	.LASF62:
 3264 0301 464C4153 		.ascii	"FLASH_EraseSectorStart\000"
 3264      485F4572 
 3264      61736553 
 3264      6563746F 
 3264      72537461 
 3265              	.LASF56:
 3266 0318 464C4153 		.ascii	"FLASH_ProgramHalfWord\000"
 3266      485F5072 
 3266      6F677261 
 3266      6D48616C 
 3266      66576F72 
 3267              	.LASF46:
 3268 032e 464C4153 		.ascii	"FLASH_FLAG\000"
 3268      485F464C 
 3268      414700
 3269              	.LASF19:
 3270 0339 46756E63 		.ascii	"FunctionalState\000"
 3270      74696F6E 
 3270      616C5374 
 3270      61746500 
 3271              	.LASF49:
 3272 0349 464C4153 		.ascii	"FLASH_EraseSectorGetStatus\000"
 3272      485F4572 
 3272      61736553 
 3272      6563746F 
 3272      72476574 
 3273              	.LASF53:
 3274 0364 464C4153 		.ascii	"FLASH_ProgramByte\000"
 3274      485F5072 
 3274      6F677261 
 3274      6D427974 
 3274      6500
 3275              	.LASF36:
 3276 0376 464C4153 		.ascii	"FLASH_Latency\000"
 3276      485F4C61 
 3276      74656E63 
 3276      7900
 3277              	.LASF30:
 3278 0384 464C4153 		.ascii	"FLASH_ERROR_PROGRAM\000"
 3278      485F4552 
 3278      524F525F 
 3278      50524F47 
 3278      52414D00 
 3279              	.LASF57:
 3280 0398 464C4153 		.ascii	"FLASH_ProgramWord\000"
 3280      485F5072 
 3280      6F677261 
ARM GAS  /var/folders/ng/s8655sgx1ys_4lf9jzm2w6n00000gn/T//ccCaeVmP.s 			page 62


 3280      6D576F72 
 3280      6400
 3281              	.LASF28:
 3282 03aa 464C4153 		.ascii	"FLASH_ERROR_PGA\000"
 3282      485F4552 
 3282      524F525F 
 3282      50474100 
 3283              	.LASF39:
 3284 03ba 464C4153 		.ascii	"FLASH_DataCacheCmd\000"
 3284      485F4461 
 3284      74614361 
 3284      63686543 
 3284      6D6400
 3285              	.LASF26:
 3286 03cd 464C4153 		.ascii	"FLASH_ERROR_PGS\000"
 3286      485F4552 
 3286      524F525F 
 3286      50475300 
 3287              	.LASF24:
 3288 03dd 464C4153 		.ascii	"FLASH_TypeDef\000"
 3288      485F5479 
 3288      70654465 
 3288      6600
 3289              	.LASF52:
 3290 03eb 464C4153 		.ascii	"FLASH_WaitForLastOperation\000"
 3290      485F5761 
 3290      6974466F 
 3290      724C6173 
 3290      744F7065 
 3291              	.LASF70:
 3292 0406 49544D5F 		.ascii	"ITM_RxBuffer\000"
 3292      52784275 
 3292      66666572 
 3292      00
 3293              	.LASF27:
 3294 0413 464C4153 		.ascii	"FLASH_ERROR_PGP\000"
 3294      485F4552 
 3294      524F525F 
 3294      50475000 
 3295              	.LASF16:
 3296 0423 466C6167 		.ascii	"FlagStatus\000"
 3296      53746174 
 3296      757300
 3297              	.LASF22:
 3298 042e 4F505443 		.ascii	"OPTCR\000"
 3298      5200
 3299              	.LASF18:
 3300 0434 454E4142 		.ascii	"ENABLE\000"
 3300      4C4500
 3301              	.LASF58:
 3302 043b 464C4153 		.ascii	"FLASH_ProgramDoubleWord\000"
 3302      485F5072 
 3302      6F677261 
 3302      6D446F75 
 3302      626C6557 
 3303              		.ident	"GCC: (GNU Tools for ARM Embedded Processors) 4.7.4 20130913 (release) [ARM/embedded-4_7-br
ARM GAS  /var/folders/ng/s8655sgx1ys_4lf9jzm2w6n00000gn/T//ccCaeVmP.s 			page 63


DEFINED SYMBOLS
                            *ABS*:0000000000000000 stm_flash.c
/var/folders/ng/s8655sgx1ys_4lf9jzm2w6n00000gn/T//ccCaeVmP.s:20     .text.FLASH_SetLatency:0000000000000000 $t
/var/folders/ng/s8655sgx1ys_4lf9jzm2w6n00000gn/T//ccCaeVmP.s:26     .text.FLASH_SetLatency:0000000000000000 FLASH_SetLatency
/var/folders/ng/s8655sgx1ys_4lf9jzm2w6n00000gn/T//ccCaeVmP.s:46     .text.FLASH_PrefetchBufferCmd:0000000000000000 $t
/var/folders/ng/s8655sgx1ys_4lf9jzm2w6n00000gn/T//ccCaeVmP.s:52     .text.FLASH_PrefetchBufferCmd:0000000000000000 FLASH_PrefetchBufferCmd
/var/folders/ng/s8655sgx1ys_4lf9jzm2w6n00000gn/T//ccCaeVmP.s:81     .text.FLASH_InstructionCacheCmd:0000000000000000 $t
/var/folders/ng/s8655sgx1ys_4lf9jzm2w6n00000gn/T//ccCaeVmP.s:87     .text.FLASH_InstructionCacheCmd:0000000000000000 FLASH_InstructionCacheCmd
/var/folders/ng/s8655sgx1ys_4lf9jzm2w6n00000gn/T//ccCaeVmP.s:116    .text.FLASH_DataCacheCmd:0000000000000000 $t
/var/folders/ng/s8655sgx1ys_4lf9jzm2w6n00000gn/T//ccCaeVmP.s:122    .text.FLASH_DataCacheCmd:0000000000000000 FLASH_DataCacheCmd
/var/folders/ng/s8655sgx1ys_4lf9jzm2w6n00000gn/T//ccCaeVmP.s:151    .text.FLASH_InstructionCacheReset:0000000000000000 $t
/var/folders/ng/s8655sgx1ys_4lf9jzm2w6n00000gn/T//ccCaeVmP.s:157    .text.FLASH_InstructionCacheReset:0000000000000000 FLASH_InstructionCacheReset
/var/folders/ng/s8655sgx1ys_4lf9jzm2w6n00000gn/T//ccCaeVmP.s:175    .text.FLASH_DataCacheReset:0000000000000000 $t
/var/folders/ng/s8655sgx1ys_4lf9jzm2w6n00000gn/T//ccCaeVmP.s:181    .text.FLASH_DataCacheReset:0000000000000000 FLASH_DataCacheReset
/var/folders/ng/s8655sgx1ys_4lf9jzm2w6n00000gn/T//ccCaeVmP.s:199    .text.FLASH_Unlock:0000000000000000 $t
/var/folders/ng/s8655sgx1ys_4lf9jzm2w6n00000gn/T//ccCaeVmP.s:205    .text.FLASH_Unlock:0000000000000000 FLASH_Unlock
/var/folders/ng/s8655sgx1ys_4lf9jzm2w6n00000gn/T//ccCaeVmP.s:236    .text.FLASH_Lock:0000000000000000 $t
/var/folders/ng/s8655sgx1ys_4lf9jzm2w6n00000gn/T//ccCaeVmP.s:242    .text.FLASH_Lock:0000000000000000 FLASH_Lock
/var/folders/ng/s8655sgx1ys_4lf9jzm2w6n00000gn/T//ccCaeVmP.s:260    .text.FLASH_ITConfig:0000000000000000 $t
/var/folders/ng/s8655sgx1ys_4lf9jzm2w6n00000gn/T//ccCaeVmP.s:266    .text.FLASH_ITConfig:0000000000000000 FLASH_ITConfig
/var/folders/ng/s8655sgx1ys_4lf9jzm2w6n00000gn/T//ccCaeVmP.s:296    .text.FLASH_GetFlagStatus:0000000000000000 $t
/var/folders/ng/s8655sgx1ys_4lf9jzm2w6n00000gn/T//ccCaeVmP.s:302    .text.FLASH_GetFlagStatus:0000000000000000 FLASH_GetFlagStatus
/var/folders/ng/s8655sgx1ys_4lf9jzm2w6n00000gn/T//ccCaeVmP.s:326    .text.FLASH_ClearFlag:0000000000000000 $t
/var/folders/ng/s8655sgx1ys_4lf9jzm2w6n00000gn/T//ccCaeVmP.s:332    .text.FLASH_ClearFlag:0000000000000000 FLASH_ClearFlag
/var/folders/ng/s8655sgx1ys_4lf9jzm2w6n00000gn/T//ccCaeVmP.s:349    .text.FLASH_GetStatus:0000000000000000 $t
/var/folders/ng/s8655sgx1ys_4lf9jzm2w6n00000gn/T//ccCaeVmP.s:355    .text.FLASH_GetStatus:0000000000000000 FLASH_GetStatus
/var/folders/ng/s8655sgx1ys_4lf9jzm2w6n00000gn/T//ccCaeVmP.s:408    .text.FLASH_EraseSectorGetStatus:0000000000000000 $t
/var/folders/ng/s8655sgx1ys_4lf9jzm2w6n00000gn/T//ccCaeVmP.s:414    .text.FLASH_EraseSectorGetStatus:0000000000000000 FLASH_EraseSectorGetStatus
/var/folders/ng/s8655sgx1ys_4lf9jzm2w6n00000gn/T//ccCaeVmP.s:444    .text.FLASH_WaitForLastOperation:0000000000000000 $t
/var/folders/ng/s8655sgx1ys_4lf9jzm2w6n00000gn/T//ccCaeVmP.s:450    .text.FLASH_WaitForLastOperation:0000000000000000 FLASH_WaitForLastOperation
/var/folders/ng/s8655sgx1ys_4lf9jzm2w6n00000gn/T//ccCaeVmP.s:488    .text.FLASH_ProgramByte:0000000000000000 $t
/var/folders/ng/s8655sgx1ys_4lf9jzm2w6n00000gn/T//ccCaeVmP.s:494    .text.FLASH_ProgramByte:0000000000000000 FLASH_ProgramByte
/var/folders/ng/s8655sgx1ys_4lf9jzm2w6n00000gn/T//ccCaeVmP.s:549    .text.FLASH_ProgramHalfWord:0000000000000000 $t
/var/folders/ng/s8655sgx1ys_4lf9jzm2w6n00000gn/T//ccCaeVmP.s:555    .text.FLASH_ProgramHalfWord:0000000000000000 FLASH_ProgramHalfWord
/var/folders/ng/s8655sgx1ys_4lf9jzm2w6n00000gn/T//ccCaeVmP.s:611    .text.FLASH_ProgramWord:0000000000000000 $t
/var/folders/ng/s8655sgx1ys_4lf9jzm2w6n00000gn/T//ccCaeVmP.s:617    .text.FLASH_ProgramWord:0000000000000000 FLASH_ProgramWord
/var/folders/ng/s8655sgx1ys_4lf9jzm2w6n00000gn/T//ccCaeVmP.s:673    .text.FLASH_ProgramDoubleWord:0000000000000000 $t
/var/folders/ng/s8655sgx1ys_4lf9jzm2w6n00000gn/T//ccCaeVmP.s:679    .text.FLASH_ProgramDoubleWord:0000000000000000 FLASH_ProgramDoubleWord
/var/folders/ng/s8655sgx1ys_4lf9jzm2w6n00000gn/T//ccCaeVmP.s:738    .text.FLASH_EraseAllSectors:0000000000000000 $t
/var/folders/ng/s8655sgx1ys_4lf9jzm2w6n00000gn/T//ccCaeVmP.s:744    .text.FLASH_EraseAllSectors:0000000000000000 FLASH_EraseAllSectors
/var/folders/ng/s8655sgx1ys_4lf9jzm2w6n00000gn/T//ccCaeVmP.s:806    .text.FLASH_EraseSectorStart:0000000000000000 $t
/var/folders/ng/s8655sgx1ys_4lf9jzm2w6n00000gn/T//ccCaeVmP.s:812    .text.FLASH_EraseSectorStart:0000000000000000 FLASH_EraseSectorStart
/var/folders/ng/s8655sgx1ys_4lf9jzm2w6n00000gn/T//ccCaeVmP.s:899    .text.FLASH_EraseSector:0000000000000000 $t
/var/folders/ng/s8655sgx1ys_4lf9jzm2w6n00000gn/T//ccCaeVmP.s:905    .text.FLASH_EraseSector:0000000000000000 FLASH_EraseSector
                     .debug_frame:0000000000000010 $d

NO UNDEFINED SYMBOLS
