ARM GAS  /var/folders/ng/s8655sgx1ys_4lf9jzm2w6n00000gn/T//ccCaeVmP.s 			page 1


   1              		.syntax unified
   2              		.cpu cortex-m4
   3              		.eabi_attribute 27, 3
   4              		.fpu fpv4-sp-d16
   5              		.eabi_attribute 20, 1
   6              		.eabi_attribute 21, 1
   7              		.eabi_attribute 23, 3
   8              		.eabi_attribute 24, 1
   9              		.eabi_attribute 25, 1
  10              		.eabi_attribute 26, 1
  11              		.eabi_attribute 30, 2
  12              		.eabi_attribute 34, 1
  13              		.eabi_attribute 18, 4
  14              		.thumb
  15              		.file	"stm_flash.c"
  16              		.text
  17              	.Ltext0:
  18              		.cfi_sections	.debug_frame
  19              		.section	.text.FLASH_SetLatency,"ax",%progbits
  20              		.align	2
  21              		.p2align 4,,15
  22              		.global	FLASH_SetLatency
  23              		.thumb
  24              		.thumb_func
  25              		.type	FLASH_SetLatency, %function
  26              	FLASH_SetLatency:
  27              	.LFB111:
  28              		.file 1 "../AithonLibrary/stm_flash.c"
  29              		.loc 1 167 0
  30              		.cfi_startproc
  31              		@ args = 0, pretend = 0, frame = 0
  32              		@ frame_needed = 0, uses_anonymous_args = 0
  33              		@ link register save eliminated.
  34              	.LVL0:
  35              		.loc 1 170 0
  36 0000 4FF47053 		mov	r3, #15360
  37 0004 C4F20203 		movt	r3, 16386
  38 0008 C0B2     		uxtb	r0, r0
  39              	.LVL1:
  40 000a 1870     		strb	r0, [r3, #0]
  41 000c 7047     		bx	lr
  42              		.cfi_endproc
  43              	.LFE111:
  44              		.size	FLASH_SetLatency, .-FLASH_SetLatency
  45 000e 00BF     		.section	.text.FLASH_PrefetchBufferCmd,"ax",%progbits
  46              		.align	2
  47              		.p2align 4,,15
  48              		.global	FLASH_PrefetchBufferCmd
  49              		.thumb
  50              		.thumb_func
  51              		.type	FLASH_PrefetchBufferCmd, %function
  52              	FLASH_PrefetchBufferCmd:
  53              	.LFB112:
  54              		.loc 1 180 0
  55              		.cfi_startproc
  56              		@ args = 0, pretend = 0, frame = 0
  57              		@ frame_needed = 0, uses_anonymous_args = 0
ARM GAS  /var/folders/ng/s8655sgx1ys_4lf9jzm2w6n00000gn/T//ccCaeVmP.s 			page 2


  58              		@ link register save eliminated.
  59              	.LVL2:
  60              		.loc 1 185 0
  61 0000 4FF47053 		mov	r3, #15360
  62 0004 C4F20203 		movt	r3, 16386
  63 0008 1A68     		ldr	r2, [r3, #0]
  64              		.loc 1 183 0
  65 000a 18B9     		cbnz	r0, .L6
  66              		.loc 1 189 0
  67 000c 22F48070 		bic	r0, r2, #256
  68              	.LVL3:
  69 0010 1860     		str	r0, [r3, #0]
  70 0012 7047     		bx	lr
  71              	.LVL4:
  72              	.L6:
  73              		.loc 1 185 0
  74 0014 42F48071 		orr	r1, r2, #256
  75 0018 1960     		str	r1, [r3, #0]
  76 001a 7047     		bx	lr
  77              		.cfi_endproc
  78              	.LFE112:
  79              		.size	FLASH_PrefetchBufferCmd, .-FLASH_PrefetchBufferCmd
  80 001c AFF30080 		.section	.text.FLASH_InstructionCacheCmd,"ax",%progbits
  81              		.align	2
  82              		.p2align 4,,15
  83              		.global	FLASH_InstructionCacheCmd
  84              		.thumb
  85              		.thumb_func
  86              		.type	FLASH_InstructionCacheCmd, %function
  87              	FLASH_InstructionCacheCmd:
  88              	.LFB113:
  89              		.loc 1 200 0
  90              		.cfi_startproc
  91              		@ args = 0, pretend = 0, frame = 0
  92              		@ frame_needed = 0, uses_anonymous_args = 0
  93              		@ link register save eliminated.
  94              	.LVL5:
  95              		.loc 1 204 0
  96 0000 4FF47053 		mov	r3, #15360
  97 0004 C4F20203 		movt	r3, 16386
  98 0008 1A68     		ldr	r2, [r3, #0]
  99              		.loc 1 202 0
 100 000a 18B9     		cbnz	r0, .L10
 101              		.loc 1 208 0
 102 000c 22F40070 		bic	r0, r2, #512
 103              	.LVL6:
 104 0010 1860     		str	r0, [r3, #0]
 105 0012 7047     		bx	lr
 106              	.LVL7:
 107              	.L10:
 108              		.loc 1 204 0
 109 0014 42F40071 		orr	r1, r2, #512
 110 0018 1960     		str	r1, [r3, #0]
 111 001a 7047     		bx	lr
 112              		.cfi_endproc
 113              	.LFE113:
 114              		.size	FLASH_InstructionCacheCmd, .-FLASH_InstructionCacheCmd
ARM GAS  /var/folders/ng/s8655sgx1ys_4lf9jzm2w6n00000gn/T//ccCaeVmP.s 			page 3


 115 001c AFF30080 		.section	.text.FLASH_DataCacheCmd,"ax",%progbits
 116              		.align	2
 117              		.p2align 4,,15
 118              		.global	FLASH_DataCacheCmd
 119              		.thumb
 120              		.thumb_func
 121              		.type	FLASH_DataCacheCmd, %function
 122              	FLASH_DataCacheCmd:
 123              	.LFB114:
 124              		.loc 1 219 0
 125              		.cfi_startproc
 126              		@ args = 0, pretend = 0, frame = 0
 127              		@ frame_needed = 0, uses_anonymous_args = 0
 128              		@ link register save eliminated.
 129              	.LVL8:
 130              		.loc 1 223 0
 131 0000 4FF47053 		mov	r3, #15360
 132 0004 C4F20203 		movt	r3, 16386
 133 0008 1A68     		ldr	r2, [r3, #0]
 134              		.loc 1 221 0
 135 000a 18B9     		cbnz	r0, .L14
 136              		.loc 1 227 0
 137 000c 22F48060 		bic	r0, r2, #1024
 138              	.LVL9:
 139 0010 1860     		str	r0, [r3, #0]
 140 0012 7047     		bx	lr
 141              	.LVL10:
 142              	.L14:
 143              		.loc 1 223 0
 144 0014 42F48061 		orr	r1, r2, #1024
 145 0018 1960     		str	r1, [r3, #0]
 146 001a 7047     		bx	lr
 147              		.cfi_endproc
 148              	.LFE114:
 149              		.size	FLASH_DataCacheCmd, .-FLASH_DataCacheCmd
 150 001c AFF30080 		.section	.text.FLASH_InstructionCacheReset,"ax",%progbits
 151              		.align	2
 152              		.p2align 4,,15
 153              		.global	FLASH_InstructionCacheReset
 154              		.thumb
 155              		.thumb_func
 156              		.type	FLASH_InstructionCacheReset, %function
 157              	FLASH_InstructionCacheReset:
 158              	.LFB115:
 159              		.loc 1 238 0
 160              		.cfi_startproc
 161              		@ args = 0, pretend = 0, frame = 0
 162              		@ frame_needed = 0, uses_anonymous_args = 0
 163              		@ link register save eliminated.
 164              		.loc 1 239 0
 165 0000 4FF47053 		mov	r3, #15360
 166 0004 C4F20203 		movt	r3, 16386
 167 0008 1A68     		ldr	r2, [r3, #0]
 168 000a 42F40060 		orr	r0, r2, #2048
 169 000e 1860     		str	r0, [r3, #0]
 170 0010 7047     		bx	lr
 171              		.cfi_endproc
ARM GAS  /var/folders/ng/s8655sgx1ys_4lf9jzm2w6n00000gn/T//ccCaeVmP.s 			page 4


 172              	.LFE115:
 173              		.size	FLASH_InstructionCacheReset, .-FLASH_InstructionCacheReset
 174 0012 00BFAFF3 		.section	.text.FLASH_DataCacheReset,"ax",%progbits
 174      0080AFF3 
 174      0080AFF3 
 174      0080
 175              		.align	2
 176              		.p2align 4,,15
 177              		.global	FLASH_DataCacheReset
 178              		.thumb
 179              		.thumb_func
 180              		.type	FLASH_DataCacheReset, %function
 181              	FLASH_DataCacheReset:
 182              	.LFB116:
 183              		.loc 1 249 0
 184              		.cfi_startproc
 185              		@ args = 0, pretend = 0, frame = 0
 186              		@ frame_needed = 0, uses_anonymous_args = 0
 187              		@ link register save eliminated.
 188              		.loc 1 250 0
 189 0000 4FF47053 		mov	r3, #15360
 190 0004 C4F20203 		movt	r3, 16386
 191 0008 1A68     		ldr	r2, [r3, #0]
 192 000a 42F48050 		orr	r0, r2, #4096
 193 000e 1860     		str	r0, [r3, #0]
 194 0010 7047     		bx	lr
 195              		.cfi_endproc
 196              	.LFE116:
 197              		.size	FLASH_DataCacheReset, .-FLASH_DataCacheReset
 198 0012 00BFAFF3 		.section	.text.FLASH_Unlock,"ax",%progbits
 198      0080AFF3 
 198      0080AFF3 
 198      0080
 199              		.align	2
 200              		.p2align 4,,15
 201              		.global	FLASH_Unlock
 202              		.thumb
 203              		.thumb_func
 204              		.type	FLASH_Unlock, %function
 205              	FLASH_Unlock:
 206              	.LFB117:
 207              		.loc 1 293 0
 208              		.cfi_startproc
 209              		@ args = 0, pretend = 0, frame = 0
 210              		@ frame_needed = 0, uses_anonymous_args = 0
 211              		@ link register save eliminated.
 212              		.loc 1 294 0
 213 0000 4FF47053 		mov	r3, #15360
 214 0004 C4F20203 		movt	r3, 16386
 215 0008 1A69     		ldr	r2, [r3, #16]
 216 000a 002A     		cmp	r2, #0
 217 000c 09DA     		bge	.L17
 218              		.loc 1 297 0
 219 000e 40F22311 		movw	r1, #291
 220              		.loc 1 298 0
 221 0012 48F6AB10 		movw	r0, #35243
 222              		.loc 1 297 0
ARM GAS  /var/folders/ng/s8655sgx1ys_4lf9jzm2w6n00000gn/T//ccCaeVmP.s 			page 5


 223 0016 C4F26751 		movt	r1, 17767
 224              		.loc 1 298 0
 225 001a CCF6EF50 		movt	r0, 52719
 226              		.loc 1 297 0
 227 001e 5960     		str	r1, [r3, #4]
 228              		.loc 1 298 0
 229 0020 5860     		str	r0, [r3, #4]
 230              	.L17:
 231 0022 7047     		bx	lr
 232              		.cfi_endproc
 233              	.LFE117:
 234              		.size	FLASH_Unlock, .-FLASH_Unlock
 235 0024 AFF30080 		.section	.text.FLASH_Lock,"ax",%progbits
 235      AFF30080 
 235      AFF30080 
 236              		.align	2
 237              		.p2align 4,,15
 238              		.global	FLASH_Lock
 239              		.thumb
 240              		.thumb_func
 241              		.type	FLASH_Lock, %function
 242              	FLASH_Lock:
 243              	.LFB118:
 244              		.loc 1 308 0
 245              		.cfi_startproc
 246              		@ args = 0, pretend = 0, frame = 0
 247              		@ frame_needed = 0, uses_anonymous_args = 0
 248              		@ link register save eliminated.
 249              		.loc 1 310 0
 250 0000 4FF47053 		mov	r3, #15360
 251 0004 C4F20203 		movt	r3, 16386
 252 0008 1A69     		ldr	r2, [r3, #16]
 253 000a 42F00040 		orr	r0, r2, #-2147483648
 254 000e 1861     		str	r0, [r3, #16]
 255 0010 7047     		bx	lr
 256              		.cfi_endproc
 257              	.LFE118:
 258              		.size	FLASH_Lock, .-FLASH_Lock
 259 0012 00BFAFF3 		.section	.text.FLASH_ITConfig,"ax",%progbits
 259      0080AFF3 
 259      0080AFF3 
 259      0080
 260              		.align	2
 261              		.p2align 4,,15
 262              		.global	FLASH_ITConfig
 263              		.thumb
 264              		.thumb_func
 265              		.type	FLASH_ITConfig, %function
 266              	FLASH_ITConfig:
 267              	.LFB127:
 268              		.loc 1 647 0
 269              		.cfi_startproc
 270              		@ args = 0, pretend = 0, frame = 0
 271              		@ frame_needed = 0, uses_anonymous_args = 0
 272              		@ link register save eliminated.
 273              	.LVL11:
 274              		.loc 1 652 0
ARM GAS  /var/folders/ng/s8655sgx1ys_4lf9jzm2w6n00000gn/T//ccCaeVmP.s 			page 6


 275 0000 4FF47053 		mov	r3, #15360
 276 0004 C4F20203 		movt	r3, 16386
 277 0008 1A69     		ldr	r2, [r3, #16]
 278              		.loc 1 649 0
 279 000a 19B9     		cbnz	r1, .L23
 280              		.loc 1 657 0
 281 000c 22EA0000 		bic	r0, r2, r0
 282              	.LVL12:
 283 0010 1861     		str	r0, [r3, #16]
 284 0012 7047     		bx	lr
 285              	.LVL13:
 286              	.L23:
 287              		.loc 1 652 0
 288 0014 1043     		orrs	r0, r0, r2
 289              	.LVL14:
 290 0016 1861     		str	r0, [r3, #16]
 291 0018 7047     		bx	lr
 292              		.cfi_endproc
 293              	.LFE127:
 294              		.size	FLASH_ITConfig, .-FLASH_ITConfig
 295 001a 00BFAFF3 		.section	.text.FLASH_GetFlagStatus,"ax",%progbits
 295      0080
 296              		.align	2
 297              		.p2align 4,,15
 298              		.global	FLASH_GetFlagStatus
 299              		.thumb
 300              		.thumb_func
 301              		.type	FLASH_GetFlagStatus, %function
 302              	FLASH_GetFlagStatus:
 303              	.LFB128:
 304              		.loc 1 675 0
 305              		.cfi_startproc
 306              		@ args = 0, pretend = 0, frame = 0
 307              		@ frame_needed = 0, uses_anonymous_args = 0
 308              		@ link register save eliminated.
 309              	.LVL15:
 310              		.loc 1 678 0
 311 0000 4FF47053 		mov	r3, #15360
 312 0004 C4F20203 		movt	r3, 16386
 313 0008 D968     		ldr	r1, [r3, #12]
 314              	.LVL16:
 315 000a 0842     		tst	r0, r1
 316              		.loc 1 688 0
 317 000c 0CBF     		ite	eq
 318 000e 0020     		moveq	r0, #0
 319 0010 0120     		movne	r0, #1
 320              	.LVL17:
 321 0012 7047     		bx	lr
 322              		.cfi_endproc
 323              	.LFE128:
 324              		.size	FLASH_GetFlagStatus, .-FLASH_GetFlagStatus
 325 0014 AFF30080 		.section	.text.FLASH_ClearFlag,"ax",%progbits
 325      AFF30080 
 325      AFF30080 
 326              		.align	2
 327              		.p2align 4,,15
 328              		.global	FLASH_ClearFlag
ARM GAS  /var/folders/ng/s8655sgx1ys_4lf9jzm2w6n00000gn/T//ccCaeVmP.s 			page 7


 329              		.thumb
 330              		.thumb_func
 331              		.type	FLASH_ClearFlag, %function
 332              	FLASH_ClearFlag:
 333              	.LFB129:
 334              		.loc 1 703 0
 335              		.cfi_startproc
 336              		@ args = 0, pretend = 0, frame = 0
 337              		@ frame_needed = 0, uses_anonymous_args = 0
 338              		@ link register save eliminated.
 339              	.LVL18:
 340              		.loc 1 706 0
 341 0000 4FF47053 		mov	r3, #15360
 342 0004 C4F20203 		movt	r3, 16386
 343 0008 D860     		str	r0, [r3, #12]
 344 000a 7047     		bx	lr
 345              		.cfi_endproc
 346              	.LFE129:
 347              		.size	FLASH_ClearFlag, .-FLASH_ClearFlag
 348 000c AFF30080 		.section	.text.FLASH_GetStatus,"ax",%progbits
 349              		.align	2
 350              		.p2align 4,,15
 351              		.global	FLASH_GetStatus
 352              		.thumb
 353              		.thumb_func
 354              		.type	FLASH_GetStatus, %function
 355              	FLASH_GetStatus:
 356              	.LFB130:
 357              		.loc 1 716 0
 358              		.cfi_startproc
 359              		@ args = 0, pretend = 0, frame = 0
 360              		@ frame_needed = 0, uses_anonymous_args = 0
 361              		@ link register save eliminated.
 362              	.LVL19:
 363              		.loc 1 719 0
 364 0000 4FF47053 		mov	r3, #15360
 365 0004 C4F20203 		movt	r3, 16386
 366 0008 DA68     		ldr	r2, [r3, #12]
 367 000a D103     		lsls	r1, r2, #15
 368 000c 0AD4     		bmi	.L29
 369              		.loc 1 725 0
 370 000e D868     		ldr	r0, [r3, #12]
 371 0010 C206     		lsls	r2, r0, #27
 372 0012 01D5     		bpl	.L33
 373              		.loc 1 727 0
 374 0014 0520     		movs	r0, #5
 375 0016 7047     		bx	lr
 376              	.L33:
 377              		.loc 1 731 0
 378 0018 D968     		ldr	r1, [r3, #12]
 379 001a 11F0EF0F 		tst	r1, #239
 380 001e 03D0     		beq	.L34
 381              		.loc 1 733 0
 382 0020 0620     		movs	r0, #6
 383              	.LVL20:
 384              		.loc 1 750 0
 385 0022 7047     		bx	lr
ARM GAS  /var/folders/ng/s8655sgx1ys_4lf9jzm2w6n00000gn/T//ccCaeVmP.s 			page 8


 386              	.LVL21:
 387              	.L29:
 388              		.loc 1 721 0
 389 0024 0120     		movs	r0, #1
 390 0026 7047     		bx	lr
 391              	.L34:
 392              	.LBB4:
 393              	.LBB5:
 394              		.loc 1 737 0
 395 0028 DB68     		ldr	r3, [r3, #12]
 396 002a 13F0020F 		tst	r3, #2
 397              		.loc 1 739 0
 398 002e 0CBF     		ite	eq
 399 0030 0820     		moveq	r0, #8
 400 0032 0720     		movne	r0, #7
 401 0034 7047     		bx	lr
 402              	.LBE5:
 403              	.LBE4:
 404              		.cfi_endproc
 405              	.LFE130:
 406              		.size	FLASH_GetStatus, .-FLASH_GetStatus
 407 0036 00BFAFF3 		.section	.text.FLASH_EraseSectorGetStatus,"ax",%progbits
 407      0080AFF3 
 407      0080
 408              		.align	2
 409              		.p2align 4,,15
 410              		.global	FLASH_EraseSectorGetStatus
 411              		.thumb
 412              		.thumb_func
 413              		.type	FLASH_EraseSectorGetStatus, %function
 414              	FLASH_EraseSectorGetStatus:
 415              	.LFB121:
 416              		.loc 1 409 0
 417              		.cfi_startproc
 418              		@ args = 0, pretend = 0, frame = 0
 419              		@ frame_needed = 0, uses_anonymous_args = 0
 420 0000 08B5     		push	{r3, lr}
 421              	.LCFI0:
 422              		.cfi_def_cfa_offset 8
 423              		.cfi_offset 3, -8
 424              		.cfi_offset 14, -4
 425              		.loc 1 410 0
 426 0002 FFF7FEFF 		bl	FLASH_GetStatus
 427              	.LVL22:
 428              		.loc 1 411 0
 429 0006 0128     		cmp	r0, #1
 430 0008 07D0     		beq	.L36
 431              		.loc 1 414 0
 432 000a 4FF47053 		mov	r3, #15360
 433 000e C4F20203 		movt	r3, 16386
 434 0012 1A69     		ldr	r2, [r3, #16]
 435 0014 22F00401 		bic	r1, r2, #4
 436 0018 1961     		str	r1, [r3, #16]
 437              	.L36:
 438              		.loc 1 417 0
 439 001a 08BD     		pop	{r3, pc}
 440              		.cfi_endproc
ARM GAS  /var/folders/ng/s8655sgx1ys_4lf9jzm2w6n00000gn/T//ccCaeVmP.s 			page 9


 441              	.LFE121:
 442              		.size	FLASH_EraseSectorGetStatus, .-FLASH_EraseSectorGetStatus
 443 001c AFF30080 		.section	.text.FLASH_WaitForLastOperation,"ax",%progbits
 444              		.align	2
 445              		.p2align 4,,15
 446              		.global	FLASH_WaitForLastOperation
 447              		.thumb
 448              		.thumb_func
 449              		.type	FLASH_WaitForLastOperation, %function
 450              	FLASH_WaitForLastOperation:
 451              	.LFB131:
 452              		.loc 1 759 0
 453              		.cfi_startproc
 454              		@ args = 0, pretend = 0, frame = 8
 455              		@ frame_needed = 0, uses_anonymous_args = 0
 456 0000 00B5     		push	{lr}
 457              	.LCFI1:
 458              		.cfi_def_cfa_offset 4
 459              		.cfi_offset 14, -4
 460 0002 83B0     		sub	sp, sp, #12
 461              	.LCFI2:
 462              		.cfi_def_cfa_offset 16
 463              		.loc 1 760 0
 464 0004 0823     		movs	r3, #8
 465 0006 8DF80730 		strb	r3, [sp, #7]
 466              	.LVL23:
 467              	.L53:
 468              		.loc 1 763 0
 469 000a FFF7FEFF 		bl	FLASH_GetStatus
 470              	.LVL24:
 471 000e 8DF80700 		strb	r0, [sp, #7]
 472              		.loc 1 768 0
 473 0012 9DF80700 		ldrb	r0, [sp, #7]	@ zero_extendqisi2
 474              	.LVL25:
 475 0016 0128     		cmp	r0, #1
 476 0018 F7D0     		beq	.L53
 477              		.loc 1 773 0
 478 001a 9DF80700 		ldrb	r0, [sp, #7]	@ zero_extendqisi2
 479              	.LVL26:
 480              	.LVL27:
 481              		.loc 1 774 0
 482 001e 03B0     		add	sp, sp, #12
 483 0020 00BD     		pop	{pc}
 484              		.cfi_endproc
 485              	.LFE131:
 486              		.size	FLASH_WaitForLastOperation, .-FLASH_WaitForLastOperation
 487 0022 00BFAFF3 		.section	.text.FLASH_ProgramByte,"ax",%progbits
 487      0080AFF3 
 487      0080AFF3 
 487      0080
 488              		.align	2
 489              		.p2align 4,,15
 490              		.global	FLASH_ProgramByte
 491              		.thumb
 492              		.thumb_func
 493              		.type	FLASH_ProgramByte, %function
 494              	FLASH_ProgramByte:
ARM GAS  /var/folders/ng/s8655sgx1ys_4lf9jzm2w6n00000gn/T//ccCaeVmP.s 			page 10


 495              	.LFB126:
 496              		.loc 1 595 0
 497              		.cfi_startproc
 498              		@ args = 0, pretend = 0, frame = 0
 499              		@ frame_needed = 0, uses_anonymous_args = 0
 500              	.LVL28:
 501 0000 70B5     		push	{r4, r5, r6, lr}
 502              	.LCFI3:
 503              		.cfi_def_cfa_offset 16
 504              		.cfi_offset 4, -16
 505              		.cfi_offset 5, -12
 506              		.cfi_offset 6, -8
 507              		.cfi_offset 14, -4
 508              		.loc 1 595 0
 509 0002 0546     		mov	r5, r0
 510 0004 0E46     		mov	r6, r1
 511              		.loc 1 600 0
 512 0006 FFF7FEFF 		bl	FLASH_WaitForLastOperation
 513              	.LVL29:
 514              		.loc 1 602 0
 515 000a 0828     		cmp	r0, #8
 516 000c 00D0     		beq	.L56
 517              		.loc 1 620 0
 518 000e 70BD     		pop	{r4, r5, r6, pc}
 519              	.L56:
 520              		.loc 1 605 0
 521 0010 4FF47054 		mov	r4, #15360
 522 0014 C4F20204 		movt	r4, 16386
 523 0018 2369     		ldr	r3, [r4, #16]
 524 001a 23F44070 		bic	r0, r3, #768
 525              	.LVL30:
 526 001e 2061     		str	r0, [r4, #16]
 527              		.loc 1 606 0
 528 0020 2169     		ldr	r1, [r4, #16]
 529 0022 2161     		str	r1, [r4, #16]
 530              		.loc 1 607 0
 531 0024 2269     		ldr	r2, [r4, #16]
 532 0026 42F00103 		orr	r3, r2, #1
 533 002a 2361     		str	r3, [r4, #16]
 534              		.loc 1 609 0
 535 002c 2E70     		strb	r6, [r5, #0]
 536              		.loc 1 612 0
 537 002e FFF7FEFF 		bl	FLASH_WaitForLastOperation
 538              	.LVL31:
 539              		.loc 1 615 0
 540 0032 2169     		ldr	r1, [r4, #16]
 541 0034 21F00102 		bic	r2, r1, #1
 542 0038 2261     		str	r2, [r4, #16]
 543              		.loc 1 620 0
 544 003a 70BD     		pop	{r4, r5, r6, pc}
 545              		.cfi_endproc
 546              	.LFE126:
 547              		.size	FLASH_ProgramByte, .-FLASH_ProgramByte
 548 003c AFF30080 		.section	.text.FLASH_ProgramHalfWord,"ax",%progbits
 549              		.align	2
 550              		.p2align 4,,15
 551              		.global	FLASH_ProgramHalfWord
ARM GAS  /var/folders/ng/s8655sgx1ys_4lf9jzm2w6n00000gn/T//ccCaeVmP.s 			page 11


 552              		.thumb
 553              		.thumb_func
 554              		.type	FLASH_ProgramHalfWord, %function
 555              	FLASH_ProgramHalfWord:
 556              	.LFB125:
 557              		.loc 1 559 0
 558              		.cfi_startproc
 559              		@ args = 0, pretend = 0, frame = 0
 560              		@ frame_needed = 0, uses_anonymous_args = 0
 561              	.LVL32:
 562 0000 70B5     		push	{r4, r5, r6, lr}
 563              	.LCFI4:
 564              		.cfi_def_cfa_offset 16
 565              		.cfi_offset 4, -16
 566              		.cfi_offset 5, -12
 567              		.cfi_offset 6, -8
 568              		.cfi_offset 14, -4
 569              		.loc 1 559 0
 570 0002 0546     		mov	r5, r0
 571 0004 0E46     		mov	r6, r1
 572              		.loc 1 564 0
 573 0006 FFF7FEFF 		bl	FLASH_WaitForLastOperation
 574              	.LVL33:
 575              		.loc 1 566 0
 576 000a 0828     		cmp	r0, #8
 577 000c 00D0     		beq	.L59
 578              		.loc 1 583 0
 579 000e 70BD     		pop	{r4, r5, r6, pc}
 580              	.L59:
 581              		.loc 1 569 0
 582 0010 4FF47054 		mov	r4, #15360
 583 0014 C4F20204 		movt	r4, 16386
 584 0018 2369     		ldr	r3, [r4, #16]
 585 001a 23F44070 		bic	r0, r3, #768
 586              	.LVL34:
 587 001e 2061     		str	r0, [r4, #16]
 588              		.loc 1 570 0
 589 0020 2169     		ldr	r1, [r4, #16]
 590 0022 41F48072 		orr	r2, r1, #256
 591 0026 2261     		str	r2, [r4, #16]
 592              		.loc 1 571 0
 593 0028 2369     		ldr	r3, [r4, #16]
 594 002a 43F00100 		orr	r0, r3, #1
 595 002e 2061     		str	r0, [r4, #16]
 596              		.loc 1 573 0
 597 0030 2E80     		strh	r6, [r5, #0]	@ movhi
 598              		.loc 1 576 0
 599 0032 FFF7FEFF 		bl	FLASH_WaitForLastOperation
 600              	.LVL35:
 601              		.loc 1 579 0
 602 0036 2169     		ldr	r1, [r4, #16]
 603 0038 21F00102 		bic	r2, r1, #1
 604 003c 2261     		str	r2, [r4, #16]
 605              		.loc 1 583 0
 606 003e 70BD     		pop	{r4, r5, r6, pc}
 607              		.cfi_endproc
 608              	.LFE125:
ARM GAS  /var/folders/ng/s8655sgx1ys_4lf9jzm2w6n00000gn/T//ccCaeVmP.s 			page 12


 609              		.size	FLASH_ProgramHalfWord, .-FLASH_ProgramHalfWord
 610              		.section	.text.FLASH_ProgramWord,"ax",%progbits
 611              		.align	2
 612              		.p2align 4,,15
 613              		.global	FLASH_ProgramWord
 614              		.thumb
 615              		.thumb_func
 616              		.type	FLASH_ProgramWord, %function
 617              	FLASH_ProgramWord:
 618              	.LFB124:
 619              		.loc 1 523 0
 620              		.cfi_startproc
 621              		@ args = 0, pretend = 0, frame = 0
 622              		@ frame_needed = 0, uses_anonymous_args = 0
 623              	.LVL36:
 624 0000 70B5     		push	{r4, r5, r6, lr}
 625              	.LCFI5:
 626              		.cfi_def_cfa_offset 16
 627              		.cfi_offset 4, -16
 628              		.cfi_offset 5, -12
 629              		.cfi_offset 6, -8
 630              		.cfi_offset 14, -4
 631              		.loc 1 523 0
 632 0002 0546     		mov	r5, r0
 633 0004 0E46     		mov	r6, r1
 634              		.loc 1 528 0
 635 0006 FFF7FEFF 		bl	FLASH_WaitForLastOperation
 636              	.LVL37:
 637              		.loc 1 530 0
 638 000a 0828     		cmp	r0, #8
 639 000c 00D0     		beq	.L62
 640              		.loc 1 547 0
 641 000e 70BD     		pop	{r4, r5, r6, pc}
 642              	.L62:
 643              		.loc 1 533 0
 644 0010 4FF47054 		mov	r4, #15360
 645 0014 C4F20204 		movt	r4, 16386
 646 0018 2369     		ldr	r3, [r4, #16]
 647 001a 23F44070 		bic	r0, r3, #768
 648              	.LVL38:
 649 001e 2061     		str	r0, [r4, #16]
 650              		.loc 1 534 0
 651 0020 2169     		ldr	r1, [r4, #16]
 652 0022 41F40072 		orr	r2, r1, #512
 653 0026 2261     		str	r2, [r4, #16]
 654              		.loc 1 535 0
 655 0028 2369     		ldr	r3, [r4, #16]
 656 002a 43F00100 		orr	r0, r3, #1
 657 002e 2061     		str	r0, [r4, #16]
 658              		.loc 1 537 0
 659 0030 2E60     		str	r6, [r5, #0]
 660              		.loc 1 540 0
 661 0032 FFF7FEFF 		bl	FLASH_WaitForLastOperation
 662              	.LVL39:
 663              		.loc 1 543 0
 664 0036 2169     		ldr	r1, [r4, #16]
 665 0038 21F00102 		bic	r2, r1, #1
ARM GAS  /var/folders/ng/s8655sgx1ys_4lf9jzm2w6n00000gn/T//ccCaeVmP.s 			page 13


 666 003c 2261     		str	r2, [r4, #16]
 667              		.loc 1 547 0
 668 003e 70BD     		pop	{r4, r5, r6, pc}
 669              		.cfi_endproc
 670              	.LFE124:
 671              		.size	FLASH_ProgramWord, .-FLASH_ProgramWord
 672              		.section	.text.FLASH_ProgramDoubleWord,"ax",%progbits
 673              		.align	2
 674              		.p2align 4,,15
 675              		.global	FLASH_ProgramDoubleWord
 676              		.thumb
 677              		.thumb_func
 678              		.type	FLASH_ProgramDoubleWord, %function
 679              	FLASH_ProgramDoubleWord:
 680              	.LFB123:
 681              		.loc 1 487 0
 682              		.cfi_startproc
 683              		@ args = 0, pretend = 0, frame = 0
 684              		@ frame_needed = 0, uses_anonymous_args = 0
 685              	.LVL40:
 686 0000 F8B5     		push	{r3, r4, r5, r6, r7, lr}
 687              	.LCFI6:
 688              		.cfi_def_cfa_offset 24
 689              		.cfi_offset 3, -24
 690              		.cfi_offset 4, -20
 691              		.cfi_offset 5, -16
 692              		.cfi_offset 6, -12
 693              		.cfi_offset 7, -8
 694              		.cfi_offset 14, -4
 695              		.loc 1 487 0
 696 0002 0746     		mov	r7, r0
 697 0004 1446     		mov	r4, r2
 698 0006 1D46     		mov	r5, r3
 699              		.loc 1 492 0
 700 0008 FFF7FEFF 		bl	FLASH_WaitForLastOperation
 701              	.LVL41:
 702              		.loc 1 494 0
 703 000c 0828     		cmp	r0, #8
 704 000e 00D0     		beq	.L65
 705              		.loc 1 511 0
 706 0010 F8BD     		pop	{r3, r4, r5, r6, r7, pc}
 707              	.L65:
 708              		.loc 1 497 0
 709 0012 4FF47056 		mov	r6, #15360
 710 0016 C4F20206 		movt	r6, 16386
 711 001a 3369     		ldr	r3, [r6, #16]
 712 001c 23F44070 		bic	r0, r3, #768
 713              	.LVL42:
 714 0020 3061     		str	r0, [r6, #16]
 715              		.loc 1 498 0
 716 0022 3169     		ldr	r1, [r6, #16]
 717 0024 41F44072 		orr	r2, r1, #768
 718 0028 3261     		str	r2, [r6, #16]
 719              		.loc 1 499 0
 720 002a 3369     		ldr	r3, [r6, #16]
 721 002c 43F00100 		orr	r0, r3, #1
 722 0030 3061     		str	r0, [r6, #16]
ARM GAS  /var/folders/ng/s8655sgx1ys_4lf9jzm2w6n00000gn/T//ccCaeVmP.s 			page 14


 723              		.loc 1 501 0
 724 0032 C7E90045 		strd	r4, [r7]
 725              		.loc 1 504 0
 726 0036 FFF7FEFF 		bl	FLASH_WaitForLastOperation
 727              	.LVL43:
 728              		.loc 1 507 0
 729 003a 3169     		ldr	r1, [r6, #16]
 730 003c 21F00102 		bic	r2, r1, #1
 731 0040 3261     		str	r2, [r6, #16]
 732              		.loc 1 511 0
 733 0042 F8BD     		pop	{r3, r4, r5, r6, r7, pc}
 734              		.cfi_endproc
 735              	.LFE123:
 736              		.size	FLASH_ProgramDoubleWord, .-FLASH_ProgramDoubleWord
 737 0044 AFF30080 		.section	.text.FLASH_EraseAllSectors,"ax",%progbits
 737      AFF30080 
 737      AFF30080 
 738              		.align	2
 739              		.p2align 4,,15
 740              		.global	FLASH_EraseAllSectors
 741              		.thumb
 742              		.thumb_func
 743              		.type	FLASH_EraseAllSectors, %function
 744              	FLASH_EraseAllSectors:
 745              	.LFB122:
 746              		.loc 1 437 0
 747              		.cfi_startproc
 748              		@ args = 0, pretend = 0, frame = 0
 749              		@ frame_needed = 0, uses_anonymous_args = 0
 750              	.LVL44:
 751 0000 10B5     		push	{r4, lr}
 752              	.LCFI7:
 753              		.cfi_def_cfa_offset 8
 754              		.cfi_offset 4, -8
 755              		.cfi_offset 14, -4
 756              		.loc 1 442 0
 757 0002 38B1     		cbz	r0, .L67
 758              		.loc 1 446 0
 759 0004 0128     		cmp	r0, #1
 760 0006 1FD0     		beq	.L69
 761              		.loc 1 452 0
 762 0008 0228     		cmp	r0, #2
 763 000a 14BF     		ite	ne
 764 000c 4FF44070 		movne	r0, #768
 765 0010 4FF40070 		moveq	r0, #512
 766              	.LVL45:
 767              	.L67:
 768              		.loc 1 461 0
 769 0014 4FF47054 		mov	r4, #15360
 770 0018 C4F20204 		movt	r4, 16386
 771 001c 2369     		ldr	r3, [r4, #16]
 772 001e 23F44071 		bic	r1, r3, #768
 773 0022 2161     		str	r1, [r4, #16]
 774              		.loc 1 462 0
 775 0024 2269     		ldr	r2, [r4, #16]
 776 0026 1043     		orrs	r0, r0, r2
 777              	.LVL46:
ARM GAS  /var/folders/ng/s8655sgx1ys_4lf9jzm2w6n00000gn/T//ccCaeVmP.s 			page 15


 778 0028 2061     		str	r0, [r4, #16]
 779              		.loc 1 463 0
 780 002a 2069     		ldr	r0, [r4, #16]
 781 002c 40F00403 		orr	r3, r0, #4
 782 0030 2361     		str	r3, [r4, #16]
 783              		.loc 1 464 0
 784 0032 2169     		ldr	r1, [r4, #16]
 785 0034 41F48032 		orr	r2, r1, #65536
 786 0038 2261     		str	r2, [r4, #16]
 787              		.loc 1 467 0
 788 003a FFF7FEFF 		bl	FLASH_WaitForLastOperation
 789              	.LVL47:
 790              		.loc 1 470 0
 791 003e 2369     		ldr	r3, [r4, #16]
 792 0040 23F00401 		bic	r1, r3, #4
 793 0044 2161     		str	r1, [r4, #16]
 794              		.loc 1 475 0
 795 0046 10BD     		pop	{r4, pc}
 796              	.LVL48:
 797              	.L69:
 798              		.loc 1 448 0
 799 0048 4FF48070 		mov	r0, #256
 800              	.LVL49:
 801 004c E2E7     		b	.L67
 802              		.cfi_endproc
 803              	.LFE122:
 804              		.size	FLASH_EraseAllSectors, .-FLASH_EraseAllSectors
 805 004e 00BF     		.section	.text.FLASH_EraseSectorStart,"ax",%progbits
 806              		.align	2
 807              		.p2align 4,,15
 808              		.global	FLASH_EraseSectorStart
 809              		.thumb
 810              		.thumb_func
 811              		.type	FLASH_EraseSectorStart, %function
 812              	FLASH_EraseSectorStart:
 813              	.LFB120:
 814              		.loc 1 380 0
 815              		.cfi_startproc
 816              		@ args = 0, pretend = 0, frame = 0
 817              		@ frame_needed = 0, uses_anonymous_args = 0
 818              	.LVL50:
 819 0000 38B5     		push	{r3, r4, r5, lr}
 820              	.LCFI8:
 821              		.cfi_def_cfa_offset 16
 822              		.cfi_offset 3, -16
 823              		.cfi_offset 4, -12
 824              		.cfi_offset 5, -8
 825              		.cfi_offset 14, -4
 826              		.loc 1 380 0
 827 0002 0446     		mov	r4, r0
 828              		.loc 1 384 0
 829 0004 61B1     		cbz	r1, .L74
 830              		.loc 1 386 0
 831 0006 0129     		cmp	r1, #1
 832 0008 28D0     		beq	.L75
 833              		.loc 1 389 0
 834 000a 0229     		cmp	r1, #2
ARM GAS  /var/folders/ng/s8655sgx1ys_4lf9jzm2w6n00000gn/T//ccCaeVmP.s 			page 16


 835 000c 14BF     		ite	ne
 836 000e 4FF44075 		movne	r5, #768
 837 0012 4FF40075 		moveq	r5, #512
 838              	.LVL51:
 839              		.loc 1 394 0
 840 0016 FFF7FEFF 		bl	FLASH_WaitForLastOperation
 841              	.LVL52:
 842              		.loc 1 395 0
 843 001a 0828     		cmp	r0, #8
 844 001c 05D0     		beq	.L77
 845              	.LVL53:
 846              	.L73:
 847              		.loc 1 407 0
 848 001e 38BD     		pop	{r3, r4, r5, pc}
 849              	.LVL54:
 850              	.L74:
 851              		.loc 1 385 0
 852 0020 0D46     		mov	r5, r1
 853              	.L72:
 854              	.LVL55:
 855              		.loc 1 394 0
 856 0022 FFF7FEFF 		bl	FLASH_WaitForLastOperation
 857              	.LVL56:
 858              		.loc 1 395 0
 859 0026 0828     		cmp	r0, #8
 860 0028 F9D1     		bne	.L73
 861              	.LVL57:
 862              	.L77:
 863              		.loc 1 399 0
 864 002a 4FF47053 		mov	r3, #15360
 865 002e C4F20203 		movt	r3, 16386
 866 0032 1A69     		ldr	r2, [r3, #16]
 867 0034 22F44071 		bic	r1, r2, #768
 868 0038 1961     		str	r1, [r3, #16]
 869              		.loc 1 400 0
 870 003a 1A69     		ldr	r2, [r3, #16]
 871 003c 1543     		orrs	r5, r5, r2
 872              	.LVL58:
 873 003e 1D61     		str	r5, [r3, #16]
 874              		.loc 1 401 0
 875 0040 1969     		ldr	r1, [r3, #16]
 876 0042 21F0F802 		bic	r2, r1, #248
 877 0046 1A61     		str	r2, [r3, #16]
 878              		.loc 1 402 0
 879 0048 1969     		ldr	r1, [r3, #16]
 880 004a 41F00202 		orr	r2, r1, #2
 881 004e 1443     		orrs	r4, r4, r2
 882              	.LVL59:
 883 0050 1C61     		str	r4, [r3, #16]
 884              		.loc 1 403 0
 885 0052 1969     		ldr	r1, [r3, #16]
 886 0054 41F48032 		orr	r2, r1, #65536
 887 0058 1A61     		str	r2, [r3, #16]
 888              		.loc 1 407 0
 889 005a 38BD     		pop	{r3, r4, r5, pc}
 890              	.LVL60:
 891              	.L75:
ARM GAS  /var/folders/ng/s8655sgx1ys_4lf9jzm2w6n00000gn/T//ccCaeVmP.s 			page 17


 892              		.loc 1 387 0
 893 005c 4FF48075 		mov	r5, #256
 894 0060 DFE7     		b	.L72
 895              		.cfi_endproc
 896              	.LFE120:
 897              		.size	FLASH_EraseSectorStart, .-FLASH_EraseSectorStart
 898 0062 00BFAFF3 		.section	.text.FLASH_EraseSector,"ax",%progbits
 898      0080AFF3 
 898      0080AFF3 
 898      0080
 899              		.align	2
 900              		.p2align 4,,15
 901              		.global	FLASH_EraseSector
 902              		.thumb
 903              		.thumb_func
 904              		.type	FLASH_EraseSector, %function
 905              	FLASH_EraseSector:
 906              	.LFB119:
 907              		.loc 1 334 0
 908              		.cfi_startproc
 909              		@ args = 0, pretend = 0, frame = 0
 910              		@ frame_needed = 0, uses_anonymous_args = 0
 911              	.LVL61:
 912 0000 70B5     		push	{r4, r5, r6, lr}
 913              	.LCFI9:
 914              		.cfi_def_cfa_offset 16
 915              		.cfi_offset 4, -16
 916              		.cfi_offset 5, -12
 917              		.cfi_offset 6, -8
 918              		.cfi_offset 14, -4
 919              		.loc 1 334 0
 920 0002 0546     		mov	r5, r0
 921              		.loc 1 339 0
 922 0004 0029     		cmp	r1, #0
 923 0006 2ED0     		beq	.L81
 924              		.loc 1 343 0
 925 0008 0129     		cmp	r1, #1
 926 000a 32D0     		beq	.L82
 927              		.loc 1 349 0
 928 000c 0229     		cmp	r1, #2
 929 000e 14BF     		ite	ne
 930 0010 4FF44076 		movne	r6, #768
 931 0014 4FF40076 		moveq	r6, #512
 932              	.LVL62:
 933              		.loc 1 356 0
 934 0018 FFF7FEFF 		bl	FLASH_WaitForLastOperation
 935              	.LVL63:
 936              		.loc 1 358 0
 937 001c 0828     		cmp	r0, #8
 938 001e 27D1     		bne	.L80
 939              	.LVL64:
 940              	.L84:
 941              		.loc 1 361 0
 942 0020 4FF47054 		mov	r4, #15360
 943 0024 C4F20204 		movt	r4, 16386
 944 0028 2369     		ldr	r3, [r4, #16]
 945 002a 23F44070 		bic	r0, r3, #768
ARM GAS  /var/folders/ng/s8655sgx1ys_4lf9jzm2w6n00000gn/T//ccCaeVmP.s 			page 18


 946 002e 2061     		str	r0, [r4, #16]
 947              		.loc 1 362 0
 948 0030 2169     		ldr	r1, [r4, #16]
 949 0032 0E43     		orrs	r6, r6, r1
 950              	.LVL65:
 951 0034 2661     		str	r6, [r4, #16]
 952              		.loc 1 363 0
 953 0036 2269     		ldr	r2, [r4, #16]
 954 0038 22F0F803 		bic	r3, r2, #248
 955 003c 2361     		str	r3, [r4, #16]
 956              		.loc 1 364 0
 957 003e 2069     		ldr	r0, [r4, #16]
 958 0040 40F00201 		orr	r1, r0, #2
 959 0044 0D43     		orrs	r5, r5, r1
 960              	.LVL66:
 961 0046 2561     		str	r5, [r4, #16]
 962              		.loc 1 365 0
 963 0048 2269     		ldr	r2, [r4, #16]
 964 004a 42F48033 		orr	r3, r2, #65536
 965 004e 2361     		str	r3, [r4, #16]
 966              		.loc 1 368 0
 967 0050 FFF7FEFF 		bl	FLASH_WaitForLastOperation
 968              	.LVL67:
 969              		.loc 1 371 0
 970 0054 2169     		ldr	r1, [r4, #16]
 971 0056 21F00202 		bic	r2, r1, #2
 972 005a 2261     		str	r2, [r4, #16]
 973              		.loc 1 372 0
 974 005c 2369     		ldr	r3, [r4, #16]
 975 005e 23F0F801 		bic	r1, r3, #248
 976 0062 2161     		str	r1, [r4, #16]
 977              		.loc 1 376 0
 978 0064 70BD     		pop	{r4, r5, r6, pc}
 979              	.LVL68:
 980              	.L81:
 981              		.loc 1 341 0
 982 0066 0E46     		mov	r6, r1
 983              	.L79:
 984              	.LVL69:
 985              		.loc 1 356 0
 986 0068 FFF7FEFF 		bl	FLASH_WaitForLastOperation
 987              	.LVL70:
 988              		.loc 1 358 0
 989 006c 0828     		cmp	r0, #8
 990 006e D7D0     		beq	.L84
 991              	.LVL71:
 992              	.L80:
 993              		.loc 1 376 0
 994 0070 70BD     		pop	{r4, r5, r6, pc}
 995              	.LVL72:
 996              	.L82:
 997              		.loc 1 345 0
 998 0072 4FF48076 		mov	r6, #256
 999 0076 F7E7     		b	.L79
 1000              		.cfi_endproc
 1001              	.LFE119:
 1002              		.size	FLASH_EraseSector, .-FLASH_EraseSector
ARM GAS  /var/folders/ng/s8655sgx1ys_4lf9jzm2w6n00000gn/T//ccCaeVmP.s 			page 19


 1003 0078 AFF30080 		.text
 1003      AFF30080 
 1004              	.Letext0:
 1005              		.file 2 "/Users/jseng/gccarm/bin/../lib/gcc/arm-none-eabi/4.7.4/../../../../arm-none-eabi/include/
 1006              		.file 3 "../AithonLibrary/ChibiOS/os/hal/platforms/STM32F4xx/stm32f4xx.h"
 1007              		.file 4 "../AithonLibrary/stm_flash.h"
 1008              		.file 5 "../AithonLibrary/ChibiOS/os/ports/common/ARMCMx/CMSIS/include/core_cm4.h"