ARM GAS  /var/folders/ng/s8655sgx1ys_4lf9jzm2w6n00000gn/T//ccvMYcKM.s 			page 1


   1              		.syntax unified
   2              		.cpu cortex-m4
   3              		.eabi_attribute 27, 3
   4              		.fpu fpv4-sp-d16
   5              		.eabi_attribute 20, 1
   6              		.eabi_attribute 21, 1
   7              		.eabi_attribute 23, 3
   8              		.eabi_attribute 24, 1
   9              		.eabi_attribute 25, 1
  10              		.eabi_attribute 26, 1
  11              		.eabi_attribute 30, 2
  12              		.eabi_attribute 34, 1
  13              		.eabi_attribute 18, 4
  14              		.thumb
  15              		.file	"usb.c"
  16              		.text
  17              	.Ltext0:
  18              		.cfi_sections	.debug_frame
  19              		.section	.text.usbInit,"ax",%progbits
  20              		.align	2
  21              		.p2align 4,,15
  22              		.global	usbInit
  23              		.thumb
  24              		.thumb_func
  25              		.type	usbInit, %function
  26              	usbInit:
  27              	.LFB120:
  28              		.file 1 "../AithonLibrary/ChibiOS/os/hal/src/usb.c"
  29              		.loc 1 235 0
  30              		.cfi_startproc
  31              		@ args = 0, pretend = 0, frame = 0
  32              		@ frame_needed = 0, uses_anonymous_args = 0
  33              		@ link register save eliminated.
  34              		.loc 1 238 0
  35              		.loc 1 237 0
  36 0000 FFF7FEBF 		b	usb_lld_init
  37              	.LVL0:
  38              		.cfi_endproc
  39              	.LFE120:
  40              		.size	usbInit, .-usbInit
  41 0004 AFF30080 		.section	.text.usbObjectInit,"ax",%progbits
  41      AFF30080 
  41      AFF30080 
  42              		.align	2
  43              		.p2align 4,,15
  44              		.global	usbObjectInit
  45              		.thumb
  46              		.thumb_func
  47              		.type	usbObjectInit, %function
  48              	usbObjectInit:
  49              	.LFB121:
  50              		.loc 1 247 0
  51              		.cfi_startproc
  52              		@ args = 0, pretend = 0, frame = 0
  53              		@ frame_needed = 0, uses_anonymous_args = 0
  54              		@ link register save eliminated.
  55              	.LVL1:
ARM GAS  /var/folders/ng/s8655sgx1ys_4lf9jzm2w6n00000gn/T//ccvMYcKM.s 			page 2


  56              		.loc 1 251 0
  57 0000 0023     		movs	r3, #0
  58              		.loc 1 250 0
  59 0002 0122     		movs	r2, #1
  60 0004 0270     		strb	r2, [r0, #0]
  61              		.loc 1 251 0
  62 0006 4360     		str	r3, [r0, #4]
  63              	.LVL2:
  64              		.loc 1 253 0
  65 0008 C361     		str	r3, [r0, #28]
  66              		.loc 1 254 0
  67 000a 8362     		str	r3, [r0, #40]
  68              	.LVL3:
  69              		.loc 1 253 0
  70 000c 0362     		str	r3, [r0, #32]
  71              		.loc 1 254 0
  72 000e C362     		str	r3, [r0, #44]
  73              	.LVL4:
  74              		.loc 1 253 0
  75 0010 4362     		str	r3, [r0, #36]
  76              		.loc 1 254 0
  77 0012 0363     		str	r3, [r0, #48]
  78              	.LVL5:
  79              		.loc 1 256 0
  80 0014 0381     		strh	r3, [r0, #8]	@ movhi
  81              		.loc 1 257 0
  82 0016 4381     		strh	r3, [r0, #10]	@ movhi
  83 0018 7047     		bx	lr
  84              		.cfi_endproc
  85              	.LFE121:
  86              		.size	usbObjectInit, .-usbObjectInit
  87 001a 00BFAFF3 		.section	.text.usbStart,"ax",%progbits
  87      0080
  88              		.align	2
  89              		.p2align 4,,15
  90              		.global	usbStart
  91              		.thumb
  92              		.thumb_func
  93              		.type	usbStart, %function
  94              	usbStart:
  95              	.LFB122:
  96              		.loc 1 268 0
  97              		.cfi_startproc
  98              		@ args = 0, pretend = 0, frame = 0
  99              		@ frame_needed = 0, uses_anonymous_args = 0
 100              	.LVL6:
 101 0000 38B5     		push	{r3, r4, r5, lr}
 102              	.LCFI0:
 103              		.cfi_def_cfa_offset 16
 104              		.cfi_offset 3, -16
 105              		.cfi_offset 4, -12
 106              		.cfi_offset 5, -8
 107              		.cfi_offset 14, -4
 108              		.loc 1 268 0
 109 0002 0446     		mov	r4, r0
 110              	.LBB2:
 111              		.loc 1 273 0
ARM GAS  /var/folders/ng/s8655sgx1ys_4lf9jzm2w6n00000gn/T//ccvMYcKM.s 			page 3


 112 0004 2023     		movs	r3, #32
 113              	.LVL7:
 114              	@ 273 "../AithonLibrary/ChibiOS/os/hal/src/usb.c" 1
 115 0006 83F31188 		msr     BASEPRI, r3
 116              	@ 0 "" 2
 117              	.LVL8:
 118              		.thumb
 119              	.LBE2:
 120              		.loc 1 278 0
 121 000a 0025     		movs	r5, #0
 122              		.loc 1 276 0
 123 000c 4160     		str	r1, [r0, #4]
 124              	.LVL9:
 125              		.loc 1 278 0
 126 000e C560     		str	r5, [r0, #12]
 127              	.LVL10:
 128 0010 0561     		str	r5, [r0, #16]
 129              	.LVL11:
 130 0012 4561     		str	r5, [r0, #20]
 131              	.LVL12:
 132 0014 8561     		str	r5, [r0, #24]
 133              	.LVL13:
 134              		.loc 1 279 0
 135 0016 FFF7FEFF 		bl	usb_lld_start
 136              	.LVL14:
 137              		.loc 1 280 0
 138 001a 0223     		movs	r3, #2
 139 001c 2370     		strb	r3, [r4, #0]
 140              	.LBB3:
 141              		.loc 1 281 0
 142 001e 2B46     		mov	r3, r5
 143              	.LVL15:
 144              	@ 281 "../AithonLibrary/ChibiOS/os/hal/src/usb.c" 1
 145 0020 83F31188 		msr     BASEPRI, r3
 146              	@ 0 "" 2
 147              	.LVL16:
 148              		.thumb
 149 0024 38BD     		pop	{r3, r4, r5, pc}
 150              	.LBE3:
 151              		.cfi_endproc
 152              	.LFE122:
 153              		.size	usbStart, .-usbStart
 154 0026 00BFAFF3 		.section	.text.usbStop,"ax",%progbits
 154      0080AFF3 
 154      0080
 155              		.align	2
 156              		.p2align 4,,15
 157              		.global	usbStop
 158              		.thumb
 159              		.thumb_func
 160              		.type	usbStop, %function
 161              	usbStop:
 162              	.LFB123:
 163              		.loc 1 291 0
 164              		.cfi_startproc
 165              		@ args = 0, pretend = 0, frame = 0
 166              		@ frame_needed = 0, uses_anonymous_args = 0
ARM GAS  /var/folders/ng/s8655sgx1ys_4lf9jzm2w6n00000gn/T//ccvMYcKM.s 			page 4


 167              	.LVL17:
 168 0000 10B5     		push	{r4, lr}
 169              	.LCFI1:
 170              		.cfi_def_cfa_offset 8
 171              		.cfi_offset 4, -8
 172              		.cfi_offset 14, -4
 173              	.LBB4:
 174              		.loc 1 295 0
 175 0002 2023     		movs	r3, #32
 176              	.LVL18:
 177              	.LBE4:
 178              		.loc 1 291 0
 179 0004 0446     		mov	r4, r0
 180              	.LBB5:
 181              		.loc 1 295 0
 182              	@ 295 "../AithonLibrary/ChibiOS/os/hal/src/usb.c" 1
 183 0006 83F31188 		msr     BASEPRI, r3
 184              	@ 0 "" 2
 185              	.LVL19:
 186              		.thumb
 187              	.LBE5:
 188              		.loc 1 299 0
 189 000a FFF7FEFF 		bl	usb_lld_stop
 190              	.LVL20:
 191              		.loc 1 300 0
 192 000e 0123     		movs	r3, #1
 193 0010 2370     		strb	r3, [r4, #0]
 194              	.LBB6:
 195              		.loc 1 301 0
 196 0012 0023     		movs	r3, #0
 197              	.LVL21:
 198              	@ 301 "../AithonLibrary/ChibiOS/os/hal/src/usb.c" 1
 199 0014 83F31188 		msr     BASEPRI, r3
 200              	@ 0 "" 2
 201              	.LVL22:
 202              		.thumb
 203 0018 10BD     		pop	{r4, pc}
 204              	.LBE6:
 205              		.cfi_endproc
 206              	.LFE123:
 207              		.size	usbStop, .-usbStop
 208 001a 00BFAFF3 		.section	.text.usbInitEndpointI,"ax",%progbits
 208      0080
 209              		.align	2
 210              		.p2align 4,,15
 211              		.global	usbInitEndpointI
 212              		.thumb
 213              		.thumb_func
 214              		.type	usbInitEndpointI, %function
 215              	usbInitEndpointI:
 216              	.LFB124:
 217              		.loc 1 318 0
 218              		.cfi_startproc
 219              		@ args = 0, pretend = 0, frame = 0
 220              		@ frame_needed = 0, uses_anonymous_args = 0
 221              	.LVL23:
 222 0000 70B5     		push	{r4, r5, r6, lr}
ARM GAS  /var/folders/ng/s8655sgx1ys_4lf9jzm2w6n00000gn/T//ccvMYcKM.s 			page 5


 223              	.LCFI2:
 224              		.cfi_def_cfa_offset 16
 225              		.cfi_offset 4, -16
 226              		.cfi_offset 5, -12
 227              		.cfi_offset 6, -8
 228              		.cfi_offset 14, -4
 229              		.loc 1 318 0
 230 0002 0646     		mov	r6, r0
 231              		.loc 1 328 0
 232 0004 5069     		ldr	r0, [r2, #20]
 233              	.LVL24:
 234              		.loc 1 318 0
 235 0006 1446     		mov	r4, r2
 236 0008 0D46     		mov	r5, r1
 237              		.loc 1 328 0
 238 000a 18B1     		cbz	r0, .L6
 239              		.loc 1 329 0
 240 000c 0021     		movs	r1, #0
 241              	.LVL25:
 242 000e 1022     		movs	r2, #16
 243              	.LVL26:
 244 0010 FFF7FEFF 		bl	memset
 245              	.LVL27:
 246              	.L6:
 247              		.loc 1 330 0
 248 0014 A069     		ldr	r0, [r4, #24]
 249 0016 18B1     		cbz	r0, .L7
 250              		.loc 1 331 0
 251 0018 0021     		movs	r1, #0
 252 001a 1022     		movs	r2, #16
 253 001c FFF7FEFF 		bl	memset
 254              	.LVL28:
 255              	.L7:
 256              		.loc 1 333 0
 257 0020 06EB8503 		add	r3, r6, r5, lsl #2
 258              		.loc 1 336 0
 259 0024 3046     		mov	r0, r6
 260 0026 2946     		mov	r1, r5
 261              		.loc 1 333 0
 262 0028 DC60     		str	r4, [r3, #12]
 263              		.loc 1 337 0
 264 002a BDE87040 		pop	{r4, r5, r6, lr}
 265              		.loc 1 336 0
 266 002e FFF7FEBF 		b	usb_lld_init_endpoint
 267              	.LVL29:
 268              		.cfi_endproc
 269              	.LFE124:
 270              		.size	usbInitEndpointI, .-usbInitEndpointI
 271 0032 00BFAFF3 		.section	.text.usbDisableEndpointsI,"ax",%progbits
 271      0080AFF3 
 271      0080AFF3 
 271      0080
 272              		.align	2
 273              		.p2align 4,,15
 274              		.global	usbDisableEndpointsI
 275              		.thumb
 276              		.thumb_func
ARM GAS  /var/folders/ng/s8655sgx1ys_4lf9jzm2w6n00000gn/T//ccvMYcKM.s 			page 6


 277              		.type	usbDisableEndpointsI, %function
 278              	usbDisableEndpointsI:
 279              	.LFB125:
 280              		.loc 1 350 0
 281              		.cfi_startproc
 282              		@ args = 0, pretend = 0, frame = 0
 283              		@ frame_needed = 0, uses_anonymous_args = 0
 284              		@ link register save eliminated.
 285              	.LVL30:
 286 0000 10B4     		push	{r4}
 287              	.LCFI3:
 288              		.cfi_def_cfa_offset 4
 289              		.cfi_offset 4, -4
 290              		.loc 1 359 0
 291 0002 4189     		ldrh	r1, [r0, #10]
 292              		.loc 1 358 0
 293 0004 0489     		ldrh	r4, [r0, #8]
 294              		.loc 1 361 0
 295 0006 0022     		movs	r2, #0
 296              		.loc 1 358 0
 297 0008 24F00104 		bic	r4, r4, #1
 298              		.loc 1 359 0
 299 000c 21F00101 		bic	r1, r1, #1
 300              		.loc 1 361 0
 301 0010 0261     		str	r2, [r0, #16]
 302              		.loc 1 358 0
 303 0012 0481     		strh	r4, [r0, #8]	@ movhi
 304              		.loc 1 359 0
 305 0014 4181     		strh	r1, [r0, #10]	@ movhi
 306              	.LVL31:
 307              		.loc 1 361 0
 308 0016 4261     		str	r2, [r0, #20]
 309              	.LVL32:
 310 0018 8261     		str	r2, [r0, #24]
 311              	.LVL33:
 312              		.loc 1 365 0
 313 001a 10BC     		pop	{r4}
 314              		.loc 1 364 0
 315 001c FFF7FEBF 		b	usb_lld_disable_endpoints
 316              	.LVL34:
 317              		.cfi_endproc
 318              	.LFE125:
 319              		.size	usbDisableEndpointsI, .-usbDisableEndpointsI
 320              		.section	.text.usbPrepareReceive,"ax",%progbits
 321              		.align	2
 322              		.p2align 4,,15
 323              		.global	usbPrepareReceive
 324              		.thumb
 325              		.thumb_func
 326              		.type	usbPrepareReceive, %function
 327              	usbPrepareReceive:
 328              	.LFB126:
 329              		.loc 1 379 0
 330              		.cfi_startproc
 331              		@ args = 0, pretend = 0, frame = 0
 332              		@ frame_needed = 0, uses_anonymous_args = 0
 333              		@ link register save eliminated.
ARM GAS  /var/folders/ng/s8655sgx1ys_4lf9jzm2w6n00000gn/T//ccvMYcKM.s 			page 7


 334              	.LVL35:
 335 0000 30B4     		push	{r4, r5}
 336              	.LCFI4:
 337              		.cfi_def_cfa_offset 8
 338              		.cfi_offset 4, -8
 339              		.cfi_offset 5, -4
 340              		.loc 1 380 0
 341 0002 00EB8104 		add	r4, r0, r1, lsl #2
 342              		.loc 1 382 0
 343 0006 0025     		movs	r5, #0
 344              		.loc 1 380 0
 345 0008 E468     		ldr	r4, [r4, #12]
 346 000a A469     		ldr	r4, [r4, #24]
 347              	.LVL36:
 348              		.loc 1 382 0
 349 000c 2570     		strb	r5, [r4, #0]
 350              		.loc 1 383 0
 351 000e E260     		str	r2, [r4, #12]
 352              		.loc 1 384 0
 353 0010 6360     		str	r3, [r4, #4]
 354              		.loc 1 385 0
 355 0012 A560     		str	r5, [r4, #8]
 356              		.loc 1 388 0
 357 0014 30BC     		pop	{r4, r5}
 358              		.loc 1 387 0
 359 0016 FFF7FEBF 		b	usb_lld_prepare_receive
 360              	.LVL37:
 361              		.cfi_endproc
 362              	.LFE126:
 363              		.size	usbPrepareReceive, .-usbPrepareReceive
 364 001a 00BFAFF3 		.section	.text.usbPrepareTransmit,"ax",%progbits
 364      0080
 365              		.align	2
 366              		.p2align 4,,15
 367              		.global	usbPrepareTransmit
 368              		.thumb
 369              		.thumb_func
 370              		.type	usbPrepareTransmit, %function
 371              	usbPrepareTransmit:
 372              	.LFB127:
 373              		.loc 1 405 0
 374              		.cfi_startproc
 375              		@ args = 0, pretend = 0, frame = 0
 376              		@ frame_needed = 0, uses_anonymous_args = 0
 377              		@ link register save eliminated.
 378              	.LVL38:
 379 0000 30B4     		push	{r4, r5}
 380              	.LCFI5:
 381              		.cfi_def_cfa_offset 8
 382              		.cfi_offset 4, -8
 383              		.cfi_offset 5, -4
 384              		.loc 1 406 0
 385 0002 00EB8104 		add	r4, r0, r1, lsl #2
 386              		.loc 1 408 0
 387 0006 0025     		movs	r5, #0
 388              		.loc 1 406 0
 389 0008 E468     		ldr	r4, [r4, #12]
ARM GAS  /var/folders/ng/s8655sgx1ys_4lf9jzm2w6n00000gn/T//ccvMYcKM.s 			page 8


 390 000a 6469     		ldr	r4, [r4, #20]
 391              	.LVL39:
 392              		.loc 1 408 0
 393 000c 2570     		strb	r5, [r4, #0]
 394              		.loc 1 409 0
 395 000e E260     		str	r2, [r4, #12]
 396              		.loc 1 410 0
 397 0010 6360     		str	r3, [r4, #4]
 398              		.loc 1 411 0
 399 0012 A560     		str	r5, [r4, #8]
 400              		.loc 1 414 0
 401 0014 30BC     		pop	{r4, r5}
 402              		.loc 1 413 0
 403 0016 FFF7FEBF 		b	usb_lld_prepare_transmit
 404              	.LVL40:
 405              		.cfi_endproc
 406              	.LFE127:
 407              		.size	usbPrepareTransmit, .-usbPrepareTransmit
 408 001a 00BFAFF3 		.section	.text.usbPrepareQueuedReceive,"ax",%progbits
 408      0080
 409              		.align	2
 410              		.p2align 4,,15
 411              		.global	usbPrepareQueuedReceive
 412              		.thumb
 413              		.thumb_func
 414              		.type	usbPrepareQueuedReceive, %function
 415              	usbPrepareQueuedReceive:
 416              	.LFB128:
 417              		.loc 1 434 0
 418              		.cfi_startproc
 419              		@ args = 0, pretend = 0, frame = 0
 420              		@ frame_needed = 0, uses_anonymous_args = 0
 421              		@ link register save eliminated.
 422              	.LVL41:
 423 0000 30B4     		push	{r4, r5}
 424              	.LCFI6:
 425              		.cfi_def_cfa_offset 8
 426              		.cfi_offset 4, -8
 427              		.cfi_offset 5, -4
 428              		.loc 1 435 0
 429 0002 00EB8104 		add	r4, r0, r1, lsl #2
 430 0006 E568     		ldr	r5, [r4, #12]
 431 0008 AC69     		ldr	r4, [r5, #24]
 432              	.LVL42:
 433              		.loc 1 437 0
 434 000a 0125     		movs	r5, #1
 435              		.loc 1 439 0
 436 000c 6360     		str	r3, [r4, #4]
 437              		.loc 1 440 0
 438 000e 0023     		movs	r3, #0
 439              	.LVL43:
 440              		.loc 1 437 0
 441 0010 2570     		strb	r5, [r4, #0]
 442              		.loc 1 438 0
 443 0012 E260     		str	r2, [r4, #12]
 444              		.loc 1 440 0
 445 0014 A360     		str	r3, [r4, #8]
ARM GAS  /var/folders/ng/s8655sgx1ys_4lf9jzm2w6n00000gn/T//ccvMYcKM.s 			page 9


 446              		.loc 1 443 0
 447 0016 30BC     		pop	{r4, r5}
 448              		.loc 1 442 0
 449 0018 FFF7FEBF 		b	usb_lld_prepare_receive
 450              	.LVL44:
 451              		.cfi_endproc
 452              	.LFE128:
 453              		.size	usbPrepareQueuedReceive, .-usbPrepareQueuedReceive
 454 001c AFF30080 		.section	.text.usbPrepareQueuedTransmit,"ax",%progbits
 455              		.align	2
 456              		.p2align 4,,15
 457              		.global	usbPrepareQueuedTransmit
 458              		.thumb
 459              		.thumb_func
 460              		.type	usbPrepareQueuedTransmit, %function
 461              	usbPrepareQueuedTransmit:
 462              	.LFB129:
 463              		.loc 1 460 0
 464              		.cfi_startproc
 465              		@ args = 0, pretend = 0, frame = 0
 466              		@ frame_needed = 0, uses_anonymous_args = 0
 467              		@ link register save eliminated.
 468              	.LVL45:
 469 0000 30B4     		push	{r4, r5}
 470              	.LCFI7:
 471              		.cfi_def_cfa_offset 8
 472              		.cfi_offset 4, -8
 473              		.cfi_offset 5, -4
 474              		.loc 1 461 0
 475 0002 00EB8104 		add	r4, r0, r1, lsl #2
 476 0006 E568     		ldr	r5, [r4, #12]
 477 0008 6C69     		ldr	r4, [r5, #20]
 478              	.LVL46:
 479              		.loc 1 463 0
 480 000a 0125     		movs	r5, #1
 481              		.loc 1 465 0
 482 000c 6360     		str	r3, [r4, #4]
 483              		.loc 1 466 0
 484 000e 0023     		movs	r3, #0
 485              	.LVL47:
 486              		.loc 1 463 0
 487 0010 2570     		strb	r5, [r4, #0]
 488              		.loc 1 464 0
 489 0012 E260     		str	r2, [r4, #12]
 490              		.loc 1 466 0
 491 0014 A360     		str	r3, [r4, #8]
 492              		.loc 1 469 0
 493 0016 30BC     		pop	{r4, r5}
 494              		.loc 1 468 0
 495 0018 FFF7FEBF 		b	usb_lld_prepare_transmit
 496              	.LVL48:
 497              		.cfi_endproc
 498              	.LFE129:
 499              		.size	usbPrepareQueuedTransmit, .-usbPrepareQueuedTransmit
 500 001c AFF30080 		.section	.text.usbStartReceiveI,"ax",%progbits
 501              		.align	2
 502              		.p2align 4,,15
ARM GAS  /var/folders/ng/s8655sgx1ys_4lf9jzm2w6n00000gn/T//ccvMYcKM.s 			page 10


 503              		.global	usbStartReceiveI
 504              		.thumb
 505              		.thumb_func
 506              		.type	usbStartReceiveI, %function
 507              	usbStartReceiveI:
 508              	.LFB130:
 509              		.loc 1 485 0
 510              		.cfi_startproc
 511              		@ args = 0, pretend = 0, frame = 0
 512              		@ frame_needed = 0, uses_anonymous_args = 0
 513              	.LVL49:
 514 0000 70B5     		push	{r4, r5, r6, lr}
 515              	.LCFI8:
 516              		.cfi_def_cfa_offset 16
 517              		.cfi_offset 4, -16
 518              		.cfi_offset 5, -12
 519              		.cfi_offset 6, -8
 520              		.cfi_offset 14, -4
 521              		.loc 1 490 0
 522 0002 4489     		ldrh	r4, [r0, #10]
 523 0004 44FA01F3 		asr	r3, r4, r1
 524 0008 13F00106 		ands	r6, r3, #1
 525              		.loc 1 485 0
 526 000c 0D46     		mov	r5, r1
 527              		.loc 1 490 0
 528 000e 01D0     		beq	.L23
 529              		.loc 1 491 0
 530 0010 0120     		movs	r0, #1
 531              	.LVL50:
 532              		.loc 1 496 0
 533 0012 70BD     		pop	{r4, r5, r6, pc}
 534              	.LVL51:
 535              	.L23:
 536              		.loc 1 493 0
 537 0014 0123     		movs	r3, #1
 538 0016 03FA01F5 		lsl	r5, r3, r1
 539 001a 2C43     		orrs	r4, r4, r5
 540 001c 4481     		strh	r4, [r0, #10]	@ movhi
 541              		.loc 1 494 0
 542 001e FFF7FEFF 		bl	usb_lld_start_out
 543              	.LVL52:
 544              		.loc 1 495 0
 545 0022 3046     		mov	r0, r6
 546 0024 70BD     		pop	{r4, r5, r6, pc}
 547              		.cfi_endproc
 548              	.LFE130:
 549              		.size	usbStartReceiveI, .-usbStartReceiveI
 550 0026 00BFAFF3 		.section	.text.usbStartTransmitI,"ax",%progbits
 550      0080AFF3 
 550      0080
 551              		.align	2
 552              		.p2align 4,,15
 553              		.global	usbStartTransmitI
 554              		.thumb
 555              		.thumb_func
 556              		.type	usbStartTransmitI, %function
 557              	usbStartTransmitI:
ARM GAS  /var/folders/ng/s8655sgx1ys_4lf9jzm2w6n00000gn/T//ccvMYcKM.s 			page 11


 558              	.LFB131:
 559              		.loc 1 512 0
 560              		.cfi_startproc
 561              		@ args = 0, pretend = 0, frame = 0
 562              		@ frame_needed = 0, uses_anonymous_args = 0
 563              	.LVL53:
 564 0000 70B5     		push	{r4, r5, r6, lr}
 565              	.LCFI9:
 566              		.cfi_def_cfa_offset 16
 567              		.cfi_offset 4, -16
 568              		.cfi_offset 5, -12
 569              		.cfi_offset 6, -8
 570              		.cfi_offset 14, -4
 571              		.loc 1 517 0
 572 0002 0489     		ldrh	r4, [r0, #8]
 573 0004 44FA01F3 		asr	r3, r4, r1
 574 0008 13F00106 		ands	r6, r3, #1
 575              		.loc 1 512 0
 576 000c 0D46     		mov	r5, r1
 577              		.loc 1 517 0
 578 000e 01D0     		beq	.L27
 579              		.loc 1 518 0
 580 0010 0120     		movs	r0, #1
 581              	.LVL54:
 582              		.loc 1 523 0
 583 0012 70BD     		pop	{r4, r5, r6, pc}
 584              	.LVL55:
 585              	.L27:
 586              		.loc 1 520 0
 587 0014 0123     		movs	r3, #1
 588 0016 03FA01F5 		lsl	r5, r3, r1
 589 001a 2C43     		orrs	r4, r4, r5
 590 001c 0481     		strh	r4, [r0, #8]	@ movhi
 591              		.loc 1 521 0
 592 001e FFF7FEFF 		bl	usb_lld_start_in
 593              	.LVL56:
 594              		.loc 1 522 0
 595 0022 3046     		mov	r0, r6
 596 0024 70BD     		pop	{r4, r5, r6, pc}
 597              		.cfi_endproc
 598              	.LFE131:
 599              		.size	usbStartTransmitI, .-usbStartTransmitI
 600 0026 00BFAFF3 		.section	.text.usbStallReceiveI,"ax",%progbits
 600      0080AFF3 
 600      0080
 601              		.align	2
 602              		.p2align 4,,15
 603              		.global	usbStallReceiveI
 604              		.thumb
 605              		.thumb_func
 606              		.type	usbStallReceiveI, %function
 607              	usbStallReceiveI:
 608              	.LFB132:
 609              		.loc 1 537 0
 610              		.cfi_startproc
 611              		@ args = 0, pretend = 0, frame = 0
 612              		@ frame_needed = 0, uses_anonymous_args = 0
ARM GAS  /var/folders/ng/s8655sgx1ys_4lf9jzm2w6n00000gn/T//ccvMYcKM.s 			page 12


 613              	.LVL57:
 614              		.loc 1 542 0
 615 0000 4389     		ldrh	r3, [r0, #10]
 616 0002 43FA01F3 		asr	r3, r3, r1
 617              		.loc 1 537 0
 618 0006 10B5     		push	{r4, lr}
 619              	.LCFI10:
 620              		.cfi_def_cfa_offset 8
 621              		.cfi_offset 4, -8
 622              		.cfi_offset 14, -4
 623              		.loc 1 542 0
 624 0008 13F00104 		ands	r4, r3, #1
 625 000c 01D0     		beq	.L31
 626              		.loc 1 543 0
 627 000e 0120     		movs	r0, #1
 628              	.LVL58:
 629              		.loc 1 547 0
 630 0010 10BD     		pop	{r4, pc}
 631              	.LVL59:
 632              	.L31:
 633              		.loc 1 545 0
 634 0012 FFF7FEFF 		bl	usb_lld_stall_out
 635              	.LVL60:
 636              		.loc 1 546 0
 637 0016 2046     		mov	r0, r4
 638 0018 10BD     		pop	{r4, pc}
 639              		.cfi_endproc
 640              	.LFE132:
 641              		.size	usbStallReceiveI, .-usbStallReceiveI
 642 001a 00BFAFF3 		.section	.text.usbStallTransmitI,"ax",%progbits
 642      0080
 643              		.align	2
 644              		.p2align 4,,15
 645              		.global	usbStallTransmitI
 646              		.thumb
 647              		.thumb_func
 648              		.type	usbStallTransmitI, %function
 649              	usbStallTransmitI:
 650              	.LFB133:
 651              		.loc 1 561 0
 652              		.cfi_startproc
 653              		@ args = 0, pretend = 0, frame = 0
 654              		@ frame_needed = 0, uses_anonymous_args = 0
 655              	.LVL61:
 656              		.loc 1 566 0
 657 0000 0389     		ldrh	r3, [r0, #8]
 658 0002 43FA01F3 		asr	r3, r3, r1
 659              		.loc 1 561 0
 660 0006 10B5     		push	{r4, lr}
 661              	.LCFI11:
 662              		.cfi_def_cfa_offset 8
 663              		.cfi_offset 4, -8
 664              		.cfi_offset 14, -4
 665              		.loc 1 566 0
 666 0008 13F00104 		ands	r4, r3, #1
 667 000c 01D0     		beq	.L35
 668              		.loc 1 567 0
ARM GAS  /var/folders/ng/s8655sgx1ys_4lf9jzm2w6n00000gn/T//ccvMYcKM.s 			page 13


 669 000e 0120     		movs	r0, #1
 670              	.LVL62:
 671              		.loc 1 571 0
 672 0010 10BD     		pop	{r4, pc}
 673              	.LVL63:
 674              	.L35:
 675              		.loc 1 569 0
 676 0012 FFF7FEFF 		bl	usb_lld_stall_in
 677              	.LVL64:
 678              		.loc 1 570 0
 679 0016 2046     		mov	r0, r4
 680 0018 10BD     		pop	{r4, pc}
 681              		.cfi_endproc
 682              	.LFE133:
 683              		.size	usbStallTransmitI, .-usbStallTransmitI
 684 001a 00BFAFF3 		.section	.text._usb_reset,"ax",%progbits
 684      0080
 685              		.align	2
 686              		.p2align 4,,15
 687              		.global	_usb_reset
 688              		.thumb
 689              		.thumb_func
 690              		.type	_usb_reset, %function
 691              	_usb_reset:
 692              	.LFB134:
 693              		.loc 1 582 0
 694              		.cfi_startproc
 695              		@ args = 0, pretend = 0, frame = 0
 696              		@ frame_needed = 0, uses_anonymous_args = 0
 697              		@ link register save eliminated.
 698              	.LVL65:
 699 0000 10B4     		push	{r4}
 700              	.LCFI12:
 701              		.cfi_def_cfa_offset 4
 702              		.cfi_offset 4, -4
 703              		.loc 1 582 0
 704 0002 0346     		mov	r3, r0
 705              		.loc 1 586 0
 706 0004 0022     		movs	r2, #0
 707              		.loc 1 585 0
 708 0006 0224     		movs	r4, #2
 709 0008 0470     		strb	r4, [r0, #0]
 710              		.loc 1 586 0
 711 000a A0F84C20 		strh	r2, [r0, #76]	@ movhi
 712              		.loc 1 587 0
 713 000e 83F84E20 		strb	r2, [r3, #78]
 714              		.loc 1 588 0
 715 0012 80F84F20 		strb	r2, [r0, #79]
 716              		.loc 1 589 0
 717 0016 0281     		strh	r2, [r0, #8]	@ movhi
 718              		.loc 1 590 0
 719 0018 4281     		strh	r2, [r0, #10]	@ movhi
 720              	.LVL66:
 721              		.loc 1 594 0
 722 001a C260     		str	r2, [r0, #12]
 723              	.LVL67:
 724 001c 0261     		str	r2, [r0, #16]
ARM GAS  /var/folders/ng/s8655sgx1ys_4lf9jzm2w6n00000gn/T//ccvMYcKM.s 			page 14


 725              	.LVL68:
 726 001e 4261     		str	r2, [r0, #20]
 727              	.LVL69:
 728 0020 8261     		str	r2, [r0, #24]
 729              	.LVL70:
 730              		.loc 1 597 0
 731 0022 83F83420 		strb	r2, [r3, #52]
 732              		.loc 1 601 0
 733 0026 10BC     		pop	{r4}
 734              		.loc 1 600 0
 735 0028 FFF7FEBF 		b	usb_lld_reset
 736              	.LVL71:
 737              		.cfi_endproc
 738              	.LFE134:
 739              		.size	_usb_reset, .-_usb_reset
 740 002c AFF30080 		.section	.text._usb_ep0setup,"ax",%progbits
 741              		.align	2
 742              		.p2align 4,,15
 743              		.global	_usb_ep0setup
 744              		.thumb
 745              		.thumb_func
 746              		.type	_usb_ep0setup, %function
 747              	_usb_ep0setup:
 748              	.LFB135:
 749              		.loc 1 613 0
 750              		.cfi_startproc
 751              		@ args = 0, pretend = 0, frame = 0
 752              		@ frame_needed = 0, uses_anonymous_args = 0
 753              	.LVL72:
 754 0000 F8B5     		push	{r3, r4, r5, r6, r7, lr}
 755              	.LCFI13:
 756              		.cfi_def_cfa_offset 24
 757              		.cfi_offset 3, -24
 758              		.cfi_offset 4, -20
 759              		.cfi_offset 5, -16
 760              		.cfi_offset 6, -12
 761              		.cfi_offset 7, -8
 762              		.cfi_offset 14, -4
 763              		.loc 1 613 0
 764 0002 0446     		mov	r4, r0
 765              		.loc 1 616 0
 766 0004 0023     		movs	r3, #0
 767 0006 80F83430 		strb	r3, [r0, #52]
 768              		.loc 1 617 0
 769 000a 00F14402 		add	r2, r0, #68
 770 000e FFF7FEFF 		bl	usb_lld_read_setup
 771              	.LVL73:
 772              		.loc 1 621 0
 773 0012 6068     		ldr	r0, [r4, #4]
 774 0014 8168     		ldr	r1, [r0, #8]
 775 0016 41B3     		cbz	r1, .L42
 776              		.loc 1 622 0 discriminator 1
 777 0018 2046     		mov	r0, r4
 778 001a 8847     		blx	r1
 779              	.LVL74:
 780              		.loc 1 621 0 discriminator 1
 781 001c 28B3     		cbz	r0, .L42
ARM GAS  /var/folders/ng/s8655sgx1ys_4lf9jzm2w6n00000gn/T//ccvMYcKM.s 			page 15


 782 001e E56B     		ldr	r5, [r4, #60]
 783 0020 94F84430 		ldrb	r3, [r4, #68]	@ zero_extendqisi2
 784              	.L81:
 785              		.loc 1 641 0
 786 0024 94F84B10 		ldrb	r1, [r4, #75]	@ zero_extendqisi2
 787 0028 94F84A20 		ldrb	r2, [r4, #74]	@ zero_extendqisi2
 788 002c 42EA0120 		orr	r0, r2, r1, lsl #8
 789              	.LVL75:
 790              		.loc 1 643 0
 791 0030 A842     		cmp	r0, r5
 792              		.loc 1 644 0
 793 0032 3CBF     		itt	cc
 794 0034 0546     		movcc	r5, r0
 795 0036 E063     		strcc	r0, [r4, #60]
 796              		.loc 1 645 0
 797 0038 13F0800F 		tst	r3, #128
 798              		.loc 1 650 0
 799 003c 2B46     		mov	r3, r5
 800              		.loc 1 645 0
 801 003e 7DD1     		bne	.L106
 802              		.loc 1 667 0
 803 0040 002D     		cmp	r5, #0
 804 0042 68D1     		bne	.L107
 805              		.loc 1 678 0
 806 0044 0521     		movs	r1, #5
 807 0046 84F83410 		strb	r1, [r4, #52]
 808              		.loc 1 679 0
 809 004a 2046     		mov	r0, r4
 810              	.LVL76:
 811 004c 2946     		mov	r1, r5
 812 004e 2A46     		mov	r2, r5
 813              	.LVL77:
 814 0050 FFF7FEFF 		bl	usbPrepareTransmit
 815              	.LVL78:
 816              	.LBB19:
 817              		.loc 1 680 0
 818 0054 2023     		movs	r3, #32
 819              	.LVL79:
 820              	@ 680 "../AithonLibrary/ChibiOS/os/hal/src/usb.c" 1
 821 0056 83F31188 		msr     BASEPRI, r3
 822              	@ 0 "" 2
 823              	.LVL80:
 824              		.thumb
 825              	.LBE19:
 826              		.loc 1 681 0
 827 005a 2046     		mov	r0, r4
 828 005c 2946     		mov	r1, r5
 829 005e FFF7FEFF 		bl	usbStartTransmitI
 830              	.LVL81:
 831              	.LBB20:
 832              		.loc 1 682 0
 833 0062 2B46     		mov	r3, r5
 834              	.LVL82:
 835              	@ 682 "../AithonLibrary/ChibiOS/os/hal/src/usb.c" 1
 836 0064 83F31188 		msr     BASEPRI, r3
 837              	@ 0 "" 2
 838              	.LVL83:
ARM GAS  /var/folders/ng/s8655sgx1ys_4lf9jzm2w6n00000gn/T//ccvMYcKM.s 			page 16


 839              		.thumb
 840 0068 F8BD     		pop	{r3, r4, r5, r6, r7, pc}
 841              	.LVL84:
 842              	.L42:
 843              	.LBE20:
 844              		.loc 1 625 0
 845 006a 94F84430 		ldrb	r3, [r4, #68]	@ zero_extendqisi2
 846 006e 13F06007 		ands	r7, r3, #96
 847 0072 11D0     		beq	.L108
 848              	.L39:
 849              		.loc 1 630 0
 850 0074 0021     		movs	r1, #0
 851 0076 2046     		mov	r0, r4
 852 0078 FFF7FEFF 		bl	usb_lld_stall_in
 853              	.LVL85:
 854              		.loc 1 631 0
 855 007c 2046     		mov	r0, r4
 856 007e 0021     		movs	r1, #0
 857 0080 FFF7FEFF 		bl	usb_lld_stall_out
 858              	.LVL86:
 859              		.loc 1 632 0
 860 0084 6368     		ldr	r3, [r4, #4]
 861 0086 1A68     		ldr	r2, [r3, #0]
 862 0088 12B1     		cbz	r2, .L75
 863              		.loc 1 632 0 is_stmt 0 discriminator 1
 864 008a 2046     		mov	r0, r4
 865 008c 0521     		movs	r1, #5
 866 008e 9047     		blx	r2
 867              	.LVL87:
 868              	.L75:
 869              		.loc 1 633 0 is_stmt 1
 870 0090 0620     		movs	r0, #6
 871 0092 84F83400 		strb	r0, [r4, #52]
 872              		.loc 1 634 0
 873 0096 F8BD     		pop	{r3, r4, r5, r6, r7, pc}
 874              	.L108:
 875              	.LVL88:
 876              	.LBB21:
 877              	.LBB22:
 878              		.loc 1 95 0
 879 0098 94F84560 		ldrb	r6, [r4, #69]	@ zero_extendqisi2
 880              		.loc 1 93 0
 881 009c 03F07F02 		and	r2, r3, #127
 882              		.loc 1 94 0
 883 00a0 42EA0626 		orr	r6, r2, r6, lsl #8
 884              		.loc 1 93 0
 885 00a4 B6F5407F 		cmp	r6, #768
 886 00a8 00F0F980 		beq	.L49
 887 00ac 16DD     		ble	.L109
 888 00ae B6F5C06F 		cmp	r6, #1536
 889 00b2 00F08980 		beq	.L52
 890 00b6 68DD     		ble	.L110
 891 00b8 B6F5106F 		cmp	r6, #2304
 892 00bc 00F0B480 		beq	.L54
 893 00c0 40F60242 		movw	r2, #3074
 894 00c4 9642     		cmp	r6, r2
 895 00c6 78D0     		beq	.L45
ARM GAS  /var/folders/ng/s8655sgx1ys_4lf9jzm2w6n00000gn/T//ccvMYcKM.s 			page 17


 896 00c8 B6F5006F 		cmp	r6, #2048
 897 00cc D2D1     		bne	.L39
 898              		.loc 1 142 0
 899 00ce 0125     		movs	r5, #1
 900 00d0 04F14F00 		add	r0, r4, #79
 901 00d4 A063     		str	r0, [r4, #56]
 902 00d6 E563     		str	r5, [r4, #60]
 903 00d8 2764     		str	r7, [r4, #64]
 904 00da A3E7     		b	.L81
 905              	.L109:
 906              		.loc 1 93 0
 907 00dc 022E     		cmp	r6, #2
 908 00de 00F0B580 		beq	.L46
 909 00e2 65DD     		ble	.L111
 910 00e4 B6F5807F 		cmp	r6, #256
 911 00e8 00F08780 		beq	.L47
 912 00ec B6F5817F 		cmp	r6, #258
 913 00f0 C0D1     		bne	.L39
 914              		.loc 1 188 0
 915 00f2 94F84610 		ldrb	r1, [r4, #70]	@ zero_extendqisi2
 916 00f6 0029     		cmp	r1, #0
 917 00f8 BCD1     		bne	.L39
 918              		.loc 1 191 0
 919 00fa 94F84850 		ldrb	r5, [r4, #72]	@ zero_extendqisi2
 920 00fe 15F00F01 		ands	r1, r5, #15
 921 0102 50D0     		beq	.L73
 922              		.loc 1 192 0
 923 0104 2A06     		lsls	r2, r5, #24
 924              		.loc 1 193 0
 925 0106 2046     		mov	r0, r4
 926              		.loc 1 192 0
 927 0108 00F1FA80 		bmi	.L112
 928              	.LVL89:
 929              		.loc 1 195 0
 930 010c FFF7FEFF 		bl	usb_lld_clear_out
 931              	.LVL90:
 932 0110 94F84430 		ldrb	r3, [r4, #68]	@ zero_extendqisi2
 933 0114 47E0     		b	.L73
 934              	.LVL91:
 935              	.L107:
 936              	.LBE22:
 937              	.LBE21:
 938              		.loc 1 669 0
 939 0116 0422     		movs	r2, #4
 940 0118 84F83420 		strb	r2, [r4, #52]
 941              		.loc 1 670 0
 942 011c 2046     		mov	r0, r4
 943              	.LVL92:
 944 011e 0021     		movs	r1, #0
 945              	.LVL93:
 946 0120 A26B     		ldr	r2, [r4, #56]
 947 0122 FFF7FEFF 		bl	usbPrepareReceive
 948              	.LVL94:
 949              	.LBB26:
 950              		.loc 1 671 0
 951 0126 2023     		movs	r3, #32
 952              	.LVL95:
ARM GAS  /var/folders/ng/s8655sgx1ys_4lf9jzm2w6n00000gn/T//ccvMYcKM.s 			page 18


 953              	@ 671 "../AithonLibrary/ChibiOS/os/hal/src/usb.c" 1
 954 0128 83F31188 		msr     BASEPRI, r3
 955              	@ 0 "" 2
 956              	.LVL96:
 957              		.thumb
 958              	.LBE26:
 959              		.loc 1 672 0
 960 012c 0021     		movs	r1, #0
 961 012e 2046     		mov	r0, r4
 962 0130 FFF7FEFF 		bl	usbStartReceiveI
 963              	.LVL97:
 964              	.LBB27:
 965              		.loc 1 673 0
 966 0134 0023     		movs	r3, #0
 967              	.LVL98:
 968              	@ 673 "../AithonLibrary/ChibiOS/os/hal/src/usb.c" 1
 969 0136 83F31188 		msr     BASEPRI, r3
 970              	@ 0 "" 2
 971              	.LVL99:
 972              		.thumb
 973 013a F8BD     		pop	{r3, r4, r5, r6, r7, pc}
 974              	.LVL100:
 975              	.L106:
 976              	.LBE27:
 977              		.loc 1 647 0
 978 013c 95B1     		cbz	r5, .L79
 979              		.loc 1 649 0
 980 013e 0121     		movs	r1, #1
 981 0140 84F83410 		strb	r1, [r4, #52]
 982              		.loc 1 650 0
 983 0144 2046     		mov	r0, r4
 984              	.LVL101:
 985 0146 0021     		movs	r1, #0
 986 0148 A26B     		ldr	r2, [r4, #56]
 987              	.LVL102:
 988 014a FFF7FEFF 		bl	usbPrepareTransmit
 989              	.LVL103:
 990              	.LBB28:
 991              		.loc 1 651 0
 992 014e 2023     		movs	r3, #32
 993              	.LVL104:
 994              	@ 651 "../AithonLibrary/ChibiOS/os/hal/src/usb.c" 1
 995 0150 83F31188 		msr     BASEPRI, r3
 996              	@ 0 "" 2
 997              	.LVL105:
 998              		.thumb
 999              	.LBE28:
 1000              		.loc 1 652 0
 1001 0154 0021     		movs	r1, #0
 1002 0156 2046     		mov	r0, r4
 1003 0158 FFF7FEFF 		bl	usbStartTransmitI
 1004              	.LVL106:
 1005              	.LBB29:
 1006              		.loc 1 653 0
 1007 015c 0023     		movs	r3, #0
 1008              	.LVL107:
 1009              	@ 653 "../AithonLibrary/ChibiOS/os/hal/src/usb.c" 1
ARM GAS  /var/folders/ng/s8655sgx1ys_4lf9jzm2w6n00000gn/T//ccvMYcKM.s 			page 19


 1010 015e 83F31188 		msr     BASEPRI, r3
 1011              	@ 0 "" 2
 1012              	.LVL108:
 1013              		.thumb
 1014 0162 F8BD     		pop	{r3, r4, r5, r6, r7, pc}
 1015              	.LVL109:
 1016              	.L79:
 1017              	.LBE29:
 1018              		.loc 1 658 0
 1019 0164 0320     		movs	r0, #3
 1020              	.LVL110:
 1021 0166 84F83400 		strb	r0, [r4, #52]
 1022              		.loc 1 659 0
 1023 016a 2946     		mov	r1, r5
 1024              	.LVL111:
 1025 016c 2046     		mov	r0, r4
 1026 016e 2A46     		mov	r2, r5
 1027              	.LVL112:
 1028 0170 FFF7FEFF 		bl	usbPrepareReceive
 1029              	.LVL113:
 1030              	.LBB30:
 1031              		.loc 1 660 0
 1032 0174 2023     		movs	r3, #32
 1033              	.LVL114:
 1034              	@ 660 "../AithonLibrary/ChibiOS/os/hal/src/usb.c" 1
 1035 0176 83F31188 		msr     BASEPRI, r3
 1036              	@ 0 "" 2
 1037              	.LVL115:
 1038              		.thumb
 1039              	.LBE30:
 1040              		.loc 1 661 0
 1041 017a 2046     		mov	r0, r4
 1042 017c 2946     		mov	r1, r5
 1043 017e FFF7FEFF 		bl	usbStartReceiveI
 1044              	.LVL116:
 1045              	.LBB31:
 1046              		.loc 1 662 0
 1047 0182 2B46     		mov	r3, r5
 1048              	.LVL117:
 1049              	@ 662 "../AithonLibrary/ChibiOS/os/hal/src/usb.c" 1
 1050 0184 83F31188 		msr     BASEPRI, r3
 1051              	@ 0 "" 2
 1052              	.LVL118:
 1053              		.thumb
 1054 0188 F8BD     		pop	{r3, r4, r5, r6, r7, pc}
 1055              	.LVL119:
 1056              	.L110:
 1057              	.LBE31:
 1058              	.LBB32:
 1059              	.LBB25:
 1060              		.loc 1 93 0
 1061 018a 40F20230 		movw	r0, #770
 1062 018e 8642     		cmp	r6, r0
 1063 0190 73D0     		beq	.L50
 1064 0192 B6F5A06F 		cmp	r6, #1280
 1065 0196 7FF46DAF 		bne	.L39
 1066              		.loc 1 123 0
ARM GAS  /var/folders/ng/s8655sgx1ys_4lf9jzm2w6n00000gn/T//ccvMYcKM.s 			page 20


 1067 019a B4F84410 		ldrh	r1, [r4, #68]
 1068 019e B1F5A06F 		cmp	r1, #1280
 1069 01a2 00F09B80 		beq	.L113
 1070              	.L73:
 1071              		.loc 1 210 0
 1072 01a6 0025     		movs	r5, #0
 1073 01a8 A563     		str	r5, [r4, #56]
 1074 01aa E563     		str	r5, [r4, #60]
 1075 01ac 2564     		str	r5, [r4, #64]
 1076 01ae 39E7     		b	.L81
 1077              	.L111:
 1078              		.loc 1 93 0
 1079 01b0 002E     		cmp	r6, #0
 1080 01b2 32D0     		beq	.L44
 1081 01b4 012E     		cmp	r6, #1
 1082 01b6 7FF45DAF 		bne	.L39
 1083              	.L45:
 1084              		.loc 1 158 0
 1085 01ba 5649     		ldr	r1, .L116
 1086 01bc 0225     		movs	r5, #2
 1087 01be 0022     		movs	r2, #0
 1088 01c0 A163     		str	r1, [r4, #56]
 1089 01c2 E563     		str	r5, [r4, #60]
 1090 01c4 2264     		str	r2, [r4, #64]
 1091 01c6 2DE7     		b	.L81
 1092              	.L52:
 1093              		.loc 1 133 0
 1094 01c8 6068     		ldr	r0, [r4, #4]
 1095              		.loc 1 135 0
 1096 01ca 94F84960 		ldrb	r6, [r4, #73]	@ zero_extendqisi2
 1097              		.loc 1 133 0
 1098 01ce 94F84830 		ldrb	r3, [r4, #72]	@ zero_extendqisi2
 1099 01d2 4568     		ldr	r5, [r0, #4]
 1100 01d4 94F84710 		ldrb	r1, [r4, #71]	@ zero_extendqisi2
 1101 01d8 94F84620 		ldrb	r2, [r4, #70]	@ zero_extendqisi2
 1102 01dc 2046     		mov	r0, r4
 1103 01de 43EA0623 		orr	r3, r3, r6, lsl #8
 1104 01e2 A847     		blx	r5
 1105              	.LVL120:
 1106              		.loc 1 136 0
 1107 01e4 0028     		cmp	r0, #0
 1108 01e6 3FF445AF 		beq	.L39
 1109              		.loc 1 138 0
 1110 01ea 4168     		ldr	r1, [r0, #4]
 1111 01ec 0568     		ldr	r5, [r0, #0]
 1112 01ee 94F84430 		ldrb	r3, [r4, #68]	@ zero_extendqisi2
 1113 01f2 A163     		str	r1, [r4, #56]
 1114 01f4 E563     		str	r5, [r4, #60]
 1115 01f6 2764     		str	r7, [r4, #64]
 1116 01f8 14E7     		b	.L81
 1117              	.LVL121:
 1118              	.L47:
 1119              		.loc 1 103 0
 1120 01fa 94F84620 		ldrb	r2, [r4, #70]	@ zero_extendqisi2
 1121 01fe 012A     		cmp	r2, #1
 1122 0200 7FF438AF 		bne	.L39
 1123              		.loc 1 104 0
ARM GAS  /var/folders/ng/s8655sgx1ys_4lf9jzm2w6n00000gn/T//ccvMYcKM.s 			page 21


 1124 0204 B4F84C00 		ldrh	r0, [r4, #76]
 1125              		.loc 1 105 0
 1126 0208 A763     		str	r7, [r4, #56]
 1127              		.loc 1 104 0
 1128 020a 20F00201 		bic	r1, r0, #2
 1129 020e A4F84C10 		strh	r1, [r4, #76]	@ movhi
 1130              		.loc 1 105 0
 1131 0212 E763     		str	r7, [r4, #60]
 1132 0214 2764     		str	r7, [r4, #64]
 1133 0216 3D46     		mov	r5, r7
 1134 0218 04E7     		b	.L81
 1135              	.L44:
 1136              		.loc 1 98 0
 1137 021a 0225     		movs	r5, #2
 1138 021c 04F14C00 		add	r0, r4, #76
 1139 0220 A063     		str	r0, [r4, #56]
 1140 0222 E563     		str	r5, [r4, #60]
 1141 0224 2664     		str	r6, [r4, #64]
 1142 0226 FDE6     		b	.L81
 1143              	.L54:
 1144              		.loc 1 146 0
 1145 0228 94F84650 		ldrb	r5, [r4, #70]	@ zero_extendqisi2
 1146 022c 84F84F50 		strb	r5, [r4, #79]
 1147              		.loc 1 147 0
 1148 0230 002D     		cmp	r5, #0
 1149 0232 44D1     		bne	.L63
 1150              		.loc 1 148 0
 1151 0234 0321     		movs	r1, #3
 1152 0236 2170     		strb	r1, [r4, #0]
 1153              	.L64:
 1154              		.loc 1 151 0
 1155 0238 6268     		ldr	r2, [r4, #4]
 1156 023a 1568     		ldr	r5, [r2, #0]
 1157 023c 002D     		cmp	r5, #0
 1158 023e B2D0     		beq	.L73
 1159 0240 2046     		mov	r0, r4
 1160 0242 0221     		movs	r1, #2
 1161 0244 A847     		blx	r5
 1162              	.LVL122:
 1163 0246 94F84430 		ldrb	r3, [r4, #68]	@ zero_extendqisi2
 1164 024a ACE7     		b	.L73
 1165              	.L46:
 1166              		.loc 1 162 0
 1167 024c 94F84830 		ldrb	r3, [r4, #72]	@ zero_extendqisi2
 1168 0250 13F0800F 		tst	r3, #128
 1169              		.loc 1 163 0
 1170 0254 2046     		mov	r0, r4
 1171 0256 03F00F01 		and	r1, r3, #15
 1172              		.loc 1 162 0
 1173 025a 33D1     		bne	.L114
 1174              	.LVL123:
 1175              		.loc 1 175 0
 1176 025c FFF7FEFF 		bl	usb_lld_get_status_out
 1177              	.LVL124:
 1178 0260 0128     		cmp	r0, #1
 1179 0262 33D0     		beq	.L69
 1180              	.L105:
ARM GAS  /var/folders/ng/s8655sgx1ys_4lf9jzm2w6n00000gn/T//ccvMYcKM.s 			page 22


 1181 0264 0228     		cmp	r0, #2
 1182 0266 7FF405AF 		bne	.L39
 1183              		.loc 1 180 0
 1184 026a 2B4D     		ldr	r5, .L116+4
 1185 026c E063     		str	r0, [r4, #60]
 1186 026e A563     		str	r5, [r4, #56]
 1187 0270 2764     		str	r7, [r4, #64]
 1188 0272 94F84430 		ldrb	r3, [r4, #68]	@ zero_extendqisi2
 1189 0276 0546     		mov	r5, r0
 1190 0278 D4E6     		b	.L81
 1191              	.L50:
 1192              		.loc 1 201 0
 1193 027a 94F84610 		ldrb	r1, [r4, #70]	@ zero_extendqisi2
 1194 027e 0029     		cmp	r1, #0
 1195 0280 7FF4F8AE 		bne	.L39
 1196              		.loc 1 204 0
 1197 0284 94F84850 		ldrb	r5, [r4, #72]	@ zero_extendqisi2
 1198 0288 15F00F01 		ands	r1, r5, #15
 1199 028c 8BD0     		beq	.L73
 1200              		.loc 1 205 0
 1201 028e 2B06     		lsls	r3, r5, #24
 1202              		.loc 1 206 0
 1203 0290 2046     		mov	r0, r4
 1204              		.loc 1 205 0
 1205 0292 3AD4     		bmi	.L115
 1206              	.LVL125:
 1207              		.loc 1 208 0
 1208 0294 FFF7FEFF 		bl	usb_lld_stall_out
 1209              	.LVL126:
 1210 0298 94F84430 		ldrb	r3, [r4, #68]	@ zero_extendqisi2
 1211 029c 83E7     		b	.L73
 1212              	.L49:
 1213              		.loc 1 112 0
 1214 029e 94F84620 		ldrb	r2, [r4, #70]	@ zero_extendqisi2
 1215 02a2 012A     		cmp	r2, #1
 1216 02a4 7FF4E6AE 		bne	.L39
 1217              		.loc 1 113 0
 1218 02a8 B4F84C50 		ldrh	r5, [r4, #76]
 1219              		.loc 1 114 0
 1220 02ac A763     		str	r7, [r4, #56]
 1221              		.loc 1 113 0
 1222 02ae 45F00200 		orr	r0, r5, #2
 1223 02b2 A4F84C00 		strh	r0, [r4, #76]	@ movhi
 1224              		.loc 1 114 0
 1225 02b6 E763     		str	r7, [r4, #60]
 1226 02b8 2764     		str	r7, [r4, #64]
 1227 02ba 3D46     		mov	r5, r7
 1228 02bc B2E6     		b	.L81
 1229              	.L63:
 1230              		.loc 1 150 0
 1231 02be 0420     		movs	r0, #4
 1232 02c0 2070     		strb	r0, [r4, #0]
 1233 02c2 B9E7     		b	.L64
 1234              	.LVL127:
 1235              	.L114:
 1236              		.loc 1 163 0
 1237 02c4 FFF7FEFF 		bl	usb_lld_get_status_in
ARM GAS  /var/folders/ng/s8655sgx1ys_4lf9jzm2w6n00000gn/T//ccvMYcKM.s 			page 23


 1238              	.LVL128:
 1239 02c8 0128     		cmp	r0, #1
 1240 02ca CBD1     		bne	.L105
 1241              	.L69:
 1242              		.loc 1 177 0
 1243 02cc 134A     		ldr	r2, .L116+8
 1244 02ce E663     		str	r6, [r4, #60]
 1245 02d0 A263     		str	r2, [r4, #56]
 1246 02d2 2764     		str	r7, [r4, #64]
 1247 02d4 94F84430 		ldrb	r3, [r4, #68]	@ zero_extendqisi2
 1248 02d8 3546     		mov	r5, r6
 1249 02da A3E6     		b	.L81
 1250              	.L113:
 1251              	.LVL129:
 1252              	.LBB23:
 1253              	.LBB24:
 1254              		.loc 1 71 0
 1255 02dc 94F84630 		ldrb	r3, [r4, #70]	@ zero_extendqisi2
 1256              		.loc 1 72 0
 1257 02e0 2046     		mov	r0, r4
 1258              		.loc 1 71 0
 1259 02e2 84F84E30 		strb	r3, [r4, #78]
 1260              		.loc 1 72 0
 1261 02e6 FFF7FEFF 		bl	usb_lld_set_address
 1262              	.LVL130:
 1263              		.loc 1 73 0
 1264 02ea 6568     		ldr	r5, [r4, #4]
 1265 02ec 2A68     		ldr	r2, [r5, #0]
 1266 02ee 12B1     		cbz	r2, .L62
 1267 02f0 2046     		mov	r0, r4
 1268 02f2 0121     		movs	r1, #1
 1269 02f4 9047     		blx	r2
 1270              	.LVL131:
 1271              	.L62:
 1272              		.loc 1 74 0
 1273 02f6 0320     		movs	r0, #3
 1274 02f8 94F84430 		ldrb	r3, [r4, #68]	@ zero_extendqisi2
 1275 02fc 2070     		strb	r0, [r4, #0]
 1276 02fe 52E7     		b	.L73
 1277              	.LVL132:
 1278              	.L112:
 1279              	.LBE24:
 1280              	.LBE23:
 1281              		.loc 1 193 0
 1282 0300 FFF7FEFF 		bl	usb_lld_clear_in
 1283              	.LVL133:
 1284 0304 94F84430 		ldrb	r3, [r4, #68]	@ zero_extendqisi2
 1285 0308 4DE7     		b	.L73
 1286              	.LVL134:
 1287              	.L115:
 1288              		.loc 1 206 0
 1289 030a FFF7FEFF 		bl	usb_lld_stall_in
 1290              	.LVL135:
 1291 030e 94F84430 		ldrb	r3, [r4, #68]	@ zero_extendqisi2
 1292 0312 48E7     		b	.L73
 1293              	.L117:
 1294              		.align	2
ARM GAS  /var/folders/ng/s8655sgx1ys_4lf9jzm2w6n00000gn/T//ccvMYcKM.s 			page 24


 1295              	.L116:
 1296 0314 00000000 		.word	.LANCHOR0
 1297 0318 00000000 		.word	.LANCHOR2
 1298 031c 00000000 		.word	.LANCHOR1
 1299              	.LBE25:
 1300              	.LBE32:
 1301              		.cfi_endproc
 1302              	.LFE135:
 1303              		.size	_usb_ep0setup, .-_usb_ep0setup
 1304              		.section	.text._usb_ep0in,"ax",%progbits
 1305              		.align	2
 1306              		.p2align 4,,15
 1307              		.global	_usb_ep0in
 1308              		.thumb
 1309              		.thumb_func
 1310              		.type	_usb_ep0in, %function
 1311              	_usb_ep0in:
 1312              	.LFB136:
 1313              		.loc 1 697 0
 1314              		.cfi_startproc
 1315              		@ args = 0, pretend = 0, frame = 0
 1316              		@ frame_needed = 0, uses_anonymous_args = 0
 1317              	.LVL136:
 1318 0000 38B5     		push	{r3, r4, r5, lr}
 1319              	.LCFI14:
 1320              		.cfi_def_cfa_offset 16
 1321              		.cfi_offset 3, -16
 1322              		.cfi_offset 4, -12
 1323              		.cfi_offset 5, -8
 1324              		.cfi_offset 14, -4
 1325              		.loc 1 701 0
 1326 0002 90F83430 		ldrb	r3, [r0, #52]	@ zero_extendqisi2
 1327 0006 022B     		cmp	r3, #2
 1328              		.loc 1 697 0
 1329 0008 0446     		mov	r4, r0
 1330              		.loc 1 701 0
 1331 000a 24D0     		beq	.L121
 1332 000c 052B     		cmp	r3, #5
 1333 000e 36D0     		beq	.L122
 1334 0010 012B     		cmp	r3, #1
 1335 0012 10D0     		beq	.L136
 1336              		.loc 1 736 0
 1337 0014 0021     		movs	r1, #0
 1338              	.LVL137:
 1339 0016 FFF7FEFF 		bl	usb_lld_stall_in
 1340              	.LVL138:
 1341              		.loc 1 737 0
 1342 001a 2046     		mov	r0, r4
 1343 001c 0021     		movs	r1, #0
 1344 001e FFF7FEFF 		bl	usb_lld_stall_out
 1345              	.LVL139:
 1346              		.loc 1 738 0
 1347 0022 6068     		ldr	r0, [r4, #4]
 1348 0024 0268     		ldr	r2, [r0, #0]
 1349 0026 12B1     		cbz	r2, .L125
 1350              		.loc 1 738 0 is_stmt 0 discriminator 1
 1351 0028 2046     		mov	r0, r4
ARM GAS  /var/folders/ng/s8655sgx1ys_4lf9jzm2w6n00000gn/T//ccvMYcKM.s 			page 25


 1352 002a 0521     		movs	r1, #5
 1353 002c 9047     		blx	r2
 1354              	.LVL140:
 1355              	.L125:
 1356              		.loc 1 739 0 is_stmt 1
 1357 002e 0621     		movs	r1, #6
 1358 0030 84F83410 		strb	r1, [r4, #52]
 1359 0034 38BD     		pop	{r3, r4, r5, pc}
 1360              	.LVL141:
 1361              	.L136:
 1362              		.loc 1 703 0
 1363 0036 90F84B10 		ldrb	r1, [r0, #75]	@ zero_extendqisi2
 1364              	.LVL142:
 1365 003a 90F84A30 		ldrb	r3, [r0, #74]	@ zero_extendqisi2
 1366              		.loc 1 707 0
 1367 003e C26B     		ldr	r2, [r0, #60]
 1368              		.loc 1 703 0
 1369 0040 43EA0121 		orr	r1, r3, r1, lsl #8
 1370              		.loc 1 707 0
 1371 0044 9142     		cmp	r1, r2
 1372 0046 06D9     		bls	.L121
 1373              		.loc 1 707 0 is_stmt 0 discriminator 1
 1374 0048 C568     		ldr	r5, [r0, #12]
 1375 004a 2B8A     		ldrh	r3, [r5, #16]
 1376 004c B2FBF3F1 		udiv	r1, r2, r3
 1377 0050 03FB1125 		mls	r5, r3, r1, r2
 1378 0054 D5B1     		cbz	r5, .L137
 1379              	.LVL143:
 1380              	.L121:
 1381              		.loc 1 719 0 is_stmt 1
 1382 0056 0021     		movs	r1, #0
 1383              		.loc 1 718 0
 1384 0058 0320     		movs	r0, #3
 1385              	.LVL144:
 1386              		.loc 1 719 0
 1387 005a 0B46     		mov	r3, r1
 1388              		.loc 1 718 0
 1389 005c 84F83400 		strb	r0, [r4, #52]
 1390              		.loc 1 719 0
 1391 0060 0A46     		mov	r2, r1
 1392 0062 2046     		mov	r0, r4
 1393 0064 FFF7FEFF 		bl	usbPrepareReceive
 1394              	.LVL145:
 1395              	.LBB33:
 1396              		.loc 1 720 0
 1397 0068 2023     		movs	r3, #32
 1398              	.LVL146:
 1399              	@ 720 "../AithonLibrary/ChibiOS/os/hal/src/usb.c" 1
 1400 006a 83F31188 		msr     BASEPRI, r3
 1401              	@ 0 "" 2
 1402              	.LVL147:
 1403              		.thumb
 1404              	.LBE33:
 1405              		.loc 1 721 0
 1406 006e 0021     		movs	r1, #0
 1407 0070 2046     		mov	r0, r4
 1408 0072 FFF7FEFF 		bl	usbStartReceiveI
ARM GAS  /var/folders/ng/s8655sgx1ys_4lf9jzm2w6n00000gn/T//ccvMYcKM.s 			page 26


 1409              	.LVL148:
 1410              	.LBB34:
 1411              		.loc 1 722 0
 1412 0076 0023     		movs	r3, #0
 1413              	.LVL149:
 1414              	@ 722 "../AithonLibrary/ChibiOS/os/hal/src/usb.c" 1
 1415 0078 83F31188 		msr     BASEPRI, r3
 1416              	@ 0 "" 2
 1417              	.LVL150:
 1418              		.thumb
 1419              	.LBE34:
 1420              		.loc 1 723 0
 1421 007c 38BD     		pop	{r3, r4, r5, pc}
 1422              	.LVL151:
 1423              	.L122:
 1424              		.loc 1 726 0
 1425 007e 026C     		ldr	r2, [r0, #64]
 1426 0080 02B1     		cbz	r2, .L124
 1427              		.loc 1 727 0
 1428 0082 9047     		blx	r2
 1429              	.LVL152:
 1430              	.L124:
 1431              		.loc 1 728 0
 1432 0084 0023     		movs	r3, #0
 1433 0086 84F83430 		strb	r3, [r4, #52]
 1434              		.loc 1 729 0
 1435 008a 38BD     		pop	{r3, r4, r5, pc}
 1436              	.LVL153:
 1437              	.L137:
 1438              		.loc 1 708 0
 1439 008c 2B46     		mov	r3, r5
 1440 008e 2946     		mov	r1, r5
 1441 0090 2A46     		mov	r2, r5
 1442 0092 FFF7FEFF 		bl	usbPrepareTransmit
 1443              	.LVL154:
 1444              	.LBB35:
 1445              		.loc 1 709 0
 1446 0096 2023     		movs	r3, #32
 1447              	.LVL155:
 1448              	@ 709 "../AithonLibrary/ChibiOS/os/hal/src/usb.c" 1
 1449 0098 83F31188 		msr     BASEPRI, r3
 1450              	@ 0 "" 2
 1451              	.LVL156:
 1452              		.thumb
 1453              	.LBE35:
 1454              		.loc 1 710 0
 1455 009c 2046     		mov	r0, r4
 1456 009e 2946     		mov	r1, r5
 1457 00a0 FFF7FEFF 		bl	usbStartTransmitI
 1458              	.LVL157:
 1459              	.LBB36:
 1460              		.loc 1 711 0
 1461 00a4 2B46     		mov	r3, r5
 1462              	.LVL158:
 1463              	@ 711 "../AithonLibrary/ChibiOS/os/hal/src/usb.c" 1
 1464 00a6 83F31188 		msr     BASEPRI, r3
 1465              	@ 0 "" 2
ARM GAS  /var/folders/ng/s8655sgx1ys_4lf9jzm2w6n00000gn/T//ccvMYcKM.s 			page 27


 1466              	.LVL159:
 1467              		.thumb
 1468              	.LBE36:
 1469              		.loc 1 712 0
 1470 00aa 0220     		movs	r0, #2
 1471 00ac 84F83400 		strb	r0, [r4, #52]
 1472              		.loc 1 713 0
 1473 00b0 38BD     		pop	{r3, r4, r5, pc}
 1474              		.cfi_endproc
 1475              	.LFE136:
 1476              		.size	_usb_ep0in, .-_usb_ep0in
 1477 00b2 00BFAFF3 		.section	.text._usb_ep0out,"ax",%progbits
 1477      0080AFF3 
 1477      0080AFF3 
 1477      0080
 1478              		.align	2
 1479              		.p2align 4,,15
 1480              		.global	_usb_ep0out
 1481              		.thumb
 1482              		.thumb_func
 1483              		.type	_usb_ep0out, %function
 1484              	_usb_ep0out:
 1485              	.LFB137:
 1486              		.loc 1 752 0
 1487              		.cfi_startproc
 1488              		@ args = 0, pretend = 0, frame = 0
 1489              		@ frame_needed = 0, uses_anonymous_args = 0
 1490              	.LVL160:
 1491              		.loc 1 755 0
 1492 0000 90F83430 		ldrb	r3, [r0, #52]	@ zero_extendqisi2
 1493 0004 032B     		cmp	r3, #3
 1494              		.loc 1 752 0
 1495 0006 10B5     		push	{r4, lr}
 1496              	.LCFI15:
 1497              		.cfi_def_cfa_offset 8
 1498              		.cfi_offset 4, -8
 1499              		.cfi_offset 14, -4
 1500              		.loc 1 752 0
 1501 0008 0446     		mov	r4, r0
 1502              		.loc 1 755 0
 1503 000a 26D0     		beq	.L140
 1504 000c 042B     		cmp	r3, #4
 1505 000e 11D0     		beq	.L151
 1506              	.LVL161:
 1507              	.L139:
 1508              		.loc 1 779 0
 1509 0010 0021     		movs	r1, #0
 1510 0012 2046     		mov	r0, r4
 1511              	.LVL162:
 1512 0014 FFF7FEFF 		bl	usb_lld_stall_in
 1513              	.LVL163:
 1514              		.loc 1 780 0
 1515 0018 2046     		mov	r0, r4
 1516 001a 0021     		movs	r1, #0
 1517 001c FFF7FEFF 		bl	usb_lld_stall_out
 1518              	.LVL164:
 1519              		.loc 1 781 0
ARM GAS  /var/folders/ng/s8655sgx1ys_4lf9jzm2w6n00000gn/T//ccvMYcKM.s 			page 28


 1520 0020 6368     		ldr	r3, [r4, #4]
 1521 0022 1A68     		ldr	r2, [r3, #0]
 1522 0024 12B1     		cbz	r2, .L144
 1523              		.loc 1 781 0 is_stmt 0 discriminator 1
 1524 0026 2046     		mov	r0, r4
 1525 0028 0521     		movs	r1, #5
 1526 002a 9047     		blx	r2
 1527              	.LVL165:
 1528              	.L144:
 1529              		.loc 1 782 0 is_stmt 1
 1530 002c 0621     		movs	r1, #6
 1531 002e 84F83410 		strb	r1, [r4, #52]
 1532 0032 10BD     		pop	{r4, pc}
 1533              	.LVL166:
 1534              	.L151:
 1535              		.loc 1 759 0
 1536 0034 0021     		movs	r1, #0
 1537              	.LVL167:
 1538              		.loc 1 758 0
 1539 0036 0522     		movs	r2, #5
 1540              		.loc 1 759 0
 1541 0038 0B46     		mov	r3, r1
 1542              		.loc 1 758 0
 1543 003a 80F83420 		strb	r2, [r0, #52]
 1544              		.loc 1 759 0
 1545 003e 0A46     		mov	r2, r1
 1546 0040 FFF7FEFF 		bl	usbPrepareTransmit
 1547              	.LVL168:
 1548              	.LBB37:
 1549              		.loc 1 760 0
 1550 0044 2023     		movs	r3, #32
 1551              	.LVL169:
 1552              	@ 760 "../AithonLibrary/ChibiOS/os/hal/src/usb.c" 1
 1553 0046 83F31188 		msr     BASEPRI, r3
 1554              	@ 0 "" 2
 1555              	.LVL170:
 1556              		.thumb
 1557              	.LBE37:
 1558              		.loc 1 761 0
 1559 004a 0021     		movs	r1, #0
 1560 004c 2046     		mov	r0, r4
 1561 004e FFF7FEFF 		bl	usbStartTransmitI
 1562              	.LVL171:
 1563              	.LBB38:
 1564              		.loc 1 762 0
 1565 0052 0023     		movs	r3, #0
 1566              	.LVL172:
 1567              	@ 762 "../AithonLibrary/ChibiOS/os/hal/src/usb.c" 1
 1568 0054 83F31188 		msr     BASEPRI, r3
 1569              	@ 0 "" 2
 1570              	.LVL173:
 1571              		.thumb
 1572              	.LBE38:
 1573              		.loc 1 763 0
 1574 0058 10BD     		pop	{r4, pc}
 1575              	.LVL174:
 1576              	.L140:
ARM GAS  /var/folders/ng/s8655sgx1ys_4lf9jzm2w6n00000gn/T//ccvMYcKM.s 			page 29


 1577              		.loc 1 767 0
 1578 005a C168     		ldr	r1, [r0, #12]
 1579              	.LVL175:
 1580 005c 8B69     		ldr	r3, [r1, #24]
 1581 005e 9A68     		ldr	r2, [r3, #8]
 1582 0060 002A     		cmp	r2, #0
 1583 0062 D5D1     		bne	.L139
 1584              		.loc 1 769 0
 1585 0064 016C     		ldr	r1, [r0, #64]
 1586 0066 01B1     		cbz	r1, .L143
 1587              		.loc 1 770 0
 1588 0068 8847     		blx	r1
 1589              	.LVL176:
 1590              	.L143:
 1591              		.loc 1 771 0
 1592 006a 0020     		movs	r0, #0
 1593 006c 84F83400 		strb	r0, [r4, #52]
 1594              		.loc 1 772 0
 1595 0070 10BD     		pop	{r4, pc}
 1596              		.cfi_endproc
 1597              	.LFE137:
 1598              		.size	_usb_ep0out, .-_usb_ep0out
 1599 0072 00BFAFF3 		.section	.rodata.zero_status,"a",%progbits
 1599      0080AFF3 
 1599      0080AFF3 
 1599      0080
 1600              		.align	2
 1601              		.set	.LANCHOR0,. + 0
 1602              		.type	zero_status, %object
 1603              		.size	zero_status, 2
 1604              	zero_status:
 1605 0000 0000     		.space	2
 1606 0002 0000     		.section	.rodata.active_status,"a",%progbits
 1607              		.align	2
 1608              		.set	.LANCHOR2,. + 0
 1609              		.type	active_status, %object
 1610              		.size	active_status, 2
 1611              	active_status:
 1612 0000 0000     		.space	2
 1613 0002 0000     		.section	.rodata.halted_status,"a",%progbits
 1614              		.align	2
 1615              		.set	.LANCHOR1,. + 0
 1616              		.type	halted_status, %object
 1617              		.size	halted_status, 2
 1618              	halted_status:
 1619 0000 01       		.byte	1
 1620 0001 00       		.byte	0
 1621 0002 0000     		.text
 1622              	.Letext0:
 1623              		.file 2 "/Users/jseng/gccarm/bin/../lib/gcc/arm-none-eabi/4.7.4/include/stddef.h"
 1624              		.file 3 "/Users/jseng/gccarm/bin/../lib/gcc/arm-none-eabi/4.7.4/../../../../arm-none-eabi/include/
 1625              		.file 4 "../AithonLibrary/ChibiOS/os/ports/GCC/ARMCMx/chtypes.h"
 1626              		.file 5 "../AithonLibrary/ChibiOS/os/kernel/include/chlists.h"
 1627              		.file 6 "../AithonLibrary/ChibiOS/os/kernel/include/chthreads.h"
 1628              		.file 7 "../AithonLibrary/ChibiOS/os/ports/GCC/ARMCMx/chcore_v7m.h"
 1629              		.file 8 "../AithonLibrary/ChibiOS/os/kernel/include/chmtx.h"
 1630              		.file 9 "../AithonLibrary/ChibiOS/os/kernel/include/chqueues.h"
ARM GAS  /var/folders/ng/s8655sgx1ys_4lf9jzm2w6n00000gn/T//ccvMYcKM.s 			page 30


 1631              		.file 10 "../AithonLibrary/ChibiOS/os/hal/include/usb.h"
 1632              		.file 11 "../AithonLibrary/ChibiOS/os/hal/platforms/STM32/OTGv1/usb_lld.h"
 1633              		.file 12 "../AithonLibrary/ChibiOS/os/hal/platforms/STM32/OTGv1/stm32_otg.h"
 1634              		.file 13 "../AithonLibrary/ChibiOS/os/ports/common/ARMCMx/CMSIS/include/core_cm4.h"