ARM GAS  /var/folders/ng/s8655sgx1ys_4lf9jzm2w6n00000gn/T//ccNSZnWF.s 			page 1


   1              		.syntax unified
   2              		.cpu cortex-m4
   3              		.eabi_attribute 27, 3
   4              		.fpu fpv4-sp-d16
   5              		.eabi_attribute 20, 1
   6              		.eabi_attribute 21, 1
   7              		.eabi_attribute 23, 3
   8              		.eabi_attribute 24, 1
   9              		.eabi_attribute 25, 1
  10              		.eabi_attribute 26, 1
  11              		.eabi_attribute 30, 2
  12              		.eabi_attribute 34, 1
  13              		.eabi_attribute 18, 4
  14              		.thumb
  15              		.file	"usb_lld.c"
  16              		.text
  17              	.Ltext0:
  18              		.cfi_sections	.debug_frame
  19              		.section	.text.otg_disable_ep,"ax",%progbits
  20              		.align	2
  21              		.p2align 4,,15
  22              		.thumb
  23              		.thumb_func
  24              		.type	otg_disable_ep, %function
  25              	otg_disable_ep:
  26              	.LFB120:
  27              		.file 1 "../AithonLibrary/ChibiOS/os/hal/platforms/STM32/OTGv1/usb_lld.c"
  28              		.loc 1 145 0
  29              		.cfi_startproc
  30              		@ args = 0, pretend = 0, frame = 0
  31              		@ frame_needed = 0, uses_anonymous_args = 0
  32              		@ link register save eliminated.
  33              	.LVL0:
  34 0000 416D     		ldr	r1, [r0, #84]
  35              		.loc 1 146 0
  36 0002 036D     		ldr	r3, [r0, #80]
  37              	.LVL1:
  38              		.loc 1 149 0
  39 0004 0022     		movs	r2, #0
  40              		.loc 1 145 0
  41 0006 2DE9F001 		push	{r4, r5, r6, r7, r8}
  42              	.LCFI0:
  43              		.cfi_def_cfa_offset 20
  44              		.cfi_offset 4, -20
  45              		.cfi_offset 5, -16
  46              		.cfi_offset 6, -12
  47              		.cfi_offset 7, -8
  48              		.cfi_offset 8, -4
  49              		.loc 1 160 0
  50 000a 1046     		mov	r0, r2
  51              	.LVL2:
  52 000c 8F68     		ldr	r7, [r1, #8]
  53              		.loc 1 154 0
  54 000e 4FF0804C 		mov	ip, #1073741824
  55              		.loc 1 162 0
  56 0012 4FF0FF36 		mov	r6, #-1
  57 0016 17E0     		b	.L8
ARM GAS  /var/folders/ng/s8655sgx1ys_4lf9jzm2w6n00000gn/T//ccNSZnWF.s 			page 2


  58              	.LVL3:
  59              	.L2:
  60              		.loc 1 160 0
  61 0018 5850     		str	r0, [r3, r1]
  62 001a 5501     		lsls	r5, r2, #5
  63              	.L4:
  64              		.loc 1 161 0
  65 001c 5C19     		adds	r4, r3, r5
  66              		.loc 1 168 0
  67 001e 02F15801 		add	r1, r2, #88
  68 0022 4901     		lsls	r1, r1, #5
  69              		.loc 1 161 0
  70 0024 C4F81009 		str	r0, [r4, #2320]
  71              		.loc 1 162 0
  72 0028 C4F80869 		str	r6, [r4, #2312]
  73              		.loc 1 168 0
  74 002c 53F80180 		ldr	r8, [r3, r1]
  75 0030 B8F1000F 		cmp	r8, #0
  76 0034 17DB     		blt	.L19
  77              		.loc 1 175 0
  78 0036 5850     		str	r0, [r3, r1]
  79              	.L7:
  80              		.loc 1 176 0
  81 0038 5D19     		adds	r5, r3, r5
  82              		.loc 1 149 0
  83 003a 0132     		adds	r2, r2, #1
  84              	.LVL4:
  85 003c BA42     		cmp	r2, r7
  86              		.loc 1 176 0
  87 003e C5F8100B 		str	r0, [r5, #2832]
  88              		.loc 1 177 0
  89 0042 C5F8086B 		str	r6, [r5, #2824]
  90              		.loc 1 149 0
  91 0046 15D8     		bhi	.L20
  92              	.LVL5:
  93              	.L8:
  94              		.loc 1 153 0
  95 0048 02F14804 		add	r4, r2, #72
  96 004c 6101     		lsls	r1, r4, #5
  97 004e 5D58     		ldr	r5, [r3, r1]
  98 0050 002D     		cmp	r5, #0
  99 0052 E1DA     		bge	.L2
 100 0054 5501     		lsls	r5, r2, #5
 101              		.loc 1 154 0
 102 0056 43F801C0 		str	ip, [r3, r1]
 103              		.loc 1 156 0
 104 005a 5C19     		adds	r4, r3, r5
 105              	.L3:
 106              		.loc 1 156 0 is_stmt 0 discriminator 1
 107 005c D4F80819 		ldr	r1, [r4, #2312]
 108 0060 8907     		lsls	r1, r1, #30
 109 0062 FBD5     		bpl	.L3
 110 0064 DAE7     		b	.L4
 111              	.L19:
 112              		.loc 1 169 0 is_stmt 1
 113 0066 43F801C0 		str	ip, [r3, r1]
 114              	.L6:
ARM GAS  /var/folders/ng/s8655sgx1ys_4lf9jzm2w6n00000gn/T//ccNSZnWF.s 			page 3


 115              		.loc 1 171 0 discriminator 1
 116 006a D4F8081B 		ldr	r1, [r4, #2824]
 117 006e C906     		lsls	r1, r1, #27
 118 0070 FBD5     		bpl	.L6
 119 0072 E1E7     		b	.L7
 120              	.LVL6:
 121              	.L20:
 122              		.loc 1 179 0
 123 0074 4FF00110 		mov	r0, #65537
 124 0078 C3F81C08 		str	r0, [r3, #2076]
 125              		.loc 1 180 0
 126 007c BDE8F001 		pop	{r4, r5, r6, r7, r8}
 127 0080 7047     		bx	lr
 128              		.cfi_endproc
 129              	.LFE120:
 130              		.size	otg_disable_ep, .-otg_disable_ep
 131 0082 00BFAFF3 		.section	.text.otg_epout_handler,"ax",%progbits
 131      0080AFF3 
 131      0080AFF3 
 131      0080
 132              		.align	2
 133              		.p2align 4,,15
 134              		.thumb
 135              		.thumb_func
 136              		.type	otg_epout_handler, %function
 137              	otg_epout_handler:
 138              	.LFB134:
 139              		.loc 1 580 0
 140              		.cfi_startproc
 141              		@ args = 0, pretend = 0, frame = 0
 142              		@ frame_needed = 0, uses_anonymous_args = 0
 143              	.LVL7:
 144 0000 F8B5     		push	{r3, r4, r5, r6, r7, lr}
 145              	.LCFI1:
 146              		.cfi_def_cfa_offset 24
 147              		.cfi_offset 3, -24
 148              		.cfi_offset 4, -20
 149              		.cfi_offset 5, -16
 150              		.cfi_offset 6, -12
 151              		.cfi_offset 7, -8
 152              		.cfi_offset 14, -4
 153              		.loc 1 581 0
 154 0002 056D     		ldr	r5, [r0, #80]
 155              	.LVL8:
 156              		.loc 1 582 0
 157 0004 05EB4113 		add	r3, r5, r1, lsl #5
 158              		.loc 1 580 0
 159 0008 0646     		mov	r6, r0
 160              		.loc 1 582 0
 161 000a D3F8084B 		ldr	r4, [r3, #2824]
 162              	.LVL9:
 163              		.loc 1 585 0
 164 000e C3F8084B 		str	r4, [r3, #2824]
 165              		.loc 1 587 0
 166 0012 2307     		lsls	r3, r4, #28
 167              		.loc 1 580 0
 168 0014 0F46     		mov	r7, r1
ARM GAS  /var/folders/ng/s8655sgx1ys_4lf9jzm2w6n00000gn/T//ccNSZnWF.s 			page 4


 169              		.loc 1 587 0
 170 0016 03D5     		bpl	.L22
 171              		.loc 1 587 0 is_stmt 0 discriminator 1
 172 0018 D5F81428 		ldr	r2, [r5, #2068]
 173 001c 1207     		lsls	r2, r2, #28
 174 001e 15D4     		bmi	.L36
 175              	.LVL10:
 176              	.L22:
 177              		.loc 1 593 0 is_stmt 1
 178 0020 E307     		lsls	r3, r4, #31
 179 0022 03D5     		bpl	.L21
 180              		.loc 1 593 0 is_stmt 0 discriminator 1
 181 0024 D5F81408 		ldr	r0, [r5, #2068]
 182 0028 C007     		lsls	r0, r0, #31
 183 002a 00D4     		bmi	.L37
 184              	.L21:
 185 002c F8BD     		pop	{r3, r4, r5, r6, r7, pc}
 186              	.L37:
 187              		.loc 1 595 0 is_stmt 1
 188 002e 06EB8702 		add	r2, r6, r7, lsl #2
 189 0032 7189     		ldrh	r1, [r6, #10]
 190 0034 D368     		ldr	r3, [r2, #12]
 191 0036 0120     		movs	r0, #1
 192 0038 00FA07F0 		lsl	r0, r0, r7
 193 003c 21EA0002 		bic	r2, r1, r0
 194 0040 7281     		strh	r2, [r6, #10]	@ movhi
 195 0042 DB68     		ldr	r3, [r3, #12]
 196 0044 3046     		mov	r0, r6
 197 0046 3946     		mov	r1, r7
 198 0048 9847     		blx	r3
 199              	.LVL11:
 200 004a F8BD     		pop	{r3, r4, r5, r6, r7, pc}
 201              	.LVL12:
 202              	.L36:
 203              		.loc 1 590 0
 204 004c 00EB8103 		add	r3, r0, r1, lsl #2
 205 0050 DA68     		ldr	r2, [r3, #12]
 206 0052 5368     		ldr	r3, [r2, #4]
 207 0054 9847     		blx	r3
 208              	.LVL13:
 209 0056 E3E7     		b	.L22
 210              		.cfi_endproc
 211              	.LFE134:
 212              		.size	otg_epout_handler, .-otg_epout_handler
 213 0058 AFF30080 		.section	.text.otg_txfifo_flush,"ax",%progbits
 213      AFF30080 
 214              		.align	2
 215              		.p2align 4,,15
 216              		.thumb
 217              		.thumb_func
 218              		.type	otg_txfifo_flush, %function
 219              	otg_txfifo_flush:
 220              	.LFB122:
 221              		.loc 1 192 0
 222              		.cfi_startproc
 223              		@ args = 0, pretend = 0, frame = 0
 224              		@ frame_needed = 0, uses_anonymous_args = 0
ARM GAS  /var/folders/ng/s8655sgx1ys_4lf9jzm2w6n00000gn/T//ccNSZnWF.s 			page 5


 225              		@ link register save eliminated.
 226              	.LVL14:
 227              		.loc 1 193 0
 228 0000 026D     		ldr	r2, [r0, #80]
 229              	.LVL15:
 230              		.loc 1 195 0
 231 0002 8901     		lsls	r1, r1, #6
 232              	.LVL16:
 233 0004 41F02003 		orr	r3, r1, #32
 234 0008 1361     		str	r3, [r2, #16]
 235              	.LVL17:
 236              	.L39:
 237              		.loc 1 196 0 discriminator 1
 238 000a 1069     		ldr	r0, [r2, #16]
 239 000c 8106     		lsls	r1, r0, #26
 240 000e FCD4     		bmi	.L39
 241              		.loc 1 199 0
 242 0010 0C20     		movs	r0, #12
 243              		.loc 1 200 0
 244              		.loc 1 199 0
 245 0012 FFF7FEBF 		b	halPolledDelay
 246              	.LVL18:
 247              		.cfi_endproc
 248              	.LFE122:
 249              		.size	otg_txfifo_flush, .-otg_txfifo_flush
 250 0016 00BFAFF3 		.section	.text.usb_lld_pump,"ax",%progbits
 250      0080AFF3 
 250      0080
 251              		.align	2
 252              		.p2align 4,,15
 253              		.thumb
 254              		.thumb_func
 255              		.type	usb_lld_pump, %function
 256              	usb_lld_pump:
 257              	.LFB136:
 258              		.loc 1 679 0
 259              		.cfi_startproc
 260              		@ args = 0, pretend = 0, frame = 24
 261              		@ frame_needed = 0, uses_anonymous_args = 0
 262              	.LVL19:
 263 0000 2DE9F04F 		push	{r4, r5, r6, r7, r8, r9, sl, fp, lr}
 264              	.LCFI2:
 265              		.cfi_def_cfa_offset 36
 266              		.cfi_offset 4, -36
 267              		.cfi_offset 5, -32
 268              		.cfi_offset 6, -28
 269              		.cfi_offset 7, -24
 270              		.cfi_offset 8, -20
 271              		.cfi_offset 9, -16
 272              		.cfi_offset 10, -12
 273              		.cfi_offset 11, -8
 274              		.cfi_offset 14, -4
 275              		.loc 1 683 0
 276 0004 40F20001 		movw	r1, #:lower16:rlist
 277 0008 C0F20001 		movt	r1, #:upper16:rlist
 278              		.loc 1 681 0
 279 000c D0F850A0 		ldr	sl, [r0, #80]
ARM GAS  /var/folders/ng/s8655sgx1ys_4lf9jzm2w6n00000gn/T//ccNSZnWF.s 			page 6


 280              		.loc 1 683 0
 281 0010 8A69     		ldr	r2, [r1, #24]
 282              		.loc 1 679 0
 283 0012 8346     		mov	fp, r0
 284              	.LVL20:
 285              		.loc 1 683 0
 286 0014 9148     		ldr	r0, .L225
 287              	.LVL21:
 288              		.loc 1 679 0
 289 0016 87B0     		sub	sp, sp, #28
 290              	.LCFI3:
 291              		.cfi_def_cfa_offset 64
 292              	.LBB85:
 293              		.loc 1 684 0
 294 0018 2023     		movs	r3, #32
 295              	.LVL22:
 296              	.LBE85:
 297              		.loc 1 683 0
 298 001a 9061     		str	r0, [r2, #24]
 299              	.LBB86:
 300              		.loc 1 684 0
 301              	@ 684 "../AithonLibrary/ChibiOS/os/hal/platforms/STM32/OTGv1/usb_lld.c" 1
 302 001c 83F31188 		msr     BASEPRI, r3
 303              	@ 0 "" 2
 304              	.LVL23:
 305              		.thumb
 306              	.LBE86:
 307              	.LBB87:
 308              	.LBB88:
 309              		.loc 1 696 0
 310 0020 4FF00008 		mov	r8, #0
 311              	.LVL24:
 312              	.L104:
 313              	.LBE88:
 314              		.loc 1 690 0
 315 0024 9BF80030 		ldrb	r3, [fp, #0]	@ zero_extendqisi2
 316              	.LVL25:
 317 0028 012B     		cmp	r3, #1
 318 002a 06D0     		beq	.L42
 319              		.loc 1 690 0 is_stmt 0 discriminator 1
 320 002c DBF85C40 		ldr	r4, [fp, #92]
 321 0030 9CB9     		cbnz	r4, .L43
 322              		.loc 1 691 0 is_stmt 1
 323 0032 DAF81450 		ldr	r5, [sl, #20]
 324 0036 E806     		lsls	r0, r5, #27
 325 0038 0FD4     		bmi	.L43
 326              	.L42:
 327              		.loc 1 693 0
 328 003a 40F20007 		movw	r7, #:lower16:rlist
 329 003e C0F20007 		movt	r7, #:upper16:rlist
 330              		.loc 1 692 0
 331 0042 DAF81860 		ldr	r6, [sl, #24]
 332              		.loc 1 693 0
 333 0046 B969     		ldr	r1, [r7, #24]
 334              		.loc 1 692 0
 335 0048 46F01002 		orr	r2, r6, #16
 336 004c CAF81820 		str	r2, [sl, #24]
ARM GAS  /var/folders/ng/s8655sgx1ys_4lf9jzm2w6n00000gn/T//ccNSZnWF.s 			page 7


 337              		.loc 1 694 0
 338 0050 0220     		movs	r0, #2
 339              		.loc 1 693 0
 340 0052 CBF86410 		str	r1, [fp, #100]
 341              		.loc 1 694 0
 342 0056 FFF7FEFF 		bl	chSchGoSleepS
 343              	.LVL26:
 344              	.L43:
 345              	.LBB89:
 346              		.loc 1 696 0
 347 005a 0023     		movs	r3, #0
 348              	.LVL27:
 349              	@ 696 "../AithonLibrary/ChibiOS/os/hal/platforms/STM32/OTGv1/usb_lld.c" 1
 350 005c 83F31188 		msr     BASEPRI, r3
 351              	@ 0 "" 2
 352              	.LVL28:
 353              		.loc 1 699 0
 354              		.thumb
 355 0060 1C46     		mov	r4, r3
 356              	.LVL29:
 357              	.L197:
 358              	.LBE89:
 359              		.loc 1 702 0 discriminator 1
 360 0062 DAF81400 		ldr	r0, [sl, #20]
 361 0066 10F01007 		ands	r7, r0, #16
 362 006a 3AD0     		beq	.L221
 363              	.L69:
 364              	.LVL30:
 365              	.LBB90:
 366              	.LBB91:
 367              		.loc 1 452 0
 368 006c DBF85000 		ldr	r0, [fp, #80]
 369 0070 016A     		ldr	r1, [r0, #32]
 370              	.LVL31:
 371              		.loc 1 453 0
 372 0072 01F4F015 		and	r5, r1, #1966080
 373 0076 B5F5802F 		cmp	r5, #262144
 374 007a 47D0     		beq	.L46
 375 007c B5F5402F 		cmp	r5, #786432
 376 0080 EFD1     		bne	.L197
 377              	.LVL32:
 378              		.loc 1 458 0
 379 0082 01F00F07 		and	r7, r1, #15
 380              	.LVL33:
 381              		.loc 1 459 0
 382 0086 0BEB8702 		add	r2, fp, r7, lsl #2
 383              		.loc 1 457 0
 384 008a C1F30A16 		ubfx	r6, r1, #4, #11
 385              		.loc 1 459 0
 386 008e D368     		ldr	r3, [r2, #12]
 387              	.LVL34:
 388              	.LBB92:
 389              	.LBB93:
 390              		.loc 1 370 0
 391 0090 F11C     		adds	r1, r6, #3
 392              	.LVL35:
 393              		.loc 1 372 0
ARM GAS  /var/folders/ng/s8655sgx1ys_4lf9jzm2w6n00000gn/T//ccNSZnWF.s 			page 8


 394 0092 8D08     		lsrs	r5, r1, #2
 395              	.LBE93:
 396              	.LBE92:
 397              		.loc 1 459 0
 398 0094 1F6A     		ldr	r7, [r3, #32]
 399              	.LVL36:
 400              	.LBB100:
 401              	.LBB99:
 402              		.loc 1 372 0
 403 0096 E4D0     		beq	.L197
 404 0098 00F58050 		add	r0, r0, #4096
 405              	.LVL37:
 406 009c 6A1E     		subs	r2, r5, #1
 407              	.LBB94:
 408              		.loc 1 373 0
 409 009e 0368     		ldr	r3, [r0, #0]
 410              	.LVL38:
 411              	.LBE94:
 412              		.loc 1 372 0
 413 00a0 1146     		mov	r1, r2
 414              	.LBB95:
 415              		.loc 1 377 0
 416 00a2 47F8043B 		str	r3, [r7], #4
 417              	.LVL39:
 418 00a6 02F00106 		and	r6, r2, #1
 419              		.loc 1 379 0
 420 00aa 0123     		movs	r3, #1
 421              	.LVL40:
 422              	.LBE95:
 423              		.loc 1 372 0
 424 00ac 002A     		cmp	r2, #0
 425 00ae D8D0     		beq	.L197
 426 00b0 2EB1     		cbz	r6, .L48
 427              	.LBB96:
 428              		.loc 1 373 0
 429 00b2 0568     		ldr	r5, [r0, #0]
 430              	.LVL41:
 431              		.loc 1 379 0
 432 00b4 0023     		movs	r3, #0
 433              	.LVL42:
 434              	.LBE96:
 435              		.loc 1 372 0
 436 00b6 511E     		subs	r1, r2, #1
 437              	.LVL43:
 438              	.LBB97:
 439              		.loc 1 377 0
 440 00b8 47F8045B 		str	r5, [r7], #4
 441              	.LVL44:
 442              	.LBE97:
 443              		.loc 1 372 0
 444 00bc D1D0     		beq	.L197
 445              	.L48:
 446              	.LBB98:
 447              		.loc 1 373 0
 448 00be 0268     		ldr	r2, [r0, #0]
 449              		.loc 1 374 0
 450 00c0 13B1     		cbz	r3, .L50
ARM GAS  /var/folders/ng/s8655sgx1ys_4lf9jzm2w6n00000gn/T//ccNSZnWF.s 			page 9


 451              		.loc 1 377 0
 452 00c2 47F8042B 		str	r2, [r7], #4
 453              	.LVL45:
 454              		.loc 1 379 0
 455 00c6 013B     		subs	r3, r3, #1
 456              	.LVL46:
 457              	.L50:
 458              		.loc 1 381 0
 459 00c8 0139     		subs	r1, r1, #1
 460              		.loc 1 373 0
 461 00ca 0668     		ldr	r6, [r0, #0]
 462              		.loc 1 374 0
 463 00cc 13B1     		cbz	r3, .L158
 464              		.loc 1 377 0
 465 00ce 47F8046B 		str	r6, [r7], #4
 466              	.LVL47:
 467              		.loc 1 379 0
 468 00d2 013B     		subs	r3, r3, #1
 469              	.LVL48:
 470              	.L158:
 471              	.LBE98:
 472              		.loc 1 372 0
 473 00d4 0139     		subs	r1, r1, #1
 474 00d6 F2D1     		bne	.L48
 475              	.LBE99:
 476              	.LBE100:
 477              	.LBE91:
 478              	.LBE90:
 479              		.loc 1 702 0
 480 00d8 DAF81400 		ldr	r0, [sl, #20]
 481              	.LVL49:
 482 00dc 10F01007 		ands	r7, r0, #16
 483              	.LVL50:
 484 00e0 C4D1     		bne	.L69
 485              	.LVL51:
 486              	.L221:
 487              		.loc 1 706 0
 488 00e2 0125     		movs	r5, #1
 489              		.loc 1 707 0
 490 00e4 DBF85C30 		ldr	r3, [fp, #92]
 491              	.LVL52:
 492              		.loc 1 706 0
 493 00e8 A540     		lsls	r5, r5, r4
 494              		.loc 1 707 0
 495 00ea 1D42     		tst	r5, r3
 496              		.loc 1 706 0
 497 00ec 0495     		str	r5, [sp, #16]
 498              	.LVL53:
 499              		.loc 1 707 0
 500 00ee 40F0B780 		bne	.L202
 501 00f2 0134     		adds	r4, r4, #1
 502 00f4 0594     		str	r4, [sp, #20]
 503              	.LVL54:
 504              	.L70:
 505              		.loc 1 699 0
 506 00f6 DBF85420 		ldr	r2, [fp, #84]
 507 00fa 059B     		ldr	r3, [sp, #20]
ARM GAS  /var/folders/ng/s8655sgx1ys_4lf9jzm2w6n00000gn/T//ccNSZnWF.s 			page 10


 508              	.LVL55:
 509 00fc 9068     		ldr	r0, [r2, #8]
 510 00fe DCB2     		uxtb	r4, r3
 511              	.LVL56:
 512 0100 8442     		cmp	r4, r0
 513 0102 AED9     		bls	.L197
 514              	.LBB117:
 515              		.loc 1 731 0
 516 0104 2023     		movs	r3, #32
 517              	.LVL57:
 518              	@ 731 "../AithonLibrary/ChibiOS/os/hal/platforms/STM32/OTGv1/usb_lld.c" 1
 519 0106 83F31188 		msr     BASEPRI, r3
 520              	@ 0 "" 2
 521              	.LVL58:
 522              		.thumb
 523              	.LBE117:
 524              	.LBE87:
 525              		.loc 1 732 0
 526 010a 8BE7     		b	.L104
 527              	.LVL59:
 528              	.L46:
 529              	.LBB154:
 530              	.LBB118:
 531              	.LBB116:
 532              		.loc 1 464 0
 533 010c 01F00F07 		and	r7, r1, #15
 534              		.loc 1 465 0
 535 0110 0237     		adds	r7, r7, #2
 536 0112 0BEB8705 		add	r5, fp, r7, lsl #2
 537              		.loc 1 463 0
 538 0116 C1F30A16 		ubfx	r6, r1, #4, #11
 539              	.LVL60:
 540              		.loc 1 465 0
 541 011a 6A68     		ldr	r2, [r5, #4]
 542 011c 9169     		ldr	r1, [r2, #24]
 543              	.LVL61:
 544 011e 0B78     		ldrb	r3, [r1, #0]	@ zero_extendqisi2
 545              	.LVL62:
 546 0120 002B     		cmp	r3, #0
 547 0122 3BD1     		bne	.L222
 548              		.loc 1 472 0
 549 0124 0D1D     		adds	r5, r1, #4
 550 0126 2CCD     		ldmia	r5, {r2, r3, r5}
 551              	.LVL63:
 552 0128 0332     		adds	r2, r2, #3
 553              	.LVL64:
 554              	.LBB101:
 555              	.LBB102:
 556              		.loc 1 371 0
 557 012a D31A     		subs	r3, r2, r3
 558              		.loc 1 370 0
 559 012c F21C     		adds	r2, r6, #3
 560              	.LVL65:
 561              		.loc 1 371 0
 562 012e 9B08     		lsrs	r3, r3, #2
 563              	.LVL66:
 564              		.loc 1 372 0
ARM GAS  /var/folders/ng/s8655sgx1ys_4lf9jzm2w6n00000gn/T//ccNSZnWF.s 			page 11


 565 0130 9208     		lsrs	r2, r2, #2
 566              	.LVL67:
 567 0132 29D0     		beq	.L68
 568 0134 00F58050 		add	r0, r0, #4096
 569              	.LVL68:
 570 0138 02F1FF39 		add	r9, r2, #-1
 571 013c 09F0010C 		and	ip, r9, #1
 572 0140 AE46     		mov	lr, r5
 573              	.LBB103:
 574              		.loc 1 373 0
 575 0142 D0F80090 		ldr	r9, [r0, #0]
 576              	.LVL69:
 577              		.loc 1 374 0
 578 0146 1BB1     		cbz	r3, .L146
 579              		.loc 1 377 0
 580 0148 AE46     		mov	lr, r5
 581              		.loc 1 379 0
 582 014a 013B     		subs	r3, r3, #1
 583              	.LVL70:
 584              		.loc 1 377 0
 585 014c 4EF8049B 		str	r9, [lr], #4
 586              	.LVL71:
 587              	.L146:
 588              	.LBE103:
 589              		.loc 1 372 0
 590 0150 013A     		subs	r2, r2, #1
 591              	.LVL72:
 592 0152 19D0     		beq	.L68
 593 0154 BCF1000F 		cmp	ip, #0
 594 0158 07D0     		beq	.L214
 595              	.LBB104:
 596              		.loc 1 373 0
 597 015a D0F800C0 		ldr	ip, [r0, #0]
 598              	.LVL73:
 599              		.loc 1 374 0
 600 015e 13B1     		cbz	r3, .L148
 601              		.loc 1 377 0
 602 0160 4EF804CB 		str	ip, [lr], #4
 603              	.LVL74:
 604              		.loc 1 379 0
 605 0164 013B     		subs	r3, r3, #1
 606              	.LVL75:
 607              	.L148:
 608              	.LBE104:
 609              		.loc 1 372 0
 610 0166 013A     		subs	r2, r2, #1
 611 0168 0ED0     		beq	.L68
 612              	.L214:
 613 016a 8946     		mov	r9, r1
 614              	.L67:
 615              	.LBB105:
 616              		.loc 1 373 0
 617 016c 0168     		ldr	r1, [r0, #0]
 618              		.loc 1 374 0
 619 016e 13B1     		cbz	r3, .L66
 620              		.loc 1 377 0
 621 0170 4EF8041B 		str	r1, [lr], #4
ARM GAS  /var/folders/ng/s8655sgx1ys_4lf9jzm2w6n00000gn/T//ccNSZnWF.s 			page 12


 622              	.LVL76:
 623              		.loc 1 379 0
 624 0174 013B     		subs	r3, r3, #1
 625              	.LVL77:
 626              	.L66:
 627              		.loc 1 381 0
 628 0176 013A     		subs	r2, r2, #1
 629              		.loc 1 373 0
 630 0178 0168     		ldr	r1, [r0, #0]
 631              		.loc 1 374 0
 632 017a 13B1     		cbz	r3, .L151
 633              		.loc 1 377 0
 634 017c 4EF8041B 		str	r1, [lr], #4
 635              	.LVL78:
 636              		.loc 1 379 0
 637 0180 013B     		subs	r3, r3, #1
 638              	.LVL79:
 639              	.L151:
 640              	.LBE105:
 641              		.loc 1 372 0
 642 0182 013A     		subs	r2, r2, #1
 643 0184 F2D1     		bne	.L67
 644 0186 4946     		mov	r1, r9
 645              	.LVL80:
 646              	.L68:
 647              	.LBE102:
 648              	.LBE101:
 649              		.loc 1 477 0
 650 0188 AD19     		adds	r5, r5, r6
 651 018a CD60     		str	r5, [r1, #12]
 652              	.LVL81:
 653              	.L62:
 654              		.loc 1 479 0
 655 018c 0BEB8707 		add	r7, fp, r7, lsl #2
 656              	.LVL82:
 657 0190 7868     		ldr	r0, [r7, #4]
 658 0192 8569     		ldr	r5, [r0, #24]
 659 0194 A968     		ldr	r1, [r5, #8]
 660 0196 8E19     		adds	r6, r1, r6
 661              	.LVL83:
 662 0198 AE60     		str	r6, [r5, #8]
 663 019a 62E7     		b	.L197
 664              	.LVL84:
 665              	.L222:
 666              		.loc 1 467 0
 667 019c 00F58050 		add	r0, r0, #4096
 668 01a0 CD68     		ldr	r5, [r1, #12]
 669              	.LVL85:
 670              	.LBB106:
 671              	.LBB107:
 672              		.loc 1 400 0
 673 01a2 002E     		cmp	r6, #0
 674 01a4 40D0     		beq	.L53
 675 01a6 3346     		mov	r3, r6
 676 01a8 A446     		mov	ip, r4
 677              	.LVL86:
 678              	.L196:
ARM GAS  /var/folders/ng/s8655sgx1ys_4lf9jzm2w6n00000gn/T//ccNSZnWF.s 			page 13


 679              	.LBB108:
 680              		.loc 1 404 0
 681 01aa 032B     		cmp	r3, #3
 682              	.LBB109:
 683              		.loc 1 410 0
 684 01ac 6969     		ldr	r1, [r5, #20]
 685              	.LBE109:
 686              		.loc 1 404 0
 687 01ae 07D9     		bls	.L55
 688              	.LVL87:
 689              	.L199:
 690              	.LBB110:
 691              		.loc 1 410 0
 692 01b0 2C69     		ldr	r4, [r5, #16]
 693 01b2 A142     		cmp	r1, r4
 694 01b4 04D3     		bcc	.L55
 695              		.loc 1 411 0
 696 01b6 EC68     		ldr	r4, [r5, #12]
 697              	.LBE110:
 698              		.loc 1 404 0
 699 01b8 032B     		cmp	r3, #3
 700              	.LBB111:
 701              		.loc 1 411 0
 702 01ba 6C61     		str	r4, [r5, #20]
 703              	.LVL88:
 704              		.loc 1 410 0
 705 01bc 6969     		ldr	r1, [r5, #20]
 706              	.LBE111:
 707              		.loc 1 404 0
 708 01be F7D8     		bhi	.L199
 709              	.LVL89:
 710              	.L55:
 711              		.loc 1 422 0
 712 01c0 0268     		ldr	r2, [r0, #0]
 713              	.LVL90:
 714              		.loc 1 425 0
 715 01c2 01F8012B 		strb	r2, [r1], #1
 716              		.loc 1 426 0
 717 01c6 2C69     		ldr	r4, [r5, #16]
 718              		.loc 1 425 0
 719 01c8 6961     		str	r1, [r5, #20]
 720              		.loc 1 426 0
 721 01ca A142     		cmp	r1, r4
 722              		.loc 1 427 0
 723 01cc 24BF     		itt	cs
 724 01ce E968     		ldrcs	r1, [r5, #12]
 725 01d0 6961     		strcs	r1, [r5, #20]
 726              		.loc 1 424 0
 727 01d2 012B     		cmp	r3, #1
 728 01d4 27D0     		beq	.L208
 729              	.LVL91:
 730              		.loc 1 425 0
 731 01d6 D5F814E0 		ldr	lr, [r5, #20]
 732 01da 110A     		lsrs	r1, r2, #8
 733 01dc 0EF8011B 		strb	r1, [lr], #1
 734              		.loc 1 426 0
 735 01e0 2C69     		ldr	r4, [r5, #16]
ARM GAS  /var/folders/ng/s8655sgx1ys_4lf9jzm2w6n00000gn/T//ccNSZnWF.s 			page 14


 736              		.loc 1 425 0
 737 01e2 C5F814E0 		str	lr, [r5, #20]
 738              		.loc 1 426 0
 739 01e6 A645     		cmp	lr, r4
 740              		.loc 1 427 0
 741 01e8 24BF     		itt	cs
 742 01ea EC68     		ldrcs	r4, [r5, #12]
 743 01ec 6C61     		strcs	r4, [r5, #20]
 744              		.loc 1 424 0
 745 01ee 022B     		cmp	r3, #2
 746 01f0 19D0     		beq	.L208
 747              	.LVL92:
 748              		.loc 1 425 0
 749 01f2 D5F81490 		ldr	r9, [r5, #20]
 750 01f6 110C     		lsrs	r1, r2, #16
 751 01f8 09F8011B 		strb	r1, [r9], #1
 752              		.loc 1 426 0
 753 01fc 2C69     		ldr	r4, [r5, #16]
 754              		.loc 1 425 0
 755 01fe C5F81490 		str	r9, [r5, #20]
 756              		.loc 1 426 0
 757 0202 A145     		cmp	r9, r4
 758              		.loc 1 427 0
 759 0204 24BF     		itt	cs
 760 0206 EC68     		ldrcs	r4, [r5, #12]
 761 0208 6C61     		strcs	r4, [r5, #20]
 762              		.loc 1 424 0
 763 020a 032B     		cmp	r3, #3
 764 020c 0BD0     		beq	.L208
 765              	.LVL93:
 766              		.loc 1 425 0
 767 020e 6969     		ldr	r1, [r5, #20]
 768 0210 120E     		lsrs	r2, r2, #24
 769              	.LVL94:
 770 0212 01F8012B 		strb	r2, [r1], #1
 771              		.loc 1 426 0
 772 0216 2C69     		ldr	r4, [r5, #16]
 773              		.loc 1 425 0
 774 0218 6961     		str	r1, [r5, #20]
 775              		.loc 1 426 0
 776 021a A142     		cmp	r1, r4
 777              		.loc 1 427 0
 778 021c 24BF     		itt	cs
 779 021e EC68     		ldrcs	r4, [r5, #12]
 780 0220 6C61     		strcs	r4, [r5, #20]
 781              		.loc 1 424 0
 782 0222 043B     		subs	r3, r3, #4
 783              	.LVL95:
 784 0224 C1D1     		bne	.L196
 785              	.LVL96:
 786              	.L208:
 787 0226 6446     		mov	r4, ip
 788              	.L53:
 789              	.LBE108:
 790              	.LBB112:
 791              		.loc 1 434 0
 792 0228 2023     		movs	r3, #32
ARM GAS  /var/folders/ng/s8655sgx1ys_4lf9jzm2w6n00000gn/T//ccNSZnWF.s 			page 15


 793              	.LVL97:
 794              	@ 434 "../AithonLibrary/ChibiOS/os/hal/platforms/STM32/OTGv1/usb_lld.c" 1
 795 022a 83F31188 		msr     BASEPRI, r3
 796              	@ 0 "" 2
 797              	.LVL98:
 798              		.thumb
 799              	.LBE112:
 800              		.loc 1 435 0
 801 022e A968     		ldr	r1, [r5, #8]
 802              		.loc 1 436 0
 803 0230 2868     		ldr	r0, [r5, #0]
 804              	.LVL99:
 805              		.loc 1 435 0
 806 0232 8A19     		adds	r2, r1, r6
 807              		.loc 1 436 0
 808 0234 A842     		cmp	r0, r5
 809              		.loc 1 435 0
 810 0236 AA60     		str	r2, [r5, #8]
 811              		.loc 1 436 0
 812 0238 09D0     		beq	.L64
 813              	.LVL100:
 814              	.L137:
 815              	.LBB113:
 816              	.LBB114:
 817              		.file 2 "../AithonLibrary/ChibiOS/os/kernel/include/chinline.h"
 818              		.loc 2 62 0
 819 023a 0368     		ldr	r3, [r0, #0]
 820              	.LVL101:
 821 023c 2B60     		str	r3, [r5, #0]
 822 023e 5D60     		str	r5, [r3, #4]
 823              	.LBE114:
 824              	.LBE113:
 825              		.loc 1 437 0
 826 0240 FFF7FEFF 		bl	chSchReadyI
 827              	.LVL102:
 828 0244 C0F82480 		str	r8, [r0, #36]
 829              		.loc 1 436 0
 830 0248 2868     		ldr	r0, [r5, #0]
 831 024a A842     		cmp	r0, r5
 832 024c F5D1     		bne	.L137
 833              	.LVL103:
 834              	.L64:
 835              		.loc 1 438 0
 836 024e FFF7FEFF 		bl	chSchRescheduleS
 837              	.LVL104:
 838              	.LBB115:
 839              		.loc 1 439 0
 840 0252 0023     		movs	r3, #0
 841              	@ 439 "../AithonLibrary/ChibiOS/os/hal/platforms/STM32/OTGv1/usb_lld.c" 1
 842 0254 83F31188 		msr     BASEPRI, r3
 843              	@ 0 "" 2
 844              	.LVL105:
 845              		.thumb
 846 0258 98E7     		b	.L62
 847              	.L226:
 848 025a 00BF     		.align	2
 849              	.L225:
ARM GAS  /var/folders/ng/s8655sgx1ys_4lf9jzm2w6n00000gn/T//ccNSZnWF.s 			page 16


 850 025c 00000000 		.word	.LC0
 851              	.LVL106:
 852              	.L202:
 853              	.LBE115:
 854              	.LBE107:
 855              	.LBE106:
 856              	.LBE116:
 857              	.LBE118:
 858              	.LBB119:
 859              	.LBB120:
 860              		.loc 1 710 0
 861 0260 2023     		movs	r3, #32
 862              	.LVL107:
 863              	@ 710 "../AithonLibrary/ChibiOS/os/hal/platforms/STM32/OTGv1/usb_lld.c" 1
 864 0262 83F31188 		msr     BASEPRI, r3
 865              	@ 0 "" 2
 866              	.LVL108:
 867              		.thumb
 868              	.LBE120:
 869              		.loc 1 718 0
 870 0266 DAF80860 		ldr	r6, [sl, #8]
 871              		.loc 1 719 0
 872 026a DBF85C10 		ldr	r1, [fp, #92]
 873 026e 0498     		ldr	r0, [sp, #16]
 874              		.loc 1 718 0
 875 0270 26F00102 		bic	r2, r6, #1
 876              		.loc 1 719 0
 877 0274 21EA0005 		bic	r5, r1, r0
 878              	.LVL109:
 879              		.loc 1 718 0
 880 0278 CAF80820 		str	r2, [sl, #8]
 881              	.LBB121:
 882              		.loc 1 720 0
 883 027c 3B46     		mov	r3, r7
 884              	.LVL110:
 885              	.LBE121:
 886              		.loc 1 719 0
 887 027e CBF85C50 		str	r5, [fp, #92]
 888              	.LBB122:
 889              		.loc 1 720 0
 890              	@ 720 "../AithonLibrary/ChibiOS/os/hal/platforms/STM32/OTGv1/usb_lld.c" 1
 891 0282 83F31188 		msr     BASEPRI, r3
 892              	@ 0 "" 2
 893              	.LVL111:
 894              		.thumb
 895              	.LBE122:
 896              	.LBB123:
 897              	.LBB124:
 898              		.loc 1 503 0
 899 0286 A71C     		adds	r7, r4, #2
 900 0288 0BEB8703 		add	r3, fp, r7, lsl #2
 901              	.LVL112:
 902 028c 5D68     		ldr	r5, [r3, #4]
 903 028e 6869     		ldr	r0, [r5, #20]
 904 0290 8268     		ldr	r2, [r0, #8]
 905 0292 4668     		ldr	r6, [r0, #4]
 906 0294 9642     		cmp	r6, r2
ARM GAS  /var/folders/ng/s8655sgx1ys_4lf9jzm2w6n00000gn/T//ccNSZnWF.s 			page 17


 907 0296 40F2FA80 		bls	.L223
 908              		.loc 1 513 0
 909 029a DBF85010 		ldr	r1, [fp, #80]
 910              		.loc 1 508 0
 911 029e 2D8A     		ldrh	r5, [r5, #16]
 912              		.loc 1 513 0
 913 02a0 6701     		lsls	r7, r4, #5
 914 02a2 0297     		str	r7, [sp, #8]
 915 02a4 CF19     		adds	r7, r1, r7
 916              		.loc 1 507 0
 917 02a6 B61A     		subs	r6, r6, r2
 918              	.LVL113:
 919              		.loc 1 513 0
 920 02a8 D7F81829 		ldr	r2, [r7, #2328]
 921 02ac B542     		cmp	r5, r6
 922 02ae 28BF     		it	cs
 923 02b0 3546     		movcs	r5, r6
 924              	.LVL114:
 925 02b2 97B2     		uxth	r7, r2
 926 02b4 0134     		adds	r4, r4, #1
 927              	.LVL115:
 928 02b6 B5EB870F 		cmp	r5, r7, lsl #2
 929 02ba 0594     		str	r4, [sp, #20]
 930 02bc 47D8     		bhi	.L74
 931              		.loc 1 528 0
 932 02be 2603     		lsls	r6, r4, #12
 933 02c0 0196     		str	r6, [sp, #4]
 934              		.loc 1 533 0
 935 02c2 0393     		str	r3, [sp, #12]
 936              	.LVL116:
 937              	.L75:
 938              		.loc 1 520 0
 939 02c4 0378     		ldrb	r3, [r0, #0]	@ zero_extendqisi2
 940 02c6 002B     		cmp	r3, #0
 941 02c8 57D1     		bne	.L224
 942              		.loc 1 528 0
 943 02ca 019F     		ldr	r7, [sp, #4]
 944              	.LBB125:
 945              	.LBB126:
 946              		.loc 1 269 0
 947 02cc EA1C     		adds	r2, r5, #3
 948              	.LBB127:
 949              	.LBB128:
 950              		.loc 1 246 0
 951 02ce 5FEA920E 		lsrs	lr, r2, #2
 952              	.LBE128:
 953              	.LBE127:
 954              	.LBE126:
 955              	.LBE125:
 956              		.loc 1 528 0
 957 02d2 01EB0704 		add	r4, r1, r7
 958 02d6 C768     		ldr	r7, [r0, #12]
 959              	.LVL117:
 960              	.LBB135:
 961              	.LBB133:
 962              	.LBB131:
 963              	.LBB129:
ARM GAS  /var/folders/ng/s8655sgx1ys_4lf9jzm2w6n00000gn/T//ccNSZnWF.s 			page 18


 964              		.loc 1 246 0
 965 02d8 1ED0     		beq	.L98
 966              	.LBE129:
 967              	.LBE131:
 968              	.LBE133:
 969              	.LBE135:
 970              		.loc 1 679 0
 971 02da 3A46     		mov	r2, r7
 972 02dc 0EF1FF36 		add	r6, lr, #-1
 973              	.LBB136:
 974              	.LBB134:
 975              	.LBB132:
 976              	.LBB130:
 977              		.loc 1 249 0
 978 02e0 52F804CB 		ldr	ip, [r2], #4
 979              		.loc 1 246 0
 980 02e4 3346     		mov	r3, r6
 981 02e6 06F00109 		and	r9, r6, #1
 982              		.loc 1 249 0
 983 02ea 019E     		ldr	r6, [sp, #4]
 984 02ec 0432     		adds	r2, r2, #4
 985 02ee 41F806C0 		str	ip, [r1, r6]
 986              	.LVL118:
 987              		.loc 1 246 0
 988 02f2 8BB1     		cbz	r3, .L98
 989 02f4 B9F1000F 		cmp	r9, #0
 990 02f8 05D0     		beq	.L97
 991              		.loc 1 249 0
 992 02fa 52F8041C 		ldr	r1, [r2, #-4]
 993 02fe 0432     		adds	r2, r2, #4
 994              		.loc 1 246 0
 995 0300 013B     		subs	r3, r3, #1
 996              		.loc 1 249 0
 997 0302 2160     		str	r1, [r4, #0]
 998              	.LVL119:
 999              		.loc 1 246 0
 1000 0304 08D0     		beq	.L98
 1001              	.L97:
 1002              		.loc 1 249 0
 1003 0306 52F8046C 		ldr	r6, [r2, #-4]
 1004 030a 2660     		str	r6, [r4, #0]
 1005 030c 52F8041B 		ldr	r1, [r2], #4
 1006 0310 0432     		adds	r2, r2, #4
 1007              		.loc 1 246 0
 1008 0312 023B     		subs	r3, r3, #2
 1009              		.loc 1 249 0
 1010 0314 2160     		str	r1, [r4, #0]
 1011              		.loc 1 246 0
 1012 0316 F6D1     		bne	.L97
 1013              	.L98:
 1014              	.LBE130:
 1015              	.LBE132:
 1016              	.LBE134:
 1017              	.LBE136:
 1018              		.loc 1 531 0
 1019 0318 7C19     		adds	r4, r7, r5
 1020              	.LVL120:
ARM GAS  /var/folders/ng/s8655sgx1ys_4lf9jzm2w6n00000gn/T//ccNSZnWF.s 			page 19


 1021 031a C460     		str	r4, [r0, #12]
 1022              	.LVL121:
 1023              	.L94:
 1024              		.loc 1 533 0
 1025 031c 0398     		ldr	r0, [sp, #12]
 1026 031e 4468     		ldr	r4, [r0, #4]
 1027 0320 6069     		ldr	r0, [r4, #20]
 1028 0322 8668     		ldr	r6, [r0, #8]
 1029              		.loc 1 503 0
 1030 0324 4268     		ldr	r2, [r0, #4]
 1031              		.loc 1 533 0
 1032 0326 AB19     		adds	r3, r5, r6
 1033              	.LVL122:
 1034              		.loc 1 503 0
 1035 0328 9A42     		cmp	r2, r3
 1036              		.loc 1 533 0
 1037 032a 8360     		str	r3, [r0, #8]
 1038              		.loc 1 503 0
 1039 032c 40F2B180 		bls	.L99
 1040              		.loc 1 513 0
 1041 0330 029D     		ldr	r5, [sp, #8]
 1042              	.LVL123:
 1043 0332 DBF85010 		ldr	r1, [fp, #80]
 1044              		.loc 1 508 0
 1045 0336 248A     		ldrh	r4, [r4, #16]
 1046              		.loc 1 513 0
 1047 0338 4F19     		adds	r7, r1, r5
 1048              		.loc 1 507 0
 1049 033a D51A     		subs	r5, r2, r3
 1050              	.LVL124:
 1051              		.loc 1 513 0
 1052 033c D7F81869 		ldr	r6, [r7, #2328]
 1053 0340 A542     		cmp	r5, r4
 1054 0342 28BF     		it	cs
 1055 0344 2546     		movcs	r5, r4
 1056              	.LVL125:
 1057 0346 B2B2     		uxth	r2, r6
 1058 0348 B5EB820F 		cmp	r5, r2, lsl #2
 1059 034c BAD9     		bls	.L75
 1060              	.L74:
 1061              	.LBB137:
 1062              	.LBB138:
 1063              		.loc 1 514 0
 1064 034e 0020     		movs	r0, #0
 1065              	.LVL126:
 1066              	.L72:
 1067              	.LBE138:
 1068              	.LBE137:
 1069              	.LBE124:
 1070              	.LBE123:
 1071              	.LBB151:
 1072              		.loc 1 724 0
 1073 0350 2023     		movs	r3, #32
 1074              	.LVL127:
 1075              	@ 724 "../AithonLibrary/ChibiOS/os/hal/platforms/STM32/OTGv1/usb_lld.c" 1
 1076 0352 83F31188 		msr     BASEPRI, r3
 1077              	@ 0 "" 2
ARM GAS  /var/folders/ng/s8655sgx1ys_4lf9jzm2w6n00000gn/T//ccNSZnWF.s 			page 20


 1078              	.LVL128:
 1079              		.thumb
 1080              	.LBE151:
 1081              		.loc 1 725 0
 1082 0356 DAF80810 		ldr	r1, [sl, #8]
 1083 035a 41F00104 		orr	r4, r1, #1
 1084 035e CAF80840 		str	r4, [sl, #8]
 1085              		.loc 1 726 0
 1086 0362 30B9     		cbnz	r0, .L101
 1087              		.loc 1 727 0
 1088 0364 DAF83458 		ldr	r5, [sl, #2100]
 1089 0368 049F     		ldr	r7, [sp, #16]
 1090 036a 47EA0506 		orr	r6, r7, r5
 1091 036e CAF83468 		str	r6, [sl, #2100]
 1092              	.L101:
 1093              	.LBB152:
 1094              		.loc 1 728 0
 1095 0372 0023     		movs	r3, #0
 1096              	.LVL129:
 1097              	@ 728 "../AithonLibrary/ChibiOS/os/hal/platforms/STM32/OTGv1/usb_lld.c" 1
 1098 0374 83F31188 		msr     BASEPRI, r3
 1099              	@ 0 "" 2
 1100              	.LVL130:
 1101              		.thumb
 1102 0378 BDE6     		b	.L70
 1103              	.LVL131:
 1104              	.L224:
 1105              	.LBE152:
 1106              	.LBB153:
 1107              	.LBB150:
 1108              		.loc 1 522 0
 1109 037a 019A     		ldr	r2, [sp, #4]
 1110 037c C468     		ldr	r4, [r0, #12]
 1111 037e 8918     		adds	r1, r1, r2
 1112              	.LVL132:
 1113              	.LBB149:
 1114              	.LBB148:
 1115              		.loc 1 287 0
 1116 0380 002D     		cmp	r5, #0
 1117 0382 35D0     		beq	.L86
 1118 0384 2069     		ldr	r0, [r4, #16]
 1119 0386 2A46     		mov	r2, r5
 1120 0388 AE46     		mov	lr, r5
 1121              	.LVL133:
 1122              	.L93:
 1123              	.LBB139:
 1124              		.loc 1 291 0
 1125 038a 9708     		lsrs	r7, r2, #2
 1126              	.LVL134:
 1127 038c 4BD0     		beq	.L80
 1128              	.LBB140:
 1129              		.loc 1 293 0
 1130 038e A569     		ldr	r5, [r4, #24]
 1131              	.LVL135:
 1132 0390 431B     		subs	r3, r0, r5
 1133 0392 48BF     		it	mi
 1134 0394 0333     		addmi	r3, r3, #3
ARM GAS  /var/folders/ng/s8655sgx1ys_4lf9jzm2w6n00000gn/T//ccNSZnWF.s 			page 21


 1135 0396 9B10     		asrs	r3, r3, #2
 1136              		.loc 1 295 0
 1137 0398 9F42     		cmp	r7, r3
 1138 039a 38BF     		it	cc
 1139 039c 3B46     		movcc	r3, r7
 1140              	.LVL136:
 1141 039e 4FEA830C 		lsl	ip, r3, #2
 1142 03a2 CCEB0202 		rsb	r2, ip, r2
 1143              	.LVL137:
 1144              	.LBB141:
 1145              	.LBB142:
 1146              		.loc 1 246 0
 1147 03a6 DBB1     		cbz	r3, .L82
 1148              		.loc 1 679 0
 1149 03a8 2E46     		mov	r6, r5
 1150 03aa 5F1E     		subs	r7, r3, #1
 1151              	.LVL138:
 1152              		.loc 1 249 0
 1153 03ac 56F8049B 		ldr	r9, [r6], #4
 1154              		.loc 1 246 0
 1155 03b0 3B46     		mov	r3, r7
 1156              	.LVL139:
 1157              		.loc 1 249 0
 1158 03b2 C1F80090 		str	r9, [r1, #0]
 1159              	.LVL140:
 1160 03b6 07F00107 		and	r7, r7, #1
 1161 03ba 0436     		adds	r6, r6, #4
 1162              		.loc 1 246 0
 1163 03bc 7BB1     		cbz	r3, .L204
 1164 03be 2FB1     		cbz	r7, .L83
 1165              		.loc 1 249 0
 1166 03c0 56F8047C 		ldr	r7, [r6, #-4]
 1167 03c4 0436     		adds	r6, r6, #4
 1168              		.loc 1 246 0
 1169 03c6 013B     		subs	r3, r3, #1
 1170              	.LVL141:
 1171              		.loc 1 249 0
 1172 03c8 0F60     		str	r7, [r1, #0]
 1173              	.LVL142:
 1174              		.loc 1 246 0
 1175 03ca 08D0     		beq	.L204
 1176              	.LVL143:
 1177              	.L83:
 1178              		.loc 1 249 0
 1179 03cc 56F8047C 		ldr	r7, [r6, #-4]
 1180 03d0 0F60     		str	r7, [r1, #0]
 1181 03d2 56F8047B 		ldr	r7, [r6], #4
 1182 03d6 0436     		adds	r6, r6, #4
 1183              		.loc 1 246 0
 1184 03d8 023B     		subs	r3, r3, #2
 1185              		.loc 1 249 0
 1186 03da 0F60     		str	r7, [r1, #0]
 1187              		.loc 1 246 0
 1188 03dc F6D1     		bne	.L83
 1189              	.L204:
 1190 03de 6544     		add	r5, r5, ip
 1191              	.LVL144:
ARM GAS  /var/folders/ng/s8655sgx1ys_4lf9jzm2w6n00000gn/T//ccNSZnWF.s 			page 22


 1192              	.L82:
 1193              	.LBE142:
 1194              	.LBE141:
 1195              		.loc 1 297 0
 1196 03e0 A842     		cmp	r0, r5
 1197              		.loc 1 296 0
 1198 03e2 A561     		str	r5, [r4, #24]
 1199              		.loc 1 297 0
 1200 03e4 1DD8     		bhi	.L84
 1201              		.loc 1 298 0
 1202 03e6 E668     		ldr	r6, [r4, #12]
 1203 03e8 A661     		str	r6, [r4, #24]
 1204              	.LBE140:
 1205              	.LBE139:
 1206              		.loc 1 287 0
 1207 03ea 002A     		cmp	r2, #0
 1208 03ec CDD1     		bne	.L93
 1209              	.LVL145:
 1210              	.L212:
 1211 03ee 7546     		mov	r5, lr
 1212              	.LVL146:
 1213              	.L86:
 1214              	.LBB143:
 1215              		.loc 1 322 0
 1216 03f0 2023     		movs	r3, #32
 1217              	.LVL147:
 1218              	@ 322 "../AithonLibrary/ChibiOS/os/hal/platforms/STM32/OTGv1/usb_lld.c" 1
 1219 03f2 83F31188 		msr     BASEPRI, r3
 1220              	@ 0 "" 2
 1221              	.LVL148:
 1222              		.thumb
 1223              	.LBE143:
 1224              		.loc 1 323 0
 1225 03f6 A168     		ldr	r1, [r4, #8]
 1226              	.LVL149:
 1227              		.loc 1 324 0
 1228 03f8 2068     		ldr	r0, [r4, #0]
 1229              		.loc 1 323 0
 1230 03fa 4F19     		adds	r7, r1, r5
 1231              		.loc 1 324 0
 1232 03fc A042     		cmp	r0, r4
 1233              		.loc 1 323 0
 1234 03fe A760     		str	r7, [r4, #8]
 1235              		.loc 1 324 0
 1236 0400 09D0     		beq	.L79
 1237              	.L138:
 1238              	.LVL150:
 1239              	.LBB144:
 1240              	.LBB145:
 1241              		.loc 2 62 0
 1242 0402 0368     		ldr	r3, [r0, #0]
 1243              	.LVL151:
 1244 0404 2360     		str	r3, [r4, #0]
 1245 0406 5C60     		str	r4, [r3, #4]
 1246              	.LBE145:
 1247              	.LBE144:
 1248              		.loc 1 325 0
ARM GAS  /var/folders/ng/s8655sgx1ys_4lf9jzm2w6n00000gn/T//ccNSZnWF.s 			page 23


 1249 0408 FFF7FEFF 		bl	chSchReadyI
 1250              	.LVL152:
 1251 040c C0F82480 		str	r8, [r0, #36]
 1252              		.loc 1 324 0
 1253 0410 2068     		ldr	r0, [r4, #0]
 1254 0412 A042     		cmp	r0, r4
 1255 0414 F5D1     		bne	.L138
 1256              	.LVL153:
 1257              	.L79:
 1258              		.loc 1 326 0
 1259 0416 FFF7FEFF 		bl	chSchRescheduleS
 1260              	.LVL154:
 1261              	.LBB146:
 1262              		.loc 1 327 0
 1263 041a 0023     		movs	r3, #0
 1264              	@ 327 "../AithonLibrary/ChibiOS/os/hal/platforms/STM32/OTGv1/usb_lld.c" 1
 1265 041c 83F31188 		msr     BASEPRI, r3
 1266              	@ 0 "" 2
 1267              	.LVL155:
 1268              		.thumb
 1269 0420 7CE7     		b	.L94
 1270              	.LVL156:
 1271              	.L84:
 1272              	.LBE146:
 1273              	.LBB147:
 1274              		.loc 1 305 0
 1275 0422 002A     		cmp	r2, #0
 1276 0424 E3D0     		beq	.L212
 1277              	.LVL157:
 1278              	.L80:
 1279              		.loc 1 312 0
 1280 0426 A669     		ldr	r6, [r4, #24]
 1281 0428 16F8013B 		ldrb	r3, [r6], #1	@ zero_extendqisi2
 1282              	.LVL158:
 1283              		.loc 1 313 0
 1284 042c B042     		cmp	r0, r6
 1285              		.loc 1 312 0
 1286 042e A661     		str	r6, [r4, #24]
 1287              		.loc 1 314 0
 1288 0430 9CBF     		itt	ls
 1289 0432 E668     		ldrls	r6, [r4, #12]
 1290 0434 A661     		strls	r6, [r4, #24]
 1291              		.loc 1 311 0
 1292 0436 012A     		cmp	r2, #1
 1293 0438 27D0     		beq	.L88
 1294              		.loc 1 312 0
 1295 043a A769     		ldr	r7, [r4, #24]
 1296 043c 17F8015B 		ldrb	r5, [r7], #1	@ zero_extendqisi2
 1297              		.loc 1 313 0
 1298 0440 B842     		cmp	r0, r7
 1299              		.loc 1 312 0
 1300 0442 A761     		str	r7, [r4, #24]
 1301              		.loc 1 314 0
 1302 0444 9CBF     		itt	ls
 1303 0446 E768     		ldrls	r7, [r4, #12]
 1304 0448 A761     		strls	r7, [r4, #24]
 1305              		.loc 1 311 0
ARM GAS  /var/folders/ng/s8655sgx1ys_4lf9jzm2w6n00000gn/T//ccNSZnWF.s 			page 24


 1306 044a 022A     		cmp	r2, #2
 1307              		.loc 1 312 0
 1308 044c 43EA0523 		orr	r3, r3, r5, lsl #8
 1309              	.LVL159:
 1310              		.loc 1 311 0
 1311 0450 1BD0     		beq	.L88
 1312              		.loc 1 312 0
 1313 0452 A769     		ldr	r7, [r4, #24]
 1314 0454 17F8016B 		ldrb	r6, [r7], #1	@ zero_extendqisi2
 1315              		.loc 1 313 0
 1316 0458 B842     		cmp	r0, r7
 1317              		.loc 1 312 0
 1318 045a A761     		str	r7, [r4, #24]
 1319              		.loc 1 314 0
 1320 045c 9CBF     		itt	ls
 1321 045e E768     		ldrls	r7, [r4, #12]
 1322 0460 A761     		strls	r7, [r4, #24]
 1323              		.loc 1 311 0
 1324 0462 032A     		cmp	r2, #3
 1325              		.loc 1 312 0
 1326 0464 43EA0643 		orr	r3, r3, r6, lsl #16
 1327              	.LVL160:
 1328              		.loc 1 311 0
 1329 0468 0FD0     		beq	.L88
 1330              		.loc 1 312 0
 1331 046a A569     		ldr	r5, [r4, #24]
 1332 046c 15F8017B 		ldrb	r7, [r5], #1	@ zero_extendqisi2
 1333              		.loc 1 313 0
 1334 0470 8542     		cmp	r5, r0
 1335              		.loc 1 312 0
 1336 0472 A561     		str	r5, [r4, #24]
 1337              		.loc 1 314 0
 1338 0474 24BF     		itt	cs
 1339 0476 E568     		ldrcs	r5, [r4, #12]
 1340 0478 A561     		strcs	r5, [r4, #24]
 1341              		.loc 1 311 0
 1342 047a 043A     		subs	r2, r2, #4
 1343              	.LVL161:
 1344              		.loc 1 312 0
 1345 047c 43EA0763 		orr	r3, r3, r7, lsl #24
 1346              	.LVL162:
 1347              		.loc 1 311 0
 1348 0480 03D0     		beq	.L88
 1349              	.LVL163:
 1350              	.L92:
 1351              		.loc 1 318 0
 1352 0482 0B60     		str	r3, [r1, #0]
 1353              	.LVL164:
 1354              	.LBE147:
 1355              		.loc 1 287 0
 1356 0484 002A     		cmp	r2, #0
 1357 0486 80D1     		bne	.L93
 1358 0488 B1E7     		b	.L212
 1359              	.LVL165:
 1360              	.L88:
 1361 048a 0022     		movs	r2, #0
 1362 048c F9E7     		b	.L92
ARM GAS  /var/folders/ng/s8655sgx1ys_4lf9jzm2w6n00000gn/T//ccNSZnWF.s 			page 25


 1363              	.LVL166:
 1364              	.L223:
 1365 048e 631C     		adds	r3, r4, #1
 1366 0490 0593     		str	r3, [sp, #20]
 1367              	.LVL167:
 1368              	.L99:
 1369              		.loc 1 504 0
 1370 0492 0120     		movs	r0, #1
 1371 0494 5CE7     		b	.L72
 1372              	.LBE148:
 1373              	.LBE149:
 1374              	.LBE150:
 1375              	.LBE153:
 1376              	.LBE119:
 1377              	.LBE154:
 1378              		.cfi_endproc
 1379              	.LFE136:
 1380              		.size	usb_lld_pump, .-usb_lld_pump
 1381 0496 00BFAFF3 		.section	.text.otg_epin_handler,"ax",%progbits
 1381      0080AFF3 
 1381      0080
 1382              		.align	2
 1383              		.p2align 4,,15
 1384              		.thumb
 1385              		.thumb_func
 1386              		.type	otg_epin_handler, %function
 1387              	otg_epin_handler:
 1388              	.LFB133:
 1389              		.loc 1 548 0
 1390              		.cfi_startproc
 1391              		@ args = 0, pretend = 0, frame = 0
 1392              		@ frame_needed = 0, uses_anonymous_args = 0
 1393              	.LVL168:
 1394 0000 F8B5     		push	{r3, r4, r5, r6, r7, lr}
 1395              	.LCFI4:
 1396              		.cfi_def_cfa_offset 24
 1397              		.cfi_offset 3, -24
 1398              		.cfi_offset 4, -20
 1399              		.cfi_offset 5, -16
 1400              		.cfi_offset 6, -12
 1401              		.cfi_offset 7, -8
 1402              		.cfi_offset 14, -4
 1403              		.loc 1 549 0
 1404 0002 056D     		ldr	r5, [r0, #80]
 1405              	.LVL169:
 1406              		.loc 1 550 0
 1407 0004 05EB4113 		add	r3, r5, r1, lsl #5
 1408              		.loc 1 548 0
 1409 0008 0646     		mov	r6, r0
 1410              		.loc 1 550 0
 1411 000a D3F80849 		ldr	r4, [r3, #2312]
 1412              	.LVL170:
 1413              		.loc 1 552 0
 1414 000e C3F80849 		str	r4, [r3, #2312]
 1415              		.loc 1 557 0
 1416 0012 E307     		lsls	r3, r4, #31
 1417              		.loc 1 548 0
ARM GAS  /var/folders/ng/s8655sgx1ys_4lf9jzm2w6n00000gn/T//ccNSZnWF.s 			page 26


 1418 0014 0F46     		mov	r7, r1
 1419              		.loc 1 557 0
 1420 0016 03D5     		bpl	.L228
 1421              		.loc 1 557 0 is_stmt 0 discriminator 1
 1422 0018 D5F81028 		ldr	r2, [r5, #2064]
 1423 001c D207     		lsls	r2, r2, #31
 1424 001e 1FD4     		bmi	.L246
 1425              	.LVL171:
 1426              	.L228:
 1427              		.loc 1 561 0 is_stmt 1
 1428 0020 2306     		lsls	r3, r4, #24
 1429 0022 06D5     		bpl	.L227
 1430              		.loc 1 562 0 discriminator 1
 1431 0024 0121     		movs	r1, #1
 1432 0026 D5F83408 		ldr	r0, [r5, #2100]
 1433 002a 01FA07F7 		lsl	r7, r1, r7
 1434              		.loc 1 561 0 discriminator 1
 1435 002e 0742     		tst	r7, r0
 1436 0030 00D1     		bne	.L247
 1437              	.L227:
 1438 0032 F8BD     		pop	{r3, r4, r5, r6, r7, pc}
 1439              	.L247:
 1440              	.LBB159:
 1441              		.loc 1 564 0
 1442 0034 2023     		movs	r3, #32
 1443              	.LVL172:
 1444              	@ 564 "../AithonLibrary/ChibiOS/os/hal/platforms/STM32/OTGv1/usb_lld.c" 1
 1445 0036 83F31188 		msr     BASEPRI, r3
 1446              	@ 0 "" 2
 1447              	.LVL173:
 1448              		.thumb
 1449              	.LBE159:
 1450              		.loc 1 565 0
 1451 003a F36D     		ldr	r3, [r6, #92]
 1452              	.LVL174:
 1453              		.loc 1 566 0
 1454 003c D5F83428 		ldr	r2, [r5, #2100]
 1455              	.LBB160:
 1456              	.LBB161:
 1457              		.loc 1 122 0
 1458 0040 706E     		ldr	r0, [r6, #100]
 1459              	.LBE161:
 1460              	.LBE160:
 1461              		.loc 1 565 0
 1462 0042 3B43     		orrs	r3, r3, r7
 1463              		.loc 1 566 0
 1464 0044 22EA0707 		bic	r7, r2, r7
 1465              		.loc 1 565 0
 1466 0048 F365     		str	r3, [r6, #92]
 1467              		.loc 1 566 0
 1468 004a C5F83478 		str	r7, [r5, #2100]
 1469              	.LVL175:
 1470              	.LBB163:
 1471              	.LBB162:
 1472              		.loc 1 122 0
 1473 004e 18B1     		cbz	r0, .L230
 1474              		.loc 1 123 0
ARM GAS  /var/folders/ng/s8655sgx1ys_4lf9jzm2w6n00000gn/T//ccNSZnWF.s 			page 27


 1475 0050 FFF7FEFF 		bl	chSchReadyI
 1476              	.LVL176:
 1477              		.loc 1 124 0
 1478 0054 0020     		movs	r0, #0
 1479 0056 7066     		str	r0, [r6, #100]
 1480              	.L230:
 1481              	.LBE162:
 1482              	.LBE163:
 1483              	.LBB164:
 1484              		.loc 1 568 0
 1485 0058 0023     		movs	r3, #0
 1486              	.LVL177:
 1487              	@ 568 "../AithonLibrary/ChibiOS/os/hal/platforms/STM32/OTGv1/usb_lld.c" 1
 1488 005a 83F31188 		msr     BASEPRI, r3
 1489              	@ 0 "" 2
 1490              	.LVL178:
 1491              		.thumb
 1492 005e F8BD     		pop	{r3, r4, r5, r6, r7, pc}
 1493              	.LVL179:
 1494              	.L246:
 1495              	.LBE164:
 1496              		.loc 1 559 0
 1497 0060 00EB8103 		add	r3, r0, r1, lsl #2
 1498 0064 B0F808E0 		ldrh	lr, [r0, #8]
 1499 0068 DB68     		ldr	r3, [r3, #12]
 1500 006a 0122     		movs	r2, #1
 1501 006c 02FA01F2 		lsl	r2, r2, r1
 1502 0070 2EEA0202 		bic	r2, lr, r2
 1503 0074 0281     		strh	r2, [r0, #8]	@ movhi
 1504 0076 9B68     		ldr	r3, [r3, #8]
 1505 0078 9847     		blx	r3
 1506              	.LVL180:
 1507 007a D1E7     		b	.L228
 1508              		.cfi_endproc
 1509              	.LFE133:
 1510              		.size	otg_epin_handler, .-otg_epin_handler
 1511 007c AFF30080 		.section	.text.Vector14C,"ax",%progbits
 1512              		.align	2
 1513              		.p2align 4,,15
 1514              		.global	Vector14C
 1515              		.thumb
 1516              		.thumb_func
 1517              		.type	Vector14C, %function
 1518              	Vector14C:
 1519              	.LFB137:
 1520              		.loc 1 746 0
 1521              		.cfi_startproc
 1522              		@ args = 0, pretend = 0, frame = 0
 1523              		@ frame_needed = 0, uses_anonymous_args = 0
 1524              	.LVL181:
 1525 0000 70B5     		push	{r4, r5, r6, lr}
 1526              	.LCFI5:
 1527              		.cfi_def_cfa_offset 16
 1528              		.cfi_offset 4, -16
 1529              		.cfi_offset 5, -12
 1530              		.cfi_offset 6, -8
 1531              		.cfi_offset 14, -4
ARM GAS  /var/folders/ng/s8655sgx1ys_4lf9jzm2w6n00000gn/T//ccNSZnWF.s 			page 28


 1532              	.LBB171:
 1533              	.LBB172:
 1534              		.loc 1 607 0
 1535 0002 3E4E     		ldr	r6, .L320
 1536 0004 356D     		ldr	r5, [r6, #80]
 1537              	.LVL182:
 1538              		.loc 1 610 0
 1539 0006 6B69     		ldr	r3, [r5, #20]
 1540 0008 AC69     		ldr	r4, [r5, #24]
 1541 000a 1C40     		ands	r4, r4, r3
 1542              	.LVL183:
 1543              		.loc 1 614 0
 1544 000c E104     		lsls	r1, r4, #19
 1545              		.loc 1 611 0
 1546 000e 6C61     		str	r4, [r5, #20]
 1547              		.loc 1 614 0
 1548 0010 2BD4     		bmi	.L310
 1549              	.L250:
 1550              		.loc 1 620 0
 1551 0012 A204     		lsls	r2, r4, #18
 1552              		.loc 1 621 0
 1553 0014 48BF     		it	mi
 1554 0016 D5F80838 		ldrmi	r3, [r5, #2056]
 1555              		.loc 1 625 0
 1556 001a 2307     		lsls	r3, r4, #28
 1557 001c 04D5     		bpl	.L253
 1558              		.loc 1 626 0
 1559 001e 7068     		ldr	r0, [r6, #4]
 1560 0020 C168     		ldr	r1, [r0, #12]
 1561 0022 09B1     		cbz	r1, .L253
 1562 0024 3548     		ldr	r0, .L320
 1563 0026 8847     		blx	r1
 1564              	.LVL184:
 1565              	.L253:
 1566              		.loc 1 630 0
 1567 0028 E006     		lsls	r0, r4, #27
 1568 002a 29D4     		bmi	.L311
 1569              	.LVL185:
 1570              	.L254:
 1571              		.loc 1 641 0
 1572 002c 6103     		lsls	r1, r4, #13
 1573              		.loc 1 640 0
 1574 002e D5F81858 		ldr	r5, [r5, #2072]
 1575              	.LVL186:
 1576              		.loc 1 641 0
 1577 0032 07D5     		bpl	.L257
 1578              		.loc 1 642 0
 1579 0034 EA07     		lsls	r2, r5, #31
 1580 0036 49D4     		bmi	.L312
 1581              		.loc 1 644 0
 1582 0038 AB07     		lsls	r3, r5, #30
 1583              	.LVL187:
 1584 003a 4DD4     		bmi	.L313
 1585              	.L259:
 1586              		.loc 1 646 0
 1587 003c 6807     		lsls	r0, r5, #29
 1588 003e 51D4     		bmi	.L314
ARM GAS  /var/folders/ng/s8655sgx1ys_4lf9jzm2w6n00000gn/T//ccNSZnWF.s 			page 29


 1589              	.L260:
 1590              		.loc 1 648 0
 1591 0040 2907     		lsls	r1, r5, #28
 1592 0042 55D4     		bmi	.L315
 1593              	.LVL188:
 1594              	.L257:
 1595              		.loc 1 657 0
 1596 0044 2203     		lsls	r2, r4, #12
 1597 0046 07D5     		bpl	.L263
 1598              		.loc 1 658 0
 1599 0048 EB03     		lsls	r3, r5, #15
 1600              	.LVL189:
 1601 004a 32D4     		bmi	.L316
 1602              		.loc 1 660 0
 1603 004c A803     		lsls	r0, r5, #14
 1604 004e 36D4     		bmi	.L317
 1605              	.L265:
 1606              		.loc 1 662 0
 1607 0050 6903     		lsls	r1, r5, #13
 1608 0052 27D4     		bmi	.L318
 1609              	.L266:
 1610              		.loc 1 664 0
 1611 0054 2A03     		lsls	r2, r5, #12
 1612 0056 03D4     		bmi	.L319
 1613              	.LVL190:
 1614              	.L263:
 1615              	.LBE172:
 1616              	.LBE171:
 1617              		.loc 1 753 0
 1618 0058 BDE87040 		pop	{r4, r5, r6, lr}
 1619              		.loc 1 752 0
 1620 005c FFF7FEBF 		b	_port_irq_epilogue
 1621              	.LVL191:
 1622              	.L319:
 1623              	.LBB180:
 1624              	.LBB179:
 1625              		.loc 1 665 0
 1626 0060 2648     		ldr	r0, .L320
 1627 0062 0321     		movs	r1, #3
 1628 0064 FFF7FEFF 		bl	otg_epout_handler
 1629              	.LVL192:
 1630 0068 F6E7     		b	.L263
 1631              	.LVL193:
 1632              	.L310:
 1633              		.loc 1 615 0
 1634 006a 3046     		mov	r0, r6
 1635 006c FFF7FEFF 		bl	_usb_reset
 1636              	.LVL194:
 1637              		.loc 1 616 0
 1638 0070 7368     		ldr	r3, [r6, #4]
 1639 0072 1B68     		ldr	r3, [r3, #0]
 1640 0074 002B     		cmp	r3, #0
 1641 0076 CCD0     		beq	.L250
 1642 0078 3046     		mov	r0, r6
 1643 007a 0021     		movs	r1, #0
 1644 007c 9847     		blx	r3
 1645              	.LVL195:
ARM GAS  /var/folders/ng/s8655sgx1ys_4lf9jzm2w6n00000gn/T//ccNSZnWF.s 			page 30


 1646 007e C8E7     		b	.L250
 1647              	.L311:
 1648              	.LBB173:
 1649              		.loc 1 633 0
 1650 0080 2023     		movs	r3, #32
 1651              	.LVL196:
 1652              	@ 633 "../AithonLibrary/ChibiOS/os/hal/platforms/STM32/OTGv1/usb_lld.c" 1
 1653 0082 83F31188 		msr     BASEPRI, r3
 1654              	@ 0 "" 2
 1655              	.LVL197:
 1656              		.thumb
 1657              	.LBE173:
 1658              		.loc 1 634 0
 1659 0086 AA69     		ldr	r2, [r5, #24]
 1660              	.LBB174:
 1661              	.LBB175:
 1662              		.loc 1 122 0
 1663 0088 706E     		ldr	r0, [r6, #100]
 1664              	.LBE175:
 1665              	.LBE174:
 1666              		.loc 1 634 0
 1667 008a 22F01003 		bic	r3, r2, #16
 1668              	.LVL198:
 1669 008e AB61     		str	r3, [r5, #24]
 1670              	.LVL199:
 1671              	.LBB177:
 1672              	.LBB176:
 1673              		.loc 1 122 0
 1674 0090 20B1     		cbz	r0, .L255
 1675              		.loc 1 123 0
 1676 0092 FFF7FEFF 		bl	chSchReadyI
 1677              	.LVL200:
 1678              		.loc 1 124 0
 1679 0096 1949     		ldr	r1, .L320
 1680 0098 0020     		movs	r0, #0
 1681 009a 4866     		str	r0, [r1, #100]
 1682              	.L255:
 1683              	.LBE176:
 1684              	.LBE177:
 1685              	.LBB178:
 1686              		.loc 1 636 0
 1687 009c 0023     		movs	r3, #0
 1688              	@ 636 "../AithonLibrary/ChibiOS/os/hal/platforms/STM32/OTGv1/usb_lld.c" 1
 1689 009e 83F31188 		msr     BASEPRI, r3
 1690              	@ 0 "" 2
 1691              	.LVL201:
 1692              		.thumb
 1693 00a2 C3E7     		b	.L254
 1694              	.LVL202:
 1695              	.L318:
 1696              	.LBE178:
 1697              		.loc 1 663 0
 1698 00a4 0221     		movs	r1, #2
 1699 00a6 1548     		ldr	r0, .L320
 1700 00a8 FFF7FEFF 		bl	otg_epout_handler
 1701              	.LVL203:
 1702              		.loc 1 664 0
ARM GAS  /var/folders/ng/s8655sgx1ys_4lf9jzm2w6n00000gn/T//ccNSZnWF.s 			page 31


 1703 00ac 2A03     		lsls	r2, r5, #12
 1704 00ae D3D5     		bpl	.L263
 1705 00b0 D6E7     		b	.L319
 1706              	.L316:
 1707              		.loc 1 659 0
 1708 00b2 1248     		ldr	r0, .L320
 1709 00b4 0021     		movs	r1, #0
 1710 00b6 FFF7FEFF 		bl	otg_epout_handler
 1711              	.LVL204:
 1712              		.loc 1 660 0
 1713 00ba A803     		lsls	r0, r5, #14
 1714 00bc C8D5     		bpl	.L265
 1715              	.L317:
 1716              		.loc 1 661 0
 1717 00be 0121     		movs	r1, #1
 1718 00c0 0E48     		ldr	r0, .L320
 1719 00c2 FFF7FEFF 		bl	otg_epout_handler
 1720              	.LVL205:
 1721              		.loc 1 662 0
 1722 00c6 6903     		lsls	r1, r5, #13
 1723 00c8 C4D5     		bpl	.L266
 1724 00ca EBE7     		b	.L318
 1725              	.LVL206:
 1726              	.L312:
 1727              		.loc 1 643 0
 1728 00cc 0021     		movs	r1, #0
 1729 00ce 0B48     		ldr	r0, .L320
 1730 00d0 FFF7FEFF 		bl	otg_epin_handler
 1731              	.LVL207:
 1732              		.loc 1 644 0
 1733 00d4 AB07     		lsls	r3, r5, #30
 1734 00d6 B1D5     		bpl	.L259
 1735              	.L313:
 1736              		.loc 1 645 0
 1737 00d8 0848     		ldr	r0, .L320
 1738 00da 0121     		movs	r1, #1
 1739 00dc FFF7FEFF 		bl	otg_epin_handler
 1740              	.LVL208:
 1741              		.loc 1 646 0
 1742 00e0 6807     		lsls	r0, r5, #29
 1743 00e2 ADD5     		bpl	.L260
 1744              	.L314:
 1745              		.loc 1 647 0
 1746 00e4 0221     		movs	r1, #2
 1747 00e6 0548     		ldr	r0, .L320
 1748 00e8 FFF7FEFF 		bl	otg_epin_handler
 1749              	.LVL209:
 1750              		.loc 1 648 0
 1751 00ec 2907     		lsls	r1, r5, #28
 1752 00ee A9D5     		bpl	.L257
 1753              	.L315:
 1754              		.loc 1 649 0
 1755 00f0 0248     		ldr	r0, .L320
 1756 00f2 0321     		movs	r1, #3
 1757 00f4 FFF7FEFF 		bl	otg_epin_handler
 1758              	.LVL210:
 1759 00f8 A4E7     		b	.L257
ARM GAS  /var/folders/ng/s8655sgx1ys_4lf9jzm2w6n00000gn/T//ccNSZnWF.s 			page 32


 1760              	.L321:
 1761 00fa 00BF     		.align	2
 1762              	.L320:
 1763 00fc 00000000 		.word	.LANCHOR0
 1764              	.LBE179:
 1765              	.LBE180:
 1766              		.cfi_endproc
 1767              	.LFE137:
 1768              		.size	Vector14C, .-Vector14C
 1769              		.section	.text.usb_lld_init,"ax",%progbits
 1770              		.align	2
 1771              		.p2align 4,,15
 1772              		.global	usb_lld_init
 1773              		.thumb
 1774              		.thumb_func
 1775              		.type	usb_lld_init, %function
 1776              	usb_lld_init:
 1777              	.LFB138:
 1778              		.loc 1 784 0
 1779              		.cfi_startproc
 1780              		@ args = 0, pretend = 0, frame = 0
 1781              		@ frame_needed = 0, uses_anonymous_args = 0
 1782 0000 10B5     		push	{r4, lr}
 1783              	.LCFI6:
 1784              		.cfi_def_cfa_offset 8
 1785              		.cfi_offset 4, -8
 1786              		.cfi_offset 14, -4
 1787              		.loc 1 788 0
 1788 0002 40F20004 		movw	r4, #:lower16:.LANCHOR0
 1789 0006 C0F20004 		movt	r4, #:upper16:.LANCHOR0
 1790 000a 2046     		mov	r0, r4
 1791 000c FFF7FEFF 		bl	usbObjectInit
 1792              	.LVL211:
 1793              		.loc 1 792 0
 1794 0010 40F20001 		movw	r1, #:lower16:.LANCHOR1
 1795              		.loc 1 789 0
 1796 0014 0023     		movs	r3, #0
 1797              		.loc 1 791 0
 1798 0016 4FF0A040 		mov	r0, #1342177280
 1799              		.loc 1 792 0
 1800 001a C0F20001 		movt	r1, #:upper16:.LANCHOR1
 1801              		.loc 1 789 0
 1802 001e 2366     		str	r3, [r4, #96]
 1803              		.loc 1 790 0
 1804 0020 6366     		str	r3, [r4, #100]
 1805              		.loc 1 791 0
 1806 0022 2065     		str	r0, [r4, #80]
 1807              		.loc 1 792 0
 1808 0024 6165     		str	r1, [r4, #84]
 1809 0026 10BD     		pop	{r4, pc}
 1810              		.cfi_endproc
 1811              	.LFE138:
 1812              		.size	usb_lld_init, .-usb_lld_init
 1813 0028 AFF30080 		.section	.text.usb_lld_start,"ax",%progbits
 1813      AFF30080 
 1814              		.align	2
 1815              		.p2align 4,,15
ARM GAS  /var/folders/ng/s8655sgx1ys_4lf9jzm2w6n00000gn/T//ccNSZnWF.s 			page 33


 1816              		.global	usb_lld_start
 1817              		.thumb
 1818              		.thumb_func
 1819              		.type	usb_lld_start, %function
 1820              	usb_lld_start:
 1821              	.LFB139:
 1822              		.loc 1 842 0
 1823              		.cfi_startproc
 1824              		@ args = 0, pretend = 0, frame = 0
 1825              		@ frame_needed = 0, uses_anonymous_args = 0
 1826              	.LVL212:
 1827 0000 70B5     		push	{r4, r5, r6, lr}
 1828              	.LCFI7:
 1829              		.cfi_def_cfa_offset 16
 1830              		.cfi_offset 4, -16
 1831              		.cfi_offset 5, -12
 1832              		.cfi_offset 6, -8
 1833              		.cfi_offset 14, -4
 1834              		.loc 1 845 0
 1835 0002 0378     		ldrb	r3, [r0, #0]	@ zero_extendqisi2
 1836              		.loc 1 843 0
 1837 0004 056D     		ldr	r5, [r0, #80]
 1838              	.LVL213:
 1839              		.loc 1 845 0
 1840 0006 012B     		cmp	r3, #1
 1841              		.loc 1 842 0
 1842 0008 82B0     		sub	sp, sp, #8
 1843              	.LCFI8:
 1844              		.cfi_def_cfa_offset 24
 1845              		.loc 1 842 0
 1846 000a 0646     		mov	r6, r0
 1847              		.loc 1 845 0
 1848 000c 01D0     		beq	.L333
 1849              	.LVL214:
 1850              	.L323:
 1851              		.loc 1 924 0
 1852 000e 02B0     		add	sp, sp, #8
 1853 0010 70BD     		pop	{r4, r5, r6, pc}
 1854              	.LVL215:
 1855              	.L333:
 1856              		.loc 1 848 0
 1857 0012 3148     		ldr	r0, .L337
 1858              	.LVL216:
 1859 0014 8642     		cmp	r6, r0
 1860 0016 4CD0     		beq	.L334
 1861              	.L325:
 1862              		.loc 1 873 0
 1863 0018 316E     		ldr	r1, [r6, #96]
 1864              		.loc 1 872 0
 1865 001a 0024     		movs	r4, #0
 1866 001c F465     		str	r4, [r6, #92]
 1867              		.loc 1 873 0
 1868 001e 0029     		cmp	r1, #0
 1869 0020 3BD0     		beq	.L335
 1870              	.L326:
 1871              		.loc 1 883 0
 1872 0022 4FF4A250 		mov	r0, #5184
ARM GAS  /var/folders/ng/s8655sgx1ys_4lf9jzm2w6n00000gn/T//ccNSZnWF.s 			page 34


 1873              		.loc 1 886 0
 1874 0026 0323     		movs	r3, #3
 1875              		.loc 1 883 0
 1876 0028 C4F20000 		movt	r0, 16384
 1877              		.loc 1 886 0
 1878 002c C0F22023 		movt	r3, 544
 1879              		.loc 1 889 0
 1880 0030 0022     		movs	r2, #0
 1881              		.loc 1 896 0
 1882 0032 4FF45021 		mov	r1, #851968
 1883              		.loc 1 883 0
 1884 0036 E860     		str	r0, [r5, #12]
 1885              	.LBB183:
 1886              	.LBB184:
 1887              		.loc 1 129 0
 1888 0038 346D     		ldr	r4, [r6, #80]
 1889              	.LBE184:
 1890              	.LBE183:
 1891              		.loc 1 886 0
 1892 003a C5F80038 		str	r3, [r5, #2048]
 1893              	.LBB187:
 1894              	.LBB185:
 1895              		.loc 1 131 0
 1896 003e 2020     		movs	r0, #32
 1897              	.LBE185:
 1898              	.LBE187:
 1899              		.loc 1 889 0
 1900 0040 C5F8002E 		str	r2, [r5, #3584]
 1901              		.loc 1 896 0
 1902 0044 A963     		str	r1, [r5, #56]
 1903              	.LVL217:
 1904              	.LBB188:
 1905              	.LBB186:
 1906              		.loc 1 131 0
 1907 0046 FFF7FEFF 		bl	halPolledDelay
 1908              	.LVL218:
 1909              		.loc 1 134 0
 1910 004a 0120     		movs	r0, #1
 1911 004c 2061     		str	r0, [r4, #16]
 1912              	.L327:
 1913              		.loc 1 135 0
 1914 004e 2369     		ldr	r3, [r4, #16]
 1915 0050 D807     		lsls	r0, r3, #31
 1916 0052 FCD4     		bmi	.L327
 1917              		.loc 1 138 0
 1918 0054 0C20     		movs	r0, #12
 1919 0056 FFF7FEFF 		bl	halPolledDelay
 1920              	.LVL219:
 1921              	.L328:
 1922              		.loc 1 141 0
 1923 005a 2269     		ldr	r2, [r4, #16]
 1924 005c 002A     		cmp	r2, #0
 1925 005e FCDA     		bge	.L328
 1926              	.LBE186:
 1927              	.LBE188:
 1928              		.loc 1 903 0
 1929 0060 0024     		movs	r4, #0
ARM GAS  /var/folders/ng/s8655sgx1ys_4lf9jzm2w6n00000gn/T//ccNSZnWF.s 			page 35


 1930              	.LVL220:
 1931              		.loc 1 906 0
 1932 0062 3046     		mov	r0, r6
 1933              		.loc 1 903 0
 1934 0064 AC60     		str	r4, [r5, #8]
 1935              		.loc 1 906 0
 1936 0066 FFF7FEFF 		bl	otg_disable_ep
 1937              	.LVL221:
 1938              		.loc 1 913 0
 1939 006a 7168     		ldr	r1, [r6, #4]
 1940              		.loc 1 910 0
 1941 006c C5F81048 		str	r4, [r5, #2064]
 1942              		.loc 1 913 0
 1943 0070 C868     		ldr	r0, [r1, #12]
 1944              		.loc 1 911 0
 1945 0072 C5F81448 		str	r4, [r5, #2068]
 1946              		.loc 1 912 0
 1947 0076 C5F81C48 		str	r4, [r5, #2076]
 1948              		.loc 1 913 0
 1949 007a 50B1     		cbz	r0, .L336
 1950              		.loc 1 917 0
 1951 007c 43F20803 		movw	r3, #12296
 1952 0080 AB61     		str	r3, [r5, #24]
 1953              	.L330:
 1954              		.loc 1 919 0
 1955 0082 4FF0FF31 		mov	r1, #-1
 1956 0086 6961     		str	r1, [r5, #20]
 1957              		.loc 1 922 0
 1958 0088 A868     		ldr	r0, [r5, #8]
 1959 008a 40F00103 		orr	r3, r0, #1
 1960 008e AB60     		str	r3, [r5, #8]
 1961 0090 BDE7     		b	.L323
 1962              	.L336:
 1963              		.loc 1 914 0
 1964 0092 4FF44052 		mov	r2, #12288
 1965 0096 AA61     		str	r2, [r5, #24]
 1966 0098 F3E7     		b	.L330
 1967              	.LVL222:
 1968              	.L335:
 1969              		.loc 1 874 0
 1970 009a 0096     		str	r6, [sp, #0]
 1971 009c 06F16800 		add	r0, r6, #104
 1972 00a0 4FF4DC71 		mov	r1, #440
 1973 00a4 0222     		movs	r2, #2
 1974 00a6 0D4B     		ldr	r3, .L337+4
 1975 00a8 FFF7FEFF 		bl	chThdCreateI
 1976              	.LVL223:
 1977 00ac 7066     		str	r0, [r6, #100]
 1978 00ae 3066     		str	r0, [r6, #96]
 1979 00b0 B7E7     		b	.L326
 1980              	.L334:
 1981              		.loc 1 850 0
 1982 00b2 4FF46051 		mov	r1, #14336
 1983 00b6 C4F20201 		movt	r1, 16386
 1984 00ba 4A6B     		ldr	r2, [r1, #52]
 1985 00bc 42F08004 		orr	r4, r2, #128
 1986 00c0 4C63     		str	r4, [r1, #52]
ARM GAS  /var/folders/ng/s8655sgx1ys_4lf9jzm2w6n00000gn/T//ccNSZnWF.s 			page 36


 1987              		.loc 1 851 0
 1988 00c2 4B69     		ldr	r3, [r1, #20]
 1989 00c4 0022     		movs	r2, #0
 1990 00c6 43F08000 		orr	r0, r3, #128
 1991 00ca 4861     		str	r0, [r1, #20]
 1992 00cc 4A61     		str	r2, [r1, #20]
 1993              		.loc 1 854 0
 1994 00ce 4320     		movs	r0, #67
 1995 00d0 E021     		movs	r1, #224
 1996 00d2 FFF7FEFF 		bl	nvicEnableVector
 1997              	.LVL224:
 1998 00d6 9FE7     		b	.L325
 1999              	.L338:
 2000              		.align	2
 2001              	.L337:
 2002 00d8 00000000 		.word	.LANCHOR0
 2003 00dc 00000000 		.word	usb_lld_pump
 2004              		.cfi_endproc
 2005              	.LFE139:
 2006              		.size	usb_lld_start, .-usb_lld_start
 2007              		.section	.text.usb_lld_stop,"ax",%progbits
 2008              		.align	2
 2009              		.p2align 4,,15
 2010              		.global	usb_lld_stop
 2011              		.thumb
 2012              		.thumb_func
 2013              		.type	usb_lld_stop, %function
 2014              	usb_lld_stop:
 2015              	.LFB140:
 2016              		.loc 1 933 0
 2017              		.cfi_startproc
 2018              		@ args = 0, pretend = 0, frame = 0
 2019              		@ frame_needed = 0, uses_anonymous_args = 0
 2020              	.LVL225:
 2021 0000 38B5     		push	{r3, r4, r5, lr}
 2022              	.LCFI9:
 2023              		.cfi_def_cfa_offset 16
 2024              		.cfi_offset 3, -16
 2025              		.cfi_offset 4, -12
 2026              		.cfi_offset 5, -8
 2027              		.cfi_offset 14, -4
 2028              		.loc 1 937 0
 2029 0002 0378     		ldrb	r3, [r0, #0]	@ zero_extendqisi2
 2030              		.loc 1 934 0
 2031 0004 056D     		ldr	r5, [r0, #80]
 2032              	.LVL226:
 2033              		.loc 1 937 0
 2034 0006 012B     		cmp	r3, #1
 2035              		.loc 1 933 0
 2036 0008 0446     		mov	r4, r0
 2037              		.loc 1 937 0
 2038 000a 07D0     		beq	.L339
 2039              		.loc 1 941 0
 2040 000c FFF7FEFF 		bl	otg_disable_ep
 2041              	.LVL227:
 2042              		.loc 1 943 0
 2043 0010 0020     		movs	r0, #0
ARM GAS  /var/folders/ng/s8655sgx1ys_4lf9jzm2w6n00000gn/T//ccNSZnWF.s 			page 37


 2044 0012 E065     		str	r0, [r4, #92]
 2045              		.loc 1 945 0
 2046 0014 C5F81C08 		str	r0, [r5, #2076]
 2047              		.loc 1 946 0
 2048 0018 A860     		str	r0, [r5, #8]
 2049              		.loc 1 947 0
 2050 001a A863     		str	r0, [r5, #56]
 2051              	.L339:
 2052 001c 38BD     		pop	{r3, r4, r5, pc}
 2053              		.cfi_endproc
 2054              	.LFE140:
 2055              		.size	usb_lld_stop, .-usb_lld_stop
 2056 001e 00BF     		.section	.text.usb_lld_reset,"ax",%progbits
 2057              		.align	2
 2058              		.p2align 4,,15
 2059              		.global	usb_lld_reset
 2060              		.thumb
 2061              		.thumb_func
 2062              		.type	usb_lld_reset, %function
 2063              	usb_lld_reset:
 2064              	.LFB141:
 2065              		.loc 1 972 0
 2066              		.cfi_startproc
 2067              		@ args = 0, pretend = 0, frame = 0
 2068              		@ frame_needed = 0, uses_anonymous_args = 0
 2069              	.LVL228:
 2070 0000 2DE9F84F 		push	{r3, r4, r5, r6, r7, r8, r9, sl, fp, lr}
 2071              	.LCFI10:
 2072              		.cfi_def_cfa_offset 40
 2073              		.cfi_offset 3, -40
 2074              		.cfi_offset 4, -36
 2075              		.cfi_offset 5, -32
 2076              		.cfi_offset 6, -28
 2077              		.cfi_offset 7, -24
 2078              		.cfi_offset 8, -20
 2079              		.cfi_offset 9, -16
 2080              		.cfi_offset 10, -12
 2081              		.cfi_offset 11, -8
 2082              		.cfi_offset 14, -4
 2083              		.loc 1 972 0
 2084 0004 8046     		mov	r8, r0
 2085              		.loc 1 977 0
 2086 0006 0021     		movs	r1, #0
 2087              		.loc 1 974 0
 2088 0008 046D     		ldr	r4, [r0, #80]
 2089              	.LVL229:
 2090              		.loc 1 977 0
 2091 000a FFF7FEFF 		bl	otg_txfifo_flush
 2092              	.LVL230:
 2093 000e D8F854B0 		ldr	fp, [r8, #84]
 2094 0012 DBF808A0 		ldr	sl, [fp, #8]
 2095              		.loc 1 981 0
 2096 0016 4FF00061 		mov	r1, #134217728
 2097              		.loc 1 983 0
 2098 001a FF22     		movs	r2, #255
 2099              		.loc 1 981 0
 2100 001c C4F80019 		str	r1, [r4, #2304]
ARM GAS  /var/folders/ng/s8655sgx1ys_4lf9jzm2w6n00000gn/T//ccNSZnWF.s 			page 38


 2101 0020 0AF00106 		and	r6, sl, #1
 2102              		.loc 1 982 0
 2103 0024 C4F8001B 		str	r1, [r4, #2816]
 2104              		.loc 1 980 0
 2105 0028 0123     		movs	r3, #1
 2106              		.loc 1 983 0
 2107 002a C4F80829 		str	r2, [r4, #2312]
 2108              		.loc 1 984 0
 2109 002e C4F8082B 		str	r2, [r4, #2824]
 2110              		.loc 1 980 0
 2111 0032 BAF1000F 		cmp	sl, #0
 2112 0036 33D0     		beq	.L355
 2113 0038 66B1     		cbz	r6, .L345
 2114 003a 0223     		movs	r3, #2
 2115 003c 5345     		cmp	r3, sl
 2116              		.loc 1 981 0
 2117 003e C4F82019 		str	r1, [r4, #2336]
 2118 0042 04F51267 		add	r7, r4, #2336
 2119              		.loc 1 982 0
 2120 0046 C4F8201B 		str	r1, [r4, #2848]
 2121              		.loc 1 983 0
 2122 004a C4F82829 		str	r2, [r4, #2344]
 2123              		.loc 1 984 0
 2124 004e C4F8282B 		str	r2, [r4, #2856]
 2125              		.loc 1 980 0
 2126 0052 25D8     		bhi	.L355
 2127              	.L345:
 2128              		.loc 1 980 0 is_stmt 0 discriminator 2
 2129 0054 5F1C     		adds	r7, r3, #1
 2130              		.loc 1 981 0 is_stmt 1 discriminator 2
 2131 0056 03F14809 		add	r9, r3, #72
 2132              		.loc 1 982 0 discriminator 2
 2133 005a 03F15800 		add	r0, r3, #88
 2134              		.loc 1 981 0 discriminator 2
 2135 005e 03F1490C 		add	ip, r3, #73
 2136              		.loc 1 982 0 discriminator 2
 2137 0062 03F1590E 		add	lr, r3, #89
 2138              		.loc 1 983 0 discriminator 2
 2139 0066 04EB4316 		add	r6, r4, r3, lsl #5
 2140 006a 04EB4715 		add	r5, r4, r7, lsl #5
 2141              		.loc 1 982 0 discriminator 2
 2142 006e 4001     		lsls	r0, r0, #5
 2143              		.loc 1 981 0 discriminator 2
 2144 0070 4FEA4919 		lsl	r9, r9, #5
 2145 0074 4FEA4C1C 		lsl	ip, ip, #5
 2146              		.loc 1 982 0 discriminator 2
 2147 0078 4FEA4E1E 		lsl	lr, lr, #5
 2148              		.loc 1 980 0 discriminator 2
 2149 007c 0233     		adds	r3, r3, #2
 2150 007e 5345     		cmp	r3, sl
 2151              		.loc 1 981 0 discriminator 2
 2152 0080 44F80910 		str	r1, [r4, r9]
 2153              		.loc 1 982 0 discriminator 2
 2154 0084 2150     		str	r1, [r4, r0]
 2155              		.loc 1 983 0 discriminator 2
 2156 0086 C6F80829 		str	r2, [r6, #2312]
 2157              		.loc 1 984 0 discriminator 2
ARM GAS  /var/folders/ng/s8655sgx1ys_4lf9jzm2w6n00000gn/T//ccNSZnWF.s 			page 39


 2158 008a C6F8082B 		str	r2, [r6, #2824]
 2159              		.loc 1 981 0 discriminator 2
 2160 008e 44F80C10 		str	r1, [r4, ip]
 2161              		.loc 1 982 0 discriminator 2
 2162 0092 44F80E10 		str	r1, [r4, lr]
 2163              		.loc 1 983 0 discriminator 2
 2164 0096 C5F80829 		str	r2, [r5, #2312]
 2165              		.loc 1 984 0 discriminator 2
 2166 009a C5F8082B 		str	r2, [r5, #2824]
 2167              		.loc 1 980 0 discriminator 2
 2168 009e D9D9     		bls	.L345
 2169              	.L355:
 2170              	.LBB195:
 2171              	.LBB196:
 2172              		.loc 1 211 0
 2173 00a0 DBF80030 		ldr	r3, [fp, #0]
 2174              	.LBE196:
 2175              	.LBE195:
 2176              	.LBB198:
 2177              	.LBB199:
 2178              		.loc 1 183 0
 2179 00a4 D8F85020 		ldr	r2, [r8, #80]
 2180              	.LBE199:
 2181              	.LBE198:
 2182              		.loc 1 988 0
 2183 00a8 4FF0FF31 		mov	r1, #-1
 2184              		.loc 1 989 0
 2185 00ac 4FF00116 		mov	r6, #65537
 2186              	.LBB202:
 2187              	.LBB200:
 2188              		.loc 1 185 0
 2189 00b0 1025     		movs	r5, #16
 2190              	.LBE200:
 2191              	.LBE202:
 2192              		.loc 1 988 0
 2193 00b2 C4F81818 		str	r1, [r4, #2072]
 2194              		.loc 1 989 0
 2195 00b6 C4F81C68 		str	r6, [r4, #2076]
 2196              	.LVL231:
 2197              	.LBB203:
 2198              	.LBB197:
 2199              		.loc 1 211 0
 2200 00ba C8F85830 		str	r3, [r8, #88]
 2201              	.LBE197:
 2202              	.LBE203:
 2203              		.loc 1 995 0
 2204 00be 6362     		str	r3, [r4, #36]
 2205              	.LVL232:
 2206              	.LBB204:
 2207              	.LBB201:
 2208              		.loc 1 185 0
 2209 00c0 1561     		str	r5, [r2, #16]
 2210              	.L346:
 2211              		.loc 1 186 0
 2212 00c2 1069     		ldr	r0, [r2, #16]
 2213 00c4 10F01005 		ands	r5, r0, #16
 2214 00c8 FBD1     		bne	.L346
ARM GAS  /var/folders/ng/s8655sgx1ys_4lf9jzm2w6n00000gn/T//ccNSZnWF.s 			page 40


 2215              		.loc 1 189 0
 2216 00ca 0C20     		movs	r0, #12
 2217 00cc FFF7FEFF 		bl	halPolledDelay
 2218              	.LVL233:
 2219              	.LBE201:
 2220              	.LBE204:
 2221              		.loc 1 999 0
 2222 00d0 D4F80038 		ldr	r3, [r4, #2048]
 2223              	.LBB205:
 2224              	.LBB206:
 2225              		.loc 1 225 0
 2226 00d4 D8F85810 		ldr	r1, [r8, #88]
 2227              	.LBE206:
 2228              	.LBE205:
 2229              		.loc 1 999 0
 2230 00d8 23F4FE62 		bic	r2, r3, #2032
 2231 00dc C4F80028 		str	r2, [r4, #2048]
 2232              		.loc 1 1002 0
 2233 00e0 A669     		ldr	r6, [r4, #24]
 2234 00e2 46F44020 		orr	r0, r6, #786432
 2235              		.loc 1 1003 0
 2236 00e6 0922     		movs	r2, #9
 2237              		.loc 1 1002 0
 2238 00e8 40F01006 		orr	r6, r0, #16
 2239 00ec A661     		str	r6, [r4, #24]
 2240              		.loc 1 1009 0
 2241 00ee 48F24003 		movw	r3, #32832
 2242              		.loc 1 1003 0
 2243 00f2 C4F81028 		str	r2, [r4, #2064]
 2244              		.loc 1 1004 0
 2245 00f6 C4F81428 		str	r2, [r4, #2068]
 2246              		.loc 1 1007 0
 2247 00fa 0B4A     		ldr	r2, .L356
 2248              		.loc 1 1009 0
 2249 00fc C1F20003 		movt	r3, 4096
 2250              	.LBB209:
 2251              	.LBB207:
 2252              		.loc 1 226 0
 2253 0100 01F11000 		add	r0, r1, #16
 2254              	.LBE207:
 2255              	.LBE209:
 2256              		.loc 1 1014 0
 2257 0104 41F48011 		orr	r1, r1, #1048576
 2258              		.loc 1 1007 0
 2259 0108 C8F80C20 		str	r2, [r8, #12]
 2260              		.loc 1 1008 0
 2261 010c C4F8105B 		str	r5, [r4, #2832]
 2262              		.loc 1 1009 0
 2263 0110 C4F8003B 		str	r3, [r4, #2816]
 2264              		.loc 1 1011 0
 2265 0114 C4F81059 		str	r5, [r4, #2320]
 2266              		.loc 1 1012 0
 2267 0118 C4F80039 		str	r3, [r4, #2304]
 2268              	.LVL234:
 2269              	.LBB210:
 2270              	.LBB208:
 2271              		.loc 1 226 0
ARM GAS  /var/folders/ng/s8655sgx1ys_4lf9jzm2w6n00000gn/T//ccNSZnWF.s 			page 41


 2272 011c C8F85800 		str	r0, [r8, #88]
 2273              	.LBE208:
 2274              	.LBE210:
 2275              		.loc 1 1014 0
 2276 0120 A162     		str	r1, [r4, #40]
 2277 0122 BDE8F88F 		pop	{r3, r4, r5, r6, r7, r8, r9, sl, fp, pc}
 2278              	.L357:
 2279 0126 00BF     		.align	2
 2280              	.L356:
 2281 0128 00000000 		.word	.LANCHOR2
 2282              		.cfi_endproc
 2283              	.LFE141:
 2284              		.size	usb_lld_reset, .-usb_lld_reset
 2285 012c AFF30080 		.section	.text.usb_lld_set_address,"ax",%progbits
 2286              		.align	2
 2287              		.p2align 4,,15
 2288              		.global	usb_lld_set_address
 2289              		.thumb
 2290              		.thumb_func
 2291              		.type	usb_lld_set_address, %function
 2292              	usb_lld_set_address:
 2293              	.LFB142:
 2294              		.loc 1 1026 0
 2295              		.cfi_startproc
 2296              		@ args = 0, pretend = 0, frame = 0
 2297              		@ frame_needed = 0, uses_anonymous_args = 0
 2298              		@ link register save eliminated.
 2299              	.LVL235:
 2300              		.loc 1 1027 0
 2301 0000 036D     		ldr	r3, [r0, #80]
 2302              	.LVL236:
 2303              		.loc 1 1029 0
 2304 0002 90F84E10 		ldrb	r1, [r0, #78]	@ zero_extendqisi2
 2305 0006 D3F80028 		ldr	r2, [r3, #2048]
 2306 000a 22F4FE60 		bic	r0, r2, #2032
 2307              	.LVL237:
 2308 000e 40EA0111 		orr	r1, r0, r1, lsl #4
 2309 0012 C3F80018 		str	r1, [r3, #2048]
 2310 0016 7047     		bx	lr
 2311              		.cfi_endproc
 2312              	.LFE142:
 2313              		.size	usb_lld_set_address, .-usb_lld_set_address
 2314 0018 AFF30080 		.section	.text.usb_lld_init_endpoint,"ax",%progbits
 2314      AFF30080 
 2315              		.align	2
 2316              		.p2align 4,,15
 2317              		.global	usb_lld_init_endpoint
 2318              		.thumb
 2319              		.thumb_func
 2320              		.type	usb_lld_init_endpoint, %function
 2321              	usb_lld_init_endpoint:
 2322              	.LFB143:
 2323              		.loc 1 1040 0
 2324              		.cfi_startproc
 2325              		@ args = 0, pretend = 0, frame = 0
 2326              		@ frame_needed = 0, uses_anonymous_args = 0
 2327              	.LVL238:
ARM GAS  /var/folders/ng/s8655sgx1ys_4lf9jzm2w6n00000gn/T//ccNSZnWF.s 			page 42


 2328 0000 2DE9F041 		push	{r4, r5, r6, r7, r8, lr}
 2329              	.LCFI11:
 2330              		.cfi_def_cfa_offset 24
 2331              		.cfi_offset 4, -24
 2332              		.cfi_offset 5, -20
 2333              		.cfi_offset 6, -16
 2334              		.cfi_offset 7, -12
 2335              		.cfi_offset 8, -8
 2336              		.cfi_offset 14, -4
 2337              		.loc 1 1045 0
 2338 0004 8F1C     		adds	r7, r1, #2
 2339 0006 00EB8703 		add	r3, r0, r7, lsl #2
 2340              		.loc 1 1040 0
 2341 000a 0646     		mov	r6, r0
 2342              		.loc 1 1045 0
 2343 000c 5B68     		ldr	r3, [r3, #4]
 2344              		.loc 1 1042 0
 2345 000e 046D     		ldr	r4, [r0, #80]
 2346              	.LVL239:
 2347              		.loc 1 1045 0
 2348 0010 1A68     		ldr	r2, [r3, #0]
 2349 0012 02F00300 		and	r0, r2, #3
 2350              	.LVL240:
 2351 0016 0228     		cmp	r0, #2
 2352              		.loc 1 1040 0
 2353 0018 0D46     		mov	r5, r1
 2354              		.loc 1 1053 0
 2355 001a 4FF40048 		mov	r8, #32768
 2356              		.loc 1 1045 0
 2357 001e 54D0     		beq	.L362
 2358 0020 0328     		cmp	r0, #3
 2359 0022 55D0     		beq	.L363
 2360              		.loc 1 1047 0
 2361 0024 4146     		mov	r1, r8
 2362              	.LVL241:
 2363 0026 C1F20001 		movt	r1, 4096
 2364 002a C1F20408 		movt	r8, 4100
 2365 002e 0128     		cmp	r0, #1
 2366 0030 18BF     		it	ne
 2367 0032 8846     		movne	r8, r1
 2368              	.L361:
 2369              	.LVL242:
 2370              		.loc 1 1063 0
 2371 0034 6A01     		lsls	r2, r5, #5
 2372 0036 A018     		adds	r0, r4, r2
 2373 0038 0021     		movs	r1, #0
 2374 003a C0F8101B 		str	r1, [r0, #2832]
 2375              		.loc 1 1064 0
 2376 003e D868     		ldr	r0, [r3, #12]
 2377 0040 0028     		cmp	r0, #0
 2378 0042 48D0     		beq	.L364
 2379              		.loc 1 1065 0
 2380 0044 588A     		ldrh	r0, [r3, #18]
 2381 0046 05F15801 		add	r1, r5, #88
 2382 004a 4901     		lsls	r1, r1, #5
 2383 004c 48EA0000 		orr	r0, r8, r0
 2384 0050 6050     		str	r0, [r4, r1]
ARM GAS  /var/folders/ng/s8655sgx1ys_4lf9jzm2w6n00000gn/T//ccNSZnWF.s 			page 43


 2385              		.loc 1 1066 0
 2386 0052 4FF0010C 		mov	ip, #1
 2387 0056 D4F81C08 		ldr	r0, [r4, #2076]
 2388 005a 05F11001 		add	r1, r5, #16
 2389 005e 0CFA01F1 		lsl	r1, ip, r1
 2390 0062 0143     		orrs	r1, r1, r0
 2391 0064 C4F81C18 		str	r1, [r4, #2076]
 2392              	.L365:
 2393              		.loc 1 1074 0
 2394 0068 A218     		adds	r2, r4, r2
 2395              		.loc 1 1075 0
 2396 006a 9968     		ldr	r1, [r3, #8]
 2397              		.loc 1 1074 0
 2398 006c 0020     		movs	r0, #0
 2399 006e C2F81009 		str	r0, [r2, #2320]
 2400              		.loc 1 1075 0
 2401 0072 0029     		cmp	r1, #0
 2402 0074 42D0     		beq	.L366
 2403              		.loc 1 1078 0
 2404 0076 9A8B     		ldrh	r2, [r3, #28]
 2405              		.loc 1 1077 0
 2406 0078 198A     		ldrh	r1, [r3, #16]
 2407 007a 8B08     		lsrs	r3, r1, #2
 2408              	.LVL243:
 2409              		.loc 1 1078 0
 2410 007c 012A     		cmp	r2, #1
 2411              		.loc 1 1079 0
 2412 007e 88BF     		it	hi
 2413 0080 5343     		mulhi	r3, r2, r3
 2414              	.LVL244:
 2415              	.LBB211:
 2416              	.LBB212:
 2417              		.loc 1 225 0
 2418 0082 B26D     		ldr	r2, [r6, #88]
 2419              	.LVL245:
 2420              	.LBE212:
 2421              	.LBE211:
 2422              		.loc 1 1080 0
 2423 0084 05F13F00 		add	r0, r5, #63
 2424 0088 04EB8001 		add	r1, r4, r0, lsl #2
 2425              	.LBB214:
 2426              	.LBB213:
 2427              		.loc 1 226 0
 2428 008c 9818     		adds	r0, r3, r2
 2429 008e B065     		str	r0, [r6, #88]
 2430              	.LBE213:
 2431              	.LBE214:
 2432              		.loc 1 1080 0
 2433 0090 42EA0343 		orr	r3, r2, r3, lsl #16
 2434              	.LVL246:
 2435              		.loc 1 1082 0
 2436 0094 3046     		mov	r0, r6
 2437              		.loc 1 1086 0
 2438 0096 06EB8706 		add	r6, r6, r7, lsl #2
 2439              	.LVL247:
 2440              		.loc 1 1080 0
 2441 009a 4B60     		str	r3, [r1, #4]
ARM GAS  /var/folders/ng/s8655sgx1ys_4lf9jzm2w6n00000gn/T//ccNSZnWF.s 			page 44


 2442              		.loc 1 1082 0
 2443 009c 2946     		mov	r1, r5
 2444 009e FFF7FEFF 		bl	otg_txfifo_flush
 2445              	.LVL248:
 2446              		.loc 1 1086 0
 2447 00a2 7268     		ldr	r2, [r6, #4]
 2448              		.loc 1 1085 0
 2449 00a4 108A     		ldrh	r0, [r2, #16]
 2450              		.loc 1 1084 0
 2451 00a6 05F14801 		add	r1, r5, #72
 2452 00aa 4B01     		lsls	r3, r1, #5
 2453 00ac 40EA8551 		orr	r1, r0, r5, lsl #22
 2454              		.loc 1 1085 0
 2455 00b0 41EA0802 		orr	r2, r1, r8
 2456              		.loc 1 1084 0
 2457 00b4 E250     		str	r2, [r4, r3]
 2458              		.loc 1 1087 0
 2459 00b6 0123     		movs	r3, #1
 2460 00b8 D4F81C08 		ldr	r0, [r4, #2076]
 2461 00bc 03FA05F5 		lsl	r5, r3, r5
 2462 00c0 0543     		orrs	r5, r5, r0
 2463 00c2 C4F81C58 		str	r5, [r4, #2076]
 2464 00c6 BDE8F081 		pop	{r4, r5, r6, r7, r8, pc}
 2465              	.LVL249:
 2466              	.L362:
 2467              		.loc 1 1053 0
 2468 00ca C1F20808 		movt	r8, 4104
 2469              	.LVL250:
 2470              		.loc 1 1054 0
 2471 00ce B1E7     		b	.L361
 2472              	.L363:
 2473              	.LVL251:
 2474              		.loc 1 1056 0
 2475 00d0 C1F20C08 		movt	r8, 4108
 2476              	.LVL252:
 2477              		.loc 1 1057 0
 2478 00d4 AEE7     		b	.L361
 2479              	.LVL253:
 2480              	.L364:
 2481              		.loc 1 1069 0
 2482 00d6 05F15801 		add	r1, r5, #88
 2483 00da 4901     		lsls	r1, r1, #5
 2484              		.loc 1 1070 0
 2485 00dc 05F1100E 		add	lr, r5, #16
 2486              		.loc 1 1069 0
 2487 00e0 6058     		ldr	r0, [r4, r1]
 2488 00e2 20F40040 		bic	r0, r0, #32768
 2489 00e6 6050     		str	r0, [r4, r1]
 2490              		.loc 1 1070 0
 2491 00e8 0121     		movs	r1, #1
 2492 00ea D4F81C08 		ldr	r0, [r4, #2076]
 2493 00ee 01FA0EF1 		lsl	r1, r1, lr
 2494 00f2 20EA0100 		bic	r0, r0, r1
 2495 00f6 C4F81C08 		str	r0, [r4, #2076]
 2496 00fa B5E7     		b	.L365
 2497              	.L366:
 2498              		.loc 1 1090 0
ARM GAS  /var/folders/ng/s8655sgx1ys_4lf9jzm2w6n00000gn/T//ccNSZnWF.s 			page 45


 2499 00fc 05F13F03 		add	r3, r5, #63
 2500 0100 04EB8302 		add	r2, r4, r3, lsl #2
 2501 0104 4FF48061 		mov	r1, #1024
 2502 0108 C0F20021 		movt	r1, 512
 2503 010c 5160     		str	r1, [r2, #4]
 2504              		.loc 1 1091 0
 2505 010e 3046     		mov	r0, r6
 2506 0110 2946     		mov	r1, r5
 2507 0112 FFF7FEFF 		bl	otg_txfifo_flush
 2508              	.LVL254:
 2509              		.loc 1 1092 0
 2510 0116 05F14800 		add	r0, r5, #72
 2511 011a 4301     		lsls	r3, r0, #5
 2512 011c E258     		ldr	r2, [r4, r3]
 2513 011e 22F40041 		bic	r1, r2, #32768
 2514 0122 E150     		str	r1, [r4, r3]
 2515              		.loc 1 1093 0
 2516 0124 0123     		movs	r3, #1
 2517 0126 D4F81C08 		ldr	r0, [r4, #2076]
 2518 012a 03FA05F5 		lsl	r5, r3, r5
 2519 012e 20EA0505 		bic	r5, r0, r5
 2520 0132 C4F81C58 		str	r5, [r4, #2076]
 2521 0136 BDE8F081 		pop	{r4, r5, r6, r7, r8, pc}
 2522              		.cfi_endproc
 2523              	.LFE143:
 2524              		.size	usb_lld_init_endpoint, .-usb_lld_init_endpoint
 2525 013a 00BFAFF3 		.section	.text.usb_lld_disable_endpoints,"ax",%progbits
 2525      0080
 2526              		.align	2
 2527              		.p2align 4,,15
 2528              		.global	usb_lld_disable_endpoints
 2529              		.thumb
 2530              		.thumb_func
 2531              		.type	usb_lld_disable_endpoints, %function
 2532              	usb_lld_disable_endpoints:
 2533              	.LFB144:
 2534              		.loc 1 1104 0
 2535              		.cfi_startproc
 2536              		@ args = 0, pretend = 0, frame = 0
 2537              		@ frame_needed = 0, uses_anonymous_args = 0
 2538              		@ link register save eliminated.
 2539              	.LVL255:
 2540              	.LBB215:
 2541              	.LBB216:
 2542              		.loc 1 211 0
 2543 0000 426D     		ldr	r2, [r0, #84]
 2544 0002 1168     		ldr	r1, [r2, #0]
 2545 0004 8165     		str	r1, [r0, #88]
 2546              	.LBE216:
 2547              	.LBE215:
 2548              		.loc 1 1111 0
 2549              		.loc 1 1110 0
 2550 0006 FFF7FEBF 		b	otg_disable_ep
 2551              	.LVL256:
 2552              		.cfi_endproc
 2553              	.LFE144:
 2554              		.size	usb_lld_disable_endpoints, .-usb_lld_disable_endpoints
ARM GAS  /var/folders/ng/s8655sgx1ys_4lf9jzm2w6n00000gn/T//ccNSZnWF.s 			page 46


 2555 000a 00BFAFF3 		.section	.text.usb_lld_get_status_out,"ax",%progbits
 2555      0080
 2556              		.align	2
 2557              		.p2align 4,,15
 2558              		.global	usb_lld_get_status_out
 2559              		.thumb
 2560              		.thumb_func
 2561              		.type	usb_lld_get_status_out, %function
 2562              	usb_lld_get_status_out:
 2563              	.LFB145:
 2564              		.loc 1 1125 0
 2565              		.cfi_startproc
 2566              		@ args = 0, pretend = 0, frame = 0
 2567              		@ frame_needed = 0, uses_anonymous_args = 0
 2568              		@ link register save eliminated.
 2569              	.LVL257:
 2570              		.loc 1 1130 0
 2571 0000 5831     		adds	r1, r1, #88
 2572              	.LVL258:
 2573 0002 036D     		ldr	r3, [r0, #80]
 2574 0004 4901     		lsls	r1, r1, #5
 2575 0006 5A58     		ldr	r2, [r3, r1]
 2576              	.LVL259:
 2577              		.loc 1 1131 0
 2578 0008 12F40040 		ands	r0, r2, #32768
 2579              	.LVL260:
 2580 000c 04D0     		beq	.L372
 2581              		.loc 1 1133 0
 2582 000e 12F4001F 		tst	r2, #2097152
 2583              		.loc 1 1134 0
 2584 0012 0CBF     		ite	eq
 2585 0014 0220     		moveq	r0, #2
 2586 0016 0120     		movne	r0, #1
 2587              	.L372:
 2588              		.loc 1 1136 0
 2589 0018 7047     		bx	lr
 2590              		.cfi_endproc
 2591              	.LFE145:
 2592              		.size	usb_lld_get_status_out, .-usb_lld_get_status_out
 2593 001a 00BFAFF3 		.section	.text.usb_lld_get_status_in,"ax",%progbits
 2593      0080
 2594              		.align	2
 2595              		.p2align 4,,15
 2596              		.global	usb_lld_get_status_in
 2597              		.thumb
 2598              		.thumb_func
 2599              		.type	usb_lld_get_status_in, %function
 2600              	usb_lld_get_status_in:
 2601              	.LFB146:
 2602              		.loc 1 1150 0
 2603              		.cfi_startproc
 2604              		@ args = 0, pretend = 0, frame = 0
 2605              		@ frame_needed = 0, uses_anonymous_args = 0
 2606              		@ link register save eliminated.
 2607              	.LVL261:
 2608              		.loc 1 1155 0
 2609 0000 4831     		adds	r1, r1, #72
ARM GAS  /var/folders/ng/s8655sgx1ys_4lf9jzm2w6n00000gn/T//ccNSZnWF.s 			page 47


 2610              	.LVL262:
 2611 0002 036D     		ldr	r3, [r0, #80]
 2612 0004 4901     		lsls	r1, r1, #5
 2613 0006 5A58     		ldr	r2, [r3, r1]
 2614              	.LVL263:
 2615              		.loc 1 1156 0
 2616 0008 12F40040 		ands	r0, r2, #32768
 2617              	.LVL264:
 2618 000c 04D0     		beq	.L376
 2619              		.loc 1 1158 0
 2620 000e 12F4001F 		tst	r2, #2097152
 2621              		.loc 1 1159 0
 2622 0012 0CBF     		ite	eq
 2623 0014 0220     		moveq	r0, #2
 2624 0016 0120     		movne	r0, #1
 2625              	.L376:
 2626              		.loc 1 1161 0
 2627 0018 7047     		bx	lr
 2628              		.cfi_endproc
 2629              	.LFE146:
 2630              		.size	usb_lld_get_status_in, .-usb_lld_get_status_in
 2631 001a 00BFAFF3 		.section	.text.usb_lld_read_setup,"ax",%progbits
 2631      0080
 2632              		.align	2
 2633              		.p2align 4,,15
 2634              		.global	usb_lld_read_setup
 2635              		.thumb
 2636              		.thumb_func
 2637              		.type	usb_lld_read_setup, %function
 2638              	usb_lld_read_setup:
 2639              	.LFB147:
 2640              		.loc 1 1177 0
 2641              		.cfi_startproc
 2642              		@ args = 0, pretend = 0, frame = 0
 2643              		@ frame_needed = 0, uses_anonymous_args = 0
 2644              		@ link register save eliminated.
 2645              	.LVL265:
 2646              		.loc 1 1179 0
 2647 0000 00EB8101 		add	r1, r0, r1, lsl #2
 2648              	.LVL266:
 2649 0004 CB68     		ldr	r3, [r1, #12]
 2650 0006 186A     		ldr	r0, [r3, #32]
 2651              	.LVL267:
 2652 0008 0168     		ldr	r1, [r0, #0]	@ unaligned
 2653 000a 4368     		ldr	r3, [r0, #4]	@ unaligned
 2654 000c 1160     		str	r1, [r2, #0]	@ unaligned
 2655 000e 5360     		str	r3, [r2, #4]	@ unaligned
 2656 0010 7047     		bx	lr
 2657              		.cfi_endproc
 2658              	.LFE147:
 2659              		.size	usb_lld_read_setup, .-usb_lld_read_setup
 2660 0012 00BFAFF3 		.section	.text.usb_lld_prepare_receive,"ax",%progbits
 2660      0080AFF3 
 2660      0080AFF3 
 2660      0080
 2661              		.align	2
 2662              		.p2align 4,,15
ARM GAS  /var/folders/ng/s8655sgx1ys_4lf9jzm2w6n00000gn/T//ccNSZnWF.s 			page 48


 2663              		.global	usb_lld_prepare_receive
 2664              		.thumb
 2665              		.thumb_func
 2666              		.type	usb_lld_prepare_receive, %function
 2667              	usb_lld_prepare_receive:
 2668              	.LFB148:
 2669              		.loc 1 1190 0
 2670              		.cfi_startproc
 2671              		@ args = 0, pretend = 0, frame = 0
 2672              		@ frame_needed = 0, uses_anonymous_args = 0
 2673              		@ link register save eliminated.
 2674              	.LVL268:
 2675              		.loc 1 1192 0
 2676 0000 00EB8103 		add	r3, r0, r1, lsl #2
 2677              		.loc 1 1190 0
 2678 0004 10B4     		push	{r4}
 2679              	.LCFI12:
 2680              		.cfi_def_cfa_offset 4
 2681              		.cfi_offset 4, -4
 2682              		.loc 1 1192 0
 2683 0006 DC68     		ldr	r4, [r3, #12]
 2684              	.LVL269:
 2685              		.loc 1 1197 0
 2686 0008 006D     		ldr	r0, [r0, #80]
 2687              	.LVL270:
 2688              		.loc 1 1195 0
 2689 000a A269     		ldr	r2, [r4, #24]
 2690 000c 638A     		ldrh	r3, [r4, #18]
 2691              	.LVL271:
 2692 000e 5468     		ldr	r4, [r2, #4]
 2693              	.LVL272:
 2694 0010 621E     		subs	r2, r4, #1
 2695              	.LVL273:
 2696 0012 D418     		adds	r4, r2, r3
 2697              		.loc 1 1197 0
 2698 0014 00EB4111 		add	r1, r0, r1, lsl #5
 2699              	.LVL274:
 2700 0018 43F0C042 		orr	r2, r3, #1610612736
 2701              		.loc 1 1195 0
 2702 001c B4FBF3F3 		udiv	r3, r4, r3
 2703              		.loc 1 1197 0
 2704 0020 42EAC340 		orr	r0, r2, r3, lsl #19
 2705 0024 C1F8100B 		str	r0, [r1, #2832]
 2706              		.loc 1 1200 0
 2707 0028 10BC     		pop	{r4}
 2708 002a 7047     		bx	lr
 2709              		.cfi_endproc
 2710              	.LFE148:
 2711              		.size	usb_lld_prepare_receive, .-usb_lld_prepare_receive
 2712 002c AFF30080 		.section	.text.usb_lld_prepare_transmit,"ax",%progbits
 2713              		.align	2
 2714              		.p2align 4,,15
 2715              		.global	usb_lld_prepare_transmit
 2716              		.thumb
 2717              		.thumb_func
 2718              		.type	usb_lld_prepare_transmit, %function
 2719              	usb_lld_prepare_transmit:
ARM GAS  /var/folders/ng/s8655sgx1ys_4lf9jzm2w6n00000gn/T//ccNSZnWF.s 			page 49


 2720              	.LFB149:
 2721              		.loc 1 1210 0
 2722              		.cfi_startproc
 2723              		@ args = 0, pretend = 0, frame = 0
 2724              		@ frame_needed = 0, uses_anonymous_args = 0
 2725              		@ link register save eliminated.
 2726              	.LVL275:
 2727              		.loc 1 1211 0
 2728 0000 00EB8103 		add	r3, r0, r1, lsl #2
 2729              		.loc 1 1210 0
 2730 0004 10B4     		push	{r4}
 2731              	.LCFI13:
 2732              		.cfi_def_cfa_offset 4
 2733              		.cfi_offset 4, -4
 2734              		.loc 1 1211 0
 2735 0006 DA68     		ldr	r2, [r3, #12]
 2736              	.LVL276:
 2737              		.loc 1 1214 0
 2738 0008 5369     		ldr	r3, [r2, #20]
 2739 000a 5B68     		ldr	r3, [r3, #4]
 2740 000c 6BB1     		cbz	r3, .L384
 2741              	.LBB217:
 2742              		.loc 1 1220 0
 2743 000e 128A     		ldrh	r2, [r2, #16]
 2744              	.LVL277:
 2745              		.loc 1 1222 0
 2746 0010 006D     		ldr	r0, [r0, #80]
 2747              	.LVL278:
 2748              		.loc 1 1220 0
 2749 0012 5C1E     		subs	r4, r3, #1
 2750 0014 A418     		adds	r4, r4, r2
 2751 0016 B4FBF2F2 		udiv	r2, r4, r2
 2752              	.LVL279:
 2753              		.loc 1 1222 0
 2754 001a 00EB4111 		add	r1, r0, r1, lsl #5
 2755              	.LVL280:
 2756 001e 43EAC243 		orr	r3, r3, r2, lsl #19
 2757 0022 C1F81039 		str	r3, [r1, #2320]
 2758              	.L381:
 2759              	.LBE217:
 2760              		.loc 1 1226 0
 2761 0026 10BC     		pop	{r4}
 2762 0028 7047     		bx	lr
 2763              	.LVL281:
 2764              	.L384:
 2765              		.loc 1 1216 0
 2766 002a 006D     		ldr	r0, [r0, #80]
 2767              	.LVL282:
 2768 002c 00EB4112 		add	r2, r0, r1, lsl #5
 2769              	.LVL283:
 2770 0030 4FF40021 		mov	r1, #524288
 2771              	.LVL284:
 2772 0034 C2F81019 		str	r1, [r2, #2320]
 2773 0038 F5E7     		b	.L381
 2774              		.cfi_endproc
 2775              	.LFE149:
 2776              		.size	usb_lld_prepare_transmit, .-usb_lld_prepare_transmit
ARM GAS  /var/folders/ng/s8655sgx1ys_4lf9jzm2w6n00000gn/T//ccNSZnWF.s 			page 50


 2777 003a 00BFAFF3 		.section	.text.usb_lld_start_out,"ax",%progbits
 2777      0080
 2778              		.align	2
 2779              		.p2align 4,,15
 2780              		.global	usb_lld_start_out
 2781              		.thumb
 2782              		.thumb_func
 2783              		.type	usb_lld_start_out, %function
 2784              	usb_lld_start_out:
 2785              	.LFB150:
 2786              		.loc 1 1236 0
 2787              		.cfi_startproc
 2788              		@ args = 0, pretend = 0, frame = 0
 2789              		@ frame_needed = 0, uses_anonymous_args = 0
 2790              		@ link register save eliminated.
 2791              	.LVL285:
 2792              		.loc 1 1238 0
 2793 0000 5831     		adds	r1, r1, #88
 2794              	.LVL286:
 2795 0002 036D     		ldr	r3, [r0, #80]
 2796 0004 4901     		lsls	r1, r1, #5
 2797 0006 5A58     		ldr	r2, [r3, r1]
 2798 0008 42F08060 		orr	r0, r2, #67108864
 2799              	.LVL287:
 2800 000c 5850     		str	r0, [r3, r1]
 2801 000e 7047     		bx	lr
 2802              		.cfi_endproc
 2803              	.LFE150:
 2804              		.size	usb_lld_start_out, .-usb_lld_start_out
 2805              		.section	.text.usb_lld_start_in,"ax",%progbits
 2806              		.align	2
 2807              		.p2align 4,,15
 2808              		.global	usb_lld_start_in
 2809              		.thumb
 2810              		.thumb_func
 2811              		.type	usb_lld_start_in, %function
 2812              	usb_lld_start_in:
 2813              	.LFB151:
 2814              		.loc 1 1249 0
 2815              		.cfi_startproc
 2816              		@ args = 0, pretend = 0, frame = 0
 2817              		@ frame_needed = 0, uses_anonymous_args = 0
 2818              		@ link register save eliminated.
 2819              	.LVL288:
 2820              		.loc 1 1251 0
 2821 0000 01F14802 		add	r2, r1, #72
 2822 0004 036D     		ldr	r3, [r0, #80]
 2823 0006 5201     		lsls	r2, r2, #5
 2824 0008 9858     		ldr	r0, [r3, r2]
 2825              	.LVL289:
 2826 000a 40F00440 		orr	r0, r0, #-2080374784
 2827 000e 9850     		str	r0, [r3, r2]
 2828              		.loc 1 1252 0
 2829 0010 0120     		movs	r0, #1
 2830 0012 D3F83428 		ldr	r2, [r3, #2100]
 2831 0016 00FA01F1 		lsl	r1, r0, r1
 2832              	.LVL290:
ARM GAS  /var/folders/ng/s8655sgx1ys_4lf9jzm2w6n00000gn/T//ccNSZnWF.s 			page 51


 2833 001a 1143     		orrs	r1, r1, r2
 2834 001c C3F83418 		str	r1, [r3, #2100]
 2835 0020 7047     		bx	lr
 2836              		.cfi_endproc
 2837              	.LFE151:
 2838              		.size	usb_lld_start_in, .-usb_lld_start_in
 2839 0022 00BFAFF3 		.section	.text.usb_lld_stall_out,"ax",%progbits
 2839      0080AFF3 
 2839      0080AFF3 
 2839      0080
 2840              		.align	2
 2841              		.p2align 4,,15
 2842              		.global	usb_lld_stall_out
 2843              		.thumb
 2844              		.thumb_func
 2845              		.type	usb_lld_stall_out, %function
 2846              	usb_lld_stall_out:
 2847              	.LFB152:
 2848              		.loc 1 1263 0
 2849              		.cfi_startproc
 2850              		@ args = 0, pretend = 0, frame = 0
 2851              		@ frame_needed = 0, uses_anonymous_args = 0
 2852              		@ link register save eliminated.
 2853              	.LVL291:
 2854              		.loc 1 1265 0
 2855 0000 5831     		adds	r1, r1, #88
 2856              	.LVL292:
 2857 0002 036D     		ldr	r3, [r0, #80]
 2858 0004 4901     		lsls	r1, r1, #5
 2859 0006 5A58     		ldr	r2, [r3, r1]
 2860 0008 42F40010 		orr	r0, r2, #2097152
 2861              	.LVL293:
 2862 000c 5850     		str	r0, [r3, r1]
 2863 000e 7047     		bx	lr
 2864              		.cfi_endproc
 2865              	.LFE152:
 2866              		.size	usb_lld_stall_out, .-usb_lld_stall_out
 2867              		.section	.text.usb_lld_stall_in,"ax",%progbits
 2868              		.align	2
 2869              		.p2align 4,,15
 2870              		.global	usb_lld_stall_in
 2871              		.thumb
 2872              		.thumb_func
 2873              		.type	usb_lld_stall_in, %function
 2874              	usb_lld_stall_in:
 2875              	.LFB153:
 2876              		.loc 1 1276 0
 2877              		.cfi_startproc
 2878              		@ args = 0, pretend = 0, frame = 0
 2879              		@ frame_needed = 0, uses_anonymous_args = 0
 2880              		@ link register save eliminated.
 2881              	.LVL294:
 2882              		.loc 1 1278 0
 2883 0000 4831     		adds	r1, r1, #72
 2884              	.LVL295:
 2885 0002 036D     		ldr	r3, [r0, #80]
 2886 0004 4901     		lsls	r1, r1, #5
ARM GAS  /var/folders/ng/s8655sgx1ys_4lf9jzm2w6n00000gn/T//ccNSZnWF.s 			page 52


 2887 0006 5A58     		ldr	r2, [r3, r1]
 2888 0008 42F40010 		orr	r0, r2, #2097152
 2889              	.LVL296:
 2890 000c 5850     		str	r0, [r3, r1]
 2891 000e 7047     		bx	lr
 2892              		.cfi_endproc
 2893              	.LFE153:
 2894              		.size	usb_lld_stall_in, .-usb_lld_stall_in
 2895              		.section	.text.usb_lld_clear_out,"ax",%progbits
 2896              		.align	2
 2897              		.p2align 4,,15
 2898              		.global	usb_lld_clear_out
 2899              		.thumb
 2900              		.thumb_func
 2901              		.type	usb_lld_clear_out, %function
 2902              	usb_lld_clear_out:
 2903              	.LFB154:
 2904              		.loc 1 1289 0
 2905              		.cfi_startproc
 2906              		@ args = 0, pretend = 0, frame = 0
 2907              		@ frame_needed = 0, uses_anonymous_args = 0
 2908              		@ link register save eliminated.
 2909              	.LVL297:
 2910              		.loc 1 1291 0
 2911 0000 5831     		adds	r1, r1, #88
 2912              	.LVL298:
 2913 0002 036D     		ldr	r3, [r0, #80]
 2914 0004 4901     		lsls	r1, r1, #5
 2915 0006 5A58     		ldr	r2, [r3, r1]
 2916 0008 22F40010 		bic	r0, r2, #2097152
 2917              	.LVL299:
 2918 000c 5850     		str	r0, [r3, r1]
 2919 000e 7047     		bx	lr
 2920              		.cfi_endproc
 2921              	.LFE154:
 2922              		.size	usb_lld_clear_out, .-usb_lld_clear_out
 2923              		.section	.text.usb_lld_clear_in,"ax",%progbits
 2924              		.align	2
 2925              		.p2align 4,,15
 2926              		.global	usb_lld_clear_in
 2927              		.thumb
 2928              		.thumb_func
 2929              		.type	usb_lld_clear_in, %function
 2930              	usb_lld_clear_in:
 2931              	.LFB155:
 2932              		.loc 1 1302 0
 2933              		.cfi_startproc
 2934              		@ args = 0, pretend = 0, frame = 0
 2935              		@ frame_needed = 0, uses_anonymous_args = 0
 2936              		@ link register save eliminated.
 2937              	.LVL300:
 2938              		.loc 1 1304 0
 2939 0000 4831     		adds	r1, r1, #72
 2940              	.LVL301:
 2941 0002 036D     		ldr	r3, [r0, #80]
 2942 0004 4901     		lsls	r1, r1, #5
 2943 0006 5A58     		ldr	r2, [r3, r1]
ARM GAS  /var/folders/ng/s8655sgx1ys_4lf9jzm2w6n00000gn/T//ccNSZnWF.s 			page 53


 2944 0008 22F40010 		bic	r0, r2, #2097152
 2945              	.LVL302:
 2946 000c 5850     		str	r0, [r3, r1]
 2947 000e 7047     		bx	lr
 2948              		.cfi_endproc
 2949              	.LFE155:
 2950              		.size	usb_lld_clear_in, .-usb_lld_clear_in
 2951              		.global	USBD1
 2952              		.section	.rodata.fsparams,"a",%progbits
 2953              		.align	2
 2954              		.set	.LANCHOR1,. + 0
 2955              		.type	fsparams, %object
 2956              		.size	fsparams, 12
 2957              	fsparams:
 2958 0000 80000000 		.word	128
 2959 0004 40010000 		.word	320
 2960 0008 03000000 		.word	3
 2961              		.section	.bss.USBD1,"aw",%nobits
 2962              		.align	3
 2963              		.set	.LANCHOR0,. + 0
 2964              		.type	USBD1, %object
 2965              		.size	USBD1, 544
 2966              	USBD1:
 2967 0000 00000000 		.space	544
 2967      00000000 
 2967      00000000 
 2967      00000000 
 2967      00000000 
 2968              		.section	.rodata.str1.4,"aMS",%progbits,1
 2969              		.align	2
 2970              	.LC0:
 2971 0000 7573625F 		.ascii	"usb_lld_pump\000"
 2971      6C6C645F 
 2971      70756D70 
 2971      00
 2972 000d 000000   		.section	.rodata.ep0config,"a",%progbits
 2973              		.align	2
 2974              		.set	.LANCHOR2,. + 0
 2975              		.type	ep0config, %object
 2976              		.size	ep0config, 36
 2977              	ep0config:
 2978 0000 00000000 		.word	0
 2979 0004 00000000 		.word	_usb_ep0setup
 2980 0008 00000000 		.word	_usb_ep0in
 2981 000c 00000000 		.word	_usb_ep0out
 2982 0010 4000     		.short	64
 2983 0012 4000     		.short	64
 2984 0014 00000000 		.word	ep0_state
 2985 0018 00000000 		.word	ep0_state
 2986 001c 0100     		.short	1
 2987 001e 0000     		.space	2
 2988 0020 00000000 		.word	ep0setup_buffer
 2989              		.section	.bss.ep0_state,"aw",%nobits
 2990              		.align	2
 2991              		.type	ep0_state, %object
 2992              		.size	ep0_state, 16
 2993              	ep0_state:
ARM GAS  /var/folders/ng/s8655sgx1ys_4lf9jzm2w6n00000gn/T//ccNSZnWF.s 			page 54


 2994 0000 00000000 		.space	16
 2994      00000000 
 2994      00000000 
 2994      00000000 
 2995              		.section	.bss.ep0setup_buffer,"aw",%nobits
 2996              		.align	2
 2997              		.type	ep0setup_buffer, %object
 2998              		.size	ep0setup_buffer, 8
 2999              	ep0setup_buffer:
 3000 0000 00000000 		.space	8
 3000      00000000 
 3001              		.text
 3002              	.Letext0:
 3003              		.file 3 "/Users/jseng/gccarm/bin/../lib/gcc/arm-none-eabi/4.7.4/include/stddef.h"
 3004              		.file 4 "/Users/jseng/gccarm/bin/../lib/gcc/arm-none-eabi/4.7.4/../../../../arm-none-eabi/include/
 3005              		.file 5 "../AithonLibrary/ChibiOS/os/ports/GCC/ARMCMx/chtypes.h"
 3006              		.file 6 "../AithonLibrary/ChibiOS/os/kernel/include/chlists.h"
 3007              		.file 7 "../AithonLibrary/ChibiOS/os/kernel/include/chthreads.h"
 3008              		.file 8 "../AithonLibrary/ChibiOS/os/ports/GCC/ARMCMx/chcore_v7m.h"
 3009              		.file 9 "../AithonLibrary/ChibiOS/os/kernel/include/chschd.h"
 3010              		.file 10 "../AithonLibrary/ChibiOS/os/kernel/include/chmtx.h"
 3011              		.file 11 "../AithonLibrary/ChibiOS/os/kernel/include/chqueues.h"
 3012              		.file 12 "../AithonLibrary/ChibiOS/os/hal/platforms/STM32F4xx/stm32f4xx.h"
 3013              		.file 13 "../AithonLibrary/ChibiOS/os/hal/platforms/STM32F4xx/hal_lld.h"
 3014              		.file 14 "../AithonLibrary/ChibiOS/os/hal/include/usb.h"
 3015              		.file 15 "../AithonLibrary/ChibiOS/os/hal/platforms/STM32/OTGv1/usb_lld.h"
 3016              		.file 16 "../AithonLibrary/ChibiOS/os/hal/platforms/STM32/OTGv1/stm32_otg.h"
 3017              		.file 17 "../AithonLibrary/ChibiOS/os/ports/common/ARMCMx/CMSIS/include/core_cm4.h"
 3018              		.file 18 "../AithonLibrary/ChibiOS/os/hal/include/hal.h"
 3019              		.file 19 "../AithonLibrary/ChibiOS/os/ports/common/ARMCMx/nvic.h"