ARM GAS  /var/folders/ng/s8655sgx1ys_4lf9jzm2w6n00000gn/T//ccwcyKIs.s 			page 1


   1              		.syntax unified
   2              		.cpu cortex-m4
   3              		.eabi_attribute 27, 3
   4              		.fpu fpv4-sp-d16
   5              		.eabi_attribute 20, 1
   6              		.eabi_attribute 21, 1
   7              		.eabi_attribute 23, 3
   8              		.eabi_attribute 24, 1
   9              		.eabi_attribute 25, 1
  10              		.eabi_attribute 26, 1
  11              		.eabi_attribute 30, 2
  12              		.eabi_attribute 34, 1
  13              		.eabi_attribute 18, 4
  14              		.thumb
  15              		.file	"usbCDC.c"
  16              		.text
  17              	.Ltext0:
  18              		.cfi_sections	.debug_frame
  19              		.section	.text._get_descriptor,"ax",%progbits
  20              		.align	2
  21              		.p2align 4,,15
  22              		.thumb
  23              		.thumb_func
  24              		.type	_get_descriptor, %function
  25              	_get_descriptor:
  26              	.LFB119:
  27              		.file 1 "../AithonLibrary/usbCDC.c"
  28              		.loc 1 185 0
  29              		.cfi_startproc
  30              		@ args = 0, pretend = 0, frame = 0
  31              		@ frame_needed = 0, uses_anonymous_args = 0
  32              		@ link register save eliminated.
  33              	.LVL0:
  34              		.loc 1 188 0
  35 0000 0229     		cmp	r1, #2
  36 0002 06D0     		beq	.L6
  37 0004 0329     		cmp	r1, #3
  38 0006 06D0     		beq	.L5
  39              		.loc 1 197 0
  40 0008 0748     		ldr	r0, .L9
  41              	.LVL1:
  42 000a 0129     		cmp	r1, #1
  43 000c 18BF     		it	ne
  44 000e 0020     		movne	r0, #0
  45 0010 7047     		bx	lr
  46              	.LVL2:
  47              	.L6:
  48              		.loc 1 192 0
  49 0012 0648     		ldr	r0, .L9+4
  50              	.LVL3:
  51 0014 7047     		bx	lr
  52              	.LVL4:
  53              	.L5:
  54              		.loc 1 194 0
  55 0016 032A     		cmp	r2, #3
  56 0018 03D8     		bhi	.L7
  57              		.loc 1 195 0
ARM GAS  /var/folders/ng/s8655sgx1ys_4lf9jzm2w6n00000gn/T//ccwcyKIs.s 			page 2


  58 001a 0548     		ldr	r0, .L9+8
  59              	.LVL5:
  60 001c 00EBC200 		add	r0, r0, r2, lsl #3
  61 0020 7047     		bx	lr
  62              	.LVL6:
  63              	.L7:
  64              		.loc 1 197 0
  65 0022 0020     		movs	r0, #0
  66              	.LVL7:
  67              		.loc 1 198 0
  68 0024 7047     		bx	lr
  69              	.L10:
  70 0026 00BF     		.align	2
  71              	.L9:
  72 0028 00000000 		.word	.LANCHOR0
  73 002c 00000000 		.word	.LANCHOR1
  74 0030 00000000 		.word	.LANCHOR2
  75              		.cfi_endproc
  76              	.LFE119:
  77              		.size	_get_descriptor, .-_get_descriptor
  78 0034 AFF30080 		.section	.text._request_hook,"ax",%progbits
  78      AFF30080 
  78      AFF30080 
  79              		.align	2
  80              		.p2align 4,,15
  81              		.thumb
  82              		.thumb_func
  83              		.type	_request_hook, %function
  84              	_request_hook:
  85              	.LFB121:
  86              		.loc 1 289 0
  87              		.cfi_startproc
  88              		@ args = 0, pretend = 0, frame = 0
  89              		@ frame_needed = 0, uses_anonymous_args = 0
  90              	.LVL8:
  91 0000 38B5     		push	{r3, r4, r5, lr}
  92              	.LCFI0:
  93              		.cfi_def_cfa_offset 16
  94              		.cfi_offset 3, -16
  95              		.cfi_offset 4, -12
  96              		.cfi_offset 5, -8
  97              		.cfi_offset 14, -4
  98              		.loc 1 292 0
  99 0002 90F84430 		ldrb	r3, [r0, #68]	@ zero_extendqisi2
 100              		.loc 1 289 0
 101 0006 0446     		mov	r4, r0
 102              		.loc 1 292 0
 103 0008 03F06000 		and	r0, r3, #96
 104              	.LVL9:
 105 000c 2028     		cmp	r0, #32
 106 000e 04D0     		beq	.L21
 107              	.L13:
 108              		.loc 1 316 0
 109 0010 2046     		mov	r0, r4
 110              		.loc 1 317 0
 111 0012 BDE83840 		pop	{r3, r4, r5, lr}
 112              		.loc 1 316 0
ARM GAS  /var/folders/ng/s8655sgx1ys_4lf9jzm2w6n00000gn/T//ccwcyKIs.s 			page 3


 113 0016 FFF7FEBF 		b	sduRequestsHook
 114              	.LVL10:
 115              	.L21:
 116              		.loc 1 292 0 discriminator 1
 117 001a 94F84510 		ldrb	r1, [r4, #69]	@ zero_extendqisi2
 118 001e 2229     		cmp	r1, #34
 119 0020 F6D1     		bne	.L13
 120              	.LBB4:
 121              		.loc 1 296 0
 122 0022 0F4A     		ldr	r2, .L23
 123 0024 0F48     		ldr	r0, .L23+4
 124 0026 1378     		ldrb	r3, [r2, #0]	@ zero_extendqisi2
 125              		.loc 1 294 0
 126 0028 94F84610 		ldrb	r1, [r4, #70]	@ zero_extendqisi2
 127              		.loc 1 296 0
 128 002c C55C     		ldrb	r5, [r0, r3]	@ zero_extendqisi2
 129              		.loc 1 294 0
 130 002e 01F00301 		and	r1, r1, #3
 131              	.LVL11:
 132              		.loc 1 296 0
 133 0032 8D42     		cmp	r5, r1
 134 0034 09D0     		beq	.L22
 135              		.loc 1 298 0
 136 0036 002B     		cmp	r3, #0
 137 0038 EAD0     		beq	.L13
 138              		.loc 1 298 0 is_stmt 0 discriminator 1
 139 003a C018     		adds	r0, r0, r3
 140 003c 10F8010C 		ldrb	r0, [r0, #-1]	@ zero_extendqisi2
 141 0040 8842     		cmp	r0, r1
 142 0042 05D0     		beq	.L16
 143              		.loc 1 299 0 is_stmt 1
 144 0044 0023     		movs	r3, #0
 145 0046 1370     		strb	r3, [r2, #0]
 146 0048 E2E7     		b	.L13
 147              	.L22:
 148              		.loc 1 297 0
 149 004a 591C     		adds	r1, r3, #1
 150              	.LVL12:
 151 004c CBB2     		uxtb	r3, r1
 152 004e 1370     		strb	r3, [r2, #0]
 153              	.L16:
 154              		.loc 1 313 0
 155 0050 032B     		cmp	r3, #3
 156 0052 DDD1     		bne	.L13
 157              		.loc 1 314 0
 158 0054 044A     		ldr	r2, .L23+8
 159 0056 0121     		movs	r1, #1
 160 0058 1068     		ldr	r0, [r2, #0]
 161 005a FFF7FEFF 		bl	chEvtSignal
 162              	.LVL13:
 163 005e D7E7     		b	.L13
 164              	.L24:
 165              		.align	2
 166              	.L23:
 167 0060 00000000 		.word	.LANCHOR3
 168 0064 00000000 		.word	.LANCHOR4
 169 0068 00000000 		.word	_aithon_thd
ARM GAS  /var/folders/ng/s8655sgx1ys_4lf9jzm2w6n00000gn/T//ccwcyKIs.s 			page 4


 170              	.LBE4:
 171              		.cfi_endproc
 172              	.LFE121:
 173              		.size	_request_hook, .-_request_hook
 174 006c AFF30080 		.section	.text._usb_event,"ax",%progbits
 175              		.align	2
 176              		.p2align 4,,15
 177              		.thumb
 178              		.thumb_func
 179              		.type	_usb_event, %function
 180              	_usb_event:
 181              	.LFB120:
 182              		.loc 1 250 0
 183              		.cfi_startproc
 184              		@ args = 0, pretend = 0, frame = 0
 185              		@ frame_needed = 0, uses_anonymous_args = 0
 186              	.LVL14:
 187              		.loc 1 251 0
 188 0000 0229     		cmp	r1, #2
 189              		.loc 1 250 0
 190 0002 38B5     		push	{r3, r4, r5, lr}
 191              	.LCFI1:
 192              		.cfi_def_cfa_offset 16
 193              		.cfi_offset 3, -16
 194              		.cfi_offset 4, -12
 195              		.cfi_offset 5, -8
 196              		.cfi_offset 14, -4
 197              		.loc 1 250 0
 198 0004 0C46     		mov	r4, r1
 199 0006 0546     		mov	r5, r0
 200              		.loc 1 251 0
 201 0008 11D1     		bne	.L25
 202              	.LVL15:
 203              	.LBB9:
 204              	.LBB10:
 205              	.LBB11:
 206              		.loc 1 253 0
 207 000a 2023     		movs	r3, #32
 208              	.LVL16:
 209              	@ 253 "../AithonLibrary/usbCDC.c" 1
 210 000c 83F31188 		msr     BASEPRI, r3
 211              	@ 0 "" 2
 212              	.LVL17:
 213              		.thumb
 214              	.LBE11:
 215              		.loc 1 258 0
 216 0010 0121     		movs	r1, #1
 217              	.LVL18:
 218 0012 074A     		ldr	r2, .L28
 219 0014 FFF7FEFF 		bl	usbInitEndpointI
 220              	.LVL19:
 221              		.loc 1 259 0
 222 0018 2846     		mov	r0, r5
 223 001a 2146     		mov	r1, r4
 224 001c 054A     		ldr	r2, .L28+4
 225 001e FFF7FEFF 		bl	usbInitEndpointI
 226              	.LVL20:
ARM GAS  /var/folders/ng/s8655sgx1ys_4lf9jzm2w6n00000gn/T//ccwcyKIs.s 			page 5


 227              		.loc 1 262 0
 228 0022 0548     		ldr	r0, .L28+8
 229 0024 FFF7FEFF 		bl	sduConfigureHookI
 230              	.LVL21:
 231              	.LBB12:
 232              		.loc 1 264 0
 233 0028 0023     		movs	r3, #0
 234              	.LVL22:
 235              	@ 264 "../AithonLibrary/usbCDC.c" 1
 236 002a 83F31188 		msr     BASEPRI, r3
 237              	@ 0 "" 2
 238              	.LVL23:
 239              		.thumb
 240              	.L25:
 241 002e 38BD     		pop	{r3, r4, r5, pc}
 242              	.L29:
 243              		.align	2
 244              	.L28:
 245 0030 00000000 		.word	.LANCHOR5
 246 0034 00000000 		.word	.LANCHOR6
 247 0038 00000000 		.word	.LANCHOR7
 248              	.LBE12:
 249              	.LBE10:
 250              	.LBE9:
 251              		.cfi_endproc
 252              	.LFE120:
 253              		.size	_usb_event, .-_usb_event
 254 003c AFF30080 		.section	.text._usbcdc_init,"ax",%progbits
 255              		.align	2
 256              		.p2align 4,,15
 257              		.global	_usbcdc_init
 258              		.thumb
 259              		.thumb_func
 260              		.type	_usbcdc_init, %function
 261              	_usbcdc_init:
 262              	.LFB122:
 263              		.loc 1 330 0
 264              		.cfi_startproc
 265              		@ args = 0, pretend = 0, frame = 0
 266              		@ frame_needed = 0, uses_anonymous_args = 0
 267 0000 38B5     		push	{r3, r4, r5, lr}
 268              	.LCFI2:
 269              		.cfi_def_cfa_offset 16
 270              		.cfi_offset 3, -16
 271              		.cfi_offset 4, -12
 272              		.cfi_offset 5, -8
 273              		.cfi_offset 14, -4
 274              		.loc 1 331 0
 275 0002 40F20005 		movw	r5, #:lower16:.LANCHOR7
 276 0006 C0F20005 		movt	r5, #:upper16:.LANCHOR7
 277 000a 2846     		mov	r0, r5
 278              		.loc 1 333 0
 279 000c 40F20004 		movw	r4, #:lower16:USBD1
 280              		.loc 1 331 0
 281 0010 FFF7FEFF 		bl	sduObjectInit
 282              	.LVL24:
 283              		.loc 1 333 0
ARM GAS  /var/folders/ng/s8655sgx1ys_4lf9jzm2w6n00000gn/T//ccwcyKIs.s 			page 6


 284 0014 C0F20004 		movt	r4, #:upper16:USBD1
 285              		.loc 1 332 0
 286 0018 40F20001 		movw	r1, #:lower16:.LANCHOR8
 287 001c C0F20001 		movt	r1, #:upper16:.LANCHOR8
 288 0020 2846     		mov	r0, r5
 289 0022 FFF7FEFF 		bl	sduStart
 290              	.LVL25:
 291              		.loc 1 333 0
 292 0026 236D     		ldr	r3, [r4, #80]
 293 0028 9A6B     		ldr	r2, [r3, #56]
 294 002a 22F40021 		bic	r1, r2, #524288
 295 002e 9963     		str	r1, [r3, #56]
 296              		.loc 1 334 0
 297 0030 0A20     		movs	r0, #10
 298 0032 FFF7FEFF 		bl	chThdSleep
 299              	.LVL26:
 300              		.loc 1 335 0
 301 0036 40F20001 		movw	r1, #:lower16:.LANCHOR9
 302 003a 2046     		mov	r0, r4
 303 003c C0F20001 		movt	r1, #:upper16:.LANCHOR9
 304 0040 FFF7FEFF 		bl	usbStart
 305              	.LVL27:
 306              		.loc 1 336 0
 307 0044 206D     		ldr	r0, [r4, #80]
 308 0046 836B     		ldr	r3, [r0, #56]
 309 0048 43F40022 		orr	r2, r3, #524288
 310 004c 8263     		str	r2, [r0, #56]
 311 004e 38BD     		pop	{r3, r4, r5, pc}
 312              		.cfi_endproc
 313              	.LFE122:
 314              		.size	_usbcdc_init, .-_usbcdc_init
 315              		.section	.text._usb_stop,"ax",%progbits
 316              		.align	2
 317              		.p2align 4,,15
 318              		.global	_usb_stop
 319              		.thumb
 320              		.thumb_func
 321              		.type	_usb_stop, %function
 322              	_usb_stop:
 323              	.LFB123:
 324              		.loc 1 340 0
 325              		.cfi_startproc
 326              		@ args = 0, pretend = 0, frame = 0
 327              		@ frame_needed = 0, uses_anonymous_args = 0
 328 0000 10B5     		push	{r4, lr}
 329              	.LCFI3:
 330              		.cfi_def_cfa_offset 8
 331              		.cfi_offset 4, -8
 332              		.cfi_offset 14, -4
 333              		.loc 1 341 0
 334 0002 40F20004 		movw	r4, #:lower16:USBD1
 335 0006 C0F20004 		movt	r4, #:upper16:USBD1
 336 000a 236D     		ldr	r3, [r4, #80]
 337 000c 9A6B     		ldr	r2, [r3, #56]
 338 000e 22F40020 		bic	r0, r2, #524288
 339 0012 9863     		str	r0, [r3, #56]
 340              		.loc 1 343 0
ARM GAS  /var/folders/ng/s8655sgx1ys_4lf9jzm2w6n00000gn/T//ccwcyKIs.s 			page 7


 341 0014 40F20000 		movw	r0, #:lower16:.LANCHOR7
 342 0018 C0F20000 		movt	r0, #:upper16:.LANCHOR7
 343 001c FFF7FEFF 		bl	sduStop
 344              	.LVL28:
 345              		.loc 1 344 0
 346 0020 2046     		mov	r0, r4
 347              		.loc 1 345 0
 348 0022 BDE81040 		pop	{r4, lr}
 349              		.loc 1 344 0
 350 0026 FFF7FEBF 		b	usbStop
 351              	.LVL29:
 352              		.cfi_endproc
 353              	.LFE123:
 354              		.size	_usb_stop, .-_usb_stop
 355              		.global	_usbcfg
 356              		.global	_resetTime
 357              		.global	_resetIndex
 358              		.global	_resetSequence
 359              		.global	_serusbcfg
 360              		.global	SDU1
 361 002a 00BFAFF3 		.section	.rodata.ep1config,"a",%progbits
 361      0080
 362              		.align	2
 363              		.set	.LANCHOR5,. + 0
 364              		.type	ep1config, %object
 365              		.size	ep1config, 36
 366              	ep1config:
 367 0000 02000000 		.word	2
 368 0004 00000000 		.word	0
 369 0008 00000000 		.word	sduDataTransmitted
 370 000c 00000000 		.word	sduDataReceived
 371 0010 4000     		.short	64
 372 0012 4000     		.short	64
 373 0014 00000000 		.word	ep1instate
 374 0018 00000000 		.word	ep1outstate
 375 001c 0200     		.short	2
 376 001e 0000     		.space	2
 377 0020 00000000 		.word	0
 378              		.section	.data._resetSequence,"aw",%progbits
 379              		.align	2
 380              		.set	.LANCHOR4,. + 0
 381              		.type	_resetSequence, %object
 382              		.size	_resetSequence, 3
 383              	_resetSequence:
 384 0000 00       		.byte	0
 385 0001 02       		.byte	2
 386 0002 03       		.byte	3
 387 0003 00       		.section	.rodata._vcom_configuration_descriptor_data,"a",%progbits
 388              		.align	2
 389              		.type	_vcom_configuration_descriptor_data, %object
 390              		.size	_vcom_configuration_descriptor_data, 67
 391              	_vcom_configuration_descriptor_data:
 392 0000 09       		.byte	9
 393 0001 02       		.byte	2
 394 0002 43       		.byte	67
 395 0003 00       		.byte	0
 396 0004 02       		.byte	2
ARM GAS  /var/folders/ng/s8655sgx1ys_4lf9jzm2w6n00000gn/T//ccwcyKIs.s 			page 8


 397 0005 01       		.byte	1
 398 0006 00       		.byte	0
 399 0007 C0       		.byte	-64
 400 0008 32       		.byte	50
 401 0009 09       		.byte	9
 402 000a 04       		.byte	4
 403 000b 00       		.byte	0
 404 000c 00       		.byte	0
 405 000d 01       		.byte	1
 406 000e 02       		.byte	2
 407 000f 02       		.byte	2
 408 0010 01       		.byte	1
 409 0011 00       		.byte	0
 410 0012 05       		.byte	5
 411 0013 24       		.byte	36
 412 0014 00       		.byte	0
 413 0015 10       		.byte	16
 414 0016 01       		.byte	1
 415 0017 05       		.byte	5
 416 0018 24       		.byte	36
 417 0019 01       		.byte	1
 418 001a 00       		.byte	0
 419 001b 01       		.byte	1
 420 001c 04       		.byte	4
 421 001d 24       		.byte	36
 422 001e 02       		.byte	2
 423 001f 02       		.byte	2
 424 0020 05       		.byte	5
 425 0021 24       		.byte	36
 426 0022 06       		.byte	6
 427 0023 00       		.byte	0
 428 0024 01       		.byte	1
 429 0025 07       		.byte	7
 430 0026 05       		.byte	5
 431 0027 82       		.byte	-126
 432 0028 03       		.byte	3
 433 0029 08       		.byte	8
 434 002a 00       		.byte	0
 435 002b FF       		.byte	-1
 436 002c 09       		.byte	9
 437 002d 04       		.byte	4
 438 002e 01       		.byte	1
 439 002f 00       		.byte	0
 440 0030 02       		.byte	2
 441 0031 0A       		.byte	10
 442 0032 00       		.byte	0
 443 0033 00       		.byte	0
 444 0034 00       		.byte	0
 445 0035 07       		.byte	7
 446 0036 05       		.byte	5
 447 0037 01       		.byte	1
 448 0038 02       		.byte	2
 449 0039 40       		.byte	64
 450 003a 00       		.byte	0
 451 003b 00       		.byte	0
 452 003c 07       		.byte	7
 453 003d 05       		.byte	5
ARM GAS  /var/folders/ng/s8655sgx1ys_4lf9jzm2w6n00000gn/T//ccwcyKIs.s 			page 9


 454 003e 81       		.byte	-127
 455 003f 02       		.byte	2
 456 0040 40       		.byte	64
 457 0041 00       		.byte	0
 458 0042 00       		.byte	0
 459 0043 00       		.section	.bss.ep1outstate,"aw",%nobits
 460              		.align	2
 461              		.type	ep1outstate, %object
 462              		.size	ep1outstate, 16
 463              	ep1outstate:
 464 0000 00000000 		.space	16
 464      00000000 
 464      00000000 
 464      00000000 
 465              		.section	.bss._resetIndex,"aw",%nobits
 466              		.set	.LANCHOR3,. + 0
 467              		.type	_resetIndex, %object
 468              		.size	_resetIndex, 1
 469              	_resetIndex:
 470 0000 00       		.space	1
 471              		.section	.bss.ep1instate,"aw",%nobits
 472              		.align	2
 473              		.type	ep1instate, %object
 474              		.size	ep1instate, 16
 475              	ep1instate:
 476 0000 00000000 		.space	16
 476      00000000 
 476      00000000 
 476      00000000 
 477              		.section	.rodata._vcom_string0,"a",%progbits
 478              		.align	2
 479              		.type	_vcom_string0, %object
 480              		.size	_vcom_string0, 4
 481              	_vcom_string0:
 482 0000 04       		.byte	4
 483 0001 03       		.byte	3
 484 0002 09       		.byte	9
 485 0003 04       		.byte	4
 486              		.section	.bss._resetTime,"aw",%nobits
 487              		.align	2
 488              		.type	_resetTime, %object
 489              		.size	_resetTime, 4
 490              	_resetTime:
 491 0000 00000000 		.space	4
 492              		.section	.rodata.ep2config,"a",%progbits
 493              		.align	2
 494              		.set	.LANCHOR6,. + 0
 495              		.type	ep2config, %object
 496              		.size	ep2config, 36
 497              	ep2config:
 498 0000 03000000 		.word	3
 499 0004 00000000 		.word	0
 500 0008 00000000 		.word	sduInterruptTransmitted
 501 000c 00000000 		.word	0
 502 0010 1000     		.short	16
 503 0012 0000     		.short	0
 504 0014 00000000 		.word	ep2instate
ARM GAS  /var/folders/ng/s8655sgx1ys_4lf9jzm2w6n00000gn/T//ccwcyKIs.s 			page 10


 505 0018 00000000 		.word	0
 506 001c 0100     		.short	1
 507 001e 0000     		.space	2
 508 0020 00000000 		.word	0
 509              		.section	.rodata._vcom_string3,"a",%progbits
 510              		.align	2
 511              		.type	_vcom_string3, %object
 512              		.size	_vcom_string3, 8
 513              	_vcom_string3:
 514 0000 08       		.byte	8
 515 0001 03       		.byte	3
 516 0002 32       		.byte	50
 517 0003 00       		.byte	0
 518 0004 36       		.byte	54
 519 0005 00       		.byte	0
 520 0006 32       		.byte	50
 521 0007 00       		.byte	0
 522              		.section	.rodata._serusbcfg,"a",%progbits
 523              		.align	2
 524              		.set	.LANCHOR8,. + 0
 525              		.type	_serusbcfg, %object
 526              		.size	_serusbcfg, 8
 527              	_serusbcfg:
 528 0000 00000000 		.word	USBD1
 529 0004 01       		.byte	1
 530 0005 01       		.byte	1
 531 0006 02       		.byte	2
 532 0007 00       		.space	1
 533              		.section	.rodata._vcom_strings,"a",%progbits
 534              		.align	2
 535              		.set	.LANCHOR2,. + 0
 536              		.type	_vcom_strings, %object
 537              		.size	_vcom_strings, 32
 538              	_vcom_strings:
 539 0000 04000000 		.word	4
 540 0004 00000000 		.word	_vcom_string0
 541 0008 26000000 		.word	38
 542 000c 00000000 		.word	_vcom_string1
 543 0010 38000000 		.word	56
 544 0014 00000000 		.word	_vcom_string2
 545 0018 08000000 		.word	8
 546 001c 00000000 		.word	_vcom_string3
 547              		.section	.rodata._vcom_string1,"a",%progbits
 548              		.align	2
 549              		.type	_vcom_string1, %object
 550              		.size	_vcom_string1, 38
 551              	_vcom_string1:
 552 0000 26       		.byte	38
 553 0001 03       		.byte	3
 554 0002 53       		.byte	83
 555 0003 00       		.byte	0
 556 0004 54       		.byte	84
 557 0005 00       		.byte	0
 558 0006 4D       		.byte	77
 559 0007 00       		.byte	0
 560 0008 69       		.byte	105
 561 0009 00       		.byte	0
ARM GAS  /var/folders/ng/s8655sgx1ys_4lf9jzm2w6n00000gn/T//ccwcyKIs.s 			page 11


 562 000a 63       		.byte	99
 563 000b 00       		.byte	0
 564 000c 72       		.byte	114
 565 000d 00       		.byte	0
 566 000e 6F       		.byte	111
 567 000f 00       		.byte	0
 568 0010 65       		.byte	101
 569 0011 00       		.byte	0
 570 0012 6C       		.byte	108
 571 0013 00       		.byte	0
 572 0014 65       		.byte	101
 573 0015 00       		.byte	0
 574 0016 63       		.byte	99
 575 0017 00       		.byte	0
 576 0018 74       		.byte	116
 577 0019 00       		.byte	0
 578 001a 72       		.byte	114
 579 001b 00       		.byte	0
 580 001c 6F       		.byte	111
 581 001d 00       		.byte	0
 582 001e 6E       		.byte	110
 583 001f 00       		.byte	0
 584 0020 69       		.byte	105
 585 0021 00       		.byte	0
 586 0022 63       		.byte	99
 587 0023 00       		.byte	0
 588 0024 73       		.byte	115
 589 0025 00       		.byte	0
 590 0026 0000     		.section	.rodata._vcom_string2,"a",%progbits
 591              		.align	2
 592              		.type	_vcom_string2, %object
 593              		.size	_vcom_string2, 56
 594              	_vcom_string2:
 595 0000 38       		.byte	56
 596 0001 03       		.byte	3
 597 0002 43       		.byte	67
 598 0003 00       		.byte	0
 599 0004 68       		.byte	104
 600 0005 00       		.byte	0
 601 0006 69       		.byte	105
 602 0007 00       		.byte	0
 603 0008 62       		.byte	98
 604 0009 00       		.byte	0
 605 000a 69       		.byte	105
 606 000b 00       		.byte	0
 607 000c 4F       		.byte	79
 608 000d 00       		.byte	0
 609 000e 53       		.byte	83
 610 000f 00       		.byte	0
 611 0010 2F       		.byte	47
 612 0011 00       		.byte	0
 613 0012 52       		.byte	82
 614 0013 00       		.byte	0
 615 0014 54       		.byte	84
 616 0015 00       		.byte	0
 617 0016 20       		.byte	32
 618 0017 00       		.byte	0
ARM GAS  /var/folders/ng/s8655sgx1ys_4lf9jzm2w6n00000gn/T//ccwcyKIs.s 			page 12


 619 0018 56       		.byte	86
 620 0019 00       		.byte	0
 621 001a 69       		.byte	105
 622 001b 00       		.byte	0
 623 001c 72       		.byte	114
 624 001d 00       		.byte	0
 625 001e 74       		.byte	116
 626 001f 00       		.byte	0
 627 0020 75       		.byte	117
 628 0021 00       		.byte	0
 629 0022 61       		.byte	97
 630 0023 00       		.byte	0
 631 0024 6C       		.byte	108
 632 0025 00       		.byte	0
 633 0026 20       		.byte	32
 634 0027 00       		.byte	0
 635 0028 43       		.byte	67
 636 0029 00       		.byte	0
 637 002a 4F       		.byte	79
 638 002b 00       		.byte	0
 639 002c 4D       		.byte	77
 640 002d 00       		.byte	0
 641 002e 20       		.byte	32
 642 002f 00       		.byte	0
 643 0030 50       		.byte	80
 644 0031 00       		.byte	0
 645 0032 6F       		.byte	111
 646 0033 00       		.byte	0
 647 0034 72       		.byte	114
 648 0035 00       		.byte	0
 649 0036 74       		.byte	116
 650 0037 00       		.byte	0
 651              		.section	.rodata._vcom_device_descriptor,"a",%progbits
 652              		.align	2
 653              		.set	.LANCHOR0,. + 0
 654              		.type	_vcom_device_descriptor, %object
 655              		.size	_vcom_device_descriptor, 8
 656              	_vcom_device_descriptor:
 657 0000 12000000 		.word	18
 658 0004 00000000 		.word	_vcom_device_descriptor_data
 659              		.section	.rodata._usbcfg,"a",%progbits
 660              		.align	2
 661              		.set	.LANCHOR9,. + 0
 662              		.type	_usbcfg, %object
 663              		.size	_usbcfg, 16
 664              	_usbcfg:
 665 0000 00000000 		.word	_usb_event
 666 0004 00000000 		.word	_get_descriptor
 667 0008 00000000 		.word	_request_hook
 668 000c 00000000 		.word	0
 669              		.section	.rodata._vcom_device_descriptor_data,"a",%progbits
 670              		.align	2
 671              		.type	_vcom_device_descriptor_data, %object
 672              		.size	_vcom_device_descriptor_data, 18
 673              	_vcom_device_descriptor_data:
 674 0000 12       		.byte	18
 675 0001 01       		.byte	1
ARM GAS  /var/folders/ng/s8655sgx1ys_4lf9jzm2w6n00000gn/T//ccwcyKIs.s 			page 13


 676 0002 10       		.byte	16
 677 0003 01       		.byte	1
 678 0004 02       		.byte	2
 679 0005 00       		.byte	0
 680 0006 00       		.byte	0
 681 0007 40       		.byte	64
 682 0008 83       		.byte	-125
 683 0009 04       		.byte	4
 684 000a 40       		.byte	64
 685 000b 57       		.byte	87
 686 000c 00       		.byte	0
 687 000d 02       		.byte	2
 688 000e 01       		.byte	1
 689 000f 02       		.byte	2
 690 0010 03       		.byte	3
 691 0011 01       		.byte	1
 692 0012 0000     		.section	.bss.ep2instate,"aw",%nobits
 693              		.align	2
 694              		.type	ep2instate, %object
 695              		.size	ep2instate, 16
 696              	ep2instate:
 697 0000 00000000 		.space	16
 697      00000000 
 697      00000000 
 697      00000000 
 698              		.section	.bss.SDU1,"aw",%nobits
 699              		.align	2
 700              		.set	.LANCHOR7,. + 0
 701              		.type	SDU1, %object
 702              		.size	SDU1, 600
 703              	SDU1:
 704 0000 00000000 		.space	600
 704      00000000 
 704      00000000 
 704      00000000 
 704      00000000 
 705              		.section	.rodata._vcom_configuration_descriptor,"a",%progbits
 706              		.align	2
 707              		.set	.LANCHOR1,. + 0
 708              		.type	_vcom_configuration_descriptor, %object
 709              		.size	_vcom_configuration_descriptor, 8
 710              	_vcom_configuration_descriptor:
 711 0000 43000000 		.word	67
 712 0004 00000000 		.word	_vcom_configuration_descriptor_data
 713              		.text
 714              	.Letext0:
 715              		.file 2 "/Users/jseng/gccarm/bin/../lib/gcc/arm-none-eabi/4.7.4/include/stddef.h"
 716              		.file 3 "/Users/jseng/gccarm/bin/../lib/gcc/arm-none-eabi/4.7.4/../../../../arm-none-eabi/include/
 717              		.file 4 "../AithonLibrary/ChibiOS/os/ports/GCC/ARMCMx/chtypes.h"
 718              		.file 5 "../AithonLibrary/ChibiOS/os/kernel/include/chlists.h"
 719              		.file 6 "../AithonLibrary/ChibiOS/os/kernel/include/chthreads.h"
 720              		.file 7 "../AithonLibrary/ChibiOS/os/ports/GCC/ARMCMx/chcore_v7m.h"
 721              		.file 8 "../AithonLibrary/ChibiOS/os/kernel/include/chmtx.h"
 722              		.file 9 "../AithonLibrary/ChibiOS/os/kernel/include/chevents.h"
 723              		.file 10 "../AithonLibrary/ChibiOS/os/kernel/include/chqueues.h"
 724              		.file 11 "../AithonLibrary/ChibiOS/os/hal/include/usb.h"
 725              		.file 12 "../AithonLibrary/ChibiOS/os/hal/platforms/STM32/OTGv1/usb_lld.h"
ARM GAS  /var/folders/ng/s8655sgx1ys_4lf9jzm2w6n00000gn/T//ccwcyKIs.s 			page 14


 726              		.file 13 "../AithonLibrary/ChibiOS/os/hal/platforms/STM32/OTGv1/stm32_otg.h"
 727              		.file 14 "../AithonLibrary/ChibiOS/os/hal/include/serial_usb.h"
 728              		.file 15 "../AithonLibrary/ChibiOS/os/ports/common/ARMCMx/CMSIS/include/core_cm4.h"
 729              		.file 16 "../AithonLibrary/aithon_private.h"