ARM GAS  /tmp/ccBPASKi.s 			page 1


   1              		.syntax unified
   2              		.cpu cortex-m4
   3              		.eabi_attribute 27, 3
   4              		.fpu fpv4-sp-d16
   5              		.eabi_attribute 20, 1
   6              		.eabi_attribute 21, 1
   7              		.eabi_attribute 23, 3
   8              		.eabi_attribute 24, 1
   9              		.eabi_attribute 25, 1
  10              		.eabi_attribute 26, 1
  11              		.eabi_attribute 30, 2
  12              		.eabi_attribute 34, 1
  13              		.eabi_attribute 18, 4
  14              		.thumb
  15              		.file	"adc.c"
  16              		.text
  17              	.Ltext0:
  18              		.cfi_sections	.debug_frame
  19              		.section	.text.adcInit,"ax",%progbits
  20              		.align	2
  21              		.p2align 4,,15
  22              		.global	adcInit
  23              		.thumb
  24              		.thumb_func
  25              		.type	adcInit, %function
  26              	adcInit:
  27              	.LFB118:
  28              		.file 1 "../AithonLibrary/ChibiOS/os/hal/src/adc.c"
  29              		.loc 1 68 0
  30              		.cfi_startproc
  31              		@ args = 0, pretend = 0, frame = 0
  32              		@ frame_needed = 0, uses_anonymous_args = 0
  33              		@ link register save eliminated.
  34              		.loc 1 70 0
  35 0000 FFF7FEBF 		b	adc_lld_init
  36              	.LVL0:
  37              		.cfi_endproc
  38              	.LFE118:
  39              		.size	adcInit, .-adcInit
  40 0004 AFF30080 		.section	.text.adcObjectInit,"ax",%progbits
  40      AFF30080 
  40      AFF30080 
  41              		.align	2
  42              		.p2align 4,,15
  43              		.global	adcObjectInit
  44              		.thumb
  45              		.thumb_func
  46              		.type	adcObjectInit, %function
  47              	adcObjectInit:
  48              	.LFB119:
  49              		.loc 1 80 0
  50              		.cfi_startproc
  51              		@ args = 0, pretend = 0, frame = 0
  52              		@ frame_needed = 0, uses_anonymous_args = 0
  53              		@ link register save eliminated.
  54              	.LVL1:
  55              		.loc 1 83 0
ARM GAS  /tmp/ccBPASKi.s 			page 2


  56 0000 0023     		movs	r3, #0
  57              		.loc 1 82 0
  58 0002 0122     		movs	r2, #1
  59 0004 0270     		strb	r2, [r0]
  60              		.loc 1 83 0
  61 0006 4360     		str	r3, [r0, #4]
  62              		.loc 1 84 0
  63 0008 8360     		str	r3, [r0, #8]
  64              		.loc 1 85 0
  65 000a C360     		str	r3, [r0, #12]
  66              		.loc 1 86 0
  67 000c 0361     		str	r3, [r0, #16]
  68              		.loc 1 88 0
  69 000e 4361     		str	r3, [r0, #20]
  70 0010 7047     		bx	lr
  71              		.cfi_endproc
  72              	.LFE119:
  73              		.size	adcObjectInit, .-adcObjectInit
  74 0012 00BFAFF3 		.section	.text.adcStart,"ax",%progbits
  74      0080AFF3 
  74      0080AFF3 
  74      0080
  75              		.align	2
  76              		.p2align 4,,15
  77              		.global	adcStart
  78              		.thumb
  79              		.thumb_func
  80              		.type	adcStart, %function
  81              	adcStart:
  82              	.LFB120:
  83              		.loc 1 111 0
  84              		.cfi_startproc
  85              		@ args = 0, pretend = 0, frame = 0
  86              		@ frame_needed = 0, uses_anonymous_args = 0
  87              	.LVL2:
  88 0000 10B5     		push	{r4, lr}
  89              		.cfi_def_cfa_offset 8
  90              		.cfi_offset 4, -8
  91              		.cfi_offset 14, -4
  92              	.LBB10:
  93              		.loc 1 115 0
  94 0002 2023     		movs	r3, #32
  95              	.LBE10:
  96              		.loc 1 111 0
  97 0004 0446     		mov	r4, r0
  98              	.LBB11:
  99              		.loc 1 115 0
 100              	@ 115 "../AithonLibrary/ChibiOS/os/hal/src/adc.c" 1
 101 0006 83F31188 		msr     BASEPRI, r3
 102              	@ 0 "" 2
 103              		.thumb
 104              	.LBE11:
 105              		.loc 1 118 0
 106 000a 4160     		str	r1, [r0, #4]
 107              		.loc 1 119 0
 108 000c FFF7FEFF 		bl	adc_lld_start
 109              	.LVL3:
ARM GAS  /tmp/ccBPASKi.s 			page 3


 110              		.loc 1 120 0
 111 0010 0223     		movs	r3, #2
 112 0012 2370     		strb	r3, [r4]
 113              	.LBB12:
 114              		.loc 1 121 0
 115 0014 0023     		movs	r3, #0
 116              	@ 121 "../AithonLibrary/ChibiOS/os/hal/src/adc.c" 1
 117 0016 83F31188 		msr     BASEPRI, r3
 118              	@ 0 "" 2
 119              		.thumb
 120 001a 10BD     		pop	{r4, pc}
 121              	.LBE12:
 122              		.cfi_endproc
 123              	.LFE120:
 124              		.size	adcStart, .-adcStart
 125 001c AFF30080 		.section	.text.adcStop,"ax",%progbits
 126              		.align	2
 127              		.p2align 4,,15
 128              		.global	adcStop
 129              		.thumb
 130              		.thumb_func
 131              		.type	adcStop, %function
 132              	adcStop:
 133              	.LFB121:
 134              		.loc 1 131 0
 135              		.cfi_startproc
 136              		@ args = 0, pretend = 0, frame = 0
 137              		@ frame_needed = 0, uses_anonymous_args = 0
 138              	.LVL4:
 139 0000 10B5     		push	{r4, lr}
 140              		.cfi_def_cfa_offset 8
 141              		.cfi_offset 4, -8
 142              		.cfi_offset 14, -4
 143              	.LBB13:
 144              		.loc 1 135 0
 145 0002 2023     		movs	r3, #32
 146              	.LBE13:
 147              		.loc 1 131 0
 148 0004 0446     		mov	r4, r0
 149              	.LBB14:
 150              		.loc 1 135 0
 151              	@ 135 "../AithonLibrary/ChibiOS/os/hal/src/adc.c" 1
 152 0006 83F31188 		msr     BASEPRI, r3
 153              	@ 0 "" 2
 154              		.thumb
 155              	.LBE14:
 156              		.loc 1 138 0
 157 000a FFF7FEFF 		bl	adc_lld_stop
 158              	.LVL5:
 159              		.loc 1 139 0
 160 000e 0123     		movs	r3, #1
 161 0010 2370     		strb	r3, [r4]
 162              	.LBB15:
 163              		.loc 1 140 0
 164 0012 0023     		movs	r3, #0
 165              	@ 140 "../AithonLibrary/ChibiOS/os/hal/src/adc.c" 1
 166 0014 83F31188 		msr     BASEPRI, r3
ARM GAS  /tmp/ccBPASKi.s 			page 4


 167              	@ 0 "" 2
 168              		.thumb
 169 0018 10BD     		pop	{r4, pc}
 170              	.LBE15:
 171              		.cfi_endproc
 172              	.LFE121:
 173              		.size	adcStop, .-adcStop
 174 001a 00BFAFF3 		.section	.text.adcStartConversion,"ax",%progbits
 174      0080
 175              		.align	2
 176              		.p2align 4,,15
 177              		.global	adcStartConversion
 178              		.thumb
 179              		.thumb_func
 180              		.type	adcStartConversion, %function
 181              	adcStartConversion:
 182              	.LFB122:
 183              		.loc 1 162 0
 184              		.cfi_startproc
 185              		@ args = 0, pretend = 0, frame = 0
 186              		@ frame_needed = 0, uses_anonymous_args = 0
 187              	.LVL6:
 188 0000 10B5     		push	{r4, lr}
 189              		.cfi_def_cfa_offset 8
 190              		.cfi_offset 4, -8
 191              		.cfi_offset 14, -4
 192              		.loc 1 162 0
 193 0002 1C46     		mov	r4, r3
 194              	.LBB16:
 195              		.loc 1 164 0
 196 0004 2023     		movs	r3, #32
 197              	.LVL7:
 198              	@ 164 "../AithonLibrary/ChibiOS/os/hal/src/adc.c" 1
 199 0006 83F31188 		msr     BASEPRI, r3
 200              	@ 0 "" 2
 201              	.LVL8:
 202              		.thumb
 203              	.LBE16:
 204              	.LBB17:
 205              	.LBB18:
 206              		.loc 1 204 0
 207 000a 0323     		movs	r3, #3
 208 000c 0370     		strb	r3, [r0]
 209              		.loc 1 201 0
 210 000e 8260     		str	r2, [r0, #8]
 211              		.loc 1 202 0
 212 0010 C460     		str	r4, [r0, #12]
 213              		.loc 1 203 0
 214 0012 0161     		str	r1, [r0, #16]
 215              		.loc 1 205 0
 216 0014 FFF7FEFF 		bl	adc_lld_start_conversion
 217              	.LVL9:
 218              	.LBE18:
 219              	.LBE17:
 220              	.LBB19:
 221              		.loc 1 166 0
 222 0018 0023     		movs	r3, #0
ARM GAS  /tmp/ccBPASKi.s 			page 5


 223              	@ 166 "../AithonLibrary/ChibiOS/os/hal/src/adc.c" 1
 224 001a 83F31188 		msr     BASEPRI, r3
 225              	@ 0 "" 2
 226              		.thumb
 227 001e 10BD     		pop	{r4, pc}
 228              	.LBE19:
 229              		.cfi_endproc
 230              	.LFE122:
 231              		.size	adcStartConversion, .-adcStartConversion
 232              		.section	.text.adcStartConversionI,"ax",%progbits
 233              		.align	2
 234              		.p2align 4,,15
 235              		.global	adcStartConversionI
 236              		.thumb
 237              		.thumb_func
 238              		.type	adcStartConversionI, %function
 239              	adcStartConversionI:
 240              	.LFB123:
 241              		.loc 1 190 0
 242              		.cfi_startproc
 243              		@ args = 0, pretend = 0, frame = 0
 244              		@ frame_needed = 0, uses_anonymous_args = 0
 245              		@ link register save eliminated.
 246              	.LVL10:
 247 0000 30B4     		push	{r4, r5}
 248              		.cfi_def_cfa_offset 8
 249              		.cfi_offset 4, -8
 250              		.cfi_offset 5, -4
 251              		.loc 1 204 0
 252 0002 0325     		movs	r5, #3
 253 0004 0570     		strb	r5, [r0]
 254              		.loc 1 201 0
 255 0006 8260     		str	r2, [r0, #8]
 256              		.loc 1 202 0
 257 0008 C360     		str	r3, [r0, #12]
 258              		.loc 1 203 0
 259 000a 0161     		str	r1, [r0, #16]
 260              		.loc 1 206 0
 261 000c 30BC     		pop	{r4, r5}
 262              		.loc 1 205 0
 263 000e FFF7FEBF 		b	adc_lld_start_conversion
 264              	.LVL11:
 265              		.cfi_endproc
 266              	.LFE123:
 267              		.size	adcStartConversionI, .-adcStartConversionI
 268 0012 00BFAFF3 		.section	.text.adcStopConversion,"ax",%progbits
 268      0080AFF3 
 268      0080AFF3 
 268      0080
 269              		.align	2
 270              		.p2align 4,,15
 271              		.global	adcStopConversion
 272              		.thumb
 273              		.thumb_func
 274              		.type	adcStopConversion, %function
 275              	adcStopConversion:
 276              	.LFB124:
ARM GAS  /tmp/ccBPASKi.s 			page 6


 277              		.loc 1 218 0
 278              		.cfi_startproc
 279              		@ args = 0, pretend = 0, frame = 0
 280              		@ frame_needed = 0, uses_anonymous_args = 0
 281              	.LVL12:
 282 0000 10B5     		push	{r4, lr}
 283              		.cfi_def_cfa_offset 8
 284              		.cfi_offset 4, -8
 285              		.cfi_offset 14, -4
 286              	.LBB20:
 287              		.loc 1 222 0
 288 0002 2023     		movs	r3, #32
 289              	.LBE20:
 290              		.loc 1 218 0
 291 0004 0446     		mov	r4, r0
 292              	.LBB21:
 293              		.loc 1 222 0
 294              	@ 222 "../AithonLibrary/ChibiOS/os/hal/src/adc.c" 1
 295 0006 83F31188 		msr     BASEPRI, r3
 296              	@ 0 "" 2
 297              		.thumb
 298              	.LBE21:
 299              		.loc 1 226 0
 300 000a 0378     		ldrb	r3, [r0]	@ zero_extendqisi2
 301 000c 022B     		cmp	r3, #2
 302 000e 0CD0     		beq	.L9
 303              		.loc 1 227 0
 304 0010 FFF7FEFF 		bl	adc_lld_stop_conversion
 305              	.LVL13:
 306              		.loc 1 230 0
 307 0014 6069     		ldr	r0, [r4, #20]
 308              		.loc 1 228 0
 309 0016 0023     		movs	r3, #0
 310              		.loc 1 229 0
 311 0018 0222     		movs	r2, #2
 312              		.loc 1 228 0
 313 001a 2361     		str	r3, [r4, #16]
 314              		.loc 1 229 0
 315 001c 2270     		strb	r2, [r4]
 316              		.loc 1 230 0
 317 001e 20B1     		cbz	r0, .L9
 318              	.LVL14:
 319              	.LBB22:
 320              		.loc 1 230 0 is_stmt 0 discriminator 1
 321 0020 6361     		str	r3, [r4, #20]
 322 0022 6FF00101 		mvn	r1, #1
 323 0026 FFF7FEFF 		bl	chSchWakeupS
 324              	.LVL15:
 325              	.L9:
 326              	.LBE22:
 327              	.LBB23:
 328              		.loc 1 232 0 is_stmt 1
 329 002a 0023     		movs	r3, #0
 330              	@ 232 "../AithonLibrary/ChibiOS/os/hal/src/adc.c" 1
 331 002c 83F31188 		msr     BASEPRI, r3
 332              	@ 0 "" 2
 333              		.thumb
ARM GAS  /tmp/ccBPASKi.s 			page 7


 334 0030 10BD     		pop	{r4, pc}
 335              	.LBE23:
 336              		.cfi_endproc
 337              	.LFE124:
 338              		.size	adcStopConversion, .-adcStopConversion
 339 0032 00BFAFF3 		.section	.text.adcStopConversionI,"ax",%progbits
 339      0080AFF3 
 339      0080AFF3 
 339      0080
 340              		.align	2
 341              		.p2align 4,,15
 342              		.global	adcStopConversionI
 343              		.thumb
 344              		.thumb_func
 345              		.type	adcStopConversionI, %function
 346              	adcStopConversionI:
 347              	.LFB125:
 348              		.loc 1 245 0
 349              		.cfi_startproc
 350              		@ args = 0, pretend = 0, frame = 0
 351              		@ frame_needed = 0, uses_anonymous_args = 0
 352              	.LVL16:
 353              		.loc 1 254 0
 354 0000 0378     		ldrb	r3, [r0]	@ zero_extendqisi2
 355 0002 022B     		cmp	r3, #2
 356              		.loc 1 245 0
 357 0004 10B5     		push	{r4, lr}
 358              		.cfi_def_cfa_offset 8
 359              		.cfi_offset 4, -8
 360              		.cfi_offset 14, -4
 361              		.loc 1 245 0
 362 0006 0446     		mov	r4, r0
 363              		.loc 1 254 0
 364 0008 10D0     		beq	.L15
 365              		.loc 1 255 0
 366 000a FFF7FEFF 		bl	adc_lld_stop_conversion
 367              	.LVL17:
 368              		.loc 1 258 0
 369 000e 6369     		ldr	r3, [r4, #20]
 370              		.loc 1 256 0
 371 0010 0022     		movs	r2, #0
 372              		.loc 1 257 0
 373 0012 0221     		movs	r1, #2
 374              		.loc 1 256 0
 375 0014 2261     		str	r2, [r4, #16]
 376              		.loc 1 257 0
 377 0016 2170     		strb	r1, [r4]
 378              		.loc 1 258 0
 379 0018 43B1     		cbz	r3, .L15
 380              	.LVL18:
 381              	.LBB24:
 382              		.loc 1 258 0 is_stmt 0 discriminator 1
 383 001a 6FF00101 		mvn	r1, #1
 384 001e 6261     		str	r2, [r4, #20]
 385 0020 5962     		str	r1, [r3, #36]
 386 0022 1846     		mov	r0, r3
 387              	.LBE24:
ARM GAS  /tmp/ccBPASKi.s 			page 8


 388              		.loc 1 260 0 is_stmt 1 discriminator 1
 389 0024 BDE81040 		pop	{r4, lr}
 390              	.LVL19:
 391              	.LBB25:
 392              		.loc 1 258 0 discriminator 1
 393 0028 FFF7FEBF 		b	chSchReadyI
 394              	.LVL20:
 395              	.L15:
 396 002c 10BD     		pop	{r4, pc}
 397              	.LBE25:
 398              		.cfi_endproc
 399              	.LFE125:
 400              		.size	adcStopConversionI, .-adcStopConversionI
 401 002e 00BF     		.section	.text.adcConvert,"ax",%progbits
 402              		.align	2
 403              		.p2align 4,,15
 404              		.global	adcConvert
 405              		.thumb
 406              		.thumb_func
 407              		.type	adcConvert, %function
 408              	adcConvert:
 409              	.LFB126:
 410              		.loc 1 289 0
 411              		.cfi_startproc
 412              		@ args = 0, pretend = 0, frame = 0
 413              		@ frame_needed = 0, uses_anonymous_args = 0
 414              	.LVL21:
 415 0000 70B5     		push	{r4, r5, r6, lr}
 416              		.cfi_def_cfa_offset 16
 417              		.cfi_offset 4, -16
 418              		.cfi_offset 5, -12
 419              		.cfi_offset 6, -8
 420              		.cfi_offset 14, -4
 421              		.loc 1 289 0
 422 0002 1E46     		mov	r6, r3
 423 0004 0446     		mov	r4, r0
 424              	.LBB26:
 425              		.loc 1 292 0
 426 0006 2023     		movs	r3, #32
 427              	.LVL22:
 428              	@ 292 "../AithonLibrary/ChibiOS/os/hal/src/adc.c" 1
 429 0008 83F31188 		msr     BASEPRI, r3
 430              	@ 0 "" 2
 431              	.LVL23:
 432              		.thumb
 433              	.LBE26:
 434              	.LBB27:
 435              	.LBB28:
 436              		.loc 1 204 0
 437 000c 0323     		movs	r3, #3
 438              	.LBE28:
 439              	.LBE27:
 440              		.loc 1 295 0
 441 000e 094D     		ldr	r5, .L23
 442              	.LBB30:
 443              	.LBB29:
 444              		.loc 1 201 0
ARM GAS  /tmp/ccBPASKi.s 			page 9


 445 0010 8260     		str	r2, [r0, #8]
 446              		.loc 1 203 0
 447 0012 0161     		str	r1, [r0, #16]
 448              		.loc 1 202 0
 449 0014 C660     		str	r6, [r0, #12]
 450              		.loc 1 204 0
 451 0016 0370     		strb	r3, [r0]
 452              		.loc 1 205 0
 453 0018 FFF7FEFF 		bl	adc_lld_start_conversion
 454              	.LVL24:
 455              	.LBE29:
 456              	.LBE30:
 457              		.loc 1 295 0
 458 001c AB69     		ldr	r3, [r5, #24]
 459 001e 6361     		str	r3, [r4, #20]
 460              		.loc 1 296 0
 461 0020 0220     		movs	r0, #2
 462 0022 FFF7FEFF 		bl	chSchGoSleepS
 463              	.LVL25:
 464              		.loc 1 297 0
 465 0026 AA69     		ldr	r2, [r5, #24]
 466              	.LBB31:
 467              		.loc 1 298 0
 468 0028 0023     		movs	r3, #0
 469              	.LBE31:
 470              		.loc 1 297 0
 471 002a 506A     		ldr	r0, [r2, #36]
 472              	.LVL26:
 473              	.LBB32:
 474              		.loc 1 298 0
 475              	@ 298 "../AithonLibrary/ChibiOS/os/hal/src/adc.c" 1
 476 002c 83F31188 		msr     BASEPRI, r3
 477              	@ 0 "" 2
 478              		.thumb
 479              	.LBE32:
 480              		.loc 1 300 0
 481 0030 70BD     		pop	{r4, r5, r6, pc}
 482              	.LVL27:
 483              	.L24:
 484 0032 00BF     		.align	2
 485              	.L23:
 486 0034 00000000 		.word	rlist
 487              		.cfi_endproc
 488              	.LFE126:
 489              		.size	adcConvert, .-adcConvert
 490 0038 AFF30080 		.text
 490      AFF30080 
 491              	.Letext0:
 492              		.file 2 "/usr/lib/gcc/arm-none-eabi/4.8.3/include/stddef.h"
 493              		.file 3 "/usr/arm-none-eabi/include/stdint.h"
 494              		.file 4 "../AithonLibrary/ChibiOS/os/ports/GCC/ARMCMx/chtypes.h"
 495              		.file 5 "../AithonLibrary/ChibiOS/os/kernel/include/chlists.h"
 496              		.file 6 "../AithonLibrary/ChibiOS/os/kernel/include/chthreads.h"
 497              		.file 7 "../AithonLibrary/ChibiOS/os/ports/GCC/ARMCMx/chcore_v7m.h"
 498              		.file 8 "../AithonLibrary/ChibiOS/os/kernel/include/chschd.h"
 499              		.file 9 "../AithonLibrary/ChibiOS/os/kernel/include/chmtx.h"
 500              		.file 10 "../AithonLibrary/ChibiOS/os/hal/platforms/STM32F4xx/stm32f4xx.h"
ARM GAS  /tmp/ccBPASKi.s 			page 10


 501              		.file 11 "../AithonLibrary/ChibiOS/os/hal/platforms/STM32F4xx/stm32_dma.h"
 502              		.file 12 "../AithonLibrary/ChibiOS/os/hal/include/adc.h"
 503              		.file 13 "../AithonLibrary/ChibiOS/os/hal/platforms/STM32F4xx/adc_lld.h"
 504              		.file 14 "../AithonLibrary/ChibiOS/os/ports/common/ARMCMx/CMSIS/include/core_cm4.h"