ARM GAS  /tmp/ccJRqqhN.s 			page 1


   1              		.syntax unified
   2              		.cpu cortex-m4
   3              		.eabi_attribute 27, 3
   4              		.fpu fpv4-sp-d16
   5              		.eabi_attribute 20, 1
   6              		.eabi_attribute 21, 1
   7              		.eabi_attribute 23, 3
   8              		.eabi_attribute 24, 1
   9              		.eabi_attribute 25, 1
  10              		.eabi_attribute 26, 1
  11              		.eabi_attribute 30, 2
  12              		.eabi_attribute 34, 1
  13              		.eabi_attribute 18, 4
  14              		.thumb
  15              		.file	"adc_lld.c"
  16              		.text
  17              	.Ltext0:
  18              		.cfi_sections	.debug_frame
  19              		.section	.text.adc_lld_init,"ax",%progbits
  20              		.align	2
  21              		.p2align 4,,15
  22              		.global	adc_lld_init
  23              		.thumb
  24              		.thumb_func
  25              		.type	adc_lld_init, %function
  26              	adc_lld_init:
  27              	.LFB120:
  28              		.file 1 "../AithonLibrary/ChibiOS/os/hal/platforms/STM32F4xx/adc_lld.c"
  29              		.loc 1 171 0
  30              		.cfi_startproc
  31              		@ args = 0, pretend = 0, frame = 0
  32              		@ frame_needed = 0, uses_anonymous_args = 0
  33 0000 F8B5     		push	{r3, r4, r5, r6, r7, lr}
  34              		.cfi_def_cfa_offset 24
  35              		.cfi_offset 3, -24
  36              		.cfi_offset 4, -20
  37              		.cfi_offset 5, -16
  38              		.cfi_offset 6, -12
  39              		.cfi_offset 7, -8
  40              		.cfi_offset 14, -4
  41              		.loc 1 175 0
  42 0002 124E     		ldr	r6, .L2
  43              		.loc 1 188 0
  44 0004 124D     		ldr	r5, .L2+4
  45              		.loc 1 201 0
  46 0006 134C     		ldr	r4, .L2+8
  47              		.loc 1 177 0
  48 0008 134F     		ldr	r7, .L2+12
  49              		.loc 1 175 0
  50 000a 3046     		mov	r0, r6
  51 000c FFF7FEFF 		bl	adcObjectInit
  52              	.LVL0:
  53              		.loc 1 176 0
  54 0010 124A     		ldr	r2, .L2+16
  55              		.loc 1 178 0
  56 0012 134B     		ldr	r3, .L2+20
  57              		.loc 1 176 0
ARM GAS  /tmp/ccJRqqhN.s 			page 2


  58 0014 B261     		str	r2, [r6, #24]
  59              		.loc 1 188 0
  60 0016 2846     		mov	r0, r5
  61              		.loc 1 178 0
  62 0018 3362     		str	r3, [r6, #32]
  63              		.loc 1 177 0
  64 001a F761     		str	r7, [r6, #28]
  65              		.loc 1 188 0
  66 001c FFF7FEFF 		bl	adcObjectInit
  67              	.LVL1:
  68              		.loc 1 189 0
  69 0020 104A     		ldr	r2, .L2+24
  70              		.loc 1 191 0
  71 0022 114B     		ldr	r3, .L2+28
  72              		.loc 1 189 0
  73 0024 AA61     		str	r2, [r5, #24]
  74              		.loc 1 201 0
  75 0026 2046     		mov	r0, r4
  76              		.loc 1 190 0
  77 0028 A7F11802 		sub	r2, r7, #24
  78 002c EA61     		str	r2, [r5, #28]
  79              		.loc 1 191 0
  80 002e 2B62     		str	r3, [r5, #32]
  81              		.loc 1 203 0
  82 0030 243F     		subs	r7, r7, #36
  83              		.loc 1 201 0
  84 0032 FFF7FEFF 		bl	adcObjectInit
  85              	.LVL2:
  86              		.loc 1 204 0
  87 0036 0D4B     		ldr	r3, .L2+32
  88              		.loc 1 202 0
  89 0038 0D4A     		ldr	r2, .L2+36
  90              		.loc 1 203 0
  91 003a E761     		str	r7, [r4, #28]
  92              		.loc 1 202 0
  93 003c A261     		str	r2, [r4, #24]
  94              		.loc 1 204 0
  95 003e 2362     		str	r3, [r4, #32]
  96              		.loc 1 214 0
  97 0040 1220     		movs	r0, #18
  98 0042 6021     		movs	r1, #96
  99              		.loc 1 215 0
 100 0044 BDE8F840 		pop	{r3, r4, r5, r6, r7, lr}
 101              		.loc 1 214 0
 102 0048 FFF7FEBF 		b	nvicEnableVector
 103              	.LVL3:
 104              	.L3:
 105              		.align	2
 106              	.L2:
 107 004c 00000000 		.word	.LANCHOR0
 108 0050 00000000 		.word	.LANCHOR1
 109 0054 00000000 		.word	.LANCHOR2
 110 0058 90000000 		.word	_stm32_dma_streams+144
 111 005c 00200140 		.word	1073815552
 112 0060 162C0200 		.word	142358
 113 0064 00210140 		.word	1073815808
 114 0068 162C0202 		.word	33696790
ARM GAS  /tmp/ccJRqqhN.s 			page 3


 115 006c 162C0204 		.word	67251222
 116 0070 00220140 		.word	1073816064
 117              		.cfi_endproc
 118              	.LFE120:
 119              		.size	adc_lld_init, .-adc_lld_init
 120 0074 AFF30080 		.section	.text.adc_lld_start,"ax",%progbits
 120      AFF30080 
 120      AFF30080 
 121              		.align	2
 122              		.p2align 4,,15
 123              		.global	adc_lld_start
 124              		.thumb
 125              		.thumb_func
 126              		.type	adc_lld_start, %function
 127              	adc_lld_start:
 128              	.LFB121:
 129              		.loc 1 224 0
 130              		.cfi_startproc
 131              		@ args = 0, pretend = 0, frame = 0
 132              		@ frame_needed = 0, uses_anonymous_args = 0
 133              	.LVL4:
 134              		.loc 1 227 0
 135 0000 0378     		ldrb	r3, [r0]	@ zero_extendqisi2
 136 0002 012B     		cmp	r3, #1
 137              		.loc 1 224 0
 138 0004 10B5     		push	{r4, lr}
 139              		.cfi_def_cfa_offset 8
 140              		.cfi_offset 4, -8
 141              		.cfi_offset 14, -4
 142              		.loc 1 224 0
 143 0006 0446     		mov	r4, r0
 144              		.loc 1 227 0
 145 0008 00D0     		beq	.L10
 146 000a 10BD     		pop	{r4, pc}
 147              	.L10:
 148              		.loc 1 229 0
 149 000c 234B     		ldr	r3, .L14
 150 000e 9842     		cmp	r0, r3
 151 0010 13D0     		beq	.L11
 152              		.loc 1 242 0
 153 0012 234B     		ldr	r3, .L14+4
 154 0014 9842     		cmp	r0, r3
 155 0016 20D0     		beq	.L12
 156              		.loc 1 255 0
 157 0018 224B     		ldr	r3, .L14+8
 158 001a 9842     		cmp	r0, r3
 159 001c 2DD0     		beq	.L13
 160              	.LVL5:
 161              	.L7:
 162              		.loc 1 269 0
 163 001e 2249     		ldr	r1, .L14+12
 164              		.loc 1 274 0
 165 0020 A369     		ldr	r3, [r4, #24]
 166              		.loc 1 269 0
 167 0022 4C68     		ldr	r4, [r1, #4]
 168              	.LVL6:
 169 0024 04F44004 		and	r4, r4, #12582912
ARM GAS  /tmp/ccJRqqhN.s 			page 4


 170              		.loc 1 274 0
 171 0028 0022     		movs	r2, #0
 172              		.loc 1 269 0
 173 002a 44F48034 		orr	r4, r4, #65536
 174              		.loc 1 276 0
 175 002e 0120     		movs	r0, #1
 176              		.loc 1 269 0
 177 0030 4C60     		str	r4, [r1, #4]
 178              		.loc 1 274 0
 179 0032 5A60     		str	r2, [r3, #4]
 180              		.loc 1 275 0
 181 0034 9A60     		str	r2, [r3, #8]
 182              		.loc 1 276 0
 183 0036 9860     		str	r0, [r3, #8]
 184 0038 10BD     		pop	{r4, pc}
 185              	.LVL7:
 186              	.L11:
 187              	.LBB2:
 188              		.loc 1 231 0
 189 003a 1C4A     		ldr	r2, .L14+16
 190 003c C069     		ldr	r0, [r0, #28]
 191              	.LVL8:
 192 003e 0621     		movs	r1, #6
 193 0040 2346     		mov	r3, r4
 194 0042 FFF7FEFF 		bl	dmaStreamAllocate
 195              	.LVL9:
 196              		.loc 1 236 0
 197 0046 E369     		ldr	r3, [r4, #28]
 198 0048 1949     		ldr	r1, .L14+20
 199 004a 1A68     		ldr	r2, [r3]
 200              		.loc 1 237 0
 201 004c 194B     		ldr	r3, .L14+24
 202              		.loc 1 236 0
 203 004e 9160     		str	r1, [r2, #8]
 204              		.loc 1 237 0
 205 0050 5A6C     		ldr	r2, [r3, #68]
 206 0052 42F48072 		orr	r2, r2, #256
 207 0056 5A64     		str	r2, [r3, #68]
 208 0058 E1E7     		b	.L7
 209              	.LVL10:
 210              	.L12:
 211              	.LBE2:
 212              	.LBB3:
 213              		.loc 1 244 0
 214 005a 144A     		ldr	r2, .L14+16
 215 005c C069     		ldr	r0, [r0, #28]
 216              	.LVL11:
 217 005e 0621     		movs	r1, #6
 218 0060 2346     		mov	r3, r4
 219 0062 FFF7FEFF 		bl	dmaStreamAllocate
 220              	.LVL12:
 221              		.loc 1 249 0
 222 0066 E369     		ldr	r3, [r4, #28]
 223 0068 1349     		ldr	r1, .L14+28
 224 006a 1A68     		ldr	r2, [r3]
 225              		.loc 1 250 0
 226 006c 114B     		ldr	r3, .L14+24
ARM GAS  /tmp/ccJRqqhN.s 			page 5


 227              		.loc 1 249 0
 228 006e 9160     		str	r1, [r2, #8]
 229              		.loc 1 250 0
 230 0070 5A6C     		ldr	r2, [r3, #68]
 231 0072 42F40072 		orr	r2, r2, #512
 232 0076 5A64     		str	r2, [r3, #68]
 233 0078 D1E7     		b	.L7
 234              	.LVL13:
 235              	.L13:
 236              	.LBE3:
 237              	.LBB4:
 238              		.loc 1 257 0
 239 007a 0C4A     		ldr	r2, .L14+16
 240 007c C069     		ldr	r0, [r0, #28]
 241              	.LVL14:
 242 007e 0621     		movs	r1, #6
 243 0080 2346     		mov	r3, r4
 244 0082 FFF7FEFF 		bl	dmaStreamAllocate
 245              	.LVL15:
 246              		.loc 1 262 0
 247 0086 E369     		ldr	r3, [r4, #28]
 248 0088 0C49     		ldr	r1, .L14+32
 249 008a 1A68     		ldr	r2, [r3]
 250              		.loc 1 263 0
 251 008c 094B     		ldr	r3, .L14+24
 252              		.loc 1 262 0
 253 008e 9160     		str	r1, [r2, #8]
 254              		.loc 1 263 0
 255 0090 5A6C     		ldr	r2, [r3, #68]
 256 0092 42F48062 		orr	r2, r2, #1024
 257 0096 5A64     		str	r2, [r3, #68]
 258 0098 C1E7     		b	.L7
 259              	.L15:
 260 009a 00BF     		.align	2
 261              	.L14:
 262 009c 00000000 		.word	.LANCHOR0
 263 00a0 00000000 		.word	.LANCHOR1
 264 00a4 00000000 		.word	.LANCHOR2
 265 00a8 00230140 		.word	1073816320
 266 00ac 00000000 		.word	adc_lld_serve_rx_interrupt
 267 00b0 4C200140 		.word	1073815628
 268 00b4 00380240 		.word	1073887232
 269 00b8 4C210140 		.word	1073815884
 270 00bc 4C220140 		.word	1073816140
 271              	.LBE4:
 272              		.cfi_endproc
 273              	.LFE121:
 274              		.size	adc_lld_start, .-adc_lld_start
 275              		.section	.text.adc_lld_stop,"ax",%progbits
 276              		.align	2
 277              		.p2align 4,,15
 278              		.global	adc_lld_stop
 279              		.thumb
 280              		.thumb_func
 281              		.type	adc_lld_stop, %function
 282              	adc_lld_stop:
 283              	.LFB122:
ARM GAS  /tmp/ccJRqqhN.s 			page 6


 284              		.loc 1 287 0
 285              		.cfi_startproc
 286              		@ args = 0, pretend = 0, frame = 0
 287              		@ frame_needed = 0, uses_anonymous_args = 0
 288              	.LVL16:
 289              		.loc 1 290 0
 290 0000 0378     		ldrb	r3, [r0]	@ zero_extendqisi2
 291 0002 022B     		cmp	r3, #2
 292              		.loc 1 287 0
 293 0004 10B5     		push	{r4, lr}
 294              		.cfi_def_cfa_offset 8
 295              		.cfi_offset 4, -8
 296              		.cfi_offset 14, -4
 297              		.loc 1 287 0
 298 0006 0446     		mov	r4, r0
 299              		.loc 1 290 0
 300 0008 00D0     		beq	.L22
 301              	.LVL17:
 302              	.L16:
 303 000a 10BD     		pop	{r4, pc}
 304              	.LVL18:
 305              	.L22:
 306              		.loc 1 291 0
 307 000c C069     		ldr	r0, [r0, #28]
 308              	.LVL19:
 309 000e FFF7FEFF 		bl	dmaStreamRelease
 310              	.LVL20:
 311              		.loc 1 296 0
 312 0012 0F49     		ldr	r1, .L25
 313              		.loc 1 292 0
 314 0014 A369     		ldr	r3, [r4, #24]
 315 0016 0022     		movs	r2, #0
 316              		.loc 1 296 0
 317 0018 8C42     		cmp	r4, r1
 318              		.loc 1 292 0
 319 001a 5A60     		str	r2, [r3, #4]
 320              		.loc 1 293 0
 321 001c 9A60     		str	r2, [r3, #8]
 322              		.loc 1 296 0
 323 001e 11D0     		beq	.L23
 324              		.loc 1 301 0
 325 0020 0C4B     		ldr	r3, .L25+4
 326 0022 9C42     		cmp	r4, r3
 327 0024 08D0     		beq	.L24
 328              		.loc 1 306 0
 329 0026 0C4B     		ldr	r3, .L25+8
 330 0028 9C42     		cmp	r4, r3
 331 002a EED1     		bne	.L16
 332              		.loc 1 307 0
 333 002c 0B4B     		ldr	r3, .L25+12
 334 002e 5A6C     		ldr	r2, [r3, #68]
 335 0030 22F48062 		bic	r2, r2, #1024
 336 0034 5A64     		str	r2, [r3, #68]
 337 0036 E8E7     		b	.L16
 338              	.L24:
 339              		.loc 1 302 0
 340 0038 084B     		ldr	r3, .L25+12
ARM GAS  /tmp/ccJRqqhN.s 			page 7


 341 003a 5A6C     		ldr	r2, [r3, #68]
 342 003c 22F40072 		bic	r2, r2, #512
 343 0040 5A64     		str	r2, [r3, #68]
 344 0042 10BD     		pop	{r4, pc}
 345              	.LVL21:
 346              	.L23:
 347              		.loc 1 297 0
 348 0044 054B     		ldr	r3, .L25+12
 349 0046 5A6C     		ldr	r2, [r3, #68]
 350 0048 22F48072 		bic	r2, r2, #256
 351 004c 5A64     		str	r2, [r3, #68]
 352 004e 10BD     		pop	{r4, pc}
 353              	.LVL22:
 354              	.L26:
 355              		.align	2
 356              	.L25:
 357 0050 00000000 		.word	.LANCHOR0
 358 0054 00000000 		.word	.LANCHOR1
 359 0058 00000000 		.word	.LANCHOR2
 360 005c 00380240 		.word	1073887232
 361              		.cfi_endproc
 362              	.LFE122:
 363              		.size	adc_lld_stop, .-adc_lld_stop
 364              		.section	.text.adc_lld_start_conversion,"ax",%progbits
 365              		.align	2
 366              		.p2align 4,,15
 367              		.global	adc_lld_start_conversion
 368              		.thumb
 369              		.thumb_func
 370              		.type	adc_lld_start_conversion, %function
 371              	adc_lld_start_conversion:
 372              	.LFB123:
 373              		.loc 1 319 0
 374              		.cfi_startproc
 375              		@ args = 0, pretend = 0, frame = 0
 376              		@ frame_needed = 0, uses_anonymous_args = 0
 377              		@ link register save eliminated.
 378              	.LVL23:
 379              		.loc 1 321 0
 380 0000 0369     		ldr	r3, [r0, #16]
 381              	.LVL24:
 382              		.loc 1 324 0
 383 0002 026A     		ldr	r2, [r0, #32]
 384              	.LVL25:
 385              		.loc 1 325 0
 386 0004 1978     		ldrb	r1, [r3]	@ zero_extendqisi2
 387              		.loc 1 319 0
 388 0006 2DE9F003 		push	{r4, r5, r6, r7, r8, r9}
 389              		.cfi_def_cfa_offset 24
 390              		.cfi_offset 4, -24
 391              		.cfi_offset 5, -20
 392              		.cfi_offset 6, -16
 393              		.cfi_offset 7, -12
 394              		.cfi_offset 8, -8
 395              		.cfi_offset 9, -4
 396              		.loc 1 327 0
 397 000a C468     		ldr	r4, [r0, #12]
ARM GAS  /tmp/ccJRqqhN.s 			page 8


 398              		.loc 1 325 0
 399 000c 29B1     		cbz	r1, .L29
 400              	.LVL26:
 401              		.loc 1 327 0
 402 000e 012C     		cmp	r4, #1
 403              		.loc 1 326 0
 404 0010 94BF     		ite	ls
 405 0012 42F48072 		orrls	r2, r2, #256
 406              	.LVL27:
 407              		.loc 1 330 0
 408 0016 42F48472 		orrhi	r2, r2, #264
 409              	.LVL28:
 410              	.L29:
 411              		.loc 1 333 0
 412 001a C169     		ldr	r1, [r0, #28]
 413              		.loc 1 334 0
 414 001c 5E88     		ldrh	r6, [r3, #2]
 415              		.loc 1 333 0
 416 001e 0968     		ldr	r1, [r1]
 417 0020 8568     		ldr	r5, [r0, #8]
 418 0022 CD60     		str	r5, [r1, #12]
 419              		.loc 1 334 0
 420 0024 06FB04F4 		mul	r4, r6, r4
 421 0028 4C60     		str	r4, [r1, #4]
 422              		.loc 1 349 0
 423 002a D3F80C80 		ldr	r8, [r3, #12]
 424              		.loc 1 336 0
 425 002e 0A60     		str	r2, [r1]
 426              		.loc 1 340 0
 427 0030 8269     		ldr	r2, [r0, #24]
 428              	.LVL29:
 429              		.loc 1 350 0
 430 0032 1869     		ldr	r0, [r3, #16]
 431              	.LVL30:
 432              		.loc 1 337 0
 433 0034 D1F80090 		ldr	r9, [r1]
 434              		.loc 1 342 0
 435 0038 9F69     		ldr	r7, [r3, #24]
 436              		.loc 1 343 0
 437 003a DE69     		ldr	r6, [r3, #28]
 438              		.loc 1 344 0
 439 003c 1D6A     		ldr	r5, [r3, #32]
 440              		.loc 1 345 0
 441 003e 5C6A     		ldr	r4, [r3, #36]
 442              		.loc 1 341 0
 443 0040 D3F814C0 		ldr	ip, [r3, #20]
 444              		.loc 1 350 0
 445 0044 10F0804F 		tst	r0, #1073741824
 446              		.loc 1 349 0
 447 0048 48F08063 		orr	r3, r8, #67108864
 448              	.LVL31:
 449              		.loc 1 352 0
 450 004c 40F44070 		orr	r0, r0, #768
 451              		.loc 1 337 0
 452 0050 49F00109 		orr	r9, r9, #1
 453              		.loc 1 340 0
 454 0054 4FF00008 		mov	r8, #0
ARM GAS  /tmp/ccJRqqhN.s 			page 9


 455              		.loc 1 349 0
 456 0058 43F48073 		orr	r3, r3, #256
 457              		.loc 1 352 0
 458 005c 14BF     		ite	ne
 459 005e 40F00300 		orrne	r0, r0, #3
 460              		.loc 1 355 0
 461 0062 40F00100 		orreq	r0, r0, #1
 462              		.loc 1 337 0
 463 0066 C1F80090 		str	r9, [r1]
 464              	.LVL32:
 465              		.loc 1 340 0
 466 006a C2F80080 		str	r8, [r2]
 467              		.loc 1 341 0
 468 006e C2F80CC0 		str	ip, [r2, #12]
 469              		.loc 1 342 0
 470 0072 1761     		str	r7, [r2, #16]
 471              		.loc 1 343 0
 472 0074 D662     		str	r6, [r2, #44]
 473              		.loc 1 344 0
 474 0076 1563     		str	r5, [r2, #48]
 475              		.loc 1 345 0
 476 0078 5463     		str	r4, [r2, #52]
 477              		.loc 1 349 0
 478 007a 5360     		str	r3, [r2, #4]
 479              		.loc 1 356 0
 480 007c BDE8F003 		pop	{r4, r5, r6, r7, r8, r9}
 481              		.loc 1 354 0
 482 0080 9060     		str	r0, [r2, #8]
 483              		.loc 1 356 0
 484 0082 7047     		bx	lr
 485              		.cfi_endproc
 486              	.LFE123:
 487              		.size	adc_lld_start_conversion, .-adc_lld_start_conversion
 488 0084 AFF30080 		.section	.text.adc_lld_stop_conversion,"ax",%progbits
 488      AFF30080 
 488      AFF30080 
 489              		.align	2
 490              		.p2align 4,,15
 491              		.global	adc_lld_stop_conversion
 492              		.thumb
 493              		.thumb_func
 494              		.type	adc_lld_stop_conversion, %function
 495              	adc_lld_stop_conversion:
 496              	.LFB124:
 497              		.loc 1 365 0
 498              		.cfi_startproc
 499              		@ args = 0, pretend = 0, frame = 0
 500              		@ frame_needed = 0, uses_anonymous_args = 0
 501              		@ link register save eliminated.
 502              	.LVL33:
 503              		.loc 1 367 0
 504 0000 C169     		ldr	r1, [r0, #28]
 505 0002 0A68     		ldr	r2, [r1]
 506 0004 1368     		ldr	r3, [r2]
 507 0006 23F01F03 		bic	r3, r3, #31
 508              		.loc 1 365 0
 509 000a 10B4     		push	{r4}
ARM GAS  /tmp/ccJRqqhN.s 			page 10


 510              		.cfi_def_cfa_offset 4
 511              		.cfi_offset 4, -4
 512              		.loc 1 367 0
 513 000c 1360     		str	r3, [r2]
 514              	.L35:
 515              		.loc 1 367 0 is_stmt 0 discriminator 1
 516 000e 1368     		ldr	r3, [r2]
 517 0010 13F00103 		ands	r3, r3, #1
 518 0014 FBD1     		bne	.L35
 519              		.loc 1 367 0 discriminator 2
 520 0016 0C7A     		ldrb	r4, [r1, #8]	@ zero_extendqisi2
 521              		.loc 1 368 0 is_stmt 1 discriminator 2
 522 0018 8269     		ldr	r2, [r0, #24]
 523              		.loc 1 367 0 discriminator 2
 524 001a 4868     		ldr	r0, [r1, #4]
 525              	.LVL34:
 526 001c 3D21     		movs	r1, #61
 527 001e 01FA04F4 		lsl	r4, r1, r4
 528              		.loc 1 370 0 discriminator 2
 529 0022 0121     		movs	r1, #1
 530              		.loc 1 367 0 discriminator 2
 531 0024 0460     		str	r4, [r0]
 532              		.loc 1 368 0 discriminator 2
 533 0026 5360     		str	r3, [r2, #4]
 534              		.loc 1 371 0 discriminator 2
 535 0028 5DF8044B 		ldr	r4, [sp], #4
 536              		.loc 1 369 0 discriminator 2
 537 002c 9360     		str	r3, [r2, #8]
 538              		.loc 1 370 0 discriminator 2
 539 002e 9160     		str	r1, [r2, #8]
 540              		.loc 1 371 0 discriminator 2
 541 0030 7047     		bx	lr
 542              		.cfi_endproc
 543              	.LFE124:
 544              		.size	adc_lld_stop_conversion, .-adc_lld_stop_conversion
 545 0032 00BFAFF3 		.section	.text.Vector88,"ax",%progbits
 545      0080AFF3 
 545      0080AFF3 
 545      0080
 546              		.align	2
 547              		.p2align 4,,15
 548              		.global	Vector88
 549              		.thumb
 550              		.thumb_func
 551              		.type	Vector88, %function
 552              	Vector88:
 553              	.LFB119:
 554              		.loc 1 111 0
 555              		.cfi_startproc
 556              		@ args = 0, pretend = 0, frame = 0
 557              		@ frame_needed = 0, uses_anonymous_args = 0
 558              		.loc 1 117 0
 559 0000 4B4B     		ldr	r3, .L90
 560 0002 1A68     		ldr	r2, [r3]
 561              	.LVL35:
 562              		.loc 1 118 0
 563 0004 0021     		movs	r1, #0
ARM GAS  /tmp/ccJRqqhN.s 			page 11


 564              		.loc 1 111 0
 565 0006 10B5     		push	{r4, lr}
 566              		.cfi_def_cfa_offset 8
 567              		.cfi_offset 4, -8
 568              		.cfi_offset 14, -4
 569              		.loc 1 118 0
 570 0008 1960     		str	r1, [r3]
 571              		.loc 1 121 0
 572 000a 9106     		lsls	r1, r2, #26
 573 000c 05D5     		bpl	.L37
 574              		.loc 1 121 0 is_stmt 0 discriminator 1
 575 000e 494C     		ldr	r4, .L90+4
 576 0010 E369     		ldr	r3, [r4, #28]
 577 0012 1B68     		ldr	r3, [r3]
 578 0014 5B68     		ldr	r3, [r3, #4]
 579 0016 002B     		cmp	r3, #0
 580 0018 64D1     		bne	.L88
 581              	.LVL36:
 582              	.L37:
 583              		.loc 1 131 0 is_stmt 1
 584 001a 474B     		ldr	r3, .L90+8
 585 001c 1A68     		ldr	r2, [r3]
 586              	.LVL37:
 587              		.loc 1 132 0
 588 001e 0021     		movs	r1, #0
 589              		.loc 1 135 0
 590 0020 9206     		lsls	r2, r2, #26
 591              	.LVL38:
 592              		.loc 1 132 0
 593 0022 1960     		str	r1, [r3]
 594              		.loc 1 135 0
 595 0024 05D5     		bpl	.L42
 596              		.loc 1 135 0 is_stmt 0 discriminator 1
 597 0026 454C     		ldr	r4, .L90+12
 598 0028 E369     		ldr	r3, [r4, #28]
 599 002a 1B68     		ldr	r3, [r3]
 600 002c 5B68     		ldr	r3, [r3, #4]
 601 002e 002B     		cmp	r3, #0
 602 0030 32D1     		bne	.L89
 603              	.L42:
 604              		.loc 1 145 0 is_stmt 1
 605 0032 434B     		ldr	r3, .L90+16
 606 0034 1A68     		ldr	r2, [r3]
 607              	.LVL39:
 608              		.loc 1 146 0
 609 0036 0021     		movs	r1, #0
 610 0038 1960     		str	r1, [r3]
 611              		.loc 1 149 0
 612 003a 9306     		lsls	r3, r2, #26
 613 003c 28D5     		bpl	.L47
 614              		.loc 1 149 0 is_stmt 0 discriminator 1
 615 003e 414C     		ldr	r4, .L90+20
 616 0040 E369     		ldr	r3, [r4, #28]
 617 0042 1B68     		ldr	r3, [r3]
 618 0044 5B68     		ldr	r3, [r3, #4]
 619 0046 1BB3     		cbz	r3, .L47
 620              		.loc 1 152 0 is_stmt 1
ARM GAS  /tmp/ccJRqqhN.s 			page 12


 621 0048 2369     		ldr	r3, [r4, #16]
 622 004a 0BB3     		cbz	r3, .L47
 623              		.loc 1 153 0
 624 004c 2046     		mov	r0, r4
 625 004e FFF7FEFF 		bl	adc_lld_stop_conversion
 626              	.LVL40:
 627 0052 2369     		ldr	r3, [r4, #16]
 628 0054 9B68     		ldr	r3, [r3, #8]
 629 0056 4BB1     		cbz	r3, .L49
 630              		.loc 1 153 0 is_stmt 0 discriminator 1
 631 0058 0522     		movs	r2, #5
 632 005a 2270     		strb	r2, [r4]
 633 005c 2046     		mov	r0, r4
 634 005e 0121     		movs	r1, #1
 635 0060 9847     		blx	r3
 636              	.LVL41:
 637 0062 2378     		ldrb	r3, [r4]	@ zero_extendqisi2
 638 0064 052B     		cmp	r3, #5
 639 0066 04BF     		itt	eq
 640 0068 0223     		moveq	r3, #2
 641 006a 2370     		strbeq	r3, [r4]
 642              	.L49:
 643              		.loc 1 153 0 discriminator 2
 644 006c 0023     		movs	r3, #0
 645 006e 2361     		str	r3, [r4, #16]
 646              	.LBB5:
 647 0070 2023     		movs	r3, #32
 648              	@ 153 "../AithonLibrary/ChibiOS/os/hal/platforms/STM32F4xx/adc_lld.c" 1
 649 0072 83F31188 		msr     BASEPRI, r3
 650              	@ 0 "" 2
 651              		.thumb
 652              	.LBE5:
 653 0076 334B     		ldr	r3, .L90+20
 654 0078 5869     		ldr	r0, [r3, #20]
 655 007a 30B1     		cbz	r0, .L51
 656              	.LVL42:
 657              	.LBB6:
 658              		.loc 1 153 0 discriminator 1
 659 007c 4FF0FF32 		mov	r2, #-1
 660 0080 4262     		str	r2, [r0, #36]
 661 0082 0022     		movs	r2, #0
 662 0084 5A61     		str	r2, [r3, #20]
 663 0086 FFF7FEFF 		bl	chSchReadyI
 664              	.LVL43:
 665              	.L51:
 666              	.LBE6:
 667              	.LBB7:
 668              		.loc 1 153 0 discriminator 2
 669 008a 0023     		movs	r3, #0
 670              	@ 153 "../AithonLibrary/ChibiOS/os/hal/platforms/STM32F4xx/adc_lld.c" 1
 671 008c 83F31188 		msr     BASEPRI, r3
 672              	@ 0 "" 2
 673              		.thumb
 674              	.L47:
 675              	.LBE7:
 676              		.loc 1 159 0 is_stmt 1
 677 0090 BDE81040 		pop	{r4, lr}
ARM GAS  /tmp/ccJRqqhN.s 			page 13


 678              		.loc 1 158 0
 679 0094 FFF7FEBF 		b	_port_irq_epilogue
 680              	.LVL44:
 681              	.L89:
 682              		.loc 1 138 0
 683 0098 2369     		ldr	r3, [r4, #16]
 684 009a 002B     		cmp	r3, #0
 685 009c C9D0     		beq	.L42
 686              		.loc 1 139 0
 687 009e 2046     		mov	r0, r4
 688 00a0 FFF7FEFF 		bl	adc_lld_stop_conversion
 689              	.LVL45:
 690 00a4 2369     		ldr	r3, [r4, #16]
 691 00a6 9B68     		ldr	r3, [r3, #8]
 692 00a8 4BB1     		cbz	r3, .L44
 693              		.loc 1 139 0 is_stmt 0 discriminator 1
 694 00aa 0522     		movs	r2, #5
 695 00ac 2270     		strb	r2, [r4]
 696 00ae 2046     		mov	r0, r4
 697 00b0 0121     		movs	r1, #1
 698 00b2 9847     		blx	r3
 699              	.LVL46:
 700 00b4 2378     		ldrb	r3, [r4]	@ zero_extendqisi2
 701 00b6 052B     		cmp	r3, #5
 702 00b8 04BF     		itt	eq
 703 00ba 0223     		moveq	r3, #2
 704 00bc 2370     		strbeq	r3, [r4]
 705              	.L44:
 706              		.loc 1 139 0 discriminator 2
 707 00be 0023     		movs	r3, #0
 708 00c0 2361     		str	r3, [r4, #16]
 709              	.LBB8:
 710 00c2 2023     		movs	r3, #32
 711              	@ 139 "../AithonLibrary/ChibiOS/os/hal/platforms/STM32F4xx/adc_lld.c" 1
 712 00c4 83F31188 		msr     BASEPRI, r3
 713              	@ 0 "" 2
 714              		.thumb
 715              	.LBE8:
 716 00c8 1C4B     		ldr	r3, .L90+12
 717 00ca 5869     		ldr	r0, [r3, #20]
 718 00cc 30B1     		cbz	r0, .L46
 719              	.LVL47:
 720              	.LBB9:
 721              		.loc 1 139 0 discriminator 1
 722 00ce 4FF0FF32 		mov	r2, #-1
 723 00d2 4262     		str	r2, [r0, #36]
 724 00d4 0022     		movs	r2, #0
 725 00d6 5A61     		str	r2, [r3, #20]
 726 00d8 FFF7FEFF 		bl	chSchReadyI
 727              	.LVL48:
 728              	.L46:
 729              	.LBE9:
 730              	.LBB10:
 731              		.loc 1 139 0 discriminator 2
 732 00dc 0023     		movs	r3, #0
 733              	@ 139 "../AithonLibrary/ChibiOS/os/hal/platforms/STM32F4xx/adc_lld.c" 1
 734 00de 83F31188 		msr     BASEPRI, r3
ARM GAS  /tmp/ccJRqqhN.s 			page 14


 735              	@ 0 "" 2
 736              		.thumb
 737 00e2 A6E7     		b	.L42
 738              	.LVL49:
 739              	.L88:
 740              	.LBE10:
 741              		.loc 1 124 0 is_stmt 1
 742 00e4 2369     		ldr	r3, [r4, #16]
 743 00e6 002B     		cmp	r3, #0
 744 00e8 97D0     		beq	.L37
 745              		.loc 1 125 0
 746 00ea 2046     		mov	r0, r4
 747 00ec FFF7FEFF 		bl	adc_lld_stop_conversion
 748              	.LVL50:
 749 00f0 2369     		ldr	r3, [r4, #16]
 750 00f2 9B68     		ldr	r3, [r3, #8]
 751 00f4 4BB1     		cbz	r3, .L39
 752              		.loc 1 125 0 is_stmt 0 discriminator 1
 753 00f6 0522     		movs	r2, #5
 754 00f8 2270     		strb	r2, [r4]
 755 00fa 2046     		mov	r0, r4
 756 00fc 0121     		movs	r1, #1
 757 00fe 9847     		blx	r3
 758              	.LVL51:
 759 0100 2378     		ldrb	r3, [r4]	@ zero_extendqisi2
 760 0102 052B     		cmp	r3, #5
 761 0104 04BF     		itt	eq
 762 0106 0223     		moveq	r3, #2
 763 0108 2370     		strbeq	r3, [r4]
 764              	.L39:
 765              		.loc 1 125 0 discriminator 2
 766 010a 0023     		movs	r3, #0
 767 010c 2361     		str	r3, [r4, #16]
 768              	.LBB11:
 769 010e 2023     		movs	r3, #32
 770              	@ 125 "../AithonLibrary/ChibiOS/os/hal/platforms/STM32F4xx/adc_lld.c" 1
 771 0110 83F31188 		msr     BASEPRI, r3
 772              	@ 0 "" 2
 773              		.thumb
 774              	.LBE11:
 775 0114 074B     		ldr	r3, .L90+4
 776 0116 5869     		ldr	r0, [r3, #20]
 777 0118 30B1     		cbz	r0, .L41
 778              	.LVL52:
 779              	.LBB12:
 780              		.loc 1 125 0 discriminator 1
 781 011a 4FF0FF32 		mov	r2, #-1
 782 011e 4262     		str	r2, [r0, #36]
 783 0120 0022     		movs	r2, #0
 784 0122 5A61     		str	r2, [r3, #20]
 785 0124 FFF7FEFF 		bl	chSchReadyI
 786              	.LVL53:
 787              	.L41:
 788              	.LBE12:
 789              	.LBB13:
 790              		.loc 1 125 0 discriminator 2
 791 0128 0023     		movs	r3, #0
ARM GAS  /tmp/ccJRqqhN.s 			page 15


 792              	@ 125 "../AithonLibrary/ChibiOS/os/hal/platforms/STM32F4xx/adc_lld.c" 1
 793 012a 83F31188 		msr     BASEPRI, r3
 794              	@ 0 "" 2
 795              		.thumb
 796 012e 74E7     		b	.L37
 797              	.L91:
 798              		.align	2
 799              	.L90:
 800 0130 00200140 		.word	1073815552
 801 0134 00000000 		.word	.LANCHOR0
 802 0138 00210140 		.word	1073815808
 803 013c 00000000 		.word	.LANCHOR1
 804 0140 00220140 		.word	1073816064
 805 0144 00000000 		.word	.LANCHOR2
 806              	.LBE13:
 807              		.cfi_endproc
 808              	.LFE119:
 809              		.size	Vector88, .-Vector88
 810 0148 AFF30080 		.section	.text.adc_lld_serve_rx_interrupt,"ax",%progbits
 810      AFF30080 
 811              		.align	2
 812              		.p2align 4,,15
 813              		.thumb
 814              		.thumb_func
 815              		.type	adc_lld_serve_rx_interrupt, %function
 816              	adc_lld_serve_rx_interrupt:
 817              	.LFB118:
 818              		.loc 1 76 0 is_stmt 1
 819              		.cfi_startproc
 820              		@ args = 0, pretend = 0, frame = 0
 821              		@ frame_needed = 0, uses_anonymous_args = 0
 822              	.LVL54:
 823              		.loc 1 79 0
 824 0000 11F00C0F 		tst	r1, #12
 825              		.loc 1 76 0
 826 0004 38B5     		push	{r3, r4, r5, lr}
 827              		.cfi_def_cfa_offset 16
 828              		.cfi_offset 3, -16
 829              		.cfi_offset 4, -12
 830              		.cfi_offset 5, -8
 831              		.cfi_offset 14, -4
 832              		.loc 1 76 0
 833 0006 0446     		mov	r4, r0
 834              		.loc 1 79 0
 835 0008 1DD1     		bne	.L123
 836              		.loc 1 87 0
 837 000a 0369     		ldr	r3, [r0, #16]
 838 000c D3B1     		cbz	r3, .L92
 839              		.loc 1 88 0
 840 000e 8D06     		lsls	r5, r1, #26
 841 0010 10D5     		bpl	.L99
 842              		.loc 1 90 0
 843 0012 1D78     		ldrb	r5, [r3]	@ zero_extendqisi2
 844 0014 002D     		cmp	r5, #0
 845 0016 3BD0     		beq	.L100
 846              		.loc 1 90 0 is_stmt 0 discriminator 1
 847 0018 5D68     		ldr	r5, [r3, #4]
ARM GAS  /tmp/ccJRqqhN.s 			page 16


 848 001a 9DB1     		cbz	r5, .L92
 849 001c C268     		ldr	r2, [r0, #12]
 850 001e 012A     		cmp	r2, #1
 851 0020 33D9     		bls	.L101
 852              	.LBB14:
 853 0022 5988     		ldrh	r1, [r3, #2]
 854              	.LVL55:
 855 0024 8368     		ldr	r3, [r0, #8]
 856 0026 5208     		lsrs	r2, r2, #1
 857              	.LVL56:
 858 0028 01FB02F1 		mul	r1, r1, r2
 859 002c 03EB4101 		add	r1, r3, r1, lsl #1
 860 0030 A847     		blx	r5
 861              	.LVL57:
 862              	.LBE14:
 863 0032 38BD     		pop	{r3, r4, r5, pc}
 864              	.LVL58:
 865              	.L99:
 866              		.loc 1 92 0 is_stmt 1
 867 0034 CA06     		lsls	r2, r1, #27
 868 0036 05D5     		bpl	.L92
 869              		.loc 1 94 0
 870 0038 5B68     		ldr	r3, [r3, #4]
 871 003a 1BB1     		cbz	r3, .L92
 872              		.loc 1 94 0 is_stmt 0 discriminator 1
 873 003c C268     		ldr	r2, [r0, #12]
 874 003e 8168     		ldr	r1, [r0, #8]
 875              	.LVL59:
 876 0040 5208     		lsrs	r2, r2, #1
 877 0042 9847     		blx	r3
 878              	.LVL60:
 879              	.L92:
 880 0044 38BD     		pop	{r3, r4, r5, pc}
 881              	.LVL61:
 882              	.L123:
 883              		.loc 1 82 0 is_stmt 1
 884 0046 FFF7FEFF 		bl	adc_lld_stop_conversion
 885              	.LVL62:
 886 004a 2369     		ldr	r3, [r4, #16]
 887 004c 9B68     		ldr	r3, [r3, #8]
 888 004e 4BB1     		cbz	r3, .L95
 889              		.loc 1 82 0 is_stmt 0 discriminator 1
 890 0050 0522     		movs	r2, #5
 891 0052 2270     		strb	r2, [r4]
 892 0054 2046     		mov	r0, r4
 893 0056 0021     		movs	r1, #0
 894 0058 9847     		blx	r3
 895              	.LVL63:
 896 005a 2378     		ldrb	r3, [r4]	@ zero_extendqisi2
 897 005c 052B     		cmp	r3, #5
 898 005e 04BF     		itt	eq
 899 0060 0223     		moveq	r3, #2
 900 0062 2370     		strbeq	r3, [r4]
 901              	.L95:
 902              		.loc 1 82 0 discriminator 2
 903 0064 0023     		movs	r3, #0
 904 0066 2361     		str	r3, [r4, #16]
ARM GAS  /tmp/ccJRqqhN.s 			page 17


 905              	.LBB15:
 906 0068 2023     		movs	r3, #32
 907              	@ 82 "../AithonLibrary/ChibiOS/os/hal/platforms/STM32F4xx/adc_lld.c" 1
 908 006a 83F31188 		msr     BASEPRI, r3
 909              	@ 0 "" 2
 910              		.thumb
 911              	.LBE15:
 912 006e 6369     		ldr	r3, [r4, #20]
 913 0070 3BB1     		cbz	r3, .L104
 914              	.LVL64:
 915              	.LBB16:
 916              		.loc 1 82 0 discriminator 1
 917 0072 0021     		movs	r1, #0
 918 0074 4FF0FF32 		mov	r2, #-1
 919 0078 6161     		str	r1, [r4, #20]
 920 007a 1846     		mov	r0, r3
 921 007c 5A62     		str	r2, [r3, #36]
 922 007e FFF7FEFF 		bl	chSchReadyI
 923              	.LVL65:
 924              	.L104:
 925              	.LBE16:
 926              	.LBB17:
 927              		.loc 1 90 0 is_stmt 1 discriminator 2
 928 0082 0023     		movs	r3, #0
 929              	@ 90 "../AithonLibrary/ChibiOS/os/hal/platforms/STM32F4xx/adc_lld.c" 1
 930 0084 83F31188 		msr     BASEPRI, r3
 931              	@ 0 "" 2
 932              		.thumb
 933 0088 38BD     		pop	{r3, r4, r5, pc}
 934              	.LVL66:
 935              	.L101:
 936              	.LBE17:
 937 008a 8168     		ldr	r1, [r0, #8]
 938              	.LVL67:
 939 008c A847     		blx	r5
 940              	.LVL68:
 941 008e 38BD     		pop	{r3, r4, r5, pc}
 942              	.LVL69:
 943              	.L100:
 944 0090 FFF7FEFF 		bl	adc_lld_stop_conversion
 945              	.LVL70:
 946 0094 2369     		ldr	r3, [r4, #16]
 947 0096 5B68     		ldr	r3, [r3, #4]
 948 0098 CBB1     		cbz	r3, .L102
 949              		.loc 1 90 0 is_stmt 0 discriminator 1
 950 009a 0422     		movs	r2, #4
 951 009c 2270     		strb	r2, [r4]
 952 009e 2046     		mov	r0, r4
 953 00a0 A168     		ldr	r1, [r4, #8]
 954 00a2 E268     		ldr	r2, [r4, #12]
 955 00a4 9847     		blx	r3
 956              	.LVL71:
 957 00a6 2378     		ldrb	r3, [r4]	@ zero_extendqisi2
 958 00a8 042B     		cmp	r3, #4
 959 00aa 0CD0     		beq	.L124
 960              	.L103:
 961              	.LBB18:
ARM GAS  /tmp/ccJRqqhN.s 			page 18


 962 00ac 2023     		movs	r3, #32
 963              	@ 90 "../AithonLibrary/ChibiOS/os/hal/platforms/STM32F4xx/adc_lld.c" 1
 964 00ae 83F31188 		msr     BASEPRI, r3
 965              	@ 0 "" 2
 966              		.thumb
 967              	.LBE18:
 968 00b2 6369     		ldr	r3, [r4, #20]
 969 00b4 002B     		cmp	r3, #0
 970 00b6 E4D0     		beq	.L104
 971              	.LVL72:
 972              	.LBB19:
 973 00b8 0022     		movs	r2, #0
 974 00ba 6261     		str	r2, [r4, #20]
 975 00bc 1846     		mov	r0, r3
 976 00be 5A62     		str	r2, [r3, #36]
 977 00c0 FFF7FEFF 		bl	chSchReadyI
 978              	.LVL73:
 979 00c4 DDE7     		b	.L104
 980              	.L124:
 981              	.LBE19:
 982 00c6 0223     		movs	r3, #2
 983 00c8 2561     		str	r5, [r4, #16]
 984 00ca 2370     		strb	r3, [r4]
 985 00cc EEE7     		b	.L103
 986              	.L102:
 987              		.loc 1 90 0 discriminator 2
 988 00ce 0222     		movs	r2, #2
 989 00d0 2361     		str	r3, [r4, #16]
 990 00d2 2270     		strb	r2, [r4]
 991 00d4 EAE7     		b	.L103
 992              		.cfi_endproc
 993              	.LFE118:
 994              		.size	adc_lld_serve_rx_interrupt, .-adc_lld_serve_rx_interrupt
 995 00d6 00BFAFF3 		.section	.text.adcSTM32EnableTSVREFE,"ax",%progbits
 995      0080AFF3 
 995      0080
 996              		.align	2
 997              		.p2align 4,,15
 998              		.global	adcSTM32EnableTSVREFE
 999              		.thumb
 1000              		.thumb_func
 1001              		.type	adcSTM32EnableTSVREFE, %function
 1002              	adcSTM32EnableTSVREFE:
 1003              	.LFB125:
 1004              		.loc 1 379 0 is_stmt 1
 1005              		.cfi_startproc
 1006              		@ args = 0, pretend = 0, frame = 0
 1007              		@ frame_needed = 0, uses_anonymous_args = 0
 1008              		@ link register save eliminated.
 1009              		.loc 1 381 0
 1010 0000 024B     		ldr	r3, .L126
 1011 0002 5A68     		ldr	r2, [r3, #4]
 1012 0004 42F40002 		orr	r2, r2, #8388608
 1013 0008 5A60     		str	r2, [r3, #4]
 1014 000a 7047     		bx	lr
 1015              	.L127:
 1016              		.align	2
ARM GAS  /tmp/ccJRqqhN.s 			page 19


 1017              	.L126:
 1018 000c 00230140 		.word	1073816320
 1019              		.cfi_endproc
 1020              	.LFE125:
 1021              		.size	adcSTM32EnableTSVREFE, .-adcSTM32EnableTSVREFE
 1022              		.section	.text.adcSTM32DisableTSVREFE,"ax",%progbits
 1023              		.align	2
 1024              		.p2align 4,,15
 1025              		.global	adcSTM32DisableTSVREFE
 1026              		.thumb
 1027              		.thumb_func
 1028              		.type	adcSTM32DisableTSVREFE, %function
 1029              	adcSTM32DisableTSVREFE:
 1030              	.LFB126:
 1031              		.loc 1 390 0
 1032              		.cfi_startproc
 1033              		@ args = 0, pretend = 0, frame = 0
 1034              		@ frame_needed = 0, uses_anonymous_args = 0
 1035              		@ link register save eliminated.
 1036              		.loc 1 392 0
 1037 0000 024B     		ldr	r3, .L129
 1038 0002 5A68     		ldr	r2, [r3, #4]
 1039 0004 22F40002 		bic	r2, r2, #8388608
 1040 0008 5A60     		str	r2, [r3, #4]
 1041 000a 7047     		bx	lr
 1042              	.L130:
 1043              		.align	2
 1044              	.L129:
 1045 000c 00230140 		.word	1073816320
 1046              		.cfi_endproc
 1047              	.LFE126:
 1048              		.size	adcSTM32DisableTSVREFE, .-adcSTM32DisableTSVREFE
 1049              		.section	.text.adcSTM32EnableVBATE,"ax",%progbits
 1050              		.align	2
 1051              		.p2align 4,,15
 1052              		.global	adcSTM32EnableVBATE
 1053              		.thumb
 1054              		.thumb_func
 1055              		.type	adcSTM32EnableVBATE, %function
 1056              	adcSTM32EnableVBATE:
 1057              	.LFB127:
 1058              		.loc 1 401 0
 1059              		.cfi_startproc
 1060              		@ args = 0, pretend = 0, frame = 0
 1061              		@ frame_needed = 0, uses_anonymous_args = 0
 1062              		@ link register save eliminated.
 1063              		.loc 1 403 0
 1064 0000 024B     		ldr	r3, .L132
 1065 0002 5A68     		ldr	r2, [r3, #4]
 1066 0004 42F48002 		orr	r2, r2, #4194304
 1067 0008 5A60     		str	r2, [r3, #4]
 1068 000a 7047     		bx	lr
 1069              	.L133:
 1070              		.align	2
 1071              	.L132:
 1072 000c 00230140 		.word	1073816320
 1073              		.cfi_endproc
ARM GAS  /tmp/ccJRqqhN.s 			page 20


 1074              	.LFE127:
 1075              		.size	adcSTM32EnableVBATE, .-adcSTM32EnableVBATE
 1076              		.section	.text.adcSTM32DisableVBATE,"ax",%progbits
 1077              		.align	2
 1078              		.p2align 4,,15
 1079              		.global	adcSTM32DisableVBATE
 1080              		.thumb
 1081              		.thumb_func
 1082              		.type	adcSTM32DisableVBATE, %function
 1083              	adcSTM32DisableVBATE:
 1084              	.LFB128:
 1085              		.loc 1 412 0
 1086              		.cfi_startproc
 1087              		@ args = 0, pretend = 0, frame = 0
 1088              		@ frame_needed = 0, uses_anonymous_args = 0
 1089              		@ link register save eliminated.
 1090              		.loc 1 414 0
 1091 0000 024B     		ldr	r3, .L135
 1092 0002 5A68     		ldr	r2, [r3, #4]
 1093 0004 22F48002 		bic	r2, r2, #4194304
 1094 0008 5A60     		str	r2, [r3, #4]
 1095 000a 7047     		bx	lr
 1096              	.L136:
 1097              		.align	2
 1098              	.L135:
 1099 000c 00230140 		.word	1073816320
 1100              		.cfi_endproc
 1101              	.LFE128:
 1102              		.size	adcSTM32DisableVBATE, .-adcSTM32DisableVBATE
 1103              		.global	ADCD3
 1104              		.global	ADCD2
 1105              		.global	ADCD1
 1106              		.section	.bss.ADCD1,"aw",%nobits
 1107              		.align	2
 1108              		.set	.LANCHOR0,. + 0
 1109              		.type	ADCD1, %object
 1110              		.size	ADCD1, 36
 1111              	ADCD1:
 1112 0000 00000000 		.space	36
 1112      00000000 
 1112      00000000 
 1112      00000000 
 1112      00000000 
 1113              		.section	.bss.ADCD2,"aw",%nobits
 1114              		.align	2
 1115              		.set	.LANCHOR1,. + 0
 1116              		.type	ADCD2, %object
 1117              		.size	ADCD2, 36
 1118              	ADCD2:
 1119 0000 00000000 		.space	36
 1119      00000000 
 1119      00000000 
 1119      00000000 
 1119      00000000 
 1120              		.section	.bss.ADCD3,"aw",%nobits
 1121              		.align	2
 1122              		.set	.LANCHOR2,. + 0
ARM GAS  /tmp/ccJRqqhN.s 			page 21


 1123              		.type	ADCD3, %object
 1124              		.size	ADCD3, 36
 1125              	ADCD3:
 1126 0000 00000000 		.space	36
 1126      00000000 
 1126      00000000 
 1126      00000000 
 1126      00000000 
 1127              		.text
 1128              	.Letext0:
 1129              		.file 2 "/usr/lib/gcc/arm-none-eabi/4.8.3/include/stddef.h"
 1130              		.file 3 "/usr/arm-none-eabi/include/stdint.h"
 1131              		.file 4 "../AithonLibrary/ChibiOS/os/ports/GCC/ARMCMx/chtypes.h"
 1132              		.file 5 "../AithonLibrary/ChibiOS/os/kernel/include/chlists.h"
 1133              		.file 6 "../AithonLibrary/ChibiOS/os/kernel/include/chthreads.h"
 1134              		.file 7 "../AithonLibrary/ChibiOS/os/ports/GCC/ARMCMx/chcore_v7m.h"
 1135              		.file 8 "../AithonLibrary/ChibiOS/os/kernel/include/chmtx.h"
 1136              		.file 9 "../AithonLibrary/ChibiOS/os/hal/platforms/STM32F4xx/stm32f4xx.h"
 1137              		.file 10 "../AithonLibrary/ChibiOS/os/hal/platforms/STM32F4xx/stm32_dma.h"
 1138              		.file 11 "../AithonLibrary/ChibiOS/os/hal/include/adc.h"
 1139              		.file 12 "../AithonLibrary/ChibiOS/os/hal/platforms/STM32F4xx/adc_lld.h"
 1140              		.file 13 "../AithonLibrary/ChibiOS/os/ports/common/ARMCMx/CMSIS/include/core_cm4.h"
 1141              		.file 14 "../AithonLibrary/ChibiOS/os/ports/common/ARMCMx/nvic.h"
 1142              		.file 15 "../AithonLibrary/ChibiOS/os/kernel/include/chschd.h"