ARM GAS  /tmp/ccG24TTc.s 			page 1


   1              		.syntax unified
   2              		.cpu cortex-m4
   3              		.eabi_attribute 27, 3
   4              		.fpu fpv4-sp-d16
   5              		.eabi_attribute 20, 1
   6              		.eabi_attribute 21, 1
   7              		.eabi_attribute 23, 3
   8              		.eabi_attribute 24, 1
   9              		.eabi_attribute 25, 1
  10              		.eabi_attribute 26, 1
  11              		.eabi_attribute 30, 2
  12              		.eabi_attribute 34, 1
  13              		.eabi_attribute 18, 4
  14              		.thumb
  15              		.file	"Aithon.c"
  16              		.text
  17              	.Ltext0:
  18              		.cfi_sections	.debug_frame
  19              		.section	.text.led_on,"ax",%progbits
  20              		.align	2
  21              		.p2align 4,,15
  22              		.global	led_on
  23              		.thumb
  24              		.thumb_func
  25              		.type	led_on, %function
  26              	led_on:
  27              	.LFB119:
  28              		.file 1 "../AithonLibrary/Aithon.c"
  29              		.loc 1 23 0
  30              		.cfi_startproc
  31              		@ args = 0, pretend = 0, frame = 0
  32              		@ frame_needed = 0, uses_anonymous_args = 0
  33              		@ link register save eliminated.
  34              	.LVL0:
  35              		.loc 1 24 0
  36 0000 30B1     		cbz	r0, .L5
  37              		.loc 1 28 0
  38 0002 0128     		cmp	r0, #1
  39 0004 00D0     		beq	.L6
  40 0006 7047     		bx	lr
  41              	.L6:
  42              		.loc 1 30 0
  43 0008 044B     		ldr	r3, .L7
  44 000a 1022     		movs	r2, #16
  45 000c 1A83     		strh	r2, [r3, #24]	@ movhi
  46 000e 7047     		bx	lr
  47              	.L5:
  48              		.loc 1 26 0
  49 0010 034B     		ldr	r3, .L7+4
  50 0012 4FF40042 		mov	r2, #32768
  51 0016 1A83     		strh	r2, [r3, #24]	@ movhi
  52 0018 7047     		bx	lr
  53              	.L8:
  54 001a 00BF     		.align	2
  55              	.L7:
  56 001c 000C0240 		.word	1073875968
  57 0020 00100240 		.word	1073876992
ARM GAS  /tmp/ccG24TTc.s 			page 2


  58              		.cfi_endproc
  59              	.LFE119:
  60              		.size	led_on, .-led_on
  61 0024 AFF30080 		.section	.text.led_off,"ax",%progbits
  61      AFF30080 
  61      AFF30080 
  62              		.align	2
  63              		.p2align 4,,15
  64              		.global	led_off
  65              		.thumb
  66              		.thumb_func
  67              		.type	led_off, %function
  68              	led_off:
  69              	.LFB120:
  70              		.loc 1 41 0
  71              		.cfi_startproc
  72              		@ args = 0, pretend = 0, frame = 0
  73              		@ frame_needed = 0, uses_anonymous_args = 0
  74              		@ link register save eliminated.
  75              	.LVL1:
  76              		.loc 1 42 0
  77 0000 30B1     		cbz	r0, .L12
  78              		.loc 1 46 0
  79 0002 0128     		cmp	r0, #1
  80 0004 00D0     		beq	.L13
  81 0006 7047     		bx	lr
  82              	.L13:
  83              		.loc 1 48 0
  84 0008 044B     		ldr	r3, .L14
  85 000a 1022     		movs	r2, #16
  86 000c 5A83     		strh	r2, [r3, #26]	@ movhi
  87 000e 7047     		bx	lr
  88              	.L12:
  89              		.loc 1 44 0
  90 0010 034B     		ldr	r3, .L14+4
  91 0012 4FF40042 		mov	r2, #32768
  92 0016 5A83     		strh	r2, [r3, #26]	@ movhi
  93 0018 7047     		bx	lr
  94              	.L15:
  95 001a 00BF     		.align	2
  96              	.L14:
  97 001c 000C0240 		.word	1073875968
  98 0020 00100240 		.word	1073876992
  99              		.cfi_endproc
 100              	.LFE120:
 101              		.size	led_off, .-led_off
 102 0024 AFF30080 		.section	.text.led_toggle,"ax",%progbits
 102      AFF30080 
 102      AFF30080 
 103              		.align	2
 104              		.p2align 4,,15
 105              		.global	led_toggle
 106              		.thumb
 107              		.thumb_func
 108              		.type	led_toggle, %function
 109              	led_toggle:
 110              	.LFB121:
ARM GAS  /tmp/ccG24TTc.s 			page 3


 111              		.loc 1 59 0
 112              		.cfi_startproc
 113              		@ args = 0, pretend = 0, frame = 0
 114              		@ frame_needed = 0, uses_anonymous_args = 0
 115              		@ link register save eliminated.
 116              	.LVL2:
 117              		.loc 1 60 0
 118 0000 40B1     		cbz	r0, .L19
 119              		.loc 1 64 0
 120 0002 0128     		cmp	r0, #1
 121 0004 00D0     		beq	.L20
 122 0006 7047     		bx	lr
 123              	.L20:
 124              		.loc 1 66 0
 125 0008 054B     		ldr	r3, .L21
 126 000a 5A69     		ldr	r2, [r3, #20]
 127 000c 82F01002 		eor	r2, r2, #16
 128 0010 5A61     		str	r2, [r3, #20]
 129 0012 7047     		bx	lr
 130              	.L19:
 131              		.loc 1 62 0
 132 0014 034B     		ldr	r3, .L21+4
 133 0016 5A69     		ldr	r2, [r3, #20]
 134 0018 82F40042 		eor	r2, r2, #32768
 135 001c 5A61     		str	r2, [r3, #20]
 136 001e 7047     		bx	lr
 137              	.L22:
 138              		.align	2
 139              	.L21:
 140 0020 000C0240 		.word	1073875968
 141 0024 00100240 		.word	1073876992
 142              		.cfi_endproc
 143              	.LFE121:
 144              		.size	led_toggle, .-led_toggle
 145 0028 AFF30080 		.section	.text.button_get,"ax",%progbits
 145      AFF30080 
 146              		.align	2
 147              		.p2align 4,,15
 148              		.global	button_get
 149              		.thumb
 150              		.thumb_func
 151              		.type	button_get, %function
 152              	button_get:
 153              	.LFB122:
 154              		.loc 1 90 0
 155              		.cfi_startproc
 156              		@ args = 0, pretend = 0, frame = 0
 157              		@ frame_needed = 0, uses_anonymous_args = 0
 158              		@ link register save eliminated.
 159              	.LVL3:
 160              		.loc 1 91 0
 161 0000 50B1     		cbz	r0, .L25
 162 0002 0128     		cmp	r0, #1
 163 0004 06D1     		bne	.L29
 164              		.loc 1 96 0
 165 0006 084B     		ldr	r3, .L30
 166 0008 1869     		ldr	r0, [r3, #16]
ARM GAS  /tmp/ccG24TTc.s 			page 4


 167              	.LVL4:
 168 000a C0F3C020 		ubfx	r0, r0, #11, #1
 169 000e 80F00100 		eor	r0, r0, #1
 170 0012 7047     		bx	lr
 171              	.LVL5:
 172              	.L29:
 173              		.loc 1 98 0
 174 0014 0020     		movs	r0, #0
 175              	.LVL6:
 176              		.loc 1 100 0
 177 0016 7047     		bx	lr
 178              	.LVL7:
 179              	.L25:
 180              	.LBB4:
 181              	.LBB5:
 182              		.loc 1 94 0
 183 0018 034B     		ldr	r3, .L30
 184 001a 1869     		ldr	r0, [r3, #16]
 185              	.LVL8:
 186 001c C0F38020 		ubfx	r0, r0, #10, #1
 187 0020 80F00100 		eor	r0, r0, #1
 188 0024 7047     		bx	lr
 189              	.L31:
 190 0026 00BF     		.align	2
 191              	.L30:
 192 0028 000C0240 		.word	1073875968
 193              	.LBE5:
 194              	.LBE4:
 195              		.cfi_endproc
 196              	.LFE122:
 197              		.size	button_get, .-button_get
 198 002c AFF30080 		.section	.text.button_wait,"ax",%progbits
 199              		.align	2
 200              		.p2align 4,,15
 201              		.global	button_wait
 202              		.thumb
 203              		.thumb_func
 204              		.type	button_wait, %function
 205              	button_wait:
 206              	.LFB123:
 207              		.loc 1 108 0
 208              		.cfi_startproc
 209              		@ args = 0, pretend = 0, frame = 0
 210              		@ frame_needed = 0, uses_anonymous_args = 0
 211              	.LVL9:
 212 0000 10B5     		push	{r4, lr}
 213              		.cfi_def_cfa_offset 8
 214              		.cfi_offset 4, -8
 215              		.cfi_offset 14, -4
 216              		.loc 1 108 0
 217 0002 0446     		mov	r4, r0
 218              		.loc 1 110 0
 219 0004 02E0     		b	.L33
 220              	.LVL10:
 221              	.L34:
 222              		.loc 1 111 0
 223 0006 0120     		movs	r0, #1
ARM GAS  /tmp/ccG24TTc.s 			page 5


 224 0008 FFF7FEFF 		bl	chThdSleep
 225              	.LVL11:
 226              	.L33:
 227              		.loc 1 110 0 discriminator 1
 228 000c 2046     		mov	r0, r4
 229 000e FFF7FEFF 		bl	button_get
 230              	.LVL12:
 231 0012 0028     		cmp	r0, #0
 232 0014 F7D0     		beq	.L34
 233              		.loc 1 113 0
 234 0016 1E20     		movs	r0, #30
 235 0018 FFF7FEFF 		bl	chThdSleep
 236              	.LVL13:
 237              		.loc 1 115 0
 238 001c 02E0     		b	.L35
 239              	.L36:
 240              		.loc 1 116 0
 241 001e 0120     		movs	r0, #1
 242 0020 FFF7FEFF 		bl	chThdSleep
 243              	.LVL14:
 244              	.L35:
 245              		.loc 1 115 0 discriminator 1
 246 0024 2046     		mov	r0, r4
 247 0026 FFF7FEFF 		bl	button_get
 248              	.LVL15:
 249 002a 0028     		cmp	r0, #0
 250 002c F7D1     		bne	.L36
 251              		.loc 1 118 0
 252 002e 1E20     		movs	r0, #30
 253              		.loc 1 119 0
 254 0030 BDE81040 		pop	{r4, lr}
 255              	.LVL16:
 256              		.loc 1 118 0
 257 0034 FFF7FEBF 		b	chThdSleep
 258              	.LVL17:
 259              		.cfi_endproc
 260              	.LFE123:
 261              		.size	button_wait, .-button_wait
 262 0038 AFF30080 		.text
 262      AFF30080 
 263              	.Letext0:
 264              		.file 2 "/usr/arm-none-eabi/include/stdint.h"
 265              		.file 3 "../AithonLibrary/ChibiOS/os/ports/GCC/ARMCMx/chtypes.h"
 266              		.file 4 "../AithonLibrary/ChibiOS/os/hal/platforms/STM32/GPIOv2/pal_lld.h"
 267              		.file 5 "../AithonLibrary/ChibiOS/os/ports/common/ARMCMx/CMSIS/include/core_cm4.h"
 268              		.file 6 "../AithonLibrary/ChibiOS/os/kernel/include/chthreads.h"