ARM GAS  /tmp/ccKI1Vjn.s 			page 1


   1              		.syntax unified
   2              		.cpu cortex-m4
   3              		.eabi_attribute 27, 3
   4              		.fpu fpv4-sp-d16
   5              		.eabi_attribute 20, 1
   6              		.eabi_attribute 21, 1
   7              		.eabi_attribute 23, 3
   8              		.eabi_attribute 24, 1
   9              		.eabi_attribute 25, 1
  10              		.eabi_attribute 26, 1
  11              		.eabi_attribute 30, 2
  12              		.eabi_attribute 34, 1
  13              		.eabi_attribute 18, 4
  14              		.thumb
  15              		.file	"aithon_private.c"
  16              		.text
  17              	.Ltext0:
  18              		.cfi_sections	.debug_frame
  19              		.section	.text._default_exit,"ax",%progbits
  20              		.align	2
  21              		.p2align 4,,15
  22              		.global	_default_exit
  23              		.thumb
  24              		.thumb_func
  25              		.type	_default_exit, %function
  26              	_default_exit:
  27              	.LFB120:
  28              		.file 1 "../AithonLibrary/aithon_private.c"
  29              		.loc 1 40 0
  30              		.cfi_startproc
  31              		@ args = 0, pretend = 0, frame = 0
  32              		@ frame_needed = 0, uses_anonymous_args = 0
  33              		@ link register save eliminated.
  34              		.loc 1 41 0
  35 0000 4FF0FF30 		mov	r0, #-1
  36 0004 FFF7FEBF 		b	chThdSleep
  37              	.LVL0:
  38              		.cfi_endproc
  39              	.LFE120:
  40              		.size	_default_exit, .-_default_exit
  41 0008 AFF30080 		.section	.text._reset_to_bootloader,"ax",%progbits
  41      AFF30080 
  42              		.align	2
  43              		.p2align 4,,15
  44              		.global	_reset_to_bootloader
  45              		.thumb
  46              		.thumb_func
  47              		.type	_reset_to_bootloader, %function
  48              	_reset_to_bootloader:
  49              	.LFB121:
  50              		.loc 1 46 0
  51              		.cfi_startproc
  52              		@ Volatile: function does not return.
  53              		@ args = 0, pretend = 0, frame = 0
  54              		@ frame_needed = 0, uses_anonymous_args = 0
  55 0000 08B5     		push	{r3, lr}
  56              		.cfi_def_cfa_offset 8
ARM GAS  /tmp/ccKI1Vjn.s 			page 2


  57              		.cfi_offset 3, -8
  58              		.cfi_offset 14, -4
  59              		.loc 1 47 0
  60 0002 4AF6CD31 		movw	r1, #43981
  61 0006 0020     		movs	r0, #0
  62 0008 FFF7FEFF 		bl	_ee_putReserved
  63              	.LVL1:
  64              	.LBB12:
  65              	.LBB13:
  66              	.LBB14:
  67              	.LBB15:
  68              		.file 2 "../AithonLibrary/ChibiOS/os/ports/common/ARMCMx/CMSIS/include/core_cmInstr.h"
  69              		.loc 2 343 0
  70              	@ 343 "../AithonLibrary/ChibiOS/os/ports/common/ARMCMx/CMSIS/include/core_cmInstr.h" 1
  71 000c BFF34F8F 		dsb
  72              	@ 0 "" 2
  73              		.thumb
  74              	.LBE15:
  75              	.LBE14:
  76              		.file 3 "../AithonLibrary/ChibiOS/os/ports/common/ARMCMx/CMSIS/include/core_cm4.h"
  77              		.loc 3 1628 0
  78 0010 044A     		ldr	r2, .L5
  79 0012 054B     		ldr	r3, .L5+4
  80 0014 D168     		ldr	r1, [r2, #12]
  81 0016 01F4E061 		and	r1, r1, #1792
  82 001a 0B43     		orrs	r3, r3, r1
  83              		.loc 3 1627 0
  84 001c D360     		str	r3, [r2, #12]
  85              	.LBB16:
  86              	.LBB17:
  87              		.loc 2 343 0
  88              	@ 343 "../AithonLibrary/ChibiOS/os/ports/common/ARMCMx/CMSIS/include/core_cmInstr.h" 1
  89 001e BFF34F8F 		dsb
  90              	@ 0 "" 2
  91              		.thumb
  92              	.L3:
  93 0022 FEE7     		b	.L3
  94              	.L6:
  95              		.align	2
  96              	.L5:
  97 0024 00ED00E0 		.word	-536810240
  98 0028 0400FA05 		.word	100270084
  99              	.LBE17:
 100              	.LBE16:
 101              	.LBE13:
 102              	.LBE12:
 103              		.cfi_endproc
 104              	.LFE121:
 105              		.size	_reset_to_bootloader, .-_reset_to_bootloader
 106 002c AFF30080 		.section	.text.aithon_thread,"ax",%progbits
 107              		.align	2
 108              		.p2align 4,,15
 109              		.thumb
 110              		.thumb_func
 111              		.type	aithon_thread, %function
 112              	aithon_thread:
 113              	.LFB122:
ARM GAS  /tmp/ccKI1Vjn.s 			page 3


 114              		.loc 1 55 0
 115              		.cfi_startproc
 116              		@ args = 0, pretend = 0, frame = 0
 117              		@ frame_needed = 0, uses_anonymous_args = 0
 118              	.LVL2:
 119 0000 08B5     		push	{r3, lr}
 120              		.cfi_def_cfa_offset 8
 121              		.cfi_offset 3, -8
 122              		.cfi_offset 14, -4
 123              		.loc 1 57 0
 124 0002 4FF0FF30 		mov	r0, #-1
 125              	.LVL3:
 126 0006 FFF7FEFF 		bl	chEvtWaitAny
 127              	.LVL4:
 128              		.loc 1 58 0
 129 000a 0128     		cmp	r0, #1
 130 000c 01D0     		beq	.L9
 131              	.LVL5:
 132              	.L8:
 133              		.loc 1 67 0
 134 000e FFF7FEFF 		bl	_reset_to_bootloader
 135              	.LVL6:
 136              	.L9:
 137              		.loc 1 61 0
 138 0012 FFF7FEFF 		bl	_usb_stop
 139              	.LVL7:
 140 0016 FAE7     		b	.L8
 141              		.cfi_endproc
 142              	.LFE122:
 143              		.size	aithon_thread, .-aithon_thread
 144              		.section	.text._aithon_private_init,"ax",%progbits
 145              		.align	2
 146              		.p2align 4,,15
 147              		.global	_aithon_private_init
 148              		.thumb
 149              		.thumb_func
 150              		.type	_aithon_private_init, %function
 151              	_aithon_private_init:
 152              	.LFB123:
 153              		.loc 1 72 0
 154              		.cfi_startproc
 155              		@ args = 0, pretend = 0, frame = 0
 156              		@ frame_needed = 0, uses_anonymous_args = 0
 157 0000 00B5     		push	{lr}
 158              		.cfi_def_cfa_offset 4
 159              		.cfi_offset 14, -4
 160 0002 83B0     		sub	sp, sp, #12
 161              		.cfi_def_cfa_offset 16
 162              		.loc 1 73 0
 163 0004 0023     		movs	r3, #0
 164 0006 0093     		str	r3, [sp]
 165 0008 4FF4DC71 		mov	r1, #440
 166 000c 044B     		ldr	r3, .L11
 167 000e 0548     		ldr	r0, .L11+4
 168 0010 FF22     		movs	r2, #255
 169 0012 FFF7FEFF 		bl	chThdCreateStatic
 170              	.LVL8:
ARM GAS  /tmp/ccKI1Vjn.s 			page 4


 171 0016 044B     		ldr	r3, .L11+8
 172 0018 1860     		str	r0, [r3]
 173              		.loc 1 74 0
 174 001a 03B0     		add	sp, sp, #12
 175              		@ sp needed
 176 001c 5DF804FB 		ldr	pc, [sp], #4
 177              	.L12:
 178              		.align	2
 179              	.L11:
 180 0020 00000000 		.word	aithon_thread
 181 0024 00000000 		.word	.LANCHOR0
 182 0028 00000000 		.word	.LANCHOR1
 183              		.cfi_endproc
 184              	.LFE123:
 185              		.size	_aithon_private_init, .-_aithon_private_init
 186 002c AFF30080 		.section	.text.__late_init,"ax",%progbits
 187              		.align	2
 188              		.p2align 4,,15
 189              		.global	__late_init
 190              		.thumb
 191              		.thumb_func
 192              		.type	__late_init, %function
 193              	__late_init:
 194              	.LFB119:
 195              		.loc 1 9 0
 196              		.cfi_startproc
 197              		@ args = 0, pretend = 0, frame = 0
 198              		@ frame_needed = 0, uses_anonymous_args = 0
 199 0000 08B5     		push	{r3, lr}
 200              		.cfi_def_cfa_offset 8
 201              		.cfi_offset 3, -8
 202              		.cfi_offset 14, -4
 203              		.loc 1 11 0
 204 0002 FFF7FEFF 		bl	halInit
 205              	.LVL9:
 206              		.loc 1 12 0
 207 0006 FFF7FEFF 		bl	chSysInit
 208              	.LVL10:
 209              		.loc 1 16 0
 210 000a FFF7FEFF 		bl	_motor_init
 211              	.LVL11:
 212              		.loc 1 17 0
 213 000e FFF7FEFF 		bl	_servo_init
 214              	.LVL12:
 215              		.loc 1 18 0
 216 0012 FFF7FEFF 		bl	_music_init
 217              	.LVL13:
 218              		.loc 1 19 0
 219 0016 FFF7FEFF 		bl	_imu_init
 220              	.LVL14:
 221              		.loc 1 20 0
 222 001a FFF7FEFF 		bl	_analog_init
 223              	.LVL15:
 224              		.loc 1 22 0
 225 001e FFF7FEFF 		bl	_ee_init
 226              	.LVL16:
 227              		.loc 1 23 0
ARM GAS  /tmp/ccKI1Vjn.s 			page 5


 228 0022 FFF7FEFF 		bl	_usbcdc_init
 229              	.LVL17:
 230              		.loc 1 24 0
 231 0026 FFF7FEFF 		bl	_lcd_init
 232              	.LVL18:
 233              		.loc 1 27 0
 234 002a 0020     		movs	r0, #0
 235 002c FFF7FEFF 		bl	led_off
 236              	.LVL19:
 237              		.loc 1 28 0
 238 0030 0120     		movs	r0, #1
 239 0032 FFF7FEFF 		bl	led_off
 240              	.LVL20:
 241              		.loc 1 31 0
 242 0036 0648     		ldr	r0, .L14
 243 0038 0021     		movs	r1, #0
 244 003a FFF7FEFF 		bl	sdStart
 245              	.LVL21:
 246              		.loc 1 32 0
 247 003e 0548     		ldr	r0, .L14+4
 248 0040 0021     		movs	r1, #0
 249 0042 FFF7FEFF 		bl	sdStart
 250              	.LVL22:
 251              		.loc 1 37 0
 252 0046 BDE80840 		pop	{r3, lr}
 253              		.loc 1 35 0
 254 004a FFF7FEBF 		b	_aithon_private_init
 255              	.LVL23:
 256              	.L15:
 257 004e 00BF     		.align	2
 258              	.L14:
 259 0050 00000000 		.word	SD1
 260 0054 00000000 		.word	SD2
 261              		.cfi_endproc
 262              	.LFE119:
 263              		.size	__late_init, .-__late_init
 264              		.global	_aithon_thd
 265 0058 AFF30080 		.section	.bss._waAithonThread,"aw",%nobits
 265      AFF30080 
 266              		.align	3
 267              		.set	.LANCHOR0,. + 0
 268              		.type	_waAithonThread, %object
 269              		.size	_waAithonThread, 440
 270              	_waAithonThread:
 271 0000 00000000 		.space	440
 271      00000000 
 271      00000000 
 271      00000000 
 271      00000000 
 272              		.section	.bss._aithon_thd,"aw",%nobits
 273              		.align	2
 274              		.set	.LANCHOR1,. + 0
 275              		.type	_aithon_thd, %object
 276              		.size	_aithon_thd, 4
 277              	_aithon_thd:
 278 0000 00000000 		.space	4
 279              		.text
ARM GAS  /tmp/ccKI1Vjn.s 			page 6


 280              	.Letext0:
 281              		.file 4 "/usr/lib/gcc/arm-none-eabi/4.8.3/include/stddef.h"
 282              		.file 5 "/usr/arm-none-eabi/include/stdint.h"
 283              		.file 6 "../AithonLibrary/ChibiOS/os/ports/GCC/ARMCMx/chtypes.h"
 284              		.file 7 "../AithonLibrary/ChibiOS/os/kernel/include/chlists.h"
 285              		.file 8 "../AithonLibrary/ChibiOS/os/kernel/include/chthreads.h"
 286              		.file 9 "../AithonLibrary/ChibiOS/os/ports/GCC/ARMCMx/chcore_v7m.h"
 287              		.file 10 "../AithonLibrary/ChibiOS/os/kernel/include/chmtx.h"
 288              		.file 11 "../AithonLibrary/ChibiOS/os/kernel/include/chevents.h"
 289              		.file 12 "../AithonLibrary/ChibiOS/os/kernel/include/chqueues.h"
 290              		.file 13 "../AithonLibrary/ChibiOS/os/hal/platforms/STM32F4xx/stm32f4xx.h"
 291              		.file 14 "../AithonLibrary/ChibiOS/os/hal/include/serial.h"
 292              		.file 15 "../AithonLibrary/ChibiOS/os/hal/platforms/STM32/USARTv1/serial_lld.h"
 293              		.file 16 "../AithonLibrary/aithon_private.h"
 294              		.file 17 "../AithonLibrary/ChibiOS/os/hal/include/hal.h"
 295              		.file 18 "../AithonLibrary/ChibiOS/os/kernel/include/chsys.h"
 296              		.file 19 "../AithonLibrary/Aithon.h"