ARM GAS  /tmp/ccKI1Vjn.s 			page 1


   1              		.syntax unified
   2              		.cpu cortex-m4
   3              		.eabi_attribute 27, 3
   4              		.fpu fpv4-sp-d16
   5              		.eabi_attribute 20, 1
   6              		.eabi_attribute 21, 1
   7              		.eabi_attribute 23, 3
   8              		.eabi_attribute 24, 1
   9              		.eabi_attribute 25, 1
  10              		.eabi_attribute 26, 1
  11              		.eabi_attribute 30, 2
  12              		.eabi_attribute 34, 1
  13              		.eabi_attribute 18, 4
  14              		.thumb
  15              		.file	"aithon_private.c"
  16              		.text
  17              	.Ltext0:
  18              		.cfi_sections	.debug_frame
  19              		.section	.text._default_exit,"ax",%progbits
  20              		.align	2
  21              		.p2align 4,,15
  22              		.global	_default_exit
  23              		.thumb
  24              		.thumb_func
  25              		.type	_default_exit, %function
  26              	_default_exit:
  27              	.LFB120:
  28              		.file 1 "../AithonLibrary/aithon_private.c"
  29              		.loc 1 40 0
  30              		.cfi_startproc
  31              		@ args = 0, pretend = 0, frame = 0
  32              		@ frame_needed = 0, uses_anonymous_args = 0
  33              		@ link register save eliminated.
  34              		.loc 1 41 0
  35 0000 4FF0FF30 		mov	r0, #-1
  36 0004 FFF7FEBF 		b	chThdSleep
  37              	.LVL0:
  38              		.cfi_endproc
  39              	.LFE120:
  40              		.size	_default_exit, .-_default_exit
  41 0008 AFF30080 		.section	.text._reset_to_bootloader,"ax",%progbits
  41      AFF30080 
  42              		.align	2
  43              		.p2align 4,,15
  44              		.global	_reset_to_bootloader
  45              		.thumb
  46              		.thumb_func
  47              		.type	_reset_to_bootloader, %function
  48              	_reset_to_bootloader:
  49              	.LFB121:
  50              		.loc 1 46 0
  51              		.cfi_startproc
  52              		@ Volatile: function does not return.
  53              		@ args = 0, pretend = 0, frame = 0
  54              		@ frame_needed = 0, uses_anonymous_args = 0
  55 0000 08B5     		push	{r3, lr}
  56              		.cfi_def_cfa_offset 8
ARM GAS  /tmp/ccKI1Vjn.s 			page 2


  57              		.cfi_offset 3, -8
  58              		.cfi_offset 14, -4
  59              		.loc 1 47 0
  60 0002 4AF6CD31 		movw	r1, #43981
  61 0006 0020     		movs	r0, #0
  62 0008 FFF7FEFF 		bl	_ee_putReserved
  63              	.LVL1:
  64              	.LBB12:
  65              	.LBB13:
  66              	.LBB14:
  67              	.LBB15:
  68              		.file 2 "../AithonLibrary/ChibiOS/os/ports/common/ARMCMx/CMSIS/include/core_cmInstr.h"
  69              		.loc 2 343 0
  70              	@ 343 "../AithonLibrary/ChibiOS/os/ports/common/ARMCMx/CMSIS/include/core_cmInstr.h" 1
  71 000c BFF34F8F 		dsb
  72              	@ 0 "" 2
  73              		.thumb
  74              	.LBE15:
  75              	.LBE14:
  76              		.file 3 "../AithonLibrary/ChibiOS/os/ports/common/ARMCMx/CMSIS/include/core_cm4.h"
  77              		.loc 3 1628 0
  78 0010 044A     		ldr	r2, .L5
  79 0012 054B     		ldr	r3, .L5+4
  80 0014 D168     		ldr	r1, [r2, #12]
  81 0016 01F4E061 		and	r1, r1, #1792
  82 001a 0B43     		orrs	r3, r3, r1
  83              		.loc 3 1627 0
  84 001c D360     		str	r3, [r2, #12]
  85              	.LBB16:
  86              	.LBB17:
  87              		.loc 2 343 0
  88              	@ 343 "../AithonLibrary/ChibiOS/os/ports/common/ARMCMx/CMSIS/include/core_cmInstr.h" 1
  89 001e BFF34F8F 		dsb
  90              	@ 0 "" 2
  91              		.thumb
  92              	.L3:
  93 0022 FEE7     		b	.L3
  94              	.L6:
  95              		.align	2
  96              	.L5:
  97 0024 00ED00E0 		.word	-536810240
  98 0028 0400FA05 		.word	100270084
  99              	.LBE17:
 100              	.LBE16:
 101              	.LBE13:
 102              	.LBE12:
 103              		.cfi_endproc
 104              	.LFE121:
 105              		.size	_reset_to_bootloader, .-_reset_to_bootloader
 106 002c AFF30080 		.section	.text.aithon_thread,"ax",%progbits
 107              		.align	2
 108              		.p2align 4,,15
 109              		.thumb
 110              		.thumb_func
 111              		.type	aithon_thread, %function
 112              	aithon_thread:
 113              	.LFB122:
ARM GAS  /tmp/ccKI1Vjn.s 			page 3


 114              		.loc 1 55 0
 115              		.cfi_startproc
 116              		@ args = 0, pretend = 0, frame = 0
 117              		@ frame_needed = 0, uses_anonymous_args = 0
 118              	.LVL2:
 119 0000 08B5     		push	{r3, lr}
 120              		.cfi_def_cfa_offset 8
 121              		.cfi_offset 3, -8
 122              		.cfi_offset 14, -4
 123              		.loc 1 57 0
 124 0002 4FF0FF30 		mov	r0, #-1
 125              	.LVL3:
 126 0006 FFF7FEFF 		bl	chEvtWaitAny
 127              	.LVL4:
 128              		.loc 1 58 0
 129 000a 0128     		cmp	r0, #1
 130 000c 01D0     		beq	.L9
 131              	.LVL5:
 132              	.L8:
 133              		.loc 1 67 0
 134 000e FFF7FEFF 		bl	_reset_to_bootloader
 135              	.LVL6:
 136              	.L9:
 137              		.loc 1 61 0
 138 0012 FFF7FEFF 		bl	_usb_stop
 139              	.LVL7:
 140 0016 FAE7     		b	.L8
 141              		.cfi_endproc
 142              	.LFE122:
 143              		.size	aithon_thread, .-aithon_thread
 144              		.section	.text._aithon_private_init,"ax",%progbits
 145              		.align	2
 146              		.p2align 4,,15
 147              		.global	_aithon_private_init
 148              		.thumb
 149              		.thumb_func
 150              		.type	_aithon_private_init, %function
 151              	_aithon_private_init:
 152              	.LFB123:
 153              		.loc 1 72 0
 154              		.cfi_startproc
 155              		@ args = 0, pretend = 0, frame = 0
 156              		@ frame_needed = 0, uses_anonymous_args = 0
 157 0000 00B5     		push	{lr}
 158              		.cfi_def_cfa_offset 4
 159              		.cfi_offset 14, -4
 160 0002 83B0     		sub	sp, sp, #12
 161              		.cfi_def_cfa_offset 16
 162              		.loc 1 73 0
 163 0004 0023     		movs	r3, #0
 164 0006 0093     		str	r3, [sp]
 165 0008 4FF4DC71 		mov	r1, #440
 166 000c 044B     		ldr	r3, .L11
 167 000e 0548     		ldr	r0, .L11+4
 168 0010 FF22     		movs	r2, #255
 169 0012 FFF7FEFF 		bl	chThdCreateStatic
 170              	.LVL8:
ARM GAS  /tmp/ccKI1Vjn.s 			page 4


 171 0016 044B     		ldr	r3, .L11+8
 172 0018 1860     		str	r0, [r3]
 173              		.loc 1 74 0
 174 001a 03B0     		add	sp, sp, #12
 175              		@ sp needed
 176 001c 5DF804FB 		ldr	pc, [sp], #4
 177              	.L12:
 178              		.align	2
 179              	.L11:
 180 0020 00000000 		.word	aithon_thread
 181 0024 00000000 		.word	.LANCHOR0
 182 0028 00000000 		.word	.LANCHOR1
 183              		.cfi_endproc
 184              	.LFE123:
 185              		.size	_aithon_private_init, .-_aithon_private_init
 186 002c AFF30080 		.section	.text.__late_init,"ax",%progbits
 187              		.align	2
 188              		.p2align 4,,15
 189              		.global	__late_init
 190              		.thumb
 191              		.thumb_func
 192              		.type	__late_init, %function
 193              	__late_init:
 194              	.LFB119:
 195              		.loc 1 9 0
 196              		.cfi_startproc
 197              		@ args = 0, pretend = 0, frame = 0
 198              		@ frame_needed = 0, uses_anonymous_args = 0
 199 0000 08B5     		push	{r3, lr}
 200              		.cfi_def_cfa_offset 8
 201              		.cfi_offset 3, -8
 202              		.cfi_offset 14, -4
 203              		.loc 1 11 0
 204 0002 FFF7FEFF 		bl	halInit
 205              	.LVL9:
 206              		.loc 1 12 0
 207 0006 FFF7FEFF 		bl	chSysInit
 208              	.LVL10:
 209              		.loc 1 16 0
 210 000a FFF7FEFF 		bl	_motor_init
 211              	.LVL11:
 212              		.loc 1 17 0
 213 000e FFF7FEFF 		bl	_servo_init
 214              	.LVL12:
 215              		.loc 1 18 0
 216 0012 FFF7FEFF 		bl	_music_init
 217              	.LVL13:
 218              		.loc 1 19 0
 219 0016 FFF7FEFF 		bl	_imu_init
 220              	.LVL14:
 221              		.loc 1 20 0
 222 001a FFF7FEFF 		bl	_analog_init
 223              	.LVL15:
 224              		.loc 1 22 0
 225 001e FFF7FEFF 		bl	_ee_init
 226              	.LVL16:
 227              		.loc 1 23 0
ARM GAS  /tmp/ccKI1Vjn.s 			page 5


 228 0022 FFF7FEFF 		bl	_usbcdc_init
 229              	.LVL17:
 230              		.loc 1 24 0
 231 0026 FFF7FEFF 		bl	_lcd_init
 232              	.LVL18:
 233              		.loc 1 27 0
 234 002a 0020     		movs	r0, #0
 235 002c FFF7FEFF 		bl	led_off
 236              	.LVL19:
 237              		.loc 1 28 0
 238 0030 0120     		movs	r0, #1
 239 0032 FFF7FEFF 		bl	led_off
 240              	.LVL20:
 241              		.loc 1 31 0
 242 0036 0648     		ldr	r0, .L14
 243 0038 0021     		movs	r1, #0
 244 003a FFF7FEFF 		bl	sdStart
 245              	.LVL21:
 246              		.loc 1 32 0
 247 003e 0548     		ldr	r0, .L14+4
 248 0040 0021     		movs	r1, #0
 249 0042 FFF7FEFF 		bl	sdStart
 250              	.LVL22:
 251              		.loc 1 37 0
 252 0046 BDE80840 		pop	{r3, lr}
 253              		.loc 1 35 0
 254 004a FFF7FEBF 		b	_aithon_private_init
 255              	.LVL23:
 256              	.L15:
 257 004e 00BF     		.align	2
 258              	.L14:
 259 0050 00000000 		.word	SD1
 260 0054 00000000 		.word	SD2
 261              		.cfi_endproc
 262              	.LFE119:
 263              		.size	__late_init, .-__late_init
 264              		.global	_aithon_thd
 265 0058 AFF30080 		.section	.bss._waAithonThread,"aw",%nobits
 265      AFF30080 
 266              		.align	3
 267              		.set	.LANCHOR0,. + 0
 268              		.type	_waAithonThread, %object
 269              		.size	_waAithonThread, 440
 270              	_waAithonThread:
 271 0000 00000000 		.space	440
 271      00000000 
 271      00000000 
 271      00000000 
 271      00000000 
 272              		.section	.bss._aithon_thd,"aw",%nobits
 273              		.align	2
 274              		.set	.LANCHOR1,. + 0
 275              		.type	_aithon_thd, %object
 276              		.size	_aithon_thd, 4
 277              	_aithon_thd:
 278 0000 00000000 		.space	4
 279              		.text
ARM GAS  /tmp/ccKI1Vjn.s 			page 6


 280              	.Letext0:
 281              		.file 4 "/usr/lib/gcc/arm-none-eabi/4.8.3/include/stddef.h"
 282              		.file 5 "/usr/arm-none-eabi/include/stdint.h"
 283              		.file 6 "../AithonLibrary/ChibiOS/os/ports/GCC/ARMCMx/chtypes.h"
 284              		.file 7 "../AithonLibrary/ChibiOS/os/kernel/include/chlists.h"
 285              		.file 8 "../AithonLibrary/ChibiOS/os/kernel/include/chthreads.h"
 286              		.file 9 "../AithonLibrary/ChibiOS/os/ports/GCC/ARMCMx/chcore_v7m.h"
 287              		.file 10 "../AithonLibrary/ChibiOS/os/kernel/include/chmtx.h"
 288              		.file 11 "../AithonLibrary/ChibiOS/os/kernel/include/chevents.h"
 289              		.file 12 "../AithonLibrary/ChibiOS/os/kernel/include/chqueues.h"
 290              		.file 13 "../AithonLibrary/ChibiOS/os/hal/platforms/STM32F4xx/stm32f4xx.h"
 291              		.file 14 "../AithonLibrary/ChibiOS/os/hal/include/serial.h"
 292              		.file 15 "../AithonLibrary/ChibiOS/os/hal/platforms/STM32/USARTv1/serial_lld.h"
 293              		.file 16 "../AithonLibrary/aithon_private.h"
 294              		.file 17 "../AithonLibrary/ChibiOS/os/hal/include/hal.h"
 295              		.file 18 "../AithonLibrary/ChibiOS/os/kernel/include/chsys.h"
 296              		.file 19 "../AithonLibrary/Aithon.h"
 297              		.section	.debug_info,"",%progbits
 298              	.Ldebug_info0:
 299 0000 D90D0000 		.4byte	0xdd9
 300 0004 0400     		.2byte	0x4
 301 0006 00000000 		.4byte	.Ldebug_abbrev0
 302 000a 04       		.byte	0x4
 303 000b 01       		.uleb128 0x1
 304 000c F8010000 		.4byte	.LASF149
 305 0010 01       		.byte	0x1
 306 0011 7B010000 		.4byte	.LASF150
 307 0015 08000000 		.4byte	.LASF151
 308 0019 00000000 		.4byte	.Ldebug_ranges0+0
 309 001d 00000000 		.4byte	0
 310 0021 00000000 		.4byte	.Ldebug_line0
 311 0025 02       		.uleb128 0x2
 312 0026 04       		.byte	0x4
 313 0027 05       		.byte	0x5
 314 0028 696E7400 		.ascii	"int\000"
 315 002c 03       		.uleb128 0x3
 316 002d 2B000000 		.4byte	.LASF2
 317 0031 04       		.byte	0x4
 318 0032 D4       		.byte	0xd4
 319 0033 37000000 		.4byte	0x37
 320 0037 04       		.uleb128 0x4
 321 0038 04       		.byte	0x4
 322 0039 07       		.byte	0x7
 323 003a D4010000 		.4byte	.LASF0
 324 003e 04       		.uleb128 0x4
 325 003f 01       		.byte	0x1
 326 0040 06       		.byte	0x6
 327 0041 BB060000 		.4byte	.LASF1
 328 0045 03       		.uleb128 0x3
 329 0046 81060000 		.4byte	.LASF3
 330 004a 05       		.byte	0x5
 331 004b 2A       		.byte	0x2a
 332 004c 50000000 		.4byte	0x50
 333 0050 04       		.uleb128 0x4
 334 0051 01       		.byte	0x1
 335 0052 08       		.byte	0x8
 336 0053 00050000 		.4byte	.LASF4
ARM GAS  /tmp/ccKI1Vjn.s 			page 7


 337 0057 04       		.uleb128 0x4
 338 0058 02       		.byte	0x2
 339 0059 05       		.byte	0x5
 340 005a 66040000 		.4byte	.LASF5
 341 005e 03       		.uleb128 0x3
 342 005f 3B010000 		.4byte	.LASF6
 343 0063 05       		.byte	0x5
 344 0064 36       		.byte	0x36
 345 0065 69000000 		.4byte	0x69
 346 0069 04       		.uleb128 0x4
 347 006a 02       		.byte	0x2
 348 006b 07       		.byte	0x7
 349 006c 22060000 		.4byte	.LASF7
 350 0070 03       		.uleb128 0x3
 351 0071 F8040000 		.4byte	.LASF8
 352 0075 05       		.byte	0x5
 353 0076 4F       		.byte	0x4f
 354 0077 7B000000 		.4byte	0x7b
 355 007b 04       		.uleb128 0x4
 356 007c 04       		.byte	0x4
 357 007d 05       		.byte	0x5
 358 007e 1C010000 		.4byte	.LASF9
 359 0082 03       		.uleb128 0x3
 360 0083 9B050000 		.4byte	.LASF10
 361 0087 05       		.byte	0x5
 362 0088 50       		.byte	0x50
 363 0089 8D000000 		.4byte	0x8d
 364 008d 04       		.uleb128 0x4
 365 008e 04       		.byte	0x4
 366 008f 07       		.byte	0x7
 367 0090 C4050000 		.4byte	.LASF11
 368 0094 04       		.uleb128 0x4
 369 0095 08       		.byte	0x8
 370 0096 05       		.byte	0x5
 371 0097 A8000000 		.4byte	.LASF12
 372 009b 03       		.uleb128 0x3
 373 009c 39000000 		.4byte	.LASF13
 374 00a0 05       		.byte	0x5
 375 00a1 78       		.byte	0x78
 376 00a2 A6000000 		.4byte	0xa6
 377 00a6 04       		.uleb128 0x4
 378 00a7 08       		.byte	0x8
 379 00a8 07       		.byte	0x7
 380 00a9 E6000000 		.4byte	.LASF14
 381 00ad 04       		.uleb128 0x4
 382 00ae 01       		.byte	0x1
 383 00af 02       		.byte	0x2
 384 00b0 F2040000 		.4byte	.LASF15
 385 00b4 03       		.uleb128 0x3
 386 00b5 AB030000 		.4byte	.LASF16
 387 00b9 06       		.byte	0x6
 388 00ba 2C       		.byte	0x2c
 389 00bb 45000000 		.4byte	0x45
 390 00bf 03       		.uleb128 0x3
 391 00c0 25010000 		.4byte	.LASF17
 392 00c4 06       		.byte	0x6
 393 00c5 2D       		.byte	0x2d
ARM GAS  /tmp/ccKI1Vjn.s 			page 8


 394 00c6 45000000 		.4byte	0x45
 395 00ca 03       		.uleb128 0x3
 396 00cb 96040000 		.4byte	.LASF18
 397 00cf 06       		.byte	0x6
 398 00d0 2E       		.byte	0x2e
 399 00d1 45000000 		.4byte	0x45
 400 00d5 03       		.uleb128 0x3
 401 00d6 0C010000 		.4byte	.LASF19
 402 00da 06       		.byte	0x6
 403 00db 2F       		.byte	0x2f
 404 00dc 45000000 		.4byte	0x45
 405 00e0 03       		.uleb128 0x3
 406 00e1 E2040000 		.4byte	.LASF20
 407 00e5 06       		.byte	0x6
 408 00e6 30       		.byte	0x30
 409 00e7 82000000 		.4byte	0x82
 410 00eb 03       		.uleb128 0x3
 411 00ec 64030000 		.4byte	.LASF21
 412 00f0 06       		.byte	0x6
 413 00f1 31       		.byte	0x31
 414 00f2 70000000 		.4byte	0x70
 415 00f6 03       		.uleb128 0x3
 416 00f7 20050000 		.4byte	.LASF22
 417 00fb 06       		.byte	0x6
 418 00fc 33       		.byte	0x33
 419 00fd 82000000 		.4byte	0x82
 420 0101 03       		.uleb128 0x3
 421 0102 50060000 		.4byte	.LASF23
 422 0106 06       		.byte	0x6
 423 0107 34       		.byte	0x34
 424 0108 82000000 		.4byte	0x82
 425 010c 03       		.uleb128 0x3
 426 010d 0D060000 		.4byte	.LASF24
 427 0111 06       		.byte	0x6
 428 0112 35       		.byte	0x35
 429 0113 82000000 		.4byte	0x82
 430 0117 03       		.uleb128 0x3
 431 0118 6B050000 		.4byte	.LASF25
 432 011c 07       		.byte	0x7
 433 011d 2A       		.byte	0x2a
 434 011e 22010000 		.4byte	0x122
 435 0122 05       		.uleb128 0x5
 436 0123 6B050000 		.4byte	.LASF25
 437 0127 48       		.byte	0x48
 438 0128 08       		.byte	0x8
 439 0129 5E       		.byte	0x5e
 440 012a 1F020000 		.4byte	0x21f
 441 012e 06       		.uleb128 0x6
 442 012f 5C050000 		.4byte	.LASF26
 443 0133 08       		.byte	0x8
 444 0134 5F       		.byte	0x5f
 445 0135 40020000 		.4byte	0x240
 446 0139 00       		.byte	0
 447 013a 06       		.uleb128 0x6
 448 013b 37040000 		.4byte	.LASF27
 449 013f 08       		.byte	0x8
 450 0140 61       		.byte	0x61
ARM GAS  /tmp/ccKI1Vjn.s 			page 9


 451 0141 40020000 		.4byte	0x240
 452 0145 04       		.byte	0x4
 453 0146 06       		.uleb128 0x6
 454 0147 8C000000 		.4byte	.LASF28
 455 014b 08       		.byte	0x8
 456 014c 63       		.byte	0x63
 457 014d E0000000 		.4byte	0xe0
 458 0151 08       		.byte	0x8
 459 0152 06       		.uleb128 0x6
 460 0153 DF060000 		.4byte	.LASF29
 461 0157 08       		.byte	0x8
 462 0158 64       		.byte	0x64
 463 0159 D5030000 		.4byte	0x3d5
 464 015d 0C       		.byte	0xc
 465 015e 06       		.uleb128 0x6
 466 015f 44010000 		.4byte	.LASF30
 467 0163 08       		.byte	0x8
 468 0164 66       		.byte	0x66
 469 0165 40020000 		.4byte	0x240
 470 0169 10       		.byte	0x10
 471 016a 06       		.uleb128 0x6
 472 016b 56040000 		.4byte	.LASF31
 473 016f 08       		.byte	0x8
 474 0170 67       		.byte	0x67
 475 0171 40020000 		.4byte	0x240
 476 0175 14       		.byte	0x14
 477 0176 06       		.uleb128 0x6
 478 0177 62060000 		.4byte	.LASF32
 479 017b 08       		.byte	0x8
 480 017c 6E       		.byte	0x6e
 481 017d F0040000 		.4byte	0x4f0
 482 0181 18       		.byte	0x18
 483 0182 06       		.uleb128 0x6
 484 0183 43050000 		.4byte	.LASF33
 485 0187 08       		.byte	0x8
 486 0188 79       		.byte	0x79
 487 0189 BF000000 		.4byte	0xbf
 488 018d 1C       		.byte	0x1c
 489 018e 06       		.uleb128 0x6
 490 018f 63050000 		.4byte	.LASF34
 491 0193 08       		.byte	0x8
 492 0194 7D       		.byte	0x7d
 493 0195 B4000000 		.4byte	0xb4
 494 0199 1D       		.byte	0x1d
 495 019a 06       		.uleb128 0x6
 496 019b 69060000 		.4byte	.LASF35
 497 019f 08       		.byte	0x8
 498 01a0 82       		.byte	0x82
 499 01a1 CA000000 		.4byte	0xca
 500 01a5 1E       		.byte	0x1e
 501 01a6 06       		.uleb128 0x6
 502 01a7 4B050000 		.4byte	.LASF36
 503 01ab 08       		.byte	0x8
 504 01ac 88       		.byte	0x88
 505 01ad D5000000 		.4byte	0xd5
 506 01b1 1F       		.byte	0x1f
 507 01b2 06       		.uleb128 0x6
ARM GAS  /tmp/ccKI1Vjn.s 			page 10


 508 01b3 F1010000 		.4byte	.LASF37
 509 01b7 08       		.byte	0x8
 510 01b8 8F       		.byte	0x8f
 511 01b9 02040000 		.4byte	0x402
 512 01bd 20       		.byte	0x20
 513 01be 07       		.uleb128 0x7
 514 01bf 705F7500 		.ascii	"p_u\000"
 515 01c3 08       		.byte	0x8
 516 01c4 B4       		.byte	0xb4
 517 01c5 BB040000 		.4byte	0x4bb
 518 01c9 24       		.byte	0x24
 519 01ca 06       		.uleb128 0x6
 520 01cb E5060000 		.4byte	.LASF38
 521 01cf 08       		.byte	0x8
 522 01d0 B9       		.byte	0xb9
 523 01d1 66020000 		.4byte	0x266
 524 01d5 28       		.byte	0x28
 525 01d6 06       		.uleb128 0x6
 526 01d7 3C060000 		.4byte	.LASF39
 527 01db 08       		.byte	0x8
 528 01dc BF       		.byte	0xbf
 529 01dd 46020000 		.4byte	0x246
 530 01e1 2C       		.byte	0x2c
 531 01e2 06       		.uleb128 0x6
 532 01e3 B5060000 		.4byte	.LASF40
 533 01e7 08       		.byte	0x8
 534 01e8 C3       		.byte	0xc3
 535 01e9 EB000000 		.4byte	0xeb
 536 01ed 34       		.byte	0x34
 537 01ee 06       		.uleb128 0x6
 538 01ef 7C050000 		.4byte	.LASF41
 539 01f3 08       		.byte	0x8
 540 01f4 C9       		.byte	0xc9
 541 01f5 F6000000 		.4byte	0xf6
 542 01f9 38       		.byte	0x38
 543 01fa 06       		.uleb128 0x6
 544 01fb 2C050000 		.4byte	.LASF42
 545 01ff 08       		.byte	0x8
 546 0200 D0       		.byte	0xd0
 547 0201 02050000 		.4byte	0x502
 548 0205 3C       		.byte	0x3c
 549 0206 06       		.uleb128 0x6
 550 0207 17060000 		.4byte	.LASF43
 551 020b 08       		.byte	0x8
 552 020c D4       		.byte	0xd4
 553 020d E0000000 		.4byte	0xe0
 554 0211 40       		.byte	0x40
 555 0212 06       		.uleb128 0x6
 556 0213 DE000000 		.4byte	.LASF44
 557 0217 08       		.byte	0x8
 558 0218 DA       		.byte	0xda
 559 0219 7C020000 		.4byte	0x27c
 560 021d 44       		.byte	0x44
 561 021e 00       		.byte	0
 562 021f 08       		.uleb128 0x8
 563 0220 08       		.byte	0x8
 564 0221 07       		.byte	0x7
ARM GAS  /tmp/ccKI1Vjn.s 			page 11


 565 0222 61       		.byte	0x61
 566 0223 40020000 		.4byte	0x240
 567 0227 06       		.uleb128 0x6
 568 0228 5C050000 		.4byte	.LASF26
 569 022c 07       		.byte	0x7
 570 022d 62       		.byte	0x62
 571 022e 40020000 		.4byte	0x240
 572 0232 00       		.byte	0
 573 0233 06       		.uleb128 0x6
 574 0234 37040000 		.4byte	.LASF27
 575 0238 07       		.byte	0x7
 576 0239 64       		.byte	0x64
 577 023a 40020000 		.4byte	0x240
 578 023e 04       		.byte	0x4
 579 023f 00       		.byte	0
 580 0240 09       		.uleb128 0x9
 581 0241 04       		.byte	0x4
 582 0242 17010000 		.4byte	0x117
 583 0246 03       		.uleb128 0x3
 584 0247 5A000000 		.4byte	.LASF45
 585 024b 07       		.byte	0x7
 586 024c 66       		.byte	0x66
 587 024d 1F020000 		.4byte	0x21f
 588 0251 08       		.uleb128 0x8
 589 0252 04       		.byte	0x4
 590 0253 07       		.byte	0x7
 591 0254 6B       		.byte	0x6b
 592 0255 66020000 		.4byte	0x266
 593 0259 06       		.uleb128 0x6
 594 025a 5C050000 		.4byte	.LASF26
 595 025e 07       		.byte	0x7
 596 025f 6D       		.byte	0x6d
 597 0260 40020000 		.4byte	0x240
 598 0264 00       		.byte	0
 599 0265 00       		.byte	0
 600 0266 03       		.uleb128 0x3
 601 0267 B3030000 		.4byte	.LASF46
 602 026b 07       		.byte	0x7
 603 026c 70       		.byte	0x70
 604 026d 51020000 		.4byte	0x251
 605 0271 03       		.uleb128 0x3
 606 0272 69010000 		.4byte	.LASF47
 607 0276 09       		.byte	0x9
 608 0277 E5       		.byte	0xe5
 609 0278 7C020000 		.4byte	0x27c
 610 027c 0A       		.uleb128 0xa
 611 027d 04       		.byte	0x4
 612 027e 03       		.uleb128 0x3
 613 027f F8030000 		.4byte	.LASF48
 614 0283 09       		.byte	0x9
 615 0284 EB       		.byte	0xeb
 616 0285 9B000000 		.4byte	0x9b
 617 0289 0B       		.uleb128 0xb
 618 028a 35060000 		.4byte	.LASF49
 619 028e 64       		.byte	0x64
 620 028f 09       		.byte	0x9
 621 0290 0C01     		.2byte	0x10c
ARM GAS  /tmp/ccKI1Vjn.s 			page 12


 622 0292 D5030000 		.4byte	0x3d5
 623 0296 0C       		.uleb128 0xc
 624 0297 73313600 		.ascii	"s16\000"
 625 029b 09       		.byte	0x9
 626 029c 0E01     		.2byte	0x10e
 627 029e 71020000 		.4byte	0x271
 628 02a2 00       		.byte	0
 629 02a3 0C       		.uleb128 0xc
 630 02a4 73313700 		.ascii	"s17\000"
 631 02a8 09       		.byte	0x9
 632 02a9 0F01     		.2byte	0x10f
 633 02ab 71020000 		.4byte	0x271
 634 02af 04       		.byte	0x4
 635 02b0 0C       		.uleb128 0xc
 636 02b1 73313800 		.ascii	"s18\000"
 637 02b5 09       		.byte	0x9
 638 02b6 1001     		.2byte	0x110
 639 02b8 71020000 		.4byte	0x271
 640 02bc 08       		.byte	0x8
 641 02bd 0C       		.uleb128 0xc
 642 02be 73313900 		.ascii	"s19\000"
 643 02c2 09       		.byte	0x9
 644 02c3 1101     		.2byte	0x111
 645 02c5 71020000 		.4byte	0x271
 646 02c9 0C       		.byte	0xc
 647 02ca 0C       		.uleb128 0xc
 648 02cb 73323000 		.ascii	"s20\000"
 649 02cf 09       		.byte	0x9
 650 02d0 1201     		.2byte	0x112
 651 02d2 71020000 		.4byte	0x271
 652 02d6 10       		.byte	0x10
 653 02d7 0C       		.uleb128 0xc
 654 02d8 73323100 		.ascii	"s21\000"
 655 02dc 09       		.byte	0x9
 656 02dd 1301     		.2byte	0x113
 657 02df 71020000 		.4byte	0x271
 658 02e3 14       		.byte	0x14
 659 02e4 0C       		.uleb128 0xc
 660 02e5 73323200 		.ascii	"s22\000"
 661 02e9 09       		.byte	0x9
 662 02ea 1401     		.2byte	0x114
 663 02ec 71020000 		.4byte	0x271
 664 02f0 18       		.byte	0x18
 665 02f1 0C       		.uleb128 0xc
 666 02f2 73323300 		.ascii	"s23\000"
 667 02f6 09       		.byte	0x9
 668 02f7 1501     		.2byte	0x115
 669 02f9 71020000 		.4byte	0x271
 670 02fd 1C       		.byte	0x1c
 671 02fe 0C       		.uleb128 0xc
 672 02ff 73323400 		.ascii	"s24\000"
 673 0303 09       		.byte	0x9
 674 0304 1601     		.2byte	0x116
 675 0306 71020000 		.4byte	0x271
 676 030a 20       		.byte	0x20
 677 030b 0C       		.uleb128 0xc
 678 030c 73323500 		.ascii	"s25\000"
ARM GAS  /tmp/ccKI1Vjn.s 			page 13


 679 0310 09       		.byte	0x9
 680 0311 1701     		.2byte	0x117
 681 0313 71020000 		.4byte	0x271
 682 0317 24       		.byte	0x24
 683 0318 0C       		.uleb128 0xc
 684 0319 73323600 		.ascii	"s26\000"
 685 031d 09       		.byte	0x9
 686 031e 1801     		.2byte	0x118
 687 0320 71020000 		.4byte	0x271
 688 0324 28       		.byte	0x28
 689 0325 0C       		.uleb128 0xc
 690 0326 73323700 		.ascii	"s27\000"
 691 032a 09       		.byte	0x9
 692 032b 1901     		.2byte	0x119
 693 032d 71020000 		.4byte	0x271
 694 0331 2C       		.byte	0x2c
 695 0332 0C       		.uleb128 0xc
 696 0333 73323800 		.ascii	"s28\000"
 697 0337 09       		.byte	0x9
 698 0338 1A01     		.2byte	0x11a
 699 033a 71020000 		.4byte	0x271
 700 033e 30       		.byte	0x30
 701 033f 0C       		.uleb128 0xc
 702 0340 73323900 		.ascii	"s29\000"
 703 0344 09       		.byte	0x9
 704 0345 1B01     		.2byte	0x11b
 705 0347 71020000 		.4byte	0x271
 706 034b 34       		.byte	0x34
 707 034c 0C       		.uleb128 0xc
 708 034d 73333000 		.ascii	"s30\000"
 709 0351 09       		.byte	0x9
 710 0352 1C01     		.2byte	0x11c
 711 0354 71020000 		.4byte	0x271
 712 0358 38       		.byte	0x38
 713 0359 0C       		.uleb128 0xc
 714 035a 73333100 		.ascii	"s31\000"
 715 035e 09       		.byte	0x9
 716 035f 1D01     		.2byte	0x11d
 717 0361 71020000 		.4byte	0x271
 718 0365 3C       		.byte	0x3c
 719 0366 0C       		.uleb128 0xc
 720 0367 723400   		.ascii	"r4\000"
 721 036a 09       		.byte	0x9
 722 036b 1F01     		.2byte	0x11f
 723 036d 71020000 		.4byte	0x271
 724 0371 40       		.byte	0x40
 725 0372 0C       		.uleb128 0xc
 726 0373 723500   		.ascii	"r5\000"
 727 0376 09       		.byte	0x9
 728 0377 2001     		.2byte	0x120
 729 0379 71020000 		.4byte	0x271
 730 037d 44       		.byte	0x44
 731 037e 0C       		.uleb128 0xc
 732 037f 723600   		.ascii	"r6\000"
 733 0382 09       		.byte	0x9
 734 0383 2101     		.2byte	0x121
 735 0385 71020000 		.4byte	0x271
ARM GAS  /tmp/ccKI1Vjn.s 			page 14


 736 0389 48       		.byte	0x48
 737 038a 0C       		.uleb128 0xc
 738 038b 723700   		.ascii	"r7\000"
 739 038e 09       		.byte	0x9
 740 038f 2201     		.2byte	0x122
 741 0391 71020000 		.4byte	0x271
 742 0395 4C       		.byte	0x4c
 743 0396 0C       		.uleb128 0xc
 744 0397 723800   		.ascii	"r8\000"
 745 039a 09       		.byte	0x9
 746 039b 2301     		.2byte	0x123
 747 039d 71020000 		.4byte	0x271
 748 03a1 50       		.byte	0x50
 749 03a2 0C       		.uleb128 0xc
 750 03a3 723900   		.ascii	"r9\000"
 751 03a6 09       		.byte	0x9
 752 03a7 2401     		.2byte	0x124
 753 03a9 71020000 		.4byte	0x271
 754 03ad 54       		.byte	0x54
 755 03ae 0C       		.uleb128 0xc
 756 03af 72313000 		.ascii	"r10\000"
 757 03b3 09       		.byte	0x9
 758 03b4 2501     		.2byte	0x125
 759 03b6 71020000 		.4byte	0x271
 760 03ba 58       		.byte	0x58
 761 03bb 0C       		.uleb128 0xc
 762 03bc 72313100 		.ascii	"r11\000"
 763 03c0 09       		.byte	0x9
 764 03c1 2601     		.2byte	0x126
 765 03c3 71020000 		.4byte	0x271
 766 03c7 5C       		.byte	0x5c
 767 03c8 0C       		.uleb128 0xc
 768 03c9 6C7200   		.ascii	"lr\000"
 769 03cc 09       		.byte	0x9
 770 03cd 2701     		.2byte	0x127
 771 03cf 71020000 		.4byte	0x271
 772 03d3 60       		.byte	0x60
 773 03d4 00       		.byte	0
 774 03d5 0B       		.uleb128 0xb
 775 03d6 57030000 		.4byte	.LASF50
 776 03da 04       		.byte	0x4
 777 03db 09       		.byte	0x9
 778 03dc 3101     		.2byte	0x131
 779 03de F0030000 		.4byte	0x3f0
 780 03e2 0C       		.uleb128 0xc
 781 03e3 72313300 		.ascii	"r13\000"
 782 03e7 09       		.byte	0x9
 783 03e8 3201     		.2byte	0x132
 784 03ea F0030000 		.4byte	0x3f0
 785 03ee 00       		.byte	0
 786 03ef 00       		.byte	0
 787 03f0 09       		.uleb128 0x9
 788 03f1 04       		.byte	0x4
 789 03f2 89020000 		.4byte	0x289
 790 03f6 0D       		.uleb128 0xd
 791 03f7 82000000 		.4byte	0x82
 792 03fb 04       		.uleb128 0x4
ARM GAS  /tmp/ccKI1Vjn.s 			page 15


 793 03fc 04       		.byte	0x4
 794 03fd 07       		.byte	0x7
 795 03fe 3E040000 		.4byte	.LASF51
 796 0402 0D       		.uleb128 0xd
 797 0403 0C010000 		.4byte	0x10c
 798 0407 05       		.uleb128 0x5
 799 0408 D9030000 		.4byte	.LASF52
 800 040c 10       		.byte	0x10
 801 040d 0A       		.byte	0xa
 802 040e 2C       		.byte	0x2c
 803 040f 38040000 		.4byte	0x438
 804 0413 06       		.uleb128 0x6
 805 0414 FD000000 		.4byte	.LASF53
 806 0418 0A       		.byte	0xa
 807 0419 2D       		.byte	0x2d
 808 041a 46020000 		.4byte	0x246
 809 041e 00       		.byte	0
 810 041f 06       		.uleb128 0x6
 811 0420 79060000 		.4byte	.LASF54
 812 0424 0A       		.byte	0xa
 813 0425 2F       		.byte	0x2f
 814 0426 40020000 		.4byte	0x240
 815 042a 08       		.byte	0x8
 816 042b 06       		.uleb128 0x6
 817 042c 06060000 		.4byte	.LASF55
 818 0430 0A       		.byte	0xa
 819 0431 31       		.byte	0x31
 820 0432 38040000 		.4byte	0x438
 821 0436 0C       		.byte	0xc
 822 0437 00       		.byte	0
 823 0438 09       		.uleb128 0x9
 824 0439 04       		.byte	0x4
 825 043a 07040000 		.4byte	0x407
 826 043e 03       		.uleb128 0x3
 827 043f D9030000 		.4byte	.LASF52
 828 0443 0A       		.byte	0xa
 829 0444 33       		.byte	0x33
 830 0445 07040000 		.4byte	0x407
 831 0449 03       		.uleb128 0x3
 832 044a 93060000 		.4byte	.LASF56
 833 044e 0B       		.byte	0xb
 834 044f 2C       		.byte	0x2c
 835 0450 54040000 		.4byte	0x454
 836 0454 05       		.uleb128 0x5
 837 0455 93060000 		.4byte	.LASF56
 838 0459 10       		.byte	0x10
 839 045a 0B       		.byte	0xb
 840 045b 31       		.byte	0x31
 841 045c 91040000 		.4byte	0x491
 842 0460 06       		.uleb128 0x6
 843 0461 7C030000 		.4byte	.LASF57
 844 0465 0B       		.byte	0xb
 845 0466 32       		.byte	0x32
 846 0467 91040000 		.4byte	0x491
 847 046b 00       		.byte	0
 848 046c 06       		.uleb128 0x6
 849 046d 14050000 		.4byte	.LASF58
ARM GAS  /tmp/ccKI1Vjn.s 			page 16


 850 0471 0B       		.byte	0xb
 851 0472 35       		.byte	0x35
 852 0473 40020000 		.4byte	0x240
 853 0477 04       		.byte	0x4
 854 0478 06       		.uleb128 0x6
 855 0479 70040000 		.4byte	.LASF59
 856 047d 0B       		.byte	0xb
 857 047e 37       		.byte	0x37
 858 047f F6000000 		.4byte	0xf6
 859 0483 08       		.byte	0x8
 860 0484 06       		.uleb128 0x6
 861 0485 27030000 		.4byte	.LASF60
 862 0489 0B       		.byte	0xb
 863 048a 3A       		.byte	0x3a
 864 048b 01010000 		.4byte	0x101
 865 048f 0C       		.byte	0xc
 866 0490 00       		.byte	0
 867 0491 09       		.uleb128 0x9
 868 0492 04       		.byte	0x4
 869 0493 49040000 		.4byte	0x449
 870 0497 05       		.uleb128 0x5
 871 0498 B2010000 		.4byte	.LASF61
 872 049c 04       		.byte	0x4
 873 049d 0B       		.byte	0xb
 874 049e 41       		.byte	0x41
 875 049f B0040000 		.4byte	0x4b0
 876 04a3 06       		.uleb128 0x6
 877 04a4 AD060000 		.4byte	.LASF62
 878 04a8 0B       		.byte	0xb
 879 04a9 42       		.byte	0x42
 880 04aa 91040000 		.4byte	0x491
 881 04ae 00       		.byte	0
 882 04af 00       		.byte	0
 883 04b0 03       		.uleb128 0x3
 884 04b1 B2010000 		.4byte	.LASF61
 885 04b5 0B       		.byte	0xb
 886 04b6 45       		.byte	0x45
 887 04b7 97040000 		.4byte	0x497
 888 04bb 0E       		.uleb128 0xe
 889 04bc 04       		.byte	0x4
 890 04bd 08       		.byte	0x8
 891 04be 96       		.byte	0x96
 892 04bf F0040000 		.4byte	0x4f0
 893 04c3 0F       		.uleb128 0xf
 894 04c4 32000000 		.4byte	.LASF63
 895 04c8 08       		.byte	0x8
 896 04c9 9D       		.byte	0x9d
 897 04ca EB000000 		.4byte	0xeb
 898 04ce 0F       		.uleb128 0xf
 899 04cf 51010000 		.4byte	.LASF64
 900 04d3 08       		.byte	0x8
 901 04d4 A4       		.byte	0xa4
 902 04d5 EB000000 		.4byte	0xeb
 903 04d9 0F       		.uleb128 0xf
 904 04da 05010000 		.4byte	.LASF65
 905 04de 08       		.byte	0x8
 906 04df AB       		.byte	0xab
ARM GAS  /tmp/ccKI1Vjn.s 			page 17


 907 04e0 7C020000 		.4byte	0x27c
 908 04e4 0F       		.uleb128 0xf
 909 04e5 55050000 		.4byte	.LASF66
 910 04e9 08       		.byte	0x8
 911 04ea B2       		.byte	0xb2
 912 04eb F6000000 		.4byte	0xf6
 913 04ef 00       		.byte	0
 914 04f0 09       		.uleb128 0x9
 915 04f1 04       		.byte	0x4
 916 04f2 F6040000 		.4byte	0x4f6
 917 04f6 10       		.uleb128 0x10
 918 04f7 FB040000 		.4byte	0x4fb
 919 04fb 04       		.uleb128 0x4
 920 04fc 01       		.byte	0x1
 921 04fd 08       		.byte	0x8
 922 04fe D6050000 		.4byte	.LASF67
 923 0502 09       		.uleb128 0x9
 924 0503 04       		.byte	0x4
 925 0504 3E040000 		.4byte	0x43e
 926 0508 03       		.uleb128 0x3
 927 0509 00000000 		.4byte	.LASF68
 928 050d 08       		.byte	0x8
 929 050e E5       		.byte	0xe5
 930 050f 13050000 		.4byte	0x513
 931 0513 09       		.uleb128 0x9
 932 0514 04       		.byte	0x4
 933 0515 19050000 		.4byte	0x519
 934 0519 11       		.uleb128 0x11
 935 051a EB000000 		.4byte	0xeb
 936 051e 28050000 		.4byte	0x528
 937 0522 12       		.uleb128 0x12
 938 0523 7C020000 		.4byte	0x27c
 939 0527 00       		.byte	0
 940 0528 03       		.uleb128 0x3
 941 0529 EB030000 		.4byte	.LASF69
 942 052d 0C       		.byte	0xc
 943 052e 37       		.byte	0x37
 944 052f 33050000 		.4byte	0x533
 945 0533 05       		.uleb128 0x5
 946 0534 EB030000 		.4byte	.LASF69
 947 0538 24       		.byte	0x24
 948 0539 0C       		.byte	0xc
 949 053a 45       		.byte	0x45
 950 053b A0050000 		.4byte	0x5a0
 951 053f 06       		.uleb128 0x6
 952 0540 99000000 		.4byte	.LASF70
 953 0544 0C       		.byte	0xc
 954 0545 46       		.byte	0x46
 955 0546 46020000 		.4byte	0x246
 956 054a 00       		.byte	0
 957 054b 06       		.uleb128 0x6
 958 054c 47040000 		.4byte	.LASF71
 959 0550 0C       		.byte	0xc
 960 0551 47       		.byte	0x47
 961 0552 2C000000 		.4byte	0x2c
 962 0556 08       		.byte	0x8
 963 0557 06       		.uleb128 0x6
ARM GAS  /tmp/ccKI1Vjn.s 			page 18


 964 0558 03040000 		.4byte	.LASF72
 965 055c 0C       		.byte	0xc
 966 055d 48       		.byte	0x48
 967 055e C2050000 		.4byte	0x5c2
 968 0562 0C       		.byte	0xc
 969 0563 06       		.uleb128 0x6
 970 0564 5C060000 		.4byte	.LASF73
 971 0568 0C       		.byte	0xc
 972 0569 49       		.byte	0x49
 973 056a C2050000 		.4byte	0x5c2
 974 056e 10       		.byte	0x10
 975 056f 06       		.uleb128 0x6
 976 0570 5E040000 		.4byte	.LASF74
 977 0574 0C       		.byte	0xc
 978 0575 4B       		.byte	0x4b
 979 0576 C2050000 		.4byte	0x5c2
 980 057a 14       		.byte	0x14
 981 057b 06       		.uleb128 0x6
 982 057c EA040000 		.4byte	.LASF75
 983 0580 0C       		.byte	0xc
 984 0581 4C       		.byte	0x4c
 985 0582 C2050000 		.4byte	0x5c2
 986 0586 18       		.byte	0x18
 987 0587 06       		.uleb128 0x6
 988 0588 70060000 		.4byte	.LASF76
 989 058c 0C       		.byte	0xc
 990 058d 4D       		.byte	0x4d
 991 058e A0050000 		.4byte	0x5a0
 992 0592 1C       		.byte	0x1c
 993 0593 06       		.uleb128 0x6
 994 0594 30030000 		.4byte	.LASF77
 995 0598 0C       		.byte	0xc
 996 0599 4E       		.byte	0x4e
 997 059a 7C020000 		.4byte	0x27c
 998 059e 20       		.byte	0x20
 999 059f 00       		.byte	0
 1000 05a0 03       		.uleb128 0x3
 1001 05a1 BC040000 		.4byte	.LASF78
 1002 05a5 0C       		.byte	0xc
 1003 05a6 3A       		.byte	0x3a
 1004 05a7 AB050000 		.4byte	0x5ab
 1005 05ab 09       		.uleb128 0x9
 1006 05ac 04       		.byte	0x4
 1007 05ad B1050000 		.4byte	0x5b1
 1008 05b1 13       		.uleb128 0x13
 1009 05b2 BC050000 		.4byte	0x5bc
 1010 05b6 12       		.uleb128 0x12
 1011 05b7 BC050000 		.4byte	0x5bc
 1012 05bb 00       		.byte	0
 1013 05bc 09       		.uleb128 0x9
 1014 05bd 04       		.byte	0x4
 1015 05be 28050000 		.4byte	0x528
 1016 05c2 09       		.uleb128 0x9
 1017 05c3 04       		.byte	0x4
 1018 05c4 45000000 		.4byte	0x45
 1019 05c8 03       		.uleb128 0x3
 1020 05c9 C4030000 		.4byte	.LASF79
ARM GAS  /tmp/ccKI1Vjn.s 			page 19


 1021 05cd 0C       		.byte	0xc
 1022 05ce 82       		.byte	0x82
 1023 05cf 28050000 		.4byte	0x528
 1024 05d3 03       		.uleb128 0x3
 1025 05d4 42000000 		.4byte	.LASF80
 1026 05d8 0C       		.byte	0xc
 1027 05d9 F5       		.byte	0xf5
 1028 05da 28050000 		.4byte	0x528
 1029 05de 11       		.uleb128 0x11
 1030 05df 2C000000 		.4byte	0x2c
 1031 05e3 F7050000 		.4byte	0x5f7
 1032 05e7 12       		.uleb128 0x12
 1033 05e8 7C020000 		.4byte	0x27c
 1034 05ec 12       		.uleb128 0x12
 1035 05ed F7050000 		.4byte	0x5f7
 1036 05f1 12       		.uleb128 0x12
 1037 05f2 2C000000 		.4byte	0x2c
 1038 05f6 00       		.byte	0
 1039 05f7 09       		.uleb128 0x9
 1040 05f8 04       		.byte	0x4
 1041 05f9 FD050000 		.4byte	0x5fd
 1042 05fd 10       		.uleb128 0x10
 1043 05fe 45000000 		.4byte	0x45
 1044 0602 09       		.uleb128 0x9
 1045 0603 04       		.byte	0x4
 1046 0604 DE050000 		.4byte	0x5de
 1047 0608 11       		.uleb128 0x11
 1048 0609 2C000000 		.4byte	0x2c
 1049 060d 21060000 		.4byte	0x621
 1050 0611 12       		.uleb128 0x12
 1051 0612 7C020000 		.4byte	0x27c
 1052 0616 12       		.uleb128 0x12
 1053 0617 C2050000 		.4byte	0x5c2
 1054 061b 12       		.uleb128 0x12
 1055 061c 2C000000 		.4byte	0x2c
 1056 0620 00       		.byte	0
 1057 0621 09       		.uleb128 0x9
 1058 0622 04       		.byte	0x4
 1059 0623 08060000 		.4byte	0x608
 1060 0627 11       		.uleb128 0x11
 1061 0628 EB000000 		.4byte	0xeb
 1062 062c 3B060000 		.4byte	0x63b
 1063 0630 12       		.uleb128 0x12
 1064 0631 7C020000 		.4byte	0x27c
 1065 0635 12       		.uleb128 0x12
 1066 0636 45000000 		.4byte	0x45
 1067 063a 00       		.byte	0
 1068 063b 09       		.uleb128 0x9
 1069 063c 04       		.byte	0x4
 1070 063d 27060000 		.4byte	0x627
 1071 0641 14       		.uleb128 0x14
 1072 0642 8C       		.byte	0x8c
 1073 0643 03       		.byte	0x3
 1074 0644 6101     		.2byte	0x161
 1075 0646 5C070000 		.4byte	0x75c
 1076 064a 15       		.uleb128 0x15
 1077 064b 90040000 		.4byte	.LASF81
ARM GAS  /tmp/ccKI1Vjn.s 			page 20


 1078 064f 03       		.byte	0x3
 1079 0650 6301     		.2byte	0x163
 1080 0652 5C070000 		.4byte	0x75c
 1081 0656 00       		.byte	0
 1082 0657 15       		.uleb128 0x15
 1083 0658 5F030000 		.4byte	.LASF82
 1084 065c 03       		.byte	0x3
 1085 065d 6401     		.2byte	0x164
 1086 065f F6030000 		.4byte	0x3f6
 1087 0663 04       		.byte	0x4
 1088 0664 15       		.uleb128 0x15
 1089 0665 4C030000 		.4byte	.LASF83
 1090 0669 03       		.byte	0x3
 1091 066a 6501     		.2byte	0x165
 1092 066c F6030000 		.4byte	0x3f6
 1093 0670 08       		.byte	0x8
 1094 0671 15       		.uleb128 0x15
 1095 0672 76030000 		.4byte	.LASF84
 1096 0676 03       		.byte	0x3
 1097 0677 6601     		.2byte	0x166
 1098 0679 F6030000 		.4byte	0x3f6
 1099 067d 0C       		.byte	0xc
 1100 067e 0C       		.uleb128 0xc
 1101 067f 53435200 		.ascii	"SCR\000"
 1102 0683 03       		.byte	0x3
 1103 0684 6701     		.2byte	0x167
 1104 0686 F6030000 		.4byte	0x3f6
 1105 068a 10       		.byte	0x10
 1106 068b 0C       		.uleb128 0xc
 1107 068c 43435200 		.ascii	"CCR\000"
 1108 0690 03       		.byte	0x3
 1109 0691 6801     		.2byte	0x168
 1110 0693 F6030000 		.4byte	0x3f6
 1111 0697 14       		.byte	0x14
 1112 0698 0C       		.uleb128 0xc
 1113 0699 53485000 		.ascii	"SHP\000"
 1114 069d 03       		.byte	0x3
 1115 069e 6901     		.2byte	0x169
 1116 06a0 71070000 		.4byte	0x771
 1117 06a4 18       		.byte	0x18
 1118 06a5 15       		.uleb128 0x15
 1119 06a6 0E050000 		.4byte	.LASF85
 1120 06aa 03       		.byte	0x3
 1121 06ab 6A01     		.2byte	0x16a
 1122 06ad F6030000 		.4byte	0x3f6
 1123 06b1 24       		.byte	0x24
 1124 06b2 15       		.uleb128 0x15
 1125 06b3 51040000 		.4byte	.LASF86
 1126 06b7 03       		.byte	0x3
 1127 06b8 6B01     		.2byte	0x16b
 1128 06ba F6030000 		.4byte	0x3f6
 1129 06be 28       		.byte	0x28
 1130 06bf 15       		.uleb128 0x15
 1131 06c0 CD060000 		.4byte	.LASF87
 1132 06c4 03       		.byte	0x3
 1133 06c5 6C01     		.2byte	0x16c
 1134 06c7 F6030000 		.4byte	0x3f6
ARM GAS  /tmp/ccKI1Vjn.s 			page 21


 1135 06cb 2C       		.byte	0x2c
 1136 06cc 15       		.uleb128 0x15
 1137 06cd 71030000 		.4byte	.LASF88
 1138 06d1 03       		.byte	0x3
 1139 06d2 6D01     		.2byte	0x16d
 1140 06d4 F6030000 		.4byte	0x3f6
 1141 06d8 30       		.byte	0x30
 1142 06d9 15       		.uleb128 0x15
 1143 06da 84030000 		.4byte	.LASF89
 1144 06de 03       		.byte	0x3
 1145 06df 6E01     		.2byte	0x16e
 1146 06e1 F6030000 		.4byte	0x3f6
 1147 06e5 34       		.byte	0x34
 1148 06e6 15       		.uleb128 0x15
 1149 06e7 4C010000 		.4byte	.LASF90
 1150 06eb 03       		.byte	0x3
 1151 06ec 6F01     		.2byte	0x16f
 1152 06ee F6030000 		.4byte	0x3f6
 1153 06f2 38       		.byte	0x38
 1154 06f3 15       		.uleb128 0x15
 1155 06f4 5A010000 		.4byte	.LASF91
 1156 06f8 03       		.byte	0x3
 1157 06f9 7001     		.2byte	0x170
 1158 06fb F6030000 		.4byte	0x3f6
 1159 06ff 3C       		.byte	0x3c
 1160 0700 0C       		.uleb128 0xc
 1161 0701 50465200 		.ascii	"PFR\000"
 1162 0705 03       		.byte	0x3
 1163 0706 7101     		.2byte	0x171
 1164 0708 86070000 		.4byte	0x786
 1165 070c 40       		.byte	0x40
 1166 070d 0C       		.uleb128 0xc
 1167 070e 44465200 		.ascii	"DFR\000"
 1168 0712 03       		.byte	0x3
 1169 0713 7201     		.2byte	0x172
 1170 0715 5C070000 		.4byte	0x75c
 1171 0719 48       		.byte	0x48
 1172 071a 0C       		.uleb128 0xc
 1173 071b 41445200 		.ascii	"ADR\000"
 1174 071f 03       		.byte	0x3
 1175 0720 7301     		.2byte	0x173
 1176 0722 5C070000 		.4byte	0x75c
 1177 0726 4C       		.byte	0x4c
 1178 0727 15       		.uleb128 0x15
 1179 0728 BF030000 		.4byte	.LASF92
 1180 072c 03       		.byte	0x3
 1181 072d 7401     		.2byte	0x174
 1182 072f A0070000 		.4byte	0x7a0
 1183 0733 50       		.byte	0x50
 1184 0734 15       		.uleb128 0x15
 1185 0735 A3000000 		.4byte	.LASF93
 1186 0739 03       		.byte	0x3
 1187 073a 7501     		.2byte	0x175
 1188 073c BA070000 		.4byte	0x7ba
 1189 0740 60       		.byte	0x60
 1190 0741 15       		.uleb128 0x15
 1191 0742 9E040000 		.4byte	.LASF94
ARM GAS  /tmp/ccKI1Vjn.s 			page 22


 1192 0746 03       		.byte	0x3
 1193 0747 7601     		.2byte	0x176
 1194 0749 AA070000 		.4byte	0x7aa
 1195 074d 74       		.byte	0x74
 1196 074e 15       		.uleb128 0x15
 1197 074f C7060000 		.4byte	.LASF95
 1198 0753 03       		.byte	0x3
 1199 0754 7701     		.2byte	0x177
 1200 0756 F6030000 		.4byte	0x3f6
 1201 075a 88       		.byte	0x88
 1202 075b 00       		.byte	0
 1203 075c 10       		.uleb128 0x10
 1204 075d F6030000 		.4byte	0x3f6
 1205 0761 16       		.uleb128 0x16
 1206 0762 45000000 		.4byte	0x45
 1207 0766 71070000 		.4byte	0x771
 1208 076a 17       		.uleb128 0x17
 1209 076b FB030000 		.4byte	0x3fb
 1210 076f 0B       		.byte	0xb
 1211 0770 00       		.byte	0
 1212 0771 0D       		.uleb128 0xd
 1213 0772 61070000 		.4byte	0x761
 1214 0776 16       		.uleb128 0x16
 1215 0777 82000000 		.4byte	0x82
 1216 077b 86070000 		.4byte	0x786
 1217 077f 17       		.uleb128 0x17
 1218 0780 FB030000 		.4byte	0x3fb
 1219 0784 01       		.byte	0x1
 1220 0785 00       		.byte	0
 1221 0786 10       		.uleb128 0x10
 1222 0787 8B070000 		.4byte	0x78b
 1223 078b 0D       		.uleb128 0xd
 1224 078c 76070000 		.4byte	0x776
 1225 0790 16       		.uleb128 0x16
 1226 0791 82000000 		.4byte	0x82
 1227 0795 A0070000 		.4byte	0x7a0
 1228 0799 17       		.uleb128 0x17
 1229 079a FB030000 		.4byte	0x3fb
 1230 079e 03       		.byte	0x3
 1231 079f 00       		.byte	0
 1232 07a0 10       		.uleb128 0x10
 1233 07a1 A5070000 		.4byte	0x7a5
 1234 07a5 0D       		.uleb128 0xd
 1235 07a6 90070000 		.4byte	0x790
 1236 07aa 16       		.uleb128 0x16
 1237 07ab 82000000 		.4byte	0x82
 1238 07af BA070000 		.4byte	0x7ba
 1239 07b3 17       		.uleb128 0x17
 1240 07b4 FB030000 		.4byte	0x3fb
 1241 07b8 04       		.byte	0x4
 1242 07b9 00       		.byte	0
 1243 07ba 10       		.uleb128 0x10
 1244 07bb BF070000 		.4byte	0x7bf
 1245 07bf 0D       		.uleb128 0xd
 1246 07c0 AA070000 		.4byte	0x7aa
 1247 07c4 18       		.uleb128 0x18
 1248 07c5 72010000 		.4byte	.LASF96
ARM GAS  /tmp/ccKI1Vjn.s 			page 23


 1249 07c9 03       		.byte	0x3
 1250 07ca 7801     		.2byte	0x178
 1251 07cc 41060000 		.4byte	0x641
 1252 07d0 0D       		.uleb128 0xd
 1253 07d1 5E000000 		.4byte	0x5e
 1254 07d5 0D       		.uleb128 0xd
 1255 07d6 70000000 		.4byte	0x70
 1256 07da 14       		.uleb128 0x14
 1257 07db 1C       		.byte	0x1c
 1258 07dc 0D       		.byte	0xd
 1259 07dd 2905     		.2byte	0x529
 1260 07df 98080000 		.4byte	0x898
 1261 07e3 0C       		.uleb128 0xc
 1262 07e4 535200   		.ascii	"SR\000"
 1263 07e7 0D       		.byte	0xd
 1264 07e8 2B05     		.2byte	0x52b
 1265 07ea D0070000 		.4byte	0x7d0
 1266 07ee 00       		.byte	0
 1267 07ef 15       		.uleb128 0x15
 1268 07f0 9E040000 		.4byte	.LASF94
 1269 07f4 0D       		.byte	0xd
 1270 07f5 2C05     		.2byte	0x52c
 1271 07f7 5E000000 		.4byte	0x5e
 1272 07fb 02       		.byte	0x2
 1273 07fc 0C       		.uleb128 0xc
 1274 07fd 445200   		.ascii	"DR\000"
 1275 0800 0D       		.byte	0xd
 1276 0801 2D05     		.2byte	0x52d
 1277 0803 D0070000 		.4byte	0x7d0
 1278 0807 04       		.byte	0x4
 1279 0808 15       		.uleb128 0x15
 1280 0809 A8040000 		.4byte	.LASF97
 1281 080d 0D       		.byte	0xd
 1282 080e 2E05     		.2byte	0x52e
 1283 0810 5E000000 		.4byte	0x5e
 1284 0814 06       		.byte	0x6
 1285 0815 0C       		.uleb128 0xc
 1286 0816 42525200 		.ascii	"BRR\000"
 1287 081a 0D       		.byte	0xd
 1288 081b 2F05     		.2byte	0x52f
 1289 081d D0070000 		.4byte	0x7d0
 1290 0821 08       		.byte	0x8
 1291 0822 15       		.uleb128 0x15
 1292 0823 B2040000 		.4byte	.LASF98
 1293 0827 0D       		.byte	0xd
 1294 0828 3005     		.2byte	0x530
 1295 082a 5E000000 		.4byte	0x5e
 1296 082e 0A       		.byte	0xa
 1297 082f 0C       		.uleb128 0xc
 1298 0830 43523100 		.ascii	"CR1\000"
 1299 0834 0D       		.byte	0xd
 1300 0835 3105     		.2byte	0x531
 1301 0837 D0070000 		.4byte	0x7d0
 1302 083b 0C       		.byte	0xc
 1303 083c 15       		.uleb128 0x15
 1304 083d 72050000 		.4byte	.LASF99
 1305 0841 0D       		.byte	0xd
ARM GAS  /tmp/ccKI1Vjn.s 			page 24


 1306 0842 3205     		.2byte	0x532
 1307 0844 5E000000 		.4byte	0x5e
 1308 0848 0E       		.byte	0xe
 1309 0849 0C       		.uleb128 0xc
 1310 084a 43523200 		.ascii	"CR2\000"
 1311 084e 0D       		.byte	0xd
 1312 084f 3305     		.2byte	0x533
 1313 0851 D0070000 		.4byte	0x7d0
 1314 0855 10       		.byte	0x10
 1315 0856 15       		.uleb128 0x15
 1316 0857 C6040000 		.4byte	.LASF100
 1317 085b 0D       		.byte	0xd
 1318 085c 3405     		.2byte	0x534
 1319 085e 5E000000 		.4byte	0x5e
 1320 0862 12       		.byte	0x12
 1321 0863 0C       		.uleb128 0xc
 1322 0864 43523300 		.ascii	"CR3\000"
 1323 0868 0D       		.byte	0xd
 1324 0869 3505     		.2byte	0x535
 1325 086b D0070000 		.4byte	0x7d0
 1326 086f 14       		.byte	0x14
 1327 0870 15       		.uleb128 0x15
 1328 0871 91050000 		.4byte	.LASF101
 1329 0875 0D       		.byte	0xd
 1330 0876 3605     		.2byte	0x536
 1331 0878 5E000000 		.4byte	0x5e
 1332 087c 16       		.byte	0x16
 1333 087d 15       		.uleb128 0x15
 1334 087e D9000000 		.4byte	.LASF102
 1335 0882 0D       		.byte	0xd
 1336 0883 3705     		.2byte	0x537
 1337 0885 D0070000 		.4byte	0x7d0
 1338 0889 18       		.byte	0x18
 1339 088a 15       		.uleb128 0x15
 1340 088b D8040000 		.4byte	.LASF103
 1341 088f 0D       		.byte	0xd
 1342 0890 3805     		.2byte	0x538
 1343 0892 5E000000 		.4byte	0x5e
 1344 0896 1A       		.byte	0x1a
 1345 0897 00       		.byte	0
 1346 0898 18       		.uleb128 0x18
 1347 0899 96030000 		.4byte	.LASF104
 1348 089d 0D       		.byte	0xd
 1349 089e 3905     		.2byte	0x539
 1350 08a0 DA070000 		.4byte	0x7da
 1351 08a4 11       		.uleb128 0x11
 1352 08a5 EB000000 		.4byte	0xeb
 1353 08a9 BD080000 		.4byte	0x8bd
 1354 08ad 12       		.uleb128 0x12
 1355 08ae 7C020000 		.4byte	0x27c
 1356 08b2 12       		.uleb128 0x12
 1357 08b3 45000000 		.4byte	0x45
 1358 08b7 12       		.uleb128 0x12
 1359 08b8 0C010000 		.4byte	0x10c
 1360 08bc 00       		.byte	0
 1361 08bd 09       		.uleb128 0x9
 1362 08be 04       		.byte	0x4
ARM GAS  /tmp/ccKI1Vjn.s 			page 25


 1363 08bf A4080000 		.4byte	0x8a4
 1364 08c3 11       		.uleb128 0x11
 1365 08c4 EB000000 		.4byte	0xeb
 1366 08c8 D7080000 		.4byte	0x8d7
 1367 08cc 12       		.uleb128 0x12
 1368 08cd 7C020000 		.4byte	0x27c
 1369 08d1 12       		.uleb128 0x12
 1370 08d2 0C010000 		.4byte	0x10c
 1371 08d6 00       		.byte	0
 1372 08d7 09       		.uleb128 0x9
 1373 08d8 04       		.byte	0x4
 1374 08d9 C3080000 		.4byte	0x8c3
 1375 08dd 11       		.uleb128 0x11
 1376 08de 2C000000 		.4byte	0x2c
 1377 08e2 FB080000 		.4byte	0x8fb
 1378 08e6 12       		.uleb128 0x12
 1379 08e7 7C020000 		.4byte	0x27c
 1380 08eb 12       		.uleb128 0x12
 1381 08ec F7050000 		.4byte	0x5f7
 1382 08f0 12       		.uleb128 0x12
 1383 08f1 2C000000 		.4byte	0x2c
 1384 08f5 12       		.uleb128 0x12
 1385 08f6 0C010000 		.4byte	0x10c
 1386 08fa 00       		.byte	0
 1387 08fb 09       		.uleb128 0x9
 1388 08fc 04       		.byte	0x4
 1389 08fd DD080000 		.4byte	0x8dd
 1390 0901 11       		.uleb128 0x11
 1391 0902 2C000000 		.4byte	0x2c
 1392 0906 1F090000 		.4byte	0x91f
 1393 090a 12       		.uleb128 0x12
 1394 090b 7C020000 		.4byte	0x27c
 1395 090f 12       		.uleb128 0x12
 1396 0910 C2050000 		.4byte	0x5c2
 1397 0914 12       		.uleb128 0x12
 1398 0915 2C000000 		.4byte	0x2c
 1399 0919 12       		.uleb128 0x12
 1400 091a 0C010000 		.4byte	0x10c
 1401 091e 00       		.byte	0
 1402 091f 09       		.uleb128 0x9
 1403 0920 04       		.byte	0x4
 1404 0921 01090000 		.4byte	0x901
 1405 0925 19       		.uleb128 0x19
 1406 0926 01       		.byte	0x1
 1407 0927 0E       		.byte	0xe
 1408 0928 64       		.byte	0x64
 1409 0929 40090000 		.4byte	0x940
 1410 092d 1A       		.uleb128 0x1a
 1411 092e 87050000 		.4byte	.LASF105
 1412 0932 00       		.sleb128 0
 1413 0933 1A       		.uleb128 0x1a
 1414 0934 D0040000 		.4byte	.LASF106
 1415 0938 01       		.sleb128 1
 1416 0939 1A       		.uleb128 0x1a
 1417 093a 47060000 		.4byte	.LASF107
 1418 093e 02       		.sleb128 2
 1419 093f 00       		.byte	0
ARM GAS  /tmp/ccKI1Vjn.s 			page 26


 1420 0940 03       		.uleb128 0x3
 1421 0941 A4050000 		.4byte	.LASF108
 1422 0945 0E       		.byte	0xe
 1423 0946 68       		.byte	0x68
 1424 0947 25090000 		.4byte	0x925
 1425 094b 03       		.uleb128 0x3
 1426 094c AE050000 		.4byte	.LASF109
 1427 0950 0E       		.byte	0xe
 1428 0951 6D       		.byte	0x6d
 1429 0952 56090000 		.4byte	0x956
 1430 0956 05       		.uleb128 0x5
 1431 0957 AE050000 		.4byte	.LASF109
 1432 095b 78       		.byte	0x78
 1433 095c 0E       		.byte	0xe
 1434 095d 87       		.byte	0x87
 1435 095e C1090000 		.4byte	0x9c1
 1436 0962 07       		.uleb128 0x7
 1437 0963 766D7400 		.ascii	"vmt\000"
 1438 0967 0E       		.byte	0xe
 1439 0968 89       		.byte	0x89
 1440 0969 720A0000 		.4byte	0xa72
 1441 096d 00       		.byte	0
 1442 096e 06       		.uleb128 0x6
 1443 096f 51030000 		.4byte	.LASF110
 1444 0973 0E       		.byte	0xe
 1445 0974 8A       		.byte	0x8a
 1446 0975 B0040000 		.4byte	0x4b0
 1447 0979 04       		.byte	0x4
 1448 097a 06       		.uleb128 0x6
 1449 097b 16010000 		.4byte	.LASF111
 1450 097f 0E       		.byte	0xe
 1451 0980 8A       		.byte	0x8a
 1452 0981 40090000 		.4byte	0x940
 1453 0985 08       		.byte	0x8
 1454 0986 06       		.uleb128 0x6
 1455 0987 A6060000 		.4byte	.LASF112
 1456 098b 0E       		.byte	0xe
 1457 098c 8A       		.byte	0x8a
 1458 098d C8050000 		.4byte	0x5c8
 1459 0991 0C       		.byte	0xc
 1460 0992 06       		.uleb128 0x6
 1461 0993 6A030000 		.4byte	.LASF113
 1462 0997 0E       		.byte	0xe
 1463 0998 8A       		.byte	0x8a
 1464 0999 D3050000 		.4byte	0x5d3
 1465 099d 30       		.byte	0x30
 1466 099e 07       		.uleb128 0x7
 1467 099f 696200   		.ascii	"ib\000"
 1468 09a2 0E       		.byte	0xe
 1469 09a3 8A       		.byte	0x8a
 1470 09a4 7D0A0000 		.4byte	0xa7d
 1471 09a8 54       		.byte	0x54
 1472 09a9 07       		.uleb128 0x7
 1473 09aa 6F6200   		.ascii	"ob\000"
 1474 09ad 0E       		.byte	0xe
 1475 09ae 8A       		.byte	0x8a
 1476 09af 7D0A0000 		.4byte	0xa7d
ARM GAS  /tmp/ccKI1Vjn.s 			page 27


 1477 09b3 64       		.byte	0x64
 1478 09b4 06       		.uleb128 0x6
 1479 09b5 CE010000 		.4byte	.LASF114
 1480 09b9 0E       		.byte	0xe
 1481 09ba 8A       		.byte	0x8a
 1482 09bb 8D0A0000 		.4byte	0xa8d
 1483 09bf 74       		.byte	0x74
 1484 09c0 00       		.byte	0
 1485 09c1 08       		.uleb128 0x8
 1486 09c2 0C       		.byte	0xc
 1487 09c3 0F       		.byte	0xf
 1488 09c4 D7       		.byte	0xd7
 1489 09c5 FA090000 		.4byte	0x9fa
 1490 09c9 06       		.uleb128 0x6
 1491 09ca DF030000 		.4byte	.LASF115
 1492 09ce 0F       		.byte	0xf
 1493 09cf DB       		.byte	0xdb
 1494 09d0 82000000 		.4byte	0x82
 1495 09d4 00       		.byte	0
 1496 09d5 07       		.uleb128 0x7
 1497 09d6 63723100 		.ascii	"cr1\000"
 1498 09da 0F       		.byte	0xf
 1499 09db E0       		.byte	0xe0
 1500 09dc 5E000000 		.4byte	0x5e
 1501 09e0 04       		.byte	0x4
 1502 09e1 07       		.uleb128 0x7
 1503 09e2 63723200 		.ascii	"cr2\000"
 1504 09e6 0F       		.byte	0xf
 1505 09e7 E4       		.byte	0xe4
 1506 09e8 5E000000 		.4byte	0x5e
 1507 09ec 06       		.byte	0x6
 1508 09ed 07       		.uleb128 0x7
 1509 09ee 63723300 		.ascii	"cr3\000"
 1510 09f2 0F       		.byte	0xf
 1511 09f3 E8       		.byte	0xe8
 1512 09f4 5E000000 		.4byte	0x5e
 1513 09f8 08       		.byte	0x8
 1514 09f9 00       		.byte	0
 1515 09fa 03       		.uleb128 0x3
 1516 09fb 83040000 		.4byte	.LASF116
 1517 09ff 0F       		.byte	0xf
 1518 0a00 E9       		.byte	0xe9
 1519 0a01 C1090000 		.4byte	0x9c1
 1520 0a05 05       		.uleb128 0x5
 1521 0a06 E1010000 		.4byte	.LASF117
 1522 0a0a 20       		.byte	0x20
 1523 0a0b 0E       		.byte	0xe
 1524 0a0c 7C       		.byte	0x7c
 1525 0a0d 720A0000 		.4byte	0xa72
 1526 0a11 06       		.uleb128 0x6
 1527 0a12 1E040000 		.4byte	.LASF118
 1528 0a16 0E       		.byte	0xe
 1529 0a17 7D       		.byte	0x7d
 1530 0a18 02060000 		.4byte	0x602
 1531 0a1c 00       		.byte	0
 1532 0a1d 06       		.uleb128 0x6
 1533 0a1e A1060000 		.4byte	.LASF119
ARM GAS  /tmp/ccKI1Vjn.s 			page 28


 1534 0a22 0E       		.byte	0xe
 1535 0a23 7D       		.byte	0x7d
 1536 0a24 21060000 		.4byte	0x621
 1537 0a28 04       		.byte	0x4
 1538 0a29 07       		.uleb128 0x7
 1539 0a2a 70757400 		.ascii	"put\000"
 1540 0a2e 0E       		.byte	0xe
 1541 0a2f 7D       		.byte	0x7d
 1542 0a30 3B060000 		.4byte	0x63b
 1543 0a34 08       		.byte	0x8
 1544 0a35 07       		.uleb128 0x7
 1545 0a36 67657400 		.ascii	"get\000"
 1546 0a3a 0E       		.byte	0xe
 1547 0a3b 7D       		.byte	0x7d
 1548 0a3c 13050000 		.4byte	0x513
 1549 0a40 0C       		.byte	0xc
 1550 0a41 06       		.uleb128 0x6
 1551 0a42 24040000 		.4byte	.LASF120
 1552 0a46 0E       		.byte	0xe
 1553 0a47 7D       		.byte	0x7d
 1554 0a48 BD080000 		.4byte	0x8bd
 1555 0a4c 10       		.byte	0x10
 1556 0a4d 06       		.uleb128 0x6
 1557 0a4e 37030000 		.4byte	.LASF121
 1558 0a52 0E       		.byte	0xe
 1559 0a53 7D       		.byte	0x7d
 1560 0a54 D7080000 		.4byte	0x8d7
 1561 0a58 14       		.byte	0x14
 1562 0a59 06       		.uleb128 0x6
 1563 0a5a A4030000 		.4byte	.LASF122
 1564 0a5e 0E       		.byte	0xe
 1565 0a5f 7D       		.byte	0x7d
 1566 0a60 FB080000 		.4byte	0x8fb
 1567 0a64 18       		.byte	0x18
 1568 0a65 06       		.uleb128 0x6
 1569 0a66 93000000 		.4byte	.LASF123
 1570 0a6a 0E       		.byte	0xe
 1571 0a6b 7D       		.byte	0x7d
 1572 0a6c 1F090000 		.4byte	0x91f
 1573 0a70 1C       		.byte	0x1c
 1574 0a71 00       		.byte	0
 1575 0a72 09       		.uleb128 0x9
 1576 0a73 04       		.byte	0x4
 1577 0a74 780A0000 		.4byte	0xa78
 1578 0a78 10       		.uleb128 0x10
 1579 0a79 050A0000 		.4byte	0xa05
 1580 0a7d 16       		.uleb128 0x16
 1581 0a7e 45000000 		.4byte	0x45
 1582 0a82 8D0A0000 		.4byte	0xa8d
 1583 0a86 17       		.uleb128 0x17
 1584 0a87 FB030000 		.4byte	0x3fb
 1585 0a8b 0F       		.byte	0xf
 1586 0a8c 00       		.byte	0
 1587 0a8d 09       		.uleb128 0x9
 1588 0a8e 04       		.byte	0x4
 1589 0a8f 98080000 		.4byte	0x898
 1590 0a93 16       		.uleb128 0x16
ARM GAS  /tmp/ccKI1Vjn.s 			page 29


 1591 0a94 7E020000 		.4byte	0x27e
 1592 0a98 A30A0000 		.4byte	0xaa3
 1593 0a9c 17       		.uleb128 0x17
 1594 0a9d FB030000 		.4byte	0x3fb
 1595 0aa1 36       		.byte	0x36
 1596 0aa2 00       		.byte	0
 1597 0aa3 1B       		.uleb128 0x1b
 1598 0aa4 E5030000 		.4byte	.LASF124
 1599 0aa8 02       		.byte	0x2
 1600 0aa9 5501     		.2byte	0x155
 1601 0aab 03       		.byte	0x3
 1602 0aac 1C       		.uleb128 0x1c
 1603 0aad F8050000 		.4byte	.LASF126
 1604 0ab1 01       		.byte	0x1
 1605 0ab2 27       		.byte	0x27
 1606 0ab3 00000000 		.4byte	.LFB120
 1607 0ab7 08000000 		.4byte	.LFE120-.LFB120
 1608 0abb 01       		.uleb128 0x1
 1609 0abc 9C       		.byte	0x9c
 1610 0abd D20A0000 		.4byte	0xad2
 1611 0ac1 1D       		.uleb128 0x1d
 1612 0ac2 08000000 		.4byte	.LVL0
 1613 0ac6 E70C0000 		.4byte	0xce7
 1614 0aca 1E       		.uleb128 0x1e
 1615 0acb 01       		.uleb128 0x1
 1616 0acc 50       		.byte	0x50
 1617 0acd 02       		.uleb128 0x2
 1618 0ace 09       		.byte	0x9
 1619 0acf FF       		.byte	0xff
 1620 0ad0 00       		.byte	0
 1621 0ad1 00       		.byte	0
 1622 0ad2 1B       		.uleb128 0x1b
 1623 0ad3 B6000000 		.4byte	.LASF125
 1624 0ad7 03       		.byte	0x3
 1625 0ad8 5706     		.2byte	0x657
 1626 0ada 03       		.byte	0x3
 1627 0adb 1C       		.uleb128 0x1c
 1628 0adc 9D010000 		.4byte	.LASF127
 1629 0ae0 01       		.byte	0x1
 1630 0ae1 2D       		.byte	0x2d
 1631 0ae2 00000000 		.4byte	.LFB121
 1632 0ae6 2C000000 		.4byte	.LFE121-.LFB121
 1633 0aea 01       		.uleb128 0x1
 1634 0aeb 9C       		.byte	0x9c
 1635 0aec 3B0B0000 		.4byte	0xb3b
 1636 0af0 1F       		.uleb128 0x1f
 1637 0af1 D20A0000 		.4byte	0xad2
 1638 0af5 0C000000 		.4byte	.LBB12
 1639 0af9 20000000 		.4byte	.LBE12-.LBB12
 1640 0afd 01       		.byte	0x1
 1641 0afe 30       		.byte	0x30
 1642 0aff 240B0000 		.4byte	0xb24
 1643 0b03 20       		.uleb128 0x20
 1644 0b04 A30A0000 		.4byte	0xaa3
 1645 0b08 0C000000 		.4byte	.LBB14
 1646 0b0c 04000000 		.4byte	.LBE14-.LBB14
 1647 0b10 03       		.byte	0x3
ARM GAS  /tmp/ccKI1Vjn.s 			page 30


 1648 0b11 5906     		.2byte	0x659
 1649 0b13 20       		.uleb128 0x20
 1650 0b14 A30A0000 		.4byte	0xaa3
 1651 0b18 1E000000 		.4byte	.LBB16
 1652 0b1c 0E000000 		.4byte	.LBE16-.LBB16
 1653 0b20 03       		.byte	0x3
 1654 0b21 5E06     		.2byte	0x65e
 1655 0b23 00       		.byte	0
 1656 0b24 21       		.uleb128 0x21
 1657 0b25 0C000000 		.4byte	.LVL1
 1658 0b29 F90C0000 		.4byte	0xcf9
 1659 0b2d 1E       		.uleb128 0x1e
 1660 0b2e 01       		.uleb128 0x1
 1661 0b2f 51       		.byte	0x51
 1662 0b30 03       		.uleb128 0x3
 1663 0b31 0B       		.byte	0xb
 1664 0b32 CDAB     		.2byte	0xabcd
 1665 0b34 1E       		.uleb128 0x1e
 1666 0b35 01       		.uleb128 0x1
 1667 0b36 50       		.byte	0x50
 1668 0b37 01       		.uleb128 0x1
 1669 0b38 30       		.byte	0x30
 1670 0b39 00       		.byte	0
 1671 0b3a 00       		.byte	0
 1672 0b3b 22       		.uleb128 0x22
 1673 0b3c 29040000 		.4byte	.LASF152
 1674 0b40 01       		.byte	0x1
 1675 0b41 36       		.byte	0x36
 1676 0b42 EB000000 		.4byte	0xeb
 1677 0b46 00000000 		.4byte	.LFB122
 1678 0b4a 18000000 		.4byte	.LFE122-.LFB122
 1679 0b4e 01       		.uleb128 0x1
 1680 0b4f 9C       		.byte	0x9c
 1681 0b50 970B0000 		.4byte	0xb97
 1682 0b54 23       		.uleb128 0x23
 1683 0b55 7000     		.ascii	"p\000"
 1684 0b57 01       		.byte	0x1
 1685 0b58 36       		.byte	0x36
 1686 0b59 7C020000 		.4byte	0x27c
 1687 0b5d 00000000 		.4byte	.LLST0
 1688 0b61 24       		.uleb128 0x24
 1689 0b62 65767400 		.ascii	"evt\000"
 1690 0b66 01       		.byte	0x1
 1691 0b67 39       		.byte	0x39
 1692 0b68 F6000000 		.4byte	0xf6
 1693 0b6c 21000000 		.4byte	.LLST1
 1694 0b70 25       		.uleb128 0x25
 1695 0b71 0A000000 		.4byte	.LVL4
 1696 0b75 130D0000 		.4byte	0xd13
 1697 0b79 840B0000 		.4byte	0xb84
 1698 0b7d 1E       		.uleb128 0x1e
 1699 0b7e 01       		.uleb128 0x1
 1700 0b7f 50       		.byte	0x50
 1701 0b80 02       		.uleb128 0x2
 1702 0b81 09       		.byte	0x9
 1703 0b82 FF       		.byte	0xff
 1704 0b83 00       		.byte	0
ARM GAS  /tmp/ccKI1Vjn.s 			page 31


 1705 0b84 26       		.uleb128 0x26
 1706 0b85 12000000 		.4byte	.LVL6
 1707 0b89 DB0A0000 		.4byte	0xadb
 1708 0b8d 26       		.uleb128 0x26
 1709 0b8e 16000000 		.4byte	.LVL7
 1710 0b92 280D0000 		.4byte	0xd28
 1711 0b96 00       		.byte	0
 1712 0b97 1C       		.uleb128 0x1c
 1713 0b98 DB050000 		.4byte	.LASF128
 1714 0b9c 01       		.byte	0x1
 1715 0b9d 47       		.byte	0x47
 1716 0b9e 00000000 		.4byte	.LFB123
 1717 0ba2 2C000000 		.4byte	.LFE123-.LFB123
 1718 0ba6 01       		.uleb128 0x1
 1719 0ba7 9C       		.byte	0x9c
 1720 0ba8 DC0B0000 		.4byte	0xbdc
 1721 0bac 21       		.uleb128 0x21
 1722 0bad 16000000 		.4byte	.LVL8
 1723 0bb1 2F0D0000 		.4byte	0xd2f
 1724 0bb5 1E       		.uleb128 0x1e
 1725 0bb6 01       		.uleb128 0x1
 1726 0bb7 53       		.byte	0x53
 1727 0bb8 05       		.uleb128 0x5
 1728 0bb9 03       		.byte	0x3
 1729 0bba 00000000 		.4byte	aithon_thread
 1730 0bbe 1E       		.uleb128 0x1e
 1731 0bbf 01       		.uleb128 0x1
 1732 0bc0 52       		.byte	0x52
 1733 0bc1 02       		.uleb128 0x2
 1734 0bc2 08       		.byte	0x8
 1735 0bc3 FF       		.byte	0xff
 1736 0bc4 1E       		.uleb128 0x1e
 1737 0bc5 01       		.uleb128 0x1
 1738 0bc6 51       		.byte	0x51
 1739 0bc7 03       		.uleb128 0x3
 1740 0bc8 0A       		.byte	0xa
 1741 0bc9 B801     		.2byte	0x1b8
 1742 0bcb 1E       		.uleb128 0x1e
 1743 0bcc 01       		.uleb128 0x1
 1744 0bcd 50       		.byte	0x50
 1745 0bce 05       		.uleb128 0x5
 1746 0bcf 03       		.byte	0x3
 1747 0bd0 00000000 		.4byte	.LANCHOR0
 1748 0bd4 1E       		.uleb128 0x1e
 1749 0bd5 02       		.uleb128 0x2
 1750 0bd6 7D       		.byte	0x7d
 1751 0bd7 00       		.sleb128 0
 1752 0bd8 01       		.uleb128 0x1
 1753 0bd9 30       		.byte	0x30
 1754 0bda 00       		.byte	0
 1755 0bdb 00       		.byte	0
 1756 0bdc 1C       		.uleb128 0x1c
 1757 0bdd 4E000000 		.4byte	.LASF129
 1758 0be1 01       		.byte	0x1
 1759 0be2 08       		.byte	0x8
 1760 0be3 00000000 		.4byte	.LFB119
 1761 0be7 58000000 		.4byte	.LFE119-.LFB119
ARM GAS  /tmp/ccKI1Vjn.s 			page 32


 1762 0beb 01       		.uleb128 0x1
 1763 0bec 9C       		.byte	0x9c
 1764 0bed A10C0000 		.4byte	0xca1
 1765 0bf1 26       		.uleb128 0x26
 1766 0bf2 06000000 		.4byte	.LVL9
 1767 0bf6 590D0000 		.4byte	0xd59
 1768 0bfa 26       		.uleb128 0x26
 1769 0bfb 0A000000 		.4byte	.LVL10
 1770 0bff 600D0000 		.4byte	0xd60
 1771 0c03 26       		.uleb128 0x26
 1772 0c04 0E000000 		.4byte	.LVL11
 1773 0c08 670D0000 		.4byte	0xd67
 1774 0c0c 26       		.uleb128 0x26
 1775 0c0d 12000000 		.4byte	.LVL12
 1776 0c11 6E0D0000 		.4byte	0xd6e
 1777 0c15 26       		.uleb128 0x26
 1778 0c16 16000000 		.4byte	.LVL13
 1779 0c1a 750D0000 		.4byte	0xd75
 1780 0c1e 26       		.uleb128 0x26
 1781 0c1f 1A000000 		.4byte	.LVL14
 1782 0c23 7C0D0000 		.4byte	0xd7c
 1783 0c27 26       		.uleb128 0x26
 1784 0c28 1E000000 		.4byte	.LVL15
 1785 0c2c 830D0000 		.4byte	0xd83
 1786 0c30 26       		.uleb128 0x26
 1787 0c31 22000000 		.4byte	.LVL16
 1788 0c35 8A0D0000 		.4byte	0xd8a
 1789 0c39 26       		.uleb128 0x26
 1790 0c3a 26000000 		.4byte	.LVL17
 1791 0c3e 950D0000 		.4byte	0xd95
 1792 0c42 26       		.uleb128 0x26
 1793 0c43 2A000000 		.4byte	.LVL18
 1794 0c47 9C0D0000 		.4byte	0xd9c
 1795 0c4b 25       		.uleb128 0x25
 1796 0c4c 30000000 		.4byte	.LVL19
 1797 0c50 A30D0000 		.4byte	0xda3
 1798 0c54 5E0C0000 		.4byte	0xc5e
 1799 0c58 1E       		.uleb128 0x1e
 1800 0c59 01       		.uleb128 0x1
 1801 0c5a 50       		.byte	0x50
 1802 0c5b 01       		.uleb128 0x1
 1803 0c5c 30       		.byte	0x30
 1804 0c5d 00       		.byte	0
 1805 0c5e 25       		.uleb128 0x25
 1806 0c5f 36000000 		.4byte	.LVL20
 1807 0c63 A30D0000 		.4byte	0xda3
 1808 0c67 710C0000 		.4byte	0xc71
 1809 0c6b 1E       		.uleb128 0x1e
 1810 0c6c 01       		.uleb128 0x1
 1811 0c6d 50       		.byte	0x50
 1812 0c6e 01       		.uleb128 0x1
 1813 0c6f 31       		.byte	0x31
 1814 0c70 00       		.byte	0
 1815 0c71 25       		.uleb128 0x25
 1816 0c72 3E000000 		.4byte	.LVL21
 1817 0c76 B40D0000 		.4byte	0xdb4
 1818 0c7a 840C0000 		.4byte	0xc84
ARM GAS  /tmp/ccKI1Vjn.s 			page 33


 1819 0c7e 1E       		.uleb128 0x1e
 1820 0c7f 01       		.uleb128 0x1
 1821 0c80 51       		.byte	0x51
 1822 0c81 01       		.uleb128 0x1
 1823 0c82 30       		.byte	0x30
 1824 0c83 00       		.byte	0
 1825 0c84 25       		.uleb128 0x25
 1826 0c85 46000000 		.4byte	.LVL22
 1827 0c89 B40D0000 		.4byte	0xdb4
 1828 0c8d 970C0000 		.4byte	0xc97
 1829 0c91 1E       		.uleb128 0x1e
 1830 0c92 01       		.uleb128 0x1
 1831 0c93 51       		.byte	0x51
 1832 0c94 01       		.uleb128 0x1
 1833 0c95 30       		.byte	0x30
 1834 0c96 00       		.byte	0
 1835 0c97 27       		.uleb128 0x27
 1836 0c98 4E000000 		.4byte	.LVL23
 1837 0c9c 970B0000 		.4byte	0xb97
 1838 0ca0 00       		.byte	0
 1839 0ca1 28       		.uleb128 0x28
 1840 0ca2 3C030000 		.4byte	.LASF130
 1841 0ca6 01       		.byte	0x1
 1842 0ca7 35       		.byte	0x35
 1843 0ca8 930A0000 		.4byte	0xa93
 1844 0cac 05       		.uleb128 0x5
 1845 0cad 03       		.byte	0x3
 1846 0cae 00000000 		.4byte	_waAithonThread
 1847 0cb2 29       		.uleb128 0x29
 1848 0cb3 67000000 		.4byte	.LASF131
 1849 0cb7 03       		.byte	0x3
 1850 0cb8 9806     		.2byte	0x698
 1851 0cba D5070000 		.4byte	0x7d5
 1852 0cbe 2A       		.uleb128 0x2a
 1853 0cbf 53443100 		.ascii	"SD1\000"
 1854 0cc3 0F       		.byte	0xf
 1855 0cc4 0F01     		.2byte	0x10f
 1856 0cc6 4B090000 		.4byte	0x94b
 1857 0cca 2A       		.uleb128 0x2a
 1858 0ccb 53443200 		.ascii	"SD2\000"
 1859 0ccf 0F       		.byte	0xf
 1860 0cd0 1201     		.2byte	0x112
 1861 0cd2 4B090000 		.4byte	0x94b
 1862 0cd6 2B       		.uleb128 0x2b
 1863 0cd7 8A030000 		.4byte	.LASF132
 1864 0cdb 01       		.byte	0x1
 1865 0cdc 34       		.byte	0x34
 1866 0cdd 40020000 		.4byte	0x240
 1867 0ce1 05       		.uleb128 0x5
 1868 0ce2 03       		.byte	0x3
 1869 0ce3 00000000 		.4byte	_aithon_thd
 1870 0ce7 2C       		.uleb128 0x2c
 1871 0ce8 78040000 		.4byte	.LASF146
 1872 0cec 08       		.byte	0x8
 1873 0ced 7501     		.2byte	0x175
 1874 0cef F90C0000 		.4byte	0xcf9
 1875 0cf3 12       		.uleb128 0x12
ARM GAS  /tmp/ccKI1Vjn.s 			page 34


 1876 0cf4 0C010000 		.4byte	0x10c
 1877 0cf8 00       		.byte	0
 1878 0cf9 2D       		.uleb128 0x2d
 1879 0cfa BE010000 		.4byte	.LASF133
 1880 0cfe 10       		.byte	0x10
 1881 0cff 23       		.byte	0x23
 1882 0d00 5E000000 		.4byte	0x5e
 1883 0d04 130D0000 		.4byte	0xd13
 1884 0d08 12       		.uleb128 0x12
 1885 0d09 45000000 		.4byte	0x45
 1886 0d0d 12       		.uleb128 0x12
 1887 0d0e 5E000000 		.4byte	0x5e
 1888 0d12 00       		.byte	0
 1889 0d13 2D       		.uleb128 0x2d
 1890 0d14 2E010000 		.4byte	.LASF134
 1891 0d18 0B       		.byte	0xb
 1892 0d19 BE       		.byte	0xbe
 1893 0d1a F6000000 		.4byte	0xf6
 1894 0d1e 280D0000 		.4byte	0xd28
 1895 0d22 12       		.uleb128 0x12
 1896 0d23 F6000000 		.4byte	0xf6
 1897 0d27 00       		.byte	0
 1898 0d28 2E       		.uleb128 0x2e
 1899 0d29 CF030000 		.4byte	.LASF136
 1900 0d2d 10       		.byte	0x10
 1901 0d2e 14       		.byte	0x14
 1902 0d2f 2F       		.uleb128 0x2f
 1903 0d30 0C040000 		.4byte	.LASF135
 1904 0d34 08       		.byte	0x8
 1905 0d35 7001     		.2byte	0x170
 1906 0d37 40020000 		.4byte	0x240
 1907 0d3b 590D0000 		.4byte	0xd59
 1908 0d3f 12       		.uleb128 0x12
 1909 0d40 7C020000 		.4byte	0x27c
 1910 0d44 12       		.uleb128 0x12
 1911 0d45 2C000000 		.4byte	0x2c
 1912 0d49 12       		.uleb128 0x12
 1913 0d4a E0000000 		.4byte	0xe0
 1914 0d4e 12       		.uleb128 0x12
 1915 0d4f 08050000 		.4byte	0x508
 1916 0d53 12       		.uleb128 0x12
 1917 0d54 7C020000 		.4byte	0x27c
 1918 0d58 00       		.byte	0
 1919 0d59 2E       		.uleb128 0x2e
 1920 0d5a 1F030000 		.4byte	.LASF137
 1921 0d5e 11       		.byte	0x11
 1922 0d5f D1       		.byte	0xd1
 1923 0d60 2E       		.uleb128 0x2e
 1924 0d61 CF000000 		.4byte	.LASF138
 1925 0d65 12       		.byte	0x12
 1926 0d66 F6       		.byte	0xf6
 1927 0d67 2E       		.uleb128 0x2e
 1928 0d68 13030000 		.4byte	.LASF139
 1929 0d6c 10       		.byte	0x10
 1930 0d6d 09       		.byte	0x9
 1931 0d6e 2E       		.uleb128 0x2e
 1932 0d6f 74000000 		.4byte	.LASF140
ARM GAS  /tmp/ccKI1Vjn.s 			page 35


 1933 0d73 10       		.byte	0x10
 1934 0d74 0B       		.byte	0xb
 1935 0d75 2E       		.uleb128 0x2e
 1936 0d76 80000000 		.4byte	.LASF141
 1937 0d7a 10       		.byte	0x10
 1938 0d7b 0C       		.byte	0xc
 1939 0d7c 2E       		.uleb128 0x2e
 1940 0d7d 89060000 		.4byte	.LASF142
 1941 0d81 10       		.byte	0x10
 1942 0d82 08       		.byte	0x8
 1943 0d83 2E       		.uleb128 0x2e
 1944 0d84 36050000 		.4byte	.LASF143
 1945 0d88 10       		.byte	0x10
 1946 0d89 0A       		.byte	0xa
 1947 0d8a 30       		.uleb128 0x30
 1948 0d8b BB050000 		.4byte	.LASF153
 1949 0d8f 10       		.byte	0x10
 1950 0d90 10       		.byte	0x10
 1951 0d91 5E000000 		.4byte	0x5e
 1952 0d95 2E       		.uleb128 0x2e
 1953 0d96 D2060000 		.4byte	.LASF144
 1954 0d9a 13       		.byte	0x13
 1955 0d9b 6D       		.byte	0x6d
 1956 0d9c 2E       		.uleb128 0x2e
 1957 0d9d 5F010000 		.4byte	.LASF145
 1958 0da1 10       		.byte	0x10
 1959 0da2 07       		.byte	0x7
 1960 0da3 31       		.uleb128 0x31
 1961 0da4 C7000000 		.4byte	.LASF147
 1962 0da8 13       		.byte	0x13
 1963 0da9 1B       		.byte	0x1b
 1964 0daa B40D0000 		.4byte	0xdb4
 1965 0dae 12       		.uleb128 0x12
 1966 0daf 25000000 		.4byte	0x25
 1967 0db3 00       		.byte	0
 1968 0db4 2C       		.uleb128 0x2c
 1969 0db5 F0050000 		.4byte	.LASF148
 1970 0db9 0E       		.byte	0xe
 1971 0dba 3701     		.2byte	0x137
 1972 0dbc CB0D0000 		.4byte	0xdcb
 1973 0dc0 12       		.uleb128 0x12
 1974 0dc1 CB0D0000 		.4byte	0xdcb
 1975 0dc5 12       		.uleb128 0x12
 1976 0dc6 D10D0000 		.4byte	0xdd1
 1977 0dca 00       		.byte	0
 1978 0dcb 09       		.uleb128 0x9
 1979 0dcc 04       		.byte	0x4
 1980 0dcd 4B090000 		.4byte	0x94b
 1981 0dd1 09       		.uleb128 0x9
 1982 0dd2 04       		.byte	0x4
 1983 0dd3 D70D0000 		.4byte	0xdd7
 1984 0dd7 10       		.uleb128 0x10
 1985 0dd8 FA090000 		.4byte	0x9fa
 1986 0ddc 00       		.byte	0
 1987              		.section	.debug_abbrev,"",%progbits
 1988              	.Ldebug_abbrev0:
 1989 0000 01       		.uleb128 0x1
ARM GAS  /tmp/ccKI1Vjn.s 			page 36


 1990 0001 11       		.uleb128 0x11
 1991 0002 01       		.byte	0x1
 1992 0003 25       		.uleb128 0x25
 1993 0004 0E       		.uleb128 0xe
 1994 0005 13       		.uleb128 0x13
 1995 0006 0B       		.uleb128 0xb
 1996 0007 03       		.uleb128 0x3
 1997 0008 0E       		.uleb128 0xe
 1998 0009 1B       		.uleb128 0x1b
 1999 000a 0E       		.uleb128 0xe
 2000 000b 55       		.uleb128 0x55
 2001 000c 17       		.uleb128 0x17
 2002 000d 11       		.uleb128 0x11
 2003 000e 01       		.uleb128 0x1
 2004 000f 10       		.uleb128 0x10
 2005 0010 17       		.uleb128 0x17
 2006 0011 00       		.byte	0
 2007 0012 00       		.byte	0
 2008 0013 02       		.uleb128 0x2
 2009 0014 24       		.uleb128 0x24
 2010 0015 00       		.byte	0
 2011 0016 0B       		.uleb128 0xb
 2012 0017 0B       		.uleb128 0xb
 2013 0018 3E       		.uleb128 0x3e
 2014 0019 0B       		.uleb128 0xb
 2015 001a 03       		.uleb128 0x3
 2016 001b 08       		.uleb128 0x8
 2017 001c 00       		.byte	0
 2018 001d 00       		.byte	0
 2019 001e 03       		.uleb128 0x3
 2020 001f 16       		.uleb128 0x16
 2021 0020 00       		.byte	0
 2022 0021 03       		.uleb128 0x3
 2023 0022 0E       		.uleb128 0xe
 2024 0023 3A       		.uleb128 0x3a
 2025 0024 0B       		.uleb128 0xb
 2026 0025 3B       		.uleb128 0x3b
 2027 0026 0B       		.uleb128 0xb
 2028 0027 49       		.uleb128 0x49
 2029 0028 13       		.uleb128 0x13
 2030 0029 00       		.byte	0
 2031 002a 00       		.byte	0
 2032 002b 04       		.uleb128 0x4
 2033 002c 24       		.uleb128 0x24
 2034 002d 00       		.byte	0
 2035 002e 0B       		.uleb128 0xb
 2036 002f 0B       		.uleb128 0xb
 2037 0030 3E       		.uleb128 0x3e
 2038 0031 0B       		.uleb128 0xb
 2039 0032 03       		.uleb128 0x3
 2040 0033 0E       		.uleb128 0xe
 2041 0034 00       		.byte	0
 2042 0035 00       		.byte	0
 2043 0036 05       		.uleb128 0x5
 2044 0037 13       		.uleb128 0x13
 2045 0038 01       		.byte	0x1
 2046 0039 03       		.uleb128 0x3
ARM GAS  /tmp/ccKI1Vjn.s 			page 37


 2047 003a 0E       		.uleb128 0xe
 2048 003b 0B       		.uleb128 0xb
 2049 003c 0B       		.uleb128 0xb
 2050 003d 3A       		.uleb128 0x3a
 2051 003e 0B       		.uleb128 0xb
 2052 003f 3B       		.uleb128 0x3b
 2053 0040 0B       		.uleb128 0xb
 2054 0041 01       		.uleb128 0x1
 2055 0042 13       		.uleb128 0x13
 2056 0043 00       		.byte	0
 2057 0044 00       		.byte	0
 2058 0045 06       		.uleb128 0x6
 2059 0046 0D       		.uleb128 0xd
 2060 0047 00       		.byte	0
 2061 0048 03       		.uleb128 0x3
 2062 0049 0E       		.uleb128 0xe
 2063 004a 3A       		.uleb128 0x3a
 2064 004b 0B       		.uleb128 0xb
 2065 004c 3B       		.uleb128 0x3b
 2066 004d 0B       		.uleb128 0xb
 2067 004e 49       		.uleb128 0x49
 2068 004f 13       		.uleb128 0x13
 2069 0050 38       		.uleb128 0x38
 2070 0051 0B       		.uleb128 0xb
 2071 0052 00       		.byte	0
 2072 0053 00       		.byte	0
 2073 0054 07       		.uleb128 0x7
 2074 0055 0D       		.uleb128 0xd
 2075 0056 00       		.byte	0
 2076 0057 03       		.uleb128 0x3
 2077 0058 08       		.uleb128 0x8
 2078 0059 3A       		.uleb128 0x3a
 2079 005a 0B       		.uleb128 0xb
 2080 005b 3B       		.uleb128 0x3b
 2081 005c 0B       		.uleb128 0xb
 2082 005d 49       		.uleb128 0x49
 2083 005e 13       		.uleb128 0x13
 2084 005f 38       		.uleb128 0x38
 2085 0060 0B       		.uleb128 0xb
 2086 0061 00       		.byte	0
 2087 0062 00       		.byte	0
 2088 0063 08       		.uleb128 0x8
 2089 0064 13       		.uleb128 0x13
 2090 0065 01       		.byte	0x1
 2091 0066 0B       		.uleb128 0xb
 2092 0067 0B       		.uleb128 0xb
 2093 0068 3A       		.uleb128 0x3a
 2094 0069 0B       		.uleb128 0xb
 2095 006a 3B       		.uleb128 0x3b
 2096 006b 0B       		.uleb128 0xb
 2097 006c 01       		.uleb128 0x1
 2098 006d 13       		.uleb128 0x13
 2099 006e 00       		.byte	0
 2100 006f 00       		.byte	0
 2101 0070 09       		.uleb128 0x9
 2102 0071 0F       		.uleb128 0xf
 2103 0072 00       		.byte	0
ARM GAS  /tmp/ccKI1Vjn.s 			page 38


 2104 0073 0B       		.uleb128 0xb
 2105 0074 0B       		.uleb128 0xb
 2106 0075 49       		.uleb128 0x49
 2107 0076 13       		.uleb128 0x13
 2108 0077 00       		.byte	0
 2109 0078 00       		.byte	0
 2110 0079 0A       		.uleb128 0xa
 2111 007a 0F       		.uleb128 0xf
 2112 007b 00       		.byte	0
 2113 007c 0B       		.uleb128 0xb
 2114 007d 0B       		.uleb128 0xb
 2115 007e 00       		.byte	0
 2116 007f 00       		.byte	0
 2117 0080 0B       		.uleb128 0xb
 2118 0081 13       		.uleb128 0x13
 2119 0082 01       		.byte	0x1
 2120 0083 03       		.uleb128 0x3
 2121 0084 0E       		.uleb128 0xe
 2122 0085 0B       		.uleb128 0xb
 2123 0086 0B       		.uleb128 0xb
 2124 0087 3A       		.uleb128 0x3a
 2125 0088 0B       		.uleb128 0xb
 2126 0089 3B       		.uleb128 0x3b
 2127 008a 05       		.uleb128 0x5
 2128 008b 01       		.uleb128 0x1
 2129 008c 13       		.uleb128 0x13
 2130 008d 00       		.byte	0
 2131 008e 00       		.byte	0
 2132 008f 0C       		.uleb128 0xc
 2133 0090 0D       		.uleb128 0xd
 2134 0091 00       		.byte	0
 2135 0092 03       		.uleb128 0x3
 2136 0093 08       		.uleb128 0x8
 2137 0094 3A       		.uleb128 0x3a
 2138 0095 0B       		.uleb128 0xb
 2139 0096 3B       		.uleb128 0x3b
 2140 0097 05       		.uleb128 0x5
 2141 0098 49       		.uleb128 0x49
 2142 0099 13       		.uleb128 0x13
 2143 009a 38       		.uleb128 0x38
 2144 009b 0B       		.uleb128 0xb
 2145 009c 00       		.byte	0
 2146 009d 00       		.byte	0
 2147 009e 0D       		.uleb128 0xd
 2148 009f 35       		.uleb128 0x35
 2149 00a0 00       		.byte	0
 2150 00a1 49       		.uleb128 0x49
 2151 00a2 13       		.uleb128 0x13
 2152 00a3 00       		.byte	0
 2153 00a4 00       		.byte	0
 2154 00a5 0E       		.uleb128 0xe
 2155 00a6 17       		.uleb128 0x17
 2156 00a7 01       		.byte	0x1
 2157 00a8 0B       		.uleb128 0xb
 2158 00a9 0B       		.uleb128 0xb
 2159 00aa 3A       		.uleb128 0x3a
 2160 00ab 0B       		.uleb128 0xb
ARM GAS  /tmp/ccKI1Vjn.s 			page 39


 2161 00ac 3B       		.uleb128 0x3b
 2162 00ad 0B       		.uleb128 0xb
 2163 00ae 01       		.uleb128 0x1
 2164 00af 13       		.uleb128 0x13
 2165 00b0 00       		.byte	0
 2166 00b1 00       		.byte	0
 2167 00b2 0F       		.uleb128 0xf
 2168 00b3 0D       		.uleb128 0xd
 2169 00b4 00       		.byte	0
 2170 00b5 03       		.uleb128 0x3
 2171 00b6 0E       		.uleb128 0xe
 2172 00b7 3A       		.uleb128 0x3a
 2173 00b8 0B       		.uleb128 0xb
 2174 00b9 3B       		.uleb128 0x3b
 2175 00ba 0B       		.uleb128 0xb
 2176 00bb 49       		.uleb128 0x49
 2177 00bc 13       		.uleb128 0x13
 2178 00bd 00       		.byte	0
 2179 00be 00       		.byte	0
 2180 00bf 10       		.uleb128 0x10
 2181 00c0 26       		.uleb128 0x26
 2182 00c1 00       		.byte	0
 2183 00c2 49       		.uleb128 0x49
 2184 00c3 13       		.uleb128 0x13
 2185 00c4 00       		.byte	0
 2186 00c5 00       		.byte	0
 2187 00c6 11       		.uleb128 0x11
 2188 00c7 15       		.uleb128 0x15
 2189 00c8 01       		.byte	0x1
 2190 00c9 27       		.uleb128 0x27
 2191 00ca 19       		.uleb128 0x19
 2192 00cb 49       		.uleb128 0x49
 2193 00cc 13       		.uleb128 0x13
 2194 00cd 01       		.uleb128 0x1
 2195 00ce 13       		.uleb128 0x13
 2196 00cf 00       		.byte	0
 2197 00d0 00       		.byte	0
 2198 00d1 12       		.uleb128 0x12
 2199 00d2 05       		.uleb128 0x5
 2200 00d3 00       		.byte	0
 2201 00d4 49       		.uleb128 0x49
 2202 00d5 13       		.uleb128 0x13
 2203 00d6 00       		.byte	0
 2204 00d7 00       		.byte	0
 2205 00d8 13       		.uleb128 0x13
 2206 00d9 15       		.uleb128 0x15
 2207 00da 01       		.byte	0x1
 2208 00db 27       		.uleb128 0x27
 2209 00dc 19       		.uleb128 0x19
 2210 00dd 01       		.uleb128 0x1
 2211 00de 13       		.uleb128 0x13
 2212 00df 00       		.byte	0
 2213 00e0 00       		.byte	0
 2214 00e1 14       		.uleb128 0x14
 2215 00e2 13       		.uleb128 0x13
 2216 00e3 01       		.byte	0x1
 2217 00e4 0B       		.uleb128 0xb
ARM GAS  /tmp/ccKI1Vjn.s 			page 40


 2218 00e5 0B       		.uleb128 0xb
 2219 00e6 3A       		.uleb128 0x3a
 2220 00e7 0B       		.uleb128 0xb
 2221 00e8 3B       		.uleb128 0x3b
 2222 00e9 05       		.uleb128 0x5
 2223 00ea 01       		.uleb128 0x1
 2224 00eb 13       		.uleb128 0x13
 2225 00ec 00       		.byte	0
 2226 00ed 00       		.byte	0
 2227 00ee 15       		.uleb128 0x15
 2228 00ef 0D       		.uleb128 0xd
 2229 00f0 00       		.byte	0
 2230 00f1 03       		.uleb128 0x3
 2231 00f2 0E       		.uleb128 0xe
 2232 00f3 3A       		.uleb128 0x3a
 2233 00f4 0B       		.uleb128 0xb
 2234 00f5 3B       		.uleb128 0x3b
 2235 00f6 05       		.uleb128 0x5
 2236 00f7 49       		.uleb128 0x49
 2237 00f8 13       		.uleb128 0x13
 2238 00f9 38       		.uleb128 0x38
 2239 00fa 0B       		.uleb128 0xb
 2240 00fb 00       		.byte	0
 2241 00fc 00       		.byte	0
 2242 00fd 16       		.uleb128 0x16
 2243 00fe 01       		.uleb128 0x1
 2244 00ff 01       		.byte	0x1
 2245 0100 49       		.uleb128 0x49
 2246 0101 13       		.uleb128 0x13
 2247 0102 01       		.uleb128 0x1
 2248 0103 13       		.uleb128 0x13
 2249 0104 00       		.byte	0
 2250 0105 00       		.byte	0
 2251 0106 17       		.uleb128 0x17
 2252 0107 21       		.uleb128 0x21
 2253 0108 00       		.byte	0
 2254 0109 49       		.uleb128 0x49
 2255 010a 13       		.uleb128 0x13
 2256 010b 2F       		.uleb128 0x2f
 2257 010c 0B       		.uleb128 0xb
 2258 010d 00       		.byte	0
 2259 010e 00       		.byte	0
 2260 010f 18       		.uleb128 0x18
 2261 0110 16       		.uleb128 0x16
 2262 0111 00       		.byte	0
 2263 0112 03       		.uleb128 0x3
 2264 0113 0E       		.uleb128 0xe
 2265 0114 3A       		.uleb128 0x3a
 2266 0115 0B       		.uleb128 0xb
 2267 0116 3B       		.uleb128 0x3b
 2268 0117 05       		.uleb128 0x5
 2269 0118 49       		.uleb128 0x49
 2270 0119 13       		.uleb128 0x13
 2271 011a 00       		.byte	0
 2272 011b 00       		.byte	0
 2273 011c 19       		.uleb128 0x19
 2274 011d 04       		.uleb128 0x4
ARM GAS  /tmp/ccKI1Vjn.s 			page 41


 2275 011e 01       		.byte	0x1
 2276 011f 0B       		.uleb128 0xb
 2277 0120 0B       		.uleb128 0xb
 2278 0121 3A       		.uleb128 0x3a
 2279 0122 0B       		.uleb128 0xb
 2280 0123 3B       		.uleb128 0x3b
 2281 0124 0B       		.uleb128 0xb
 2282 0125 01       		.uleb128 0x1
 2283 0126 13       		.uleb128 0x13
 2284 0127 00       		.byte	0
 2285 0128 00       		.byte	0
 2286 0129 1A       		.uleb128 0x1a
 2287 012a 28       		.uleb128 0x28
 2288 012b 00       		.byte	0
 2289 012c 03       		.uleb128 0x3
 2290 012d 0E       		.uleb128 0xe
 2291 012e 1C       		.uleb128 0x1c
 2292 012f 0D       		.uleb128 0xd
 2293 0130 00       		.byte	0
 2294 0131 00       		.byte	0
 2295 0132 1B       		.uleb128 0x1b
 2296 0133 2E       		.uleb128 0x2e
 2297 0134 00       		.byte	0
 2298 0135 03       		.uleb128 0x3
 2299 0136 0E       		.uleb128 0xe
 2300 0137 3A       		.uleb128 0x3a
 2301 0138 0B       		.uleb128 0xb
 2302 0139 3B       		.uleb128 0x3b
 2303 013a 05       		.uleb128 0x5
 2304 013b 27       		.uleb128 0x27
 2305 013c 19       		.uleb128 0x19
 2306 013d 20       		.uleb128 0x20
 2307 013e 0B       		.uleb128 0xb
 2308 013f 00       		.byte	0
 2309 0140 00       		.byte	0
 2310 0141 1C       		.uleb128 0x1c
 2311 0142 2E       		.uleb128 0x2e
 2312 0143 01       		.byte	0x1
 2313 0144 3F       		.uleb128 0x3f
 2314 0145 19       		.uleb128 0x19
 2315 0146 03       		.uleb128 0x3
 2316 0147 0E       		.uleb128 0xe
 2317 0148 3A       		.uleb128 0x3a
 2318 0149 0B       		.uleb128 0xb
 2319 014a 3B       		.uleb128 0x3b
 2320 014b 0B       		.uleb128 0xb
 2321 014c 27       		.uleb128 0x27
 2322 014d 19       		.uleb128 0x19
 2323 014e 11       		.uleb128 0x11
 2324 014f 01       		.uleb128 0x1
 2325 0150 12       		.uleb128 0x12
 2326 0151 06       		.uleb128 0x6
 2327 0152 40       		.uleb128 0x40
 2328 0153 18       		.uleb128 0x18
 2329 0154 9742     		.uleb128 0x2117
 2330 0156 19       		.uleb128 0x19
 2331 0157 01       		.uleb128 0x1
ARM GAS  /tmp/ccKI1Vjn.s 			page 42


 2332 0158 13       		.uleb128 0x13
 2333 0159 00       		.byte	0
 2334 015a 00       		.byte	0
 2335 015b 1D       		.uleb128 0x1d
 2336 015c 898201   		.uleb128 0x4109
 2337 015f 01       		.byte	0x1
 2338 0160 11       		.uleb128 0x11
 2339 0161 01       		.uleb128 0x1
 2340 0162 9542     		.uleb128 0x2115
 2341 0164 19       		.uleb128 0x19
 2342 0165 31       		.uleb128 0x31
 2343 0166 13       		.uleb128 0x13
 2344 0167 00       		.byte	0
 2345 0168 00       		.byte	0
 2346 0169 1E       		.uleb128 0x1e
 2347 016a 8A8201   		.uleb128 0x410a
 2348 016d 00       		.byte	0
 2349 016e 02       		.uleb128 0x2
 2350 016f 18       		.uleb128 0x18
 2351 0170 9142     		.uleb128 0x2111
 2352 0172 18       		.uleb128 0x18
 2353 0173 00       		.byte	0
 2354 0174 00       		.byte	0
 2355 0175 1F       		.uleb128 0x1f
 2356 0176 1D       		.uleb128 0x1d
 2357 0177 01       		.byte	0x1
 2358 0178 31       		.uleb128 0x31
 2359 0179 13       		.uleb128 0x13
 2360 017a 11       		.uleb128 0x11
 2361 017b 01       		.uleb128 0x1
 2362 017c 12       		.uleb128 0x12
 2363 017d 06       		.uleb128 0x6
 2364 017e 58       		.uleb128 0x58
 2365 017f 0B       		.uleb128 0xb
 2366 0180 59       		.uleb128 0x59
 2367 0181 0B       		.uleb128 0xb
 2368 0182 01       		.uleb128 0x1
 2369 0183 13       		.uleb128 0x13
 2370 0184 00       		.byte	0
 2371 0185 00       		.byte	0
 2372 0186 20       		.uleb128 0x20
 2373 0187 1D       		.uleb128 0x1d
 2374 0188 00       		.byte	0
 2375 0189 31       		.uleb128 0x31
 2376 018a 13       		.uleb128 0x13
 2377 018b 11       		.uleb128 0x11
 2378 018c 01       		.uleb128 0x1
 2379 018d 12       		.uleb128 0x12
 2380 018e 06       		.uleb128 0x6
 2381 018f 58       		.uleb128 0x58
 2382 0190 0B       		.uleb128 0xb
 2383 0191 59       		.uleb128 0x59
 2384 0192 05       		.uleb128 0x5
 2385 0193 00       		.byte	0
 2386 0194 00       		.byte	0
 2387 0195 21       		.uleb128 0x21
 2388 0196 898201   		.uleb128 0x4109
ARM GAS  /tmp/ccKI1Vjn.s 			page 43


 2389 0199 01       		.byte	0x1
 2390 019a 11       		.uleb128 0x11
 2391 019b 01       		.uleb128 0x1
 2392 019c 31       		.uleb128 0x31
 2393 019d 13       		.uleb128 0x13
 2394 019e 00       		.byte	0
 2395 019f 00       		.byte	0
 2396 01a0 22       		.uleb128 0x22
 2397 01a1 2E       		.uleb128 0x2e
 2398 01a2 01       		.byte	0x1
 2399 01a3 03       		.uleb128 0x3
 2400 01a4 0E       		.uleb128 0xe
 2401 01a5 3A       		.uleb128 0x3a
 2402 01a6 0B       		.uleb128 0xb
 2403 01a7 3B       		.uleb128 0x3b
 2404 01a8 0B       		.uleb128 0xb
 2405 01a9 27       		.uleb128 0x27
 2406 01aa 19       		.uleb128 0x19
 2407 01ab 49       		.uleb128 0x49
 2408 01ac 13       		.uleb128 0x13
 2409 01ad 11       		.uleb128 0x11
 2410 01ae 01       		.uleb128 0x1
 2411 01af 12       		.uleb128 0x12
 2412 01b0 06       		.uleb128 0x6
 2413 01b1 40       		.uleb128 0x40
 2414 01b2 18       		.uleb128 0x18
 2415 01b3 9742     		.uleb128 0x2117
 2416 01b5 19       		.uleb128 0x19
 2417 01b6 01       		.uleb128 0x1
 2418 01b7 13       		.uleb128 0x13
 2419 01b8 00       		.byte	0
 2420 01b9 00       		.byte	0
 2421 01ba 23       		.uleb128 0x23
 2422 01bb 05       		.uleb128 0x5
 2423 01bc 00       		.byte	0
 2424 01bd 03       		.uleb128 0x3
 2425 01be 08       		.uleb128 0x8
 2426 01bf 3A       		.uleb128 0x3a
 2427 01c0 0B       		.uleb128 0xb
 2428 01c1 3B       		.uleb128 0x3b
 2429 01c2 0B       		.uleb128 0xb
 2430 01c3 49       		.uleb128 0x49
 2431 01c4 13       		.uleb128 0x13
 2432 01c5 02       		.uleb128 0x2
 2433 01c6 17       		.uleb128 0x17
 2434 01c7 00       		.byte	0
 2435 01c8 00       		.byte	0
 2436 01c9 24       		.uleb128 0x24
 2437 01ca 34       		.uleb128 0x34
 2438 01cb 00       		.byte	0
 2439 01cc 03       		.uleb128 0x3
 2440 01cd 08       		.uleb128 0x8
 2441 01ce 3A       		.uleb128 0x3a
 2442 01cf 0B       		.uleb128 0xb
 2443 01d0 3B       		.uleb128 0x3b
 2444 01d1 0B       		.uleb128 0xb
 2445 01d2 49       		.uleb128 0x49
ARM GAS  /tmp/ccKI1Vjn.s 			page 44


 2446 01d3 13       		.uleb128 0x13
 2447 01d4 02       		.uleb128 0x2
 2448 01d5 17       		.uleb128 0x17
 2449 01d6 00       		.byte	0
 2450 01d7 00       		.byte	0
 2451 01d8 25       		.uleb128 0x25
 2452 01d9 898201   		.uleb128 0x4109
 2453 01dc 01       		.byte	0x1
 2454 01dd 11       		.uleb128 0x11
 2455 01de 01       		.uleb128 0x1
 2456 01df 31       		.uleb128 0x31
 2457 01e0 13       		.uleb128 0x13
 2458 01e1 01       		.uleb128 0x1
 2459 01e2 13       		.uleb128 0x13
 2460 01e3 00       		.byte	0
 2461 01e4 00       		.byte	0
 2462 01e5 26       		.uleb128 0x26
 2463 01e6 898201   		.uleb128 0x4109
 2464 01e9 00       		.byte	0
 2465 01ea 11       		.uleb128 0x11
 2466 01eb 01       		.uleb128 0x1
 2467 01ec 31       		.uleb128 0x31
 2468 01ed 13       		.uleb128 0x13
 2469 01ee 00       		.byte	0
 2470 01ef 00       		.byte	0
 2471 01f0 27       		.uleb128 0x27
 2472 01f1 898201   		.uleb128 0x4109
 2473 01f4 00       		.byte	0
 2474 01f5 11       		.uleb128 0x11
 2475 01f6 01       		.uleb128 0x1
 2476 01f7 9542     		.uleb128 0x2115
 2477 01f9 19       		.uleb128 0x19
 2478 01fa 31       		.uleb128 0x31
 2479 01fb 13       		.uleb128 0x13
 2480 01fc 00       		.byte	0
 2481 01fd 00       		.byte	0
 2482 01fe 28       		.uleb128 0x28
 2483 01ff 34       		.uleb128 0x34
 2484 0200 00       		.byte	0
 2485 0201 03       		.uleb128 0x3
 2486 0202 0E       		.uleb128 0xe
 2487 0203 3A       		.uleb128 0x3a
 2488 0204 0B       		.uleb128 0xb
 2489 0205 3B       		.uleb128 0x3b
 2490 0206 0B       		.uleb128 0xb
 2491 0207 49       		.uleb128 0x49
 2492 0208 13       		.uleb128 0x13
 2493 0209 02       		.uleb128 0x2
 2494 020a 18       		.uleb128 0x18
 2495 020b 00       		.byte	0
 2496 020c 00       		.byte	0
 2497 020d 29       		.uleb128 0x29
 2498 020e 34       		.uleb128 0x34
 2499 020f 00       		.byte	0
 2500 0210 03       		.uleb128 0x3
 2501 0211 0E       		.uleb128 0xe
 2502 0212 3A       		.uleb128 0x3a
ARM GAS  /tmp/ccKI1Vjn.s 			page 45


 2503 0213 0B       		.uleb128 0xb
 2504 0214 3B       		.uleb128 0x3b
 2505 0215 05       		.uleb128 0x5
 2506 0216 49       		.uleb128 0x49
 2507 0217 13       		.uleb128 0x13
 2508 0218 3F       		.uleb128 0x3f
 2509 0219 19       		.uleb128 0x19
 2510 021a 3C       		.uleb128 0x3c
 2511 021b 19       		.uleb128 0x19
 2512 021c 00       		.byte	0
 2513 021d 00       		.byte	0
 2514 021e 2A       		.uleb128 0x2a
 2515 021f 34       		.uleb128 0x34
 2516 0220 00       		.byte	0
 2517 0221 03       		.uleb128 0x3
 2518 0222 08       		.uleb128 0x8
 2519 0223 3A       		.uleb128 0x3a
 2520 0224 0B       		.uleb128 0xb
 2521 0225 3B       		.uleb128 0x3b
 2522 0226 05       		.uleb128 0x5
 2523 0227 49       		.uleb128 0x49
 2524 0228 13       		.uleb128 0x13
 2525 0229 3F       		.uleb128 0x3f
 2526 022a 19       		.uleb128 0x19
 2527 022b 3C       		.uleb128 0x3c
 2528 022c 19       		.uleb128 0x19
 2529 022d 00       		.byte	0
 2530 022e 00       		.byte	0
 2531 022f 2B       		.uleb128 0x2b
 2532 0230 34       		.uleb128 0x34
 2533 0231 00       		.byte	0
 2534 0232 03       		.uleb128 0x3
 2535 0233 0E       		.uleb128 0xe
 2536 0234 3A       		.uleb128 0x3a
 2537 0235 0B       		.uleb128 0xb
 2538 0236 3B       		.uleb128 0x3b
 2539 0237 0B       		.uleb128 0xb
 2540 0238 49       		.uleb128 0x49
 2541 0239 13       		.uleb128 0x13
 2542 023a 3F       		.uleb128 0x3f
 2543 023b 19       		.uleb128 0x19
 2544 023c 02       		.uleb128 0x2
 2545 023d 18       		.uleb128 0x18
 2546 023e 00       		.byte	0
 2547 023f 00       		.byte	0
 2548 0240 2C       		.uleb128 0x2c
 2549 0241 2E       		.uleb128 0x2e
 2550 0242 01       		.byte	0x1
 2551 0243 3F       		.uleb128 0x3f
 2552 0244 19       		.uleb128 0x19
 2553 0245 03       		.uleb128 0x3
 2554 0246 0E       		.uleb128 0xe
 2555 0247 3A       		.uleb128 0x3a
 2556 0248 0B       		.uleb128 0xb
 2557 0249 3B       		.uleb128 0x3b
 2558 024a 05       		.uleb128 0x5
 2559 024b 27       		.uleb128 0x27
ARM GAS  /tmp/ccKI1Vjn.s 			page 46


 2560 024c 19       		.uleb128 0x19
 2561 024d 3C       		.uleb128 0x3c
 2562 024e 19       		.uleb128 0x19
 2563 024f 01       		.uleb128 0x1
 2564 0250 13       		.uleb128 0x13
 2565 0251 00       		.byte	0
 2566 0252 00       		.byte	0
 2567 0253 2D       		.uleb128 0x2d
 2568 0254 2E       		.uleb128 0x2e
 2569 0255 01       		.byte	0x1
 2570 0256 3F       		.uleb128 0x3f
 2571 0257 19       		.uleb128 0x19
 2572 0258 03       		.uleb128 0x3
 2573 0259 0E       		.uleb128 0xe
 2574 025a 3A       		.uleb128 0x3a
 2575 025b 0B       		.uleb128 0xb
 2576 025c 3B       		.uleb128 0x3b
 2577 025d 0B       		.uleb128 0xb
 2578 025e 27       		.uleb128 0x27
 2579 025f 19       		.uleb128 0x19
 2580 0260 49       		.uleb128 0x49
 2581 0261 13       		.uleb128 0x13
 2582 0262 3C       		.uleb128 0x3c
 2583 0263 19       		.uleb128 0x19
 2584 0264 01       		.uleb128 0x1
 2585 0265 13       		.uleb128 0x13
 2586 0266 00       		.byte	0
 2587 0267 00       		.byte	0
 2588 0268 2E       		.uleb128 0x2e
 2589 0269 2E       		.uleb128 0x2e
 2590 026a 00       		.byte	0
 2591 026b 3F       		.uleb128 0x3f
 2592 026c 19       		.uleb128 0x19
 2593 026d 03       		.uleb128 0x3
 2594 026e 0E       		.uleb128 0xe
 2595 026f 3A       		.uleb128 0x3a
 2596 0270 0B       		.uleb128 0xb
 2597 0271 3B       		.uleb128 0x3b
 2598 0272 0B       		.uleb128 0xb
 2599 0273 27       		.uleb128 0x27
 2600 0274 19       		.uleb128 0x19
 2601 0275 3C       		.uleb128 0x3c
 2602 0276 19       		.uleb128 0x19
 2603 0277 00       		.byte	0
 2604 0278 00       		.byte	0
 2605 0279 2F       		.uleb128 0x2f
 2606 027a 2E       		.uleb128 0x2e
 2607 027b 01       		.byte	0x1
 2608 027c 3F       		.uleb128 0x3f
 2609 027d 19       		.uleb128 0x19
 2610 027e 03       		.uleb128 0x3
 2611 027f 0E       		.uleb128 0xe
 2612 0280 3A       		.uleb128 0x3a
 2613 0281 0B       		.uleb128 0xb
 2614 0282 3B       		.uleb128 0x3b
 2615 0283 05       		.uleb128 0x5
 2616 0284 27       		.uleb128 0x27
ARM GAS  /tmp/ccKI1Vjn.s 			page 47


 2617 0285 19       		.uleb128 0x19
 2618 0286 49       		.uleb128 0x49
 2619 0287 13       		.uleb128 0x13
 2620 0288 3C       		.uleb128 0x3c
 2621 0289 19       		.uleb128 0x19
 2622 028a 01       		.uleb128 0x1
 2623 028b 13       		.uleb128 0x13
 2624 028c 00       		.byte	0
 2625 028d 00       		.byte	0
 2626 028e 30       		.uleb128 0x30
 2627 028f 2E       		.uleb128 0x2e
 2628 0290 00       		.byte	0
 2629 0291 3F       		.uleb128 0x3f
 2630 0292 19       		.uleb128 0x19
 2631 0293 03       		.uleb128 0x3
 2632 0294 0E       		.uleb128 0xe
 2633 0295 3A       		.uleb128 0x3a
 2634 0296 0B       		.uleb128 0xb
 2635 0297 3B       		.uleb128 0x3b
 2636 0298 0B       		.uleb128 0xb
 2637 0299 27       		.uleb128 0x27
 2638 029a 19       		.uleb128 0x19
 2639 029b 49       		.uleb128 0x49
 2640 029c 13       		.uleb128 0x13
 2641 029d 3C       		.uleb128 0x3c
 2642 029e 19       		.uleb128 0x19
 2643 029f 00       		.byte	0
 2644 02a0 00       		.byte	0
 2645 02a1 31       		.uleb128 0x31
 2646 02a2 2E       		.uleb128 0x2e
 2647 02a3 01       		.byte	0x1
 2648 02a4 3F       		.uleb128 0x3f
 2649 02a5 19       		.uleb128 0x19
 2650 02a6 03       		.uleb128 0x3
 2651 02a7 0E       		.uleb128 0xe
 2652 02a8 3A       		.uleb128 0x3a
 2653 02a9 0B       		.uleb128 0xb
 2654 02aa 3B       		.uleb128 0x3b
 2655 02ab 0B       		.uleb128 0xb
 2656 02ac 27       		.uleb128 0x27
 2657 02ad 19       		.uleb128 0x19
 2658 02ae 3C       		.uleb128 0x3c
 2659 02af 19       		.uleb128 0x19
 2660 02b0 01       		.uleb128 0x1
 2661 02b1 13       		.uleb128 0x13
 2662 02b2 00       		.byte	0
 2663 02b3 00       		.byte	0
 2664 02b4 00       		.byte	0
 2665              		.section	.debug_loc,"",%progbits
 2666              	.Ldebug_loc0:
 2667              	.LLST0:
 2668 0000 00000000 		.4byte	.LVL2
 2669 0004 06000000 		.4byte	.LVL3
 2670 0008 0100     		.2byte	0x1
 2671 000a 50       		.byte	0x50
 2672 000b 06000000 		.4byte	.LVL3
 2673 000f 18000000 		.4byte	.LFE122
ARM GAS  /tmp/ccKI1Vjn.s 			page 48


 2674 0013 0400     		.2byte	0x4
 2675 0015 F3       		.byte	0xf3
 2676 0016 01       		.uleb128 0x1
 2677 0017 50       		.byte	0x50
 2678 0018 9F       		.byte	0x9f
 2679 0019 00000000 		.4byte	0
 2680 001d 00000000 		.4byte	0
 2681              	.LLST1:
 2682 0021 0A000000 		.4byte	.LVL4
 2683 0025 0E000000 		.4byte	.LVL5
 2684 0029 0100     		.2byte	0x1
 2685 002b 50       		.byte	0x50
 2686 002c 12000000 		.4byte	.LVL6
 2687 0030 15000000 		.4byte	.LVL7-1
 2688 0034 0100     		.2byte	0x1
 2689 0036 50       		.byte	0x50
 2690 0037 00000000 		.4byte	0
 2691 003b 00000000 		.4byte	0
 2692              		.section	.debug_aranges,"",%progbits
 2693 0000 3C000000 		.4byte	0x3c
 2694 0004 0200     		.2byte	0x2
 2695 0006 00000000 		.4byte	.Ldebug_info0
 2696 000a 04       		.byte	0x4
 2697 000b 00       		.byte	0
 2698 000c 0000     		.2byte	0
 2699 000e 0000     		.2byte	0
 2700 0010 00000000 		.4byte	.LFB120
 2701 0014 08000000 		.4byte	.LFE120-.LFB120
 2702 0018 00000000 		.4byte	.LFB121
 2703 001c 2C000000 		.4byte	.LFE121-.LFB121
 2704 0020 00000000 		.4byte	.LFB122
 2705 0024 18000000 		.4byte	.LFE122-.LFB122
 2706 0028 00000000 		.4byte	.LFB123
 2707 002c 2C000000 		.4byte	.LFE123-.LFB123
 2708 0030 00000000 		.4byte	.LFB119
 2709 0034 58000000 		.4byte	.LFE119-.LFB119
 2710 0038 00000000 		.4byte	0
 2711 003c 00000000 		.4byte	0
 2712              		.section	.debug_ranges,"",%progbits
 2713              	.Ldebug_ranges0:
 2714 0000 00000000 		.4byte	.LFB120
 2715 0004 08000000 		.4byte	.LFE120
 2716 0008 00000000 		.4byte	.LFB121
 2717 000c 2C000000 		.4byte	.LFE121
 2718 0010 00000000 		.4byte	.LFB122
 2719 0014 18000000 		.4byte	.LFE122
 2720 0018 00000000 		.4byte	.LFB123
 2721 001c 2C000000 		.4byte	.LFE123
 2722 0020 00000000 		.4byte	.LFB119
 2723 0024 58000000 		.4byte	.LFE119
 2724 0028 00000000 		.4byte	0
 2725 002c 00000000 		.4byte	0
 2726              		.section	.debug_line,"",%progbits
 2727              	.Ldebug_line0:
 2728 0000 1C030000 		.section	.debug_str,"MS",%progbits,1
 2728      02009D02 
 2728      00000201 
ARM GAS  /tmp/ccKI1Vjn.s 			page 49


 2728      FB0E0D00 
 2728      01010101 
 2729              	.LASF68:
 2730 0000 7466756E 		.ascii	"tfunc_t\000"
 2730      635F7400 
 2731              	.LASF151:
 2732 0008 2F686F6D 		.ascii	"/home/brian/aithon/ProjectTemplate\000"
 2732      652F6272 
 2732      69616E2F 
 2732      61697468 
 2732      6F6E2F50 
 2733              	.LASF2:
 2734 002b 73697A65 		.ascii	"size_t\000"
 2734      5F7400
 2735              	.LASF63:
 2736 0032 7264796D 		.ascii	"rdymsg\000"
 2736      736700
 2737              	.LASF13:
 2738 0039 75696E74 		.ascii	"uint64_t\000"
 2738      36345F74 
 2738      00
 2739              	.LASF80:
 2740 0042 4F757470 		.ascii	"OutputQueue\000"
 2740      75745175 
 2740      65756500 
 2741              	.LASF129:
 2742 004e 5F5F6C61 		.ascii	"__late_init\000"
 2742      74655F69 
 2742      6E697400 
 2743              	.LASF45:
 2744 005a 54687265 		.ascii	"ThreadsQueue\000"
 2744      61647351 
 2744      75657565 
 2744      00
 2745              	.LASF131:
 2746 0067 49544D5F 		.ascii	"ITM_RxBuffer\000"
 2746      52784275 
 2746      66666572 
 2746      00
 2747              	.LASF140:
 2748 0074 5F736572 		.ascii	"_servo_init\000"
 2748      766F5F69 
 2748      6E697400 
 2749              	.LASF141:
 2750 0080 5F6D7573 		.ascii	"_music_init\000"
 2750      69635F69 
 2750      6E697400 
 2751              	.LASF28:
 2752 008c 705F7072 		.ascii	"p_prio\000"
 2752      696F00
 2753              	.LASF123:
 2754 0093 72656164 		.ascii	"readt\000"
 2754      7400
 2755              	.LASF70:
 2756 0099 715F7761 		.ascii	"q_waiting\000"
 2756      6974696E 
 2756      6700
ARM GAS  /tmp/ccKI1Vjn.s 			page 50


 2757              	.LASF93:
 2758 00a3 49534152 		.ascii	"ISAR\000"
 2758      00
 2759              	.LASF12:
 2760 00a8 6C6F6E67 		.ascii	"long long int\000"
 2760      206C6F6E 
 2760      6720696E 
 2760      7400
 2761              	.LASF125:
 2762 00b6 4E564943 		.ascii	"NVIC_SystemReset\000"
 2762      5F537973 
 2762      74656D52 
 2762      65736574 
 2762      00
 2763              	.LASF147:
 2764 00c7 6C65645F 		.ascii	"led_off\000"
 2764      6F666600 
 2765              	.LASF138:
 2766 00cf 63685379 		.ascii	"chSysInit\000"
 2766      73496E69 
 2766      7400
 2767              	.LASF102:
 2768 00d9 47545052 		.ascii	"GTPR\000"
 2768      00
 2769              	.LASF44:
 2770 00de 705F6D70 		.ascii	"p_mpool\000"
 2770      6F6F6C00 
 2771              	.LASF14:
 2772 00e6 6C6F6E67 		.ascii	"long long unsigned int\000"
 2772      206C6F6E 
 2772      6720756E 
 2772      7369676E 
 2772      65642069 
 2773              	.LASF53:
 2774 00fd 6D5F7175 		.ascii	"m_queue\000"
 2774      65756500 
 2775              	.LASF65:
 2776 0105 77746F62 		.ascii	"wtobjp\000"
 2776      6A7000
 2777              	.LASF19:
 2778 010c 74736C69 		.ascii	"tslices_t\000"
 2778      6365735F 
 2778      7400
 2779              	.LASF111:
 2780 0116 73746174 		.ascii	"state\000"
 2780      6500
 2781              	.LASF9:
 2782 011c 6C6F6E67 		.ascii	"long int\000"
 2782      20696E74 
 2782      00
 2783              	.LASF17:
 2784 0125 74737461 		.ascii	"tstate_t\000"
 2784      74655F74 
 2784      00
 2785              	.LASF134:
 2786 012e 63684576 		.ascii	"chEvtWaitAny\000"
 2786      74576169 
ARM GAS  /tmp/ccKI1Vjn.s 			page 51


 2786      74416E79 
 2786      00
 2787              	.LASF6:
 2788 013b 75696E74 		.ascii	"uint16_t\000"
 2788      31365F74 
 2788      00
 2789              	.LASF30:
 2790 0144 705F6E65 		.ascii	"p_newer\000"
 2790      77657200 
 2791              	.LASF90:
 2792 014c 42464152 		.ascii	"BFAR\000"
 2792      00
 2793              	.LASF64:
 2794 0151 65786974 		.ascii	"exitcode\000"
 2794      636F6465 
 2794      00
 2795              	.LASF91:
 2796 015a 41465352 		.ascii	"AFSR\000"
 2796      00
 2797              	.LASF145:
 2798 015f 5F6C6364 		.ascii	"_lcd_init\000"
 2798      5F696E69 
 2798      7400
 2799              	.LASF47:
 2800 0169 72656761 		.ascii	"regarm_t\000"
 2800      726D5F74 
 2800      00
 2801              	.LASF96:
 2802 0172 5343425F 		.ascii	"SCB_Type\000"
 2802      54797065 
 2802      00
 2803              	.LASF150:
 2804 017b 2E2E2F41 		.ascii	"../AithonLibrary/aithon_private.c\000"
 2804      6974686F 
 2804      6E4C6962 
 2804      72617279 
 2804      2F616974 
 2805              	.LASF127:
 2806 019d 5F726573 		.ascii	"_reset_to_bootloader\000"
 2806      65745F74 
 2806      6F5F626F 
 2806      6F746C6F 
 2806      61646572 
 2807              	.LASF61:
 2808 01b2 4576656E 		.ascii	"EventSource\000"
 2808      74536F75 
 2808      72636500 
 2809              	.LASF133:
 2810 01be 5F65655F 		.ascii	"_ee_putReserved\000"
 2810      70757452 
 2810      65736572 
 2810      76656400 
 2811              	.LASF114:
 2812 01ce 75736172 		.ascii	"usart\000"
 2812      7400
 2813              	.LASF0:
 2814 01d4 756E7369 		.ascii	"unsigned int\000"
ARM GAS  /tmp/ccKI1Vjn.s 			page 52


 2814      676E6564 
 2814      20696E74 
 2814      00
 2815              	.LASF117:
 2816 01e1 53657269 		.ascii	"SerialDriverVMT\000"
 2816      616C4472 
 2816      69766572 
 2816      564D5400 
 2817              	.LASF37:
 2818 01f1 705F7469 		.ascii	"p_time\000"
 2818      6D6500
 2819              	.LASF149:
 2820 01f8 474E5520 		.ascii	"GNU C 4.8.3 20131129 (release) [ARM/embedded-4_8-br"
 2820      4320342E 
 2820      382E3320 
 2820      32303133 
 2820      31313239 
 2821 022b 616E6368 		.ascii	"anch revision 205641] -mcpu=cortex-m4 -mfloat-abi=s"
 2821      20726576 
 2821      6973696F 
 2821      6E203230 
 2821      35363431 
 2822 025e 6F667466 		.ascii	"oftfp -mfpu=fpv4-sp-d16 -mno-thumb-interwork -mthum"
 2822      70202D6D 
 2822      6670753D 
 2822      66707634 
 2822      2D73702D 
 2823 0291 62202D67 		.ascii	"b -ggdb -O2 -fomit-frame-pointer -falign-functions="
 2823      67646220 
 2823      2D4F3220 
 2823      2D666F6D 
 2823      69742D66 
 2824 02c4 3136202D 		.ascii	"16 -fsingle-precision-constant -ffunction-sections "
 2824      6673696E 
 2824      676C652D 
 2824      70726563 
 2824      6973696F 
 2825 02f7 2D666461 		.ascii	"-fdata-sections -fno-common\000"
 2825      74612D73 
 2825      65637469 
 2825      6F6E7320 
 2825      2D666E6F 
 2826              	.LASF139:
 2827 0313 5F6D6F74 		.ascii	"_motor_init\000"
 2827      6F725F69 
 2827      6E697400 
 2828              	.LASF137:
 2829 031f 68616C49 		.ascii	"halInit\000"
 2829      6E697400 
 2830              	.LASF60:
 2831 0327 656C5F66 		.ascii	"el_flags\000"
 2831      6C616773 
 2831      00
 2832              	.LASF77:
 2833 0330 715F6C69 		.ascii	"q_link\000"
 2833      6E6B00
 2834              	.LASF121:
ARM GAS  /tmp/ccKI1Vjn.s 			page 53


 2835 0337 67657474 		.ascii	"gett\000"
 2835      00
 2836              	.LASF130:
 2837 033c 5F776141 		.ascii	"_waAithonThread\000"
 2837      6974686F 
 2837      6E546872 
 2837      65616400 
 2838              	.LASF83:
 2839 034c 56544F52 		.ascii	"VTOR\000"
 2839      00
 2840              	.LASF110:
 2841 0351 6576656E 		.ascii	"event\000"
 2841      7400
 2842              	.LASF50:
 2843 0357 636F6E74 		.ascii	"context\000"
 2843      65787400 
 2844              	.LASF82:
 2845 035f 49435352 		.ascii	"ICSR\000"
 2845      00
 2846              	.LASF21:
 2847 0364 6D73675F 		.ascii	"msg_t\000"
 2847      7400
 2848              	.LASF113:
 2849 036a 6F717565 		.ascii	"oqueue\000"
 2849      756500
 2850              	.LASF88:
 2851 0371 44465352 		.ascii	"DFSR\000"
 2851      00
 2852              	.LASF84:
 2853 0376 41495243 		.ascii	"AIRCR\000"
 2853      5200
 2854              	.LASF57:
 2855 037c 656C5F6E 		.ascii	"el_next\000"
 2855      65787400 
 2856              	.LASF89:
 2857 0384 4D4D4641 		.ascii	"MMFAR\000"
 2857      5200
 2858              	.LASF132:
 2859 038a 5F616974 		.ascii	"_aithon_thd\000"
 2859      686F6E5F 
 2859      74686400 
 2860              	.LASF104:
 2861 0396 55534152 		.ascii	"USART_TypeDef\000"
 2861      545F5479 
 2861      70654465 
 2861      6600
 2862              	.LASF122:
 2863 03a4 77726974 		.ascii	"writet\000"
 2863      657400
 2864              	.LASF16:
 2865 03ab 746D6F64 		.ascii	"tmode_t\000"
 2865      655F7400 
 2866              	.LASF46:
 2867 03b3 54687265 		.ascii	"ThreadsList\000"
 2867      6164734C 
 2867      69737400 
 2868              	.LASF92:
ARM GAS  /tmp/ccKI1Vjn.s 			page 54


 2869 03bf 4D4D4652 		.ascii	"MMFR\000"
 2869      00
 2870              	.LASF79:
 2871 03c4 496E7075 		.ascii	"InputQueue\000"
 2871      74517565 
 2871      756500
 2872              	.LASF136:
 2873 03cf 5F757362 		.ascii	"_usb_stop\000"
 2873      5F73746F 
 2873      7000
 2874              	.LASF52:
 2875 03d9 4D757465 		.ascii	"Mutex\000"
 2875      7800
 2876              	.LASF115:
 2877 03df 73706565 		.ascii	"speed\000"
 2877      6400
 2878              	.LASF124:
 2879 03e5 5F5F4453 		.ascii	"__DSB\000"
 2879      4200
 2880              	.LASF69:
 2881 03eb 47656E65 		.ascii	"GenericQueue\000"
 2881      72696351 
 2881      75657565 
 2881      00
 2882              	.LASF48:
 2883 03f8 73746B61 		.ascii	"stkalign_t\000"
 2883      6C69676E 
 2883      5F7400
 2884              	.LASF72:
 2885 0403 715F6275 		.ascii	"q_buffer\000"
 2885      66666572 
 2885      00
 2886              	.LASF135:
 2887 040c 63685468 		.ascii	"chThdCreateStatic\000"
 2887      64437265 
 2887      61746553 
 2887      74617469 
 2887      6300
 2888              	.LASF118:
 2889 041e 77726974 		.ascii	"write\000"
 2889      6500
 2890              	.LASF120:
 2891 0424 70757474 		.ascii	"putt\000"
 2891      00
 2892              	.LASF152:
 2893 0429 61697468 		.ascii	"aithon_thread\000"
 2893      6F6E5F74 
 2893      68726561 
 2893      6400
 2894              	.LASF27:
 2895 0437 705F7072 		.ascii	"p_prev\000"
 2895      657600
 2896              	.LASF51:
 2897 043e 73697A65 		.ascii	"sizetype\000"
 2897      74797065 
 2897      00
 2898              	.LASF71:
ARM GAS  /tmp/ccKI1Vjn.s 			page 55


 2899 0447 715F636F 		.ascii	"q_counter\000"
 2899      756E7465 
 2899      7200
 2900              	.LASF86:
 2901 0451 43465352 		.ascii	"CFSR\000"
 2901      00
 2902              	.LASF31:
 2903 0456 705F6F6C 		.ascii	"p_older\000"
 2903      64657200 
 2904              	.LASF74:
 2905 045e 715F7772 		.ascii	"q_wrptr\000"
 2905      70747200 
 2906              	.LASF5:
 2907 0466 73686F72 		.ascii	"short int\000"
 2907      7420696E 
 2907      7400
 2908              	.LASF59:
 2909 0470 656C5F6D 		.ascii	"el_mask\000"
 2909      61736B00 
 2910              	.LASF146:
 2911 0478 63685468 		.ascii	"chThdSleep\000"
 2911      64536C65 
 2911      657000
 2912              	.LASF116:
 2913 0483 53657269 		.ascii	"SerialConfig\000"
 2913      616C436F 
 2913      6E666967 
 2913      00
 2914              	.LASF81:
 2915 0490 43505549 		.ascii	"CPUID\000"
 2915      4400
 2916              	.LASF18:
 2917 0496 74726566 		.ascii	"trefs_t\000"
 2917      735F7400 
 2918              	.LASF94:
 2919 049e 52455345 		.ascii	"RESERVED0\000"
 2919      52564544 
 2919      3000
 2920              	.LASF97:
 2921 04a8 52455345 		.ascii	"RESERVED1\000"
 2921      52564544 
 2921      3100
 2922              	.LASF98:
 2923 04b2 52455345 		.ascii	"RESERVED2\000"
 2923      52564544 
 2923      3200
 2924              	.LASF78:
 2925 04bc 716E6F74 		.ascii	"qnotify_t\000"
 2925      6966795F 
 2925      7400
 2926              	.LASF100:
 2927 04c6 52455345 		.ascii	"RESERVED4\000"
 2927      52564544 
 2927      3400
 2928              	.LASF106:
 2929 04d0 53445F53 		.ascii	"SD_STOP\000"
 2929      544F5000 
ARM GAS  /tmp/ccKI1Vjn.s 			page 56


 2930              	.LASF103:
 2931 04d8 52455345 		.ascii	"RESERVED6\000"
 2931      52564544 
 2931      3600
 2932              	.LASF20:
 2933 04e2 74707269 		.ascii	"tprio_t\000"
 2933      6F5F7400 
 2934              	.LASF75:
 2935 04ea 715F7264 		.ascii	"q_rdptr\000"
 2935      70747200 
 2936              	.LASF15:
 2937 04f2 5F426F6F 		.ascii	"_Bool\000"
 2937      6C00
 2938              	.LASF8:
 2939 04f8 696E7433 		.ascii	"int32_t\000"
 2939      325F7400 
 2940              	.LASF4:
 2941 0500 756E7369 		.ascii	"unsigned char\000"
 2941      676E6564 
 2941      20636861 
 2941      7200
 2942              	.LASF85:
 2943 050e 53484353 		.ascii	"SHCSR\000"
 2943      5200
 2944              	.LASF58:
 2945 0514 656C5F6C 		.ascii	"el_listener\000"
 2945      69737465 
 2945      6E657200 
 2946              	.LASF22:
 2947 0520 6576656E 		.ascii	"eventmask_t\000"
 2947      746D6173 
 2947      6B5F7400 
 2948              	.LASF42:
 2949 052c 705F6D74 		.ascii	"p_mtxlist\000"
 2949      786C6973 
 2949      7400
 2950              	.LASF143:
 2951 0536 5F616E61 		.ascii	"_analog_init\000"
 2951      6C6F675F 
 2951      696E6974 
 2951      00
 2952              	.LASF33:
 2953 0543 705F7374 		.ascii	"p_state\000"
 2953      61746500 
 2954              	.LASF36:
 2955 054b 705F7072 		.ascii	"p_preempt\000"
 2955      65656D70 
 2955      7400
 2956              	.LASF66:
 2957 0555 65776D61 		.ascii	"ewmask\000"
 2957      736B00
 2958              	.LASF26:
 2959 055c 705F6E65 		.ascii	"p_next\000"
 2959      787400
 2960              	.LASF34:
 2961 0563 705F666C 		.ascii	"p_flags\000"
 2961      61677300 
ARM GAS  /tmp/ccKI1Vjn.s 			page 57


 2962              	.LASF25:
 2963 056b 54687265 		.ascii	"Thread\000"
 2963      616400
 2964              	.LASF99:
 2965 0572 52455345 		.ascii	"RESERVED3\000"
 2965      52564544 
 2965      3300
 2966              	.LASF41:
 2967 057c 705F6570 		.ascii	"p_epending\000"
 2967      656E6469 
 2967      6E6700
 2968              	.LASF105:
 2969 0587 53445F55 		.ascii	"SD_UNINIT\000"
 2969      4E494E49 
 2969      5400
 2970              	.LASF101:
 2971 0591 52455345 		.ascii	"RESERVED5\000"
 2971      52564544 
 2971      3500
 2972              	.LASF10:
 2973 059b 75696E74 		.ascii	"uint32_t\000"
 2973      33325F74 
 2973      00
 2974              	.LASF108:
 2975 05a4 73647374 		.ascii	"sdstate_t\000"
 2975      6174655F 
 2975      7400
 2976              	.LASF109:
 2977 05ae 53657269 		.ascii	"SerialDriver\000"
 2977      616C4472 
 2977      69766572 
 2977      00
 2978              	.LASF153:
 2979 05bb 5F65655F 		.ascii	"_ee_init\000"
 2979      696E6974 
 2979      00
 2980              	.LASF11:
 2981 05c4 6C6F6E67 		.ascii	"long unsigned int\000"
 2981      20756E73 
 2981      69676E65 
 2981      6420696E 
 2981      7400
 2982              	.LASF67:
 2983 05d6 63686172 		.ascii	"char\000"
 2983      00
 2984              	.LASF128:
 2985 05db 5F616974 		.ascii	"_aithon_private_init\000"
 2985      686F6E5F 
 2985      70726976 
 2985      6174655F 
 2985      696E6974 
 2986              	.LASF148:
 2987 05f0 73645374 		.ascii	"sdStart\000"
 2987      61727400 
 2988              	.LASF126:
 2989 05f8 5F646566 		.ascii	"_default_exit\000"
 2989      61756C74 
ARM GAS  /tmp/ccKI1Vjn.s 			page 58


 2989      5F657869 
 2989      7400
 2990              	.LASF55:
 2991 0606 6D5F6E65 		.ascii	"m_next\000"
 2991      787400
 2992              	.LASF24:
 2993 060d 73797374 		.ascii	"systime_t\000"
 2993      696D655F 
 2993      7400
 2994              	.LASF43:
 2995 0617 705F7265 		.ascii	"p_realprio\000"
 2995      616C7072 
 2995      696F00
 2996              	.LASF7:
 2997 0622 73686F72 		.ascii	"short unsigned int\000"
 2997      7420756E 
 2997      7369676E 
 2997      65642069 
 2997      6E7400
 2998              	.LASF49:
 2999 0635 696E7463 		.ascii	"intctx\000"
 2999      747800
 3000              	.LASF39:
 3001 063c 705F6D73 		.ascii	"p_msgqueue\000"
 3001      67717565 
 3001      756500
 3002              	.LASF107:
 3003 0647 53445F52 		.ascii	"SD_READY\000"
 3003      45414459 
 3003      00
 3004              	.LASF23:
 3005 0650 666C6167 		.ascii	"flagsmask_t\000"
 3005      736D6173 
 3005      6B5F7400 
 3006              	.LASF73:
 3007 065c 715F746F 		.ascii	"q_top\000"
 3007      7000
 3008              	.LASF32:
 3009 0662 705F6E61 		.ascii	"p_name\000"
 3009      6D6500
 3010              	.LASF35:
 3011 0669 705F7265 		.ascii	"p_refs\000"
 3011      667300
 3012              	.LASF76:
 3013 0670 715F6E6F 		.ascii	"q_notify\000"
 3013      74696679 
 3013      00
 3014              	.LASF54:
 3015 0679 6D5F6F77 		.ascii	"m_owner\000"
 3015      6E657200 
 3016              	.LASF3:
 3017 0681 75696E74 		.ascii	"uint8_t\000"
 3017      385F7400 
 3018              	.LASF142:
 3019 0689 5F696D75 		.ascii	"_imu_init\000"
 3019      5F696E69 
 3019      7400
ARM GAS  /tmp/ccKI1Vjn.s 			page 59


 3020              	.LASF56:
 3021 0693 4576656E 		.ascii	"EventListener\000"
 3021      744C6973 
 3021      74656E65 
 3021      7200
 3022              	.LASF119:
 3023 06a1 72656164 		.ascii	"read\000"
 3023      00
 3024              	.LASF112:
 3025 06a6 69717565 		.ascii	"iqueue\000"
 3025      756500
 3026              	.LASF62:
 3027 06ad 65735F6E 		.ascii	"es_next\000"
 3027      65787400 
 3028              	.LASF40:
 3029 06b5 705F6D73 		.ascii	"p_msg\000"
 3029      6700
 3030              	.LASF1:
 3031 06bb 7369676E 		.ascii	"signed char\000"
 3031      65642063 
 3031      68617200 
 3032              	.LASF95:
 3033 06c7 43504143 		.ascii	"CPACR\000"
 3033      5200
 3034              	.LASF87:
 3035 06cd 48465352 		.ascii	"HFSR\000"
 3035      00
 3036              	.LASF144:
 3037 06d2 5F757362 		.ascii	"_usbcdc_init\000"
 3037      6364635F 
 3037      696E6974 
 3037      00
 3038              	.LASF29:
 3039 06df 705F6374 		.ascii	"p_ctx\000"
 3039      7800
 3040              	.LASF38:
 3041 06e5 705F7761 		.ascii	"p_waiting\000"
 3041      6974696E 
 3041      6700
 3042              		.ident	"GCC: (GNU Tools for ARM Embedded Processors) 4.8.3 20131129 (release) [ARM/embedded-4_8-br
ARM GAS  /tmp/ccKI1Vjn.s 			page 60


DEFINED SYMBOLS
                            *ABS*:0000000000000000 aithon_private.c
     /tmp/ccKI1Vjn.s:20     .text._default_exit:0000000000000000 $t
     /tmp/ccKI1Vjn.s:26     .text._default_exit:0000000000000000 _default_exit
     /tmp/ccKI1Vjn.s:42     .text._reset_to_bootloader:0000000000000000 $t
     /tmp/ccKI1Vjn.s:48     .text._reset_to_bootloader:0000000000000000 _reset_to_bootloader
     /tmp/ccKI1Vjn.s:97     .text._reset_to_bootloader:0000000000000024 $d
     /tmp/ccKI1Vjn.s:107    .text.aithon_thread:0000000000000000 $t
     /tmp/ccKI1Vjn.s:112    .text.aithon_thread:0000000000000000 aithon_thread
     /tmp/ccKI1Vjn.s:145    .text._aithon_private_init:0000000000000000 $t
     /tmp/ccKI1Vjn.s:151    .text._aithon_private_init:0000000000000000 _aithon_private_init
     /tmp/ccKI1Vjn.s:180    .text._aithon_private_init:0000000000000020 $d
     /tmp/ccKI1Vjn.s:187    .text.__late_init:0000000000000000 $t
     /tmp/ccKI1Vjn.s:193    .text.__late_init:0000000000000000 __late_init
     /tmp/ccKI1Vjn.s:259    .text.__late_init:0000000000000050 $d
     /tmp/ccKI1Vjn.s:277    .bss._aithon_thd:0000000000000000 _aithon_thd
     /tmp/ccKI1Vjn.s:266    .bss._waAithonThread:0000000000000000 $d
     /tmp/ccKI1Vjn.s:270    .bss._waAithonThread:0000000000000000 _waAithonThread
     /tmp/ccKI1Vjn.s:273    .bss._aithon_thd:0000000000000000 $d
                     .debug_frame:0000000000000010 $d
     /tmp/ccKI1Vjn.s:106    .text._reset_to_bootloader:000000000000002c $t
     /tmp/ccKI1Vjn.s:186    .text._aithon_private_init:000000000000002c $t
     /tmp/ccKI1Vjn.s:265    .text.__late_init:0000000000000058 $t

UNDEFINED SYMBOLS
chThdSleep
_ee_putReserved
chEvtWaitAny
_usb_stop
chThdCreateStatic
halInit
chSysInit
_motor_init
_servo_init
_music_init
_imu_init
_analog_init
_ee_init
_usbcdc_init
_lcd_init
led_off
sdStart
SD1
SD2
