ARM GAS  /tmp/ccG24TTc.s 			page 1


   1              		.syntax unified
   2              		.cpu cortex-m4
   3              		.eabi_attribute 27, 3
   4              		.fpu fpv4-sp-d16
   5              		.eabi_attribute 20, 1
   6              		.eabi_attribute 21, 1
   7              		.eabi_attribute 23, 3
   8              		.eabi_attribute 24, 1
   9              		.eabi_attribute 25, 1
  10              		.eabi_attribute 26, 1
  11              		.eabi_attribute 30, 2
  12              		.eabi_attribute 34, 1
  13              		.eabi_attribute 18, 4
  14              		.thumb
  15              		.file	"Aithon.c"
  16              		.text
  17              	.Ltext0:
  18              		.cfi_sections	.debug_frame
  19              		.section	.text.led_on,"ax",%progbits
  20              		.align	2
  21              		.p2align 4,,15
  22              		.global	led_on
  23              		.thumb
  24              		.thumb_func
  25              		.type	led_on, %function
  26              	led_on:
  27              	.LFB119:
  28              		.file 1 "../AithonLibrary/Aithon.c"
  29              		.loc 1 23 0
  30              		.cfi_startproc
  31              		@ args = 0, pretend = 0, frame = 0
  32              		@ frame_needed = 0, uses_anonymous_args = 0
  33              		@ link register save eliminated.
  34              	.LVL0:
  35              		.loc 1 24 0
  36 0000 30B1     		cbz	r0, .L5
  37              		.loc 1 28 0
  38 0002 0128     		cmp	r0, #1
  39 0004 00D0     		beq	.L6
  40 0006 7047     		bx	lr
  41              	.L6:
  42              		.loc 1 30 0
  43 0008 044B     		ldr	r3, .L7
  44 000a 1022     		movs	r2, #16
  45 000c 1A83     		strh	r2, [r3, #24]	@ movhi
  46 000e 7047     		bx	lr
  47              	.L5:
  48              		.loc 1 26 0
  49 0010 034B     		ldr	r3, .L7+4
  50 0012 4FF40042 		mov	r2, #32768
  51 0016 1A83     		strh	r2, [r3, #24]	@ movhi
  52 0018 7047     		bx	lr
  53              	.L8:
  54 001a 00BF     		.align	2
  55              	.L7:
  56 001c 000C0240 		.word	1073875968
  57 0020 00100240 		.word	1073876992
ARM GAS  /tmp/ccG24TTc.s 			page 2


  58              		.cfi_endproc
  59              	.LFE119:
  60              		.size	led_on, .-led_on
  61 0024 AFF30080 		.section	.text.led_off,"ax",%progbits
  61      AFF30080 
  61      AFF30080 
  62              		.align	2
  63              		.p2align 4,,15
  64              		.global	led_off
  65              		.thumb
  66              		.thumb_func
  67              		.type	led_off, %function
  68              	led_off:
  69              	.LFB120:
  70              		.loc 1 41 0
  71              		.cfi_startproc
  72              		@ args = 0, pretend = 0, frame = 0
  73              		@ frame_needed = 0, uses_anonymous_args = 0
  74              		@ link register save eliminated.
  75              	.LVL1:
  76              		.loc 1 42 0
  77 0000 30B1     		cbz	r0, .L12
  78              		.loc 1 46 0
  79 0002 0128     		cmp	r0, #1
  80 0004 00D0     		beq	.L13
  81 0006 7047     		bx	lr
  82              	.L13:
  83              		.loc 1 48 0
  84 0008 044B     		ldr	r3, .L14
  85 000a 1022     		movs	r2, #16
  86 000c 5A83     		strh	r2, [r3, #26]	@ movhi
  87 000e 7047     		bx	lr
  88              	.L12:
  89              		.loc 1 44 0
  90 0010 034B     		ldr	r3, .L14+4
  91 0012 4FF40042 		mov	r2, #32768
  92 0016 5A83     		strh	r2, [r3, #26]	@ movhi
  93 0018 7047     		bx	lr
  94              	.L15:
  95 001a 00BF     		.align	2
  96              	.L14:
  97 001c 000C0240 		.word	1073875968
  98 0020 00100240 		.word	1073876992
  99              		.cfi_endproc
 100              	.LFE120:
 101              		.size	led_off, .-led_off
 102 0024 AFF30080 		.section	.text.led_toggle,"ax",%progbits
 102      AFF30080 
 102      AFF30080 
 103              		.align	2
 104              		.p2align 4,,15
 105              		.global	led_toggle
 106              		.thumb
 107              		.thumb_func
 108              		.type	led_toggle, %function
 109              	led_toggle:
 110              	.LFB121:
ARM GAS  /tmp/ccG24TTc.s 			page 3


 111              		.loc 1 59 0
 112              		.cfi_startproc
 113              		@ args = 0, pretend = 0, frame = 0
 114              		@ frame_needed = 0, uses_anonymous_args = 0
 115              		@ link register save eliminated.
 116              	.LVL2:
 117              		.loc 1 60 0
 118 0000 40B1     		cbz	r0, .L19
 119              		.loc 1 64 0
 120 0002 0128     		cmp	r0, #1
 121 0004 00D0     		beq	.L20
 122 0006 7047     		bx	lr
 123              	.L20:
 124              		.loc 1 66 0
 125 0008 054B     		ldr	r3, .L21
 126 000a 5A69     		ldr	r2, [r3, #20]
 127 000c 82F01002 		eor	r2, r2, #16
 128 0010 5A61     		str	r2, [r3, #20]
 129 0012 7047     		bx	lr
 130              	.L19:
 131              		.loc 1 62 0
 132 0014 034B     		ldr	r3, .L21+4
 133 0016 5A69     		ldr	r2, [r3, #20]
 134 0018 82F40042 		eor	r2, r2, #32768
 135 001c 5A61     		str	r2, [r3, #20]
 136 001e 7047     		bx	lr
 137              	.L22:
 138              		.align	2
 139              	.L21:
 140 0020 000C0240 		.word	1073875968
 141 0024 00100240 		.word	1073876992
 142              		.cfi_endproc
 143              	.LFE121:
 144              		.size	led_toggle, .-led_toggle
 145 0028 AFF30080 		.section	.text.button_get,"ax",%progbits
 145      AFF30080 
 146              		.align	2
 147              		.p2align 4,,15
 148              		.global	button_get
 149              		.thumb
 150              		.thumb_func
 151              		.type	button_get, %function
 152              	button_get:
 153              	.LFB122:
 154              		.loc 1 90 0
 155              		.cfi_startproc
 156              		@ args = 0, pretend = 0, frame = 0
 157              		@ frame_needed = 0, uses_anonymous_args = 0
 158              		@ link register save eliminated.
 159              	.LVL3:
 160              		.loc 1 91 0
 161 0000 50B1     		cbz	r0, .L25
 162 0002 0128     		cmp	r0, #1
 163 0004 06D1     		bne	.L29
 164              		.loc 1 96 0
 165 0006 084B     		ldr	r3, .L30
 166 0008 1869     		ldr	r0, [r3, #16]
ARM GAS  /tmp/ccG24TTc.s 			page 4


 167              	.LVL4:
 168 000a C0F3C020 		ubfx	r0, r0, #11, #1
 169 000e 80F00100 		eor	r0, r0, #1
 170 0012 7047     		bx	lr
 171              	.LVL5:
 172              	.L29:
 173              		.loc 1 98 0
 174 0014 0020     		movs	r0, #0
 175              	.LVL6:
 176              		.loc 1 100 0
 177 0016 7047     		bx	lr
 178              	.LVL7:
 179              	.L25:
 180              	.LBB4:
 181              	.LBB5:
 182              		.loc 1 94 0
 183 0018 034B     		ldr	r3, .L30
 184 001a 1869     		ldr	r0, [r3, #16]
 185              	.LVL8:
 186 001c C0F38020 		ubfx	r0, r0, #10, #1
 187 0020 80F00100 		eor	r0, r0, #1
 188 0024 7047     		bx	lr
 189              	.L31:
 190 0026 00BF     		.align	2
 191              	.L30:
 192 0028 000C0240 		.word	1073875968
 193              	.LBE5:
 194              	.LBE4:
 195              		.cfi_endproc
 196              	.LFE122:
 197              		.size	button_get, .-button_get
 198 002c AFF30080 		.section	.text.button_wait,"ax",%progbits
 199              		.align	2
 200              		.p2align 4,,15
 201              		.global	button_wait
 202              		.thumb
 203              		.thumb_func
 204              		.type	button_wait, %function
 205              	button_wait:
 206              	.LFB123:
 207              		.loc 1 108 0
 208              		.cfi_startproc
 209              		@ args = 0, pretend = 0, frame = 0
 210              		@ frame_needed = 0, uses_anonymous_args = 0
 211              	.LVL9:
 212 0000 10B5     		push	{r4, lr}
 213              		.cfi_def_cfa_offset 8
 214              		.cfi_offset 4, -8
 215              		.cfi_offset 14, -4
 216              		.loc 1 108 0
 217 0002 0446     		mov	r4, r0
 218              		.loc 1 110 0
 219 0004 02E0     		b	.L33
 220              	.LVL10:
 221              	.L34:
 222              		.loc 1 111 0
 223 0006 0120     		movs	r0, #1
ARM GAS  /tmp/ccG24TTc.s 			page 5


 224 0008 FFF7FEFF 		bl	chThdSleep
 225              	.LVL11:
 226              	.L33:
 227              		.loc 1 110 0 discriminator 1
 228 000c 2046     		mov	r0, r4
 229 000e FFF7FEFF 		bl	button_get
 230              	.LVL12:
 231 0012 0028     		cmp	r0, #0
 232 0014 F7D0     		beq	.L34
 233              		.loc 1 113 0
 234 0016 1E20     		movs	r0, #30
 235 0018 FFF7FEFF 		bl	chThdSleep
 236              	.LVL13:
 237              		.loc 1 115 0
 238 001c 02E0     		b	.L35
 239              	.L36:
 240              		.loc 1 116 0
 241 001e 0120     		movs	r0, #1
 242 0020 FFF7FEFF 		bl	chThdSleep
 243              	.LVL14:
 244              	.L35:
 245              		.loc 1 115 0 discriminator 1
 246 0024 2046     		mov	r0, r4
 247 0026 FFF7FEFF 		bl	button_get
 248              	.LVL15:
 249 002a 0028     		cmp	r0, #0
 250 002c F7D1     		bne	.L36
 251              		.loc 1 118 0
 252 002e 1E20     		movs	r0, #30
 253              		.loc 1 119 0
 254 0030 BDE81040 		pop	{r4, lr}
 255              	.LVL16:
 256              		.loc 1 118 0
 257 0034 FFF7FEBF 		b	chThdSleep
 258              	.LVL17:
 259              		.cfi_endproc
 260              	.LFE123:
 261              		.size	button_wait, .-button_wait
 262 0038 AFF30080 		.text
 262      AFF30080 
 263              	.Letext0:
 264              		.file 2 "/usr/arm-none-eabi/include/stdint.h"
 265              		.file 3 "../AithonLibrary/ChibiOS/os/ports/GCC/ARMCMx/chtypes.h"
 266              		.file 4 "../AithonLibrary/ChibiOS/os/hal/platforms/STM32/GPIOv2/pal_lld.h"
 267              		.file 5 "../AithonLibrary/ChibiOS/os/ports/common/ARMCMx/CMSIS/include/core_cm4.h"
 268              		.file 6 "../AithonLibrary/ChibiOS/os/kernel/include/chthreads.h"
 269              		.section	.debug_info,"",%progbits
 270              	.Ldebug_info0:
 271 0000 17030000 		.4byte	0x317
 272 0004 0400     		.2byte	0x4
 273 0006 00000000 		.4byte	.Ldebug_abbrev0
 274 000a 04       		.byte	0x4
 275 000b 01       		.uleb128 0x1
 276 000c 1F010000 		.4byte	.LASF32
 277 0010 01       		.byte	0x1
 278 0011 EB000000 		.4byte	.LASF33
 279 0015 2E000000 		.4byte	.LASF34
ARM GAS  /tmp/ccG24TTc.s 			page 6


 280 0019 00000000 		.4byte	.Ldebug_ranges0+0
 281 001d 00000000 		.4byte	0
 282 0021 00000000 		.4byte	.Ldebug_line0
 283 0025 02       		.uleb128 0x2
 284 0026 04       		.byte	0x4
 285 0027 05       		.byte	0x5
 286 0028 696E7400 		.ascii	"int\000"
 287 002c 03       		.uleb128 0x3
 288 002d 04       		.byte	0x4
 289 002e 07       		.byte	0x7
 290 002f 3A020000 		.4byte	.LASF0
 291 0033 03       		.uleb128 0x3
 292 0034 01       		.byte	0x1
 293 0035 06       		.byte	0x6
 294 0036 A5020000 		.4byte	.LASF1
 295 003a 03       		.uleb128 0x3
 296 003b 01       		.byte	0x1
 297 003c 08       		.byte	0x8
 298 003d 83000000 		.4byte	.LASF2
 299 0041 03       		.uleb128 0x3
 300 0042 02       		.byte	0x2
 301 0043 05       		.byte	0x5
 302 0044 15010000 		.4byte	.LASF3
 303 0048 04       		.uleb128 0x4
 304 0049 8A020000 		.4byte	.LASF5
 305 004d 02       		.byte	0x2
 306 004e 36       		.byte	0x36
 307 004f 53000000 		.4byte	0x53
 308 0053 03       		.uleb128 0x3
 309 0054 02       		.byte	0x2
 310 0055 07       		.byte	0x7
 311 0056 BB000000 		.4byte	.LASF4
 312 005a 04       		.uleb128 0x4
 313 005b 59020000 		.4byte	.LASF6
 314 005f 02       		.byte	0x2
 315 0060 4F       		.byte	0x4f
 316 0061 65000000 		.4byte	0x65
 317 0065 03       		.uleb128 0x3
 318 0066 04       		.byte	0x4
 319 0067 05       		.byte	0x5
 320 0068 9C020000 		.4byte	.LASF7
 321 006c 04       		.uleb128 0x4
 322 006d 93020000 		.4byte	.LASF8
 323 0071 02       		.byte	0x2
 324 0072 50       		.byte	0x50
 325 0073 77000000 		.4byte	0x77
 326 0077 03       		.uleb128 0x3
 327 0078 04       		.byte	0x4
 328 0079 07       		.byte	0x7
 329 007a A9000000 		.4byte	.LASF9
 330 007e 03       		.uleb128 0x3
 331 007f 08       		.byte	0x8
 332 0080 05       		.byte	0x5
 333 0081 76020000 		.4byte	.LASF10
 334 0085 03       		.uleb128 0x3
 335 0086 08       		.byte	0x8
 336 0087 07       		.byte	0x7
ARM GAS  /tmp/ccG24TTc.s 			page 7


 337 0088 6C000000 		.4byte	.LASF11
 338 008c 04       		.uleb128 0x4
 339 008d 51000000 		.4byte	.LASF12
 340 0091 03       		.byte	0x3
 341 0092 2B       		.byte	0x2b
 342 0093 97000000 		.4byte	0x97
 343 0097 03       		.uleb128 0x3
 344 0098 01       		.byte	0x1
 345 0099 02       		.byte	0x2
 346 009a B1020000 		.4byte	.LASF13
 347 009e 04       		.uleb128 0x4
 348 009f 14000000 		.4byte	.LASF14
 349 00a3 03       		.byte	0x3
 350 00a4 35       		.byte	0x35
 351 00a5 6C000000 		.4byte	0x6c
 352 00a9 05       		.uleb128 0x5
 353 00aa 6C000000 		.4byte	0x6c
 354 00ae 03       		.uleb128 0x3
 355 00af 04       		.byte	0x4
 356 00b0 07       		.byte	0x7
 357 00b1 61020000 		.4byte	.LASF15
 358 00b5 03       		.uleb128 0x3
 359 00b6 01       		.byte	0x1
 360 00b7 08       		.byte	0x8
 361 00b8 54020000 		.4byte	.LASF16
 362 00bc 05       		.uleb128 0x5
 363 00bd 5A000000 		.4byte	0x5a
 364 00c1 06       		.uleb128 0x6
 365 00c2 04       		.byte	0x4
 366 00c3 04       		.byte	0x4
 367 00c4 96       		.byte	0x96
 368 00c5 E2000000 		.4byte	0xe2
 369 00c9 07       		.uleb128 0x7
 370 00ca 73657400 		.ascii	"set\000"
 371 00ce 04       		.byte	0x4
 372 00cf 97       		.byte	0x97
 373 00d0 48000000 		.4byte	0x48
 374 00d4 00       		.byte	0
 375 00d5 08       		.uleb128 0x8
 376 00d6 08000000 		.4byte	.LASF17
 377 00da 04       		.byte	0x4
 378 00db 98       		.byte	0x98
 379 00dc 48000000 		.4byte	0x48
 380 00e0 02       		.byte	0x2
 381 00e1 00       		.byte	0
 382 00e2 09       		.uleb128 0x9
 383 00e3 04       		.byte	0x4
 384 00e4 04       		.byte	0x4
 385 00e5 94       		.byte	0x94
 386 00e6 FD000000 		.4byte	0xfd
 387 00ea 0A       		.uleb128 0xa
 388 00eb 5700     		.ascii	"W\000"
 389 00ed 04       		.byte	0x4
 390 00ee 95       		.byte	0x95
 391 00ef 6C000000 		.4byte	0x6c
 392 00f3 0A       		.uleb128 0xa
 393 00f4 4800     		.ascii	"H\000"
ARM GAS  /tmp/ccG24TTc.s 			page 8


 394 00f6 04       		.byte	0x4
 395 00f7 99       		.byte	0x99
 396 00f8 C1000000 		.4byte	0xc1
 397 00fc 00       		.byte	0
 398 00fd 06       		.uleb128 0x6
 399 00fe 28       		.byte	0x28
 400 00ff 04       		.byte	0x4
 401 0100 8C       		.byte	0x8c
 402 0101 7E010000 		.4byte	0x17e
 403 0105 08       		.uleb128 0x8
 404 0106 0E000000 		.4byte	.LASF18
 405 010a 04       		.byte	0x4
 406 010b 8E       		.byte	0x8e
 407 010c A9000000 		.4byte	0xa9
 408 0110 00       		.byte	0
 409 0111 08       		.uleb128 0x8
 410 0112 65000000 		.4byte	.LASF19
 411 0116 04       		.byte	0x4
 412 0117 8F       		.byte	0x8f
 413 0118 A9000000 		.4byte	0xa9
 414 011c 04       		.byte	0x4
 415 011d 08       		.uleb128 0x8
 416 011e 00000000 		.4byte	.LASF20
 417 0122 04       		.byte	0x4
 418 0123 90       		.byte	0x90
 419 0124 A9000000 		.4byte	0xa9
 420 0128 08       		.byte	0x8
 421 0129 08       		.uleb128 0x8
 422 012a 84020000 		.4byte	.LASF21
 423 012e 04       		.byte	0x4
 424 012f 91       		.byte	0x91
 425 0130 A9000000 		.4byte	0xa9
 426 0134 0C       		.byte	0xc
 427 0135 07       		.uleb128 0x7
 428 0136 49445200 		.ascii	"IDR\000"
 429 013a 04       		.byte	0x4
 430 013b 92       		.byte	0x92
 431 013c A9000000 		.4byte	0xa9
 432 0140 10       		.byte	0x10
 433 0141 07       		.uleb128 0x7
 434 0142 4F445200 		.ascii	"ODR\000"
 435 0146 04       		.byte	0x4
 436 0147 93       		.byte	0x93
 437 0148 A9000000 		.4byte	0xa9
 438 014c 14       		.byte	0x14
 439 014d 08       		.uleb128 0x8
 440 014e 1E000000 		.4byte	.LASF22
 441 0152 04       		.byte	0x4
 442 0153 9A       		.byte	0x9a
 443 0154 7E010000 		.4byte	0x17e
 444 0158 18       		.byte	0x18
 445 0159 08       		.uleb128 0x8
 446 015a B7020000 		.4byte	.LASF23
 447 015e 04       		.byte	0x4
 448 015f 9B       		.byte	0x9b
 449 0160 A9000000 		.4byte	0xa9
 450 0164 1C       		.byte	0x1c
ARM GAS  /tmp/ccG24TTc.s 			page 9


 451 0165 08       		.uleb128 0x8
 452 0166 CE000000 		.4byte	.LASF24
 453 016a 04       		.byte	0x4
 454 016b 9C       		.byte	0x9c
 455 016c A9000000 		.4byte	0xa9
 456 0170 20       		.byte	0x20
 457 0171 08       		.uleb128 0x8
 458 0172 A4000000 		.4byte	.LASF25
 459 0176 04       		.byte	0x4
 460 0177 9D       		.byte	0x9d
 461 0178 A9000000 		.4byte	0xa9
 462 017c 24       		.byte	0x24
 463 017d 00       		.byte	0
 464 017e 05       		.uleb128 0x5
 465 017f E2000000 		.4byte	0xe2
 466 0183 04       		.uleb128 0x4
 467 0184 47020000 		.4byte	.LASF26
 468 0188 04       		.byte	0x4
 469 0189 9E       		.byte	0x9e
 470 018a FD000000 		.4byte	0xfd
 471 018e 04       		.uleb128 0x4
 472 018f 58000000 		.4byte	.LASF27
 473 0193 04       		.byte	0x4
 474 0194 F0       		.byte	0xf0
 475 0195 6C000000 		.4byte	0x6c
 476 0199 0B       		.uleb128 0xb
 477 019a D3000000 		.4byte	.LASF35
 478 019e 01       		.byte	0x1
 479 019f 59       		.byte	0x59
 480 01a0 8C000000 		.4byte	0x8c
 481 01a4 01       		.byte	0x1
 482 01a5 B5010000 		.4byte	0x1b5
 483 01a9 0C       		.uleb128 0xc
 484 01aa 6E756D00 		.ascii	"num\000"
 485 01ae 01       		.byte	0x1
 486 01af 59       		.byte	0x59
 487 01b0 25000000 		.4byte	0x25
 488 01b4 00       		.byte	0
 489 01b5 0D       		.uleb128 0xd
 490 01b6 05010000 		.4byte	.LASF28
 491 01ba 01       		.byte	0x1
 492 01bb 16       		.byte	0x16
 493 01bc 00000000 		.4byte	.LFB119
 494 01c0 24000000 		.4byte	.LFE119-.LFB119
 495 01c4 01       		.uleb128 0x1
 496 01c5 9C       		.byte	0x9c
 497 01c6 D8010000 		.4byte	0x1d8
 498 01ca 0E       		.uleb128 0xe
 499 01cb 6E756D00 		.ascii	"num\000"
 500 01cf 01       		.byte	0x1
 501 01d0 16       		.byte	0x16
 502 01d1 25000000 		.4byte	0x25
 503 01d5 01       		.uleb128 0x1
 504 01d6 50       		.byte	0x50
 505 01d7 00       		.byte	0
 506 01d8 0D       		.uleb128 0xd
 507 01d9 9C000000 		.4byte	.LASF29
ARM GAS  /tmp/ccG24TTc.s 			page 10


 508 01dd 01       		.byte	0x1
 509 01de 28       		.byte	0x28
 510 01df 00000000 		.4byte	.LFB120
 511 01e3 24000000 		.4byte	.LFE120-.LFB120
 512 01e7 01       		.uleb128 0x1
 513 01e8 9C       		.byte	0x9c
 514 01e9 FB010000 		.4byte	0x1fb
 515 01ed 0E       		.uleb128 0xe
 516 01ee 6E756D00 		.ascii	"num\000"
 517 01f2 01       		.byte	0x1
 518 01f3 28       		.byte	0x28
 519 01f4 25000000 		.4byte	0x25
 520 01f8 01       		.uleb128 0x1
 521 01f9 50       		.byte	0x50
 522 01fa 00       		.byte	0
 523 01fb 0D       		.uleb128 0xd
 524 01fc 23000000 		.4byte	.LASF30
 525 0200 01       		.byte	0x1
 526 0201 3A       		.byte	0x3a
 527 0202 00000000 		.4byte	.LFB121
 528 0206 28000000 		.4byte	.LFE121-.LFB121
 529 020a 01       		.uleb128 0x1
 530 020b 9C       		.byte	0x9c
 531 020c 1E020000 		.4byte	0x21e
 532 0210 0E       		.uleb128 0xe
 533 0211 6E756D00 		.ascii	"num\000"
 534 0215 01       		.byte	0x1
 535 0216 3A       		.byte	0x3a
 536 0217 25000000 		.4byte	0x25
 537 021b 01       		.uleb128 0x1
 538 021c 50       		.byte	0x50
 539 021d 00       		.byte	0
 540 021e 0F       		.uleb128 0xf
 541 021f 99010000 		.4byte	0x199
 542 0223 00000000 		.4byte	.LFB122
 543 0227 2C000000 		.4byte	.LFE122-.LFB122
 544 022b 01       		.uleb128 0x1
 545 022c 9C       		.byte	0x9c
 546 022d 4B020000 		.4byte	0x24b
 547 0231 10       		.uleb128 0x10
 548 0232 A9010000 		.4byte	0x1a9
 549 0236 00000000 		.4byte	.LLST0
 550 023a 11       		.uleb128 0x11
 551 023b 18000000 		.4byte	.LBB4
 552 023f 14000000 		.4byte	.LBE4-.LBB4
 553 0243 12       		.uleb128 0x12
 554 0244 A9010000 		.4byte	0x1a9
 555 0248 00       		.byte	0
 556 0249 00       		.byte	0
 557 024a 00       		.byte	0
 558 024b 0D       		.uleb128 0xd
 559 024c 6A020000 		.4byte	.LASF31
 560 0250 01       		.byte	0x1
 561 0251 6B       		.byte	0x6b
 562 0252 00000000 		.4byte	.LFB123
 563 0256 38000000 		.4byte	.LFE123-.LFB123
 564 025a 01       		.uleb128 0x1
ARM GAS  /tmp/ccG24TTc.s 			page 11


 565 025b 9C       		.byte	0x9c
 566 025c E0020000 		.4byte	0x2e0
 567 0260 13       		.uleb128 0x13
 568 0261 6E756D00 		.ascii	"num\000"
 569 0265 01       		.byte	0x1
 570 0266 6B       		.byte	0x6b
 571 0267 25000000 		.4byte	0x25
 572 026b 53000000 		.4byte	.LLST1
 573 026f 14       		.uleb128 0x14
 574 0270 0C000000 		.4byte	.LVL11
 575 0274 0C030000 		.4byte	0x30c
 576 0278 82020000 		.4byte	0x282
 577 027c 15       		.uleb128 0x15
 578 027d 01       		.uleb128 0x1
 579 027e 50       		.byte	0x50
 580 027f 01       		.uleb128 0x1
 581 0280 31       		.byte	0x31
 582 0281 00       		.byte	0
 583 0282 14       		.uleb128 0x14
 584 0283 12000000 		.4byte	.LVL12
 585 0287 99010000 		.4byte	0x199
 586 028b 96020000 		.4byte	0x296
 587 028f 15       		.uleb128 0x15
 588 0290 01       		.uleb128 0x1
 589 0291 50       		.byte	0x50
 590 0292 02       		.uleb128 0x2
 591 0293 74       		.byte	0x74
 592 0294 00       		.sleb128 0
 593 0295 00       		.byte	0
 594 0296 14       		.uleb128 0x14
 595 0297 1C000000 		.4byte	.LVL13
 596 029b 0C030000 		.4byte	0x30c
 597 029f A9020000 		.4byte	0x2a9
 598 02a3 15       		.uleb128 0x15
 599 02a4 01       		.uleb128 0x1
 600 02a5 50       		.byte	0x50
 601 02a6 01       		.uleb128 0x1
 602 02a7 4E       		.byte	0x4e
 603 02a8 00       		.byte	0
 604 02a9 14       		.uleb128 0x14
 605 02aa 24000000 		.4byte	.LVL14
 606 02ae 0C030000 		.4byte	0x30c
 607 02b2 BC020000 		.4byte	0x2bc
 608 02b6 15       		.uleb128 0x15
 609 02b7 01       		.uleb128 0x1
 610 02b8 50       		.byte	0x50
 611 02b9 01       		.uleb128 0x1
 612 02ba 31       		.byte	0x31
 613 02bb 00       		.byte	0
 614 02bc 14       		.uleb128 0x14
 615 02bd 2A000000 		.4byte	.LVL15
 616 02c1 99010000 		.4byte	0x199
 617 02c5 D0020000 		.4byte	0x2d0
 618 02c9 15       		.uleb128 0x15
 619 02ca 01       		.uleb128 0x1
 620 02cb 50       		.byte	0x50
 621 02cc 02       		.uleb128 0x2
ARM GAS  /tmp/ccG24TTc.s 			page 12


 622 02cd 74       		.byte	0x74
 623 02ce 00       		.sleb128 0
 624 02cf 00       		.byte	0
 625 02d0 16       		.uleb128 0x16
 626 02d1 38000000 		.4byte	.LVL17
 627 02d5 0C030000 		.4byte	0x30c
 628 02d9 15       		.uleb128 0x15
 629 02da 01       		.uleb128 0x1
 630 02db 50       		.byte	0x50
 631 02dc 01       		.uleb128 0x1
 632 02dd 4E       		.byte	0x4e
 633 02de 00       		.byte	0
 634 02df 00       		.byte	0
 635 02e0 17       		.uleb128 0x17
 636 02e1 25000000 		.4byte	0x25
 637 02e5 F0020000 		.4byte	0x2f0
 638 02e9 18       		.uleb128 0x18
 639 02ea AE000000 		.4byte	0xae
 640 02ee 01       		.byte	0x1
 641 02ef 00       		.byte	0
 642 02f0 19       		.uleb128 0x19
 643 02f1 0C010000 		.4byte	.LASF36
 644 02f5 01       		.byte	0x1
 645 02f6 4F       		.byte	0x4f
 646 02f7 FB020000 		.4byte	0x2fb
 647 02fb 1A       		.uleb128 0x1a
 648 02fc E0020000 		.4byte	0x2e0
 649 0300 1B       		.uleb128 0x1b
 650 0301 DE000000 		.4byte	.LASF37
 651 0305 05       		.byte	0x5
 652 0306 9806     		.2byte	0x698
 653 0308 BC000000 		.4byte	0xbc
 654 030c 1C       		.uleb128 0x1c
 655 030d 91000000 		.4byte	.LASF38
 656 0311 06       		.byte	0x6
 657 0312 7501     		.2byte	0x175
 658 0314 1D       		.uleb128 0x1d
 659 0315 9E000000 		.4byte	0x9e
 660 0319 00       		.byte	0
 661 031a 00       		.byte	0
 662              		.section	.debug_abbrev,"",%progbits
 663              	.Ldebug_abbrev0:
 664 0000 01       		.uleb128 0x1
 665 0001 11       		.uleb128 0x11
 666 0002 01       		.byte	0x1
 667 0003 25       		.uleb128 0x25
 668 0004 0E       		.uleb128 0xe
 669 0005 13       		.uleb128 0x13
 670 0006 0B       		.uleb128 0xb
 671 0007 03       		.uleb128 0x3
 672 0008 0E       		.uleb128 0xe
 673 0009 1B       		.uleb128 0x1b
 674 000a 0E       		.uleb128 0xe
 675 000b 55       		.uleb128 0x55
 676 000c 17       		.uleb128 0x17
 677 000d 11       		.uleb128 0x11
 678 000e 01       		.uleb128 0x1
ARM GAS  /tmp/ccG24TTc.s 			page 13


 679 000f 10       		.uleb128 0x10
 680 0010 17       		.uleb128 0x17
 681 0011 00       		.byte	0
 682 0012 00       		.byte	0
 683 0013 02       		.uleb128 0x2
 684 0014 24       		.uleb128 0x24
 685 0015 00       		.byte	0
 686 0016 0B       		.uleb128 0xb
 687 0017 0B       		.uleb128 0xb
 688 0018 3E       		.uleb128 0x3e
 689 0019 0B       		.uleb128 0xb
 690 001a 03       		.uleb128 0x3
 691 001b 08       		.uleb128 0x8
 692 001c 00       		.byte	0
 693 001d 00       		.byte	0
 694 001e 03       		.uleb128 0x3
 695 001f 24       		.uleb128 0x24
 696 0020 00       		.byte	0
 697 0021 0B       		.uleb128 0xb
 698 0022 0B       		.uleb128 0xb
 699 0023 3E       		.uleb128 0x3e
 700 0024 0B       		.uleb128 0xb
 701 0025 03       		.uleb128 0x3
 702 0026 0E       		.uleb128 0xe
 703 0027 00       		.byte	0
 704 0028 00       		.byte	0
 705 0029 04       		.uleb128 0x4
 706 002a 16       		.uleb128 0x16
 707 002b 00       		.byte	0
 708 002c 03       		.uleb128 0x3
 709 002d 0E       		.uleb128 0xe
 710 002e 3A       		.uleb128 0x3a
 711 002f 0B       		.uleb128 0xb
 712 0030 3B       		.uleb128 0x3b
 713 0031 0B       		.uleb128 0xb
 714 0032 49       		.uleb128 0x49
 715 0033 13       		.uleb128 0x13
 716 0034 00       		.byte	0
 717 0035 00       		.byte	0
 718 0036 05       		.uleb128 0x5
 719 0037 35       		.uleb128 0x35
 720 0038 00       		.byte	0
 721 0039 49       		.uleb128 0x49
 722 003a 13       		.uleb128 0x13
 723 003b 00       		.byte	0
 724 003c 00       		.byte	0
 725 003d 06       		.uleb128 0x6
 726 003e 13       		.uleb128 0x13
 727 003f 01       		.byte	0x1
 728 0040 0B       		.uleb128 0xb
 729 0041 0B       		.uleb128 0xb
 730 0042 3A       		.uleb128 0x3a
 731 0043 0B       		.uleb128 0xb
 732 0044 3B       		.uleb128 0x3b
 733 0045 0B       		.uleb128 0xb
 734 0046 01       		.uleb128 0x1
 735 0047 13       		.uleb128 0x13
ARM GAS  /tmp/ccG24TTc.s 			page 14


 736 0048 00       		.byte	0
 737 0049 00       		.byte	0
 738 004a 07       		.uleb128 0x7
 739 004b 0D       		.uleb128 0xd
 740 004c 00       		.byte	0
 741 004d 03       		.uleb128 0x3
 742 004e 08       		.uleb128 0x8
 743 004f 3A       		.uleb128 0x3a
 744 0050 0B       		.uleb128 0xb
 745 0051 3B       		.uleb128 0x3b
 746 0052 0B       		.uleb128 0xb
 747 0053 49       		.uleb128 0x49
 748 0054 13       		.uleb128 0x13
 749 0055 38       		.uleb128 0x38
 750 0056 0B       		.uleb128 0xb
 751 0057 00       		.byte	0
 752 0058 00       		.byte	0
 753 0059 08       		.uleb128 0x8
 754 005a 0D       		.uleb128 0xd
 755 005b 00       		.byte	0
 756 005c 03       		.uleb128 0x3
 757 005d 0E       		.uleb128 0xe
 758 005e 3A       		.uleb128 0x3a
 759 005f 0B       		.uleb128 0xb
 760 0060 3B       		.uleb128 0x3b
 761 0061 0B       		.uleb128 0xb
 762 0062 49       		.uleb128 0x49
 763 0063 13       		.uleb128 0x13
 764 0064 38       		.uleb128 0x38
 765 0065 0B       		.uleb128 0xb
 766 0066 00       		.byte	0
 767 0067 00       		.byte	0
 768 0068 09       		.uleb128 0x9
 769 0069 17       		.uleb128 0x17
 770 006a 01       		.byte	0x1
 771 006b 0B       		.uleb128 0xb
 772 006c 0B       		.uleb128 0xb
 773 006d 3A       		.uleb128 0x3a
 774 006e 0B       		.uleb128 0xb
 775 006f 3B       		.uleb128 0x3b
 776 0070 0B       		.uleb128 0xb
 777 0071 01       		.uleb128 0x1
 778 0072 13       		.uleb128 0x13
 779 0073 00       		.byte	0
 780 0074 00       		.byte	0
 781 0075 0A       		.uleb128 0xa
 782 0076 0D       		.uleb128 0xd
 783 0077 00       		.byte	0
 784 0078 03       		.uleb128 0x3
 785 0079 08       		.uleb128 0x8
 786 007a 3A       		.uleb128 0x3a
 787 007b 0B       		.uleb128 0xb
 788 007c 3B       		.uleb128 0x3b
 789 007d 0B       		.uleb128 0xb
 790 007e 49       		.uleb128 0x49
 791 007f 13       		.uleb128 0x13
 792 0080 00       		.byte	0
ARM GAS  /tmp/ccG24TTc.s 			page 15


 793 0081 00       		.byte	0
 794 0082 0B       		.uleb128 0xb
 795 0083 2E       		.uleb128 0x2e
 796 0084 01       		.byte	0x1
 797 0085 3F       		.uleb128 0x3f
 798 0086 19       		.uleb128 0x19
 799 0087 03       		.uleb128 0x3
 800 0088 0E       		.uleb128 0xe
 801 0089 3A       		.uleb128 0x3a
 802 008a 0B       		.uleb128 0xb
 803 008b 3B       		.uleb128 0x3b
 804 008c 0B       		.uleb128 0xb
 805 008d 27       		.uleb128 0x27
 806 008e 19       		.uleb128 0x19
 807 008f 49       		.uleb128 0x49
 808 0090 13       		.uleb128 0x13
 809 0091 20       		.uleb128 0x20
 810 0092 0B       		.uleb128 0xb
 811 0093 01       		.uleb128 0x1
 812 0094 13       		.uleb128 0x13
 813 0095 00       		.byte	0
 814 0096 00       		.byte	0
 815 0097 0C       		.uleb128 0xc
 816 0098 05       		.uleb128 0x5
 817 0099 00       		.byte	0
 818 009a 03       		.uleb128 0x3
 819 009b 08       		.uleb128 0x8
 820 009c 3A       		.uleb128 0x3a
 821 009d 0B       		.uleb128 0xb
 822 009e 3B       		.uleb128 0x3b
 823 009f 0B       		.uleb128 0xb
 824 00a0 49       		.uleb128 0x49
 825 00a1 13       		.uleb128 0x13
 826 00a2 00       		.byte	0
 827 00a3 00       		.byte	0
 828 00a4 0D       		.uleb128 0xd
 829 00a5 2E       		.uleb128 0x2e
 830 00a6 01       		.byte	0x1
 831 00a7 3F       		.uleb128 0x3f
 832 00a8 19       		.uleb128 0x19
 833 00a9 03       		.uleb128 0x3
 834 00aa 0E       		.uleb128 0xe
 835 00ab 3A       		.uleb128 0x3a
 836 00ac 0B       		.uleb128 0xb
 837 00ad 3B       		.uleb128 0x3b
 838 00ae 0B       		.uleb128 0xb
 839 00af 27       		.uleb128 0x27
 840 00b0 19       		.uleb128 0x19
 841 00b1 11       		.uleb128 0x11
 842 00b2 01       		.uleb128 0x1
 843 00b3 12       		.uleb128 0x12
 844 00b4 06       		.uleb128 0x6
 845 00b5 40       		.uleb128 0x40
 846 00b6 18       		.uleb128 0x18
 847 00b7 9742     		.uleb128 0x2117
 848 00b9 19       		.uleb128 0x19
 849 00ba 01       		.uleb128 0x1
ARM GAS  /tmp/ccG24TTc.s 			page 16


 850 00bb 13       		.uleb128 0x13
 851 00bc 00       		.byte	0
 852 00bd 00       		.byte	0
 853 00be 0E       		.uleb128 0xe
 854 00bf 05       		.uleb128 0x5
 855 00c0 00       		.byte	0
 856 00c1 03       		.uleb128 0x3
 857 00c2 08       		.uleb128 0x8
 858 00c3 3A       		.uleb128 0x3a
 859 00c4 0B       		.uleb128 0xb
 860 00c5 3B       		.uleb128 0x3b
 861 00c6 0B       		.uleb128 0xb
 862 00c7 49       		.uleb128 0x49
 863 00c8 13       		.uleb128 0x13
 864 00c9 02       		.uleb128 0x2
 865 00ca 18       		.uleb128 0x18
 866 00cb 00       		.byte	0
 867 00cc 00       		.byte	0
 868 00cd 0F       		.uleb128 0xf
 869 00ce 2E       		.uleb128 0x2e
 870 00cf 01       		.byte	0x1
 871 00d0 31       		.uleb128 0x31
 872 00d1 13       		.uleb128 0x13
 873 00d2 11       		.uleb128 0x11
 874 00d3 01       		.uleb128 0x1
 875 00d4 12       		.uleb128 0x12
 876 00d5 06       		.uleb128 0x6
 877 00d6 40       		.uleb128 0x40
 878 00d7 18       		.uleb128 0x18
 879 00d8 9742     		.uleb128 0x2117
 880 00da 19       		.uleb128 0x19
 881 00db 01       		.uleb128 0x1
 882 00dc 13       		.uleb128 0x13
 883 00dd 00       		.byte	0
 884 00de 00       		.byte	0
 885 00df 10       		.uleb128 0x10
 886 00e0 05       		.uleb128 0x5
 887 00e1 00       		.byte	0
 888 00e2 31       		.uleb128 0x31
 889 00e3 13       		.uleb128 0x13
 890 00e4 02       		.uleb128 0x2
 891 00e5 17       		.uleb128 0x17
 892 00e6 00       		.byte	0
 893 00e7 00       		.byte	0
 894 00e8 11       		.uleb128 0x11
 895 00e9 0B       		.uleb128 0xb
 896 00ea 01       		.byte	0x1
 897 00eb 11       		.uleb128 0x11
 898 00ec 01       		.uleb128 0x1
 899 00ed 12       		.uleb128 0x12
 900 00ee 06       		.uleb128 0x6
 901 00ef 00       		.byte	0
 902 00f0 00       		.byte	0
 903 00f1 12       		.uleb128 0x12
 904 00f2 05       		.uleb128 0x5
 905 00f3 00       		.byte	0
 906 00f4 31       		.uleb128 0x31
ARM GAS  /tmp/ccG24TTc.s 			page 17


 907 00f5 13       		.uleb128 0x13
 908 00f6 1C       		.uleb128 0x1c
 909 00f7 0B       		.uleb128 0xb
 910 00f8 00       		.byte	0
 911 00f9 00       		.byte	0
 912 00fa 13       		.uleb128 0x13
 913 00fb 05       		.uleb128 0x5
 914 00fc 00       		.byte	0
 915 00fd 03       		.uleb128 0x3
 916 00fe 08       		.uleb128 0x8
 917 00ff 3A       		.uleb128 0x3a
 918 0100 0B       		.uleb128 0xb
 919 0101 3B       		.uleb128 0x3b
 920 0102 0B       		.uleb128 0xb
 921 0103 49       		.uleb128 0x49
 922 0104 13       		.uleb128 0x13
 923 0105 02       		.uleb128 0x2
 924 0106 17       		.uleb128 0x17
 925 0107 00       		.byte	0
 926 0108 00       		.byte	0
 927 0109 14       		.uleb128 0x14
 928 010a 898201   		.uleb128 0x4109
 929 010d 01       		.byte	0x1
 930 010e 11       		.uleb128 0x11
 931 010f 01       		.uleb128 0x1
 932 0110 31       		.uleb128 0x31
 933 0111 13       		.uleb128 0x13
 934 0112 01       		.uleb128 0x1
 935 0113 13       		.uleb128 0x13
 936 0114 00       		.byte	0
 937 0115 00       		.byte	0
 938 0116 15       		.uleb128 0x15
 939 0117 8A8201   		.uleb128 0x410a
 940 011a 00       		.byte	0
 941 011b 02       		.uleb128 0x2
 942 011c 18       		.uleb128 0x18
 943 011d 9142     		.uleb128 0x2111
 944 011f 18       		.uleb128 0x18
 945 0120 00       		.byte	0
 946 0121 00       		.byte	0
 947 0122 16       		.uleb128 0x16
 948 0123 898201   		.uleb128 0x4109
 949 0126 01       		.byte	0x1
 950 0127 11       		.uleb128 0x11
 951 0128 01       		.uleb128 0x1
 952 0129 9542     		.uleb128 0x2115
 953 012b 19       		.uleb128 0x19
 954 012c 31       		.uleb128 0x31
 955 012d 13       		.uleb128 0x13
 956 012e 00       		.byte	0
 957 012f 00       		.byte	0
 958 0130 17       		.uleb128 0x17
 959 0131 01       		.uleb128 0x1
 960 0132 01       		.byte	0x1
 961 0133 49       		.uleb128 0x49
 962 0134 13       		.uleb128 0x13
 963 0135 01       		.uleb128 0x1
ARM GAS  /tmp/ccG24TTc.s 			page 18


 964 0136 13       		.uleb128 0x13
 965 0137 00       		.byte	0
 966 0138 00       		.byte	0
 967 0139 18       		.uleb128 0x18
 968 013a 21       		.uleb128 0x21
 969 013b 00       		.byte	0
 970 013c 49       		.uleb128 0x49
 971 013d 13       		.uleb128 0x13
 972 013e 2F       		.uleb128 0x2f
 973 013f 0B       		.uleb128 0xb
 974 0140 00       		.byte	0
 975 0141 00       		.byte	0
 976 0142 19       		.uleb128 0x19
 977 0143 34       		.uleb128 0x34
 978 0144 00       		.byte	0
 979 0145 03       		.uleb128 0x3
 980 0146 0E       		.uleb128 0xe
 981 0147 3A       		.uleb128 0x3a
 982 0148 0B       		.uleb128 0xb
 983 0149 3B       		.uleb128 0x3b
 984 014a 0B       		.uleb128 0xb
 985 014b 49       		.uleb128 0x49
 986 014c 13       		.uleb128 0x13
 987 014d 00       		.byte	0
 988 014e 00       		.byte	0
 989 014f 1A       		.uleb128 0x1a
 990 0150 26       		.uleb128 0x26
 991 0151 00       		.byte	0
 992 0152 49       		.uleb128 0x49
 993 0153 13       		.uleb128 0x13
 994 0154 00       		.byte	0
 995 0155 00       		.byte	0
 996 0156 1B       		.uleb128 0x1b
 997 0157 34       		.uleb128 0x34
 998 0158 00       		.byte	0
 999 0159 03       		.uleb128 0x3
 1000 015a 0E       		.uleb128 0xe
 1001 015b 3A       		.uleb128 0x3a
 1002 015c 0B       		.uleb128 0xb
 1003 015d 3B       		.uleb128 0x3b
 1004 015e 05       		.uleb128 0x5
 1005 015f 49       		.uleb128 0x49
 1006 0160 13       		.uleb128 0x13
 1007 0161 3F       		.uleb128 0x3f
 1008 0162 19       		.uleb128 0x19
 1009 0163 3C       		.uleb128 0x3c
 1010 0164 19       		.uleb128 0x19
 1011 0165 00       		.byte	0
 1012 0166 00       		.byte	0
 1013 0167 1C       		.uleb128 0x1c
 1014 0168 2E       		.uleb128 0x2e
 1015 0169 01       		.byte	0x1
 1016 016a 3F       		.uleb128 0x3f
 1017 016b 19       		.uleb128 0x19
 1018 016c 03       		.uleb128 0x3
 1019 016d 0E       		.uleb128 0xe
 1020 016e 3A       		.uleb128 0x3a
ARM GAS  /tmp/ccG24TTc.s 			page 19


 1021 016f 0B       		.uleb128 0xb
 1022 0170 3B       		.uleb128 0x3b
 1023 0171 05       		.uleb128 0x5
 1024 0172 27       		.uleb128 0x27
 1025 0173 19       		.uleb128 0x19
 1026 0174 3C       		.uleb128 0x3c
 1027 0175 19       		.uleb128 0x19
 1028 0176 00       		.byte	0
 1029 0177 00       		.byte	0
 1030 0178 1D       		.uleb128 0x1d
 1031 0179 05       		.uleb128 0x5
 1032 017a 00       		.byte	0
 1033 017b 49       		.uleb128 0x49
 1034 017c 13       		.uleb128 0x13
 1035 017d 00       		.byte	0
 1036 017e 00       		.byte	0
 1037 017f 00       		.byte	0
 1038              		.section	.debug_loc,"",%progbits
 1039              	.Ldebug_loc0:
 1040              	.LLST0:
 1041 0000 00000000 		.4byte	.LVL3
 1042 0004 0A000000 		.4byte	.LVL4
 1043 0008 0100     		.2byte	0x1
 1044 000a 50       		.byte	0x50
 1045 000b 0A000000 		.4byte	.LVL4
 1046 000f 14000000 		.4byte	.LVL5
 1047 0013 0400     		.2byte	0x4
 1048 0015 F3       		.byte	0xf3
 1049 0016 01       		.uleb128 0x1
 1050 0017 50       		.byte	0x50
 1051 0018 9F       		.byte	0x9f
 1052 0019 14000000 		.4byte	.LVL5
 1053 001d 16000000 		.4byte	.LVL6
 1054 0021 0100     		.2byte	0x1
 1055 0023 50       		.byte	0x50
 1056 0024 16000000 		.4byte	.LVL6
 1057 0028 18000000 		.4byte	.LVL7
 1058 002c 0400     		.2byte	0x4
 1059 002e F3       		.byte	0xf3
 1060 002f 01       		.uleb128 0x1
 1061 0030 50       		.byte	0x50
 1062 0031 9F       		.byte	0x9f
 1063 0032 18000000 		.4byte	.LVL7
 1064 0036 1C000000 		.4byte	.LVL8
 1065 003a 0100     		.2byte	0x1
 1066 003c 50       		.byte	0x50
 1067 003d 1C000000 		.4byte	.LVL8
 1068 0041 2C000000 		.4byte	.LFE122
 1069 0045 0400     		.2byte	0x4
 1070 0047 F3       		.byte	0xf3
 1071 0048 01       		.uleb128 0x1
 1072 0049 50       		.byte	0x50
 1073 004a 9F       		.byte	0x9f
 1074 004b 00000000 		.4byte	0
 1075 004f 00000000 		.4byte	0
 1076              	.LLST1:
 1077 0053 00000000 		.4byte	.LVL9
ARM GAS  /tmp/ccG24TTc.s 			page 20


 1078 0057 06000000 		.4byte	.LVL10
 1079 005b 0100     		.2byte	0x1
 1080 005d 50       		.byte	0x50
 1081 005e 06000000 		.4byte	.LVL10
 1082 0062 34000000 		.4byte	.LVL16
 1083 0066 0100     		.2byte	0x1
 1084 0068 54       		.byte	0x54
 1085 0069 34000000 		.4byte	.LVL16
 1086 006d 38000000 		.4byte	.LFE123
 1087 0071 0400     		.2byte	0x4
 1088 0073 F3       		.byte	0xf3
 1089 0074 01       		.uleb128 0x1
 1090 0075 50       		.byte	0x50
 1091 0076 9F       		.byte	0x9f
 1092 0077 00000000 		.4byte	0
 1093 007b 00000000 		.4byte	0
 1094              		.section	.debug_aranges,"",%progbits
 1095 0000 3C000000 		.4byte	0x3c
 1096 0004 0200     		.2byte	0x2
 1097 0006 00000000 		.4byte	.Ldebug_info0
 1098 000a 04       		.byte	0x4
 1099 000b 00       		.byte	0
 1100 000c 0000     		.2byte	0
 1101 000e 0000     		.2byte	0
 1102 0010 00000000 		.4byte	.LFB119
 1103 0014 24000000 		.4byte	.LFE119-.LFB119
 1104 0018 00000000 		.4byte	.LFB120
 1105 001c 24000000 		.4byte	.LFE120-.LFB120
 1106 0020 00000000 		.4byte	.LFB121
 1107 0024 28000000 		.4byte	.LFE121-.LFB121
 1108 0028 00000000 		.4byte	.LFB122
 1109 002c 2C000000 		.4byte	.LFE122-.LFB122
 1110 0030 00000000 		.4byte	.LFB123
 1111 0034 38000000 		.4byte	.LFE123-.LFB123
 1112 0038 00000000 		.4byte	0
 1113 003c 00000000 		.4byte	0
 1114              		.section	.debug_ranges,"",%progbits
 1115              	.Ldebug_ranges0:
 1116 0000 00000000 		.4byte	.LFB119
 1117 0004 24000000 		.4byte	.LFE119
 1118 0008 00000000 		.4byte	.LFB120
 1119 000c 24000000 		.4byte	.LFE120
 1120 0010 00000000 		.4byte	.LFB121
 1121 0014 28000000 		.4byte	.LFE121
 1122 0018 00000000 		.4byte	.LFB122
 1123 001c 2C000000 		.4byte	.LFE122
 1124 0020 00000000 		.4byte	.LFB123
 1125 0024 38000000 		.4byte	.LFE123
 1126 0028 00000000 		.4byte	0
 1127 002c 00000000 		.4byte	0
 1128              		.section	.debug_line,"",%progbits
 1129              	.Ldebug_line0:
 1130 0000 D4010000 		.section	.debug_str,"MS",%progbits,1
 1130      02005B01 
 1130      00000201 
 1130      FB0E0D00 
 1130      01010101 
ARM GAS  /tmp/ccG24TTc.s 			page 21


 1131              	.LASF20:
 1132 0000 4F535045 		.ascii	"OSPEEDR\000"
 1132      45445200 
 1133              	.LASF17:
 1134 0008 636C6561 		.ascii	"clear\000"
 1134      7200
 1135              	.LASF18:
 1136 000e 4D4F4445 		.ascii	"MODER\000"
 1136      5200
 1137              	.LASF14:
 1138 0014 73797374 		.ascii	"systime_t\000"
 1138      696D655F 
 1138      7400
 1139              	.LASF22:
 1140 001e 42535252 		.ascii	"BSRR\000"
 1140      00
 1141              	.LASF30:
 1142 0023 6C65645F 		.ascii	"led_toggle\000"
 1142      746F6767 
 1142      6C6500
 1143              	.LASF34:
 1144 002e 2F686F6D 		.ascii	"/home/brian/aithon/ProjectTemplate\000"
 1144      652F6272 
 1144      69616E2F 
 1144      61697468 
 1144      6F6E2F50 
 1145              	.LASF12:
 1146 0051 626F6F6C 		.ascii	"bool_t\000"
 1146      5F7400
 1147              	.LASF27:
 1148 0058 696F706F 		.ascii	"ioportmask_t\000"
 1148      72746D61 
 1148      736B5F74 
 1148      00
 1149              	.LASF19:
 1150 0065 4F545950 		.ascii	"OTYPER\000"
 1150      455200
 1151              	.LASF11:
 1152 006c 6C6F6E67 		.ascii	"long long unsigned int\000"
 1152      206C6F6E 
 1152      6720756E 
 1152      7369676E 
 1152      65642069 
 1153              	.LASF2:
 1154 0083 756E7369 		.ascii	"unsigned char\000"
 1154      676E6564 
 1154      20636861 
 1154      7200
 1155              	.LASF38:
 1156 0091 63685468 		.ascii	"chThdSleep\000"
 1156      64536C65 
 1156      657000
 1157              	.LASF29:
 1158 009c 6C65645F 		.ascii	"led_off\000"
 1158      6F666600 
 1159              	.LASF25:
 1160 00a4 41465248 		.ascii	"AFRH\000"
ARM GAS  /tmp/ccG24TTc.s 			page 22


 1160      00
 1161              	.LASF9:
 1162 00a9 6C6F6E67 		.ascii	"long unsigned int\000"
 1162      20756E73 
 1162      69676E65 
 1162      6420696E 
 1162      7400
 1163              	.LASF4:
 1164 00bb 73686F72 		.ascii	"short unsigned int\000"
 1164      7420756E 
 1164      7369676E 
 1164      65642069 
 1164      6E7400
 1165              	.LASF24:
 1166 00ce 4146524C 		.ascii	"AFRL\000"
 1166      00
 1167              	.LASF35:
 1168 00d3 62757474 		.ascii	"button_get\000"
 1168      6F6E5F67 
 1168      657400
 1169              	.LASF37:
 1170 00de 49544D5F 		.ascii	"ITM_RxBuffer\000"
 1170      52784275 
 1170      66666572 
 1170      00
 1171              	.LASF33:
 1172 00eb 2E2E2F41 		.ascii	"../AithonLibrary/Aithon.c\000"
 1172      6974686F 
 1172      6E4C6962 
 1172      72617279 
 1172      2F416974 
 1173              	.LASF28:
 1174 0105 6C65645F 		.ascii	"led_on\000"
 1174      6F6E00
 1175              	.LASF36:
 1176 010c 5F627574 		.ascii	"_buttons\000"
 1176      746F6E73 
 1176      00
 1177              	.LASF3:
 1178 0115 73686F72 		.ascii	"short int\000"
 1178      7420696E 
 1178      7400
 1179              	.LASF32:
 1180 011f 474E5520 		.ascii	"GNU C 4.8.3 20131129 (release) [ARM/embedded-4_8-br"
 1180      4320342E 
 1180      382E3320 
 1180      32303133 
 1180      31313239 
 1181 0152 616E6368 		.ascii	"anch revision 205641] -mcpu=cortex-m4 -mfloat-abi=s"
 1181      20726576 
 1181      6973696F 
 1181      6E203230 
 1181      35363431 
 1182 0185 6F667466 		.ascii	"oftfp -mfpu=fpv4-sp-d16 -mno-thumb-interwork -mthum"
 1182      70202D6D 
 1182      6670753D 
 1182      66707634 
ARM GAS  /tmp/ccG24TTc.s 			page 23


 1182      2D73702D 
 1183 01b8 62202D67 		.ascii	"b -ggdb -O2 -fomit-frame-pointer -falign-functions="
 1183      67646220 
 1183      2D4F3220 
 1183      2D666F6D 
 1183      69742D66 
 1184 01eb 3136202D 		.ascii	"16 -fsingle-precision-constant -ffunction-sections "
 1184      6673696E 
 1184      676C652D 
 1184      70726563 
 1184      6973696F 
 1185 021e 2D666461 		.ascii	"-fdata-sections -fno-common\000"
 1185      74612D73 
 1185      65637469 
 1185      6F6E7320 
 1185      2D666E6F 
 1186              	.LASF0:
 1187 023a 756E7369 		.ascii	"unsigned int\000"
 1187      676E6564 
 1187      20696E74 
 1187      00
 1188              	.LASF26:
 1189 0247 4750494F 		.ascii	"GPIO_TypeDef\000"
 1189      5F547970 
 1189      65446566 
 1189      00
 1190              	.LASF16:
 1191 0254 63686172 		.ascii	"char\000"
 1191      00
 1192              	.LASF6:
 1193 0259 696E7433 		.ascii	"int32_t\000"
 1193      325F7400 
 1194              	.LASF15:
 1195 0261 73697A65 		.ascii	"sizetype\000"
 1195      74797065 
 1195      00
 1196              	.LASF31:
 1197 026a 62757474 		.ascii	"button_wait\000"
 1197      6F6E5F77 
 1197      61697400 
 1198              	.LASF10:
 1199 0276 6C6F6E67 		.ascii	"long long int\000"
 1199      206C6F6E 
 1199      6720696E 
 1199      7400
 1200              	.LASF21:
 1201 0284 50555044 		.ascii	"PUPDR\000"
 1201      5200
 1202              	.LASF5:
 1203 028a 75696E74 		.ascii	"uint16_t\000"
 1203      31365F74 
 1203      00
 1204              	.LASF8:
 1205 0293 75696E74 		.ascii	"uint32_t\000"
 1205      33325F74 
 1205      00
 1206              	.LASF7:
ARM GAS  /tmp/ccG24TTc.s 			page 24


 1207 029c 6C6F6E67 		.ascii	"long int\000"
 1207      20696E74 
 1207      00
 1208              	.LASF1:
 1209 02a5 7369676E 		.ascii	"signed char\000"
 1209      65642063 
 1209      68617200 
 1210              	.LASF13:
 1211 02b1 5F426F6F 		.ascii	"_Bool\000"
 1211      6C00
 1212              	.LASF23:
 1213 02b7 4C434B52 		.ascii	"LCKR\000"
 1213      00
 1214              		.ident	"GCC: (GNU Tools for ARM Embedded Processors) 4.8.3 20131129 (release) [ARM/embedded-4_8-br
ARM GAS  /tmp/ccG24TTc.s 			page 25


DEFINED SYMBOLS
                            *ABS*:0000000000000000 Aithon.c
     /tmp/ccG24TTc.s:20     .text.led_on:0000000000000000 $t
     /tmp/ccG24TTc.s:26     .text.led_on:0000000000000000 led_on
     /tmp/ccG24TTc.s:56     .text.led_on:000000000000001c $d
     /tmp/ccG24TTc.s:62     .text.led_off:0000000000000000 $t
     /tmp/ccG24TTc.s:68     .text.led_off:0000000000000000 led_off
     /tmp/ccG24TTc.s:97     .text.led_off:000000000000001c $d
     /tmp/ccG24TTc.s:103    .text.led_toggle:0000000000000000 $t
     /tmp/ccG24TTc.s:109    .text.led_toggle:0000000000000000 led_toggle
     /tmp/ccG24TTc.s:140    .text.led_toggle:0000000000000020 $d
     /tmp/ccG24TTc.s:146    .text.button_get:0000000000000000 $t
     /tmp/ccG24TTc.s:152    .text.button_get:0000000000000000 button_get
     /tmp/ccG24TTc.s:192    .text.button_get:0000000000000028 $d
     /tmp/ccG24TTc.s:199    .text.button_wait:0000000000000000 $t
     /tmp/ccG24TTc.s:205    .text.button_wait:0000000000000000 button_wait
                     .debug_frame:0000000000000010 $d
     /tmp/ccG24TTc.s:61     .text.led_on:0000000000000024 $t
     /tmp/ccG24TTc.s:102    .text.led_off:0000000000000024 $t
     /tmp/ccG24TTc.s:145    .text.led_toggle:0000000000000028 $t
     /tmp/ccG24TTc.s:198    .text.button_get:000000000000002c $t

UNDEFINED SYMBOLS
chThdSleep
