ARM GAS  /tmp/ccfMhyIo.s 			page 1


   1              		.syntax unified
   2              		.cpu cortex-m4
   3              		.eabi_attribute 27, 3
   4              		.fpu fpv4-sp-d16
   5              		.eabi_attribute 20, 1
   6              		.eabi_attribute 21, 1
   7              		.eabi_attribute 23, 3
   8              		.eabi_attribute 24, 1
   9              		.eabi_attribute 25, 1
  10              		.eabi_attribute 26, 1
  11              		.eabi_attribute 30, 2
  12              		.eabi_attribute 34, 1
  13              		.eabi_attribute 18, 4
  14              		.thumb
  15              		.file	"chcore_v7m.c"
  16              		.text
  17              	.Ltext0:
  18              		.cfi_sections	.debug_frame
  19              		.section	.text._port_switch_from_isr,"ax",%progbits
  20              		.align	2
  21              		.p2align 4,,15
  22              		.global	_port_switch_from_isr
  23              		.thumb
  24              		.thumb_func
  25              		.type	_port_switch_from_isr, %function
  26              	_port_switch_from_isr:
  27              	.LFB11:
  28              		.file 1 "../AithonLibrary/ChibiOS/os/ports/GCC/ARMCMx/chcore_v7m.c"
  29              		.loc 1 207 0
  30              		.cfi_startproc
  31              		@ Naked Function: prologue and epilogue provided by programmer.
  32              		@ args = 0, pretend = 0, frame = 0
  33              		@ frame_needed = 0, uses_anonymous_args = 0
  34              		.loc 1 210 0
  35 0000 FFF7FEFF 		bl	chSchDoReschedule
  36              	.LVL0:
  37              		.loc 1 212 0
  38              	@ 212 "../AithonLibrary/ChibiOS/os/ports/GCC/ARMCMx/chcore_v7m.c" 1
  39              		_port_exit_from_isr:
  40              	@ 0 "" 2
  41              		.loc 1 214 0
  42              	@ 214 "../AithonLibrary/ChibiOS/os/ports/GCC/ARMCMx/chcore_v7m.c" 1
  43 0004 00DF     		svc     #0
  44              	@ 0 "" 2
  45              		.loc 1 221 0
  46              		.thumb
  47              		.cfi_endproc
  48              	.LFE11:
  49              		.size	_port_switch_from_isr, .-_port_switch_from_isr
  50 0006 00BFAFF3 		.section	.text.SVCallVector,"ax",%progbits
  50      0080AFF3 
  50      0080
  51              		.align	2
  52              		.p2align 4,,15
  53              		.global	SVCallVector
  54              		.thumb
  55              		.thumb_func
ARM GAS  /tmp/ccfMhyIo.s 			page 2


  56              		.type	SVCallVector, %function
  57              	SVCallVector:
  58              	.LFB8:
  59              		.loc 1 65 0
  60              		.cfi_startproc
  61              		@ args = 0, pretend = 0, frame = 0
  62              		@ frame_needed = 0, uses_anonymous_args = 0
  63              		@ link register save eliminated.
  64              		.loc 1 69 0
  65              	@ 69 "../AithonLibrary/ChibiOS/os/ports/GCC/ARMCMx/chcore_v7m.c" 1
  66 0000 EFF30982 		mrs     r2, PSP
  67              	@ 0 "" 2
  68              	.LVL1:
  69              		.loc 1 77 0
  70              		.thumb
  71 0004 064B     		ldr	r3, .L3
  72 0006 D2F8CC10 		ldr	r1, [r2, #204]
  73 000a 5960     		str	r1, [r3, #4]
  74              		.loc 1 78 0
  75 000c 9968     		ldr	r1, [r3, #8]
  76 000e 6831     		adds	r1, r1, #104
  77              		.loc 1 73 0
  78 0010 6832     		adds	r2, r2, #104
  79              	.LVL2:
  80              		.loc 1 78 0
  81 0012 9960     		str	r1, [r3, #8]
  82              		.loc 1 80 0
  83              	@ 80 "../AithonLibrary/ChibiOS/os/ports/GCC/ARMCMx/chcore_v7m.c" 1
  84 0014 82F30988 		msr     PSP, r2
  85              	@ 0 "" 2
  86              		.thumb
  87              	.LBB2:
  88              		.loc 1 81 0
  89 0018 0023     		movs	r3, #0
  90              	@ 81 "../AithonLibrary/ChibiOS/os/ports/GCC/ARMCMx/chcore_v7m.c" 1
  91 001a 83F31188 		msr     BASEPRI, r3
  92              	@ 0 "" 2
  93              		.thumb
  94 001e 7047     		bx	lr
  95              	.L4:
  96              		.align	2
  97              	.L3:
  98 0020 30EF00E0 		.word	-536809680
  99              	.LBE2:
 100              		.cfi_endproc
 101              	.LFE8:
 102              		.size	SVCallVector, .-SVCallVector
 103 0024 AFF30080 		.section	.text._port_init,"ax",%progbits
 103      AFF30080 
 103      AFF30080 
 104              		.align	2
 105              		.p2align 4,,15
 106              		.global	_port_init
 107              		.thumb
 108              		.thumb_func
 109              		.type	_port_init, %function
 110              	_port_init:
ARM GAS  /tmp/ccfMhyIo.s 			page 3


 111              	.LFB9:
 112              		.loc 1 118 0
 113              		.cfi_startproc
 114              		@ args = 0, pretend = 0, frame = 0
 115              		@ frame_needed = 0, uses_anonymous_args = 0
 116 0000 08B5     		push	{r3, lr}
 117              		.cfi_def_cfa_offset 8
 118              		.cfi_offset 3, -8
 119              		.cfi_offset 14, -4
 120              		.loc 1 121 0
 121 0002 0A4B     		ldr	r3, .L6
 122              		.loc 1 122 0
 123 0004 0A4A     		ldr	r2, .L6+4
 124              		.loc 1 121 0
 125 0006 4FF48031 		mov	r1, #65536
 126 000a 9960     		str	r1, [r3, #8]
 127              		.loc 1 125 0
 128 000c 0720     		movs	r0, #7
 129              		.loc 1 122 0
 130 000e DA60     		str	r2, [r3, #12]
 131              		.loc 1 125 0
 132 0010 1021     		movs	r1, #16
 133 0012 FFF7FEFF 		bl	nvicSetSystemHandlerPriority
 134              	.LVL3:
 135              		.loc 1 127 0
 136 0016 0A20     		movs	r0, #10
 137 0018 2021     		movs	r1, #32
 138 001a FFF7FEFF 		bl	nvicSetSystemHandlerPriority
 139              	.LVL4:
 140              		.loc 1 129 0
 141 001e 0B20     		movs	r0, #11
 142 0020 8021     		movs	r1, #128
 143              		.loc 1 131 0
 144 0022 BDE80840 		pop	{r3, lr}
 145              		.loc 1 129 0
 146 0026 FFF7FEBF 		b	nvicSetSystemHandlerPriority
 147              	.LVL5:
 148              	.L7:
 149 002a 00BF     		.align	2
 150              	.L6:
 151 002c 00ED00E0 		.word	-536810240
 152 0030 0003FA05 		.word	100270848
 153              		.cfi_endproc
 154              	.LFE9:
 155              		.size	_port_init, .-_port_init
 156 0034 AFF30080 		.section	.text._port_irq_epilogue,"ax",%progbits
 156      AFF30080 
 156      AFF30080 
 157              		.align	2
 158              		.p2align 4,,15
 159              		.global	_port_irq_epilogue
 160              		.thumb
 161              		.thumb_func
 162              		.type	_port_irq_epilogue, %function
 163              	_port_irq_epilogue:
 164              	.LFB10:
 165              		.loc 1 148 0
ARM GAS  /tmp/ccfMhyIo.s 			page 4


 166              		.cfi_startproc
 167              		@ args = 0, pretend = 0, frame = 0
 168              		@ frame_needed = 0, uses_anonymous_args = 0
 169              		@ link register save eliminated.
 170              	.LBB3:
 171              		.loc 1 150 0
 172 0000 2023     		movs	r3, #32
 173              	@ 150 "../AithonLibrary/ChibiOS/os/ports/GCC/ARMCMx/chcore_v7m.c" 1
 174 0002 83F31188 		msr     BASEPRI, r3
 175              	@ 0 "" 2
 176              		.thumb
 177              	.LBE3:
 178              		.loc 1 151 0
 179 0006 1A4B     		ldr	r3, .L17
 180 0008 5B68     		ldr	r3, [r3, #4]
 181 000a 13F40063 		ands	r3, r3, #2048
 182 000e 21D0     		beq	.L9
 183              	.LBB4:
 184              		.loc 1 155 0
 185              	@ 155 "../AithonLibrary/ChibiOS/os/ports/GCC/ARMCMx/chcore_v7m.c" 1
 186 0010 EFF30983 		mrs     r3, PSP
 187              	@ 0 "" 2
 188              	.LVL6:
 189              		.loc 1 159 0
 190              		.thumb
 191 0014 A3F16802 		sub	r2, r3, #104
 192              	.LVL7:
 193              		.loc 1 160 0
 194              	@ 160 "../AithonLibrary/ChibiOS/os/ports/GCC/ARMCMx/chcore_v7m.c" 1
 195 0018 82F30988 		msr     PSP, r2
 196              	@ 0 "" 2
 197              		.loc 1 165 0
 198              		.thumb
 199 001c 1549     		ldr	r1, .L17+4
 200              		.loc 1 161 0
 201 001e 4FF08070 		mov	r0, #16777216
 202              		.loc 1 165 0
 203 0022 8A69     		ldr	r2, [r1, #24]
 204              	.LVL8:
 205              		.loc 1 161 0
 206 0024 43F84C0C 		str	r0, [r3, #-76]
 207              		.loc 1 165 0
 208 0028 D07F     		ldrb	r0, [r2, #31]	@ zero_extendqisi2
 209 002a 0968     		ldr	r1, [r1]
 210 002c 9268     		ldr	r2, [r2, #8]
 211 002e 8968     		ldr	r1, [r1, #8]
 212 0030 98B1     		cbz	r0, .L10
 213              		.loc 1 165 0 is_stmt 0 discriminator 1
 214 0032 9142     		cmp	r1, r2
 215 0034 94BF     		ite	ls
 216 0036 0022     		movls	r2, #0
 217 0038 0122     		movhi	r2, #1
 218 003a A2B1     		cbz	r2, .L12
 219              	.L16:
 220              		.loc 1 167 0 is_stmt 1
 221 003c 0E4A     		ldr	r2, .L17+8
 222 003e 43F8502C 		str	r2, [r3, #-80]
ARM GAS  /tmp/ccfMhyIo.s 			page 5


 223              		.loc 1 170 0
 224              	@ 170 "../AithonLibrary/ChibiOS/os/ports/GCC/ARMCMx/chcore_v7m.c" 1
 225 0042 F1EE10FA 		vmrs    APSR_nzcv, FPSCR
 226              	@ 0 "" 2
 227              		.thumb
 228              	.L13:
 229              	.LBB5:
 230              		.loc 1 185 0
 231 0046 0D4A     		ldr	r2, .L17+12
 232 0048 5168     		ldr	r1, [r2, #4]
 233              	.LVL9:
 234 004a 5966     		str	r1, [r3, #100]
 235              		.loc 1 189 0
 236 004c 41F00101 		orr	r1, r1, #1
 237              	.LVL10:
 238 0050 5160     		str	r1, [r2, #4]
 239              	.LBE5:
 240              		.loc 1 195 0
 241 0052 7047     		bx	lr
 242              	.LVL11:
 243              	.L9:
 244              	.LBE4:
 245              	.LBB6:
 246              		.loc 1 197 0
 247              	@ 197 "../AithonLibrary/ChibiOS/os/ports/GCC/ARMCMx/chcore_v7m.c" 1
 248 0054 83F31188 		msr     BASEPRI, r3
 249              	@ 0 "" 2
 250              		.thumb
 251 0058 7047     		bx	lr
 252              	.LVL12:
 253              	.L10:
 254              	.LBE6:
 255              	.LBB7:
 256              		.loc 1 165 0 discriminator 2
 257 005a 9142     		cmp	r1, r2
 258 005c 34BF     		ite	cc
 259 005e 0022     		movcc	r2, #0
 260 0060 0122     		movcs	r2, #1
 261 0062 002A     		cmp	r2, #0
 262 0064 EAD1     		bne	.L16
 263              	.L12:
 264              		.loc 1 176 0
 265 0066 064A     		ldr	r2, .L17+16
 266 0068 43F8502C 		str	r2, [r3, #-80]
 267 006c EBE7     		b	.L13
 268              	.L18:
 269 006e 00BF     		.align	2
 270              	.L17:
 271 0070 00ED00E0 		.word	-536810240
 272 0074 00000000 		.word	rlist
 273 0078 00000000 		.word	_port_switch_from_isr
 274 007c 30EF00E0 		.word	-536809680
 275 0080 04000000 		.word	_port_exit_from_isr
 276              	.LBE7:
 277              		.cfi_endproc
 278              	.LFE10:
 279              		.size	_port_irq_epilogue, .-_port_irq_epilogue
ARM GAS  /tmp/ccfMhyIo.s 			page 6


 280 0084 AFF30080 		.section	.text.SysTickVector,"ax",%progbits
 280      AFF30080 
 280      AFF30080 
 281              		.align	2
 282              		.p2align 4,,15
 283              		.global	SysTickVector
 284              		.thumb
 285              		.thumb_func
 286              		.type	SysTickVector, %function
 287              	SysTickVector:
 288              	.LFB7:
 289              		.loc 1 47 0
 290              		.cfi_startproc
 291              		@ args = 0, pretend = 0, frame = 0
 292              		@ frame_needed = 0, uses_anonymous_args = 0
 293 0000 08B5     		push	{r3, lr}
 294              		.cfi_def_cfa_offset 8
 295              		.cfi_offset 3, -8
 296              		.cfi_offset 14, -4
 297              	.LBB8:
 298              		.loc 1 51 0
 299 0002 2023     		movs	r3, #32
 300              	@ 51 "../AithonLibrary/ChibiOS/os/ports/GCC/ARMCMx/chcore_v7m.c" 1
 301 0004 83F31188 		msr     BASEPRI, r3
 302              	@ 0 "" 2
 303              		.thumb
 304              	.LBE8:
 305              		.loc 1 52 0
 306 0008 FFF7FEFF 		bl	chSysTimerHandlerI
 307              	.LVL13:
 308              	.LBB9:
 309              		.loc 1 53 0
 310 000c 0023     		movs	r3, #0
 311              	@ 53 "../AithonLibrary/ChibiOS/os/ports/GCC/ARMCMx/chcore_v7m.c" 1
 312 000e 83F31188 		msr     BASEPRI, r3
 313              	@ 0 "" 2
 314              		.thumb
 315              	.LBE9:
 316              		.loc 1 56 0
 317 0012 BDE80840 		pop	{r3, lr}
 318              		.loc 1 55 0
 319 0016 FFF7FEBF 		b	_port_irq_epilogue
 320              	.LVL14:
 321              		.cfi_endproc
 322              	.LFE7:
 323              		.size	SysTickVector, .-SysTickVector
 324 001a 00BFAFF3 		.section	.text._port_switch,"ax",%progbits
 324      0080
 325              		.align	2
 326              		.p2align 4,,15
 327              		.global	_port_switch
 328              		.thumb
 329              		.thumb_func
 330              		.type	_port_switch, %function
 331              	_port_switch:
 332              	.LFB12:
 333              		.loc 1 236 0
ARM GAS  /tmp/ccfMhyIo.s 			page 7


 334              		.cfi_startproc
 335              		@ Naked Function: prologue and epilogue provided by programmer.
 336              		@ args = 0, pretend = 0, frame = 0
 337              		@ frame_needed = 0, uses_anonymous_args = 0
 338              	.LVL15:
 339              		.loc 1 238 0
 340              	@ 238 "../AithonLibrary/ChibiOS/os/ports/GCC/ARMCMx/chcore_v7m.c" 1
 341 0000 2DE9F04F 		push    {r4, r5, r6, r7, r8, r9, r10, r11, lr}
 342              	@ 0 "" 2
 343              		.loc 1 241 0
 344              	@ 241 "../AithonLibrary/ChibiOS/os/ports/GCC/ARMCMx/chcore_v7m.c" 1
 345 0004 2DED108A 		vpush   {s16-s31}
 346              	@ 0 "" 2
 347              		.loc 1 244 0
 348              	@ 244 "../AithonLibrary/ChibiOS/os/ports/GCC/ARMCMx/chcore_v7m.c" 1
 349 0008 C1F80CD0 		str     sp, [r1, #12]                          
 350 000c D0F80CD0 		ldr     sp, [r0, #12]
 351              	@ 0 "" 2
 352              		.loc 1 248 0
 353              	@ 248 "../AithonLibrary/ChibiOS/os/ports/GCC/ARMCMx/chcore_v7m.c" 1
 354 0010 BDEC108A 		vpop    {s16-s31}
 355              	@ 0 "" 2
 356              		.loc 1 250 0
 357              	@ 250 "../AithonLibrary/ChibiOS/os/ports/GCC/ARMCMx/chcore_v7m.c" 1
 358 0014 BDE8F08F 		pop     {r4, r5, r6, r7, r8, r9, r10, r11, pc}
 359              	@ 0 "" 2
 360              		.loc 1 252 0
 361              		.thumb
 362              		.cfi_endproc
 363              	.LFE12:
 364              		.size	_port_switch, .-_port_switch
 365 0018 AFF30080 		.section	.text._port_thread_start,"ax",%progbits
 365      AFF30080 
 366              		.align	2
 367              		.p2align 4,,15
 368              		.global	_port_thread_start
 369              		.thumb
 370              		.thumb_func
 371              		.type	_port_thread_start, %function
 372              	_port_thread_start:
 373              	.LFB13:
 374              		.loc 1 259 0
 375              		.cfi_startproc
 376              		@ args = 0, pretend = 0, frame = 0
 377              		@ frame_needed = 0, uses_anonymous_args = 0
 378              		@ link register save eliminated.
 379              	.LBB10:
 380              		.loc 1 261 0
 381 0000 0023     		movs	r3, #0
 382              	@ 261 "../AithonLibrary/ChibiOS/os/ports/GCC/ARMCMx/chcore_v7m.c" 1
 383 0002 83F31188 		msr     BASEPRI, r3
 384              	@ 0 "" 2
 385              		.thumb
 386              	.LBE10:
 387              		.loc 1 262 0
 388              	@ 262 "../AithonLibrary/ChibiOS/os/ports/GCC/ARMCMx/chcore_v7m.c" 1
 389 0006 2846     		mov     r0, r5                                 
ARM GAS  /tmp/ccfMhyIo.s 			page 8


 390 0008 A047     		blx     r4                                     
 391 000a FFF7FEFF 		bl      chThdExit
 392              	@ 0 "" 2
 393              		.thumb
 394 000e 7047     		bx	lr
 395              		.cfi_endproc
 396              	.LFE13:
 397              		.size	_port_thread_start, .-_port_thread_start
 398              		.text
 399              	.Letext0:
 400              		.file 2 "/usr/arm-none-eabi/include/stdint.h"
 401              		.file 3 "../AithonLibrary/ChibiOS/os/ports/GCC/ARMCMx/chtypes.h"
 402              		.file 4 "../AithonLibrary/ChibiOS/os/kernel/include/chlists.h"
 403              		.file 5 "../AithonLibrary/ChibiOS/os/kernel/include/chthreads.h"
 404              		.file 6 "../AithonLibrary/ChibiOS/os/ports/GCC/ARMCMx/chcore_v7m.h"
 405              		.file 7 "../AithonLibrary/ChibiOS/os/ports/common/ARMCMx/nvic.h"
 406              		.file 8 "../AithonLibrary/ChibiOS/os/kernel/include/chschd.h"
 407              		.file 9 "../AithonLibrary/ChibiOS/os/kernel/include/chmtx.h"
 408              		.file 10 "../AithonLibrary/ChibiOS/os/kernel/include/chsys.h"