ARM GAS  /tmp/ccMCTpc0.s 			page 1


   1              		.syntax unified
   2              		.cpu cortex-m4
   3              		.eabi_attribute 27, 3
   4              		.fpu fpv4-sp-d16
   5              		.eabi_attribute 20, 1
   6              		.eabi_attribute 21, 1
   7              		.eabi_attribute 23, 3
   8              		.eabi_attribute 24, 1
   9              		.eabi_attribute 25, 1
  10              		.eabi_attribute 26, 1
  11              		.eabi_attribute 30, 2
  12              		.eabi_attribute 34, 1
  13              		.eabi_attribute 18, 4
  14              		.thumb
  15              		.file	"chheap.c"
  16              		.text
  17              	.Ltext0:
  18              		.cfi_sections	.debug_frame
  19              		.section	.text._heap_init,"ax",%progbits
  20              		.align	2
  21              		.p2align 4,,15
  22              		.global	_heap_init
  23              		.thumb
  24              		.thumb_func
  25              		.type	_heap_init, %function
  26              	_heap_init:
  27              	.LFB7:
  28              		.file 1 "../AithonLibrary/ChibiOS/os/kernel/src/chheap.c"
  29              		.loc 1 75 0
  30              		.cfi_startproc
  31              		@ args = 0, pretend = 0, frame = 0
  32              		@ frame_needed = 0, uses_anonymous_args = 0
  33              		@ link register save eliminated.
  34              		.loc 1 76 0
  35 0000 044B     		ldr	r3, .L2
  36 0002 054A     		ldr	r2, .L2+4
  37 0004 1A60     		str	r2, [r3]
  38              		.loc 1 80 0
  39 0006 03F11000 		add	r0, r3, #16
  40              		.loc 1 77 0
  41 000a 0022     		movs	r2, #0
  42 000c 9A60     		str	r2, [r3, #8]
  43              		.loc 1 78 0
  44 000e DA60     		str	r2, [r3, #12]
  45              		.loc 1 80 0
  46 0010 FFF7FEBF 		b	chMtxInit
  47              	.LVL0:
  48              	.L3:
  49              		.align	2
  50              	.L2:
  51 0014 00000000 		.word	.LANCHOR0
  52 0018 00000000 		.word	chCoreAlloc
  53              		.cfi_endproc
  54              	.LFE7:
  55              		.size	_heap_init, .-_heap_init
  56 001c AFF30080 		.section	.text.chHeapInit,"ax",%progbits
  57              		.align	2
ARM GAS  /tmp/ccMCTpc0.s 			page 2


  58              		.p2align 4,,15
  59              		.global	chHeapInit
  60              		.thumb
  61              		.thumb_func
  62              		.type	chHeapInit, %function
  63              	chHeapInit:
  64              	.LFB8:
  65              		.loc 1 99 0
  66              		.cfi_startproc
  67              		@ args = 0, pretend = 0, frame = 0
  68              		@ frame_needed = 0, uses_anonymous_args = 0
  69              		@ link register save eliminated.
  70              	.LVL1:
  71              		.loc 1 104 0
  72 0000 0023     		movs	r3, #0
  73              		.loc 1 108 0
  74 0002 083A     		subs	r2, r2, #8
  75              	.LVL2:
  76              		.loc 1 105 0
  77 0004 8160     		str	r1, [r0, #8]
  78              		.loc 1 104 0
  79 0006 0360     		str	r3, [r0]
  80              	.LVL3:
  81              		.loc 1 106 0
  82 0008 C360     		str	r3, [r0, #12]
  83              		.loc 1 110 0
  84 000a 1030     		adds	r0, r0, #16
  85              	.LVL4:
  86              		.loc 1 108 0
  87 000c 4A60     		str	r2, [r1, #4]
  88              		.loc 1 107 0
  89 000e 0B60     		str	r3, [r1]
  90              		.loc 1 110 0
  91 0010 FFF7FEBF 		b	chMtxInit
  92              	.LVL5:
  93              		.cfi_endproc
  94              	.LFE8:
  95              		.size	chHeapInit, .-chHeapInit
  96 0014 AFF30080 		.section	.text.chHeapAlloc,"ax",%progbits
  96      AFF30080 
  96      AFF30080 
  97              		.align	2
  98              		.p2align 4,,15
  99              		.global	chHeapAlloc
 100              		.thumb
 101              		.thumb_func
 102              		.type	chHeapAlloc, %function
 103              	chHeapAlloc:
 104              	.LFB9:
 105              		.loc 1 132 0
 106              		.cfi_startproc
 107              		@ args = 0, pretend = 0, frame = 0
 108              		@ frame_needed = 0, uses_anonymous_args = 0
 109              	.LVL6:
 110 0000 F8B5     		push	{r3, r4, r5, r6, r7, lr}
 111              		.cfi_def_cfa_offset 24
 112              		.cfi_offset 3, -24
ARM GAS  /tmp/ccMCTpc0.s 			page 3


 113              		.cfi_offset 4, -20
 114              		.cfi_offset 5, -16
 115              		.cfi_offset 6, -12
 116              		.cfi_offset 7, -8
 117              		.cfi_offset 14, -4
 118              		.loc 1 136 0
 119 0002 1E4E     		ldr	r6, .L21
 120 0004 0028     		cmp	r0, #0
 121 0006 18BF     		it	ne
 122 0008 0646     		movne	r6, r0
 123              	.LVL7:
 124              		.loc 1 138 0
 125 000a 0731     		adds	r1, r1, #7
 126              	.LVL8:
 127              		.loc 1 140 0
 128 000c 06F11000 		add	r0, r6, #16
 129              		.loc 1 138 0
 130 0010 21F00705 		bic	r5, r1, #7
 131              	.LVL9:
 132              		.loc 1 139 0
 133 0014 06F10804 		add	r4, r6, #8
 134              	.LVL10:
 135              		.loc 1 140 0
 136 0018 FFF7FEFF 		bl	chMtxLock
 137              	.LVL11:
 138              		.loc 1 142 0
 139 001c 03E0     		b	.L7
 140              	.LVL12:
 141              	.L12:
 142              		.loc 1 144 0
 143 001e 5A68     		ldr	r2, [r3, #4]
 144 0020 9542     		cmp	r5, r2
 145 0022 11D9     		bls	.L20
 146 0024 1C46     		mov	r4, r3
 147              	.LVL13:
 148              	.L7:
 149              		.loc 1 142 0 discriminator 1
 150 0026 2368     		ldr	r3, [r4]
 151              	.LVL14:
 152 0028 002B     		cmp	r3, #0
 153 002a F8D1     		bne	.L12
 154              		.loc 1 167 0
 155 002c FFF7FEFF 		bl	chMtxUnlock
 156              	.LVL15:
 157              		.loc 1 171 0
 158 0030 3368     		ldr	r3, [r6]
 159 0032 0BB3     		cbz	r3, .L14
 160              		.loc 1 172 0
 161 0034 05F10800 		add	r0, r5, #8
 162 0038 9847     		blx	r3
 163              	.LVL16:
 164              		.loc 1 173 0
 165 003a E8B1     		cbz	r0, .L14
 166              		.loc 1 174 0
 167 003c 0660     		str	r6, [r0]
 168              		.loc 1 175 0
 169 003e 4560     		str	r5, [r0, #4]
ARM GAS  /tmp/ccMCTpc0.s 			page 4


 170              	.LVL17:
 171              		.loc 1 177 0
 172 0040 00F10804 		add	r4, r0, #8
 173              	.LVL18:
 174              	.L11:
 175              		.loc 1 181 0
 176 0044 2046     		mov	r0, r4
 177 0046 F8BD     		pop	{r3, r4, r5, r6, r7, pc}
 178              	.LVL19:
 179              	.L20:
 180              		.loc 1 145 0
 181 0048 05F10801 		add	r1, r5, #8
 182 004c 9142     		cmp	r1, r2
 183 004e 08D9     		bls	.L9
 184              		.loc 1 149 0
 185 0050 1A68     		ldr	r2, [r3]
 186 0052 2260     		str	r2, [r4]
 187              	.L10:
 188              		.loc 1 159 0
 189 0054 1C46     		mov	r4, r3
 190              	.LVL20:
 191 0056 44F8086B 		str	r6, [r4], #8
 192              		.loc 1 161 0
 193 005a FFF7FEFF 		bl	chMtxUnlock
 194              	.LVL21:
 195              		.loc 1 181 0
 196 005e 2046     		mov	r0, r4
 197 0060 F8BD     		pop	{r3, r4, r5, r6, r7, pc}
 198              	.LVL22:
 199              	.L9:
 200              		.loc 1 155 0
 201 0062 6FF00700 		mvn	r0, #7
 202 0066 401B     		subs	r0, r0, r5
 203              		.loc 1 153 0
 204 0068 5F18     		adds	r7, r3, r1
 205              	.LVL23:
 206              		.loc 1 155 0
 207 006a 0244     		add	r2, r2, r0
 208              		.loc 1 154 0
 209 006c 1868     		ldr	r0, [r3]
 210 006e 5850     		str	r0, [r3, r1]
 211              		.loc 1 155 0
 212 0070 7A60     		str	r2, [r7, #4]
 213              		.loc 1 156 0
 214 0072 2760     		str	r7, [r4]
 215              		.loc 1 157 0
 216 0074 5D60     		str	r5, [r3, #4]
 217 0076 EDE7     		b	.L10
 218              	.LVL24:
 219              	.L14:
 220              		.loc 1 180 0
 221 0078 0024     		movs	r4, #0
 222              	.LVL25:
 223 007a E3E7     		b	.L11
 224              	.L22:
 225              		.align	2
 226              	.L21:
ARM GAS  /tmp/ccMCTpc0.s 			page 5


 227 007c 00000000 		.word	.LANCHOR0
 228              		.cfi_endproc
 229              	.LFE9:
 230              		.size	chHeapAlloc, .-chHeapAlloc
 231              		.section	.text.chHeapFree,"ax",%progbits
 232              		.align	2
 233              		.p2align 4,,15
 234              		.global	chHeapFree
 235              		.thumb
 236              		.thumb_func
 237              		.type	chHeapFree, %function
 238              	chHeapFree:
 239              	.LFB10:
 240              		.loc 1 194 0
 241              		.cfi_startproc
 242              		@ args = 0, pretend = 0, frame = 0
 243              		@ frame_needed = 0, uses_anonymous_args = 0
 244              	.LVL26:
 245 0000 70B5     		push	{r4, r5, r6, lr}
 246              		.cfi_def_cfa_offset 16
 247              		.cfi_offset 4, -16
 248              		.cfi_offset 5, -12
 249              		.cfi_offset 6, -8
 250              		.cfi_offset 14, -4
 251              		.loc 1 194 0
 252 0002 0646     		mov	r6, r0
 253              		.loc 1 200 0
 254 0004 A0F10804 		sub	r4, r0, #8
 255              	.LVL27:
 256              		.loc 1 201 0
 257 0008 50F8080C 		ldr	r0, [r0, #-8]
 258              	.LVL28:
 259              		.loc 1 202 0
 260 000c 00F10805 		add	r5, r0, #8
 261              	.LVL29:
 262              		.loc 1 203 0
 263 0010 1030     		adds	r0, r0, #16
 264              	.LVL30:
 265 0012 FFF7FEFF 		bl	chMtxLock
 266              	.LVL31:
 267              		.loc 1 202 0
 268 0016 2B46     		mov	r3, r5
 269              	.LVL32:
 270              	.L30:
 271              		.loc 1 210 0
 272 0018 AB42     		cmp	r3, r5
 273 001a 04D0     		beq	.L24
 274              	.L35:
 275              		.loc 1 210 0 is_stmt 0 discriminator 2
 276 001c A342     		cmp	r3, r4
 277 001e 02D3     		bcc	.L24
 278 0020 1B68     		ldr	r3, [r3]
 279              	.LVL33:
 280              		.loc 1 210 0
 281 0022 AB42     		cmp	r3, r5
 282 0024 FAD1     		bne	.L35
 283              	.L24:
ARM GAS  /tmp/ccMCTpc0.s 			page 6


 284              		.loc 1 211 0 is_stmt 1 discriminator 1
 285 0026 1A68     		ldr	r2, [r3]
 286              		.loc 1 210 0 discriminator 1
 287 0028 1AB1     		cbz	r2, .L26
 288              		.loc 1 211 0
 289 002a 9442     		cmp	r4, r2
 290 002c 01D3     		bcc	.L26
 291 002e 1346     		mov	r3, r2
 292              	.LVL34:
 293              		.loc 1 229 0
 294 0030 F2E7     		b	.L30
 295              	.LVL35:
 296              	.L26:
 297              		.loc 1 216 0
 298 0032 56F8041C 		ldr	r1, [r6, #-4]
 299              		.loc 1 213 0
 300 0036 46F8082C 		str	r2, [r6, #-8]
 301              		.loc 1 214 0
 302 003a 1C60     		str	r4, [r3]
 303              		.loc 1 216 0
 304 003c 01F10802 		add	r2, r1, #8
 305 0040 56F8085C 		ldr	r5, [r6, #-8]
 306              	.LVL36:
 307 0044 A018     		adds	r0, r4, r2
 308 0046 A842     		cmp	r0, r5
 309 0048 09D0     		beq	.L36
 310              		.loc 1 221 0
 311 004a 5A68     		ldr	r2, [r3, #4]
 312 004c 02F10801 		add	r1, r2, #8
 313 0050 1944     		add	r1, r1, r3
 314 0052 8C42     		cmp	r4, r1
 315 0054 11D0     		beq	.L37
 316              	.L29:
 317              		.loc 1 233 0
 318 0056 BDE87040 		pop	{r4, r5, r6, lr}
 319              	.LVL37:
 320              		.loc 1 231 0
 321 005a FFF7FEBF 		b	chMtxUnlock
 322              	.LVL38:
 323              	.L36:
 324              		.loc 1 218 0
 325 005e 4068     		ldr	r0, [r0, #4]
 326              		.loc 1 219 0
 327 0060 A258     		ldr	r2, [r4, r2]
 328 0062 46F8082C 		str	r2, [r6, #-8]
 329              		.loc 1 218 0
 330 0066 0A18     		adds	r2, r1, r0
 331 0068 0832     		adds	r2, r2, #8
 332 006a 46F8042C 		str	r2, [r6, #-4]
 333              		.loc 1 221 0
 334 006e 5A68     		ldr	r2, [r3, #4]
 335 0070 02F10801 		add	r1, r2, #8
 336 0074 1944     		add	r1, r1, r3
 337 0076 8C42     		cmp	r4, r1
 338 0078 EDD1     		bne	.L29
 339              	.L37:
 340              		.loc 1 223 0
ARM GAS  /tmp/ccMCTpc0.s 			page 7


 341 007a 56F8040C 		ldr	r0, [r6, #-4]
 342              		.loc 1 224 0
 343 007e 56F8081C 		ldr	r1, [r6, #-8]
 344 0082 1960     		str	r1, [r3]
 345              		.loc 1 223 0
 346 0084 0244     		add	r2, r2, r0
 347 0086 0832     		adds	r2, r2, #8
 348 0088 5A60     		str	r2, [r3, #4]
 349              		.loc 1 233 0
 350 008a BDE87040 		pop	{r4, r5, r6, lr}
 351              	.LVL39:
 352              		.loc 1 231 0
 353 008e FFF7FEBF 		b	chMtxUnlock
 354              	.LVL40:
 355              		.cfi_endproc
 356              	.LFE10:
 357              		.size	chHeapFree, .-chHeapFree
 358 0092 00BFAFF3 		.section	.text.chHeapStatus,"ax",%progbits
 358      0080AFF3 
 358      0080AFF3 
 358      0080
 359              		.align	2
 360              		.p2align 4,,15
 361              		.global	chHeapStatus
 362              		.thumb
 363              		.thumb_func
 364              		.type	chHeapStatus, %function
 365              	chHeapStatus:
 366              	.LFB11:
 367              		.loc 1 250 0
 368              		.cfi_startproc
 369              		@ args = 0, pretend = 0, frame = 0
 370              		@ frame_needed = 0, uses_anonymous_args = 0
 371              	.LVL41:
 372 0000 38B5     		push	{r3, r4, r5, lr}
 373              		.cfi_def_cfa_offset 16
 374              		.cfi_offset 3, -16
 375              		.cfi_offset 4, -12
 376              		.cfi_offset 5, -8
 377              		.cfi_offset 14, -4
 378              		.loc 1 255 0
 379 0002 0E4C     		ldr	r4, .L51
 380 0004 0028     		cmp	r0, #0
 381 0006 18BF     		it	ne
 382 0008 0446     		movne	r4, r0
 383              	.LVL42:
 384              		.loc 1 257 0
 385 000a 04F11000 		add	r0, r4, #16
 386              		.loc 1 250 0
 387 000e 0D46     		mov	r5, r1
 388              		.loc 1 257 0
 389 0010 FFF7FEFF 		bl	chMtxLock
 390              	.LVL43:
 391              		.loc 1 260 0
 392 0014 A368     		ldr	r3, [r4, #8]
 393 0016 6BB1     		cbz	r3, .L44
 394              		.loc 1 259 0
ARM GAS  /tmp/ccMCTpc0.s 			page 8


 395 0018 0022     		movs	r2, #0
 396              		.loc 1 260 0
 397 001a 1446     		mov	r4, r2
 398              	.LVL44:
 399              	.L41:
 400              		.loc 1 261 0 discriminator 2
 401 001c 5868     		ldr	r0, [r3, #4]
 402              		.loc 1 260 0 discriminator 2
 403 001e 1B68     		ldr	r3, [r3]
 404 0020 0134     		adds	r4, r4, #1
 405              	.LVL45:
 406              		.loc 1 261 0 discriminator 2
 407 0022 0244     		add	r2, r2, r0
 408              	.LVL46:
 409              		.loc 1 260 0 discriminator 2
 410 0024 002B     		cmp	r3, #0
 411 0026 F9D1     		bne	.L41
 412              	.LVL47:
 413              	.L40:
 414              		.loc 1 262 0
 415 0028 05B1     		cbz	r5, .L42
 416              		.loc 1 263 0
 417 002a 2A60     		str	r2, [r5]
 418              	.L42:
 419              		.loc 1 265 0
 420 002c FFF7FEFF 		bl	chMtxUnlock
 421              	.LVL48:
 422              		.loc 1 267 0
 423 0030 2046     		mov	r0, r4
 424 0032 38BD     		pop	{r3, r4, r5, pc}
 425              	.LVL49:
 426              	.L44:
 427              		.loc 1 259 0
 428 0034 1A46     		mov	r2, r3
 429              		.loc 1 260 0
 430 0036 1C46     		mov	r4, r3
 431              	.LVL50:
 432 0038 F6E7     		b	.L40
 433              	.L52:
 434 003a 00BF     		.align	2
 435              	.L51:
 436 003c 00000000 		.word	.LANCHOR0
 437              		.cfi_endproc
 438              	.LFE11:
 439              		.size	chHeapStatus, .-chHeapStatus
 440              		.section	.bss.default_heap,"aw",%nobits
 441              		.align	3
 442              		.set	.LANCHOR0,. + 0
 443              		.type	default_heap, %object
 444              		.size	default_heap, 32
 445              	default_heap:
 446 0000 00000000 		.space	32
 446      00000000 
 446      00000000 
 446      00000000 
 446      00000000 
 447              		.text
ARM GAS  /tmp/ccMCTpc0.s 			page 9


 448              	.Letext0:
 449              		.file 2 "/usr/lib/gcc/arm-none-eabi/4.8.3/include/stddef.h"
 450              		.file 3 "/usr/arm-none-eabi/include/stdint.h"
 451              		.file 4 "../AithonLibrary/ChibiOS/os/ports/GCC/ARMCMx/chtypes.h"
 452              		.file 5 "../AithonLibrary/ChibiOS/os/kernel/include/chlists.h"
 453              		.file 6 "../AithonLibrary/ChibiOS/os/kernel/include/chthreads.h"
 454              		.file 7 "../AithonLibrary/ChibiOS/os/ports/GCC/ARMCMx/chcore_v7m.h"
 455              		.file 8 "../AithonLibrary/ChibiOS/os/kernel/include/chmtx.h"
 456              		.file 9 "../AithonLibrary/ChibiOS/os/kernel/include/chmemcore.h"
 457              		.file 10 "../AithonLibrary/ChibiOS/os/kernel/include/chheap.h"