ARM GAS  /tmp/cc2tWnDU.s 			page 1


   1              		.syntax unified
   2              		.cpu cortex-m4
   3              		.eabi_attribute 27, 3
   4              		.fpu fpv4-sp-d16
   5              		.eabi_attribute 20, 1
   6              		.eabi_attribute 21, 1
   7              		.eabi_attribute 23, 3
   8              		.eabi_attribute 24, 1
   9              		.eabi_attribute 25, 1
  10              		.eabi_attribute 26, 1
  11              		.eabi_attribute 30, 2
  12              		.eabi_attribute 34, 1
  13              		.eabi_attribute 18, 4
  14              		.thumb
  15              		.file	"chmemcore.c"
  16              		.text
  17              	.Ltext0:
  18              		.cfi_sections	.debug_frame
  19              		.section	.text._core_init,"ax",%progbits
  20              		.align	2
  21              		.p2align 4,,15
  22              		.global	_core_init
  23              		.thumb
  24              		.thumb_func
  25              		.type	_core_init, %function
  26              	_core_init:
  27              	.LFB7:
  28              		.file 1 "../AithonLibrary/ChibiOS/os/kernel/src/chmemcore.c"
  29              		.loc 1 66 0
  30              		.cfi_startproc
  31              		@ args = 0, pretend = 0, frame = 0
  32              		@ frame_needed = 0, uses_anonymous_args = 0
  33              		@ link register save eliminated.
  34              		.loc 1 70 0
  35 0000 0548     		ldr	r0, .L2
  36              		.loc 1 71 0
  37 0002 064A     		ldr	r2, .L2+4
  38              		.loc 1 70 0
  39 0004 0649     		ldr	r1, .L2+8
  40              		.loc 1 71 0
  41 0006 074B     		ldr	r3, .L2+12
  42              		.loc 1 70 0
  43 0008 20F00700 		bic	r0, r0, #7
  44              		.loc 1 71 0
  45 000c 22F00702 		bic	r2, r2, #7
  46              		.loc 1 70 0
  47 0010 0860     		str	r0, [r1]
  48              		.loc 1 71 0
  49 0012 1A60     		str	r2, [r3]
  50 0014 7047     		bx	lr
  51              	.L3:
  52 0016 00BF     		.align	2
  53              	.L2:
  54 0018 07000000 		.word	__heap_base__+7
  55 001c 00000000 		.word	__heap_end__
  56 0020 00000000 		.word	.LANCHOR0
  57 0024 00000000 		.word	.LANCHOR1
ARM GAS  /tmp/cc2tWnDU.s 			page 2


  58              		.cfi_endproc
  59              	.LFE7:
  60              		.size	_core_init, .-_core_init
  61 0028 AFF30080 		.section	.text.chCoreAlloc,"ax",%progbits
  61      AFF30080 
  62              		.align	2
  63              		.p2align 4,,15
  64              		.global	chCoreAlloc
  65              		.thumb
  66              		.thumb_func
  67              		.type	chCoreAlloc, %function
  68              	chCoreAlloc:
  69              	.LFB8:
  70              		.loc 1 91 0
  71              		.cfi_startproc
  72              		@ args = 0, pretend = 0, frame = 0
  73              		@ frame_needed = 0, uses_anonymous_args = 0
  74              		@ link register save eliminated.
  75              	.LVL0:
  76              	.LBB6:
  77              		.loc 1 94 0
  78 0000 2023     		movs	r3, #32
  79              	@ 94 "../AithonLibrary/ChibiOS/os/kernel/src/chmemcore.c" 1
  80 0002 83F31188 		msr     BASEPRI, r3
  81              	@ 0 "" 2
  82              	.LVL1:
  83              		.thumb
  84              	.LBE6:
  85              	.LBB7:
  86              	.LBB8:
  87              		.loc 1 118 0
  88 0006 094A     		ldr	r2, .L7
  89 0008 0949     		ldr	r1, .L7+4
  90 000a 1368     		ldr	r3, [r2]
  91 000c 0968     		ldr	r1, [r1]
  92              		.loc 1 117 0
  93 000e 0730     		adds	r0, r0, #7
  94              	.LVL2:
  95 0010 20F00700 		bic	r0, r0, #7
  96              	.LVL3:
  97              		.loc 1 118 0
  98 0014 C91A     		subs	r1, r1, r3
  99 0016 8842     		cmp	r0, r1
 100              	.LVL4:
 101              		.loc 1 121 0
 102 0018 9BBF     		ittet	ls
 103 001a C018     		addls	r0, r0, r3
 104              	.LVL5:
 105 001c 1060     		strls	r0, [r2]
 106              		.loc 1 119 0
 107 001e 0020     		movhi	r0, #0
 108              		.loc 1 122 0
 109 0020 1846     		movls	r0, r3
 110              	.LBE8:
 111              	.LBE7:
 112              	.LBB9:
 113              		.loc 1 96 0
ARM GAS  /tmp/cc2tWnDU.s 			page 3


 114 0022 0023     		movs	r3, #0
 115              	.LVL6:
 116              	@ 96 "../AithonLibrary/ChibiOS/os/kernel/src/chmemcore.c" 1
 117 0024 83F31188 		msr     BASEPRI, r3
 118              	@ 0 "" 2
 119              		.thumb
 120              	.LBE9:
 121              		.loc 1 98 0
 122 0028 7047     		bx	lr
 123              	.L8:
 124 002a 00BF     		.align	2
 125              	.L7:
 126 002c 00000000 		.word	.LANCHOR0
 127 0030 00000000 		.word	.LANCHOR1
 128              		.cfi_endproc
 129              	.LFE8:
 130              		.size	chCoreAlloc, .-chCoreAlloc
 131 0034 AFF30080 		.section	.text.chCoreAllocI,"ax",%progbits
 131      AFF30080 
 131      AFF30080 
 132              		.align	2
 133              		.p2align 4,,15
 134              		.global	chCoreAllocI
 135              		.thumb
 136              		.thumb_func
 137              		.type	chCoreAllocI, %function
 138              	chCoreAllocI:
 139              	.LFB9:
 140              		.loc 1 112 0
 141              		.cfi_startproc
 142              		@ args = 0, pretend = 0, frame = 0
 143              		@ frame_needed = 0, uses_anonymous_args = 0
 144              		@ link register save eliminated.
 145              	.LVL7:
 146              		.loc 1 118 0
 147 0000 074A     		ldr	r2, .L13
 148 0002 0849     		ldr	r1, .L13+4
 149 0004 1368     		ldr	r3, [r2]
 150 0006 0968     		ldr	r1, [r1]
 151              		.loc 1 117 0
 152 0008 0730     		adds	r0, r0, #7
 153              	.LVL8:
 154 000a 20F00700 		bic	r0, r0, #7
 155              	.LVL9:
 156              		.loc 1 118 0
 157 000e C91A     		subs	r1, r1, r3
 158 0010 8842     		cmp	r0, r1
 159 0012 03D8     		bhi	.L11
 160              	.LVL10:
 161              		.loc 1 121 0
 162 0014 1844     		add	r0, r0, r3
 163              	.LVL11:
 164 0016 1060     		str	r0, [r2]
 165              		.loc 1 122 0
 166 0018 1846     		mov	r0, r3
 167 001a 7047     		bx	lr
 168              	.LVL12:
ARM GAS  /tmp/cc2tWnDU.s 			page 4


 169              	.L11:
 170              		.loc 1 119 0
 171 001c 0020     		movs	r0, #0
 172              	.LVL13:
 173              		.loc 1 123 0
 174 001e 7047     		bx	lr
 175              	.L14:
 176              		.align	2
 177              	.L13:
 178 0020 00000000 		.word	.LANCHOR0
 179 0024 00000000 		.word	.LANCHOR1
 180              		.cfi_endproc
 181              	.LFE9:
 182              		.size	chCoreAllocI, .-chCoreAllocI
 183 0028 AFF30080 		.section	.text.chCoreStatus,"ax",%progbits
 183      AFF30080 
 184              		.align	2
 185              		.p2align 4,,15
 186              		.global	chCoreStatus
 187              		.thumb
 188              		.thumb_func
 189              		.type	chCoreStatus, %function
 190              	chCoreStatus:
 191              	.LFB10:
 192              		.loc 1 132 0
 193              		.cfi_startproc
 194              		@ args = 0, pretend = 0, frame = 0
 195              		@ frame_needed = 0, uses_anonymous_args = 0
 196              		@ link register save eliminated.
 197              		.loc 1 134 0
 198 0000 024A     		ldr	r2, .L16
 199 0002 034B     		ldr	r3, .L16+4
 200 0004 1068     		ldr	r0, [r2]
 201 0006 1B68     		ldr	r3, [r3]
 202              		.loc 1 135 0
 203 0008 C01A     		subs	r0, r0, r3
 204 000a 7047     		bx	lr
 205              	.L17:
 206              		.align	2
 207              	.L16:
 208 000c 00000000 		.word	.LANCHOR1
 209 0010 00000000 		.word	.LANCHOR0
 210              		.cfi_endproc
 211              	.LFE10:
 212              		.size	chCoreStatus, .-chCoreStatus
 213 0014 AFF30080 		.section	.bss.endmem,"aw",%nobits
 213      AFF30080 
 213      AFF30080 
 214              		.align	2
 215              		.set	.LANCHOR1,. + 0
 216              		.type	endmem, %object
 217              		.size	endmem, 4
 218              	endmem:
 219 0000 00000000 		.space	4
 220              		.section	.bss.nextmem,"aw",%nobits
 221              		.align	2
 222              		.set	.LANCHOR0,. + 0
ARM GAS  /tmp/cc2tWnDU.s 			page 5


 223              		.type	nextmem, %object
 224              		.size	nextmem, 4
 225              	nextmem:
 226 0000 00000000 		.space	4
 227              		.text
 228              	.Letext0:
 229              		.file 2 "/usr/lib/gcc/arm-none-eabi/4.8.3/include/stddef.h"
 230              		.file 3 "/usr/arm-none-eabi/include/stdint.h"