ARM GAS  /tmp/ccx30ula.s 			page 1


   1              		.syntax unified
   2              		.cpu cortex-m4
   3              		.eabi_attribute 27, 3
   4              		.fpu fpv4-sp-d16
   5              		.eabi_attribute 20, 1
   6              		.eabi_attribute 21, 1
   7              		.eabi_attribute 23, 3
   8              		.eabi_attribute 24, 1
   9              		.eabi_attribute 25, 1
  10              		.eabi_attribute 26, 1
  11              		.eabi_attribute 30, 2
  12              		.eabi_attribute 34, 1
  13              		.eabi_attribute 18, 4
  14              		.thumb
  15              		.file	"chmtx.c"
  16              		.text
  17              	.Ltext0:
  18              		.cfi_sections	.debug_frame
  19              		.section	.text.chMtxInit,"ax",%progbits
  20              		.align	2
  21              		.p2align 4,,15
  22              		.global	chMtxInit
  23              		.thumb
  24              		.thumb_func
  25              		.type	chMtxInit, %function
  26              	chMtxInit:
  27              	.LFB7:
  28              		.file 1 "../AithonLibrary/ChibiOS/os/kernel/src/chmtx.c"
  29              		.loc 1 86 0
  30              		.cfi_startproc
  31              		@ args = 0, pretend = 0, frame = 0
  32              		@ frame_needed = 0, uses_anonymous_args = 0
  33              		@ link register save eliminated.
  34              	.LVL0:
  35              		.loc 1 91 0
  36 0000 0023     		movs	r3, #0
  37              		.loc 1 90 0
  38 0002 4060     		str	r0, [r0, #4]
  39 0004 0060     		str	r0, [r0]
  40              		.loc 1 91 0
  41 0006 8360     		str	r3, [r0, #8]
  42 0008 7047     		bx	lr
  43              		.cfi_endproc
  44              	.LFE7:
  45              		.size	chMtxInit, .-chMtxInit
  46 000a 00BFAFF3 		.section	.text.chMtxLockS,"ax",%progbits
  46      0080
  47              		.align	2
  48              		.p2align 4,,15
  49              		.global	chMtxLockS
  50              		.thumb
  51              		.thumb_func
  52              		.type	chMtxLockS, %function
  53              	chMtxLockS:
  54              	.LFB9:
  55              		.loc 1 121 0
  56              		.cfi_startproc
ARM GAS  /tmp/ccx30ula.s 			page 2


  57              		@ args = 0, pretend = 0, frame = 0
  58              		@ frame_needed = 0, uses_anonymous_args = 0
  59              	.LVL1:
  60 0000 70B5     		push	{r4, r5, r6, lr}
  61              		.cfi_def_cfa_offset 16
  62              		.cfi_offset 4, -16
  63              		.cfi_offset 5, -12
  64              		.cfi_offset 6, -8
  65              		.cfi_offset 14, -4
  66              		.loc 1 122 0
  67 0002 2F4B     		ldr	r3, .L23
  68              		.loc 1 121 0
  69 0004 0546     		mov	r5, r0
  70              		.loc 1 128 0
  71 0006 8068     		ldr	r0, [r0, #8]
  72              	.LVL2:
  73              		.loc 1 122 0
  74 0008 9C69     		ldr	r4, [r3, #24]
  75              	.LVL3:
  76              		.loc 1 128 0
  77 000a 0028     		cmp	r0, #0
  78 000c 53D0     		beq	.L3
  79              	.LVL4:
  80              	.LBB33:
  81              		.loc 1 135 0 discriminator 1
  82 000e A268     		ldr	r2, [r4, #8]
  83 0010 8368     		ldr	r3, [r0, #8]
  84 0012 9A42     		cmp	r2, r3
  85 0014 06D9     		bls	.L5
  86              	.L14:
  87              		.loc 1 139 0
  88 0016 037F     		ldrb	r3, [r0, #28]	@ zero_extendqisi2
  89              		.loc 1 137 0
  90 0018 8260     		str	r2, [r0, #8]
  91              		.loc 1 139 0
  92 001a 042B     		cmp	r3, #4
  93 001c 32D0     		beq	.L6
  94 001e 052B     		cmp	r3, #5
  95 0020 1CD0     		beq	.L7
  96 0022 9BB1     		cbz	r3, .L22
  97              	.LVL5:
  98              	.L5:
  99              	.LBB34:
 100              	.LBB35:
 101              		.file 2 "../AithonLibrary/ChibiOS/os/kernel/include/chinline.h"
 102              		.loc 2 43 0
 103 0024 2B46     		mov	r3, r5
 104 0026 03E0     		b	.L20
 105              	.LVL6:
 106              	.L18:
 107              		.loc 2 46 0
 108 0028 9968     		ldr	r1, [r3, #8]
 109 002a A268     		ldr	r2, [r4, #8]
 110 002c 9142     		cmp	r1, r2
 111 002e 02D3     		bcc	.L19
 112              	.L20:
 113              		.loc 2 45 0
ARM GAS  /tmp/ccx30ula.s 			page 3


 114 0030 1B68     		ldr	r3, [r3]
 115              	.LVL7:
 116              		.loc 2 46 0
 117 0032 9D42     		cmp	r5, r3
 118 0034 F8D1     		bne	.L18
 119              	.L19:
 120              		.loc 2 48 0
 121 0036 5A68     		ldr	r2, [r3, #4]
 122 0038 6260     		str	r2, [r4, #4]
 123              		.loc 2 47 0
 124 003a 2360     		str	r3, [r4]
 125              		.loc 2 49 0
 126 003c 5C60     		str	r4, [r3, #4]
 127 003e 1460     		str	r4, [r2]
 128              	.LBE35:
 129              	.LBE34:
 130              		.loc 1 174 0
 131 0040 6562     		str	r5, [r4, #36]
 132              		.loc 1 175 0
 133 0042 0420     		movs	r0, #4
 134              	.LBE33:
 135              		.loc 1 187 0
 136 0044 BDE87040 		pop	{r4, r5, r6, lr}
 137              	.LVL8:
 138              	.LBB50:
 139              		.loc 1 175 0
 140 0048 FFF7FEBF 		b	chSchGoSleepS
 141              	.LVL9:
 142              	.L22:
 143              	.LBB36:
 144              	.LBB37:
 145              		.loc 2 75 0
 146 004c 90E80C00 		ldmia	r0, {r2, r3}
 147 0050 1A60     		str	r2, [r3]
 148              		.loc 2 76 0
 149 0052 0268     		ldr	r2, [r0]
 150 0054 5360     		str	r3, [r2, #4]
 151              	.LBE37:
 152              	.LBE36:
 153              		.loc 1 167 0
 154 0056 FFF7FEFF 		bl	chSchReadyI
 155              	.LVL10:
 156              		.loc 1 168 0
 157 005a E3E7     		b	.L5
 158              	.LVL11:
 159              	.L7:
 160              	.LBB38:
 161              	.LBB39:
 162              		.loc 2 75 0
 163 005c 90E80A00 		ldmia	r0, {r1, r3}
 164 0060 1960     		str	r1, [r3]
 165              	.LBE39:
 166              	.LBE38:
 167              		.loc 1 158 0
 168 0062 466A     		ldr	r6, [r0, #36]
 169              	.LVL12:
 170              	.LBB41:
ARM GAS  /tmp/ccx30ula.s 			page 4


 171              	.LBB40:
 172              		.loc 2 76 0
 173 0064 0168     		ldr	r1, [r0]
 174 0066 4B60     		str	r3, [r1, #4]
 175              	.LBE40:
 176              	.LBE41:
 177              	.LBB42:
 178              	.LBB43:
 179              		.loc 2 43 0
 180 0068 3346     		mov	r3, r6
 181 006a 02E0     		b	.L17
 182              	.LVL13:
 183              	.L15:
 184              		.loc 2 46 0
 185 006c 9968     		ldr	r1, [r3, #8]
 186 006e 9142     		cmp	r1, r2
 187 0070 02D3     		bcc	.L16
 188              	.L17:
 189              		.loc 2 45 0
 190 0072 1B68     		ldr	r3, [r3]
 191              	.LVL14:
 192              		.loc 2 46 0
 193 0074 9E42     		cmp	r6, r3
 194 0076 F9D1     		bne	.L15
 195              	.L16:
 196              		.loc 2 48 0
 197 0078 5A68     		ldr	r2, [r3, #4]
 198 007a 4260     		str	r2, [r0, #4]
 199              		.loc 2 47 0
 200 007c 0360     		str	r3, [r0]
 201              		.loc 2 49 0
 202 007e 5860     		str	r0, [r3, #4]
 203 0080 1060     		str	r0, [r2]
 204 0082 CFE7     		b	.L5
 205              	.LVL15:
 206              	.L6:
 207              	.LBE43:
 208              	.LBE42:
 209              	.LBB44:
 210              	.LBB45:
 211              		.loc 2 75 0
 212 0084 90E80A00 		ldmia	r0, {r1, r3}
 213 0088 1960     		str	r1, [r3]
 214              	.LBE45:
 215              	.LBE44:
 216              		.loc 1 142 0
 217 008a 466A     		ldr	r6, [r0, #36]
 218              	.LVL16:
 219              	.LBB47:
 220              	.LBB46:
 221              		.loc 2 76 0
 222 008c 0168     		ldr	r1, [r0]
 223 008e 4B60     		str	r3, [r1, #4]
 224              	.LBE46:
 225              	.LBE47:
 226              		.loc 1 142 0
 227 0090 3346     		mov	r3, r6
ARM GAS  /tmp/ccx30ula.s 			page 5


 228 0092 02E0     		b	.L13
 229              	.LVL17:
 230              	.L9:
 231              	.LBB48:
 232              	.LBB49:
 233              		.loc 2 46 0
 234 0094 9968     		ldr	r1, [r3, #8]
 235 0096 9142     		cmp	r1, r2
 236 0098 02D3     		bcc	.L12
 237              	.L13:
 238              		.loc 2 45 0
 239 009a 1B68     		ldr	r3, [r3]
 240              	.LVL18:
 241              		.loc 2 46 0
 242 009c 9E42     		cmp	r6, r3
 243 009e F9D1     		bne	.L9
 244              	.L12:
 245              		.loc 2 48 0
 246 00a0 5A68     		ldr	r2, [r3, #4]
 247 00a2 4260     		str	r2, [r0, #4]
 248              		.loc 2 47 0
 249 00a4 0360     		str	r3, [r0]
 250              		.loc 2 49 0
 251 00a6 5860     		str	r0, [r3, #4]
 252 00a8 1060     		str	r0, [r2]
 253              	.LBE49:
 254              	.LBE48:
 255              		.loc 1 143 0
 256 00aa B068     		ldr	r0, [r6, #8]
 257              	.LVL19:
 258              		.loc 1 135 0
 259 00ac A268     		ldr	r2, [r4, #8]
 260 00ae 8368     		ldr	r3, [r0, #8]
 261              	.LVL20:
 262 00b0 9342     		cmp	r3, r2
 263 00b2 B0D3     		bcc	.L14
 264 00b4 B6E7     		b	.L5
 265              	.LVL21:
 266              	.L3:
 267              	.LBE50:
 268              		.loc 1 184 0
 269 00b6 E36B     		ldr	r3, [r4, #60]
 270 00b8 EB60     		str	r3, [r5, #12]
 271              		.loc 1 183 0
 272 00ba AC60     		str	r4, [r5, #8]
 273              		.loc 1 185 0
 274 00bc E563     		str	r5, [r4, #60]
 275 00be 70BD     		pop	{r4, r5, r6, pc}
 276              	.LVL22:
 277              	.L24:
 278              		.align	2
 279              	.L23:
 280 00c0 00000000 		.word	rlist
 281              		.cfi_endproc
 282              	.LFE9:
 283              		.size	chMtxLockS, .-chMtxLockS
 284 00c4 AFF30080 		.section	.text.chMtxLock,"ax",%progbits
ARM GAS  /tmp/ccx30ula.s 			page 6


 284      AFF30080 
 284      AFF30080 
 285              		.align	2
 286              		.p2align 4,,15
 287              		.global	chMtxLock
 288              		.thumb
 289              		.thumb_func
 290              		.type	chMtxLock, %function
 291              	chMtxLock:
 292              	.LFB8:
 293              		.loc 1 103 0
 294              		.cfi_startproc
 295              		@ args = 0, pretend = 0, frame = 0
 296              		@ frame_needed = 0, uses_anonymous_args = 0
 297              	.LVL23:
 298 0000 08B5     		push	{r3, lr}
 299              		.cfi_def_cfa_offset 8
 300              		.cfi_offset 3, -8
 301              		.cfi_offset 14, -4
 302              	.LBB51:
 303              		.loc 1 105 0
 304 0002 2023     		movs	r3, #32
 305              	@ 105 "../AithonLibrary/ChibiOS/os/kernel/src/chmtx.c" 1
 306 0004 83F31188 		msr     BASEPRI, r3
 307              	@ 0 "" 2
 308              		.thumb
 309              	.LBE51:
 310              		.loc 1 107 0
 311 0008 FFF7FEFF 		bl	chMtxLockS
 312              	.LVL24:
 313              	.LBB52:
 314              		.loc 1 109 0
 315 000c 0023     		movs	r3, #0
 316              	@ 109 "../AithonLibrary/ChibiOS/os/kernel/src/chmtx.c" 1
 317 000e 83F31188 		msr     BASEPRI, r3
 318              	@ 0 "" 2
 319              		.thumb
 320 0012 08BD     		pop	{r3, pc}
 321              	.LBE52:
 322              		.cfi_endproc
 323              	.LFE8:
 324              		.size	chMtxLock, .-chMtxLock
 325 0014 AFF30080 		.section	.text.chMtxTryLock,"ax",%progbits
 325      AFF30080 
 325      AFF30080 
 326              		.align	2
 327              		.p2align 4,,15
 328              		.global	chMtxTryLock
 329              		.thumb
 330              		.thumb_func
 331              		.type	chMtxTryLock, %function
 332              	chMtxTryLock:
 333              	.LFB10:
 334              		.loc 1 206 0
 335              		.cfi_startproc
 336              		@ args = 0, pretend = 0, frame = 0
 337              		@ frame_needed = 0, uses_anonymous_args = 0
ARM GAS  /tmp/ccx30ula.s 			page 7


 338              		@ link register save eliminated.
 339              	.LVL25:
 340              		.loc 1 206 0
 341 0000 0246     		mov	r2, r0
 342              	.LBB53:
 343              		.loc 1 209 0
 344 0002 2023     		movs	r3, #32
 345              	@ 209 "../AithonLibrary/ChibiOS/os/kernel/src/chmtx.c" 1
 346 0004 83F31188 		msr     BASEPRI, r3
 347              	@ 0 "" 2
 348              	.LVL26:
 349              		.thumb
 350              	.LBE53:
 351              	.LBB54:
 352              	.LBB55:
 353              		.loc 1 239 0
 354 0008 8368     		ldr	r3, [r0, #8]
 355 000a 23B1     		cbz	r3, .L29
 356              		.loc 1 240 0
 357 000c 0020     		movs	r0, #0
 358              	.LVL27:
 359              	.LBE55:
 360              	.LBE54:
 361              	.LBB57:
 362              		.loc 1 213 0
 363 000e 0023     		movs	r3, #0
 364              	@ 213 "../AithonLibrary/ChibiOS/os/kernel/src/chmtx.c" 1
 365 0010 83F31188 		msr     BASEPRI, r3
 366              	@ 0 "" 2
 367              		.thumb
 368              	.LBE57:
 369              		.loc 1 215 0
 370 0014 7047     		bx	lr
 371              	.LVL28:
 372              	.L29:
 373              	.LBB58:
 374              	.LBB56:
 375              		.loc 1 241 0
 376 0016 054B     		ldr	r3, .L30
 377 0018 9B69     		ldr	r3, [r3, #24]
 378 001a 8360     		str	r3, [r0, #8]
 379              		.loc 1 242 0
 380 001c D96B     		ldr	r1, [r3, #60]
 381 001e C160     		str	r1, [r0, #12]
 382              		.loc 1 243 0
 383 0020 DA63     		str	r2, [r3, #60]
 384              		.loc 1 244 0
 385 0022 0120     		movs	r0, #1
 386              	.LVL29:
 387              	.LBE56:
 388              	.LBE58:
 389              	.LBB59:
 390              		.loc 1 213 0
 391 0024 0023     		movs	r3, #0
 392              	@ 213 "../AithonLibrary/ChibiOS/os/kernel/src/chmtx.c" 1
 393 0026 83F31188 		msr     BASEPRI, r3
 394              	@ 0 "" 2
ARM GAS  /tmp/ccx30ula.s 			page 8


 395              		.thumb
 396              	.LBE59:
 397              		.loc 1 215 0
 398 002a 7047     		bx	lr
 399              	.L31:
 400              		.align	2
 401              	.L30:
 402 002c 00000000 		.word	rlist
 403              		.cfi_endproc
 404              	.LFE10:
 405              		.size	chMtxTryLock, .-chMtxTryLock
 406              		.section	.text.chMtxTryLockS,"ax",%progbits
 407              		.align	2
 408              		.p2align 4,,15
 409              		.global	chMtxTryLockS
 410              		.thumb
 411              		.thumb_func
 412              		.type	chMtxTryLockS, %function
 413              	chMtxTryLockS:
 414              	.LFB11:
 415              		.loc 1 234 0
 416              		.cfi_startproc
 417              		@ args = 0, pretend = 0, frame = 0
 418              		@ frame_needed = 0, uses_anonymous_args = 0
 419              		@ link register save eliminated.
 420              	.LVL30:
 421              		.loc 1 239 0
 422 0000 8268     		ldr	r2, [r0, #8]
 423              		.loc 1 234 0
 424 0002 0346     		mov	r3, r0
 425              		.loc 1 239 0
 426 0004 0AB1     		cbz	r2, .L35
 427              		.loc 1 240 0
 428 0006 0020     		movs	r0, #0
 429              	.LVL31:
 430              		.loc 1 245 0
 431 0008 7047     		bx	lr
 432              	.LVL32:
 433              	.L35:
 434              		.loc 1 241 0
 435 000a 044A     		ldr	r2, .L36
 436 000c 9269     		ldr	r2, [r2, #24]
 437 000e 8260     		str	r2, [r0, #8]
 438              		.loc 1 242 0
 439 0010 D16B     		ldr	r1, [r2, #60]
 440 0012 C160     		str	r1, [r0, #12]
 441              		.loc 1 244 0
 442 0014 0120     		movs	r0, #1
 443              	.LVL33:
 444              		.loc 1 243 0
 445 0016 D363     		str	r3, [r2, #60]
 446              		.loc 1 244 0
 447 0018 7047     		bx	lr
 448              	.L37:
 449 001a 00BF     		.align	2
 450              	.L36:
 451 001c 00000000 		.word	rlist
ARM GAS  /tmp/ccx30ula.s 			page 9


 452              		.cfi_endproc
 453              	.LFE11:
 454              		.size	chMtxTryLockS, .-chMtxTryLockS
 455              		.section	.text.chMtxUnlock,"ax",%progbits
 456              		.align	2
 457              		.p2align 4,,15
 458              		.global	chMtxUnlock
 459              		.thumb
 460              		.thumb_func
 461              		.type	chMtxUnlock, %function
 462              	chMtxUnlock:
 463              	.LFB12:
 464              		.loc 1 257 0
 465              		.cfi_startproc
 466              		@ args = 0, pretend = 0, frame = 0
 467              		@ frame_needed = 0, uses_anonymous_args = 0
 468              		.loc 1 258 0
 469 0000 174A     		ldr	r2, .L50
 470              		.loc 1 257 0
 471 0002 38B5     		push	{r3, r4, r5, lr}
 472              		.cfi_def_cfa_offset 16
 473              		.cfi_offset 3, -16
 474              		.cfi_offset 4, -12
 475              		.cfi_offset 5, -8
 476              		.cfi_offset 14, -4
 477              		.loc 1 258 0
 478 0004 9069     		ldr	r0, [r2, #24]
 479              	.LVL34:
 480              	.LBB60:
 481              		.loc 1 261 0
 482 0006 2023     		movs	r3, #32
 483              	@ 261 "../AithonLibrary/ChibiOS/os/kernel/src/chmtx.c" 1
 484 0008 83F31188 		msr     BASEPRI, r3
 485              	@ 0 "" 2
 486              		.thumb
 487              	.LBE60:
 488              		.loc 1 270 0
 489 000c C46B     		ldr	r4, [r0, #60]
 490              	.LVL35:
 491              		.loc 1 273 0
 492 000e 2568     		ldr	r5, [r4]
 493              		.loc 1 271 0
 494 0010 E368     		ldr	r3, [r4, #12]
 495 0012 C363     		str	r3, [r0, #60]
 496              		.loc 1 273 0
 497 0014 A542     		cmp	r5, r4
 498 0016 1CD0     		beq	.L39
 499              	.LBB61:
 500              		.loc 1 278 0
 501 0018 016C     		ldr	r1, [r0, #64]
 502              	.LVL36:
 503              		.loc 1 280 0
 504 001a 4BB1     		cbz	r3, .L40
 505              	.L42:
 506              		.loc 1 284 0
 507 001c 1A68     		ldr	r2, [r3]
 508 001e 9A42     		cmp	r2, r3
ARM GAS  /tmp/ccx30ula.s 			page 10


 509 0020 03D0     		beq	.L41
 510              		.loc 1 284 0 is_stmt 0 discriminator 1
 511 0022 9268     		ldr	r2, [r2, #8]
 512 0024 9142     		cmp	r1, r2
 513 0026 38BF     		it	cc
 514 0028 1146     		movcc	r1, r2
 515              	.LVL37:
 516              	.L41:
 517              		.loc 1 286 0 is_stmt 1
 518 002a DB68     		ldr	r3, [r3, #12]
 519              	.LVL38:
 520              		.loc 1 280 0
 521 002c 002B     		cmp	r3, #0
 522 002e F5D1     		bne	.L42
 523              	.L40:
 524              	.LBB62:
 525              	.LBB63:
 526              		.loc 2 62 0
 527 0030 2B68     		ldr	r3, [r5]
 528              	.LVL39:
 529              	.LBE63:
 530              	.LBE62:
 531              		.loc 1 295 0
 532 0032 EA6B     		ldr	r2, [r5, #60]
 533              		.loc 1 290 0
 534 0034 8160     		str	r1, [r0, #8]
 535              	.LVL40:
 536              	.LBB66:
 537              	.LBB64:
 538              		.loc 2 62 0
 539 0036 2360     		str	r3, [r4]
 540              	.LBE64:
 541              	.LBE66:
 542              		.loc 1 297 0
 543 0038 2846     		mov	r0, r5
 544              	.LVL41:
 545              	.LBB67:
 546              	.LBB65:
 547              		.loc 2 62 0
 548 003a 5C60     		str	r4, [r3, #4]
 549              	.LBE65:
 550              	.LBE67:
 551              		.loc 1 297 0
 552 003c 0021     		movs	r1, #0
 553              	.LVL42:
 554              		.loc 1 294 0
 555 003e A560     		str	r5, [r4, #8]
 556              		.loc 1 295 0
 557 0040 E260     		str	r2, [r4, #12]
 558              		.loc 1 296 0
 559 0042 EC63     		str	r4, [r5, #60]
 560              		.loc 1 297 0
 561 0044 FFF7FEFF 		bl	chSchWakeupS
 562              	.LVL43:
 563              	.LBE61:
 564              	.LBB68:
 565              		.loc 1 301 0
ARM GAS  /tmp/ccx30ula.s 			page 11


 566 0048 0023     		movs	r3, #0
 567              	@ 301 "../AithonLibrary/ChibiOS/os/kernel/src/chmtx.c" 1
 568 004a 83F31188 		msr     BASEPRI, r3
 569              	@ 0 "" 2
 570              		.thumb
 571              	.LBE68:
 572              		.loc 1 303 0
 573 004e 2046     		mov	r0, r4
 574 0050 38BD     		pop	{r3, r4, r5, pc}
 575              	.LVL44:
 576              	.L39:
 577              		.loc 1 300 0
 578 0052 0023     		movs	r3, #0
 579 0054 A360     		str	r3, [r4, #8]
 580              	.LBB69:
 581              		.loc 1 301 0
 582 0056 0023     		movs	r3, #0
 583              	@ 301 "../AithonLibrary/ChibiOS/os/kernel/src/chmtx.c" 1
 584 0058 83F31188 		msr     BASEPRI, r3
 585              	@ 0 "" 2
 586              		.thumb
 587              	.LBE69:
 588              		.loc 1 303 0
 589 005c 2046     		mov	r0, r4
 590              	.LVL45:
 591 005e 38BD     		pop	{r3, r4, r5, pc}
 592              	.LVL46:
 593              	.L51:
 594              		.align	2
 595              	.L50:
 596 0060 00000000 		.word	rlist
 597              		.cfi_endproc
 598              	.LFE12:
 599              		.size	chMtxUnlock, .-chMtxUnlock
 600 0064 AFF30080 		.section	.text.chMtxUnlockS,"ax",%progbits
 600      AFF30080 
 600      AFF30080 
 601              		.align	2
 602              		.p2align 4,,15
 603              		.global	chMtxUnlockS
 604              		.thumb
 605              		.thumb_func
 606              		.type	chMtxUnlockS, %function
 607              	chMtxUnlockS:
 608              	.LFB13:
 609              		.loc 1 317 0
 610              		.cfi_startproc
 611              		@ args = 0, pretend = 0, frame = 0
 612              		@ frame_needed = 0, uses_anonymous_args = 0
 613 0000 38B5     		push	{r3, r4, r5, lr}
 614              		.cfi_def_cfa_offset 16
 615              		.cfi_offset 3, -16
 616              		.cfi_offset 4, -12
 617              		.cfi_offset 5, -8
 618              		.cfi_offset 14, -4
 619              		.loc 1 318 0
 620 0002 124B     		ldr	r3, .L64
ARM GAS  /tmp/ccx30ula.s 			page 12


 621 0004 9869     		ldr	r0, [r3, #24]
 622              	.LVL47:
 623              		.loc 1 331 0
 624 0006 C46B     		ldr	r4, [r0, #60]
 625              	.LVL48:
 626              		.loc 1 334 0
 627 0008 2568     		ldr	r5, [r4]
 628              		.loc 1 332 0
 629 000a E368     		ldr	r3, [r4, #12]
 630 000c C363     		str	r3, [r0, #60]
 631              		.loc 1 334 0
 632 000e A542     		cmp	r5, r4
 633 0010 18D0     		beq	.L53
 634              	.LBB70:
 635              		.loc 1 339 0
 636 0012 016C     		ldr	r1, [r0, #64]
 637              	.LVL49:
 638              		.loc 1 341 0
 639 0014 4BB1     		cbz	r3, .L54
 640              	.L56:
 641              		.loc 1 345 0
 642 0016 1A68     		ldr	r2, [r3]
 643 0018 9A42     		cmp	r2, r3
 644 001a 03D0     		beq	.L55
 645              		.loc 1 345 0 is_stmt 0 discriminator 1
 646 001c 9268     		ldr	r2, [r2, #8]
 647 001e 9142     		cmp	r1, r2
 648 0020 38BF     		it	cc
 649 0022 1146     		movcc	r1, r2
 650              	.LVL50:
 651              	.L55:
 652              		.loc 1 347 0 is_stmt 1
 653 0024 DB68     		ldr	r3, [r3, #12]
 654              	.LVL51:
 655              		.loc 1 341 0
 656 0026 002B     		cmp	r3, #0
 657 0028 F5D1     		bne	.L56
 658              	.L54:
 659              	.LBB71:
 660              	.LBB72:
 661              		.loc 2 62 0
 662 002a 2B68     		ldr	r3, [r5]
 663              	.LVL52:
 664              	.LBE72:
 665              	.LBE71:
 666              		.loc 1 354 0
 667 002c EA6B     		ldr	r2, [r5, #60]
 668              		.loc 1 349 0
 669 002e 8160     		str	r1, [r0, #8]
 670              	.LVL53:
 671              	.LBB75:
 672              	.LBB73:
 673              		.loc 2 62 0
 674 0030 2360     		str	r3, [r4]
 675              	.LBE73:
 676              	.LBE75:
 677              		.loc 1 356 0
ARM GAS  /tmp/ccx30ula.s 			page 13


 678 0032 2846     		mov	r0, r5
 679              	.LVL54:
 680              	.LBB76:
 681              	.LBB74:
 682              		.loc 2 62 0
 683 0034 5C60     		str	r4, [r3, #4]
 684              	.LBE74:
 685              	.LBE76:
 686              		.loc 1 353 0
 687 0036 A560     		str	r5, [r4, #8]
 688              		.loc 1 354 0
 689 0038 E260     		str	r2, [r4, #12]
 690              		.loc 1 355 0
 691 003a EC63     		str	r4, [r5, #60]
 692              		.loc 1 356 0
 693 003c FFF7FEFF 		bl	chSchReadyI
 694              	.LVL55:
 695              	.LBE70:
 696              		.loc 1 361 0
 697 0040 2046     		mov	r0, r4
 698 0042 38BD     		pop	{r3, r4, r5, pc}
 699              	.LVL56:
 700              	.L53:
 701              		.loc 1 359 0
 702 0044 0023     		movs	r3, #0
 703 0046 A360     		str	r3, [r4, #8]
 704              		.loc 1 361 0
 705 0048 2046     		mov	r0, r4
 706              	.LVL57:
 707 004a 38BD     		pop	{r3, r4, r5, pc}
 708              	.LVL58:
 709              	.L65:
 710              		.align	2
 711              	.L64:
 712 004c 00000000 		.word	rlist
 713              		.cfi_endproc
 714              	.LFE13:
 715              		.size	chMtxUnlockS, .-chMtxUnlockS
 716              		.section	.text.chMtxUnlockAll,"ax",%progbits
 717              		.align	2
 718              		.p2align 4,,15
 719              		.global	chMtxUnlockAll
 720              		.thumb
 721              		.thumb_func
 722              		.type	chMtxUnlockAll, %function
 723              	chMtxUnlockAll:
 724              	.LFB14:
 725              		.loc 1 374 0
 726              		.cfi_startproc
 727              		@ args = 0, pretend = 0, frame = 0
 728              		@ frame_needed = 0, uses_anonymous_args = 0
 729              		.loc 1 375 0
 730 0000 134A     		ldr	r2, .L77
 731              		.loc 1 374 0
 732 0002 70B5     		push	{r4, r5, r6, lr}
 733              		.cfi_def_cfa_offset 16
 734              		.cfi_offset 4, -16
ARM GAS  /tmp/ccx30ula.s 			page 14


 735              		.cfi_offset 5, -12
 736              		.cfi_offset 6, -8
 737              		.cfi_offset 14, -4
 738              	.LBB77:
 739              		.loc 1 377 0
 740 0004 2023     		movs	r3, #32
 741              	.LBE77:
 742              		.loc 1 375 0
 743 0006 9469     		ldr	r4, [r2, #24]
 744              	.LVL59:
 745              	.LBB78:
 746              		.loc 1 377 0
 747              	@ 377 "../AithonLibrary/ChibiOS/os/kernel/src/chmtx.c" 1
 748 0008 83F31188 		msr     BASEPRI, r3
 749              	@ 0 "" 2
 750              		.thumb
 751              	.LBE78:
 752              		.loc 1 378 0
 753 000c E36B     		ldr	r3, [r4, #60]
 754 000e D3B1     		cbz	r3, .L67
 755              	.LBB79:
 756              		.loc 1 390 0
 757 0010 0026     		movs	r6, #0
 758 0012 0BE0     		b	.L71
 759              	.LVL60:
 760              	.L76:
 761              	.LBB80:
 762              	.LBB81:
 763              	.LBB82:
 764              		.loc 2 62 0
 765 0014 1168     		ldr	r1, [r2]
 766              	.LBE82:
 767              	.LBE81:
 768              		.loc 1 385 0
 769 0016 D56B     		ldr	r5, [r2, #60]
 770              	.LBB85:
 771              	.LBB83:
 772              		.loc 2 62 0
 773 0018 1960     		str	r1, [r3]
 774              	.LBE83:
 775              	.LBE85:
 776              		.loc 1 387 0
 777 001a 1046     		mov	r0, r2
 778              	.LBB86:
 779              	.LBB84:
 780              		.loc 2 62 0
 781 001c 4B60     		str	r3, [r1, #4]
 782              	.LBE84:
 783              	.LBE86:
 784              		.loc 1 384 0
 785 001e 9A60     		str	r2, [r3, #8]
 786              		.loc 1 385 0
 787 0020 DD60     		str	r5, [r3, #12]
 788              		.loc 1 386 0
 789 0022 D363     		str	r3, [r2, #60]
 790              		.loc 1 387 0
 791 0024 FFF7FEFF 		bl	chSchReadyI
ARM GAS  /tmp/ccx30ula.s 			page 15


 792              	.LVL61:
 793              	.LBE80:
 794              	.LBE79:
 795              		.loc 1 391 0
 796 0028 E36B     		ldr	r3, [r4, #60]
 797 002a 43B1     		cbz	r3, .L75
 798              	.L71:
 799              	.LVL62:
 800              	.LBB87:
 801              		.loc 1 382 0
 802 002c 1A68     		ldr	r2, [r3]
 803              	.LVL63:
 804              		.loc 1 381 0
 805 002e D968     		ldr	r1, [r3, #12]
 806 0030 E163     		str	r1, [r4, #60]
 807              		.loc 1 382 0
 808 0032 9A42     		cmp	r2, r3
 809 0034 EED1     		bne	.L76
 810              		.loc 1 390 0
 811 0036 9E60     		str	r6, [r3, #8]
 812              	.LBE87:
 813              		.loc 1 391 0
 814 0038 E36B     		ldr	r3, [r4, #60]
 815              	.LVL64:
 816 003a 002B     		cmp	r3, #0
 817 003c F6D1     		bne	.L71
 818              	.LVL65:
 819              	.L75:
 820              		.loc 1 392 0
 821 003e 236C     		ldr	r3, [r4, #64]
 822 0040 A360     		str	r3, [r4, #8]
 823              		.loc 1 393 0
 824 0042 FFF7FEFF 		bl	chSchRescheduleS
 825              	.LVL66:
 826              	.L67:
 827              	.LBB88:
 828              		.loc 1 395 0
 829 0046 0023     		movs	r3, #0
 830              	@ 395 "../AithonLibrary/ChibiOS/os/kernel/src/chmtx.c" 1
 831 0048 83F31188 		msr     BASEPRI, r3
 832              	@ 0 "" 2
 833              		.thumb
 834 004c 70BD     		pop	{r4, r5, r6, pc}
 835              	.LVL67:
 836              	.L78:
 837 004e 00BF     		.align	2
 838              	.L77:
 839 0050 00000000 		.word	rlist
 840              	.LBE88:
 841              		.cfi_endproc
 842              	.LFE14:
 843              		.size	chMtxUnlockAll, .-chMtxUnlockAll
 844 0054 AFF30080 		.text
 844      AFF30080 
 844      AFF30080 
 845              	.Letext0:
 846              		.file 3 "/usr/arm-none-eabi/include/stdint.h"
ARM GAS  /tmp/ccx30ula.s 			page 16


 847              		.file 4 "../AithonLibrary/ChibiOS/os/ports/GCC/ARMCMx/chtypes.h"
 848              		.file 5 "../AithonLibrary/ChibiOS/os/kernel/include/chlists.h"
 849              		.file 6 "../AithonLibrary/ChibiOS/os/kernel/include/chthreads.h"
 850              		.file 7 "../AithonLibrary/ChibiOS/os/ports/GCC/ARMCMx/chcore_v7m.h"
 851              		.file 8 "../AithonLibrary/ChibiOS/os/kernel/include/chschd.h"
 852              		.file 9 "../AithonLibrary/ChibiOS/os/kernel/include/chmtx.h"
 853              		.section	.debug_info,"",%progbits
 854              	.Ldebug_info0:
 855 0000 7F0A0000 		.4byte	0xa7f
 856 0004 0400     		.2byte	0x4
 857 0006 00000000 		.4byte	.Ldebug_abbrev0
 858 000a 04       		.byte	0x4
 859 000b 01       		.uleb128 0x1
 860 000c 02010000 		.4byte	.LASF78
 861 0010 01       		.byte	0x1
 862 0011 EE020000 		.4byte	.LASF79
 863 0015 06000000 		.4byte	.LASF80
 864 0019 20010000 		.4byte	.Ldebug_ranges0+0x120
 865 001d 00000000 		.4byte	0
 866 0021 00000000 		.4byte	.Ldebug_line0
 867 0025 02       		.uleb128 0x2
 868 0026 04       		.byte	0x4
 869 0027 05       		.byte	0x5
 870 0028 696E7400 		.ascii	"int\000"
 871 002c 03       		.uleb128 0x3
 872 002d 04       		.byte	0x4
 873 002e 07       		.byte	0x7
 874 002f F5000000 		.4byte	.LASF0
 875 0033 03       		.uleb128 0x3
 876 0034 01       		.byte	0x1
 877 0035 06       		.byte	0x6
 878 0036 68000000 		.4byte	.LASF1
 879 003a 04       		.uleb128 0x4
 880 003b 44040000 		.4byte	.LASF5
 881 003f 03       		.byte	0x3
 882 0040 2A       		.byte	0x2a
 883 0041 45000000 		.4byte	0x45
 884 0045 03       		.uleb128 0x3
 885 0046 01       		.byte	0x1
 886 0047 08       		.byte	0x8
 887 0048 42030000 		.4byte	.LASF2
 888 004c 03       		.uleb128 0x3
 889 004d 02       		.byte	0x2
 890 004e 05       		.byte	0x5
 891 004f 5A030000 		.4byte	.LASF3
 892 0053 03       		.uleb128 0x3
 893 0054 02       		.byte	0x2
 894 0055 07       		.byte	0x7
 895 0056 37020000 		.4byte	.LASF4
 896 005a 04       		.uleb128 0x4
 897 005b 3A030000 		.4byte	.LASF6
 898 005f 03       		.byte	0x3
 899 0060 4F       		.byte	0x4f
 900 0061 65000000 		.4byte	0x65
 901 0065 03       		.uleb128 0x3
 902 0066 04       		.byte	0x4
 903 0067 05       		.byte	0x5
ARM GAS  /tmp/ccx30ula.s 			page 17


 904 0068 95000000 		.4byte	.LASF7
 905 006c 04       		.uleb128 0x4
 906 006d B3030000 		.4byte	.LASF8
 907 0071 03       		.byte	0x3
 908 0072 50       		.byte	0x50
 909 0073 77000000 		.4byte	0x77
 910 0077 03       		.uleb128 0x3
 911 0078 04       		.byte	0x4
 912 0079 07       		.byte	0x7
 913 007a 1D020000 		.4byte	.LASF9
 914 007e 03       		.uleb128 0x3
 915 007f 08       		.byte	0x8
 916 0080 05       		.byte	0x5
 917 0081 5A000000 		.4byte	.LASF10
 918 0085 03       		.uleb128 0x3
 919 0086 08       		.byte	0x8
 920 0087 07       		.byte	0x7
 921 0088 30000000 		.4byte	.LASF11
 922 008c 04       		.uleb128 0x4
 923 008d 7C000000 		.4byte	.LASF12
 924 0091 04       		.byte	0x4
 925 0092 2B       		.byte	0x2b
 926 0093 97000000 		.4byte	0x97
 927 0097 03       		.uleb128 0x3
 928 0098 01       		.byte	0x1
 929 0099 02       		.byte	0x2
 930 009a 34030000 		.4byte	.LASF13
 931 009e 04       		.uleb128 0x4
 932 009f 73020000 		.4byte	.LASF14
 933 00a3 04       		.byte	0x4
 934 00a4 2C       		.byte	0x2c
 935 00a5 3A000000 		.4byte	0x3a
 936 00a9 04       		.uleb128 0x4
 937 00aa 9E000000 		.4byte	.LASF15
 938 00ae 04       		.byte	0x4
 939 00af 2D       		.byte	0x2d
 940 00b0 3A000000 		.4byte	0x3a
 941 00b4 04       		.uleb128 0x4
 942 00b5 1D030000 		.4byte	.LASF16
 943 00b9 04       		.byte	0x4
 944 00ba 2E       		.byte	0x2e
 945 00bb 3A000000 		.4byte	0x3a
 946 00bf 04       		.uleb128 0x4
 947 00c0 8B000000 		.4byte	.LASF17
 948 00c4 04       		.byte	0x4
 949 00c5 2F       		.byte	0x2f
 950 00c6 3A000000 		.4byte	0x3a
 951 00ca 04       		.uleb128 0x4
 952 00cb 2C030000 		.4byte	.LASF18
 953 00cf 04       		.byte	0x4
 954 00d0 30       		.byte	0x30
 955 00d1 6C000000 		.4byte	0x6c
 956 00d5 04       		.uleb128 0x4
 957 00d6 4A020000 		.4byte	.LASF19
 958 00da 04       		.byte	0x4
 959 00db 31       		.byte	0x31
 960 00dc 5A000000 		.4byte	0x5a
ARM GAS  /tmp/ccx30ula.s 			page 18


 961 00e0 04       		.uleb128 0x4
 962 00e1 87020000 		.4byte	.LASF20
 963 00e5 04       		.byte	0x4
 964 00e6 33       		.byte	0x33
 965 00e7 6C000000 		.4byte	0x6c
 966 00eb 04       		.uleb128 0x4
 967 00ec E8030000 		.4byte	.LASF21
 968 00f0 04       		.byte	0x4
 969 00f1 35       		.byte	0x35
 970 00f2 6C000000 		.4byte	0x6c
 971 00f6 04       		.uleb128 0x4
 972 00f7 93030000 		.4byte	.LASF22
 973 00fb 05       		.byte	0x5
 974 00fc 2A       		.byte	0x2a
 975 00fd 01010000 		.4byte	0x101
 976 0101 05       		.uleb128 0x5
 977 0102 93030000 		.4byte	.LASF22
 978 0106 48       		.byte	0x48
 979 0107 06       		.byte	0x6
 980 0108 5E       		.byte	0x5e
 981 0109 FE010000 		.4byte	0x1fe
 982 010d 06       		.uleb128 0x6
 983 010e 84030000 		.4byte	.LASF23
 984 0112 06       		.byte	0x6
 985 0113 5F       		.byte	0x5f
 986 0114 1F020000 		.4byte	0x21f
 987 0118 00       		.byte	0
 988 0119 06       		.uleb128 0x6
 989 011a 25030000 		.4byte	.LASF24
 990 011e 06       		.byte	0x6
 991 011f 61       		.byte	0x61
 992 0120 1F020000 		.4byte	0x21f
 993 0124 04       		.byte	0x4
 994 0125 06       		.uleb128 0x6
 995 0126 53000000 		.4byte	.LASF25
 996 012a 06       		.byte	0x6
 997 012b 63       		.byte	0x63
 998 012c CA000000 		.4byte	0xca
 999 0130 08       		.byte	0x8
 1000 0131 06       		.uleb128 0x6
 1001 0132 6D040000 		.4byte	.LASF26
 1002 0136 06       		.byte	0x6
 1003 0137 64       		.byte	0x64
 1004 0138 A9030000 		.4byte	0x3a9
 1005 013c 0C       		.byte	0xc
 1006 013d 06       		.uleb128 0x6
 1007 013e B5000000 		.4byte	.LASF27
 1008 0142 06       		.byte	0x6
 1009 0143 66       		.byte	0x66
 1010 0144 1F020000 		.4byte	0x21f
 1011 0148 10       		.byte	0x10
 1012 0149 06       		.uleb128 0x6
 1013 014a B9020000 		.4byte	.LASF28
 1014 014e 06       		.byte	0x6
 1015 014f 67       		.byte	0x67
 1016 0150 1F020000 		.4byte	0x21f
 1017 0154 14       		.byte	0x14
ARM GAS  /tmp/ccx30ula.s 			page 19


 1018 0155 06       		.uleb128 0x6
 1019 0156 53040000 		.4byte	.LASF29
 1020 015a 06       		.byte	0x6
 1021 015b 6E       		.byte	0x6e
 1022 015c A9040000 		.4byte	0x4a9
 1023 0160 18       		.byte	0x18
 1024 0161 06       		.uleb128 0x6
 1025 0162 64030000 		.4byte	.LASF30
 1026 0166 06       		.byte	0x6
 1027 0167 79       		.byte	0x79
 1028 0168 A9000000 		.4byte	0xa9
 1029 016c 1C       		.byte	0x1c
 1030 016d 06       		.uleb128 0x6
 1031 016e 8B030000 		.4byte	.LASF31
 1032 0172 06       		.byte	0x6
 1033 0173 7D       		.byte	0x7d
 1034 0174 9E000000 		.4byte	0x9e
 1035 0178 1D       		.byte	0x1d
 1036 0179 06       		.uleb128 0x6
 1037 017a 2D040000 		.4byte	.LASF32
 1038 017e 06       		.byte	0x6
 1039 017f 82       		.byte	0x82
 1040 0180 B4000000 		.4byte	0xb4
 1041 0184 1E       		.byte	0x1e
 1042 0185 06       		.uleb128 0x6
 1043 0186 6C030000 		.4byte	.LASF33
 1044 018a 06       		.byte	0x6
 1045 018b 88       		.byte	0x88
 1046 018c BF000000 		.4byte	0xbf
 1047 0190 1F       		.byte	0x1f
 1048 0191 06       		.uleb128 0x6
 1049 0192 FD030000 		.4byte	.LASF34
 1050 0196 06       		.byte	0x6
 1051 0197 8F       		.byte	0x8f
 1052 0198 D1030000 		.4byte	0x3d1
 1053 019c 20       		.byte	0x20
 1054 019d 07       		.uleb128 0x7
 1055 019e 705F7500 		.ascii	"p_u\000"
 1056 01a2 06       		.byte	0x6
 1057 01a3 B4       		.byte	0xb4
 1058 01a4 74040000 		.4byte	0x474
 1059 01a8 24       		.byte	0x24
 1060 01a9 06       		.uleb128 0x6
 1061 01aa 73040000 		.4byte	.LASF35
 1062 01ae 06       		.byte	0x6
 1063 01af B9       		.byte	0xb9
 1064 01b0 45020000 		.4byte	0x245
 1065 01b4 28       		.byte	0x28
 1066 01b5 06       		.uleb128 0x6
 1067 01b6 0B040000 		.4byte	.LASF36
 1068 01ba 06       		.byte	0x6
 1069 01bb BF       		.byte	0xbf
 1070 01bc 25020000 		.4byte	0x225
 1071 01c0 2C       		.byte	0x2c
 1072 01c1 06       		.uleb128 0x6
 1073 01c2 00000000 		.4byte	.LASF37
 1074 01c6 06       		.byte	0x6
ARM GAS  /tmp/ccx30ula.s 			page 20


 1075 01c7 C3       		.byte	0xc3
 1076 01c8 D5000000 		.4byte	0xd5
 1077 01cc 34       		.byte	0x34
 1078 01cd 06       		.uleb128 0x6
 1079 01ce A8030000 		.4byte	.LASF38
 1080 01d2 06       		.byte	0x6
 1081 01d3 C9       		.byte	0xc9
 1082 01d4 E0000000 		.4byte	0xe0
 1083 01d8 38       		.byte	0x38
 1084 01d9 06       		.uleb128 0x6
 1085 01da 50030000 		.4byte	.LASF39
 1086 01de 06       		.byte	0x6
 1087 01df D0       		.byte	0xd0
 1088 01e0 BB040000 		.4byte	0x4bb
 1089 01e4 3C       		.byte	0x3c
 1090 01e5 06       		.uleb128 0x6
 1091 01e6 F2030000 		.4byte	.LASF40
 1092 01ea 06       		.byte	0x6
 1093 01eb D4       		.byte	0xd4
 1094 01ec CA000000 		.4byte	0xca
 1095 01f0 40       		.byte	0x40
 1096 01f1 06       		.uleb128 0x6
 1097 01f2 74000000 		.4byte	.LASF41
 1098 01f6 06       		.byte	0x6
 1099 01f7 DA       		.byte	0xda
 1100 01f8 5B020000 		.4byte	0x25b
 1101 01fc 44       		.byte	0x44
 1102 01fd 00       		.byte	0
 1103 01fe 08       		.uleb128 0x8
 1104 01ff 08       		.byte	0x8
 1105 0200 05       		.byte	0x5
 1106 0201 61       		.byte	0x61
 1107 0202 1F020000 		.4byte	0x21f
 1108 0206 06       		.uleb128 0x6
 1109 0207 84030000 		.4byte	.LASF23
 1110 020b 05       		.byte	0x5
 1111 020c 62       		.byte	0x62
 1112 020d 1F020000 		.4byte	0x21f
 1113 0211 00       		.byte	0
 1114 0212 06       		.uleb128 0x6
 1115 0213 25030000 		.4byte	.LASF24
 1116 0217 05       		.byte	0x5
 1117 0218 64       		.byte	0x64
 1118 0219 1F020000 		.4byte	0x21f
 1119 021d 04       		.byte	0x4
 1120 021e 00       		.byte	0
 1121 021f 09       		.uleb128 0x9
 1122 0220 04       		.byte	0x4
 1123 0221 F6000000 		.4byte	0xf6
 1124 0225 04       		.uleb128 0x4
 1125 0226 C7020000 		.4byte	.LASF42
 1126 022a 05       		.byte	0x5
 1127 022b 66       		.byte	0x66
 1128 022c FE010000 		.4byte	0x1fe
 1129 0230 08       		.uleb128 0x8
 1130 0231 04       		.byte	0x4
 1131 0232 05       		.byte	0x5
ARM GAS  /tmp/ccx30ula.s 			page 21


 1132 0233 6B       		.byte	0x6b
 1133 0234 45020000 		.4byte	0x245
 1134 0238 06       		.uleb128 0x6
 1135 0239 84030000 		.4byte	.LASF23
 1136 023d 05       		.byte	0x5
 1137 023e 6D       		.byte	0x6d
 1138 023f 1F020000 		.4byte	0x21f
 1139 0243 00       		.byte	0
 1140 0244 00       		.byte	0
 1141 0245 04       		.uleb128 0x4
 1142 0246 7B020000 		.4byte	.LASF43
 1143 024a 05       		.byte	0x5
 1144 024b 70       		.byte	0x70
 1145 024c 30020000 		.4byte	0x230
 1146 0250 04       		.uleb128 0x4
 1147 0251 DF000000 		.4byte	.LASF44
 1148 0255 07       		.byte	0x7
 1149 0256 E5       		.byte	0xe5
 1150 0257 5B020000 		.4byte	0x25b
 1151 025b 0A       		.uleb128 0xa
 1152 025c 04       		.byte	0x4
 1153 025d 0B       		.uleb128 0xb
 1154 025e 04040000 		.4byte	.LASF45
 1155 0262 64       		.byte	0x64
 1156 0263 07       		.byte	0x7
 1157 0264 0C01     		.2byte	0x10c
 1158 0266 A9030000 		.4byte	0x3a9
 1159 026a 0C       		.uleb128 0xc
 1160 026b 73313600 		.ascii	"s16\000"
 1161 026f 07       		.byte	0x7
 1162 0270 0E01     		.2byte	0x10e
 1163 0272 50020000 		.4byte	0x250
 1164 0276 00       		.byte	0
 1165 0277 0C       		.uleb128 0xc
 1166 0278 73313700 		.ascii	"s17\000"
 1167 027c 07       		.byte	0x7
 1168 027d 0F01     		.2byte	0x10f
 1169 027f 50020000 		.4byte	0x250
 1170 0283 04       		.byte	0x4
 1171 0284 0C       		.uleb128 0xc
 1172 0285 73313800 		.ascii	"s18\000"
 1173 0289 07       		.byte	0x7
 1174 028a 1001     		.2byte	0x110
 1175 028c 50020000 		.4byte	0x250
 1176 0290 08       		.byte	0x8
 1177 0291 0C       		.uleb128 0xc
 1178 0292 73313900 		.ascii	"s19\000"
 1179 0296 07       		.byte	0x7
 1180 0297 1101     		.2byte	0x111
 1181 0299 50020000 		.4byte	0x250
 1182 029d 0C       		.byte	0xc
 1183 029e 0C       		.uleb128 0xc
 1184 029f 73323000 		.ascii	"s20\000"
 1185 02a3 07       		.byte	0x7
 1186 02a4 1201     		.2byte	0x112
 1187 02a6 50020000 		.4byte	0x250
 1188 02aa 10       		.byte	0x10
ARM GAS  /tmp/ccx30ula.s 			page 22


 1189 02ab 0C       		.uleb128 0xc
 1190 02ac 73323100 		.ascii	"s21\000"
 1191 02b0 07       		.byte	0x7
 1192 02b1 1301     		.2byte	0x113
 1193 02b3 50020000 		.4byte	0x250
 1194 02b7 14       		.byte	0x14
 1195 02b8 0C       		.uleb128 0xc
 1196 02b9 73323200 		.ascii	"s22\000"
 1197 02bd 07       		.byte	0x7
 1198 02be 1401     		.2byte	0x114
 1199 02c0 50020000 		.4byte	0x250
 1200 02c4 18       		.byte	0x18
 1201 02c5 0C       		.uleb128 0xc
 1202 02c6 73323300 		.ascii	"s23\000"
 1203 02ca 07       		.byte	0x7
 1204 02cb 1501     		.2byte	0x115
 1205 02cd 50020000 		.4byte	0x250
 1206 02d1 1C       		.byte	0x1c
 1207 02d2 0C       		.uleb128 0xc
 1208 02d3 73323400 		.ascii	"s24\000"
 1209 02d7 07       		.byte	0x7
 1210 02d8 1601     		.2byte	0x116
 1211 02da 50020000 		.4byte	0x250
 1212 02de 20       		.byte	0x20
 1213 02df 0C       		.uleb128 0xc
 1214 02e0 73323500 		.ascii	"s25\000"
 1215 02e4 07       		.byte	0x7
 1216 02e5 1701     		.2byte	0x117
 1217 02e7 50020000 		.4byte	0x250
 1218 02eb 24       		.byte	0x24
 1219 02ec 0C       		.uleb128 0xc
 1220 02ed 73323600 		.ascii	"s26\000"
 1221 02f1 07       		.byte	0x7
 1222 02f2 1801     		.2byte	0x118
 1223 02f4 50020000 		.4byte	0x250
 1224 02f8 28       		.byte	0x28
 1225 02f9 0C       		.uleb128 0xc
 1226 02fa 73323700 		.ascii	"s27\000"
 1227 02fe 07       		.byte	0x7
 1228 02ff 1901     		.2byte	0x119
 1229 0301 50020000 		.4byte	0x250
 1230 0305 2C       		.byte	0x2c
 1231 0306 0C       		.uleb128 0xc
 1232 0307 73323800 		.ascii	"s28\000"
 1233 030b 07       		.byte	0x7
 1234 030c 1A01     		.2byte	0x11a
 1235 030e 50020000 		.4byte	0x250
 1236 0312 30       		.byte	0x30
 1237 0313 0C       		.uleb128 0xc
 1238 0314 73323900 		.ascii	"s29\000"
 1239 0318 07       		.byte	0x7
 1240 0319 1B01     		.2byte	0x11b
 1241 031b 50020000 		.4byte	0x250
 1242 031f 34       		.byte	0x34
 1243 0320 0C       		.uleb128 0xc
 1244 0321 73333000 		.ascii	"s30\000"
 1245 0325 07       		.byte	0x7
ARM GAS  /tmp/ccx30ula.s 			page 23


 1246 0326 1C01     		.2byte	0x11c
 1247 0328 50020000 		.4byte	0x250
 1248 032c 38       		.byte	0x38
 1249 032d 0C       		.uleb128 0xc
 1250 032e 73333100 		.ascii	"s31\000"
 1251 0332 07       		.byte	0x7
 1252 0333 1D01     		.2byte	0x11d
 1253 0335 50020000 		.4byte	0x250
 1254 0339 3C       		.byte	0x3c
 1255 033a 0C       		.uleb128 0xc
 1256 033b 723400   		.ascii	"r4\000"
 1257 033e 07       		.byte	0x7
 1258 033f 1F01     		.2byte	0x11f
 1259 0341 50020000 		.4byte	0x250
 1260 0345 40       		.byte	0x40
 1261 0346 0C       		.uleb128 0xc
 1262 0347 723500   		.ascii	"r5\000"
 1263 034a 07       		.byte	0x7
 1264 034b 2001     		.2byte	0x120
 1265 034d 50020000 		.4byte	0x250
 1266 0351 44       		.byte	0x44
 1267 0352 0C       		.uleb128 0xc
 1268 0353 723600   		.ascii	"r6\000"
 1269 0356 07       		.byte	0x7
 1270 0357 2101     		.2byte	0x121
 1271 0359 50020000 		.4byte	0x250
 1272 035d 48       		.byte	0x48
 1273 035e 0C       		.uleb128 0xc
 1274 035f 723700   		.ascii	"r7\000"
 1275 0362 07       		.byte	0x7
 1276 0363 2201     		.2byte	0x122
 1277 0365 50020000 		.4byte	0x250
 1278 0369 4C       		.byte	0x4c
 1279 036a 0C       		.uleb128 0xc
 1280 036b 723800   		.ascii	"r8\000"
 1281 036e 07       		.byte	0x7
 1282 036f 2301     		.2byte	0x123
 1283 0371 50020000 		.4byte	0x250
 1284 0375 50       		.byte	0x50
 1285 0376 0C       		.uleb128 0xc
 1286 0377 723900   		.ascii	"r9\000"
 1287 037a 07       		.byte	0x7
 1288 037b 2401     		.2byte	0x124
 1289 037d 50020000 		.4byte	0x250
 1290 0381 54       		.byte	0x54
 1291 0382 0C       		.uleb128 0xc
 1292 0383 72313000 		.ascii	"r10\000"
 1293 0387 07       		.byte	0x7
 1294 0388 2501     		.2byte	0x125
 1295 038a 50020000 		.4byte	0x250
 1296 038e 58       		.byte	0x58
 1297 038f 0C       		.uleb128 0xc
 1298 0390 72313100 		.ascii	"r11\000"
 1299 0394 07       		.byte	0x7
 1300 0395 2601     		.2byte	0x126
 1301 0397 50020000 		.4byte	0x250
 1302 039b 5C       		.byte	0x5c
ARM GAS  /tmp/ccx30ula.s 			page 24


 1303 039c 0C       		.uleb128 0xc
 1304 039d 6C7200   		.ascii	"lr\000"
 1305 03a0 07       		.byte	0x7
 1306 03a1 2701     		.2byte	0x127
 1307 03a3 50020000 		.4byte	0x250
 1308 03a7 60       		.byte	0x60
 1309 03a8 00       		.byte	0
 1310 03a9 0B       		.uleb128 0xb
 1311 03aa 2F020000 		.4byte	.LASF46
 1312 03ae 04       		.byte	0x4
 1313 03af 07       		.byte	0x7
 1314 03b0 3101     		.2byte	0x131
 1315 03b2 C4030000 		.4byte	0x3c4
 1316 03b6 0C       		.uleb128 0xc
 1317 03b7 72313300 		.ascii	"r13\000"
 1318 03bb 07       		.byte	0x7
 1319 03bc 3201     		.2byte	0x132
 1320 03be C4030000 		.4byte	0x3c4
 1321 03c2 00       		.byte	0
 1322 03c3 00       		.byte	0
 1323 03c4 09       		.uleb128 0x9
 1324 03c5 04       		.byte	0x4
 1325 03c6 5D020000 		.4byte	0x25d
 1326 03ca 03       		.uleb128 0x3
 1327 03cb 04       		.byte	0x4
 1328 03cc 07       		.byte	0x7
 1329 03cd A6020000 		.4byte	.LASF47
 1330 03d1 0D       		.uleb128 0xd
 1331 03d2 EB000000 		.4byte	0xeb
 1332 03d6 08       		.uleb128 0x8
 1333 03d7 1C       		.byte	0x1c
 1334 03d8 08       		.byte	0x8
 1335 03d9 5E       		.byte	0x5e
 1336 03da 27040000 		.4byte	0x427
 1337 03de 06       		.uleb128 0x6
 1338 03df BC030000 		.4byte	.LASF48
 1339 03e3 08       		.byte	0x8
 1340 03e4 5F       		.byte	0x5f
 1341 03e5 25020000 		.4byte	0x225
 1342 03e9 00       		.byte	0
 1343 03ea 06       		.uleb128 0x6
 1344 03eb 76030000 		.4byte	.LASF49
 1345 03ef 08       		.byte	0x8
 1346 03f0 60       		.byte	0x60
 1347 03f1 CA000000 		.4byte	0xca
 1348 03f5 08       		.byte	0x8
 1349 03f6 06       		.uleb128 0x6
 1350 03f7 C1020000 		.4byte	.LASF50
 1351 03fb 08       		.byte	0x8
 1352 03fc 62       		.byte	0x62
 1353 03fd A9030000 		.4byte	0x3a9
 1354 0401 0C       		.byte	0xc
 1355 0402 06       		.uleb128 0x6
 1356 0403 D7000000 		.4byte	.LASF51
 1357 0407 08       		.byte	0x8
 1358 0408 65       		.byte	0x65
 1359 0409 1F020000 		.4byte	0x21f
ARM GAS  /tmp/ccx30ula.s 			page 25


 1360 040d 10       		.byte	0x10
 1361 040e 06       		.uleb128 0x6
 1362 040f E6020000 		.4byte	.LASF52
 1363 0413 08       		.byte	0x8
 1364 0414 66       		.byte	0x66
 1365 0415 1F020000 		.4byte	0x21f
 1366 0419 14       		.byte	0x14
 1367 041a 06       		.uleb128 0x6
 1368 041b DC020000 		.4byte	.LASF53
 1369 041f 08       		.byte	0x8
 1370 0420 69       		.byte	0x69
 1371 0421 1F020000 		.4byte	0x21f
 1372 0425 18       		.byte	0x18
 1373 0426 00       		.byte	0
 1374 0427 04       		.uleb128 0x4
 1375 0428 34040000 		.4byte	.LASF54
 1376 042c 08       		.byte	0x8
 1377 042d 6B       		.byte	0x6b
 1378 042e D6030000 		.4byte	0x3d6
 1379 0432 05       		.uleb128 0x5
 1380 0433 A0020000 		.4byte	.LASF55
 1381 0437 10       		.byte	0x10
 1382 0438 09       		.byte	0x9
 1383 0439 2C       		.byte	0x2c
 1384 043a 63040000 		.4byte	0x463
 1385 043e 06       		.uleb128 0x6
 1386 043f 83000000 		.4byte	.LASF56
 1387 0443 09       		.byte	0x9
 1388 0444 2D       		.byte	0x2d
 1389 0445 25020000 		.4byte	0x225
 1390 0449 00       		.byte	0
 1391 044a 06       		.uleb128 0x6
 1392 044b 65040000 		.4byte	.LASF57
 1393 044f 09       		.byte	0x9
 1394 0450 2F       		.byte	0x2f
 1395 0451 1F020000 		.4byte	0x21f
 1396 0455 08       		.byte	0x8
 1397 0456 06       		.uleb128 0x6
 1398 0457 E1030000 		.4byte	.LASF58
 1399 045b 09       		.byte	0x9
 1400 045c 31       		.byte	0x31
 1401 045d 63040000 		.4byte	0x463
 1402 0461 0C       		.byte	0xc
 1403 0462 00       		.byte	0
 1404 0463 09       		.uleb128 0x9
 1405 0464 04       		.byte	0x4
 1406 0465 32040000 		.4byte	0x432
 1407 0469 04       		.uleb128 0x4
 1408 046a A0020000 		.4byte	.LASF55
 1409 046e 09       		.byte	0x9
 1410 046f 33       		.byte	0x33
 1411 0470 32040000 		.4byte	0x432
 1412 0474 0E       		.uleb128 0xe
 1413 0475 04       		.byte	0x4
 1414 0476 06       		.byte	0x6
 1415 0477 96       		.byte	0x96
 1416 0478 A9040000 		.4byte	0x4a9
ARM GAS  /tmp/ccx30ula.s 			page 26


 1417 047c 0F       		.uleb128 0xf
 1418 047d 29000000 		.4byte	.LASF59
 1419 0481 06       		.byte	0x6
 1420 0482 9D       		.byte	0x9d
 1421 0483 D5000000 		.4byte	0xd5
 1422 0487 0F       		.uleb128 0xf
 1423 0488 BD000000 		.4byte	.LASF60
 1424 048c 06       		.byte	0x6
 1425 048d A4       		.byte	0xa4
 1426 048e D5000000 		.4byte	0xd5
 1427 0492 0F       		.uleb128 0xf
 1428 0493 4C040000 		.4byte	.LASF61
 1429 0497 06       		.byte	0x6
 1430 0498 AB       		.byte	0xab
 1431 0499 5B020000 		.4byte	0x25b
 1432 049d 0F       		.uleb128 0xf
 1433 049e 7D030000 		.4byte	.LASF62
 1434 04a2 06       		.byte	0x6
 1435 04a3 B2       		.byte	0xb2
 1436 04a4 E0000000 		.4byte	0xe0
 1437 04a8 00       		.byte	0
 1438 04a9 09       		.uleb128 0x9
 1439 04aa 04       		.byte	0x4
 1440 04ab AF040000 		.4byte	0x4af
 1441 04af 10       		.uleb128 0x10
 1442 04b0 B4040000 		.4byte	0x4b4
 1443 04b4 03       		.uleb128 0x3
 1444 04b5 01       		.byte	0x1
 1445 04b6 08       		.byte	0x8
 1446 04b7 C4030000 		.4byte	.LASF63
 1447 04bb 09       		.uleb128 0x9
 1448 04bc 04       		.byte	0x4
 1449 04bd 69040000 		.4byte	0x469
 1450 04c1 11       		.uleb128 0x11
 1451 04c2 D4020000 		.4byte	.LASF64
 1452 04c6 02       		.byte	0x2
 1453 04c7 49       		.byte	0x49
 1454 04c8 1F020000 		.4byte	0x21f
 1455 04cc 03       		.byte	0x3
 1456 04cd DC040000 		.4byte	0x4dc
 1457 04d1 12       		.uleb128 0x12
 1458 04d2 747000   		.ascii	"tp\000"
 1459 04d5 02       		.byte	0x2
 1460 04d6 49       		.byte	0x49
 1461 04d7 1F020000 		.4byte	0x21f
 1462 04db 00       		.byte	0
 1463 04dc 13       		.uleb128 0x13
 1464 04dd 50020000 		.4byte	.LASF81
 1465 04e1 02       		.byte	0x2
 1466 04e2 29       		.byte	0x29
 1467 04e3 03       		.byte	0x3
 1468 04e4 08050000 		.4byte	0x508
 1469 04e8 12       		.uleb128 0x12
 1470 04e9 747000   		.ascii	"tp\000"
 1471 04ec 02       		.byte	0x2
 1472 04ed 29       		.byte	0x29
 1473 04ee 1F020000 		.4byte	0x21f
ARM GAS  /tmp/ccx30ula.s 			page 27


 1474 04f2 12       		.uleb128 0x12
 1475 04f3 74717000 		.ascii	"tqp\000"
 1476 04f7 02       		.byte	0x2
 1477 04f8 29       		.byte	0x29
 1478 04f9 08050000 		.4byte	0x508
 1479 04fd 14       		.uleb128 0x14
 1480 04fe 637000   		.ascii	"cp\000"
 1481 0501 02       		.byte	0x2
 1482 0502 2B       		.byte	0x2b
 1483 0503 1F020000 		.4byte	0x21f
 1484 0507 00       		.byte	0
 1485 0508 09       		.uleb128 0x9
 1486 0509 04       		.byte	0x4
 1487 050a 25020000 		.4byte	0x225
 1488 050e 15       		.uleb128 0x15
 1489 050f A7000000 		.4byte	.LASF74
 1490 0513 01       		.byte	0x1
 1491 0514 EA       		.byte	0xea
 1492 0515 8C000000 		.4byte	0x8c
 1493 0519 01       		.byte	0x1
 1494 051a 29050000 		.4byte	0x529
 1495 051e 12       		.uleb128 0x12
 1496 051f 6D7000   		.ascii	"mp\000"
 1497 0522 01       		.byte	0x1
 1498 0523 EA       		.byte	0xea
 1499 0524 BB040000 		.4byte	0x4bb
 1500 0528 00       		.byte	0
 1501 0529 11       		.uleb128 0x11
 1502 052a C9030000 		.4byte	.LASF65
 1503 052e 02       		.byte	0x2
 1504 052f 3B       		.byte	0x3b
 1505 0530 1F020000 		.4byte	0x21f
 1506 0534 03       		.byte	0x3
 1507 0535 4F050000 		.4byte	0x54f
 1508 0539 12       		.uleb128 0x12
 1509 053a 74717000 		.ascii	"tqp\000"
 1510 053e 02       		.byte	0x2
 1511 053f 3B       		.byte	0x3b
 1512 0540 08050000 		.4byte	0x508
 1513 0544 14       		.uleb128 0x14
 1514 0545 747000   		.ascii	"tp\000"
 1515 0548 02       		.byte	0x2
 1516 0549 3C       		.byte	0x3c
 1517 054a 1F020000 		.4byte	0x21f
 1518 054e 00       		.byte	0
 1519 054f 16       		.uleb128 0x16
 1520 0550 23040000 		.4byte	.LASF66
 1521 0554 01       		.byte	0x1
 1522 0555 56       		.byte	0x56
 1523 0556 00000000 		.4byte	.LFB7
 1524 055a 0A000000 		.4byte	.LFE7-.LFB7
 1525 055e 01       		.uleb128 0x1
 1526 055f 9C       		.byte	0x9c
 1527 0560 71050000 		.4byte	0x571
 1528 0564 17       		.uleb128 0x17
 1529 0565 6D7000   		.ascii	"mp\000"
 1530 0568 01       		.byte	0x1
ARM GAS  /tmp/ccx30ula.s 			page 28


 1531 0569 56       		.byte	0x56
 1532 056a BB040000 		.4byte	0x4bb
 1533 056e 01       		.uleb128 0x1
 1534 056f 50       		.byte	0x50
 1535 0570 00       		.byte	0
 1536 0571 16       		.uleb128 0x16
 1537 0572 5A040000 		.4byte	.LASF67
 1538 0576 01       		.byte	0x1
 1539 0577 79       		.byte	0x79
 1540 0578 00000000 		.4byte	.LFB9
 1541 057c C4000000 		.4byte	.LFE9-.LFB9
 1542 0580 01       		.uleb128 0x1
 1543 0581 9C       		.byte	0x9c
 1544 0582 D6060000 		.4byte	0x6d6
 1545 0586 18       		.uleb128 0x18
 1546 0587 6D7000   		.ascii	"mp\000"
 1547 058a 01       		.byte	0x1
 1548 058b 79       		.byte	0x79
 1549 058c BB040000 		.4byte	0x4bb
 1550 0590 00000000 		.4byte	.LLST0
 1551 0594 19       		.uleb128 0x19
 1552 0595 63747000 		.ascii	"ctp\000"
 1553 0599 01       		.byte	0x1
 1554 059a 7A       		.byte	0x7a
 1555 059b 1F020000 		.4byte	0x21f
 1556 059f 46000000 		.4byte	.LLST1
 1557 05a3 1A       		.uleb128 0x1a
 1558 05a4 00000000 		.4byte	.Ldebug_ranges0+0
 1559 05a8 19       		.uleb128 0x19
 1560 05a9 747000   		.ascii	"tp\000"
 1561 05ac 01       		.byte	0x1
 1562 05ad 84       		.byte	0x84
 1563 05ae 1F020000 		.4byte	0x21f
 1564 05b2 70000000 		.4byte	.LLST2
 1565 05b6 1B       		.uleb128 0x1b
 1566 05b7 DC040000 		.4byte	0x4dc
 1567 05bb 24000000 		.4byte	.LBB34
 1568 05bf 1C000000 		.4byte	.LBE34-.LBB34
 1569 05c3 01       		.byte	0x1
 1570 05c4 AD       		.byte	0xad
 1571 05c5 EF050000 		.4byte	0x5ef
 1572 05c9 1C       		.uleb128 0x1c
 1573 05ca F2040000 		.4byte	0x4f2
 1574 05ce 99000000 		.4byte	.LLST3
 1575 05d2 1C       		.uleb128 0x1c
 1576 05d3 E8040000 		.4byte	0x4e8
 1577 05d7 C9000000 		.4byte	.LLST4
 1578 05db 1D       		.uleb128 0x1d
 1579 05dc 24000000 		.4byte	.LBB35
 1580 05e0 1C000000 		.4byte	.LBE35-.LBB35
 1581 05e4 1E       		.uleb128 0x1e
 1582 05e5 FD040000 		.4byte	0x4fd
 1583 05e9 E8000000 		.4byte	.LLST5
 1584 05ed 00       		.byte	0
 1585 05ee 00       		.byte	0
 1586 05ef 1B       		.uleb128 0x1b
 1587 05f0 C1040000 		.4byte	0x4c1
ARM GAS  /tmp/ccx30ula.s 			page 29


 1588 05f4 4C000000 		.4byte	.LBB36
 1589 05f8 0A000000 		.4byte	.LBE36-.LBB36
 1590 05fc 01       		.byte	0x1
 1591 05fd A7       		.byte	0xa7
 1592 05fe 0C060000 		.4byte	0x60c
 1593 0602 1C       		.uleb128 0x1c
 1594 0603 D1040000 		.4byte	0x4d1
 1595 0607 06010000 		.4byte	.LLST6
 1596 060b 00       		.byte	0
 1597 060c 1F       		.uleb128 0x1f
 1598 060d C1040000 		.4byte	0x4c1
 1599 0611 5C000000 		.4byte	.LBB38
 1600 0615 18000000 		.4byte	.Ldebug_ranges0+0x18
 1601 0619 01       		.byte	0x1
 1602 061a 9E       		.byte	0x9e
 1603 061b 29060000 		.4byte	0x629
 1604 061f 1C       		.uleb128 0x1c
 1605 0620 D1040000 		.4byte	0x4d1
 1606 0624 19010000 		.4byte	.LLST7
 1607 0628 00       		.byte	0
 1608 0629 1B       		.uleb128 0x1b
 1609 062a DC040000 		.4byte	0x4dc
 1610 062e 68000000 		.4byte	.LBB42
 1611 0632 1C000000 		.4byte	.LBE42-.LBB42
 1612 0636 01       		.byte	0x1
 1613 0637 9E       		.byte	0x9e
 1614 0638 62060000 		.4byte	0x662
 1615 063c 1C       		.uleb128 0x1c
 1616 063d F2040000 		.4byte	0x4f2
 1617 0641 2C010000 		.4byte	.LLST8
 1618 0645 1C       		.uleb128 0x1c
 1619 0646 E8040000 		.4byte	0x4e8
 1620 064a 3F010000 		.4byte	.LLST9
 1621 064e 1D       		.uleb128 0x1d
 1622 064f 68000000 		.4byte	.LBB43
 1623 0653 1C000000 		.4byte	.LBE43-.LBB43
 1624 0657 1E       		.uleb128 0x1e
 1625 0658 FD040000 		.4byte	0x4fd
 1626 065c 52010000 		.4byte	.LLST10
 1627 0660 00       		.byte	0
 1628 0661 00       		.byte	0
 1629 0662 1F       		.uleb128 0x1f
 1630 0663 C1040000 		.4byte	0x4c1
 1631 0667 84000000 		.4byte	.LBB44
 1632 066b 30000000 		.4byte	.Ldebug_ranges0+0x30
 1633 066f 01       		.byte	0x1
 1634 0670 8E       		.byte	0x8e
 1635 0671 7F060000 		.4byte	0x67f
 1636 0675 1C       		.uleb128 0x1c
 1637 0676 D1040000 		.4byte	0x4d1
 1638 067a 70010000 		.4byte	.LLST11
 1639 067e 00       		.byte	0
 1640 067f 1B       		.uleb128 0x1b
 1641 0680 DC040000 		.4byte	0x4dc
 1642 0684 94000000 		.4byte	.LBB48
 1643 0688 16000000 		.4byte	.LBE48-.LBB48
 1644 068c 01       		.byte	0x1
ARM GAS  /tmp/ccx30ula.s 			page 30


 1645 068d 8E       		.byte	0x8e
 1646 068e B8060000 		.4byte	0x6b8
 1647 0692 1C       		.uleb128 0x1c
 1648 0693 F2040000 		.4byte	0x4f2
 1649 0697 8F010000 		.4byte	.LLST12
 1650 069b 1C       		.uleb128 0x1c
 1651 069c E8040000 		.4byte	0x4e8
 1652 06a0 A2010000 		.4byte	.LLST13
 1653 06a4 1D       		.uleb128 0x1d
 1654 06a5 94000000 		.4byte	.LBB49
 1655 06a9 16000000 		.4byte	.LBE49-.LBB49
 1656 06ad 1E       		.uleb128 0x1e
 1657 06ae FD040000 		.4byte	0x4fd
 1658 06b2 C1010000 		.4byte	.LLST14
 1659 06b6 00       		.byte	0
 1660 06b7 00       		.byte	0
 1661 06b8 20       		.uleb128 0x20
 1662 06b9 4C000000 		.4byte	.LVL9
 1663 06bd 3F0A0000 		.4byte	0xa3f
 1664 06c1 CB060000 		.4byte	0x6cb
 1665 06c5 21       		.uleb128 0x21
 1666 06c6 01       		.uleb128 0x1
 1667 06c7 50       		.byte	0x50
 1668 06c8 01       		.uleb128 0x1
 1669 06c9 34       		.byte	0x34
 1670 06ca 00       		.byte	0
 1671 06cb 22       		.uleb128 0x22
 1672 06cc 5A000000 		.4byte	.LVL10
 1673 06d0 500A0000 		.4byte	0xa50
 1674 06d4 00       		.byte	0
 1675 06d5 00       		.byte	0
 1676 06d6 16       		.uleb128 0x16
 1677 06d7 AF020000 		.4byte	.LASF68
 1678 06db 01       		.byte	0x1
 1679 06dc 67       		.byte	0x67
 1680 06dd 00000000 		.4byte	.LFB8
 1681 06e1 14000000 		.4byte	.LFE8-.LFB8
 1682 06e5 01       		.uleb128 0x1
 1683 06e6 9C       		.byte	0x9c
 1684 06e7 41070000 		.4byte	0x741
 1685 06eb 18       		.uleb128 0x18
 1686 06ec 6D7000   		.ascii	"mp\000"
 1687 06ef 01       		.byte	0x1
 1688 06f0 67       		.byte	0x67
 1689 06f1 BB040000 		.4byte	0x4bb
 1690 06f5 DF010000 		.4byte	.LLST15
 1691 06f9 23       		.uleb128 0x23
 1692 06fa 02000000 		.4byte	.LBB51
 1693 06fe 06000000 		.4byte	.LBE51-.LBB51
 1694 0702 14070000 		.4byte	0x714
 1695 0706 24       		.uleb128 0x24
 1696 0707 746D7000 		.ascii	"tmp\000"
 1697 070b 01       		.byte	0x1
 1698 070c 69       		.byte	0x69
 1699 070d 6C000000 		.4byte	0x6c
 1700 0711 01       		.uleb128 0x1
 1701 0712 53       		.byte	0x53
ARM GAS  /tmp/ccx30ula.s 			page 31


 1702 0713 00       		.byte	0
 1703 0714 23       		.uleb128 0x23
 1704 0715 0C000000 		.4byte	.LBB52
 1705 0719 08000000 		.4byte	.LBE52-.LBB52
 1706 071d 2F070000 		.4byte	0x72f
 1707 0721 24       		.uleb128 0x24
 1708 0722 746D7000 		.ascii	"tmp\000"
 1709 0726 01       		.byte	0x1
 1710 0727 6D       		.byte	0x6d
 1711 0728 6C000000 		.4byte	0x6c
 1712 072c 01       		.uleb128 0x1
 1713 072d 53       		.byte	0x53
 1714 072e 00       		.byte	0
 1715 072f 25       		.uleb128 0x25
 1716 0730 0C000000 		.4byte	.LVL24
 1717 0734 71050000 		.4byte	0x571
 1718 0738 21       		.uleb128 0x21
 1719 0739 01       		.uleb128 0x1
 1720 073a 50       		.byte	0x50
 1721 073b 03       		.uleb128 0x3
 1722 073c F3       		.byte	0xf3
 1723 073d 01       		.uleb128 0x1
 1724 073e 50       		.byte	0x50
 1725 073f 00       		.byte	0
 1726 0740 00       		.byte	0
 1727 0741 26       		.uleb128 0x26
 1728 0742 93020000 		.4byte	.LASF69
 1729 0746 01       		.byte	0x1
 1730 0747 CE       		.byte	0xce
 1731 0748 8C000000 		.4byte	0x8c
 1732 074c 00000000 		.4byte	.LFB10
 1733 0750 30000000 		.4byte	.LFE10-.LFB10
 1734 0754 01       		.uleb128 0x1
 1735 0755 9C       		.byte	0x9c
 1736 0756 BD070000 		.4byte	0x7bd
 1737 075a 18       		.uleb128 0x18
 1738 075b 6D7000   		.ascii	"mp\000"
 1739 075e 01       		.byte	0x1
 1740 075f CE       		.byte	0xce
 1741 0760 BB040000 		.4byte	0x4bb
 1742 0764 00020000 		.4byte	.LLST16
 1743 0768 14       		.uleb128 0x14
 1744 0769 6200     		.ascii	"b\000"
 1745 076b 01       		.byte	0x1
 1746 076c CF       		.byte	0xcf
 1747 076d 8C000000 		.4byte	0x8c
 1748 0771 23       		.uleb128 0x23
 1749 0772 02000000 		.4byte	.LBB53
 1750 0776 06000000 		.4byte	.LBE53-.LBB53
 1751 077a 8C070000 		.4byte	0x78c
 1752 077e 24       		.uleb128 0x24
 1753 077f 746D7000 		.ascii	"tmp\000"
 1754 0783 01       		.byte	0x1
 1755 0784 D1       		.byte	0xd1
 1756 0785 6C000000 		.4byte	0x6c
 1757 0789 01       		.uleb128 0x1
 1758 078a 53       		.byte	0x53
ARM GAS  /tmp/ccx30ula.s 			page 32


 1759 078b 00       		.byte	0
 1760 078c 1F       		.uleb128 0x1f
 1761 078d 0E050000 		.4byte	0x50e
 1762 0791 08000000 		.4byte	.LBB54
 1763 0795 48000000 		.4byte	.Ldebug_ranges0+0x48
 1764 0799 01       		.byte	0x1
 1765 079a D3       		.byte	0xd3
 1766 079b A9070000 		.4byte	0x7a9
 1767 079f 1C       		.uleb128 0x1c
 1768 07a0 1E050000 		.4byte	0x51e
 1769 07a4 34020000 		.4byte	.LLST17
 1770 07a8 00       		.byte	0
 1771 07a9 1A       		.uleb128 0x1a
 1772 07aa 60000000 		.4byte	.Ldebug_ranges0+0x60
 1773 07ae 24       		.uleb128 0x24
 1774 07af 746D7000 		.ascii	"tmp\000"
 1775 07b3 01       		.byte	0x1
 1776 07b4 D5       		.byte	0xd5
 1777 07b5 6C000000 		.4byte	0x6c
 1778 07b9 01       		.uleb128 0x1
 1779 07ba 53       		.byte	0x53
 1780 07bb 00       		.byte	0
 1781 07bc 00       		.byte	0
 1782 07bd 27       		.uleb128 0x27
 1783 07be 0E050000 		.4byte	0x50e
 1784 07c2 00000000 		.4byte	.LFB11
 1785 07c6 20000000 		.4byte	.LFE11-.LFB11
 1786 07ca 01       		.uleb128 0x1
 1787 07cb 9C       		.byte	0x9c
 1788 07cc DA070000 		.4byte	0x7da
 1789 07d0 1C       		.uleb128 0x1c
 1790 07d1 1E050000 		.4byte	0x51e
 1791 07d5 68020000 		.4byte	.LLST18
 1792 07d9 00       		.byte	0
 1793 07da 28       		.uleb128 0x28
 1794 07db 47000000 		.4byte	.LASF70
 1795 07df 01       		.byte	0x1
 1796 07e0 0101     		.2byte	0x101
 1797 07e2 BB040000 		.4byte	0x4bb
 1798 07e6 00000000 		.4byte	.LFB12
 1799 07ea 64000000 		.4byte	.LFE12-.LFB12
 1800 07ee 01       		.uleb128 0x1
 1801 07ef 9C       		.byte	0x9c
 1802 07f0 BF080000 		.4byte	0x8bf
 1803 07f4 29       		.uleb128 0x29
 1804 07f5 63747000 		.ascii	"ctp\000"
 1805 07f9 01       		.byte	0x1
 1806 07fa 0201     		.2byte	0x102
 1807 07fc 1F020000 		.4byte	0x21f
 1808 0800 9C020000 		.4byte	.LLST19
 1809 0804 29       		.uleb128 0x29
 1810 0805 756D7000 		.ascii	"ump\000"
 1811 0809 01       		.byte	0x1
 1812 080a 0301     		.2byte	0x103
 1813 080c BB040000 		.4byte	0x4bb
 1814 0810 C6020000 		.4byte	.LLST20
 1815 0814 29       		.uleb128 0x29
ARM GAS  /tmp/ccx30ula.s 			page 33


 1816 0815 6D7000   		.ascii	"mp\000"
 1817 0818 01       		.byte	0x1
 1818 0819 0301     		.2byte	0x103
 1819 081b BB040000 		.4byte	0x4bb
 1820 081f E4020000 		.4byte	.LLST21
 1821 0823 23       		.uleb128 0x23
 1822 0824 06000000 		.4byte	.LBB60
 1823 0828 06000000 		.4byte	.LBE60-.LBB60
 1824 082c 3F080000 		.4byte	0x83f
 1825 0830 2A       		.uleb128 0x2a
 1826 0831 746D7000 		.ascii	"tmp\000"
 1827 0835 01       		.byte	0x1
 1828 0836 0501     		.2byte	0x105
 1829 0838 6C000000 		.4byte	0x6c
 1830 083c 01       		.uleb128 0x1
 1831 083d 53       		.byte	0x53
 1832 083e 00       		.byte	0
 1833 083f 23       		.uleb128 0x23
 1834 0840 18000000 		.4byte	.LBB61
 1835 0844 30000000 		.4byte	.LBE61-.LBB61
 1836 0848 AA080000 		.4byte	0x8aa
 1837 084c 2B       		.uleb128 0x2b
 1838 084d 747000   		.ascii	"tp\000"
 1839 0850 01       		.byte	0x1
 1840 0851 1201     		.2byte	0x112
 1841 0853 1F020000 		.4byte	0x21f
 1842 0857 2C       		.uleb128 0x2c
 1843 0858 6B020000 		.4byte	.LASF71
 1844 085c 01       		.byte	0x1
 1845 085d 1601     		.2byte	0x116
 1846 085f CA000000 		.4byte	0xca
 1847 0863 F7020000 		.4byte	.LLST22
 1848 0867 2D       		.uleb128 0x2d
 1849 0868 29050000 		.4byte	0x529
 1850 086c 30000000 		.4byte	.LBB62
 1851 0870 78000000 		.4byte	.Ldebug_ranges0+0x78
 1852 0874 01       		.byte	0x1
 1853 0875 2501     		.2byte	0x125
 1854 0877 94080000 		.4byte	0x894
 1855 087b 1C       		.uleb128 0x1c
 1856 087c 39050000 		.4byte	0x539
 1857 0880 0A030000 		.4byte	.LLST23
 1858 0884 1A       		.uleb128 0x1a
 1859 0885 78000000 		.4byte	.Ldebug_ranges0+0x78
 1860 0889 1E       		.uleb128 0x1e
 1861 088a 44050000 		.4byte	0x544
 1862 088e 1D030000 		.4byte	.LLST24
 1863 0892 00       		.byte	0
 1864 0893 00       		.byte	0
 1865 0894 25       		.uleb128 0x25
 1866 0895 48000000 		.4byte	.LVL43
 1867 0899 650A0000 		.4byte	0xa65
 1868 089d 21       		.uleb128 0x21
 1869 089e 01       		.uleb128 0x1
 1870 089f 51       		.byte	0x51
 1871 08a0 01       		.uleb128 0x1
 1872 08a1 30       		.byte	0x30
ARM GAS  /tmp/ccx30ula.s 			page 34


 1873 08a2 21       		.uleb128 0x21
 1874 08a3 01       		.uleb128 0x1
 1875 08a4 50       		.byte	0x50
 1876 08a5 02       		.uleb128 0x2
 1877 08a6 75       		.byte	0x75
 1878 08a7 00       		.sleb128 0
 1879 08a8 00       		.byte	0
 1880 08a9 00       		.byte	0
 1881 08aa 1A       		.uleb128 0x1a
 1882 08ab 98000000 		.4byte	.Ldebug_ranges0+0x98
 1883 08af 2A       		.uleb128 0x2a
 1884 08b0 746D7000 		.ascii	"tmp\000"
 1885 08b4 01       		.byte	0x1
 1886 08b5 2D01     		.2byte	0x12d
 1887 08b7 6C000000 		.4byte	0x6c
 1888 08bb 01       		.uleb128 0x1
 1889 08bc 53       		.byte	0x53
 1890 08bd 00       		.byte	0
 1891 08be 00       		.byte	0
 1892 08bf 28       		.uleb128 0x28
 1893 08c0 E8000000 		.4byte	.LASF72
 1894 08c4 01       		.byte	0x1
 1895 08c5 3D01     		.2byte	0x13d
 1896 08c7 BB040000 		.4byte	0x4bb
 1897 08cb 00000000 		.4byte	.LFB13
 1898 08cf 50000000 		.4byte	.LFE13-.LFB13
 1899 08d3 01       		.uleb128 0x1
 1900 08d4 9C       		.byte	0x9c
 1901 08d5 6B090000 		.4byte	0x96b
 1902 08d9 29       		.uleb128 0x29
 1903 08da 63747000 		.ascii	"ctp\000"
 1904 08de 01       		.byte	0x1
 1905 08df 3E01     		.2byte	0x13e
 1906 08e1 1F020000 		.4byte	0x21f
 1907 08e5 30030000 		.4byte	.LLST25
 1908 08e9 29       		.uleb128 0x29
 1909 08ea 756D7000 		.ascii	"ump\000"
 1910 08ee 01       		.byte	0x1
 1911 08ef 3F01     		.2byte	0x13f
 1912 08f1 BB040000 		.4byte	0x4bb
 1913 08f5 4E030000 		.4byte	.LLST26
 1914 08f9 29       		.uleb128 0x29
 1915 08fa 6D7000   		.ascii	"mp\000"
 1916 08fd 01       		.byte	0x1
 1917 08fe 3F01     		.2byte	0x13f
 1918 0900 BB040000 		.4byte	0x4bb
 1919 0904 6C030000 		.4byte	.LLST27
 1920 0908 1D       		.uleb128 0x1d
 1921 0909 12000000 		.4byte	.LBB70
 1922 090d 2E000000 		.4byte	.LBE70-.LBB70
 1923 0911 2B       		.uleb128 0x2b
 1924 0912 747000   		.ascii	"tp\000"
 1925 0915 01       		.byte	0x1
 1926 0916 4F01     		.2byte	0x14f
 1927 0918 1F020000 		.4byte	0x21f
 1928 091c 2C       		.uleb128 0x2c
 1929 091d 6B020000 		.4byte	.LASF71
ARM GAS  /tmp/ccx30ula.s 			page 35


 1930 0921 01       		.byte	0x1
 1931 0922 5301     		.2byte	0x153
 1932 0924 CA000000 		.4byte	0xca
 1933 0928 7F030000 		.4byte	.LLST28
 1934 092c 2D       		.uleb128 0x2d
 1935 092d 29050000 		.4byte	0x529
 1936 0931 2A000000 		.4byte	.LBB71
 1937 0935 B0000000 		.4byte	.Ldebug_ranges0+0xb0
 1938 0939 01       		.byte	0x1
 1939 093a 6001     		.2byte	0x160
 1940 093c 59090000 		.4byte	0x959
 1941 0940 1C       		.uleb128 0x1c
 1942 0941 39050000 		.4byte	0x539
 1943 0945 92030000 		.4byte	.LLST29
 1944 0949 1A       		.uleb128 0x1a
 1945 094a B0000000 		.4byte	.Ldebug_ranges0+0xb0
 1946 094e 1E       		.uleb128 0x1e
 1947 094f 44050000 		.4byte	0x544
 1948 0953 A5030000 		.4byte	.LLST30
 1949 0957 00       		.byte	0
 1950 0958 00       		.byte	0
 1951 0959 25       		.uleb128 0x25
 1952 095a 40000000 		.4byte	.LVL55
 1953 095e 500A0000 		.4byte	0xa50
 1954 0962 21       		.uleb128 0x21
 1955 0963 01       		.uleb128 0x1
 1956 0964 50       		.byte	0x50
 1957 0965 02       		.uleb128 0x2
 1958 0966 75       		.byte	0x75
 1959 0967 00       		.sleb128 0
 1960 0968 00       		.byte	0
 1961 0969 00       		.byte	0
 1962 096a 00       		.byte	0
 1963 096b 2E       		.uleb128 0x2e
 1964 096c 5C020000 		.4byte	.LASF73
 1965 0970 01       		.byte	0x1
 1966 0971 7601     		.2byte	0x176
 1967 0973 00000000 		.4byte	.LFB14
 1968 0977 54000000 		.4byte	.LFE14-.LFB14
 1969 097b 01       		.uleb128 0x1
 1970 097c 9C       		.byte	0x9c
 1971 097d 340A0000 		.4byte	0xa34
 1972 0981 29       		.uleb128 0x29
 1973 0982 63747000 		.ascii	"ctp\000"
 1974 0986 01       		.byte	0x1
 1975 0987 7701     		.2byte	0x177
 1976 0989 1F020000 		.4byte	0x21f
 1977 098d B8030000 		.4byte	.LLST31
 1978 0991 2F       		.uleb128 0x2f
 1979 0992 D0000000 		.4byte	.Ldebug_ranges0+0xd0
 1980 0996 A9090000 		.4byte	0x9a9
 1981 099a 2A       		.uleb128 0x2a
 1982 099b 746D7000 		.ascii	"tmp\000"
 1983 099f 01       		.byte	0x1
 1984 09a0 7901     		.2byte	0x179
 1985 09a2 6C000000 		.4byte	0x6c
 1986 09a6 01       		.uleb128 0x1
ARM GAS  /tmp/ccx30ula.s 			page 36


 1987 09a7 53       		.byte	0x53
 1988 09a8 00       		.byte	0
 1989 09a9 2F       		.uleb128 0x2f
 1990 09aa E8000000 		.4byte	.Ldebug_ranges0+0xe8
 1991 09ae 0E0A0000 		.4byte	0xa0e
 1992 09b2 29       		.uleb128 0x29
 1993 09b3 756D7000 		.ascii	"ump\000"
 1994 09b7 01       		.byte	0x1
 1995 09b8 7C01     		.2byte	0x17c
 1996 09ba BB040000 		.4byte	0x4bb
 1997 09be CB030000 		.4byte	.LLST32
 1998 09c2 1D       		.uleb128 0x1d
 1999 09c3 14000000 		.4byte	.LBB80
 2000 09c7 14000000 		.4byte	.LBE80-.LBB80
 2001 09cb 2B       		.uleb128 0x2b
 2002 09cc 747000   		.ascii	"tp\000"
 2003 09cf 01       		.byte	0x1
 2004 09d0 7F01     		.2byte	0x17f
 2005 09d2 1F020000 		.4byte	0x21f
 2006 09d6 2D       		.uleb128 0x2d
 2007 09d7 29050000 		.4byte	0x529
 2008 09db 14000000 		.4byte	.LBB81
 2009 09df 00010000 		.4byte	.Ldebug_ranges0+0x100
 2010 09e3 01       		.byte	0x1
 2011 09e4 7F01     		.2byte	0x17f
 2012 09e6 030A0000 		.4byte	0xa03
 2013 09ea 1C       		.uleb128 0x1c
 2014 09eb 39050000 		.4byte	0x539
 2015 09ef CB030000 		.4byte	.LLST32
 2016 09f3 1A       		.uleb128 0x1a
 2017 09f4 00010000 		.4byte	.Ldebug_ranges0+0x100
 2018 09f8 1E       		.uleb128 0x1e
 2019 09f9 44050000 		.4byte	0x544
 2020 09fd E9030000 		.4byte	.LLST34
 2021 0a01 00       		.byte	0
 2022 0a02 00       		.byte	0
 2023 0a03 22       		.uleb128 0x22
 2024 0a04 28000000 		.4byte	.LVL61
 2025 0a08 500A0000 		.4byte	0xa50
 2026 0a0c 00       		.byte	0
 2027 0a0d 00       		.byte	0
 2028 0a0e 23       		.uleb128 0x23
 2029 0a0f 46000000 		.4byte	.LBB88
 2030 0a13 0E000000 		.4byte	.LBE88-.LBB88
 2031 0a17 2A0A0000 		.4byte	0xa2a
 2032 0a1b 2A       		.uleb128 0x2a
 2033 0a1c 746D7000 		.ascii	"tmp\000"
 2034 0a20 01       		.byte	0x1
 2035 0a21 8B01     		.2byte	0x18b
 2036 0a23 6C000000 		.4byte	0x6c
 2037 0a27 01       		.uleb128 0x1
 2038 0a28 53       		.byte	0x53
 2039 0a29 00       		.byte	0
 2040 0a2a 22       		.uleb128 0x22
 2041 0a2b 46000000 		.4byte	.LVL66
 2042 0a2f 7B0A0000 		.4byte	0xa7b
 2043 0a33 00       		.byte	0
ARM GAS  /tmp/ccx30ula.s 			page 37


 2044 0a34 30       		.uleb128 0x30
 2045 0a35 3E040000 		.4byte	.LASF82
 2046 0a39 08       		.byte	0x8
 2047 0a3a 6F       		.byte	0x6f
 2048 0a3b 27040000 		.4byte	0x427
 2049 0a3f 31       		.uleb128 0x31
 2050 0a40 9A030000 		.4byte	.LASF76
 2051 0a44 08       		.byte	0x8
 2052 0a45 93       		.byte	0x93
 2053 0a46 500A0000 		.4byte	0xa50
 2054 0a4a 32       		.uleb128 0x32
 2055 0a4b A9000000 		.4byte	0xa9
 2056 0a4f 00       		.byte	0
 2057 0a50 33       		.uleb128 0x33
 2058 0a51 D5030000 		.4byte	.LASF75
 2059 0a55 08       		.byte	0x8
 2060 0a56 90       		.byte	0x90
 2061 0a57 1F020000 		.4byte	0x21f
 2062 0a5b 650A0000 		.4byte	0xa65
 2063 0a5f 32       		.uleb128 0x32
 2064 0a60 1F020000 		.4byte	0x21f
 2065 0a64 00       		.byte	0
 2066 0a65 31       		.uleb128 0x31
 2067 0a66 16040000 		.4byte	.LASF77
 2068 0a6a 08       		.byte	0x8
 2069 0a6b 99       		.byte	0x99
 2070 0a6c 7B0A0000 		.4byte	0xa7b
 2071 0a70 32       		.uleb128 0x32
 2072 0a71 1F020000 		.4byte	0x21f
 2073 0a75 32       		.uleb128 0x32
 2074 0a76 D5000000 		.4byte	0xd5
 2075 0a7a 00       		.byte	0
 2076 0a7b 34       		.uleb128 0x34
 2077 0a7c C6000000 		.4byte	.LASF83
 2078 0a80 08       		.byte	0x8
 2079 0a81 9C       		.byte	0x9c
 2080 0a82 00       		.byte	0
 2081              		.section	.debug_abbrev,"",%progbits
 2082              	.Ldebug_abbrev0:
 2083 0000 01       		.uleb128 0x1
 2084 0001 11       		.uleb128 0x11
 2085 0002 01       		.byte	0x1
 2086 0003 25       		.uleb128 0x25
 2087 0004 0E       		.uleb128 0xe
 2088 0005 13       		.uleb128 0x13
 2089 0006 0B       		.uleb128 0xb
 2090 0007 03       		.uleb128 0x3
 2091 0008 0E       		.uleb128 0xe
 2092 0009 1B       		.uleb128 0x1b
 2093 000a 0E       		.uleb128 0xe
 2094 000b 55       		.uleb128 0x55
 2095 000c 17       		.uleb128 0x17
 2096 000d 11       		.uleb128 0x11
 2097 000e 01       		.uleb128 0x1
 2098 000f 10       		.uleb128 0x10
 2099 0010 17       		.uleb128 0x17
 2100 0011 00       		.byte	0
ARM GAS  /tmp/ccx30ula.s 			page 38


 2101 0012 00       		.byte	0
 2102 0013 02       		.uleb128 0x2
 2103 0014 24       		.uleb128 0x24
 2104 0015 00       		.byte	0
 2105 0016 0B       		.uleb128 0xb
 2106 0017 0B       		.uleb128 0xb
 2107 0018 3E       		.uleb128 0x3e
 2108 0019 0B       		.uleb128 0xb
 2109 001a 03       		.uleb128 0x3
 2110 001b 08       		.uleb128 0x8
 2111 001c 00       		.byte	0
 2112 001d 00       		.byte	0
 2113 001e 03       		.uleb128 0x3
 2114 001f 24       		.uleb128 0x24
 2115 0020 00       		.byte	0
 2116 0021 0B       		.uleb128 0xb
 2117 0022 0B       		.uleb128 0xb
 2118 0023 3E       		.uleb128 0x3e
 2119 0024 0B       		.uleb128 0xb
 2120 0025 03       		.uleb128 0x3
 2121 0026 0E       		.uleb128 0xe
 2122 0027 00       		.byte	0
 2123 0028 00       		.byte	0
 2124 0029 04       		.uleb128 0x4
 2125 002a 16       		.uleb128 0x16
 2126 002b 00       		.byte	0
 2127 002c 03       		.uleb128 0x3
 2128 002d 0E       		.uleb128 0xe
 2129 002e 3A       		.uleb128 0x3a
 2130 002f 0B       		.uleb128 0xb
 2131 0030 3B       		.uleb128 0x3b
 2132 0031 0B       		.uleb128 0xb
 2133 0032 49       		.uleb128 0x49
 2134 0033 13       		.uleb128 0x13
 2135 0034 00       		.byte	0
 2136 0035 00       		.byte	0
 2137 0036 05       		.uleb128 0x5
 2138 0037 13       		.uleb128 0x13
 2139 0038 01       		.byte	0x1
 2140 0039 03       		.uleb128 0x3
 2141 003a 0E       		.uleb128 0xe
 2142 003b 0B       		.uleb128 0xb
 2143 003c 0B       		.uleb128 0xb
 2144 003d 3A       		.uleb128 0x3a
 2145 003e 0B       		.uleb128 0xb
 2146 003f 3B       		.uleb128 0x3b
 2147 0040 0B       		.uleb128 0xb
 2148 0041 01       		.uleb128 0x1
 2149 0042 13       		.uleb128 0x13
 2150 0043 00       		.byte	0
 2151 0044 00       		.byte	0
 2152 0045 06       		.uleb128 0x6
 2153 0046 0D       		.uleb128 0xd
 2154 0047 00       		.byte	0
 2155 0048 03       		.uleb128 0x3
 2156 0049 0E       		.uleb128 0xe
 2157 004a 3A       		.uleb128 0x3a
ARM GAS  /tmp/ccx30ula.s 			page 39


 2158 004b 0B       		.uleb128 0xb
 2159 004c 3B       		.uleb128 0x3b
 2160 004d 0B       		.uleb128 0xb
 2161 004e 49       		.uleb128 0x49
 2162 004f 13       		.uleb128 0x13
 2163 0050 38       		.uleb128 0x38
 2164 0051 0B       		.uleb128 0xb
 2165 0052 00       		.byte	0
 2166 0053 00       		.byte	0
 2167 0054 07       		.uleb128 0x7
 2168 0055 0D       		.uleb128 0xd
 2169 0056 00       		.byte	0
 2170 0057 03       		.uleb128 0x3
 2171 0058 08       		.uleb128 0x8
 2172 0059 3A       		.uleb128 0x3a
 2173 005a 0B       		.uleb128 0xb
 2174 005b 3B       		.uleb128 0x3b
 2175 005c 0B       		.uleb128 0xb
 2176 005d 49       		.uleb128 0x49
 2177 005e 13       		.uleb128 0x13
 2178 005f 38       		.uleb128 0x38
 2179 0060 0B       		.uleb128 0xb
 2180 0061 00       		.byte	0
 2181 0062 00       		.byte	0
 2182 0063 08       		.uleb128 0x8
 2183 0064 13       		.uleb128 0x13
 2184 0065 01       		.byte	0x1
 2185 0066 0B       		.uleb128 0xb
 2186 0067 0B       		.uleb128 0xb
 2187 0068 3A       		.uleb128 0x3a
 2188 0069 0B       		.uleb128 0xb
 2189 006a 3B       		.uleb128 0x3b
 2190 006b 0B       		.uleb128 0xb
 2191 006c 01       		.uleb128 0x1
 2192 006d 13       		.uleb128 0x13
 2193 006e 00       		.byte	0
 2194 006f 00       		.byte	0
 2195 0070 09       		.uleb128 0x9
 2196 0071 0F       		.uleb128 0xf
 2197 0072 00       		.byte	0
 2198 0073 0B       		.uleb128 0xb
 2199 0074 0B       		.uleb128 0xb
 2200 0075 49       		.uleb128 0x49
 2201 0076 13       		.uleb128 0x13
 2202 0077 00       		.byte	0
 2203 0078 00       		.byte	0
 2204 0079 0A       		.uleb128 0xa
 2205 007a 0F       		.uleb128 0xf
 2206 007b 00       		.byte	0
 2207 007c 0B       		.uleb128 0xb
 2208 007d 0B       		.uleb128 0xb
 2209 007e 00       		.byte	0
 2210 007f 00       		.byte	0
 2211 0080 0B       		.uleb128 0xb
 2212 0081 13       		.uleb128 0x13
 2213 0082 01       		.byte	0x1
 2214 0083 03       		.uleb128 0x3
ARM GAS  /tmp/ccx30ula.s 			page 40


 2215 0084 0E       		.uleb128 0xe
 2216 0085 0B       		.uleb128 0xb
 2217 0086 0B       		.uleb128 0xb
 2218 0087 3A       		.uleb128 0x3a
 2219 0088 0B       		.uleb128 0xb
 2220 0089 3B       		.uleb128 0x3b
 2221 008a 05       		.uleb128 0x5
 2222 008b 01       		.uleb128 0x1
 2223 008c 13       		.uleb128 0x13
 2224 008d 00       		.byte	0
 2225 008e 00       		.byte	0
 2226 008f 0C       		.uleb128 0xc
 2227 0090 0D       		.uleb128 0xd
 2228 0091 00       		.byte	0
 2229 0092 03       		.uleb128 0x3
 2230 0093 08       		.uleb128 0x8
 2231 0094 3A       		.uleb128 0x3a
 2232 0095 0B       		.uleb128 0xb
 2233 0096 3B       		.uleb128 0x3b
 2234 0097 05       		.uleb128 0x5
 2235 0098 49       		.uleb128 0x49
 2236 0099 13       		.uleb128 0x13
 2237 009a 38       		.uleb128 0x38
 2238 009b 0B       		.uleb128 0xb
 2239 009c 00       		.byte	0
 2240 009d 00       		.byte	0
 2241 009e 0D       		.uleb128 0xd
 2242 009f 35       		.uleb128 0x35
 2243 00a0 00       		.byte	0
 2244 00a1 49       		.uleb128 0x49
 2245 00a2 13       		.uleb128 0x13
 2246 00a3 00       		.byte	0
 2247 00a4 00       		.byte	0
 2248 00a5 0E       		.uleb128 0xe
 2249 00a6 17       		.uleb128 0x17
 2250 00a7 01       		.byte	0x1
 2251 00a8 0B       		.uleb128 0xb
 2252 00a9 0B       		.uleb128 0xb
 2253 00aa 3A       		.uleb128 0x3a
 2254 00ab 0B       		.uleb128 0xb
 2255 00ac 3B       		.uleb128 0x3b
 2256 00ad 0B       		.uleb128 0xb
 2257 00ae 01       		.uleb128 0x1
 2258 00af 13       		.uleb128 0x13
 2259 00b0 00       		.byte	0
 2260 00b1 00       		.byte	0
 2261 00b2 0F       		.uleb128 0xf
 2262 00b3 0D       		.uleb128 0xd
 2263 00b4 00       		.byte	0
 2264 00b5 03       		.uleb128 0x3
 2265 00b6 0E       		.uleb128 0xe
 2266 00b7 3A       		.uleb128 0x3a
 2267 00b8 0B       		.uleb128 0xb
 2268 00b9 3B       		.uleb128 0x3b
 2269 00ba 0B       		.uleb128 0xb
 2270 00bb 49       		.uleb128 0x49
 2271 00bc 13       		.uleb128 0x13
ARM GAS  /tmp/ccx30ula.s 			page 41


 2272 00bd 00       		.byte	0
 2273 00be 00       		.byte	0
 2274 00bf 10       		.uleb128 0x10
 2275 00c0 26       		.uleb128 0x26
 2276 00c1 00       		.byte	0
 2277 00c2 49       		.uleb128 0x49
 2278 00c3 13       		.uleb128 0x13
 2279 00c4 00       		.byte	0
 2280 00c5 00       		.byte	0
 2281 00c6 11       		.uleb128 0x11
 2282 00c7 2E       		.uleb128 0x2e
 2283 00c8 01       		.byte	0x1
 2284 00c9 03       		.uleb128 0x3
 2285 00ca 0E       		.uleb128 0xe
 2286 00cb 3A       		.uleb128 0x3a
 2287 00cc 0B       		.uleb128 0xb
 2288 00cd 3B       		.uleb128 0x3b
 2289 00ce 0B       		.uleb128 0xb
 2290 00cf 27       		.uleb128 0x27
 2291 00d0 19       		.uleb128 0x19
 2292 00d1 49       		.uleb128 0x49
 2293 00d2 13       		.uleb128 0x13
 2294 00d3 20       		.uleb128 0x20
 2295 00d4 0B       		.uleb128 0xb
 2296 00d5 01       		.uleb128 0x1
 2297 00d6 13       		.uleb128 0x13
 2298 00d7 00       		.byte	0
 2299 00d8 00       		.byte	0
 2300 00d9 12       		.uleb128 0x12
 2301 00da 05       		.uleb128 0x5
 2302 00db 00       		.byte	0
 2303 00dc 03       		.uleb128 0x3
 2304 00dd 08       		.uleb128 0x8
 2305 00de 3A       		.uleb128 0x3a
 2306 00df 0B       		.uleb128 0xb
 2307 00e0 3B       		.uleb128 0x3b
 2308 00e1 0B       		.uleb128 0xb
 2309 00e2 49       		.uleb128 0x49
 2310 00e3 13       		.uleb128 0x13
 2311 00e4 00       		.byte	0
 2312 00e5 00       		.byte	0
 2313 00e6 13       		.uleb128 0x13
 2314 00e7 2E       		.uleb128 0x2e
 2315 00e8 01       		.byte	0x1
 2316 00e9 03       		.uleb128 0x3
 2317 00ea 0E       		.uleb128 0xe
 2318 00eb 3A       		.uleb128 0x3a
 2319 00ec 0B       		.uleb128 0xb
 2320 00ed 3B       		.uleb128 0x3b
 2321 00ee 0B       		.uleb128 0xb
 2322 00ef 27       		.uleb128 0x27
 2323 00f0 19       		.uleb128 0x19
 2324 00f1 20       		.uleb128 0x20
 2325 00f2 0B       		.uleb128 0xb
 2326 00f3 01       		.uleb128 0x1
 2327 00f4 13       		.uleb128 0x13
 2328 00f5 00       		.byte	0
ARM GAS  /tmp/ccx30ula.s 			page 42


 2329 00f6 00       		.byte	0
 2330 00f7 14       		.uleb128 0x14
 2331 00f8 34       		.uleb128 0x34
 2332 00f9 00       		.byte	0
 2333 00fa 03       		.uleb128 0x3
 2334 00fb 08       		.uleb128 0x8
 2335 00fc 3A       		.uleb128 0x3a
 2336 00fd 0B       		.uleb128 0xb
 2337 00fe 3B       		.uleb128 0x3b
 2338 00ff 0B       		.uleb128 0xb
 2339 0100 49       		.uleb128 0x49
 2340 0101 13       		.uleb128 0x13
 2341 0102 00       		.byte	0
 2342 0103 00       		.byte	0
 2343 0104 15       		.uleb128 0x15
 2344 0105 2E       		.uleb128 0x2e
 2345 0106 01       		.byte	0x1
 2346 0107 3F       		.uleb128 0x3f
 2347 0108 19       		.uleb128 0x19
 2348 0109 03       		.uleb128 0x3
 2349 010a 0E       		.uleb128 0xe
 2350 010b 3A       		.uleb128 0x3a
 2351 010c 0B       		.uleb128 0xb
 2352 010d 3B       		.uleb128 0x3b
 2353 010e 0B       		.uleb128 0xb
 2354 010f 27       		.uleb128 0x27
 2355 0110 19       		.uleb128 0x19
 2356 0111 49       		.uleb128 0x49
 2357 0112 13       		.uleb128 0x13
 2358 0113 20       		.uleb128 0x20
 2359 0114 0B       		.uleb128 0xb
 2360 0115 01       		.uleb128 0x1
 2361 0116 13       		.uleb128 0x13
 2362 0117 00       		.byte	0
 2363 0118 00       		.byte	0
 2364 0119 16       		.uleb128 0x16
 2365 011a 2E       		.uleb128 0x2e
 2366 011b 01       		.byte	0x1
 2367 011c 3F       		.uleb128 0x3f
 2368 011d 19       		.uleb128 0x19
 2369 011e 03       		.uleb128 0x3
 2370 011f 0E       		.uleb128 0xe
 2371 0120 3A       		.uleb128 0x3a
 2372 0121 0B       		.uleb128 0xb
 2373 0122 3B       		.uleb128 0x3b
 2374 0123 0B       		.uleb128 0xb
 2375 0124 27       		.uleb128 0x27
 2376 0125 19       		.uleb128 0x19
 2377 0126 11       		.uleb128 0x11
 2378 0127 01       		.uleb128 0x1
 2379 0128 12       		.uleb128 0x12
 2380 0129 06       		.uleb128 0x6
 2381 012a 40       		.uleb128 0x40
 2382 012b 18       		.uleb128 0x18
 2383 012c 9742     		.uleb128 0x2117
 2384 012e 19       		.uleb128 0x19
 2385 012f 01       		.uleb128 0x1
ARM GAS  /tmp/ccx30ula.s 			page 43


 2386 0130 13       		.uleb128 0x13
 2387 0131 00       		.byte	0
 2388 0132 00       		.byte	0
 2389 0133 17       		.uleb128 0x17
 2390 0134 05       		.uleb128 0x5
 2391 0135 00       		.byte	0
 2392 0136 03       		.uleb128 0x3
 2393 0137 08       		.uleb128 0x8
 2394 0138 3A       		.uleb128 0x3a
 2395 0139 0B       		.uleb128 0xb
 2396 013a 3B       		.uleb128 0x3b
 2397 013b 0B       		.uleb128 0xb
 2398 013c 49       		.uleb128 0x49
 2399 013d 13       		.uleb128 0x13
 2400 013e 02       		.uleb128 0x2
 2401 013f 18       		.uleb128 0x18
 2402 0140 00       		.byte	0
 2403 0141 00       		.byte	0
 2404 0142 18       		.uleb128 0x18
 2405 0143 05       		.uleb128 0x5
 2406 0144 00       		.byte	0
 2407 0145 03       		.uleb128 0x3
 2408 0146 08       		.uleb128 0x8
 2409 0147 3A       		.uleb128 0x3a
 2410 0148 0B       		.uleb128 0xb
 2411 0149 3B       		.uleb128 0x3b
 2412 014a 0B       		.uleb128 0xb
 2413 014b 49       		.uleb128 0x49
 2414 014c 13       		.uleb128 0x13
 2415 014d 02       		.uleb128 0x2
 2416 014e 17       		.uleb128 0x17
 2417 014f 00       		.byte	0
 2418 0150 00       		.byte	0
 2419 0151 19       		.uleb128 0x19
 2420 0152 34       		.uleb128 0x34
 2421 0153 00       		.byte	0
 2422 0154 03       		.uleb128 0x3
 2423 0155 08       		.uleb128 0x8
 2424 0156 3A       		.uleb128 0x3a
 2425 0157 0B       		.uleb128 0xb
 2426 0158 3B       		.uleb128 0x3b
 2427 0159 0B       		.uleb128 0xb
 2428 015a 49       		.uleb128 0x49
 2429 015b 13       		.uleb128 0x13
 2430 015c 02       		.uleb128 0x2
 2431 015d 17       		.uleb128 0x17
 2432 015e 00       		.byte	0
 2433 015f 00       		.byte	0
 2434 0160 1A       		.uleb128 0x1a
 2435 0161 0B       		.uleb128 0xb
 2436 0162 01       		.byte	0x1
 2437 0163 55       		.uleb128 0x55
 2438 0164 17       		.uleb128 0x17
 2439 0165 00       		.byte	0
 2440 0166 00       		.byte	0
 2441 0167 1B       		.uleb128 0x1b
 2442 0168 1D       		.uleb128 0x1d
ARM GAS  /tmp/ccx30ula.s 			page 44


 2443 0169 01       		.byte	0x1
 2444 016a 31       		.uleb128 0x31
 2445 016b 13       		.uleb128 0x13
 2446 016c 11       		.uleb128 0x11
 2447 016d 01       		.uleb128 0x1
 2448 016e 12       		.uleb128 0x12
 2449 016f 06       		.uleb128 0x6
 2450 0170 58       		.uleb128 0x58
 2451 0171 0B       		.uleb128 0xb
 2452 0172 59       		.uleb128 0x59
 2453 0173 0B       		.uleb128 0xb
 2454 0174 01       		.uleb128 0x1
 2455 0175 13       		.uleb128 0x13
 2456 0176 00       		.byte	0
 2457 0177 00       		.byte	0
 2458 0178 1C       		.uleb128 0x1c
 2459 0179 05       		.uleb128 0x5
 2460 017a 00       		.byte	0
 2461 017b 31       		.uleb128 0x31
 2462 017c 13       		.uleb128 0x13
 2463 017d 02       		.uleb128 0x2
 2464 017e 17       		.uleb128 0x17
 2465 017f 00       		.byte	0
 2466 0180 00       		.byte	0
 2467 0181 1D       		.uleb128 0x1d
 2468 0182 0B       		.uleb128 0xb
 2469 0183 01       		.byte	0x1
 2470 0184 11       		.uleb128 0x11
 2471 0185 01       		.uleb128 0x1
 2472 0186 12       		.uleb128 0x12
 2473 0187 06       		.uleb128 0x6
 2474 0188 00       		.byte	0
 2475 0189 00       		.byte	0
 2476 018a 1E       		.uleb128 0x1e
 2477 018b 34       		.uleb128 0x34
 2478 018c 00       		.byte	0
 2479 018d 31       		.uleb128 0x31
 2480 018e 13       		.uleb128 0x13
 2481 018f 02       		.uleb128 0x2
 2482 0190 17       		.uleb128 0x17
 2483 0191 00       		.byte	0
 2484 0192 00       		.byte	0
 2485 0193 1F       		.uleb128 0x1f
 2486 0194 1D       		.uleb128 0x1d
 2487 0195 01       		.byte	0x1
 2488 0196 31       		.uleb128 0x31
 2489 0197 13       		.uleb128 0x13
 2490 0198 52       		.uleb128 0x52
 2491 0199 01       		.uleb128 0x1
 2492 019a 55       		.uleb128 0x55
 2493 019b 17       		.uleb128 0x17
 2494 019c 58       		.uleb128 0x58
 2495 019d 0B       		.uleb128 0xb
 2496 019e 59       		.uleb128 0x59
 2497 019f 0B       		.uleb128 0xb
 2498 01a0 01       		.uleb128 0x1
 2499 01a1 13       		.uleb128 0x13
ARM GAS  /tmp/ccx30ula.s 			page 45


 2500 01a2 00       		.byte	0
 2501 01a3 00       		.byte	0
 2502 01a4 20       		.uleb128 0x20
 2503 01a5 898201   		.uleb128 0x4109
 2504 01a8 01       		.byte	0x1
 2505 01a9 11       		.uleb128 0x11
 2506 01aa 01       		.uleb128 0x1
 2507 01ab 9542     		.uleb128 0x2115
 2508 01ad 19       		.uleb128 0x19
 2509 01ae 31       		.uleb128 0x31
 2510 01af 13       		.uleb128 0x13
 2511 01b0 01       		.uleb128 0x1
 2512 01b1 13       		.uleb128 0x13
 2513 01b2 00       		.byte	0
 2514 01b3 00       		.byte	0
 2515 01b4 21       		.uleb128 0x21
 2516 01b5 8A8201   		.uleb128 0x410a
 2517 01b8 00       		.byte	0
 2518 01b9 02       		.uleb128 0x2
 2519 01ba 18       		.uleb128 0x18
 2520 01bb 9142     		.uleb128 0x2111
 2521 01bd 18       		.uleb128 0x18
 2522 01be 00       		.byte	0
 2523 01bf 00       		.byte	0
 2524 01c0 22       		.uleb128 0x22
 2525 01c1 898201   		.uleb128 0x4109
 2526 01c4 00       		.byte	0
 2527 01c5 11       		.uleb128 0x11
 2528 01c6 01       		.uleb128 0x1
 2529 01c7 31       		.uleb128 0x31
 2530 01c8 13       		.uleb128 0x13
 2531 01c9 00       		.byte	0
 2532 01ca 00       		.byte	0
 2533 01cb 23       		.uleb128 0x23
 2534 01cc 0B       		.uleb128 0xb
 2535 01cd 01       		.byte	0x1
 2536 01ce 11       		.uleb128 0x11
 2537 01cf 01       		.uleb128 0x1
 2538 01d0 12       		.uleb128 0x12
 2539 01d1 06       		.uleb128 0x6
 2540 01d2 01       		.uleb128 0x1
 2541 01d3 13       		.uleb128 0x13
 2542 01d4 00       		.byte	0
 2543 01d5 00       		.byte	0
 2544 01d6 24       		.uleb128 0x24
 2545 01d7 34       		.uleb128 0x34
 2546 01d8 00       		.byte	0
 2547 01d9 03       		.uleb128 0x3
 2548 01da 08       		.uleb128 0x8
 2549 01db 3A       		.uleb128 0x3a
 2550 01dc 0B       		.uleb128 0xb
 2551 01dd 3B       		.uleb128 0x3b
 2552 01de 0B       		.uleb128 0xb
 2553 01df 49       		.uleb128 0x49
 2554 01e0 13       		.uleb128 0x13
 2555 01e1 02       		.uleb128 0x2
 2556 01e2 18       		.uleb128 0x18
ARM GAS  /tmp/ccx30ula.s 			page 46


 2557 01e3 00       		.byte	0
 2558 01e4 00       		.byte	0
 2559 01e5 25       		.uleb128 0x25
 2560 01e6 898201   		.uleb128 0x4109
 2561 01e9 01       		.byte	0x1
 2562 01ea 11       		.uleb128 0x11
 2563 01eb 01       		.uleb128 0x1
 2564 01ec 31       		.uleb128 0x31
 2565 01ed 13       		.uleb128 0x13
 2566 01ee 00       		.byte	0
 2567 01ef 00       		.byte	0
 2568 01f0 26       		.uleb128 0x26
 2569 01f1 2E       		.uleb128 0x2e
 2570 01f2 01       		.byte	0x1
 2571 01f3 3F       		.uleb128 0x3f
 2572 01f4 19       		.uleb128 0x19
 2573 01f5 03       		.uleb128 0x3
 2574 01f6 0E       		.uleb128 0xe
 2575 01f7 3A       		.uleb128 0x3a
 2576 01f8 0B       		.uleb128 0xb
 2577 01f9 3B       		.uleb128 0x3b
 2578 01fa 0B       		.uleb128 0xb
 2579 01fb 27       		.uleb128 0x27
 2580 01fc 19       		.uleb128 0x19
 2581 01fd 49       		.uleb128 0x49
 2582 01fe 13       		.uleb128 0x13
 2583 01ff 11       		.uleb128 0x11
 2584 0200 01       		.uleb128 0x1
 2585 0201 12       		.uleb128 0x12
 2586 0202 06       		.uleb128 0x6
 2587 0203 40       		.uleb128 0x40
 2588 0204 18       		.uleb128 0x18
 2589 0205 9742     		.uleb128 0x2117
 2590 0207 19       		.uleb128 0x19
 2591 0208 01       		.uleb128 0x1
 2592 0209 13       		.uleb128 0x13
 2593 020a 00       		.byte	0
 2594 020b 00       		.byte	0
 2595 020c 27       		.uleb128 0x27
 2596 020d 2E       		.uleb128 0x2e
 2597 020e 01       		.byte	0x1
 2598 020f 31       		.uleb128 0x31
 2599 0210 13       		.uleb128 0x13
 2600 0211 11       		.uleb128 0x11
 2601 0212 01       		.uleb128 0x1
 2602 0213 12       		.uleb128 0x12
 2603 0214 06       		.uleb128 0x6
 2604 0215 40       		.uleb128 0x40
 2605 0216 18       		.uleb128 0x18
 2606 0217 9742     		.uleb128 0x2117
 2607 0219 19       		.uleb128 0x19
 2608 021a 01       		.uleb128 0x1
 2609 021b 13       		.uleb128 0x13
 2610 021c 00       		.byte	0
 2611 021d 00       		.byte	0
 2612 021e 28       		.uleb128 0x28
 2613 021f 2E       		.uleb128 0x2e
ARM GAS  /tmp/ccx30ula.s 			page 47


 2614 0220 01       		.byte	0x1
 2615 0221 3F       		.uleb128 0x3f
 2616 0222 19       		.uleb128 0x19
 2617 0223 03       		.uleb128 0x3
 2618 0224 0E       		.uleb128 0xe
 2619 0225 3A       		.uleb128 0x3a
 2620 0226 0B       		.uleb128 0xb
 2621 0227 3B       		.uleb128 0x3b
 2622 0228 05       		.uleb128 0x5
 2623 0229 27       		.uleb128 0x27
 2624 022a 19       		.uleb128 0x19
 2625 022b 49       		.uleb128 0x49
 2626 022c 13       		.uleb128 0x13
 2627 022d 11       		.uleb128 0x11
 2628 022e 01       		.uleb128 0x1
 2629 022f 12       		.uleb128 0x12
 2630 0230 06       		.uleb128 0x6
 2631 0231 40       		.uleb128 0x40
 2632 0232 18       		.uleb128 0x18
 2633 0233 9742     		.uleb128 0x2117
 2634 0235 19       		.uleb128 0x19
 2635 0236 01       		.uleb128 0x1
 2636 0237 13       		.uleb128 0x13
 2637 0238 00       		.byte	0
 2638 0239 00       		.byte	0
 2639 023a 29       		.uleb128 0x29
 2640 023b 34       		.uleb128 0x34
 2641 023c 00       		.byte	0
 2642 023d 03       		.uleb128 0x3
 2643 023e 08       		.uleb128 0x8
 2644 023f 3A       		.uleb128 0x3a
 2645 0240 0B       		.uleb128 0xb
 2646 0241 3B       		.uleb128 0x3b
 2647 0242 05       		.uleb128 0x5
 2648 0243 49       		.uleb128 0x49
 2649 0244 13       		.uleb128 0x13
 2650 0245 02       		.uleb128 0x2
 2651 0246 17       		.uleb128 0x17
 2652 0247 00       		.byte	0
 2653 0248 00       		.byte	0
 2654 0249 2A       		.uleb128 0x2a
 2655 024a 34       		.uleb128 0x34
 2656 024b 00       		.byte	0
 2657 024c 03       		.uleb128 0x3
 2658 024d 08       		.uleb128 0x8
 2659 024e 3A       		.uleb128 0x3a
 2660 024f 0B       		.uleb128 0xb
 2661 0250 3B       		.uleb128 0x3b
 2662 0251 05       		.uleb128 0x5
 2663 0252 49       		.uleb128 0x49
 2664 0253 13       		.uleb128 0x13
 2665 0254 02       		.uleb128 0x2
 2666 0255 18       		.uleb128 0x18
 2667 0256 00       		.byte	0
 2668 0257 00       		.byte	0
 2669 0258 2B       		.uleb128 0x2b
 2670 0259 34       		.uleb128 0x34
ARM GAS  /tmp/ccx30ula.s 			page 48


 2671 025a 00       		.byte	0
 2672 025b 03       		.uleb128 0x3
 2673 025c 08       		.uleb128 0x8
 2674 025d 3A       		.uleb128 0x3a
 2675 025e 0B       		.uleb128 0xb
 2676 025f 3B       		.uleb128 0x3b
 2677 0260 05       		.uleb128 0x5
 2678 0261 49       		.uleb128 0x49
 2679 0262 13       		.uleb128 0x13
 2680 0263 00       		.byte	0
 2681 0264 00       		.byte	0
 2682 0265 2C       		.uleb128 0x2c
 2683 0266 34       		.uleb128 0x34
 2684 0267 00       		.byte	0
 2685 0268 03       		.uleb128 0x3
 2686 0269 0E       		.uleb128 0xe
 2687 026a 3A       		.uleb128 0x3a
 2688 026b 0B       		.uleb128 0xb
 2689 026c 3B       		.uleb128 0x3b
 2690 026d 05       		.uleb128 0x5
 2691 026e 49       		.uleb128 0x49
 2692 026f 13       		.uleb128 0x13
 2693 0270 02       		.uleb128 0x2
 2694 0271 17       		.uleb128 0x17
 2695 0272 00       		.byte	0
 2696 0273 00       		.byte	0
 2697 0274 2D       		.uleb128 0x2d
 2698 0275 1D       		.uleb128 0x1d
 2699 0276 01       		.byte	0x1
 2700 0277 31       		.uleb128 0x31
 2701 0278 13       		.uleb128 0x13
 2702 0279 52       		.uleb128 0x52
 2703 027a 01       		.uleb128 0x1
 2704 027b 55       		.uleb128 0x55
 2705 027c 17       		.uleb128 0x17
 2706 027d 58       		.uleb128 0x58
 2707 027e 0B       		.uleb128 0xb
 2708 027f 59       		.uleb128 0x59
 2709 0280 05       		.uleb128 0x5
 2710 0281 01       		.uleb128 0x1
 2711 0282 13       		.uleb128 0x13
 2712 0283 00       		.byte	0
 2713 0284 00       		.byte	0
 2714 0285 2E       		.uleb128 0x2e
 2715 0286 2E       		.uleb128 0x2e
 2716 0287 01       		.byte	0x1
 2717 0288 3F       		.uleb128 0x3f
 2718 0289 19       		.uleb128 0x19
 2719 028a 03       		.uleb128 0x3
 2720 028b 0E       		.uleb128 0xe
 2721 028c 3A       		.uleb128 0x3a
 2722 028d 0B       		.uleb128 0xb
 2723 028e 3B       		.uleb128 0x3b
 2724 028f 05       		.uleb128 0x5
 2725 0290 27       		.uleb128 0x27
 2726 0291 19       		.uleb128 0x19
 2727 0292 11       		.uleb128 0x11
ARM GAS  /tmp/ccx30ula.s 			page 49


 2728 0293 01       		.uleb128 0x1
 2729 0294 12       		.uleb128 0x12
 2730 0295 06       		.uleb128 0x6
 2731 0296 40       		.uleb128 0x40
 2732 0297 18       		.uleb128 0x18
 2733 0298 9742     		.uleb128 0x2117
 2734 029a 19       		.uleb128 0x19
 2735 029b 01       		.uleb128 0x1
 2736 029c 13       		.uleb128 0x13
 2737 029d 00       		.byte	0
 2738 029e 00       		.byte	0
 2739 029f 2F       		.uleb128 0x2f
 2740 02a0 0B       		.uleb128 0xb
 2741 02a1 01       		.byte	0x1
 2742 02a2 55       		.uleb128 0x55
 2743 02a3 17       		.uleb128 0x17
 2744 02a4 01       		.uleb128 0x1
 2745 02a5 13       		.uleb128 0x13
 2746 02a6 00       		.byte	0
 2747 02a7 00       		.byte	0
 2748 02a8 30       		.uleb128 0x30
 2749 02a9 34       		.uleb128 0x34
 2750 02aa 00       		.byte	0
 2751 02ab 03       		.uleb128 0x3
 2752 02ac 0E       		.uleb128 0xe
 2753 02ad 3A       		.uleb128 0x3a
 2754 02ae 0B       		.uleb128 0xb
 2755 02af 3B       		.uleb128 0x3b
 2756 02b0 0B       		.uleb128 0xb
 2757 02b1 49       		.uleb128 0x49
 2758 02b2 13       		.uleb128 0x13
 2759 02b3 3F       		.uleb128 0x3f
 2760 02b4 19       		.uleb128 0x19
 2761 02b5 3C       		.uleb128 0x3c
 2762 02b6 19       		.uleb128 0x19
 2763 02b7 00       		.byte	0
 2764 02b8 00       		.byte	0
 2765 02b9 31       		.uleb128 0x31
 2766 02ba 2E       		.uleb128 0x2e
 2767 02bb 01       		.byte	0x1
 2768 02bc 3F       		.uleb128 0x3f
 2769 02bd 19       		.uleb128 0x19
 2770 02be 03       		.uleb128 0x3
 2771 02bf 0E       		.uleb128 0xe
 2772 02c0 3A       		.uleb128 0x3a
 2773 02c1 0B       		.uleb128 0xb
 2774 02c2 3B       		.uleb128 0x3b
 2775 02c3 0B       		.uleb128 0xb
 2776 02c4 27       		.uleb128 0x27
 2777 02c5 19       		.uleb128 0x19
 2778 02c6 3C       		.uleb128 0x3c
 2779 02c7 19       		.uleb128 0x19
 2780 02c8 01       		.uleb128 0x1
 2781 02c9 13       		.uleb128 0x13
 2782 02ca 00       		.byte	0
 2783 02cb 00       		.byte	0
 2784 02cc 32       		.uleb128 0x32
ARM GAS  /tmp/ccx30ula.s 			page 50


 2785 02cd 05       		.uleb128 0x5
 2786 02ce 00       		.byte	0
 2787 02cf 49       		.uleb128 0x49
 2788 02d0 13       		.uleb128 0x13
 2789 02d1 00       		.byte	0
 2790 02d2 00       		.byte	0
 2791 02d3 33       		.uleb128 0x33
 2792 02d4 2E       		.uleb128 0x2e
 2793 02d5 01       		.byte	0x1
 2794 02d6 3F       		.uleb128 0x3f
 2795 02d7 19       		.uleb128 0x19
 2796 02d8 03       		.uleb128 0x3
 2797 02d9 0E       		.uleb128 0xe
 2798 02da 3A       		.uleb128 0x3a
 2799 02db 0B       		.uleb128 0xb
 2800 02dc 3B       		.uleb128 0x3b
 2801 02dd 0B       		.uleb128 0xb
 2802 02de 27       		.uleb128 0x27
 2803 02df 19       		.uleb128 0x19
 2804 02e0 49       		.uleb128 0x49
 2805 02e1 13       		.uleb128 0x13
 2806 02e2 3C       		.uleb128 0x3c
 2807 02e3 19       		.uleb128 0x19
 2808 02e4 01       		.uleb128 0x1
 2809 02e5 13       		.uleb128 0x13
 2810 02e6 00       		.byte	0
 2811 02e7 00       		.byte	0
 2812 02e8 34       		.uleb128 0x34
 2813 02e9 2E       		.uleb128 0x2e
 2814 02ea 00       		.byte	0
 2815 02eb 3F       		.uleb128 0x3f
 2816 02ec 19       		.uleb128 0x19
 2817 02ed 03       		.uleb128 0x3
 2818 02ee 0E       		.uleb128 0xe
 2819 02ef 3A       		.uleb128 0x3a
 2820 02f0 0B       		.uleb128 0xb
 2821 02f1 3B       		.uleb128 0x3b
 2822 02f2 0B       		.uleb128 0xb
 2823 02f3 27       		.uleb128 0x27
 2824 02f4 19       		.uleb128 0x19
 2825 02f5 3C       		.uleb128 0x3c
 2826 02f6 19       		.uleb128 0x19
 2827 02f7 00       		.byte	0
 2828 02f8 00       		.byte	0
 2829 02f9 00       		.byte	0
 2830              		.section	.debug_loc,"",%progbits
 2831              	.Ldebug_loc0:
 2832              	.LLST0:
 2833 0000 00000000 		.4byte	.LVL1
 2834 0004 08000000 		.4byte	.LVL2
 2835 0008 0100     		.2byte	0x1
 2836 000a 50       		.byte	0x50
 2837 000b 08000000 		.4byte	.LVL2
 2838 000f 48000000 		.4byte	.LVL8
 2839 0013 0100     		.2byte	0x1
 2840 0015 55       		.byte	0x55
 2841 0016 48000000 		.4byte	.LVL8
ARM GAS  /tmp/ccx30ula.s 			page 51


 2842 001a 4B000000 		.4byte	.LVL9-1
 2843 001e 0500     		.2byte	0x5
 2844 0020 73       		.byte	0x73
 2845 0021 04       		.sleb128 4
 2846 0022 06       		.byte	0x6
 2847 0023 23       		.byte	0x23
 2848 0024 24       		.uleb128 0x24
 2849 0025 4B000000 		.4byte	.LVL9-1
 2850 0029 4C000000 		.4byte	.LVL9
 2851 002d 0400     		.2byte	0x4
 2852 002f F3       		.byte	0xf3
 2853 0030 01       		.uleb128 0x1
 2854 0031 50       		.byte	0x50
 2855 0032 9F       		.byte	0x9f
 2856 0033 4C000000 		.4byte	.LVL9
 2857 0037 C0000000 		.4byte	.LVL22
 2858 003b 0100     		.2byte	0x1
 2859 003d 55       		.byte	0x55
 2860 003e 00000000 		.4byte	0
 2861 0042 00000000 		.4byte	0
 2862              	.LLST1:
 2863 0046 0A000000 		.4byte	.LVL3
 2864 004a 48000000 		.4byte	.LVL8
 2865 004e 0100     		.2byte	0x1
 2866 0050 54       		.byte	0x54
 2867 0051 48000000 		.4byte	.LVL8
 2868 0055 4B000000 		.4byte	.LVL9-1
 2869 0059 0200     		.2byte	0x2
 2870 005b 73       		.byte	0x73
 2871 005c 04       		.sleb128 4
 2872 005d 4C000000 		.4byte	.LVL9
 2873 0061 C0000000 		.4byte	.LVL22
 2874 0065 0100     		.2byte	0x1
 2875 0067 54       		.byte	0x54
 2876 0068 00000000 		.4byte	0
 2877 006c 00000000 		.4byte	0
 2878              	.LLST2:
 2879 0070 0E000000 		.4byte	.LVL4
 2880 0074 24000000 		.4byte	.LVL5
 2881 0078 0100     		.2byte	0x1
 2882 007a 50       		.byte	0x50
 2883 007b 4C000000 		.4byte	.LVL9
 2884 007f 59000000 		.4byte	.LVL10-1
 2885 0083 0100     		.2byte	0x1
 2886 0085 50       		.byte	0x50
 2887 0086 5C000000 		.4byte	.LVL11
 2888 008a B6000000 		.4byte	.LVL21
 2889 008e 0100     		.2byte	0x1
 2890 0090 50       		.byte	0x50
 2891 0091 00000000 		.4byte	0
 2892 0095 00000000 		.4byte	0
 2893              	.LLST3:
 2894 0099 24000000 		.4byte	.LVL5
 2895 009d 48000000 		.4byte	.LVL8
 2896 00a1 0100     		.2byte	0x1
 2897 00a3 55       		.byte	0x55
 2898 00a4 48000000 		.4byte	.LVL8
ARM GAS  /tmp/ccx30ula.s 			page 52


 2899 00a8 4B000000 		.4byte	.LVL9-1
 2900 00ac 0500     		.2byte	0x5
 2901 00ae 73       		.byte	0x73
 2902 00af 04       		.sleb128 4
 2903 00b0 06       		.byte	0x6
 2904 00b1 23       		.byte	0x23
 2905 00b2 24       		.uleb128 0x24
 2906 00b3 4B000000 		.4byte	.LVL9-1
 2907 00b7 4C000000 		.4byte	.LVL9
 2908 00bb 0400     		.2byte	0x4
 2909 00bd F3       		.byte	0xf3
 2910 00be 01       		.uleb128 0x1
 2911 00bf 50       		.byte	0x50
 2912 00c0 9F       		.byte	0x9f
 2913 00c1 00000000 		.4byte	0
 2914 00c5 00000000 		.4byte	0
 2915              	.LLST4:
 2916 00c9 24000000 		.4byte	.LVL5
 2917 00cd 48000000 		.4byte	.LVL8
 2918 00d1 0100     		.2byte	0x1
 2919 00d3 54       		.byte	0x54
 2920 00d4 48000000 		.4byte	.LVL8
 2921 00d8 4B000000 		.4byte	.LVL9-1
 2922 00dc 0200     		.2byte	0x2
 2923 00de 73       		.byte	0x73
 2924 00df 04       		.sleb128 4
 2925 00e0 00000000 		.4byte	0
 2926 00e4 00000000 		.4byte	0
 2927              	.LLST5:
 2928 00e8 24000000 		.4byte	.LVL5
 2929 00ec 28000000 		.4byte	.LVL6
 2930 00f0 0100     		.2byte	0x1
 2931 00f2 55       		.byte	0x55
 2932 00f3 28000000 		.4byte	.LVL6
 2933 00f7 4B000000 		.4byte	.LVL9-1
 2934 00fb 0100     		.2byte	0x1
 2935 00fd 53       		.byte	0x53
 2936 00fe 00000000 		.4byte	0
 2937 0102 00000000 		.4byte	0
 2938              	.LLST6:
 2939 0106 4C000000 		.4byte	.LVL9
 2940 010a 59000000 		.4byte	.LVL10-1
 2941 010e 0100     		.2byte	0x1
 2942 0110 50       		.byte	0x50
 2943 0111 00000000 		.4byte	0
 2944 0115 00000000 		.4byte	0
 2945              	.LLST7:
 2946 0119 5C000000 		.4byte	.LVL11
 2947 011d 84000000 		.4byte	.LVL15
 2948 0121 0100     		.2byte	0x1
 2949 0123 50       		.byte	0x50
 2950 0124 00000000 		.4byte	0
 2951 0128 00000000 		.4byte	0
 2952              	.LLST8:
 2953 012c 64000000 		.4byte	.LVL12
 2954 0130 84000000 		.4byte	.LVL15
 2955 0134 0100     		.2byte	0x1
ARM GAS  /tmp/ccx30ula.s 			page 53


 2956 0136 56       		.byte	0x56
 2957 0137 00000000 		.4byte	0
 2958 013b 00000000 		.4byte	0
 2959              	.LLST9:
 2960 013f 64000000 		.4byte	.LVL12
 2961 0143 84000000 		.4byte	.LVL15
 2962 0147 0100     		.2byte	0x1
 2963 0149 50       		.byte	0x50
 2964 014a 00000000 		.4byte	0
 2965 014e 00000000 		.4byte	0
 2966              	.LLST10:
 2967 0152 64000000 		.4byte	.LVL12
 2968 0156 6C000000 		.4byte	.LVL13
 2969 015a 0100     		.2byte	0x1
 2970 015c 56       		.byte	0x56
 2971 015d 6C000000 		.4byte	.LVL13
 2972 0161 84000000 		.4byte	.LVL15
 2973 0165 0100     		.2byte	0x1
 2974 0167 53       		.byte	0x53
 2975 0168 00000000 		.4byte	0
 2976 016c 00000000 		.4byte	0
 2977              	.LLST11:
 2978 0170 84000000 		.4byte	.LVL15
 2979 0174 AC000000 		.4byte	.LVL19
 2980 0178 0100     		.2byte	0x1
 2981 017a 50       		.byte	0x50
 2982 017b AC000000 		.4byte	.LVL19
 2983 017f B0000000 		.4byte	.LVL20
 2984 0183 0200     		.2byte	0x2
 2985 0185 73       		.byte	0x73
 2986 0186 04       		.sleb128 4
 2987 0187 00000000 		.4byte	0
 2988 018b 00000000 		.4byte	0
 2989              	.LLST12:
 2990 018f 8C000000 		.4byte	.LVL16
 2991 0193 B6000000 		.4byte	.LVL21
 2992 0197 0100     		.2byte	0x1
 2993 0199 56       		.byte	0x56
 2994 019a 00000000 		.4byte	0
 2995 019e 00000000 		.4byte	0
 2996              	.LLST13:
 2997 01a2 8C000000 		.4byte	.LVL16
 2998 01a6 AC000000 		.4byte	.LVL19
 2999 01aa 0100     		.2byte	0x1
 3000 01ac 50       		.byte	0x50
 3001 01ad AC000000 		.4byte	.LVL19
 3002 01b1 B0000000 		.4byte	.LVL20
 3003 01b5 0200     		.2byte	0x2
 3004 01b7 73       		.byte	0x73
 3005 01b8 04       		.sleb128 4
 3006 01b9 00000000 		.4byte	0
 3007 01bd 00000000 		.4byte	0
 3008              	.LLST14:
 3009 01c1 8C000000 		.4byte	.LVL16
 3010 01c5 94000000 		.4byte	.LVL17
 3011 01c9 0100     		.2byte	0x1
 3012 01cb 56       		.byte	0x56
ARM GAS  /tmp/ccx30ula.s 			page 54


 3013 01cc 94000000 		.4byte	.LVL17
 3014 01d0 B0000000 		.4byte	.LVL20
 3015 01d4 0100     		.2byte	0x1
 3016 01d6 53       		.byte	0x53
 3017 01d7 00000000 		.4byte	0
 3018 01db 00000000 		.4byte	0
 3019              	.LLST15:
 3020 01df 00000000 		.4byte	.LVL23
 3021 01e3 0B000000 		.4byte	.LVL24-1
 3022 01e7 0100     		.2byte	0x1
 3023 01e9 50       		.byte	0x50
 3024 01ea 0B000000 		.4byte	.LVL24-1
 3025 01ee 14000000 		.4byte	.LFE8
 3026 01f2 0400     		.2byte	0x4
 3027 01f4 F3       		.byte	0xf3
 3028 01f5 01       		.uleb128 0x1
 3029 01f6 50       		.byte	0x50
 3030 01f7 9F       		.byte	0x9f
 3031 01f8 00000000 		.4byte	0
 3032 01fc 00000000 		.4byte	0
 3033              	.LLST16:
 3034 0200 00000000 		.4byte	.LVL25
 3035 0204 0E000000 		.4byte	.LVL27
 3036 0208 0100     		.2byte	0x1
 3037 020a 50       		.byte	0x50
 3038 020b 0E000000 		.4byte	.LVL27
 3039 020f 16000000 		.4byte	.LVL28
 3040 0213 0100     		.2byte	0x1
 3041 0215 52       		.byte	0x52
 3042 0216 16000000 		.4byte	.LVL28
 3043 021a 24000000 		.4byte	.LVL29
 3044 021e 0100     		.2byte	0x1
 3045 0220 50       		.byte	0x50
 3046 0221 24000000 		.4byte	.LVL29
 3047 0225 30000000 		.4byte	.LFE10
 3048 0229 0100     		.2byte	0x1
 3049 022b 52       		.byte	0x52
 3050 022c 00000000 		.4byte	0
 3051 0230 00000000 		.4byte	0
 3052              	.LLST17:
 3053 0234 08000000 		.4byte	.LVL26
 3054 0238 0E000000 		.4byte	.LVL27
 3055 023c 0100     		.2byte	0x1
 3056 023e 50       		.byte	0x50
 3057 023f 0E000000 		.4byte	.LVL27
 3058 0243 16000000 		.4byte	.LVL28
 3059 0247 0100     		.2byte	0x1
 3060 0249 52       		.byte	0x52
 3061 024a 16000000 		.4byte	.LVL28
 3062 024e 24000000 		.4byte	.LVL29
 3063 0252 0100     		.2byte	0x1
 3064 0254 50       		.byte	0x50
 3065 0255 24000000 		.4byte	.LVL29
 3066 0259 30000000 		.4byte	.LFE10
 3067 025d 0100     		.2byte	0x1
 3068 025f 52       		.byte	0x52
 3069 0260 00000000 		.4byte	0
ARM GAS  /tmp/ccx30ula.s 			page 55


 3070 0264 00000000 		.4byte	0
 3071              	.LLST18:
 3072 0268 00000000 		.4byte	.LVL30
 3073 026c 08000000 		.4byte	.LVL31
 3074 0270 0100     		.2byte	0x1
 3075 0272 50       		.byte	0x50
 3076 0273 08000000 		.4byte	.LVL31
 3077 0277 0A000000 		.4byte	.LVL32
 3078 027b 0100     		.2byte	0x1
 3079 027d 53       		.byte	0x53
 3080 027e 0A000000 		.4byte	.LVL32
 3081 0282 16000000 		.4byte	.LVL33
 3082 0286 0100     		.2byte	0x1
 3083 0288 50       		.byte	0x50
 3084 0289 16000000 		.4byte	.LVL33
 3085 028d 20000000 		.4byte	.LFE11
 3086 0291 0100     		.2byte	0x1
 3087 0293 53       		.byte	0x53
 3088 0294 00000000 		.4byte	0
 3089 0298 00000000 		.4byte	0
 3090              	.LLST19:
 3091 029c 06000000 		.4byte	.LVL34
 3092 02a0 3A000000 		.4byte	.LVL41
 3093 02a4 0100     		.2byte	0x1
 3094 02a6 50       		.byte	0x50
 3095 02a7 52000000 		.4byte	.LVL44
 3096 02ab 5E000000 		.4byte	.LVL45
 3097 02af 0100     		.2byte	0x1
 3098 02b1 50       		.byte	0x50
 3099 02b2 5E000000 		.4byte	.LVL45
 3100 02b6 64000000 		.4byte	.LFE12
 3101 02ba 0200     		.2byte	0x2
 3102 02bc 72       		.byte	0x72
 3103 02bd 18       		.sleb128 24
 3104 02be 00000000 		.4byte	0
 3105 02c2 00000000 		.4byte	0
 3106              	.LLST20:
 3107 02c6 0E000000 		.4byte	.LVL35
 3108 02ca 60000000 		.4byte	.LVL46
 3109 02ce 0100     		.2byte	0x1
 3110 02d0 54       		.byte	0x54
 3111 02d1 60000000 		.4byte	.LVL46
 3112 02d5 64000000 		.4byte	.LFE12
 3113 02d9 0100     		.2byte	0x1
 3114 02db 50       		.byte	0x50
 3115 02dc 00000000 		.4byte	0
 3116 02e0 00000000 		.4byte	0
 3117              	.LLST21:
 3118 02e4 1A000000 		.4byte	.LVL36
 3119 02e8 32000000 		.4byte	.LVL39
 3120 02ec 0100     		.2byte	0x1
 3121 02ee 53       		.byte	0x53
 3122 02ef 00000000 		.4byte	0
 3123 02f3 00000000 		.4byte	0
 3124              	.LLST22:
 3125 02f7 1A000000 		.4byte	.LVL36
 3126 02fb 3E000000 		.4byte	.LVL42
ARM GAS  /tmp/ccx30ula.s 			page 56


 3127 02ff 0100     		.2byte	0x1
 3128 0301 51       		.byte	0x51
 3129 0302 00000000 		.4byte	0
 3130 0306 00000000 		.4byte	0
 3131              	.LLST23:
 3132 030a 36000000 		.4byte	.LVL40
 3133 030e 52000000 		.4byte	.LVL44
 3134 0312 0100     		.2byte	0x1
 3135 0314 54       		.byte	0x54
 3136 0315 00000000 		.4byte	0
 3137 0319 00000000 		.4byte	0
 3138              	.LLST24:
 3139 031d 36000000 		.4byte	.LVL40
 3140 0321 52000000 		.4byte	.LVL44
 3141 0325 0100     		.2byte	0x1
 3142 0327 55       		.byte	0x55
 3143 0328 00000000 		.4byte	0
 3144 032c 00000000 		.4byte	0
 3145              	.LLST25:
 3146 0330 06000000 		.4byte	.LVL47
 3147 0334 34000000 		.4byte	.LVL54
 3148 0338 0100     		.2byte	0x1
 3149 033a 50       		.byte	0x50
 3150 033b 44000000 		.4byte	.LVL56
 3151 033f 4A000000 		.4byte	.LVL57
 3152 0343 0100     		.2byte	0x1
 3153 0345 50       		.byte	0x50
 3154 0346 00000000 		.4byte	0
 3155 034a 00000000 		.4byte	0
 3156              	.LLST26:
 3157 034e 08000000 		.4byte	.LVL48
 3158 0352 4C000000 		.4byte	.LVL58
 3159 0356 0100     		.2byte	0x1
 3160 0358 54       		.byte	0x54
 3161 0359 4C000000 		.4byte	.LVL58
 3162 035d 50000000 		.4byte	.LFE13
 3163 0361 0100     		.2byte	0x1
 3164 0363 50       		.byte	0x50
 3165 0364 00000000 		.4byte	0
 3166 0368 00000000 		.4byte	0
 3167              	.LLST27:
 3168 036c 14000000 		.4byte	.LVL49
 3169 0370 2C000000 		.4byte	.LVL52
 3170 0374 0100     		.2byte	0x1
 3171 0376 53       		.byte	0x53
 3172 0377 00000000 		.4byte	0
 3173 037b 00000000 		.4byte	0
 3174              	.LLST28:
 3175 037f 14000000 		.4byte	.LVL49
 3176 0383 3F000000 		.4byte	.LVL55-1
 3177 0387 0100     		.2byte	0x1
 3178 0389 51       		.byte	0x51
 3179 038a 00000000 		.4byte	0
 3180 038e 00000000 		.4byte	0
 3181              	.LLST29:
 3182 0392 30000000 		.4byte	.LVL53
 3183 0396 44000000 		.4byte	.LVL56
ARM GAS  /tmp/ccx30ula.s 			page 57


 3184 039a 0100     		.2byte	0x1
 3185 039c 54       		.byte	0x54
 3186 039d 00000000 		.4byte	0
 3187 03a1 00000000 		.4byte	0
 3188              	.LLST30:
 3189 03a5 30000000 		.4byte	.LVL53
 3190 03a9 44000000 		.4byte	.LVL56
 3191 03ad 0100     		.2byte	0x1
 3192 03af 55       		.byte	0x55
 3193 03b0 00000000 		.4byte	0
 3194 03b4 00000000 		.4byte	0
 3195              	.LLST31:
 3196 03b8 08000000 		.4byte	.LVL59
 3197 03bc 4E000000 		.4byte	.LVL67
 3198 03c0 0100     		.2byte	0x1
 3199 03c2 54       		.byte	0x54
 3200 03c3 00000000 		.4byte	0
 3201 03c7 00000000 		.4byte	0
 3202              	.LLST32:
 3203 03cb 14000000 		.4byte	.LVL60
 3204 03cf 27000000 		.4byte	.LVL61-1
 3205 03d3 0100     		.2byte	0x1
 3206 03d5 53       		.byte	0x53
 3207 03d6 2C000000 		.4byte	.LVL62
 3208 03da 3A000000 		.4byte	.LVL64
 3209 03de 0100     		.2byte	0x1
 3210 03e0 53       		.byte	0x53
 3211 03e1 00000000 		.4byte	0
 3212 03e5 00000000 		.4byte	0
 3213              	.LLST34:
 3214 03e9 14000000 		.4byte	.LVL60
 3215 03ed 27000000 		.4byte	.LVL61-1
 3216 03f1 0100     		.2byte	0x1
 3217 03f3 52       		.byte	0x52
 3218 03f4 2E000000 		.4byte	.LVL63
 3219 03f8 3E000000 		.4byte	.LVL65
 3220 03fc 0100     		.2byte	0x1
 3221 03fe 52       		.byte	0x52
 3222 03ff 00000000 		.4byte	0
 3223 0403 00000000 		.4byte	0
 3224              		.section	.debug_aranges,"",%progbits
 3225 0000 54000000 		.4byte	0x54
 3226 0004 0200     		.2byte	0x2
 3227 0006 00000000 		.4byte	.Ldebug_info0
 3228 000a 04       		.byte	0x4
 3229 000b 00       		.byte	0
 3230 000c 0000     		.2byte	0
 3231 000e 0000     		.2byte	0
 3232 0010 00000000 		.4byte	.LFB7
 3233 0014 0A000000 		.4byte	.LFE7-.LFB7
 3234 0018 00000000 		.4byte	.LFB9
 3235 001c C4000000 		.4byte	.LFE9-.LFB9
 3236 0020 00000000 		.4byte	.LFB8
 3237 0024 14000000 		.4byte	.LFE8-.LFB8
 3238 0028 00000000 		.4byte	.LFB10
 3239 002c 30000000 		.4byte	.LFE10-.LFB10
 3240 0030 00000000 		.4byte	.LFB11
ARM GAS  /tmp/ccx30ula.s 			page 58


 3241 0034 20000000 		.4byte	.LFE11-.LFB11
 3242 0038 00000000 		.4byte	.LFB12
 3243 003c 64000000 		.4byte	.LFE12-.LFB12
 3244 0040 00000000 		.4byte	.LFB13
 3245 0044 50000000 		.4byte	.LFE13-.LFB13
 3246 0048 00000000 		.4byte	.LFB14
 3247 004c 54000000 		.4byte	.LFE14-.LFB14
 3248 0050 00000000 		.4byte	0
 3249 0054 00000000 		.4byte	0
 3250              		.section	.debug_ranges,"",%progbits
 3251              	.Ldebug_ranges0:
 3252 0000 0E000000 		.4byte	.LBB33
 3253 0004 44000000 		.4byte	.LBE33
 3254 0008 48000000 		.4byte	.LBB50
 3255 000c B6000000 		.4byte	.LBE50
 3256 0010 00000000 		.4byte	0
 3257 0014 00000000 		.4byte	0
 3258 0018 5C000000 		.4byte	.LBB38
 3259 001c 62000000 		.4byte	.LBE38
 3260 0020 64000000 		.4byte	.LBB41
 3261 0024 68000000 		.4byte	.LBE41
 3262 0028 00000000 		.4byte	0
 3263 002c 00000000 		.4byte	0
 3264 0030 84000000 		.4byte	.LBB44
 3265 0034 8A000000 		.4byte	.LBE44
 3266 0038 8C000000 		.4byte	.LBB47
 3267 003c 90000000 		.4byte	.LBE47
 3268 0040 00000000 		.4byte	0
 3269 0044 00000000 		.4byte	0
 3270 0048 08000000 		.4byte	.LBB54
 3271 004c 0E000000 		.4byte	.LBE54
 3272 0050 16000000 		.4byte	.LBB58
 3273 0054 24000000 		.4byte	.LBE58
 3274 0058 00000000 		.4byte	0
 3275 005c 00000000 		.4byte	0
 3276 0060 0E000000 		.4byte	.LBB57
 3277 0064 14000000 		.4byte	.LBE57
 3278 0068 24000000 		.4byte	.LBB59
 3279 006c 2A000000 		.4byte	.LBE59
 3280 0070 00000000 		.4byte	0
 3281 0074 00000000 		.4byte	0
 3282 0078 30000000 		.4byte	.LBB62
 3283 007c 32000000 		.4byte	.LBE62
 3284 0080 36000000 		.4byte	.LBB66
 3285 0084 38000000 		.4byte	.LBE66
 3286 0088 3A000000 		.4byte	.LBB67
 3287 008c 3C000000 		.4byte	.LBE67
 3288 0090 00000000 		.4byte	0
 3289 0094 00000000 		.4byte	0
 3290 0098 48000000 		.4byte	.LBB68
 3291 009c 4E000000 		.4byte	.LBE68
 3292 00a0 56000000 		.4byte	.LBB69
 3293 00a4 5C000000 		.4byte	.LBE69
 3294 00a8 00000000 		.4byte	0
 3295 00ac 00000000 		.4byte	0
 3296 00b0 2A000000 		.4byte	.LBB71
 3297 00b4 2C000000 		.4byte	.LBE71
ARM GAS  /tmp/ccx30ula.s 			page 59


 3298 00b8 30000000 		.4byte	.LBB75
 3299 00bc 32000000 		.4byte	.LBE75
 3300 00c0 34000000 		.4byte	.LBB76
 3301 00c4 36000000 		.4byte	.LBE76
 3302 00c8 00000000 		.4byte	0
 3303 00cc 00000000 		.4byte	0
 3304 00d0 04000000 		.4byte	.LBB77
 3305 00d4 06000000 		.4byte	.LBE77
 3306 00d8 08000000 		.4byte	.LBB78
 3307 00dc 0C000000 		.4byte	.LBE78
 3308 00e0 00000000 		.4byte	0
 3309 00e4 00000000 		.4byte	0
 3310 00e8 10000000 		.4byte	.LBB79
 3311 00ec 28000000 		.4byte	.LBE79
 3312 00f0 2C000000 		.4byte	.LBB87
 3313 00f4 38000000 		.4byte	.LBE87
 3314 00f8 00000000 		.4byte	0
 3315 00fc 00000000 		.4byte	0
 3316 0100 14000000 		.4byte	.LBB81
 3317 0104 16000000 		.4byte	.LBE81
 3318 0108 18000000 		.4byte	.LBB85
 3319 010c 1A000000 		.4byte	.LBE85
 3320 0110 1C000000 		.4byte	.LBB86
 3321 0114 1E000000 		.4byte	.LBE86
 3322 0118 00000000 		.4byte	0
 3323 011c 00000000 		.4byte	0
 3324 0120 00000000 		.4byte	.LFB7
 3325 0124 0A000000 		.4byte	.LFE7
 3326 0128 00000000 		.4byte	.LFB9
 3327 012c C4000000 		.4byte	.LFE9
 3328 0130 00000000 		.4byte	.LFB8
 3329 0134 14000000 		.4byte	.LFE8
 3330 0138 00000000 		.4byte	.LFB10
 3331 013c 30000000 		.4byte	.LFE10
 3332 0140 00000000 		.4byte	.LFB11
 3333 0144 20000000 		.4byte	.LFE11
 3334 0148 00000000 		.4byte	.LFB12
 3335 014c 64000000 		.4byte	.LFE12
 3336 0150 00000000 		.4byte	.LFB13
 3337 0154 50000000 		.4byte	.LFE13
 3338 0158 00000000 		.4byte	.LFB14
 3339 015c 54000000 		.4byte	.LFE14
 3340 0160 00000000 		.4byte	0
 3341 0164 00000000 		.4byte	0
 3342              		.section	.debug_line,"",%progbits
 3343              	.Ldebug_line0:
 3344 0000 0C030000 		.section	.debug_str,"MS",%progbits,1
 3344      02002201 
 3344      00000201 
 3344      FB0E0D00 
 3344      01010101 
 3345              	.LASF37:
 3346 0000 705F6D73 		.ascii	"p_msg\000"
 3346      6700
 3347              	.LASF80:
 3348 0006 2F686F6D 		.ascii	"/home/brian/aithon/ProjectTemplate\000"
 3348      652F6272 
ARM GAS  /tmp/ccx30ula.s 			page 60


 3348      69616E2F 
 3348      61697468 
 3348      6F6E2F50 
 3349              	.LASF59:
 3350 0029 7264796D 		.ascii	"rdymsg\000"
 3350      736700
 3351              	.LASF11:
 3352 0030 6C6F6E67 		.ascii	"long long unsigned int\000"
 3352      206C6F6E 
 3352      6720756E 
 3352      7369676E 
 3352      65642069 
 3353              	.LASF70:
 3354 0047 63684D74 		.ascii	"chMtxUnlock\000"
 3354      78556E6C 
 3354      6F636B00 
 3355              	.LASF25:
 3356 0053 705F7072 		.ascii	"p_prio\000"
 3356      696F00
 3357              	.LASF10:
 3358 005a 6C6F6E67 		.ascii	"long long int\000"
 3358      206C6F6E 
 3358      6720696E 
 3358      7400
 3359              	.LASF1:
 3360 0068 7369676E 		.ascii	"signed char\000"
 3360      65642063 
 3360      68617200 
 3361              	.LASF41:
 3362 0074 705F6D70 		.ascii	"p_mpool\000"
 3362      6F6F6C00 
 3363              	.LASF12:
 3364 007c 626F6F6C 		.ascii	"bool_t\000"
 3364      5F7400
 3365              	.LASF56:
 3366 0083 6D5F7175 		.ascii	"m_queue\000"
 3366      65756500 
 3367              	.LASF17:
 3368 008b 74736C69 		.ascii	"tslices_t\000"
 3368      6365735F 
 3368      7400
 3369              	.LASF7:
 3370 0095 6C6F6E67 		.ascii	"long int\000"
 3370      20696E74 
 3370      00
 3371              	.LASF15:
 3372 009e 74737461 		.ascii	"tstate_t\000"
 3372      74655F74 
 3372      00
 3373              	.LASF74:
 3374 00a7 63684D74 		.ascii	"chMtxTryLockS\000"
 3374      78547279 
 3374      4C6F636B 
 3374      5300
 3375              	.LASF27:
 3376 00b5 705F6E65 		.ascii	"p_newer\000"
 3376      77657200 
ARM GAS  /tmp/ccx30ula.s 			page 61


 3377              	.LASF60:
 3378 00bd 65786974 		.ascii	"exitcode\000"
 3378      636F6465 
 3378      00
 3379              	.LASF83:
 3380 00c6 63685363 		.ascii	"chSchRescheduleS\000"
 3380      68526573 
 3380      63686564 
 3380      756C6553 
 3380      00
 3381              	.LASF51:
 3382 00d7 725F6E65 		.ascii	"r_newer\000"
 3382      77657200 
 3383              	.LASF44:
 3384 00df 72656761 		.ascii	"regarm_t\000"
 3384      726D5F74 
 3384      00
 3385              	.LASF72:
 3386 00e8 63684D74 		.ascii	"chMtxUnlockS\000"
 3386      78556E6C 
 3386      6F636B53 
 3386      00
 3387              	.LASF0:
 3388 00f5 756E7369 		.ascii	"unsigned int\000"
 3388      676E6564 
 3388      20696E74 
 3388      00
 3389              	.LASF78:
 3390 0102 474E5520 		.ascii	"GNU C 4.8.3 20131129 (release) [ARM/embedded-4_8-br"
 3390      4320342E 
 3390      382E3320 
 3390      32303133 
 3390      31313239 
 3391 0135 616E6368 		.ascii	"anch revision 205641] -mcpu=cortex-m4 -mfloat-abi=s"
 3391      20726576 
 3391      6973696F 
 3391      6E203230 
 3391      35363431 
 3392 0168 6F667466 		.ascii	"oftfp -mfpu=fpv4-sp-d16 -mno-thumb-interwork -mthum"
 3392      70202D6D 
 3392      6670753D 
 3392      66707634 
 3392      2D73702D 
 3393 019b 62202D67 		.ascii	"b -ggdb -O2 -fomit-frame-pointer -falign-functions="
 3393      67646220 
 3393      2D4F3220 
 3393      2D666F6D 
 3393      69742D66 
 3394 01ce 3136202D 		.ascii	"16 -fsingle-precision-constant -ffunction-sections "
 3394      6673696E 
 3394      676C652D 
 3394      70726563 
 3394      6973696F 
 3395 0201 2D666461 		.ascii	"-fdata-sections -fno-common\000"
 3395      74612D73 
 3395      65637469 
 3395      6F6E7320 
ARM GAS  /tmp/ccx30ula.s 			page 62


 3395      2D666E6F 
 3396              	.LASF9:
 3397 021d 6C6F6E67 		.ascii	"long unsigned int\000"
 3397      20756E73 
 3397      69676E65 
 3397      6420696E 
 3397      7400
 3398              	.LASF46:
 3399 022f 636F6E74 		.ascii	"context\000"
 3399      65787400 
 3400              	.LASF4:
 3401 0237 73686F72 		.ascii	"short unsigned int\000"
 3401      7420756E 
 3401      7369676E 
 3401      65642069 
 3401      6E7400
 3402              	.LASF19:
 3403 024a 6D73675F 		.ascii	"msg_t\000"
 3403      7400
 3404              	.LASF81:
 3405 0250 7072696F 		.ascii	"prio_insert\000"
 3405      5F696E73 
 3405      65727400 
 3406              	.LASF73:
 3407 025c 63684D74 		.ascii	"chMtxUnlockAll\000"
 3407      78556E6C 
 3407      6F636B41 
 3407      6C6C00
 3408              	.LASF71:
 3409 026b 6E657770 		.ascii	"newprio\000"
 3409      72696F00 
 3410              	.LASF14:
 3411 0273 746D6F64 		.ascii	"tmode_t\000"
 3411      655F7400 
 3412              	.LASF43:
 3413 027b 54687265 		.ascii	"ThreadsList\000"
 3413      6164734C 
 3413      69737400 
 3414              	.LASF20:
 3415 0287 6576656E 		.ascii	"eventmask_t\000"
 3415      746D6173 
 3415      6B5F7400 
 3416              	.LASF69:
 3417 0293 63684D74 		.ascii	"chMtxTryLock\000"
 3417      78547279 
 3417      4C6F636B 
 3417      00
 3418              	.LASF55:
 3419 02a0 4D757465 		.ascii	"Mutex\000"
 3419      7800
 3420              	.LASF47:
 3421 02a6 73697A65 		.ascii	"sizetype\000"
 3421      74797065 
 3421      00
 3422              	.LASF68:
 3423 02af 63684D74 		.ascii	"chMtxLock\000"
 3423      784C6F63 
ARM GAS  /tmp/ccx30ula.s 			page 63


 3423      6B00
 3424              	.LASF28:
 3425 02b9 705F6F6C 		.ascii	"p_older\000"
 3425      64657200 
 3426              	.LASF50:
 3427 02c1 725F6374 		.ascii	"r_ctx\000"
 3427      7800
 3428              	.LASF42:
 3429 02c7 54687265 		.ascii	"ThreadsQueue\000"
 3429      61647351 
 3429      75657565 
 3429      00
 3430              	.LASF64:
 3431 02d4 64657175 		.ascii	"dequeue\000"
 3431      65756500 
 3432              	.LASF53:
 3433 02dc 725F6375 		.ascii	"r_current\000"
 3433      7272656E 
 3433      7400
 3434              	.LASF52:
 3435 02e6 725F6F6C 		.ascii	"r_older\000"
 3435      64657200 
 3436              	.LASF79:
 3437 02ee 2E2E2F41 		.ascii	"../AithonLibrary/ChibiOS/os/kernel/src/chmtx.c\000"
 3437      6974686F 
 3437      6E4C6962 
 3437      72617279 
 3437      2F436869 
 3438              	.LASF16:
 3439 031d 74726566 		.ascii	"trefs_t\000"
 3439      735F7400 
 3440              	.LASF24:
 3441 0325 705F7072 		.ascii	"p_prev\000"
 3441      657600
 3442              	.LASF18:
 3443 032c 74707269 		.ascii	"tprio_t\000"
 3443      6F5F7400 
 3444              	.LASF13:
 3445 0334 5F426F6F 		.ascii	"_Bool\000"
 3445      6C00
 3446              	.LASF6:
 3447 033a 696E7433 		.ascii	"int32_t\000"
 3447      325F7400 
 3448              	.LASF2:
 3449 0342 756E7369 		.ascii	"unsigned char\000"
 3449      676E6564 
 3449      20636861 
 3449      7200
 3450              	.LASF39:
 3451 0350 705F6D74 		.ascii	"p_mtxlist\000"
 3451      786C6973 
 3451      7400
 3452              	.LASF3:
 3453 035a 73686F72 		.ascii	"short int\000"
 3453      7420696E 
 3453      7400
 3454              	.LASF30:
ARM GAS  /tmp/ccx30ula.s 			page 64


 3455 0364 705F7374 		.ascii	"p_state\000"
 3455      61746500 
 3456              	.LASF33:
 3457 036c 705F7072 		.ascii	"p_preempt\000"
 3457      65656D70 
 3457      7400
 3458              	.LASF49:
 3459 0376 725F7072 		.ascii	"r_prio\000"
 3459      696F00
 3460              	.LASF62:
 3461 037d 65776D61 		.ascii	"ewmask\000"
 3461      736B00
 3462              	.LASF23:
 3463 0384 705F6E65 		.ascii	"p_next\000"
 3463      787400
 3464              	.LASF31:
 3465 038b 705F666C 		.ascii	"p_flags\000"
 3465      61677300 
 3466              	.LASF22:
 3467 0393 54687265 		.ascii	"Thread\000"
 3467      616400
 3468              	.LASF76:
 3469 039a 63685363 		.ascii	"chSchGoSleepS\000"
 3469      68476F53 
 3469      6C656570 
 3469      5300
 3470              	.LASF38:
 3471 03a8 705F6570 		.ascii	"p_epending\000"
 3471      656E6469 
 3471      6E6700
 3472              	.LASF8:
 3473 03b3 75696E74 		.ascii	"uint32_t\000"
 3473      33325F74 
 3473      00
 3474              	.LASF48:
 3475 03bc 725F7175 		.ascii	"r_queue\000"
 3475      65756500 
 3476              	.LASF63:
 3477 03c4 63686172 		.ascii	"char\000"
 3477      00
 3478              	.LASF65:
 3479 03c9 6669666F 		.ascii	"fifo_remove\000"
 3479      5F72656D 
 3479      6F766500 
 3480              	.LASF75:
 3481 03d5 63685363 		.ascii	"chSchReadyI\000"
 3481      68526561 
 3481      64794900 
 3482              	.LASF58:
 3483 03e1 6D5F6E65 		.ascii	"m_next\000"
 3483      787400
 3484              	.LASF21:
 3485 03e8 73797374 		.ascii	"systime_t\000"
 3485      696D655F 
 3485      7400
 3486              	.LASF40:
 3487 03f2 705F7265 		.ascii	"p_realprio\000"
ARM GAS  /tmp/ccx30ula.s 			page 65


 3487      616C7072 
 3487      696F00
 3488              	.LASF34:
 3489 03fd 705F7469 		.ascii	"p_time\000"
 3489      6D6500
 3490              	.LASF45:
 3491 0404 696E7463 		.ascii	"intctx\000"
 3491      747800
 3492              	.LASF36:
 3493 040b 705F6D73 		.ascii	"p_msgqueue\000"
 3493      67717565 
 3493      756500
 3494              	.LASF77:
 3495 0416 63685363 		.ascii	"chSchWakeupS\000"
 3495      6857616B 
 3495      65757053 
 3495      00
 3496              	.LASF66:
 3497 0423 63684D74 		.ascii	"chMtxInit\000"
 3497      78496E69 
 3497      7400
 3498              	.LASF32:
 3499 042d 705F7265 		.ascii	"p_refs\000"
 3499      667300
 3500              	.LASF54:
 3501 0434 52656164 		.ascii	"ReadyList\000"
 3501      794C6973 
 3501      7400
 3502              	.LASF82:
 3503 043e 726C6973 		.ascii	"rlist\000"
 3503      7400
 3504              	.LASF5:
 3505 0444 75696E74 		.ascii	"uint8_t\000"
 3505      385F7400 
 3506              	.LASF61:
 3507 044c 77746F62 		.ascii	"wtobjp\000"
 3507      6A7000
 3508              	.LASF29:
 3509 0453 705F6E61 		.ascii	"p_name\000"
 3509      6D6500
 3510              	.LASF67:
 3511 045a 63684D74 		.ascii	"chMtxLockS\000"
 3511      784C6F63 
 3511      6B5300
 3512              	.LASF57:
 3513 0465 6D5F6F77 		.ascii	"m_owner\000"
 3513      6E657200 
 3514              	.LASF26:
 3515 046d 705F6374 		.ascii	"p_ctx\000"
 3515      7800
 3516              	.LASF35:
 3517 0473 705F7761 		.ascii	"p_waiting\000"
 3517      6974696E 
 3517      6700
 3518              		.ident	"GCC: (GNU Tools for ARM Embedded Processors) 4.8.3 20131129 (release) [ARM/embedded-4_8-br
ARM GAS  /tmp/ccx30ula.s 			page 66


DEFINED SYMBOLS
                            *ABS*:0000000000000000 chmtx.c
     /tmp/ccx30ula.s:20     .text.chMtxInit:0000000000000000 $t
     /tmp/ccx30ula.s:26     .text.chMtxInit:0000000000000000 chMtxInit
     /tmp/ccx30ula.s:47     .text.chMtxLockS:0000000000000000 $t
     /tmp/ccx30ula.s:53     .text.chMtxLockS:0000000000000000 chMtxLockS
     /tmp/ccx30ula.s:280    .text.chMtxLockS:00000000000000c0 $d
     /tmp/ccx30ula.s:285    .text.chMtxLock:0000000000000000 $t
     /tmp/ccx30ula.s:291    .text.chMtxLock:0000000000000000 chMtxLock
     /tmp/ccx30ula.s:326    .text.chMtxTryLock:0000000000000000 $t
     /tmp/ccx30ula.s:332    .text.chMtxTryLock:0000000000000000 chMtxTryLock
     /tmp/ccx30ula.s:402    .text.chMtxTryLock:000000000000002c $d
     /tmp/ccx30ula.s:407    .text.chMtxTryLockS:0000000000000000 $t
     /tmp/ccx30ula.s:413    .text.chMtxTryLockS:0000000000000000 chMtxTryLockS
     /tmp/ccx30ula.s:451    .text.chMtxTryLockS:000000000000001c $d
     /tmp/ccx30ula.s:456    .text.chMtxUnlock:0000000000000000 $t
     /tmp/ccx30ula.s:462    .text.chMtxUnlock:0000000000000000 chMtxUnlock
     /tmp/ccx30ula.s:596    .text.chMtxUnlock:0000000000000060 $d
     /tmp/ccx30ula.s:601    .text.chMtxUnlockS:0000000000000000 $t
     /tmp/ccx30ula.s:607    .text.chMtxUnlockS:0000000000000000 chMtxUnlockS
     /tmp/ccx30ula.s:712    .text.chMtxUnlockS:000000000000004c $d
     /tmp/ccx30ula.s:717    .text.chMtxUnlockAll:0000000000000000 $t
     /tmp/ccx30ula.s:723    .text.chMtxUnlockAll:0000000000000000 chMtxUnlockAll
     /tmp/ccx30ula.s:839    .text.chMtxUnlockAll:0000000000000050 $d
                     .debug_frame:0000000000000010 $d
     /tmp/ccx30ula.s:284    .text.chMtxLockS:00000000000000c4 $t
     /tmp/ccx30ula.s:600    .text.chMtxUnlock:0000000000000064 $t
     /tmp/ccx30ula.s:844    .text.chMtxUnlockAll:0000000000000054 $t

UNDEFINED SYMBOLS
chSchGoSleepS
chSchReadyI
rlist
chSchWakeupS
chSchRescheduleS
