ARM GAS  /tmp/ccx30ula.s 			page 1


   1              		.syntax unified
   2              		.cpu cortex-m4
   3              		.eabi_attribute 27, 3
   4              		.fpu fpv4-sp-d16
   5              		.eabi_attribute 20, 1
   6              		.eabi_attribute 21, 1
   7              		.eabi_attribute 23, 3
   8              		.eabi_attribute 24, 1
   9              		.eabi_attribute 25, 1
  10              		.eabi_attribute 26, 1
  11              		.eabi_attribute 30, 2
  12              		.eabi_attribute 34, 1
  13              		.eabi_attribute 18, 4
  14              		.thumb
  15              		.file	"chmtx.c"
  16              		.text
  17              	.Ltext0:
  18              		.cfi_sections	.debug_frame
  19              		.section	.text.chMtxInit,"ax",%progbits
  20              		.align	2
  21              		.p2align 4,,15
  22              		.global	chMtxInit
  23              		.thumb
  24              		.thumb_func
  25              		.type	chMtxInit, %function
  26              	chMtxInit:
  27              	.LFB7:
  28              		.file 1 "../AithonLibrary/ChibiOS/os/kernel/src/chmtx.c"
  29              		.loc 1 86 0
  30              		.cfi_startproc
  31              		@ args = 0, pretend = 0, frame = 0
  32              		@ frame_needed = 0, uses_anonymous_args = 0
  33              		@ link register save eliminated.
  34              	.LVL0:
  35              		.loc 1 91 0
  36 0000 0023     		movs	r3, #0
  37              		.loc 1 90 0
  38 0002 4060     		str	r0, [r0, #4]
  39 0004 0060     		str	r0, [r0]
  40              		.loc 1 91 0
  41 0006 8360     		str	r3, [r0, #8]
  42 0008 7047     		bx	lr
  43              		.cfi_endproc
  44              	.LFE7:
  45              		.size	chMtxInit, .-chMtxInit
  46 000a 00BFAFF3 		.section	.text.chMtxLockS,"ax",%progbits
  46      0080
  47              		.align	2
  48              		.p2align 4,,15
  49              		.global	chMtxLockS
  50              		.thumb
  51              		.thumb_func
  52              		.type	chMtxLockS, %function
  53              	chMtxLockS:
  54              	.LFB9:
  55              		.loc 1 121 0
  56              		.cfi_startproc
ARM GAS  /tmp/ccx30ula.s 			page 2


  57              		@ args = 0, pretend = 0, frame = 0
  58              		@ frame_needed = 0, uses_anonymous_args = 0
  59              	.LVL1:
  60 0000 70B5     		push	{r4, r5, r6, lr}
  61              		.cfi_def_cfa_offset 16
  62              		.cfi_offset 4, -16
  63              		.cfi_offset 5, -12
  64              		.cfi_offset 6, -8
  65              		.cfi_offset 14, -4
  66              		.loc 1 122 0
  67 0002 2F4B     		ldr	r3, .L23
  68              		.loc 1 121 0
  69 0004 0546     		mov	r5, r0
  70              		.loc 1 128 0
  71 0006 8068     		ldr	r0, [r0, #8]
  72              	.LVL2:
  73              		.loc 1 122 0
  74 0008 9C69     		ldr	r4, [r3, #24]
  75              	.LVL3:
  76              		.loc 1 128 0
  77 000a 0028     		cmp	r0, #0
  78 000c 53D0     		beq	.L3
  79              	.LVL4:
  80              	.LBB33:
  81              		.loc 1 135 0 discriminator 1
  82 000e A268     		ldr	r2, [r4, #8]
  83 0010 8368     		ldr	r3, [r0, #8]
  84 0012 9A42     		cmp	r2, r3
  85 0014 06D9     		bls	.L5
  86              	.L14:
  87              		.loc 1 139 0
  88 0016 037F     		ldrb	r3, [r0, #28]	@ zero_extendqisi2
  89              		.loc 1 137 0
  90 0018 8260     		str	r2, [r0, #8]
  91              		.loc 1 139 0
  92 001a 042B     		cmp	r3, #4
  93 001c 32D0     		beq	.L6
  94 001e 052B     		cmp	r3, #5
  95 0020 1CD0     		beq	.L7
  96 0022 9BB1     		cbz	r3, .L22
  97              	.LVL5:
  98              	.L5:
  99              	.LBB34:
 100              	.LBB35:
 101              		.file 2 "../AithonLibrary/ChibiOS/os/kernel/include/chinline.h"
 102              		.loc 2 43 0
 103 0024 2B46     		mov	r3, r5
 104 0026 03E0     		b	.L20
 105              	.LVL6:
 106              	.L18:
 107              		.loc 2 46 0
 108 0028 9968     		ldr	r1, [r3, #8]
 109 002a A268     		ldr	r2, [r4, #8]
 110 002c 9142     		cmp	r1, r2
 111 002e 02D3     		bcc	.L19
 112              	.L20:
 113              		.loc 2 45 0
ARM GAS  /tmp/ccx30ula.s 			page 3


 114 0030 1B68     		ldr	r3, [r3]
 115              	.LVL7:
 116              		.loc 2 46 0
 117 0032 9D42     		cmp	r5, r3
 118 0034 F8D1     		bne	.L18
 119              	.L19:
 120              		.loc 2 48 0
 121 0036 5A68     		ldr	r2, [r3, #4]
 122 0038 6260     		str	r2, [r4, #4]
 123              		.loc 2 47 0
 124 003a 2360     		str	r3, [r4]
 125              		.loc 2 49 0
 126 003c 5C60     		str	r4, [r3, #4]
 127 003e 1460     		str	r4, [r2]
 128              	.LBE35:
 129              	.LBE34:
 130              		.loc 1 174 0
 131 0040 6562     		str	r5, [r4, #36]
 132              		.loc 1 175 0
 133 0042 0420     		movs	r0, #4
 134              	.LBE33:
 135              		.loc 1 187 0
 136 0044 BDE87040 		pop	{r4, r5, r6, lr}
 137              	.LVL8:
 138              	.LBB50:
 139              		.loc 1 175 0
 140 0048 FFF7FEBF 		b	chSchGoSleepS
 141              	.LVL9:
 142              	.L22:
 143              	.LBB36:
 144              	.LBB37:
 145              		.loc 2 75 0
 146 004c 90E80C00 		ldmia	r0, {r2, r3}
 147 0050 1A60     		str	r2, [r3]
 148              		.loc 2 76 0
 149 0052 0268     		ldr	r2, [r0]
 150 0054 5360     		str	r3, [r2, #4]
 151              	.LBE37:
 152              	.LBE36:
 153              		.loc 1 167 0
 154 0056 FFF7FEFF 		bl	chSchReadyI
 155              	.LVL10:
 156              		.loc 1 168 0
 157 005a E3E7     		b	.L5
 158              	.LVL11:
 159              	.L7:
 160              	.LBB38:
 161              	.LBB39:
 162              		.loc 2 75 0
 163 005c 90E80A00 		ldmia	r0, {r1, r3}
 164 0060 1960     		str	r1, [r3]
 165              	.LBE39:
 166              	.LBE38:
 167              		.loc 1 158 0
 168 0062 466A     		ldr	r6, [r0, #36]
 169              	.LVL12:
 170              	.LBB41:
ARM GAS  /tmp/ccx30ula.s 			page 4


 171              	.LBB40:
 172              		.loc 2 76 0
 173 0064 0168     		ldr	r1, [r0]
 174 0066 4B60     		str	r3, [r1, #4]
 175              	.LBE40:
 176              	.LBE41:
 177              	.LBB42:
 178              	.LBB43:
 179              		.loc 2 43 0
 180 0068 3346     		mov	r3, r6
 181 006a 02E0     		b	.L17
 182              	.LVL13:
 183              	.L15:
 184              		.loc 2 46 0
 185 006c 9968     		ldr	r1, [r3, #8]
 186 006e 9142     		cmp	r1, r2
 187 0070 02D3     		bcc	.L16
 188              	.L17:
 189              		.loc 2 45 0
 190 0072 1B68     		ldr	r3, [r3]
 191              	.LVL14:
 192              		.loc 2 46 0
 193 0074 9E42     		cmp	r6, r3
 194 0076 F9D1     		bne	.L15
 195              	.L16:
 196              		.loc 2 48 0
 197 0078 5A68     		ldr	r2, [r3, #4]
 198 007a 4260     		str	r2, [r0, #4]
 199              		.loc 2 47 0
 200 007c 0360     		str	r3, [r0]
 201              		.loc 2 49 0
 202 007e 5860     		str	r0, [r3, #4]
 203 0080 1060     		str	r0, [r2]
 204 0082 CFE7     		b	.L5
 205              	.LVL15:
 206              	.L6:
 207              	.LBE43:
 208              	.LBE42:
 209              	.LBB44:
 210              	.LBB45:
 211              		.loc 2 75 0
 212 0084 90E80A00 		ldmia	r0, {r1, r3}
 213 0088 1960     		str	r1, [r3]
 214              	.LBE45:
 215              	.LBE44:
 216              		.loc 1 142 0
 217 008a 466A     		ldr	r6, [r0, #36]
 218              	.LVL16:
 219              	.LBB47:
 220              	.LBB46:
 221              		.loc 2 76 0
 222 008c 0168     		ldr	r1, [r0]
 223 008e 4B60     		str	r3, [r1, #4]
 224              	.LBE46:
 225              	.LBE47:
 226              		.loc 1 142 0
 227 0090 3346     		mov	r3, r6
ARM GAS  /tmp/ccx30ula.s 			page 5


 228 0092 02E0     		b	.L13
 229              	.LVL17:
 230              	.L9:
 231              	.LBB48:
 232              	.LBB49:
 233              		.loc 2 46 0
 234 0094 9968     		ldr	r1, [r3, #8]
 235 0096 9142     		cmp	r1, r2
 236 0098 02D3     		bcc	.L12
 237              	.L13:
 238              		.loc 2 45 0
 239 009a 1B68     		ldr	r3, [r3]
 240              	.LVL18:
 241              		.loc 2 46 0
 242 009c 9E42     		cmp	r6, r3
 243 009e F9D1     		bne	.L9
 244              	.L12:
 245              		.loc 2 48 0
 246 00a0 5A68     		ldr	r2, [r3, #4]
 247 00a2 4260     		str	r2, [r0, #4]
 248              		.loc 2 47 0
 249 00a4 0360     		str	r3, [r0]
 250              		.loc 2 49 0
 251 00a6 5860     		str	r0, [r3, #4]
 252 00a8 1060     		str	r0, [r2]
 253              	.LBE49:
 254              	.LBE48:
 255              		.loc 1 143 0
 256 00aa B068     		ldr	r0, [r6, #8]
 257              	.LVL19:
 258              		.loc 1 135 0
 259 00ac A268     		ldr	r2, [r4, #8]
 260 00ae 8368     		ldr	r3, [r0, #8]
 261              	.LVL20:
 262 00b0 9342     		cmp	r3, r2
 263 00b2 B0D3     		bcc	.L14
 264 00b4 B6E7     		b	.L5
 265              	.LVL21:
 266              	.L3:
 267              	.LBE50:
 268              		.loc 1 184 0
 269 00b6 E36B     		ldr	r3, [r4, #60]
 270 00b8 EB60     		str	r3, [r5, #12]
 271              		.loc 1 183 0
 272 00ba AC60     		str	r4, [r5, #8]
 273              		.loc 1 185 0
 274 00bc E563     		str	r5, [r4, #60]
 275 00be 70BD     		pop	{r4, r5, r6, pc}
 276              	.LVL22:
 277              	.L24:
 278              		.align	2
 279              	.L23:
 280 00c0 00000000 		.word	rlist
 281              		.cfi_endproc
 282              	.LFE9:
 283              		.size	chMtxLockS, .-chMtxLockS
 284 00c4 AFF30080 		.section	.text.chMtxLock,"ax",%progbits
ARM GAS  /tmp/ccx30ula.s 			page 6


 284      AFF30080 
 284      AFF30080 
 285              		.align	2
 286              		.p2align 4,,15
 287              		.global	chMtxLock
 288              		.thumb
 289              		.thumb_func
 290              		.type	chMtxLock, %function
 291              	chMtxLock:
 292              	.LFB8:
 293              		.loc 1 103 0
 294              		.cfi_startproc
 295              		@ args = 0, pretend = 0, frame = 0
 296              		@ frame_needed = 0, uses_anonymous_args = 0
 297              	.LVL23:
 298 0000 08B5     		push	{r3, lr}
 299              		.cfi_def_cfa_offset 8
 300              		.cfi_offset 3, -8
 301              		.cfi_offset 14, -4
 302              	.LBB51:
 303              		.loc 1 105 0
 304 0002 2023     		movs	r3, #32
 305              	@ 105 "../AithonLibrary/ChibiOS/os/kernel/src/chmtx.c" 1
 306 0004 83F31188 		msr     BASEPRI, r3
 307              	@ 0 "" 2
 308              		.thumb
 309              	.LBE51:
 310              		.loc 1 107 0
 311 0008 FFF7FEFF 		bl	chMtxLockS
 312              	.LVL24:
 313              	.LBB52:
 314              		.loc 1 109 0
 315 000c 0023     		movs	r3, #0
 316              	@ 109 "../AithonLibrary/ChibiOS/os/kernel/src/chmtx.c" 1
 317 000e 83F31188 		msr     BASEPRI, r3
 318              	@ 0 "" 2
 319              		.thumb
 320 0012 08BD     		pop	{r3, pc}
 321              	.LBE52:
 322              		.cfi_endproc
 323              	.LFE8:
 324              		.size	chMtxLock, .-chMtxLock
 325 0014 AFF30080 		.section	.text.chMtxTryLock,"ax",%progbits
 325      AFF30080 
 325      AFF30080 
 326              		.align	2
 327              		.p2align 4,,15
 328              		.global	chMtxTryLock
 329              		.thumb
 330              		.thumb_func
 331              		.type	chMtxTryLock, %function
 332              	chMtxTryLock:
 333              	.LFB10:
 334              		.loc 1 206 0
 335              		.cfi_startproc
 336              		@ args = 0, pretend = 0, frame = 0
 337              		@ frame_needed = 0, uses_anonymous_args = 0
ARM GAS  /tmp/ccx30ula.s 			page 7


 338              		@ link register save eliminated.
 339              	.LVL25:
 340              		.loc 1 206 0
 341 0000 0246     		mov	r2, r0
 342              	.LBB53:
 343              		.loc 1 209 0
 344 0002 2023     		movs	r3, #32
 345              	@ 209 "../AithonLibrary/ChibiOS/os/kernel/src/chmtx.c" 1
 346 0004 83F31188 		msr     BASEPRI, r3
 347              	@ 0 "" 2
 348              	.LVL26:
 349              		.thumb
 350              	.LBE53:
 351              	.LBB54:
 352              	.LBB55:
 353              		.loc 1 239 0
 354 0008 8368     		ldr	r3, [r0, #8]
 355 000a 23B1     		cbz	r3, .L29
 356              		.loc 1 240 0
 357 000c 0020     		movs	r0, #0
 358              	.LVL27:
 359              	.LBE55:
 360              	.LBE54:
 361              	.LBB57:
 362              		.loc 1 213 0
 363 000e 0023     		movs	r3, #0
 364              	@ 213 "../AithonLibrary/ChibiOS/os/kernel/src/chmtx.c" 1
 365 0010 83F31188 		msr     BASEPRI, r3
 366              	@ 0 "" 2
 367              		.thumb
 368              	.LBE57:
 369              		.loc 1 215 0
 370 0014 7047     		bx	lr
 371              	.LVL28:
 372              	.L29:
 373              	.LBB58:
 374              	.LBB56:
 375              		.loc 1 241 0
 376 0016 054B     		ldr	r3, .L30
 377 0018 9B69     		ldr	r3, [r3, #24]
 378 001a 8360     		str	r3, [r0, #8]
 379              		.loc 1 242 0
 380 001c D96B     		ldr	r1, [r3, #60]
 381 001e C160     		str	r1, [r0, #12]
 382              		.loc 1 243 0
 383 0020 DA63     		str	r2, [r3, #60]
 384              		.loc 1 244 0
 385 0022 0120     		movs	r0, #1
 386              	.LVL29:
 387              	.LBE56:
 388              	.LBE58:
 389              	.LBB59:
 390              		.loc 1 213 0
 391 0024 0023     		movs	r3, #0
 392              	@ 213 "../AithonLibrary/ChibiOS/os/kernel/src/chmtx.c" 1
 393 0026 83F31188 		msr     BASEPRI, r3
 394              	@ 0 "" 2
ARM GAS  /tmp/ccx30ula.s 			page 8


 395              		.thumb
 396              	.LBE59:
 397              		.loc 1 215 0
 398 002a 7047     		bx	lr
 399              	.L31:
 400              		.align	2
 401              	.L30:
 402 002c 00000000 		.word	rlist
 403              		.cfi_endproc
 404              	.LFE10:
 405              		.size	chMtxTryLock, .-chMtxTryLock
 406              		.section	.text.chMtxTryLockS,"ax",%progbits
 407              		.align	2
 408              		.p2align 4,,15
 409              		.global	chMtxTryLockS
 410              		.thumb
 411              		.thumb_func
 412              		.type	chMtxTryLockS, %function
 413              	chMtxTryLockS:
 414              	.LFB11:
 415              		.loc 1 234 0
 416              		.cfi_startproc
 417              		@ args = 0, pretend = 0, frame = 0
 418              		@ frame_needed = 0, uses_anonymous_args = 0
 419              		@ link register save eliminated.
 420              	.LVL30:
 421              		.loc 1 239 0
 422 0000 8268     		ldr	r2, [r0, #8]
 423              		.loc 1 234 0
 424 0002 0346     		mov	r3, r0
 425              		.loc 1 239 0
 426 0004 0AB1     		cbz	r2, .L35
 427              		.loc 1 240 0
 428 0006 0020     		movs	r0, #0
 429              	.LVL31:
 430              		.loc 1 245 0
 431 0008 7047     		bx	lr
 432              	.LVL32:
 433              	.L35:
 434              		.loc 1 241 0
 435 000a 044A     		ldr	r2, .L36
 436 000c 9269     		ldr	r2, [r2, #24]
 437 000e 8260     		str	r2, [r0, #8]
 438              		.loc 1 242 0
 439 0010 D16B     		ldr	r1, [r2, #60]
 440 0012 C160     		str	r1, [r0, #12]
 441              		.loc 1 244 0
 442 0014 0120     		movs	r0, #1
 443              	.LVL33:
 444              		.loc 1 243 0
 445 0016 D363     		str	r3, [r2, #60]
 446              		.loc 1 244 0
 447 0018 7047     		bx	lr
 448              	.L37:
 449 001a 00BF     		.align	2
 450              	.L36:
 451 001c 00000000 		.word	rlist
ARM GAS  /tmp/ccx30ula.s 			page 9


 452              		.cfi_endproc
 453              	.LFE11:
 454              		.size	chMtxTryLockS, .-chMtxTryLockS
 455              		.section	.text.chMtxUnlock,"ax",%progbits
 456              		.align	2
 457              		.p2align 4,,15
 458              		.global	chMtxUnlock
 459              		.thumb
 460              		.thumb_func
 461              		.type	chMtxUnlock, %function
 462              	chMtxUnlock:
 463              	.LFB12:
 464              		.loc 1 257 0
 465              		.cfi_startproc
 466              		@ args = 0, pretend = 0, frame = 0
 467              		@ frame_needed = 0, uses_anonymous_args = 0
 468              		.loc 1 258 0
 469 0000 174A     		ldr	r2, .L50
 470              		.loc 1 257 0
 471 0002 38B5     		push	{r3, r4, r5, lr}
 472              		.cfi_def_cfa_offset 16
 473              		.cfi_offset 3, -16
 474              		.cfi_offset 4, -12
 475              		.cfi_offset 5, -8
 476              		.cfi_offset 14, -4
 477              		.loc 1 258 0
 478 0004 9069     		ldr	r0, [r2, #24]
 479              	.LVL34:
 480              	.LBB60:
 481              		.loc 1 261 0
 482 0006 2023     		movs	r3, #32
 483              	@ 261 "../AithonLibrary/ChibiOS/os/kernel/src/chmtx.c" 1
 484 0008 83F31188 		msr     BASEPRI, r3
 485              	@ 0 "" 2
 486              		.thumb
 487              	.LBE60:
 488              		.loc 1 270 0
 489 000c C46B     		ldr	r4, [r0, #60]
 490              	.LVL35:
 491              		.loc 1 273 0
 492 000e 2568     		ldr	r5, [r4]
 493              		.loc 1 271 0
 494 0010 E368     		ldr	r3, [r4, #12]
 495 0012 C363     		str	r3, [r0, #60]
 496              		.loc 1 273 0
 497 0014 A542     		cmp	r5, r4
 498 0016 1CD0     		beq	.L39
 499              	.LBB61:
 500              		.loc 1 278 0
 501 0018 016C     		ldr	r1, [r0, #64]
 502              	.LVL36:
 503              		.loc 1 280 0
 504 001a 4BB1     		cbz	r3, .L40
 505              	.L42:
 506              		.loc 1 284 0
 507 001c 1A68     		ldr	r2, [r3]
 508 001e 9A42     		cmp	r2, r3
ARM GAS  /tmp/ccx30ula.s 			page 10


 509 0020 03D0     		beq	.L41
 510              		.loc 1 284 0 is_stmt 0 discriminator 1
 511 0022 9268     		ldr	r2, [r2, #8]
 512 0024 9142     		cmp	r1, r2
 513 0026 38BF     		it	cc
 514 0028 1146     		movcc	r1, r2
 515              	.LVL37:
 516              	.L41:
 517              		.loc 1 286 0 is_stmt 1
 518 002a DB68     		ldr	r3, [r3, #12]
 519              	.LVL38:
 520              		.loc 1 280 0
 521 002c 002B     		cmp	r3, #0
 522 002e F5D1     		bne	.L42
 523              	.L40:
 524              	.LBB62:
 525              	.LBB63:
 526              		.loc 2 62 0
 527 0030 2B68     		ldr	r3, [r5]
 528              	.LVL39:
 529              	.LBE63:
 530              	.LBE62:
 531              		.loc 1 295 0
 532 0032 EA6B     		ldr	r2, [r5, #60]
 533              		.loc 1 290 0
 534 0034 8160     		str	r1, [r0, #8]
 535              	.LVL40:
 536              	.LBB66:
 537              	.LBB64:
 538              		.loc 2 62 0
 539 0036 2360     		str	r3, [r4]
 540              	.LBE64:
 541              	.LBE66:
 542              		.loc 1 297 0
 543 0038 2846     		mov	r0, r5
 544              	.LVL41:
 545              	.LBB67:
 546              	.LBB65:
 547              		.loc 2 62 0
 548 003a 5C60     		str	r4, [r3, #4]
 549              	.LBE65:
 550              	.LBE67:
 551              		.loc 1 297 0
 552 003c 0021     		movs	r1, #0
 553              	.LVL42:
 554              		.loc 1 294 0
 555 003e A560     		str	r5, [r4, #8]
 556              		.loc 1 295 0
 557 0040 E260     		str	r2, [r4, #12]
 558              		.loc 1 296 0
 559 0042 EC63     		str	r4, [r5, #60]
 560              		.loc 1 297 0
 561 0044 FFF7FEFF 		bl	chSchWakeupS
 562              	.LVL43:
 563              	.LBE61:
 564              	.LBB68:
 565              		.loc 1 301 0
ARM GAS  /tmp/ccx30ula.s 			page 11


 566 0048 0023     		movs	r3, #0
 567              	@ 301 "../AithonLibrary/ChibiOS/os/kernel/src/chmtx.c" 1
 568 004a 83F31188 		msr     BASEPRI, r3
 569              	@ 0 "" 2
 570              		.thumb
 571              	.LBE68:
 572              		.loc 1 303 0
 573 004e 2046     		mov	r0, r4
 574 0050 38BD     		pop	{r3, r4, r5, pc}
 575              	.LVL44:
 576              	.L39:
 577              		.loc 1 300 0
 578 0052 0023     		movs	r3, #0
 579 0054 A360     		str	r3, [r4, #8]
 580              	.LBB69:
 581              		.loc 1 301 0
 582 0056 0023     		movs	r3, #0
 583              	@ 301 "../AithonLibrary/ChibiOS/os/kernel/src/chmtx.c" 1
 584 0058 83F31188 		msr     BASEPRI, r3
 585              	@ 0 "" 2
 586              		.thumb
 587              	.LBE69:
 588              		.loc 1 303 0
 589 005c 2046     		mov	r0, r4
 590              	.LVL45:
 591 005e 38BD     		pop	{r3, r4, r5, pc}
 592              	.LVL46:
 593              	.L51:
 594              		.align	2
 595              	.L50:
 596 0060 00000000 		.word	rlist
 597              		.cfi_endproc
 598              	.LFE12:
 599              		.size	chMtxUnlock, .-chMtxUnlock
 600 0064 AFF30080 		.section	.text.chMtxUnlockS,"ax",%progbits
 600      AFF30080 
 600      AFF30080 
 601              		.align	2
 602              		.p2align 4,,15
 603              		.global	chMtxUnlockS
 604              		.thumb
 605              		.thumb_func
 606              		.type	chMtxUnlockS, %function
 607              	chMtxUnlockS:
 608              	.LFB13:
 609              		.loc 1 317 0
 610              		.cfi_startproc
 611              		@ args = 0, pretend = 0, frame = 0
 612              		@ frame_needed = 0, uses_anonymous_args = 0
 613 0000 38B5     		push	{r3, r4, r5, lr}
 614              		.cfi_def_cfa_offset 16
 615              		.cfi_offset 3, -16
 616              		.cfi_offset 4, -12
 617              		.cfi_offset 5, -8
 618              		.cfi_offset 14, -4
 619              		.loc 1 318 0
 620 0002 124B     		ldr	r3, .L64
ARM GAS  /tmp/ccx30ula.s 			page 12


 621 0004 9869     		ldr	r0, [r3, #24]
 622              	.LVL47:
 623              		.loc 1 331 0
 624 0006 C46B     		ldr	r4, [r0, #60]
 625              	.LVL48:
 626              		.loc 1 334 0
 627 0008 2568     		ldr	r5, [r4]
 628              		.loc 1 332 0
 629 000a E368     		ldr	r3, [r4, #12]
 630 000c C363     		str	r3, [r0, #60]
 631              		.loc 1 334 0
 632 000e A542     		cmp	r5, r4
 633 0010 18D0     		beq	.L53
 634              	.LBB70:
 635              		.loc 1 339 0
 636 0012 016C     		ldr	r1, [r0, #64]
 637              	.LVL49:
 638              		.loc 1 341 0
 639 0014 4BB1     		cbz	r3, .L54
 640              	.L56:
 641              		.loc 1 345 0
 642 0016 1A68     		ldr	r2, [r3]
 643 0018 9A42     		cmp	r2, r3
 644 001a 03D0     		beq	.L55
 645              		.loc 1 345 0 is_stmt 0 discriminator 1
 646 001c 9268     		ldr	r2, [r2, #8]
 647 001e 9142     		cmp	r1, r2
 648 0020 38BF     		it	cc
 649 0022 1146     		movcc	r1, r2
 650              	.LVL50:
 651              	.L55:
 652              		.loc 1 347 0 is_stmt 1
 653 0024 DB68     		ldr	r3, [r3, #12]
 654              	.LVL51:
 655              		.loc 1 341 0
 656 0026 002B     		cmp	r3, #0
 657 0028 F5D1     		bne	.L56
 658              	.L54:
 659              	.LBB71:
 660              	.LBB72:
 661              		.loc 2 62 0
 662 002a 2B68     		ldr	r3, [r5]
 663              	.LVL52:
 664              	.LBE72:
 665              	.LBE71:
 666              		.loc 1 354 0
 667 002c EA6B     		ldr	r2, [r5, #60]
 668              		.loc 1 349 0
 669 002e 8160     		str	r1, [r0, #8]
 670              	.LVL53:
 671              	.LBB75:
 672              	.LBB73:
 673              		.loc 2 62 0
 674 0030 2360     		str	r3, [r4]
 675              	.LBE73:
 676              	.LBE75:
 677              		.loc 1 356 0
ARM GAS  /tmp/ccx30ula.s 			page 13


 678 0032 2846     		mov	r0, r5
 679              	.LVL54:
 680              	.LBB76:
 681              	.LBB74:
 682              		.loc 2 62 0
 683 0034 5C60     		str	r4, [r3, #4]
 684              	.LBE74:
 685              	.LBE76:
 686              		.loc 1 353 0
 687 0036 A560     		str	r5, [r4, #8]
 688              		.loc 1 354 0
 689 0038 E260     		str	r2, [r4, #12]
 690              		.loc 1 355 0
 691 003a EC63     		str	r4, [r5, #60]
 692              		.loc 1 356 0
 693 003c FFF7FEFF 		bl	chSchReadyI
 694              	.LVL55:
 695              	.LBE70:
 696              		.loc 1 361 0
 697 0040 2046     		mov	r0, r4
 698 0042 38BD     		pop	{r3, r4, r5, pc}
 699              	.LVL56:
 700              	.L53:
 701              		.loc 1 359 0
 702 0044 0023     		movs	r3, #0
 703 0046 A360     		str	r3, [r4, #8]
 704              		.loc 1 361 0
 705 0048 2046     		mov	r0, r4
 706              	.LVL57:
 707 004a 38BD     		pop	{r3, r4, r5, pc}
 708              	.LVL58:
 709              	.L65:
 710              		.align	2
 711              	.L64:
 712 004c 00000000 		.word	rlist
 713              		.cfi_endproc
 714              	.LFE13:
 715              		.size	chMtxUnlockS, .-chMtxUnlockS
 716              		.section	.text.chMtxUnlockAll,"ax",%progbits
 717              		.align	2
 718              		.p2align 4,,15
 719              		.global	chMtxUnlockAll
 720              		.thumb
 721              		.thumb_func
 722              		.type	chMtxUnlockAll, %function
 723              	chMtxUnlockAll:
 724              	.LFB14:
 725              		.loc 1 374 0
 726              		.cfi_startproc
 727              		@ args = 0, pretend = 0, frame = 0
 728              		@ frame_needed = 0, uses_anonymous_args = 0
 729              		.loc 1 375 0
 730 0000 134A     		ldr	r2, .L77
 731              		.loc 1 374 0
 732 0002 70B5     		push	{r4, r5, r6, lr}
 733              		.cfi_def_cfa_offset 16
 734              		.cfi_offset 4, -16
ARM GAS  /tmp/ccx30ula.s 			page 14


 735              		.cfi_offset 5, -12
 736              		.cfi_offset 6, -8
 737              		.cfi_offset 14, -4
 738              	.LBB77:
 739              		.loc 1 377 0
 740 0004 2023     		movs	r3, #32
 741              	.LBE77:
 742              		.loc 1 375 0
 743 0006 9469     		ldr	r4, [r2, #24]
 744              	.LVL59:
 745              	.LBB78:
 746              		.loc 1 377 0
 747              	@ 377 "../AithonLibrary/ChibiOS/os/kernel/src/chmtx.c" 1
 748 0008 83F31188 		msr     BASEPRI, r3
 749              	@ 0 "" 2
 750              		.thumb
 751              	.LBE78:
 752              		.loc 1 378 0
 753 000c E36B     		ldr	r3, [r4, #60]
 754 000e D3B1     		cbz	r3, .L67
 755              	.LBB79:
 756              		.loc 1 390 0
 757 0010 0026     		movs	r6, #0
 758 0012 0BE0     		b	.L71
 759              	.LVL60:
 760              	.L76:
 761              	.LBB80:
 762              	.LBB81:
 763              	.LBB82:
 764              		.loc 2 62 0
 765 0014 1168     		ldr	r1, [r2]
 766              	.LBE82:
 767              	.LBE81:
 768              		.loc 1 385 0
 769 0016 D56B     		ldr	r5, [r2, #60]
 770              	.LBB85:
 771              	.LBB83:
 772              		.loc 2 62 0
 773 0018 1960     		str	r1, [r3]
 774              	.LBE83:
 775              	.LBE85:
 776              		.loc 1 387 0
 777 001a 1046     		mov	r0, r2
 778              	.LBB86:
 779              	.LBB84:
 780              		.loc 2 62 0
 781 001c 4B60     		str	r3, [r1, #4]
 782              	.LBE84:
 783              	.LBE86:
 784              		.loc 1 384 0
 785 001e 9A60     		str	r2, [r3, #8]
 786              		.loc 1 385 0
 787 0020 DD60     		str	r5, [r3, #12]
 788              		.loc 1 386 0
 789 0022 D363     		str	r3, [r2, #60]
 790              		.loc 1 387 0
 791 0024 FFF7FEFF 		bl	chSchReadyI
ARM GAS  /tmp/ccx30ula.s 			page 15


 792              	.LVL61:
 793              	.LBE80:
 794              	.LBE79:
 795              		.loc 1 391 0
 796 0028 E36B     		ldr	r3, [r4, #60]
 797 002a 43B1     		cbz	r3, .L75
 798              	.L71:
 799              	.LVL62:
 800              	.LBB87:
 801              		.loc 1 382 0
 802 002c 1A68     		ldr	r2, [r3]
 803              	.LVL63:
 804              		.loc 1 381 0
 805 002e D968     		ldr	r1, [r3, #12]
 806 0030 E163     		str	r1, [r4, #60]
 807              		.loc 1 382 0
 808 0032 9A42     		cmp	r2, r3
 809 0034 EED1     		bne	.L76
 810              		.loc 1 390 0
 811 0036 9E60     		str	r6, [r3, #8]
 812              	.LBE87:
 813              		.loc 1 391 0
 814 0038 E36B     		ldr	r3, [r4, #60]
 815              	.LVL64:
 816 003a 002B     		cmp	r3, #0
 817 003c F6D1     		bne	.L71
 818              	.LVL65:
 819              	.L75:
 820              		.loc 1 392 0
 821 003e 236C     		ldr	r3, [r4, #64]
 822 0040 A360     		str	r3, [r4, #8]
 823              		.loc 1 393 0
 824 0042 FFF7FEFF 		bl	chSchRescheduleS
 825              	.LVL66:
 826              	.L67:
 827              	.LBB88:
 828              		.loc 1 395 0
 829 0046 0023     		movs	r3, #0
 830              	@ 395 "../AithonLibrary/ChibiOS/os/kernel/src/chmtx.c" 1
 831 0048 83F31188 		msr     BASEPRI, r3
 832              	@ 0 "" 2
 833              		.thumb
 834 004c 70BD     		pop	{r4, r5, r6, pc}
 835              	.LVL67:
 836              	.L78:
 837 004e 00BF     		.align	2
 838              	.L77:
 839 0050 00000000 		.word	rlist
 840              	.LBE88:
 841              		.cfi_endproc
 842              	.LFE14:
 843              		.size	chMtxUnlockAll, .-chMtxUnlockAll
 844 0054 AFF30080 		.text
 844      AFF30080 
 844      AFF30080 
 845              	.Letext0:
 846              		.file 3 "/usr/arm-none-eabi/include/stdint.h"
ARM GAS  /tmp/ccx30ula.s 			page 16


 847              		.file 4 "../AithonLibrary/ChibiOS/os/ports/GCC/ARMCMx/chtypes.h"
 848              		.file 5 "../AithonLibrary/ChibiOS/os/kernel/include/chlists.h"
 849              		.file 6 "../AithonLibrary/ChibiOS/os/kernel/include/chthreads.h"
 850              		.file 7 "../AithonLibrary/ChibiOS/os/ports/GCC/ARMCMx/chcore_v7m.h"
 851              		.file 8 "../AithonLibrary/ChibiOS/os/kernel/include/chschd.h"
 852              		.file 9 "../AithonLibrary/ChibiOS/os/kernel/include/chmtx.h"