ARM GAS  /tmp/ccpb7h7d.s 			page 1


   1              		.syntax unified
   2              		.cpu cortex-m4
   3              		.eabi_attribute 27, 3
   4              		.fpu fpv4-sp-d16
   5              		.eabi_attribute 20, 1
   6              		.eabi_attribute 21, 1
   7              		.eabi_attribute 23, 3
   8              		.eabi_attribute 24, 1
   9              		.eabi_attribute 25, 1
  10              		.eabi_attribute 26, 1
  11              		.eabi_attribute 30, 2
  12              		.eabi_attribute 34, 1
  13              		.eabi_attribute 18, 4
  14              		.thumb
  15              		.file	"chprintf.c"
  16              		.text
  17              	.Ltext0:
  18              		.cfi_sections	.debug_frame
  19              		.section	.text.long_to_string_with_divisor.constprop.0,"ax",%progbits
  20              		.align	2
  21              		.p2align 4,,15
  22              		.thumb
  23              		.thumb_func
  24              		.type	long_to_string_with_divisor.constprop.0, %function
  25              	long_to_string_with_divisor.constprop.0:
  26              	.LFB12:
  27              		.file 1 "../AithonLibrary/ChibiOS/os/various/chprintf.c"
  28              		.loc 1 37 0
  29              		.cfi_startproc
  30              		@ args = 0, pretend = 0, frame = 0
  31              		@ frame_needed = 0, uses_anonymous_args = 0
  32              		@ link register save eliminated.
  33              	.LVL0:
  34 0000 F0B4     		push	{r4, r5, r6, r7}
  35              		.cfi_def_cfa_offset 16
  36              		.cfi_offset 4, -16
  37              		.cfi_offset 5, -12
  38              		.cfi_offset 6, -8
  39              		.cfi_offset 7, -4
  40              		.loc 1 52 0
  41 0002 00F10B07 		add	r7, r0, #11
  42              	.LVL1:
  43 0006 00F10A05 		add	r5, r0, #10
  44 000a 0C46     		mov	r4, r1
  45              	.LVL2:
  46              	.L4:
  47              		.loc 1 54 0
  48 000c B1FBF2F6 		udiv	r6, r1, r2
  49 0010 02FB1611 		mls	r1, r2, r6, r1
  50              	.LVL3:
  51              		.loc 1 55 0
  52 0014 01F13003 		add	r3, r1, #48
  53              	.LVL4:
  54              		.loc 1 56 0
  55 0018 392B     		cmp	r3, #57
  56              		.loc 1 57 0
  57 001a C8BF     		it	gt
ARM GAS  /tmp/ccpb7h7d.s 			page 2


  58 001c 01F13703 		addgt	r3, r1, #55
  59              	.LVL5:
  60              		.loc 1 58 0
  61 0020 DBB2     		uxtb	r3, r3
  62              	.LVL6:
  63              		.loc 1 60 0
  64 0022 B4FBF2F4 		udiv	r4, r4, r2
  65              	.LVL7:
  66              		.loc 1 59 0
  67 0026 3146     		mov	r1, r6
  68              	.LVL8:
  69              		.loc 1 58 0
  70 0028 2E46     		mov	r6, r5
  71              	.LVL9:
  72 002a 05F80139 		strb	r3, [r5], #-1
  73              	.LVL10:
  74              		.loc 1 60 0
  75 002e 002C     		cmp	r4, #0
  76 0030 ECD1     		bne	.L4
  77              	.LVL11:
  78              		.loc 1 62 0
  79 0032 B91B     		subs	r1, r7, r6
  80              	.LVL12:
  81 0034 3246     		mov	r2, r6
  82              	.LVL13:
  83 0036 0144     		add	r1, r1, r0
  84 0038 01E0     		b	.L6
  85              	.LVL14:
  86              	.L9:
  87 003a 12F8013F 		ldrb	r3, [r2, #1]!	@ zero_extendqisi2
  88              	.LVL15:
  89              	.L6:
  90              		.loc 1 64 0
  91 003e 00F8013B 		strb	r3, [r0], #1
  92              	.LVL16:
  93              		.loc 1 65 0
  94 0042 8842     		cmp	r0, r1
  95 0044 F9D1     		bne	.L9
  96              		.loc 1 68 0
  97 0046 F0BC     		pop	{r4, r5, r6, r7}
  98              	.LVL17:
  99 0048 7047     		bx	lr
 100              		.cfi_endproc
 101              	.LFE12:
 102              		.size	long_to_string_with_divisor.constprop.0, .-long_to_string_with_divisor.constprop.0
 103 004a 00BFAFF3 		.section	.text.chvprintf,"ax",%progbits
 103      0080
 104              		.align	2
 105              		.p2align 4,,15
 106              		.global	chvprintf
 107              		.thumb
 108              		.thumb_func
 109              		.type	chvprintf, %function
 110              	chvprintf:
 111              	.LFB10:
 112              		.loc 1 112 0
 113              		.cfi_startproc
ARM GAS  /tmp/ccpb7h7d.s 			page 3


 114              		@ args = 0, pretend = 0, frame = 32
 115              		@ frame_needed = 0, uses_anonymous_args = 0
 116              	.LVL18:
 117 0000 2DE9F04F 		push	{r4, r5, r6, r7, r8, r9, r10, fp, lr}
 118              		.cfi_def_cfa_offset 36
 119              		.cfi_offset 4, -36
 120              		.cfi_offset 5, -32
 121              		.cfi_offset 6, -28
 122              		.cfi_offset 7, -24
 123              		.cfi_offset 8, -20
 124              		.cfi_offset 9, -16
 125              		.cfi_offset 10, -12
 126              		.cfi_offset 11, -8
 127              		.cfi_offset 14, -4
 128 0004 89B0     		sub	sp, sp, #36
 129              		.cfi_def_cfa_offset 72
 130 0006 0DF11503 		add	r3, sp, #21
 131 000a 0DF1140A 		add	r10, sp, #20
 132 000e CAEB030C 		rsb	ip, r10, r3
 133 0012 0293     		str	r3, [sp, #8]
 134              		.loc 1 112 0
 135 0014 8346     		mov	fp, r0
 136 0016 0C46     		mov	r4, r1
 137 0018 1646     		mov	r6, r2
 138              	.LVL19:
 139 001a CDF80CC0 		str	ip, [sp, #12]
 140              	.LVL20:
 141              	.L11:
 142              		.loc 1 125 0
 143 001e 2178     		ldrb	r1, [r4]	@ zero_extendqisi2
 144 0020 621C     		adds	r2, r4, #1
 145              	.LVL21:
 146              		.loc 1 126 0
 147 0022 59B1     		cbz	r1, .L10
 148              	.LVL22:
 149              	.L76:
 150              		.loc 1 128 0
 151 0024 2529     		cmp	r1, #37
 152 0026 0CD0     		beq	.L13
 153              		.loc 1 129 0
 154 0028 DBF80000 		ldr	r0, [fp]
 155              		.loc 1 125 0
 156 002c 1446     		mov	r4, r2
 157              		.loc 1 129 0
 158 002e 8568     		ldr	r5, [r0, #8]
 159 0030 5846     		mov	r0, fp
 160 0032 A847     		blx	r5
 161              	.LVL23:
 162              		.loc 1 125 0
 163 0034 2178     		ldrb	r1, [r4]	@ zero_extendqisi2
 164 0036 621C     		adds	r2, r4, #1
 165              	.LVL24:
 166              		.loc 1 126 0
 167 0038 0029     		cmp	r1, #0
 168 003a F3D1     		bne	.L76
 169              	.LVL25:
 170              	.L10:
ARM GAS  /tmp/ccpb7h7d.s 			page 4


 171              		.loc 1 261 0
 172 003c 09B0     		add	sp, sp, #36
 173              		@ sp needed
 174 003e BDE8F08F 		pop	{r4, r5, r6, r7, r8, r9, r10, fp, pc}
 175              	.LVL26:
 176              	.L13:
 177              		.loc 1 135 0
 178 0042 6178     		ldrb	r1, [r4, #1]	@ zero_extendqisi2
 179 0044 2D29     		cmp	r1, #45
 180 0046 03BF     		ittte	eq
 181 0048 A178     		ldrbeq	r1, [r4, #2]	@ zero_extendqisi2
 182              		.loc 1 136 0
 183 004a A21C     		addeq	r2, r4, #2
 184              	.LVL27:
 185              		.loc 1 137 0
 186 004c 0123     		moveq	r3, #1
 187              		.loc 1 134 0
 188 004e 0023     		movne	r3, #0
 189              	.LVL28:
 190              		.loc 1 140 0
 191 0050 2E29     		cmp	r1, #46
 192 0052 00F0D180 		beq	.L16
 193              		.loc 1 140 0 is_stmt 0 discriminator 1
 194 0056 3029     		cmp	r1, #48
 195 0058 00F0CE80 		beq	.L16
 196              		.loc 1 139 0 is_stmt 1
 197 005c 2027     		movs	r7, #32
 198              	.LVL29:
 199              	.L17:
 200              		.loc 1 142 0
 201 005e 1446     		mov	r4, r2
 202              		.loc 1 144 0
 203 0060 0025     		movs	r5, #0
 204 0062 06E0     		b	.L20
 205              	.LVL30:
 206              	.L77:
 207              		.loc 1 150 0
 208 0064 3278     		ldrb	r2, [r6]	@ zero_extendqisi2
 209              	.LVL31:
 210 0066 0436     		adds	r6, r6, #4
 211              	.LVL32:
 212              	.L18:
 213              		.loc 1 153 0
 214 0068 05EB8505 		add	r5, r5, r5, lsl #2
 215              	.LVL33:
 216 006c 2178     		ldrb	r1, [r4]	@ zero_extendqisi2
 217 006e 02EB4505 		add	r5, r2, r5, lsl #1
 218              	.LVL34:
 219              	.L20:
 220              		.loc 1 147 0
 221 0072 A1F13002 		sub	r2, r1, #48
 222 0076 D2B2     		uxtb	r2, r2
 223 0078 092A     		cmp	r2, #9
 224              		.loc 1 146 0
 225 007a 04F10104 		add	r4, r4, #1
 226              	.LVL35:
 227              		.loc 1 147 0
ARM GAS  /tmp/ccpb7h7d.s 			page 5


 228 007e F3D9     		bls	.L18
 229              		.loc 1 149 0
 230 0080 2A29     		cmp	r1, #42
 231 0082 EFD0     		beq	.L77
 232              	.LVL36:
 233              		.loc 1 156 0
 234 0084 2E29     		cmp	r1, #46
 235 0086 4FF00000 		mov	r0, #0
 236 008a 2BD0     		beq	.L23
 237              	.LVL37:
 238              		.loc 1 170 0
 239 008c 01F0DF02 		and	r2, r1, #223
 240 0090 4C2A     		cmp	r2, #76
 241 0092 34D0     		beq	.L78
 242              	.LVL38:
 243              	.L25:
 244              		.loc 1 179 0
 245 0094 A1F14402 		sub	r2, r1, #68
 246 0098 342A     		cmp	r2, #52
 247 009a 00F2A680 		bhi	.L26
 248 009e DFE802F0 		tbb	[pc, r2]
 249              	.L28:
 250 00a2 9C       		.byte	(.L27-.L28)/2
 251 00a3 A4       		.byte	(.L26-.L28)/2
 252 00a4 A4       		.byte	(.L26-.L28)/2
 253 00a5 A4       		.byte	(.L26-.L28)/2
 254 00a6 A4       		.byte	(.L26-.L28)/2
 255 00a7 9C       		.byte	(.L27-.L28)/2
 256 00a8 A4       		.byte	(.L26-.L28)/2
 257 00a9 A4       		.byte	(.L26-.L28)/2
 258 00aa A4       		.byte	(.L26-.L28)/2
 259 00ab A4       		.byte	(.L26-.L28)/2
 260 00ac A4       		.byte	(.L26-.L28)/2
 261 00ad 9A       		.byte	(.L29-.L28)/2
 262 00ae A4       		.byte	(.L26-.L28)/2
 263 00af A4       		.byte	(.L26-.L28)/2
 264 00b0 A4       		.byte	(.L26-.L28)/2
 265 00b1 A4       		.byte	(.L26-.L28)/2
 266 00b2 A4       		.byte	(.L26-.L28)/2
 267 00b3 34       		.byte	(.L57-.L28)/2
 268 00b4 A4       		.byte	(.L26-.L28)/2
 269 00b5 A4       		.byte	(.L26-.L28)/2
 270 00b6 6E       		.byte	(.L31-.L28)/2
 271 00b7 A4       		.byte	(.L26-.L28)/2
 272 00b8 A4       		.byte	(.L26-.L28)/2
 273 00b9 A4       		.byte	(.L26-.L28)/2
 274 00ba A4       		.byte	(.L26-.L28)/2
 275 00bb A4       		.byte	(.L26-.L28)/2
 276 00bc A4       		.byte	(.L26-.L28)/2
 277 00bd A4       		.byte	(.L26-.L28)/2
 278 00be A4       		.byte	(.L26-.L28)/2
 279 00bf A4       		.byte	(.L26-.L28)/2
 280 00c0 A4       		.byte	(.L26-.L28)/2
 281 00c1 90       		.byte	(.L32-.L28)/2
 282 00c2 9C       		.byte	(.L27-.L28)/2
 283 00c3 A4       		.byte	(.L26-.L28)/2
 284 00c4 A4       		.byte	(.L26-.L28)/2
ARM GAS  /tmp/ccpb7h7d.s 			page 6


 285 00c5 A4       		.byte	(.L26-.L28)/2
 286 00c6 A4       		.byte	(.L26-.L28)/2
 287 00c7 9C       		.byte	(.L27-.L28)/2
 288 00c8 A4       		.byte	(.L26-.L28)/2
 289 00c9 A4       		.byte	(.L26-.L28)/2
 290 00ca A4       		.byte	(.L26-.L28)/2
 291 00cb A4       		.byte	(.L26-.L28)/2
 292 00cc A4       		.byte	(.L26-.L28)/2
 293 00cd 9A       		.byte	(.L29-.L28)/2
 294 00ce A4       		.byte	(.L26-.L28)/2
 295 00cf A4       		.byte	(.L26-.L28)/2
 296 00d0 A4       		.byte	(.L26-.L28)/2
 297 00d1 70       		.byte	(.L33-.L28)/2
 298 00d2 A4       		.byte	(.L26-.L28)/2
 299 00d3 34       		.byte	(.L57-.L28)/2
 300 00d4 A4       		.byte	(.L26-.L28)/2
 301 00d5 A4       		.byte	(.L26-.L28)/2
 302 00d6 6E       		.byte	(.L31-.L28)/2
 303 00d7 00       		.align	1
 304              	.LVL39:
 305              	.L79:
 306              		.loc 1 162 0
 307 00d8 3278     		ldrb	r2, [r6]	@ zero_extendqisi2
 308              	.LVL40:
 309 00da 0436     		adds	r6, r6, #4
 310              	.LVL41:
 311              	.L22:
 312              		.loc 1 165 0
 313 00dc 00EB8000 		add	r0, r0, r0, lsl #2
 314              	.LVL42:
 315              		.loc 1 166 0
 316 00e0 02EB4000 		add	r0, r2, r0, lsl #1
 317              	.LVL43:
 318              	.L23:
 319              		.loc 1 158 0
 320 00e4 14F8011B 		ldrb	r1, [r4], #1	@ zero_extendqisi2
 321              	.LVL44:
 322              		.loc 1 159 0
 323 00e8 A1F13002 		sub	r2, r1, #48
 324 00ec D2B2     		uxtb	r2, r2
 325 00ee 092A     		cmp	r2, #9
 326 00f0 F4D9     		bls	.L22
 327              		.loc 1 161 0
 328 00f2 2A29     		cmp	r1, #42
 329 00f4 F0D0     		beq	.L79
 330              	.LVL45:
 331              		.loc 1 170 0
 332 00f6 01F0DF02 		and	r2, r1, #223
 333 00fa 4C2A     		cmp	r2, #76
 334 00fc CAD1     		bne	.L25
 335              	.LVL46:
 336              	.L78:
 337              		.loc 1 172 0
 338 00fe 2278     		ldrb	r2, [r4]	@ zero_extendqisi2
 339 0100 002A     		cmp	r2, #0
 340 0102 C7D0     		beq	.L25
 341              		.loc 1 173 0
ARM GAS  /tmp/ccpb7h7d.s 			page 7


 342 0104 0134     		adds	r4, r4, #1
 343              	.LVL47:
 344 0106 1146     		mov	r1, r2
 345 0108 C4E7     		b	.L25
 346              	.LVL48:
 347              	.L57:
 348              		.loc 1 179 0
 349 010a 0A22     		movs	r2, #10
 350              	.LVL49:
 351              	.L30:
 352              		.loc 1 230 0
 353 010c 3168     		ldr	r1, [r6]
 354              	.LVL50:
 355              	.LBB6:
 356              	.LBB7:
 357              		.loc 1 72 0
 358 010e 5046     		mov	r0, r10
 359              	.LBE7:
 360              	.LBE6:
 361              		.loc 1 230 0
 362 0110 0436     		adds	r6, r6, #4
 363              	.LVL51:
 364              	.L74:
 365              	.LBB9:
 366              	.LBB8:
 367              		.loc 1 72 0
 368 0112 0193     		str	r3, [sp, #4]
 369 0114 FFF7FEFF 		bl	long_to_string_with_divisor.constprop.0
 370              	.LVL52:
 371              	.LBE8:
 372              	.LBE9:
 373              		.loc 1 234 0
 374 0118 019B     		ldr	r3, [sp, #4]
 375 011a CAEB0000 		rsb	r0, r10, r0
 376 011e 00F1FF38 		add	r8, r0, #-1
 377              		.loc 1 133 0
 378 0122 D146     		mov	r9, r10
 379              	.LVL53:
 380              	.L34:
 381              		.loc 1 240 0
 382 0124 2D1A     		subs	r5, r5, r0
 383              	.LVL54:
 384 0126 25EAE575 		bic	r5, r5, r5, asr #31
 385              	.LVL55:
 386              		.loc 1 242 0
 387 012a 6BB9     		cbnz	r3, .L45
 388              		.loc 1 243 0
 389 012c 6D42     		negs	r5, r5
 390              	.LVL56:
 391              		.loc 1 244 0
 392 012e 5DB1     		cbz	r5, .L45
 393              		.loc 1 245 0
 394 0130 99F80010 		ldrb	r1, [r9]	@ zero_extendqisi2
 395 0134 2D29     		cmp	r1, #45
 396 0136 63D0     		beq	.L80
 397              	.LVL57:
 398              	.L47:
ARM GAS  /tmp/ccpb7h7d.s 			page 8


 399              		.loc 1 250 0 discriminator 1
 400 0138 DBF80020 		ldr	r2, [fp]
 401 013c 5846     		mov	r0, fp
 402 013e 9268     		ldr	r2, [r2, #8]
 403 0140 3946     		mov	r1, r7
 404 0142 9047     		blx	r2
 405              	.LVL58:
 406              		.loc 1 251 0 discriminator 1
 407 0144 0135     		adds	r5, r5, #1
 408              	.LVL59:
 409 0146 F7D1     		bne	.L47
 410              	.L45:
 411              		.loc 1 253 0 discriminator 1
 412 0148 B8F1000F 		cmp	r8, #0
 413 014c 0BDB     		blt	.L50
 414 014e C844     		add	r8, r8, r9
 415 0150 09F1FF39 		add	r9, r9, #-1
 416              	.LVL60:
 417              	.L51:
 418              		.loc 1 254 0
 419 0154 DBF80020 		ldr	r2, [fp]
 420 0158 19F8011F 		ldrb	r1, [r9, #1]!	@ zero_extendqisi2
 421              	.LVL61:
 422 015c 9268     		ldr	r2, [r2, #8]
 423 015e 5846     		mov	r0, fp
 424 0160 9047     		blx	r2
 425              	.LVL62:
 426              		.loc 1 253 0
 427 0162 C145     		cmp	r9, r8
 428 0164 F6D1     		bne	.L51
 429              	.LVL63:
 430              	.L50:
 431              		.loc 1 256 0
 432 0166 002D     		cmp	r5, #0
 433 0168 3FF459AF 		beq	.L11
 434              	.L52:
 435              		.loc 1 257 0
 436 016c DBF80020 		ldr	r2, [fp]
 437 0170 5846     		mov	r0, fp
 438 0172 9268     		ldr	r2, [r2, #8]
 439 0174 3946     		mov	r1, r7
 440 0176 9047     		blx	r2
 441              	.LVL64:
 442              		.loc 1 256 0
 443 0178 013D     		subs	r5, r5, #1
 444              	.LVL65:
 445 017a F7D1     		bne	.L52
 446 017c 4FE7     		b	.L11
 447              	.LVL66:
 448              	.L31:
 449              		.loc 1 179 0
 450 017e 1022     		movs	r2, #16
 451 0180 C4E7     		b	.L30
 452              	.L33:
 453              	.LVL67:
 454              		.loc 1 186 0
 455 0182 D6F80090 		ldr	r9, [r6]
ARM GAS  /tmp/ccpb7h7d.s 			page 9


 456              		.loc 1 187 0
 457 0186 2D4A     		ldr	r2, .L83
 458 0188 B9F1000F 		cmp	r9, #0
 459 018c 08BF     		it	eq
 460 018e 9146     		moveq	r9, r2
 461              		.loc 1 189 0
 462 0190 47F6FF71 		movw	r1, #32767
 463              	.LVL68:
 464              		.loc 1 190 0
 465 0194 99F80020 		ldrb	r2, [r9]	@ zero_extendqisi2
 466              		.loc 1 186 0
 467 0198 0436     		adds	r6, r6, #4
 468              	.LVL69:
 469              		.loc 1 189 0
 470 019a 0028     		cmp	r0, #0
 471 019c 08BF     		it	eq
 472 019e 0846     		moveq	r0, r1
 473              	.LVL70:
 474              		.loc 1 190 0
 475 01a0 002A     		cmp	r2, #0
 476 01a2 46D0     		beq	.L60
 477 01a4 4844     		add	r0, r0, r9
 478 01a6 4A46     		mov	r2, r9
 479 01a8 01E0     		b	.L39
 480              	.LVL71:
 481              	.L37:
 482              		.loc 1 190 0 is_stmt 0 discriminator 2
 483 01aa 8242     		cmp	r2, r0
 484 01ac 34D0     		beq	.L81
 485              	.LVL72:
 486              	.L39:
 487              		.loc 1 190 0 discriminator 1
 488 01ae 5178     		ldrb	r1, [r2, #1]	@ zero_extendqisi2
 489 01b0 0132     		adds	r2, r2, #1
 490              	.LVL73:
 491 01b2 0029     		cmp	r1, #0
 492 01b4 F9D1     		bne	.L37
 493 01b6 C9EB0200 		rsb	r0, r9, r2
 494 01ba 00F1FF38 		add	r8, r0, #-1
 495              		.loc 1 185 0 is_stmt 1
 496 01be 2027     		movs	r7, #32
 497 01c0 B0E7     		b	.L34
 498              	.LVL74:
 499              	.L32:
 500 01c2 0398     		ldr	r0, [sp, #12]
 501              		.loc 1 182 0
 502 01c4 3268     		ldr	r2, [r6]
 503 01c6 8DF81420 		strb	r2, [sp, #20]
 504 01ca 0436     		adds	r6, r6, #4
 505              	.LVL75:
 506 01cc 00F1FF38 		add	r8, r0, #-1
 507              		.loc 1 181 0
 508 01d0 2027     		movs	r7, #32
 509              		.loc 1 133 0
 510 01d2 D146     		mov	r9, r10
 511              		.loc 1 183 0
 512 01d4 A6E7     		b	.L34
ARM GAS  /tmp/ccpb7h7d.s 			page 10


 513              	.LVL76:
 514              	.L29:
 515 01d6 0822     		movs	r2, #8
 516 01d8 98E7     		b	.L30
 517              	.LVL77:
 518              	.L27:
 519              		.loc 1 198 0
 520 01da 3168     		ldr	r1, [r6]
 521              	.LVL78:
 522              		.loc 1 201 0
 523 01dc 0029     		cmp	r1, #0
 524              		.loc 1 198 0
 525 01de 06F10406 		add	r6, r6, #4
 526              	.LVL79:
 527              		.loc 1 201 0
 528 01e2 1FDB     		blt	.L82
 529              		.loc 1 132 0
 530 01e4 5046     		mov	r0, r10
 531              	.LVL80:
 532              	.L42:
 533              	.LBB10:
 534              	.LBB11:
 535              		.loc 1 72 0
 536 01e6 0A22     		movs	r2, #10
 537 01e8 93E7     		b	.L74
 538              	.LVL81:
 539              	.L26:
 540 01ea 0398     		ldr	r0, [sp, #12]
 541              	.LBE11:
 542              	.LBE10:
 543              		.loc 1 236 0
 544 01ec 8DF81410 		strb	r1, [sp, #20]
 545 01f0 00F1FF38 		add	r8, r0, #-1
 546              		.loc 1 133 0
 547 01f4 D146     		mov	r9, r10
 548              		.loc 1 237 0
 549 01f6 95E7     		b	.L34
 550              	.LVL82:
 551              	.L16:
 552 01f8 5178     		ldrb	r1, [r2, #1]	@ zero_extendqisi2
 553              		.loc 1 142 0
 554 01fa 3027     		movs	r7, #48
 555              		.loc 1 141 0
 556 01fc 0132     		adds	r2, r2, #1
 557              	.LVL83:
 558 01fe 2EE7     		b	.L17
 559              	.LVL84:
 560              	.L80:
 561              		.loc 1 245 0 discriminator 1
 562 0200 302F     		cmp	r7, #48
 563 0202 99D1     		bne	.L47
 564              	.LVL85:
 565              		.loc 1 246 0
 566 0204 DBF80020 		ldr	r2, [fp]
 567 0208 5846     		mov	r0, fp
 568              	.LVL86:
 569 020a 9268     		ldr	r2, [r2, #8]
ARM GAS  /tmp/ccpb7h7d.s 			page 11


 570 020c 9047     		blx	r2
 571              	.LVL87:
 572 020e 09F10109 		add	r9, r9, #1
 573              	.LVL88:
 574 0212 08F1FF38 		add	r8, r8, #-1
 575              	.LVL89:
 576 0216 8FE7     		b	.L47
 577              	.LVL90:
 578              	.L81:
 579 0218 C9EB0000 		rsb	r0, r9, r0
 580 021c 00F1FF38 		add	r8, r0, #-1
 581              		.loc 1 185 0
 582 0220 2027     		movs	r7, #32
 583 0222 7FE7     		b	.L34
 584              	.LVL91:
 585              	.L82:
 586              		.loc 1 202 0
 587 0224 2D22     		movs	r2, #45
 588              	.LVL92:
 589              		.loc 1 203 0
 590 0226 4942     		negs	r1, r1
 591              	.LVL93:
 592              		.loc 1 202 0
 593 0228 8DF81420 		strb	r2, [sp, #20]
 594 022c 0DF11500 		add	r0, sp, #21
 595 0230 D9E7     		b	.L42
 596              	.LVL94:
 597              	.L60:
 598              		.loc 1 190 0
 599 0232 1046     		mov	r0, r2
 600 0234 4FF0FF38 		mov	r8, #-1
 601              		.loc 1 185 0
 602 0238 2027     		movs	r7, #32
 603 023a 73E7     		b	.L34
 604              	.L84:
 605              		.align	2
 606              	.L83:
 607 023c 00000000 		.word	.LC0
 608              		.cfi_endproc
 609              	.LFE10:
 610              		.size	chvprintf, .-chvprintf
 611              		.section	.text.chsnprintf,"ax",%progbits
 612              		.align	2
 613              		.p2align 4,,15
 614              		.global	chsnprintf
 615              		.thumb
 616              		.thumb_func
 617              		.type	chsnprintf, %function
 618              	chsnprintf:
 619              	.LFB11:
 620              		.loc 1 288 0
 621              		.cfi_startproc
 622              		@ args = 4, pretend = 8, frame = 24
 623              		@ frame_needed = 0, uses_anonymous_args = 1
 624              	.LVL95:
 625 0000 0CB4     		push	{r2, r3}
 626              		.cfi_def_cfa_offset 8
ARM GAS  /tmp/ccpb7h7d.s 			page 12


 627              		.cfi_offset 2, -8
 628              		.cfi_offset 3, -4
 629 0002 30B5     		push	{r4, r5, lr}
 630              		.cfi_def_cfa_offset 20
 631              		.cfi_offset 4, -20
 632              		.cfi_offset 5, -16
 633              		.cfi_offset 14, -12
 634 0004 87B0     		sub	sp, sp, #28
 635              		.cfi_def_cfa_offset 48
 636              		.loc 1 288 0
 637 0006 0AAC     		add	r4, sp, #40
 638 0008 0A46     		mov	r2, r1
 639 000a 54F8045B 		ldr	r5, [r4], #4
 640              		.loc 1 294 0
 641 000e 0146     		mov	r1, r0
 642              	.LVL96:
 643 0010 0023     		movs	r3, #0
 644 0012 01A8     		add	r0, sp, #4
 645              	.LVL97:
 646 0014 FFF7FEFF 		bl	msObjectInit
 647              	.LVL98:
 648              		.loc 1 299 0
 649 0018 2946     		mov	r1, r5
 650 001a 2246     		mov	r2, r4
 651 001c 01A8     		add	r0, sp, #4
 652              	.LVL99:
 653              		.loc 1 298 0
 654 001e 0094     		str	r4, [sp]
 655              		.loc 1 299 0
 656 0020 FFF7FEFF 		bl	chvprintf
 657              	.LVL100:
 658              		.loc 1 303 0
 659 0024 019B     		ldr	r3, [sp, #4]
 660 0026 01A8     		add	r0, sp, #4
 661              	.LVL101:
 662 0028 9B68     		ldr	r3, [r3, #8]
 663 002a 0021     		movs	r1, #0
 664 002c 9847     		blx	r3
 665              	.LVL102:
 666              		.loc 1 304 0
 667 002e 0498     		ldr	r0, [sp, #16]
 668              		.loc 1 305 0
 669 0030 0138     		subs	r0, r0, #1
 670 0032 07B0     		add	sp, sp, #28
 671              		@ sp needed
 672 0034 BDE83040 		pop	{r4, r5, lr}
 673 0038 02B0     		add	sp, sp, #8
 674 003a 7047     		bx	lr
 675              		.cfi_endproc
 676              	.LFE11:
 677              		.size	chsnprintf, .-chsnprintf
 678 003c AFF30080 		.section	.rodata.str1.4,"aMS",%progbits,1
 679              		.align	2
 680              	.LC0:
 681 0000 286E756C 		.ascii	"(null)\000"
 681      6C2900
 682 0007 00       		.text
ARM GAS  /tmp/ccpb7h7d.s 			page 13


 683              	.Letext0:
 684              		.file 2 "/usr/lib/gcc/arm-none-eabi/4.8.3/include/stddef.h"
 685              		.file 3 "/usr/arm-none-eabi/include/stdint.h"
 686              		.file 4 "../AithonLibrary/ChibiOS/os/ports/GCC/ARMCMx/chtypes.h"
 687              		.file 5 "../AithonLibrary/ChibiOS/os/kernel/include/chstreams.h"
 688              		.file 6 "/usr/lib/gcc/arm-none-eabi/4.8.3/include/stdarg.h"
 689              		.file 7 "<built-in>"
 690              		.file 8 "../AithonLibrary/ChibiOS/os/various/memstreams.h"