ARM GAS  /tmp/cc3eOXRS.s 			page 1


   1              		.syntax unified
   2              		.cpu cortex-m4
   3              		.eabi_attribute 27, 3
   4              		.fpu fpv4-sp-d16
   5              		.eabi_attribute 20, 1
   6              		.eabi_attribute 21, 1
   7              		.eabi_attribute 23, 3
   8              		.eabi_attribute 24, 1
   9              		.eabi_attribute 25, 1
  10              		.eabi_attribute 26, 1
  11              		.eabi_attribute 30, 2
  12              		.eabi_attribute 34, 1
  13              		.eabi_attribute 18, 4
  14              		.thumb
  15              		.file	"chqueues.c"
  16              		.text
  17              	.Ltext0:
  18              		.cfi_sections	.debug_frame
  19              		.section	.text.qwait,"ax",%progbits
  20              		.align	2
  21              		.p2align 4,,15
  22              		.thumb
  23              		.thumb_func
  24              		.type	qwait, %function
  25              	qwait:
  26              	.LFB7:
  27              		.file 1 "../AithonLibrary/ChibiOS/os/kernel/src/chqueues.c"
  28              		.loc 1 70 0
  29              		.cfi_startproc
  30              		@ args = 0, pretend = 0, frame = 0
  31              		@ frame_needed = 0, uses_anonymous_args = 0
  32              		@ link register save eliminated.
  33              	.LVL0:
  34 0000 10B4     		push	{r4}
  35              		.cfi_def_cfa_offset 4
  36              		.cfi_offset 4, -4
  37              		.loc 1 70 0
  38 0002 0246     		mov	r2, r0
  39              		.loc 1 72 0
  40 0004 61B1     		cbz	r1, .L2
  41              		.loc 1 74 0
  42 0006 094B     		ldr	r3, .L4
  43 0008 9B69     		ldr	r3, [r3, #24]
  44 000a 5862     		str	r0, [r3, #36]
  45              	.LVL1:
  46              	.LBB12:
  47              	.LBB13:
  48              		.file 2 "../AithonLibrary/ChibiOS/os/kernel/include/chinline.h"
  49              		.loc 2 55 0
  50 000c 4468     		ldr	r4, [r0, #4]
  51              	.LBE13:
  52              	.LBE12:
  53              		.loc 1 76 0
  54 000e 0D20     		movs	r0, #13
  55              	.LVL2:
  56              	.LBB15:
  57              	.LBB14:
ARM GAS  /tmp/cc3eOXRS.s 			page 2


  58              		.loc 2 55 0
  59 0010 83E81400 		stmia	r3, {r2, r4}
  60              		.loc 2 56 0
  61 0014 5360     		str	r3, [r2, #4]
  62 0016 2360     		str	r3, [r4]
  63              	.LBE14:
  64              	.LBE15:
  65              		.loc 1 77 0
  66 0018 5DF8044B 		ldr	r4, [sp], #4
  67              		.loc 1 76 0
  68 001c FFF7FEBF 		b	chSchGoSleepTimeoutS
  69              	.LVL3:
  70              	.L2:
  71              		.loc 1 77 0
  72 0020 4FF0FF30 		mov	r0, #-1
  73              	.LVL4:
  74 0024 5DF8044B 		ldr	r4, [sp], #4
  75 0028 7047     		bx	lr
  76              	.L5:
  77 002a 00BF     		.align	2
  78              	.L4:
  79 002c 00000000 		.word	rlist
  80              		.cfi_endproc
  81              	.LFE7:
  82              		.size	qwait, .-qwait
  83              		.section	.text.chIQInit,"ax",%progbits
  84              		.align	2
  85              		.p2align 4,,15
  86              		.global	chIQInit
  87              		.thumb
  88              		.thumb_func
  89              		.type	chIQInit, %function
  90              	chIQInit:
  91              	.LFB8:
  92              		.loc 1 96 0
  93              		.cfi_startproc
  94              		@ args = 4, pretend = 0, frame = 0
  95              		@ frame_needed = 0, uses_anonymous_args = 0
  96              		@ link register save eliminated.
  97              	.LVL5:
  98 0000 30B4     		push	{r4, r5}
  99              		.cfi_def_cfa_offset 8
 100              		.cfi_offset 4, -8
 101              		.cfi_offset 5, -4
 102              		.loc 1 96 0
 103 0002 029C     		ldr	r4, [sp, #8]
 104              		.loc 1 103 0
 105 0004 0462     		str	r4, [r0, #32]
 106              		.loc 1 99 0
 107 0006 0025     		movs	r5, #0
 108              		.loc 1 101 0
 109 0008 0A44     		add	r2, r2, r1
 110              	.LVL6:
 111              		.loc 1 99 0
 112 000a 8560     		str	r5, [r0, #8]
 113              		.loc 1 101 0
 114 000c 0261     		str	r2, [r0, #16]
ARM GAS  /tmp/cc3eOXRS.s 			page 3


 115              		.loc 1 98 0
 116 000e 4060     		str	r0, [r0, #4]
 117 0010 0060     		str	r0, [r0]
 118              		.loc 1 100 0
 119 0012 4161     		str	r1, [r0, #20]
 120 0014 8161     		str	r1, [r0, #24]
 121 0016 C160     		str	r1, [r0, #12]
 122              		.loc 1 102 0
 123 0018 C361     		str	r3, [r0, #28]
 124              		.loc 1 104 0
 125 001a 30BC     		pop	{r4, r5}
 126              	.LVL7:
 127 001c 7047     		bx	lr
 128              		.cfi_endproc
 129              	.LFE8:
 130              		.size	chIQInit, .-chIQInit
 131 001e 00BF     		.section	.text.chIQResetI,"ax",%progbits
 132              		.align	2
 133              		.p2align 4,,15
 134              		.global	chIQResetI
 135              		.thumb
 136              		.thumb_func
 137              		.type	chIQResetI, %function
 138              	chIQResetI:
 139              	.LFB9:
 140              		.loc 1 117 0
 141              		.cfi_startproc
 142              		@ args = 0, pretend = 0, frame = 0
 143              		@ frame_needed = 0, uses_anonymous_args = 0
 144              	.LVL8:
 145 0000 38B5     		push	{r3, r4, r5, lr}
 146              		.cfi_def_cfa_offset 16
 147              		.cfi_offset 3, -16
 148              		.cfi_offset 4, -12
 149              		.cfi_offset 5, -8
 150              		.cfi_offset 14, -4
 151              		.loc 1 117 0
 152 0002 0446     		mov	r4, r0
 153              		.loc 1 123 0
 154 0004 0068     		ldr	r0, [r0]
 155              	.LVL9:
 156              		.loc 1 121 0
 157 0006 E368     		ldr	r3, [r4, #12]
 158 0008 6361     		str	r3, [r4, #20]
 159              		.loc 1 122 0
 160 000a 0022     		movs	r2, #0
 161              		.loc 1 123 0
 162 000c A042     		cmp	r0, r4
 163              		.loc 1 122 0
 164 000e A260     		str	r2, [r4, #8]
 165              		.loc 1 121 0
 166 0010 A361     		str	r3, [r4, #24]
 167              		.loc 1 123 0
 168 0012 0AD0     		beq	.L7
 169              		.loc 1 124 0
 170 0014 6FF00105 		mvn	r5, #1
 171              	.L10:
ARM GAS  /tmp/cc3eOXRS.s 			page 4


 172              	.LVL10:
 173              	.LBB16:
 174              	.LBB17:
 175              		.loc 2 62 0
 176 0018 0368     		ldr	r3, [r0]
 177 001a 2360     		str	r3, [r4]
 178 001c 5C60     		str	r4, [r3, #4]
 179              	.LBE17:
 180              	.LBE16:
 181              		.loc 1 124 0
 182 001e FFF7FEFF 		bl	chSchReadyI
 183              	.LVL11:
 184 0022 4562     		str	r5, [r0, #36]
 185              		.loc 1 123 0
 186 0024 2068     		ldr	r0, [r4]
 187 0026 A042     		cmp	r0, r4
 188 0028 F6D1     		bne	.L10
 189              	.LVL12:
 190              	.L7:
 191 002a 38BD     		pop	{r3, r4, r5, pc}
 192              		.cfi_endproc
 193              	.LFE9:
 194              		.size	chIQResetI, .-chIQResetI
 195 002c AFF30080 		.section	.text.chIQPutI,"ax",%progbits
 196              		.align	2
 197              		.p2align 4,,15
 198              		.global	chIQPutI
 199              		.thumb
 200              		.thumb_func
 201              		.type	chIQPutI, %function
 202              	chIQPutI:
 203              	.LFB10:
 204              		.loc 1 140 0
 205              		.cfi_startproc
 206              		@ args = 0, pretend = 0, frame = 0
 207              		@ frame_needed = 0, uses_anonymous_args = 0
 208              	.LVL13:
 209 0000 0346     		mov	r3, r0
 210              		.loc 1 144 0
 211 0002 4269     		ldr	r2, [r0, #20]
 212 0004 8069     		ldr	r0, [r0, #24]
 213              	.LVL14:
 214 0006 8242     		cmp	r2, r0
 215              		.loc 1 140 0
 216 0008 10B5     		push	{r4, lr}
 217              		.cfi_def_cfa_offset 8
 218              		.cfi_offset 4, -8
 219              		.cfi_offset 14, -4
 220              		.loc 1 144 0
 221 000a 9868     		ldr	r0, [r3, #8]
 222 000c 1BD0     		beq	.L20
 223              	.L14:
 224              		.loc 1 148 0
 225 000e 541C     		adds	r4, r2, #1
 226              		.loc 1 147 0
 227 0010 0130     		adds	r0, r0, #1
 228              		.loc 1 148 0
ARM GAS  /tmp/cc3eOXRS.s 			page 5


 229 0012 5C61     		str	r4, [r3, #20]
 230              		.loc 1 147 0
 231 0014 9860     		str	r0, [r3, #8]
 232              		.loc 1 148 0
 233 0016 1170     		strb	r1, [r2]
 234              		.loc 1 149 0
 235 0018 5969     		ldr	r1, [r3, #20]
 236              	.LVL15:
 237 001a 1A69     		ldr	r2, [r3, #16]
 238              	.LVL16:
 239 001c 9142     		cmp	r1, r2
 240 001e 0BD2     		bcs	.L15
 241              		.loc 1 152 0
 242 0020 1868     		ldr	r0, [r3]
 243 0022 9842     		cmp	r0, r3
 244 0024 0DD0     		beq	.L18
 245              	.LVL17:
 246              	.L21:
 247              	.LBB18:
 248              	.LBB19:
 249              		.loc 2 62 0
 250 0026 0268     		ldr	r2, [r0]
 251 0028 1A60     		str	r2, [r3]
 252 002a 5360     		str	r3, [r2, #4]
 253              	.LBE19:
 254              	.LBE18:
 255              		.loc 1 153 0
 256 002c FFF7FEFF 		bl	chSchReadyI
 257              	.LVL18:
 258 0030 0023     		movs	r3, #0
 259 0032 4362     		str	r3, [r0, #36]
 260              		.loc 1 155 0
 261 0034 1846     		mov	r0, r3
 262 0036 10BD     		pop	{r4, pc}
 263              	.LVL19:
 264              	.L15:
 265              		.loc 1 152 0
 266 0038 1868     		ldr	r0, [r3]
 267              		.loc 1 150 0
 268 003a DA68     		ldr	r2, [r3, #12]
 269 003c 5A61     		str	r2, [r3, #20]
 270              	.LVL20:
 271              		.loc 1 152 0
 272 003e 9842     		cmp	r0, r3
 273 0040 F1D1     		bne	.L21
 274              	.L18:
 275              		.loc 1 155 0
 276 0042 0020     		movs	r0, #0
 277 0044 10BD     		pop	{r4, pc}
 278              	.LVL21:
 279              	.L20:
 280              		.loc 1 144 0 discriminator 1
 281 0046 0028     		cmp	r0, #0
 282 0048 E1D0     		beq	.L14
 283              		.loc 1 145 0
 284 004a 6FF00300 		mvn	r0, #3
 285 004e 10BD     		pop	{r4, pc}
ARM GAS  /tmp/cc3eOXRS.s 			page 6


 286              		.cfi_endproc
 287              	.LFE10:
 288              		.size	chIQPutI, .-chIQPutI
 289              		.section	.text.chIQGetTimeout,"ax",%progbits
 290              		.align	2
 291              		.p2align 4,,15
 292              		.global	chIQGetTimeout
 293              		.thumb
 294              		.thumb_func
 295              		.type	chIQGetTimeout, %function
 296              	chIQGetTimeout:
 297              	.LFB11:
 298              		.loc 1 178 0
 299              		.cfi_startproc
 300              		@ args = 0, pretend = 0, frame = 0
 301              		@ frame_needed = 0, uses_anonymous_args = 0
 302              	.LVL22:
 303 0000 70B5     		push	{r4, r5, r6, lr}
 304              		.cfi_def_cfa_offset 16
 305              		.cfi_offset 4, -16
 306              		.cfi_offset 5, -12
 307              		.cfi_offset 6, -8
 308              		.cfi_offset 14, -4
 309              	.LBB20:
 310              		.loc 1 181 0
 311 0002 2023     		movs	r3, #32
 312              	.LBE20:
 313              		.loc 1 178 0
 314 0004 0446     		mov	r4, r0
 315 0006 0E46     		mov	r6, r1
 316              	.LBB21:
 317              		.loc 1 181 0
 318              	@ 181 "../AithonLibrary/ChibiOS/os/kernel/src/chqueues.c" 1
 319 0008 83F31188 		msr     BASEPRI, r3
 320              	@ 0 "" 2
 321              		.thumb
 322              	.LBE21:
 323              		.loc 1 182 0
 324 000c C369     		ldr	r3, [r0, #28]
 325 000e 2BB1     		cbz	r3, .L25
 326              		.loc 1 183 0
 327 0010 9847     		blx	r3
 328              	.LVL23:
 329 0012 03E0     		b	.L25
 330              	.LVL24:
 331              	.L27:
 332              	.LBB22:
 333              		.loc 1 187 0
 334 0014 FFF7FEFF 		bl	qwait
 335              	.LVL25:
 336 0018 0028     		cmp	r0, #0
 337 001a 15DB     		blt	.L32
 338              	.LVL26:
 339              	.L25:
 340              	.LBE22:
 341              		.loc 1 185 0 discriminator 1
 342 001c A568     		ldr	r5, [r4, #8]
ARM GAS  /tmp/cc3eOXRS.s 			page 7


 343              	.LBB24:
 344              		.loc 1 187 0 discriminator 1
 345 001e 2046     		mov	r0, r4
 346 0020 3146     		mov	r1, r6
 347              	.LBE24:
 348              		.loc 1 185 0 discriminator 1
 349 0022 002D     		cmp	r5, #0
 350 0024 F6D0     		beq	.L27
 351              	.LVL27:
 352              		.loc 1 194 0
 353 0026 A269     		ldr	r2, [r4, #24]
 354              		.loc 1 195 0
 355 0028 2169     		ldr	r1, [r4, #16]
 356              	.LVL28:
 357              		.loc 1 194 0
 358 002a 531C     		adds	r3, r2, #1
 359              		.loc 1 195 0
 360 002c 8B42     		cmp	r3, r1
 361              		.loc 1 193 0
 362 002e 05F1FF35 		add	r5, r5, #-1
 363              		.loc 1 194 0
 364 0032 A361     		str	r3, [r4, #24]
 365              		.loc 1 193 0
 366 0034 A560     		str	r5, [r4, #8]
 367              		.loc 1 196 0
 368 0036 28BF     		it	cs
 369 0038 E368     		ldrcs	r3, [r4, #12]
 370              		.loc 1 194 0
 371 003a 1078     		ldrb	r0, [r2]	@ zero_extendqisi2
 372              	.LVL29:
 373              		.loc 1 196 0
 374 003c 28BF     		it	cs
 375 003e A361     		strcs	r3, [r4, #24]
 376              	.LVL30:
 377              	.LBB25:
 378              		.loc 1 198 0
 379 0040 0023     		movs	r3, #0
 380              	@ 198 "../AithonLibrary/ChibiOS/os/kernel/src/chqueues.c" 1
 381 0042 83F31188 		msr     BASEPRI, r3
 382              	@ 0 "" 2
 383              		.thumb
 384              	.LBE25:
 385              		.loc 1 200 0
 386 0046 70BD     		pop	{r4, r5, r6, pc}
 387              	.LVL31:
 388              	.L32:
 389              	.LBB26:
 390              	.LBB23:
 391              		.loc 1 188 0
 392 0048 2B46     		mov	r3, r5
 393              	@ 188 "../AithonLibrary/ChibiOS/os/kernel/src/chqueues.c" 1
 394 004a 83F31188 		msr     BASEPRI, r3
 395              	@ 0 "" 2
 396              		.thumb
 397              	.LBE23:
 398              		.loc 1 189 0
 399 004e 70BD     		pop	{r4, r5, r6, pc}
ARM GAS  /tmp/cc3eOXRS.s 			page 8


 400              	.LBE26:
 401              		.cfi_endproc
 402              	.LFE11:
 403              		.size	chIQGetTimeout, .-chIQGetTimeout
 404              		.section	.text.chIQReadTimeout,"ax",%progbits
 405              		.align	2
 406              		.p2align 4,,15
 407              		.global	chIQReadTimeout
 408              		.thumb
 409              		.thumb_func
 410              		.type	chIQReadTimeout, %function
 411              	chIQReadTimeout:
 412              	.LFB12:
 413              		.loc 1 227 0
 414              		.cfi_startproc
 415              		@ args = 0, pretend = 0, frame = 0
 416              		@ frame_needed = 0, uses_anonymous_args = 0
 417              	.LVL32:
 418 0000 2DE9F047 		push	{r4, r5, r6, r7, r8, r9, r10, lr}
 419              		.cfi_def_cfa_offset 32
 420              		.cfi_offset 4, -32
 421              		.cfi_offset 5, -28
 422              		.cfi_offset 6, -24
 423              		.cfi_offset 7, -20
 424              		.cfi_offset 8, -16
 425              		.cfi_offset 9, -12
 426              		.cfi_offset 10, -8
 427              		.cfi_offset 14, -4
 428              		.loc 1 227 0
 429 0004 1E46     		mov	r6, r3
 430 0006 0446     		mov	r4, r0
 431              		.loc 1 228 0
 432 0008 D0F81C80 		ldr	r8, [r0, #28]
 433              	.LVL33:
 434              	.LBB27:
 435              		.loc 1 233 0
 436 000c 2023     		movs	r3, #32
 437              	.LVL34:
 438              	@ 233 "../AithonLibrary/ChibiOS/os/kernel/src/chqueues.c" 1
 439 000e 83F31188 		msr     BASEPRI, r3
 440              	@ 0 "" 2
 441              		.thumb
 442              	.LBE27:
 443              		.loc 1 229 0
 444 0012 4FF00009 		mov	r9, #0
 445 0016 01EB020A 		add	r10, r1, r2
 446 001a 4F1C     		adds	r7, r1, #1
 447              	.LVL35:
 448              	.L40:
 449              		.loc 1 235 0
 450 001c B8F1000F 		cmp	r8, #0
 451 0020 05D0     		beq	.L36
 452              		.loc 1 236 0
 453 0022 2046     		mov	r0, r4
 454              	.LVL36:
 455 0024 C047     		blx	r8
 456              	.LVL37:
ARM GAS  /tmp/cc3eOXRS.s 			page 9


 457 0026 02E0     		b	.L36
 458              	.LVL38:
 459              	.L38:
 460              		.loc 1 239 0
 461 0028 FFF7FEFF 		bl	qwait
 462              	.LVL39:
 463 002c F0B9     		cbnz	r0, .L44
 464              	.L36:
 465              		.loc 1 238 0 discriminator 1
 466 002e A568     		ldr	r5, [r4, #8]
 467              		.loc 1 239 0 discriminator 1
 468 0030 2046     		mov	r0, r4
 469 0032 3146     		mov	r1, r6
 470              		.loc 1 238 0 discriminator 1
 471 0034 002D     		cmp	r5, #0
 472 0036 F7D0     		beq	.L38
 473              	.LVL40:
 474              		.loc 1 246 0
 475 0038 A369     		ldr	r3, [r4, #24]
 476              		.loc 1 245 0
 477 003a 013D     		subs	r5, r5, #1
 478              		.loc 1 246 0
 479 003c 5A1C     		adds	r2, r3, #1
 480 003e A261     		str	r2, [r4, #24]
 481              		.loc 1 245 0
 482 0040 A560     		str	r5, [r4, #8]
 483              	.LVL41:
 484              		.loc 1 246 0
 485 0042 1B78     		ldrb	r3, [r3]	@ zero_extendqisi2
 486 0044 07F8013C 		strb	r3, [r7, #-1]
 487              		.loc 1 247 0
 488 0048 2369     		ldr	r3, [r4, #16]
 489 004a A269     		ldr	r2, [r4, #24]
 490 004c 9A42     		cmp	r2, r3
 491              		.loc 1 248 0
 492 004e 24BF     		itt	cs
 493 0050 E368     		ldrcs	r3, [r4, #12]
 494 0052 A361     		strcs	r3, [r4, #24]
 495              	.LBB28:
 496              		.loc 1 250 0
 497 0054 0023     		movs	r3, #0
 498              	@ 250 "../AithonLibrary/ChibiOS/os/kernel/src/chqueues.c" 1
 499 0056 83F31188 		msr     BASEPRI, r3
 500              	@ 0 "" 2
 501              		.thumb
 502              	.LBE28:
 503              		.loc 1 252 0
 504 005a 5745     		cmp	r7, r10
 505              		.loc 1 251 0
 506 005c 09F10109 		add	r9, r9, #1
 507              	.LVL42:
 508              		.loc 1 252 0
 509 0060 07D0     		beq	.L37
 510              	.LBB29:
 511              		.loc 1 255 0
 512 0062 2023     		movs	r3, #32
 513              	@ 255 "../AithonLibrary/ChibiOS/os/kernel/src/chqueues.c" 1
ARM GAS  /tmp/cc3eOXRS.s 			page 10


 514 0064 83F31188 		msr     BASEPRI, r3
 515              	@ 0 "" 2
 516              		.thumb
 517 0068 0137     		adds	r7, r7, #1
 518              	.LBE29:
 519              		.loc 1 256 0
 520 006a D7E7     		b	.L40
 521              	.LVL43:
 522              	.L44:
 523              	.LBB30:
 524              		.loc 1 240 0
 525 006c 2B46     		mov	r3, r5
 526              	@ 240 "../AithonLibrary/ChibiOS/os/kernel/src/chqueues.c" 1
 527 006e 83F31188 		msr     BASEPRI, r3
 528              	@ 0 "" 2
 529              	.LVL44:
 530              		.thumb
 531              	.L37:
 532              	.LBE30:
 533              		.loc 1 257 0
 534 0072 4846     		mov	r0, r9
 535 0074 BDE8F087 		pop	{r4, r5, r6, r7, r8, r9, r10, pc}
 536              		.cfi_endproc
 537              	.LFE12:
 538              		.size	chIQReadTimeout, .-chIQReadTimeout
 539 0078 AFF30080 		.section	.text.chOQInit,"ax",%progbits
 539      AFF30080 
 540              		.align	2
 541              		.p2align 4,,15
 542              		.global	chOQInit
 543              		.thumb
 544              		.thumb_func
 545              		.type	chOQInit, %function
 546              	chOQInit:
 547              	.LFB13:
 548              		.loc 1 276 0
 549              		.cfi_startproc
 550              		@ args = 4, pretend = 0, frame = 0
 551              		@ frame_needed = 0, uses_anonymous_args = 0
 552              		@ link register save eliminated.
 553              	.LVL45:
 554 0000 30B4     		push	{r4, r5}
 555              		.cfi_def_cfa_offset 8
 556              		.cfi_offset 4, -8
 557              		.cfi_offset 5, -4
 558              		.loc 1 276 0
 559 0002 029C     		ldr	r4, [sp, #8]
 560              		.loc 1 283 0
 561 0004 0462     		str	r4, [r0, #32]
 562              		.loc 1 281 0
 563 0006 8D18     		adds	r5, r1, r2
 564 0008 0561     		str	r5, [r0, #16]
 565              		.loc 1 278 0
 566 000a 4060     		str	r0, [r0, #4]
 567 000c 0060     		str	r0, [r0]
 568              		.loc 1 279 0
 569 000e 8260     		str	r2, [r0, #8]
ARM GAS  /tmp/cc3eOXRS.s 			page 11


 570              		.loc 1 280 0
 571 0010 4161     		str	r1, [r0, #20]
 572 0012 8161     		str	r1, [r0, #24]
 573 0014 C160     		str	r1, [r0, #12]
 574              		.loc 1 282 0
 575 0016 C361     		str	r3, [r0, #28]
 576              		.loc 1 284 0
 577 0018 30BC     		pop	{r4, r5}
 578              	.LVL46:
 579 001a 7047     		bx	lr
 580              		.cfi_endproc
 581              	.LFE13:
 582              		.size	chOQInit, .-chOQInit
 583 001c AFF30080 		.section	.text.chOQResetI,"ax",%progbits
 584              		.align	2
 585              		.p2align 4,,15
 586              		.global	chOQResetI
 587              		.thumb
 588              		.thumb_func
 589              		.type	chOQResetI, %function
 590              	chOQResetI:
 591              	.LFB14:
 592              		.loc 1 297 0
 593              		.cfi_startproc
 594              		@ args = 0, pretend = 0, frame = 0
 595              		@ frame_needed = 0, uses_anonymous_args = 0
 596              	.LVL47:
 597 0000 38B5     		push	{r3, r4, r5, lr}
 598              		.cfi_def_cfa_offset 16
 599              		.cfi_offset 3, -16
 600              		.cfi_offset 4, -12
 601              		.cfi_offset 5, -8
 602              		.cfi_offset 14, -4
 603              		.loc 1 302 0
 604 0002 0269     		ldr	r2, [r0, #16]
 605              		.loc 1 301 0
 606 0004 C368     		ldr	r3, [r0, #12]
 607              		.loc 1 297 0
 608 0006 0446     		mov	r4, r0
 609              		.loc 1 303 0
 610 0008 0068     		ldr	r0, [r0]
 611              	.LVL48:
 612              		.loc 1 301 0
 613 000a 6361     		str	r3, [r4, #20]
 614              		.loc 1 302 0
 615 000c D21A     		subs	r2, r2, r3
 616              		.loc 1 303 0
 617 000e A042     		cmp	r0, r4
 618              		.loc 1 301 0
 619 0010 A361     		str	r3, [r4, #24]
 620              		.loc 1 302 0
 621 0012 A260     		str	r2, [r4, #8]
 622              		.loc 1 303 0
 623 0014 0AD0     		beq	.L46
 624              		.loc 1 304 0
 625 0016 6FF00105 		mvn	r5, #1
 626              	.L49:
ARM GAS  /tmp/cc3eOXRS.s 			page 12


 627              	.LVL49:
 628              	.LBB31:
 629              	.LBB32:
 630              		.loc 2 62 0
 631 001a 0368     		ldr	r3, [r0]
 632 001c 2360     		str	r3, [r4]
 633 001e 5C60     		str	r4, [r3, #4]
 634              	.LBE32:
 635              	.LBE31:
 636              		.loc 1 304 0
 637 0020 FFF7FEFF 		bl	chSchReadyI
 638              	.LVL50:
 639 0024 4562     		str	r5, [r0, #36]
 640              		.loc 1 303 0
 641 0026 2068     		ldr	r0, [r4]
 642 0028 A042     		cmp	r0, r4
 643 002a F6D1     		bne	.L49
 644              	.LVL51:
 645              	.L46:
 646 002c 38BD     		pop	{r3, r4, r5, pc}
 647              		.cfi_endproc
 648              	.LFE14:
 649              		.size	chOQResetI, .-chOQResetI
 650 002e 00BF     		.section	.text.chOQPutTimeout,"ax",%progbits
 651              		.align	2
 652              		.p2align 4,,15
 653              		.global	chOQPutTimeout
 654              		.thumb
 655              		.thumb_func
 656              		.type	chOQPutTimeout, %function
 657              	chOQPutTimeout:
 658              	.LFB15:
 659              		.loc 1 329 0
 660              		.cfi_startproc
 661              		@ args = 0, pretend = 0, frame = 0
 662              		@ frame_needed = 0, uses_anonymous_args = 0
 663              	.LVL52:
 664 0000 F8B5     		push	{r3, r4, r5, r6, r7, lr}
 665              		.cfi_def_cfa_offset 24
 666              		.cfi_offset 3, -24
 667              		.cfi_offset 4, -20
 668              		.cfi_offset 5, -16
 669              		.cfi_offset 6, -12
 670              		.cfi_offset 7, -8
 671              		.cfi_offset 14, -4
 672              		.loc 1 329 0
 673 0002 0446     		mov	r4, r0
 674 0004 0F46     		mov	r7, r1
 675 0006 1646     		mov	r6, r2
 676              	.LBB33:
 677              		.loc 1 331 0
 678 0008 2023     		movs	r3, #32
 679              	@ 331 "../AithonLibrary/ChibiOS/os/kernel/src/chqueues.c" 1
 680 000a 83F31188 		msr     BASEPRI, r3
 681              	@ 0 "" 2
 682              		.thumb
 683              	.LBE33:
ARM GAS  /tmp/cc3eOXRS.s 			page 13


 684              		.loc 1 332 0
 685 000e 03E0     		b	.L51
 686              	.LVL53:
 687              	.L54:
 688              	.LBB34:
 689              		.loc 1 335 0
 690 0010 FFF7FEFF 		bl	qwait
 691              	.LVL54:
 692 0014 0028     		cmp	r0, #0
 693 0016 19DB     		blt	.L60
 694              	.LVL55:
 695              	.L51:
 696              	.LBE34:
 697              		.loc 1 332 0 discriminator 1
 698 0018 A568     		ldr	r5, [r4, #8]
 699              	.LBB36:
 700              		.loc 1 335 0 discriminator 1
 701 001a 2046     		mov	r0, r4
 702 001c 3146     		mov	r1, r6
 703              	.LBE36:
 704              		.loc 1 332 0 discriminator 1
 705 001e 002D     		cmp	r5, #0
 706 0020 F6D0     		beq	.L54
 707              	.LVL56:
 708              		.loc 1 342 0
 709 0022 6369     		ldr	r3, [r4, #20]
 710              		.loc 1 341 0
 711 0024 013D     		subs	r5, r5, #1
 712              		.loc 1 342 0
 713 0026 5A1C     		adds	r2, r3, #1
 714 0028 6261     		str	r2, [r4, #20]
 715              		.loc 1 341 0
 716 002a A560     		str	r5, [r4, #8]
 717              		.loc 1 342 0
 718 002c 1F70     		strb	r7, [r3]
 719              		.loc 1 343 0
 720 002e 2369     		ldr	r3, [r4, #16]
 721 0030 6269     		ldr	r2, [r4, #20]
 722 0032 9A42     		cmp	r2, r3
 723              		.loc 1 344 0
 724 0034 24BF     		itt	cs
 725 0036 E368     		ldrcs	r3, [r4, #12]
 726 0038 6361     		strcs	r3, [r4, #20]
 727              		.loc 1 346 0
 728 003a E369     		ldr	r3, [r4, #28]
 729 003c 0BB1     		cbz	r3, .L56
 730              		.loc 1 347 0
 731 003e 2046     		mov	r0, r4
 732              	.LVL57:
 733 0040 9847     		blx	r3
 734              	.LVL58:
 735              	.L56:
 736              	.LBB37:
 737              		.loc 1 349 0
 738 0042 0023     		movs	r3, #0
 739              	@ 349 "../AithonLibrary/ChibiOS/os/kernel/src/chqueues.c" 1
 740 0044 83F31188 		msr     BASEPRI, r3
ARM GAS  /tmp/cc3eOXRS.s 			page 14


 741              	@ 0 "" 2
 742              		.thumb
 743              	.LBE37:
 744              		.loc 1 350 0
 745 0048 0020     		movs	r0, #0
 746              		.loc 1 351 0
 747 004a F8BD     		pop	{r3, r4, r5, r6, r7, pc}
 748              	.LVL59:
 749              	.L60:
 750              	.LBB38:
 751              	.LBB35:
 752              		.loc 1 336 0
 753 004c 2B46     		mov	r3, r5
 754              	@ 336 "../AithonLibrary/ChibiOS/os/kernel/src/chqueues.c" 1
 755 004e 83F31188 		msr     BASEPRI, r3
 756              	@ 0 "" 2
 757              		.thumb
 758              	.LBE35:
 759              		.loc 1 337 0
 760 0052 F8BD     		pop	{r3, r4, r5, r6, r7, pc}
 761              	.LBE38:
 762              		.cfi_endproc
 763              	.LFE15:
 764              		.size	chOQPutTimeout, .-chOQPutTimeout
 765 0054 AFF30080 		.section	.text.chOQGetI,"ax",%progbits
 765      AFF30080 
 765      AFF30080 
 766              		.align	2
 767              		.p2align 4,,15
 768              		.global	chOQGetI
 769              		.thumb
 770              		.thumb_func
 771              		.type	chOQGetI, %function
 772              	chOQGetI:
 773              	.LFB16:
 774              		.loc 1 363 0
 775              		.cfi_startproc
 776              		@ args = 0, pretend = 0, frame = 0
 777              		@ frame_needed = 0, uses_anonymous_args = 0
 778              	.LVL60:
 779              		.loc 1 368 0
 780 0000 4169     		ldr	r1, [r0, #20]
 781 0002 8269     		ldr	r2, [r0, #24]
 782 0004 9142     		cmp	r1, r2
 783              		.loc 1 363 0
 784 0006 10B5     		push	{r4, lr}
 785              		.cfi_def_cfa_offset 8
 786              		.cfi_offset 4, -8
 787              		.cfi_offset 14, -4
 788              		.loc 1 363 0
 789 0008 0346     		mov	r3, r0
 790              		.loc 1 368 0
 791 000a 8168     		ldr	r1, [r0, #8]
 792 000c 16D0     		beq	.L70
 793              	.L64:
 794              		.loc 1 373 0
 795 000e 1869     		ldr	r0, [r3, #16]
ARM GAS  /tmp/cc3eOXRS.s 			page 15


 796              	.LVL61:
 797              		.loc 1 371 0
 798 0010 4C1C     		adds	r4, r1, #1
 799              		.loc 1 372 0
 800 0012 511C     		adds	r1, r2, #1
 801              		.loc 1 371 0
 802 0014 9C60     		str	r4, [r3, #8]
 803              		.loc 1 372 0
 804 0016 9961     		str	r1, [r3, #24]
 805              		.loc 1 373 0
 806 0018 8142     		cmp	r1, r0
 807              		.loc 1 372 0
 808 001a 1478     		ldrb	r4, [r2]	@ zero_extendqisi2
 809              	.LVL62:
 810              		.loc 1 373 0
 811 001c 0BD2     		bcs	.L66
 812              	.LVL63:
 813              	.L67:
 814              		.loc 1 376 0
 815 001e 1868     		ldr	r0, [r3]
 816 0020 9842     		cmp	r0, r3
 817 0022 06D0     		beq	.L65
 818              	.LVL64:
 819              	.LBB39:
 820              	.LBB40:
 821              		.loc 2 62 0
 822 0024 0268     		ldr	r2, [r0]
 823 0026 1A60     		str	r2, [r3]
 824 0028 5360     		str	r3, [r2, #4]
 825              	.LBE40:
 826              	.LBE39:
 827              		.loc 1 377 0
 828 002a FFF7FEFF 		bl	chSchReadyI
 829              	.LVL65:
 830 002e 0023     		movs	r3, #0
 831 0030 4362     		str	r3, [r0, #36]
 832              	.LVL66:
 833              	.L65:
 834              		.loc 1 379 0
 835 0032 2046     		mov	r0, r4
 836 0034 10BD     		pop	{r4, pc}
 837              	.LVL67:
 838              	.L66:
 839              		.loc 1 374 0
 840 0036 DA68     		ldr	r2, [r3, #12]
 841              	.LVL68:
 842 0038 9A61     		str	r2, [r3, #24]
 843              	.LVL69:
 844 003a F0E7     		b	.L67
 845              	.LVL70:
 846              	.L70:
 847              		.loc 1 368 0 discriminator 1
 848 003c 0029     		cmp	r1, #0
 849 003e E6D0     		beq	.L64
 850              		.loc 1 369 0
 851 0040 6FF00200 		mvn	r0, #2
 852              	.LVL71:
ARM GAS  /tmp/cc3eOXRS.s 			page 16


 853 0044 10BD     		pop	{r4, pc}
 854              		.cfi_endproc
 855              	.LFE16:
 856              		.size	chOQGetI, .-chOQGetI
 857 0046 00BFAFF3 		.section	.text.chOQWriteTimeout,"ax",%progbits
 857      0080AFF3 
 857      0080
 858              		.align	2
 859              		.p2align 4,,15
 860              		.global	chOQWriteTimeout
 861              		.thumb
 862              		.thumb_func
 863              		.type	chOQWriteTimeout, %function
 864              	chOQWriteTimeout:
 865              	.LFB17:
 866              		.loc 1 407 0
 867              		.cfi_startproc
 868              		@ args = 0, pretend = 0, frame = 0
 869              		@ frame_needed = 0, uses_anonymous_args = 0
 870              	.LVL72:
 871 0000 2DE9F84F 		push	{r3, r4, r5, r6, r7, r8, r9, r10, fp, lr}
 872              		.cfi_def_cfa_offset 40
 873              		.cfi_offset 3, -40
 874              		.cfi_offset 4, -36
 875              		.cfi_offset 5, -32
 876              		.cfi_offset 6, -28
 877              		.cfi_offset 7, -24
 878              		.cfi_offset 8, -20
 879              		.cfi_offset 9, -16
 880              		.cfi_offset 10, -12
 881              		.cfi_offset 11, -8
 882              		.cfi_offset 14, -4
 883              		.loc 1 407 0
 884 0004 9A46     		mov	r10, r3
 885 0006 0446     		mov	r4, r0
 886 0008 0E46     		mov	r6, r1
 887 000a 1746     		mov	r7, r2
 888              		.loc 1 408 0
 889 000c D0F81C90 		ldr	r9, [r0, #28]
 890              	.LVL73:
 891              	.LBB41:
 892              		.loc 1 413 0
 893 0010 2023     		movs	r3, #32
 894              	.LVL74:
 895              	@ 413 "../AithonLibrary/ChibiOS/os/kernel/src/chqueues.c" 1
 896 0012 83F31188 		msr     BASEPRI, r3
 897              	@ 0 "" 2
 898              		.thumb
 899              	.LBE41:
 900              		.loc 1 409 0
 901 0016 4FF00008 		mov	r8, #0
 902              	.LVL75:
 903              	.L72:
 904              		.loc 1 415 0 discriminator 1
 905 001a A568     		ldr	r5, [r4, #8]
 906              		.loc 1 422 0 discriminator 1
 907 001c 06F1010B 		add	fp, r6, #1
ARM GAS  /tmp/cc3eOXRS.s 			page 17


 908              	.LVL76:
 909              		.loc 1 427 0 discriminator 1
 910 0020 2046     		mov	r0, r4
 911              		.loc 1 421 0 discriminator 1
 912 0022 6B1E     		subs	r3, r5, #1
 913              		.loc 1 415 0 discriminator 1
 914 0024 DDB1     		cbz	r5, .L75
 915              	.LVL77:
 916              		.loc 1 422 0
 917 0026 6269     		ldr	r2, [r4, #20]
 918              		.loc 1 421 0
 919 0028 A360     		str	r3, [r4, #8]
 920              		.loc 1 422 0
 921 002a 531C     		adds	r3, r2, #1
 922 002c 6361     		str	r3, [r4, #20]
 923 002e 3378     		ldrb	r3, [r6]	@ zero_extendqisi2
 924 0030 1370     		strb	r3, [r2]
 925              		.loc 1 423 0
 926 0032 2369     		ldr	r3, [r4, #16]
 927 0034 6269     		ldr	r2, [r4, #20]
 928 0036 9A42     		cmp	r2, r3
 929              		.loc 1 424 0
 930 0038 24BF     		itt	cs
 931 003a E368     		ldrcs	r3, [r4, #12]
 932 003c 6361     		strcs	r3, [r4, #20]
 933              		.loc 1 426 0
 934 003e B9F1000F 		cmp	r9, #0
 935 0042 00D0     		beq	.L77
 936              		.loc 1 427 0
 937 0044 C847     		blx	r9
 938              	.LVL78:
 939              	.L77:
 940              	.LBB42:
 941              		.loc 1 429 0
 942 0046 0023     		movs	r3, #0
 943              	@ 429 "../AithonLibrary/ChibiOS/os/kernel/src/chqueues.c" 1
 944 0048 83F31188 		msr     BASEPRI, r3
 945              	@ 0 "" 2
 946              		.thumb
 947              	.LBE42:
 948              		.loc 1 431 0
 949 004c 013F     		subs	r7, r7, #1
 950              	.LVL79:
 951              		.loc 1 430 0
 952 004e 08F10108 		add	r8, r8, #1
 953              	.LVL80:
 954              		.loc 1 431 0
 955 0052 0DD0     		beq	.L74
 956              	.LBB43:
 957              		.loc 1 433 0
 958 0054 2023     		movs	r3, #32
 959              	@ 433 "../AithonLibrary/ChibiOS/os/kernel/src/chqueues.c" 1
 960 0056 83F31188 		msr     BASEPRI, r3
 961              	@ 0 "" 2
 962              		.thumb
 963              	.LBE43:
 964              		.loc 1 422 0
ARM GAS  /tmp/cc3eOXRS.s 			page 18


 965 005a 5E46     		mov	r6, fp
 966              		.loc 1 434 0
 967 005c DDE7     		b	.L72
 968              	.LVL81:
 969              	.L75:
 970              		.loc 1 416 0
 971 005e 2046     		mov	r0, r4
 972              	.LVL82:
 973 0060 5146     		mov	r1, r10
 974 0062 FFF7FEFF 		bl	qwait
 975              	.LVL83:
 976 0066 0028     		cmp	r0, #0
 977 0068 D7D0     		beq	.L72
 978              	.LBB44:
 979              		.loc 1 417 0
 980 006a 2B46     		mov	r3, r5
 981              	@ 417 "../AithonLibrary/ChibiOS/os/kernel/src/chqueues.c" 1
 982 006c 83F31188 		msr     BASEPRI, r3
 983              	@ 0 "" 2
 984              	.LVL84:
 985              		.thumb
 986              	.L74:
 987              	.LBE44:
 988              		.loc 1 435 0
 989 0070 4046     		mov	r0, r8
 990 0072 BDE8F88F 		pop	{r3, r4, r5, r6, r7, r8, r9, r10, fp, pc}
 991              		.cfi_endproc
 992              	.LFE17:
 993              		.size	chOQWriteTimeout, .-chOQWriteTimeout
 994 0076 00BFAFF3 		.text
 994      0080AFF3 
 994      0080
 995              	.Letext0:
 996              		.file 3 "/usr/lib/gcc/arm-none-eabi/4.8.3/include/stddef.h"
 997              		.file 4 "/usr/arm-none-eabi/include/stdint.h"
 998              		.file 5 "../AithonLibrary/ChibiOS/os/ports/GCC/ARMCMx/chtypes.h"
 999              		.file 6 "../AithonLibrary/ChibiOS/os/kernel/include/chlists.h"
 1000              		.file 7 "../AithonLibrary/ChibiOS/os/kernel/include/chthreads.h"
 1001              		.file 8 "../AithonLibrary/ChibiOS/os/ports/GCC/ARMCMx/chcore_v7m.h"
 1002              		.file 9 "../AithonLibrary/ChibiOS/os/kernel/include/chschd.h"
 1003              		.file 10 "../AithonLibrary/ChibiOS/os/kernel/include/chmtx.h"
 1004              		.file 11 "../AithonLibrary/ChibiOS/os/kernel/include/chqueues.h"