ARM GAS  /tmp/cco1ZENx.s 			page 1


   1              		.syntax unified
   2              		.cpu cortex-m4
   3              		.eabi_attribute 27, 3
   4              		.fpu fpv4-sp-d16
   5              		.eabi_attribute 20, 1
   6              		.eabi_attribute 21, 1
   7              		.eabi_attribute 23, 3
   8              		.eabi_attribute 24, 1
   9              		.eabi_attribute 25, 1
  10              		.eabi_attribute 26, 1
  11              		.eabi_attribute 30, 2
  12              		.eabi_attribute 34, 1
  13              		.eabi_attribute 18, 4
  14              		.thumb
  15              		.file	"chsys.c"
  16              		.text
  17              	.Ltext0:
  18              		.cfi_sections	.debug_frame
  19              		.section	.text._idle_thread,"ax",%progbits
  20              		.align	2
  21              		.p2align 4,,15
  22              		.global	_idle_thread
  23              		.thumb
  24              		.thumb_func
  25              		.type	_idle_thread, %function
  26              	_idle_thread:
  27              	.LFB7:
  28              		.file 1 "../AithonLibrary/ChibiOS/os/kernel/src/chsys.c"
  29              		.loc 1 61 0
  30              		.cfi_startproc
  31              		@ Volatile: function does not return.
  32              		@ args = 0, pretend = 0, frame = 0
  33              		@ frame_needed = 0, uses_anonymous_args = 0
  34              		@ link register save eliminated.
  35              	.LVL0:
  36              		.loc 1 64 0
  37 0000 024B     		ldr	r3, .L4
  38 0002 034A     		ldr	r2, .L4+4
  39 0004 9B69     		ldr	r3, [r3, #24]
  40 0006 9A61     		str	r2, [r3, #24]
  41              	.L2:
  42 0008 FEE7     		b	.L2
  43              	.L5:
  44 000a 00BF     		.align	2
  45              	.L4:
  46 000c 00000000 		.word	rlist
  47 0010 00000000 		.word	.LC0
  48              		.cfi_endproc
  49              	.LFE7:
  50              		.size	_idle_thread, .-_idle_thread
  51 0014 AFF30080 		.section	.text.chSysInit,"ax",%progbits
  51      AFF30080 
  51      AFF30080 
  52              		.align	2
  53              		.p2align 4,,15
  54              		.global	chSysInit
  55              		.thumb
ARM GAS  /tmp/cco1ZENx.s 			page 2


  56              		.thumb_func
  57              		.type	chSysInit, %function
  58              	chSysInit:
  59              	.LFB8:
  60              		.loc 1 84 0
  61              		.cfi_startproc
  62              		@ args = 0, pretend = 0, frame = 0
  63              		@ frame_needed = 0, uses_anonymous_args = 0
  64 0000 00B5     		push	{lr}
  65              		.cfi_def_cfa_offset 4
  66              		.cfi_offset 14, -4
  67 0002 83B0     		sub	sp, sp, #12
  68              		.cfi_def_cfa_offset 16
  69              		.loc 1 90 0
  70 0004 FFF7FEFF 		bl	_port_init
  71              	.LVL1:
  72              		.loc 1 91 0
  73 0008 FFF7FEFF 		bl	_scheduler_init
  74              	.LVL2:
  75              		.loc 1 92 0
  76 000c FFF7FEFF 		bl	_vt_init
  77              	.LVL3:
  78              		.loc 1 94 0
  79 0010 FFF7FEFF 		bl	_core_init
  80              	.LVL4:
  81              		.loc 1 97 0
  82 0014 FFF7FEFF 		bl	_heap_init
  83              	.LVL5:
  84              		.loc 1 104 0
  85 0018 4021     		movs	r1, #64
  86 001a 0D48     		ldr	r0, .L7
  87 001c FFF7FEFF 		bl	_thread_init
  88              	.LVL6:
  89 0020 0C4A     		ldr	r2, .L7+4
  90              		.loc 1 105 0
  91 0022 0123     		movs	r3, #1
  92 0024 0377     		strb	r3, [r0, #28]
  93              		.loc 1 104 0
  94 0026 9061     		str	r0, [r2, #24]
  95              	.LBB2:
  96              		.loc 1 111 0
  97 0028 0023     		movs	r3, #0
  98              	@ 111 "../AithonLibrary/ChibiOS/os/kernel/src/chsys.c" 1
  99 002a 83F31188 		msr     BASEPRI, r3                    
 100 002e 62B6     		cpsie   i
 101              	@ 0 "" 2
 102              		.thumb
 103              	.LBE2:
 104              		.loc 1 115 0
 105 0030 1346     		mov	r3, r2
 106 0032 094A     		ldr	r2, .L7+8
 107 0034 9B69     		ldr	r3, [r3, #24]
 108              		.loc 1 121 0
 109 0036 0948     		ldr	r0, .L7+12
 110              		.loc 1 115 0
 111 0038 9A61     		str	r2, [r3, #24]
 112              		.loc 1 121 0
ARM GAS  /tmp/cco1ZENx.s 			page 3


 113 003a 0023     		movs	r3, #0
 114 003c 0093     		str	r3, [sp]
 115 003e 4FF4A471 		mov	r1, #328
 116 0042 0122     		movs	r2, #1
 117 0044 064B     		ldr	r3, .L7+16
 118 0046 FFF7FEFF 		bl	chThdCreateStatic
 119              	.LVL7:
 120              		.loc 1 124 0
 121 004a 03B0     		add	sp, sp, #12
 122              		@ sp needed
 123 004c 5DF804FB 		ldr	pc, [sp], #4
 124              	.L8:
 125              		.align	2
 126              	.L7:
 127 0050 00000000 		.word	.LANCHOR0
 128 0054 00000000 		.word	rlist
 129 0058 00000000 		.word	ch_debug
 130 005c 00000000 		.word	.LANCHOR1
 131 0060 00000000 		.word	_idle_thread
 132              		.cfi_endproc
 133              	.LFE8:
 134              		.size	chSysInit, .-chSysInit
 135 0064 AFF30080 		.section	.text.chSysTimerHandlerI,"ax",%progbits
 135      AFF30080 
 135      AFF30080 
 136              		.align	2
 137              		.p2align 4,,15
 138              		.global	chSysTimerHandlerI
 139              		.thumb
 140              		.thumb_func
 141              		.type	chSysTimerHandlerI, %function
 142              	chSysTimerHandlerI:
 143              	.LFB9:
 144              		.loc 1 137 0
 145              		.cfi_startproc
 146              		@ args = 0, pretend = 0, frame = 0
 147              		@ frame_needed = 0, uses_anonymous_args = 0
 148 0000 70B5     		push	{r4, r5, r6, lr}
 149              		.cfi_def_cfa_offset 16
 150              		.cfi_offset 4, -16
 151              		.cfi_offset 5, -12
 152              		.cfi_offset 6, -8
 153              		.cfi_offset 14, -4
 154              		.loc 1 143 0
 155 0002 144B     		ldr	r3, .L17
 156 0004 9B69     		ldr	r3, [r3, #24]
 157 0006 DA7F     		ldrb	r2, [r3, #31]	@ zero_extendqisi2
 158 0008 0AB1     		cbz	r2, .L10
 159              		.loc 1 145 0
 160 000a 013A     		subs	r2, r2, #1
 161 000c DA77     		strb	r2, [r3, #31]
 162              	.L10:
 163              		.loc 1 148 0
 164 000e 1A6A     		ldr	r2, [r3, #32]
 165              		.loc 1 150 0
 166 0010 1149     		ldr	r1, .L17+4
 167              		.loc 1 148 0
ARM GAS  /tmp/cco1ZENx.s 			page 4


 168 0012 0132     		adds	r2, r2, #1
 169 0014 1A62     		str	r2, [r3, #32]
 170              		.loc 1 150 0
 171 0016 CB68     		ldr	r3, [r1, #12]
 172 0018 0A68     		ldr	r2, [r1]
 173 001a 0133     		adds	r3, r3, #1
 174 001c 8A42     		cmp	r2, r1
 175 001e CB60     		str	r3, [r1, #12]
 176 0020 16D0     		beq	.L9
 177              	.LBB3:
 178              		.loc 1 150 0 is_stmt 0 discriminator 1
 179 0022 9668     		ldr	r6, [r2, #8]
 180 0024 013E     		subs	r6, r6, #1
 181 0026 9660     		str	r6, [r2, #8]
 182              	.LVL8:
 183 0028 96B9     		cbnz	r6, .L9
 184              		.loc 1 150 0
 185 002a 0D46     		mov	r5, r1
 186              	.L13:
 187              	.LBB4:
 188              		.loc 1 150 0 discriminator 2
 189 002c 1068     		ldr	r0, [r2]
 190 002e D468     		ldr	r4, [r2, #12]
 191              	.LVL9:
 192 0030 0860     		str	r0, [r1]
 193 0032 D660     		str	r6, [r2, #12]
 194              	.LBB5:
 195 0034 0023     		movs	r3, #0
 196              	.LBE5:
 197 0036 4160     		str	r1, [r0, #4]
 198              	.LBB6:
 199              	@ 150 "../AithonLibrary/ChibiOS/os/kernel/src/chsys.c" 1
 200 0038 83F31188 		msr     BASEPRI, r3
 201              	@ 0 "" 2
 202              		.thumb
 203              	.LBE6:
 204 003c 1069     		ldr	r0, [r2, #16]
 205 003e A047     		blx	r4
 206              	.LVL10:
 207              	.LBB7:
 208 0040 2023     		movs	r3, #32
 209              	@ 150 "../AithonLibrary/ChibiOS/os/kernel/src/chsys.c" 1
 210 0042 83F31188 		msr     BASEPRI, r3
 211              	@ 0 "" 2
 212              		.thumb
 213              	.LBE7:
 214              	.LBE4:
 215 0046 2A68     		ldr	r2, [r5]
 216              	.LVL11:
 217 0048 0349     		ldr	r1, .L17+4
 218 004a 9368     		ldr	r3, [r2, #8]
 219 004c 002B     		cmp	r3, #0
 220 004e EDD0     		beq	.L13
 221              	.LVL12:
 222              	.L9:
 223 0050 70BD     		pop	{r4, r5, r6, pc}
 224              	.L18:
ARM GAS  /tmp/cco1ZENx.s 			page 5


 225 0052 00BF     		.align	2
 226              	.L17:
 227 0054 00000000 		.word	rlist
 228 0058 00000000 		.word	vtlist
 229              	.LBE3:
 230              		.cfi_endproc
 231              	.LFE9:
 232              		.size	chSysTimerHandlerI, .-chSysTimerHandlerI
 233              		.global	_idle_thread_wa
 234 005c AFF30080 		.section	.bss.mainthread.4810,"aw",%nobits
 235              		.align	2
 236              		.set	.LANCHOR0,. + 0
 237              		.type	mainthread.4810, %object
 238              		.size	mainthread.4810, 72
 239              	mainthread.4810:
 240 0000 00000000 		.space	72
 240      00000000 
 240      00000000 
 240      00000000 
 240      00000000 
 241              		.section	.rodata.str1.4,"aMS",%progbits,1
 242              		.align	2
 243              	.LC0:
 244 0000 69646C65 		.ascii	"idle\000"
 244      00
 245 0005 000000   		.section	.bss._idle_thread_wa,"aw",%nobits
 246              		.align	3
 247              		.set	.LANCHOR1,. + 0
 248              		.type	_idle_thread_wa, %object
 249              		.size	_idle_thread_wa, 328
 250              	_idle_thread_wa:
 251 0000 00000000 		.space	328
 251      00000000 
 251      00000000 
 251      00000000 
 251      00000000 
 252              		.text
 253              	.Letext0:
 254              		.file 2 "/usr/lib/gcc/arm-none-eabi/4.8.3/include/stddef.h"
 255              		.file 3 "/usr/arm-none-eabi/include/stdint.h"
 256              		.file 4 "../AithonLibrary/ChibiOS/os/ports/GCC/ARMCMx/chtypes.h"
 257              		.file 5 "../AithonLibrary/ChibiOS/os/kernel/include/chlists.h"
 258              		.file 6 "../AithonLibrary/ChibiOS/os/kernel/include/chthreads.h"
 259              		.file 7 "../AithonLibrary/ChibiOS/os/ports/GCC/ARMCMx/chcore_v7m.h"
 260              		.file 8 "../AithonLibrary/ChibiOS/os/kernel/include/chvt.h"
 261              		.file 9 "../AithonLibrary/ChibiOS/os/kernel/include/chschd.h"
 262              		.file 10 "../AithonLibrary/ChibiOS/os/kernel/include/chmtx.h"
 263              		.file 11 "../AithonLibrary/ChibiOS/os/kernel/include/chregistry.h"
 264              		.file 12 "../AithonLibrary/ChibiOS/os/kernel/include/chmemcore.h"
 265              		.file 13 "../AithonLibrary/ChibiOS/os/kernel/include/chheap.h"