ARM GAS  /tmp/cchSs7UB.s 			page 1


   1              		.syntax unified
   2              		.cpu cortex-m4
   3              		.eabi_attribute 27, 3
   4              		.fpu fpv4-sp-d16
   5              		.eabi_attribute 20, 1
   6              		.eabi_attribute 21, 1
   7              		.eabi_attribute 23, 3
   8              		.eabi_attribute 24, 1
   9              		.eabi_attribute 25, 1
  10              		.eabi_attribute 26, 1
  11              		.eabi_attribute 30, 2
  12              		.eabi_attribute 34, 1
  13              		.eabi_attribute 18, 4
  14              		.thumb
  15              		.file	"digital.c"
  16              		.text
  17              	.Ltext0:
  18              		.cfi_sections	.debug_frame
  19              		.section	.text.digital_mode,"ax",%progbits
  20              		.align	2
  21              		.p2align 4,,15
  22              		.global	digital_mode
  23              		.thumb
  24              		.thumb_func
  25              		.type	digital_mode, %function
  26              	digital_mode:
  27              	.LFB119:
  28              		.file 1 "../AithonLibrary/digital.c"
  29              		.loc 1 62 0
  30              		.cfi_startproc
  31              		@ args = 0, pretend = 0, frame = 0
  32              		@ frame_needed = 0, uses_anonymous_args = 0
  33              		@ link register save eliminated.
  34              	.LVL0:
  35              		.loc 1 63 0
  36 0000 054B     		ldr	r3, .L2
  37 0002 064A     		ldr	r2, .L2+4
  38 0004 53F82030 		ldr	r3, [r3, r0, lsl #2]
  39 0008 52F82000 		ldr	r0, [r2, r0, lsl #2]
  40              	.LVL1:
  41              		.loc 1 62 0
  42 000c 0A46     		mov	r2, r1
  43              		.loc 1 63 0
  44 000e 0121     		movs	r1, #1
  45              	.LVL2:
  46 0010 9940     		lsls	r1, r1, r3
  47 0012 FFF7FEBF 		b	_pal_lld_setgroupmode
  48              	.LVL3:
  49              	.L3:
  50 0016 00BF     		.align	2
  51              	.L2:
  52 0018 00000000 		.word	.LANCHOR1
  53 001c 00000000 		.word	.LANCHOR0
  54              		.cfi_endproc
  55              	.LFE119:
  56              		.size	digital_mode, .-digital_mode
  57              		.section	.text.digital_get,"ax",%progbits
ARM GAS  /tmp/cchSs7UB.s 			page 2


  58              		.align	2
  59              		.p2align 4,,15
  60              		.global	digital_get
  61              		.thumb
  62              		.thumb_func
  63              		.type	digital_get, %function
  64              	digital_get:
  65              	.LFB120:
  66              		.loc 1 77 0
  67              		.cfi_startproc
  68              		@ args = 0, pretend = 0, frame = 0
  69              		@ frame_needed = 0, uses_anonymous_args = 0
  70              		@ link register save eliminated.
  71              	.LVL4:
  72              		.loc 1 78 0
  73 0000 054A     		ldr	r2, .L5
  74 0002 064B     		ldr	r3, .L5+4
  75 0004 52F82020 		ldr	r2, [r2, r0, lsl #2]
  76 0008 53F82030 		ldr	r3, [r3, r0, lsl #2]
  77 000c 1069     		ldr	r0, [r2, #16]
  78              	.LVL5:
  79 000e D840     		lsrs	r0, r0, r3
  80              		.loc 1 79 0
  81 0010 00F00100 		and	r0, r0, #1
  82 0014 7047     		bx	lr
  83              	.L6:
  84 0016 00BF     		.align	2
  85              	.L5:
  86 0018 00000000 		.word	.LANCHOR0
  87 001c 00000000 		.word	.LANCHOR1
  88              		.cfi_endproc
  89              	.LFE120:
  90              		.size	digital_get, .-digital_get
  91              		.section	.text.digital_set,"ax",%progbits
  92              		.align	2
  93              		.p2align 4,,15
  94              		.global	digital_set
  95              		.thumb
  96              		.thumb_func
  97              		.type	digital_set, %function
  98              	digital_set:
  99              	.LFB121:
 100              		.loc 1 91 0
 101              		.cfi_startproc
 102              		@ args = 0, pretend = 0, frame = 0
 103              		@ frame_needed = 0, uses_anonymous_args = 0
 104              		@ link register save eliminated.
 105              	.LVL6:
 106              		.loc 1 92 0
 107 0000 0A4B     		ldr	r3, .L8
 108 0002 0B4A     		ldr	r2, .L8+4
 109 0004 53F82030 		ldr	r3, [r3, r0, lsl #2]
 110 0008 52F82020 		ldr	r2, [r2, r0, lsl #2]
 111 000c 01F00101 		and	r1, r1, #1
 112              	.LVL7:
 113              		.loc 1 91 0
 114 0010 10B4     		push	{r4}
ARM GAS  /tmp/cchSs7UB.s 			page 3


 115              		.cfi_def_cfa_offset 4
 116              		.cfi_offset 4, -4
 117              		.loc 1 92 0
 118 0012 03F11000 		add	r0, r3, #16
 119              	.LVL8:
 120 0016 81F00104 		eor	r4, r1, #1
 121 001a 9940     		lsls	r1, r1, r3
 122 001c 04FA00F3 		lsl	r3, r4, r0
 123 0020 0B43     		orrs	r3, r3, r1
 124 0022 9361     		str	r3, [r2, #24]
 125              		.loc 1 93 0
 126 0024 5DF8044B 		ldr	r4, [sp], #4
 127 0028 7047     		bx	lr
 128              	.L9:
 129 002a 00BF     		.align	2
 130              	.L8:
 131 002c 00000000 		.word	.LANCHOR1
 132 0030 00000000 		.word	.LANCHOR0
 133              		.cfi_endproc
 134              	.LFE121:
 135              		.size	digital_set, .-digital_set
 136 0034 AFF30080 		.section	.text.digital_toggle,"ax",%progbits
 136      AFF30080 
 136      AFF30080 
 137              		.align	2
 138              		.p2align 4,,15
 139              		.global	digital_toggle
 140              		.thumb
 141              		.thumb_func
 142              		.type	digital_toggle, %function
 143              	digital_toggle:
 144              	.LFB122:
 145              		.loc 1 104 0
 146              		.cfi_startproc
 147              		@ args = 0, pretend = 0, frame = 0
 148              		@ frame_needed = 0, uses_anonymous_args = 0
 149              		@ link register save eliminated.
 150              	.LVL9:
 151              		.loc 1 105 0
 152 0000 064B     		ldr	r3, .L11
 153 0002 074A     		ldr	r2, .L11+4
 154 0004 53F82030 		ldr	r3, [r3, r0, lsl #2]
 155 0008 52F82020 		ldr	r2, [r2, r0, lsl #2]
 156 000c 5969     		ldr	r1, [r3, #20]
 157 000e 0120     		movs	r0, #1
 158              	.LVL10:
 159 0010 00FA02F2 		lsl	r2, r0, r2
 160 0014 4A40     		eors	r2, r2, r1
 161 0016 5A61     		str	r2, [r3, #20]
 162 0018 7047     		bx	lr
 163              	.L12:
 164 001a 00BF     		.align	2
 165              	.L11:
 166 001c 00000000 		.word	.LANCHOR0
 167 0020 00000000 		.word	.LANCHOR1
 168              		.cfi_endproc
 169              	.LFE122:
ARM GAS  /tmp/cchSs7UB.s 			page 4


 170              		.size	digital_toggle, .-digital_toggle
 171              		.global	_pads
 172              		.global	_ports
 173 0024 AFF30080 		.section	.data._pads,"aw",%progbits
 173      AFF30080 
 173      AFF30080 
 174              		.align	2
 175              		.set	.LANCHOR1,. + 0
 176              		.type	_pads, %object
 177              		.size	_pads, 68
 178              	_pads:
 179 0000 0F000000 		.word	15
 180 0004 0E000000 		.word	14
 181 0008 0D000000 		.word	13
 182 000c 06000000 		.word	6
 183 0010 05000000 		.word	5
 184 0014 04000000 		.word	4
 185 0018 03000000 		.word	3
 186 001c 02000000 		.word	2
 187 0020 01000000 		.word	1
 188 0024 00000000 		.word	0
 189 0028 05000000 		.word	5
 190 002c 04000000 		.word	4
 191 0030 03000000 		.word	3
 192 0034 07000000 		.word	7
 193 0038 03000000 		.word	3
 194 003c 0D000000 		.word	13
 195 0040 0E000000 		.word	14
 196              		.section	.data._ports,"aw",%progbits
 197              		.align	2
 198              		.set	.LANCHOR0,. + 0
 199              		.type	_ports, %object
 200              		.size	_ports, 68
 201              	_ports:
 202 0000 00080240 		.word	1073874944
 203 0004 00080240 		.word	1073874944
 204 0008 00080240 		.word	1073874944
 205 000c 00100240 		.word	1073876992
 206 0010 00100240 		.word	1073876992
 207 0014 00100240 		.word	1073876992
 208 0018 00100240 		.word	1073876992
 209 001c 00100240 		.word	1073876992
 210 0020 00100240 		.word	1073876992
 211 0024 00100240 		.word	1073876992
 212 0028 00040240 		.word	1073873920
 213 002c 00040240 		.word	1073873920
 214 0030 00040240 		.word	1073873920
 215 0034 000C0240 		.word	1073875968
 216 0038 000C0240 		.word	1073875968
 217 003c 00100240 		.word	1073876992
 218 0040 00100240 		.word	1073876992
 219              		.text
 220              	.Letext0:
 221              		.file 2 "/usr/arm-none-eabi/include/stdint.h"
 222              		.file 3 "../AithonLibrary/ChibiOS/os/hal/platforms/STM32/GPIOv2/pal_lld.h"
 223              		.file 4 "../AithonLibrary/Aithon.h"
 224              		.file 5 "../AithonLibrary/ChibiOS/os/ports/common/ARMCMx/CMSIS/include/core_cm4.h"
ARM GAS  /tmp/cchSs7UB.s 			page 5

