ARM GAS  /tmp/cchSs7UB.s 			page 1


   1              		.syntax unified
   2              		.cpu cortex-m4
   3              		.eabi_attribute 27, 3
   4              		.fpu fpv4-sp-d16
   5              		.eabi_attribute 20, 1
   6              		.eabi_attribute 21, 1
   7              		.eabi_attribute 23, 3
   8              		.eabi_attribute 24, 1
   9              		.eabi_attribute 25, 1
  10              		.eabi_attribute 26, 1
  11              		.eabi_attribute 30, 2
  12              		.eabi_attribute 34, 1
  13              		.eabi_attribute 18, 4
  14              		.thumb
  15              		.file	"digital.c"
  16              		.text
  17              	.Ltext0:
  18              		.cfi_sections	.debug_frame
  19              		.section	.text.digital_mode,"ax",%progbits
  20              		.align	2
  21              		.p2align 4,,15
  22              		.global	digital_mode
  23              		.thumb
  24              		.thumb_func
  25              		.type	digital_mode, %function
  26              	digital_mode:
  27              	.LFB119:
  28              		.file 1 "../AithonLibrary/digital.c"
  29              		.loc 1 62 0
  30              		.cfi_startproc
  31              		@ args = 0, pretend = 0, frame = 0
  32              		@ frame_needed = 0, uses_anonymous_args = 0
  33              		@ link register save eliminated.
  34              	.LVL0:
  35              		.loc 1 63 0
  36 0000 054B     		ldr	r3, .L2
  37 0002 064A     		ldr	r2, .L2+4
  38 0004 53F82030 		ldr	r3, [r3, r0, lsl #2]
  39 0008 52F82000 		ldr	r0, [r2, r0, lsl #2]
  40              	.LVL1:
  41              		.loc 1 62 0
  42 000c 0A46     		mov	r2, r1
  43              		.loc 1 63 0
  44 000e 0121     		movs	r1, #1
  45              	.LVL2:
  46 0010 9940     		lsls	r1, r1, r3
  47 0012 FFF7FEBF 		b	_pal_lld_setgroupmode
  48              	.LVL3:
  49              	.L3:
  50 0016 00BF     		.align	2
  51              	.L2:
  52 0018 00000000 		.word	.LANCHOR1
  53 001c 00000000 		.word	.LANCHOR0
  54              		.cfi_endproc
  55              	.LFE119:
  56              		.size	digital_mode, .-digital_mode
  57              		.section	.text.digital_get,"ax",%progbits
ARM GAS  /tmp/cchSs7UB.s 			page 2


  58              		.align	2
  59              		.p2align 4,,15
  60              		.global	digital_get
  61              		.thumb
  62              		.thumb_func
  63              		.type	digital_get, %function
  64              	digital_get:
  65              	.LFB120:
  66              		.loc 1 77 0
  67              		.cfi_startproc
  68              		@ args = 0, pretend = 0, frame = 0
  69              		@ frame_needed = 0, uses_anonymous_args = 0
  70              		@ link register save eliminated.
  71              	.LVL4:
  72              		.loc 1 78 0
  73 0000 054A     		ldr	r2, .L5
  74 0002 064B     		ldr	r3, .L5+4
  75 0004 52F82020 		ldr	r2, [r2, r0, lsl #2]
  76 0008 53F82030 		ldr	r3, [r3, r0, lsl #2]
  77 000c 1069     		ldr	r0, [r2, #16]
  78              	.LVL5:
  79 000e D840     		lsrs	r0, r0, r3
  80              		.loc 1 79 0
  81 0010 00F00100 		and	r0, r0, #1
  82 0014 7047     		bx	lr
  83              	.L6:
  84 0016 00BF     		.align	2
  85              	.L5:
  86 0018 00000000 		.word	.LANCHOR0
  87 001c 00000000 		.word	.LANCHOR1
  88              		.cfi_endproc
  89              	.LFE120:
  90              		.size	digital_get, .-digital_get
  91              		.section	.text.digital_set,"ax",%progbits
  92              		.align	2
  93              		.p2align 4,,15
  94              		.global	digital_set
  95              		.thumb
  96              		.thumb_func
  97              		.type	digital_set, %function
  98              	digital_set:
  99              	.LFB121:
 100              		.loc 1 91 0
 101              		.cfi_startproc
 102              		@ args = 0, pretend = 0, frame = 0
 103              		@ frame_needed = 0, uses_anonymous_args = 0
 104              		@ link register save eliminated.
 105              	.LVL6:
 106              		.loc 1 92 0
 107 0000 0A4B     		ldr	r3, .L8
 108 0002 0B4A     		ldr	r2, .L8+4
 109 0004 53F82030 		ldr	r3, [r3, r0, lsl #2]
 110 0008 52F82020 		ldr	r2, [r2, r0, lsl #2]
 111 000c 01F00101 		and	r1, r1, #1
 112              	.LVL7:
 113              		.loc 1 91 0
 114 0010 10B4     		push	{r4}
ARM GAS  /tmp/cchSs7UB.s 			page 3


 115              		.cfi_def_cfa_offset 4
 116              		.cfi_offset 4, -4
 117              		.loc 1 92 0
 118 0012 03F11000 		add	r0, r3, #16
 119              	.LVL8:
 120 0016 81F00104 		eor	r4, r1, #1
 121 001a 9940     		lsls	r1, r1, r3
 122 001c 04FA00F3 		lsl	r3, r4, r0
 123 0020 0B43     		orrs	r3, r3, r1
 124 0022 9361     		str	r3, [r2, #24]
 125              		.loc 1 93 0
 126 0024 5DF8044B 		ldr	r4, [sp], #4
 127 0028 7047     		bx	lr
 128              	.L9:
 129 002a 00BF     		.align	2
 130              	.L8:
 131 002c 00000000 		.word	.LANCHOR1
 132 0030 00000000 		.word	.LANCHOR0
 133              		.cfi_endproc
 134              	.LFE121:
 135              		.size	digital_set, .-digital_set
 136 0034 AFF30080 		.section	.text.digital_toggle,"ax",%progbits
 136      AFF30080 
 136      AFF30080 
 137              		.align	2
 138              		.p2align 4,,15
 139              		.global	digital_toggle
 140              		.thumb
 141              		.thumb_func
 142              		.type	digital_toggle, %function
 143              	digital_toggle:
 144              	.LFB122:
 145              		.loc 1 104 0
 146              		.cfi_startproc
 147              		@ args = 0, pretend = 0, frame = 0
 148              		@ frame_needed = 0, uses_anonymous_args = 0
 149              		@ link register save eliminated.
 150              	.LVL9:
 151              		.loc 1 105 0
 152 0000 064B     		ldr	r3, .L11
 153 0002 074A     		ldr	r2, .L11+4
 154 0004 53F82030 		ldr	r3, [r3, r0, lsl #2]
 155 0008 52F82020 		ldr	r2, [r2, r0, lsl #2]
 156 000c 5969     		ldr	r1, [r3, #20]
 157 000e 0120     		movs	r0, #1
 158              	.LVL10:
 159 0010 00FA02F2 		lsl	r2, r0, r2
 160 0014 4A40     		eors	r2, r2, r1
 161 0016 5A61     		str	r2, [r3, #20]
 162 0018 7047     		bx	lr
 163              	.L12:
 164 001a 00BF     		.align	2
 165              	.L11:
 166 001c 00000000 		.word	.LANCHOR0
 167 0020 00000000 		.word	.LANCHOR1
 168              		.cfi_endproc
 169              	.LFE122:
ARM GAS  /tmp/cchSs7UB.s 			page 4


 170              		.size	digital_toggle, .-digital_toggle
 171              		.global	_pads
 172              		.global	_ports
 173 0024 AFF30080 		.section	.data._pads,"aw",%progbits
 173      AFF30080 
 173      AFF30080 
 174              		.align	2
 175              		.set	.LANCHOR1,. + 0
 176              		.type	_pads, %object
 177              		.size	_pads, 68
 178              	_pads:
 179 0000 0F000000 		.word	15
 180 0004 0E000000 		.word	14
 181 0008 0D000000 		.word	13
 182 000c 06000000 		.word	6
 183 0010 05000000 		.word	5
 184 0014 04000000 		.word	4
 185 0018 03000000 		.word	3
 186 001c 02000000 		.word	2
 187 0020 01000000 		.word	1
 188 0024 00000000 		.word	0
 189 0028 05000000 		.word	5
 190 002c 04000000 		.word	4
 191 0030 03000000 		.word	3
 192 0034 07000000 		.word	7
 193 0038 03000000 		.word	3
 194 003c 0D000000 		.word	13
 195 0040 0E000000 		.word	14
 196              		.section	.data._ports,"aw",%progbits
 197              		.align	2
 198              		.set	.LANCHOR0,. + 0
 199              		.type	_ports, %object
 200              		.size	_ports, 68
 201              	_ports:
 202 0000 00080240 		.word	1073874944
 203 0004 00080240 		.word	1073874944
 204 0008 00080240 		.word	1073874944
 205 000c 00100240 		.word	1073876992
 206 0010 00100240 		.word	1073876992
 207 0014 00100240 		.word	1073876992
 208 0018 00100240 		.word	1073876992
 209 001c 00100240 		.word	1073876992
 210 0020 00100240 		.word	1073876992
 211 0024 00100240 		.word	1073876992
 212 0028 00040240 		.word	1073873920
 213 002c 00040240 		.word	1073873920
 214 0030 00040240 		.word	1073873920
 215 0034 000C0240 		.word	1073875968
 216 0038 000C0240 		.word	1073875968
 217 003c 00100240 		.word	1073876992
 218 0040 00100240 		.word	1073876992
 219              		.text
 220              	.Letext0:
 221              		.file 2 "/usr/arm-none-eabi/include/stdint.h"
 222              		.file 3 "../AithonLibrary/ChibiOS/os/hal/platforms/STM32/GPIOv2/pal_lld.h"
 223              		.file 4 "../AithonLibrary/Aithon.h"
 224              		.file 5 "../AithonLibrary/ChibiOS/os/ports/common/ARMCMx/CMSIS/include/core_cm4.h"
ARM GAS  /tmp/cchSs7UB.s 			page 5


 225              		.section	.debug_info,"",%progbits
 226              	.Ldebug_info0:
 227 0000 F4020000 		.4byte	0x2f4
 228 0004 0400     		.2byte	0x4
 229 0006 00000000 		.4byte	.Ldebug_abbrev0
 230 000a 04       		.byte	0x4
 231 000b 01       		.uleb128 0x1
 232 000c 22010000 		.4byte	.LASF42
 233 0010 01       		.byte	0x1
 234 0011 63020000 		.4byte	.LASF43
 235 0015 E3000000 		.4byte	.LASF44
 236 0019 00000000 		.4byte	.Ldebug_ranges0+0
 237 001d 00000000 		.4byte	0
 238 0021 00000000 		.4byte	.Ldebug_line0
 239 0025 02       		.uleb128 0x2
 240 0026 04       		.byte	0x4
 241 0027 05       		.byte	0x5
 242 0028 696E7400 		.ascii	"int\000"
 243 002c 03       		.uleb128 0x3
 244 002d 04       		.byte	0x4
 245 002e 07       		.byte	0x7
 246 002f 38000000 		.4byte	.LASF0
 247 0033 03       		.uleb128 0x3
 248 0034 01       		.byte	0x1
 249 0035 06       		.byte	0x6
 250 0036 FF020000 		.4byte	.LASF1
 251 003a 03       		.uleb128 0x3
 252 003b 01       		.byte	0x1
 253 003c 08       		.byte	0x8
 254 003d 85000000 		.4byte	.LASF2
 255 0041 03       		.uleb128 0x3
 256 0042 02       		.byte	0x2
 257 0043 05       		.byte	0x5
 258 0044 DC020000 		.4byte	.LASF3
 259 0048 04       		.uleb128 0x4
 260 0049 D3020000 		.4byte	.LASF5
 261 004d 02       		.byte	0x2
 262 004e 36       		.byte	0x36
 263 004f 53000000 		.4byte	0x53
 264 0053 03       		.uleb128 0x3
 265 0054 02       		.byte	0x2
 266 0055 07       		.byte	0x7
 267 0056 25000000 		.4byte	.LASF4
 268 005a 04       		.uleb128 0x4
 269 005b 89020000 		.4byte	.LASF6
 270 005f 02       		.byte	0x2
 271 0060 4F       		.byte	0x4f
 272 0061 65000000 		.4byte	0x65
 273 0065 03       		.uleb128 0x3
 274 0066 04       		.byte	0x4
 275 0067 05       		.byte	0x5
 276 0068 EF020000 		.4byte	.LASF7
 277 006c 04       		.uleb128 0x4
 278 006d E6020000 		.4byte	.LASF8
 279 0071 02       		.byte	0x2
 280 0072 50       		.byte	0x50
 281 0073 77000000 		.4byte	0x77
ARM GAS  /tmp/cchSs7UB.s 			page 6


 282 0077 03       		.uleb128 0x3
 283 0078 04       		.byte	0x4
 284 0079 07       		.byte	0x7
 285 007a 98000000 		.4byte	.LASF9
 286 007e 03       		.uleb128 0x3
 287 007f 08       		.byte	0x8
 288 0080 05       		.byte	0x5
 289 0081 B1020000 		.4byte	.LASF10
 290 0085 03       		.uleb128 0x3
 291 0086 08       		.byte	0x8
 292 0087 07       		.byte	0x7
 293 0088 6E000000 		.4byte	.LASF11
 294 008c 03       		.uleb128 0x3
 295 008d 01       		.byte	0x1
 296 008e 02       		.byte	0x2
 297 008f 0B030000 		.4byte	.LASF12
 298 0093 05       		.uleb128 0x5
 299 0094 6C000000 		.4byte	0x6c
 300 0098 03       		.uleb128 0x3
 301 0099 04       		.byte	0x4
 302 009a 07       		.byte	0x7
 303 009b 91020000 		.4byte	.LASF13
 304 009f 03       		.uleb128 0x3
 305 00a0 01       		.byte	0x1
 306 00a1 08       		.byte	0x8
 307 00a2 59020000 		.4byte	.LASF14
 308 00a6 05       		.uleb128 0x5
 309 00a7 5A000000 		.4byte	0x5a
 310 00ab 06       		.uleb128 0x6
 311 00ac 04       		.byte	0x4
 312 00ad 03       		.byte	0x3
 313 00ae 96       		.byte	0x96
 314 00af CC000000 		.4byte	0xcc
 315 00b3 07       		.uleb128 0x7
 316 00b4 73657400 		.ascii	"set\000"
 317 00b8 03       		.byte	0x3
 318 00b9 97       		.byte	0x97
 319 00ba 48000000 		.4byte	0x48
 320 00be 00       		.byte	0
 321 00bf 08       		.uleb128 0x8
 322 00c0 08000000 		.4byte	.LASF15
 323 00c4 03       		.byte	0x3
 324 00c5 98       		.byte	0x98
 325 00c6 48000000 		.4byte	0x48
 326 00ca 02       		.byte	0x2
 327 00cb 00       		.byte	0
 328 00cc 09       		.uleb128 0x9
 329 00cd 04       		.byte	0x4
 330 00ce 03       		.byte	0x3
 331 00cf 94       		.byte	0x94
 332 00d0 E7000000 		.4byte	0xe7
 333 00d4 0A       		.uleb128 0xa
 334 00d5 5700     		.ascii	"W\000"
 335 00d7 03       		.byte	0x3
 336 00d8 95       		.byte	0x95
 337 00d9 6C000000 		.4byte	0x6c
 338 00dd 0A       		.uleb128 0xa
ARM GAS  /tmp/cchSs7UB.s 			page 7


 339 00de 4800     		.ascii	"H\000"
 340 00e0 03       		.byte	0x3
 341 00e1 99       		.byte	0x99
 342 00e2 AB000000 		.4byte	0xab
 343 00e6 00       		.byte	0
 344 00e7 06       		.uleb128 0x6
 345 00e8 28       		.byte	0x28
 346 00e9 03       		.byte	0x3
 347 00ea 8C       		.byte	0x8c
 348 00eb 68010000 		.4byte	0x168
 349 00ef 08       		.uleb128 0x8
 350 00f0 0E000000 		.4byte	.LASF16
 351 00f4 03       		.byte	0x3
 352 00f5 8E       		.byte	0x8e
 353 00f6 93000000 		.4byte	0x93
 354 00fa 00       		.byte	0
 355 00fb 08       		.uleb128 0x8
 356 00fc 5E000000 		.4byte	.LASF17
 357 0100 03       		.byte	0x3
 358 0101 8F       		.byte	0x8f
 359 0102 93000000 		.4byte	0x93
 360 0106 04       		.byte	0x4
 361 0107 08       		.uleb128 0x8
 362 0108 00000000 		.4byte	.LASF18
 363 010c 03       		.byte	0x3
 364 010d 90       		.byte	0x90
 365 010e 93000000 		.4byte	0x93
 366 0112 08       		.byte	0x8
 367 0113 08       		.uleb128 0x8
 368 0114 9A020000 		.4byte	.LASF19
 369 0118 03       		.byte	0x3
 370 0119 91       		.byte	0x91
 371 011a 93000000 		.4byte	0x93
 372 011e 0C       		.byte	0xc
 373 011f 07       		.uleb128 0x7
 374 0120 49445200 		.ascii	"IDR\000"
 375 0124 03       		.byte	0x3
 376 0125 92       		.byte	0x92
 377 0126 93000000 		.4byte	0x93
 378 012a 10       		.byte	0x10
 379 012b 07       		.uleb128 0x7
 380 012c 4F445200 		.ascii	"ODR\000"
 381 0130 03       		.byte	0x3
 382 0131 93       		.byte	0x93
 383 0132 93000000 		.4byte	0x93
 384 0136 14       		.byte	0x14
 385 0137 08       		.uleb128 0x8
 386 0138 20000000 		.4byte	.LASF20
 387 013c 03       		.byte	0x3
 388 013d 9A       		.byte	0x9a
 389 013e 68010000 		.4byte	0x168
 390 0142 18       		.byte	0x18
 391 0143 08       		.uleb128 0x8
 392 0144 1E030000 		.4byte	.LASF21
 393 0148 03       		.byte	0x3
 394 0149 9B       		.byte	0x9b
 395 014a 93000000 		.4byte	0x93
ARM GAS  /tmp/cchSs7UB.s 			page 8


 396 014e 1C       		.byte	0x1c
 397 014f 08       		.uleb128 0x8
 398 0150 B9000000 		.4byte	.LASF22
 399 0154 03       		.byte	0x3
 400 0155 9C       		.byte	0x9c
 401 0156 93000000 		.4byte	0x93
 402 015a 20       		.byte	0x20
 403 015b 08       		.uleb128 0x8
 404 015c 93000000 		.4byte	.LASF23
 405 0160 03       		.byte	0x3
 406 0161 9D       		.byte	0x9d
 407 0162 93000000 		.4byte	0x93
 408 0166 24       		.byte	0x24
 409 0167 00       		.byte	0
 410 0168 05       		.uleb128 0x5
 411 0169 CC000000 		.4byte	0xcc
 412 016d 04       		.uleb128 0x4
 413 016e 4C020000 		.4byte	.LASF24
 414 0172 03       		.byte	0x3
 415 0173 9E       		.byte	0x9e
 416 0174 E7000000 		.4byte	0xe7
 417 0178 04       		.uleb128 0x4
 418 0179 45000000 		.4byte	.LASF25
 419 017d 03       		.byte	0x3
 420 017e F0       		.byte	0xf0
 421 017f 6C000000 		.4byte	0x6c
 422 0183 04       		.uleb128 0x4
 423 0184 65000000 		.4byte	.LASF26
 424 0188 03       		.byte	0x3
 425 0189 F5       		.byte	0xf5
 426 018a 6C000000 		.4byte	0x6c
 427 018e 04       		.uleb128 0x4
 428 018f 7E020000 		.4byte	.LASF27
 429 0193 03       		.byte	0x3
 430 0194 FD       		.byte	0xfd
 431 0195 99010000 		.4byte	0x199
 432 0199 0B       		.uleb128 0xb
 433 019a 04       		.byte	0x4
 434 019b 6D010000 		.4byte	0x16d
 435 019f 0C       		.uleb128 0xc
 436 01a0 01       		.byte	0x1
 437 01a1 04       		.byte	0x4
 438 01a2 46       		.byte	0x46
 439 01a3 C7010000 		.4byte	0x1c7
 440 01a7 0D       		.uleb128 0xd
 441 01a8 06010000 		.4byte	.LASF28
 442 01ac 00       		.sleb128 0
 443 01ad 0D       		.uleb128 0xd
 444 01ae BF020000 		.4byte	.LASF29
 445 01b2 20       		.sleb128 32
 446 01b3 0D       		.uleb128 0xd
 447 01b4 AA000000 		.4byte	.LASF30
 448 01b8 C000     		.sleb128 64
 449 01ba 0D       		.uleb128 0xd
 450 01bb F8020000 		.4byte	.LASF31
 451 01bf 01       		.sleb128 1
 452 01c0 0D       		.uleb128 0xd
ARM GAS  /tmp/cchSs7UB.s 			page 9


 453 01c1 A0020000 		.4byte	.LASF32
 454 01c5 05       		.sleb128 5
 455 01c6 00       		.byte	0
 456 01c7 04       		.uleb128 0x4
 457 01c8 BE000000 		.4byte	.LASF33
 458 01cc 04       		.byte	0x4
 459 01cd 4C       		.byte	0x4c
 460 01ce 9F010000 		.4byte	0x19f
 461 01d2 0E       		.uleb128 0xe
 462 01d3 11030000 		.4byte	.LASF35
 463 01d7 01       		.byte	0x1
 464 01d8 3D       		.byte	0x3d
 465 01d9 00000000 		.4byte	.LFB119
 466 01dd 20000000 		.4byte	.LFE119-.LFB119
 467 01e1 01       		.uleb128 0x1
 468 01e2 9C       		.byte	0x9c
 469 01e3 0F020000 		.4byte	0x20f
 470 01e7 0F       		.uleb128 0xf
 471 01e8 70696E00 		.ascii	"pin\000"
 472 01ec 01       		.byte	0x1
 473 01ed 3D       		.byte	0x3d
 474 01ee 25000000 		.4byte	0x25
 475 01f2 00000000 		.4byte	.LLST0
 476 01f6 10       		.uleb128 0x10
 477 01f7 5E020000 		.4byte	.LASF34
 478 01fb 01       		.byte	0x1
 479 01fc 3D       		.byte	0x3d
 480 01fd C7010000 		.4byte	0x1c7
 481 0201 21000000 		.4byte	.LLST1
 482 0205 11       		.uleb128 0x11
 483 0206 16000000 		.4byte	.LVL3
 484 020a DF020000 		.4byte	0x2df
 485 020e 00       		.byte	0
 486 020f 12       		.uleb128 0x12
 487 0210 52000000 		.4byte	.LASF45
 488 0214 01       		.byte	0x1
 489 0215 4C       		.byte	0x4c
 490 0216 25000000 		.4byte	0x25
 491 021a 00000000 		.4byte	.LFB120
 492 021e 20000000 		.4byte	.LFE120-.LFB120
 493 0222 01       		.uleb128 0x1
 494 0223 9C       		.byte	0x9c
 495 0224 38020000 		.4byte	0x238
 496 0228 0F       		.uleb128 0xf
 497 0229 70696E00 		.ascii	"pin\000"
 498 022d 01       		.byte	0x1
 499 022e 4C       		.byte	0x4c
 500 022f 25000000 		.4byte	0x25
 501 0233 42000000 		.4byte	.LLST2
 502 0237 00       		.byte	0
 503 0238 0E       		.uleb128 0xe
 504 0239 D7000000 		.4byte	.LASF36
 505 023d 01       		.byte	0x1
 506 023e 5A       		.byte	0x5a
 507 023f 00000000 		.4byte	.LFB121
 508 0243 34000000 		.4byte	.LFE121-.LFB121
 509 0247 01       		.uleb128 0x1
ARM GAS  /tmp/cchSs7UB.s 			page 10


 510 0248 9C       		.byte	0x9c
 511 0249 6C020000 		.4byte	0x26c
 512 024d 0F       		.uleb128 0xf
 513 024e 70696E00 		.ascii	"pin\000"
 514 0252 01       		.byte	0x1
 515 0253 5A       		.byte	0x5a
 516 0254 25000000 		.4byte	0x25
 517 0258 63000000 		.4byte	.LLST3
 518 025c 10       		.uleb128 0x10
 519 025d 14000000 		.4byte	.LASF37
 520 0261 01       		.byte	0x1
 521 0262 5A       		.byte	0x5a
 522 0263 25000000 		.4byte	0x25
 523 0267 84000000 		.4byte	.LLST4
 524 026b 00       		.byte	0
 525 026c 0E       		.uleb128 0xe
 526 026d 3D020000 		.4byte	.LASF38
 527 0271 01       		.byte	0x1
 528 0272 67       		.byte	0x67
 529 0273 00000000 		.4byte	.LFB122
 530 0277 24000000 		.4byte	.LFE122-.LFB122
 531 027b 01       		.uleb128 0x1
 532 027c 9C       		.byte	0x9c
 533 027d 91020000 		.4byte	0x291
 534 0281 0F       		.uleb128 0xf
 535 0282 70696E00 		.ascii	"pin\000"
 536 0286 01       		.byte	0x1
 537 0287 67       		.byte	0x67
 538 0288 25000000 		.4byte	0x25
 539 028c A5000000 		.4byte	.LLST5
 540 0290 00       		.byte	0
 541 0291 13       		.uleb128 0x13
 542 0292 CA000000 		.4byte	.LASF39
 543 0296 05       		.byte	0x5
 544 0297 9806     		.2byte	0x698
 545 0299 A6000000 		.4byte	0xa6
 546 029d 14       		.uleb128 0x14
 547 029e 99010000 		.4byte	0x199
 548 02a2 AD020000 		.4byte	0x2ad
 549 02a6 15       		.uleb128 0x15
 550 02a7 98000000 		.4byte	0x98
 551 02ab 10       		.byte	0x10
 552 02ac 00       		.byte	0
 553 02ad 16       		.uleb128 0x16
 554 02ae CC020000 		.4byte	.LASF40
 555 02b2 01       		.byte	0x1
 556 02b3 0D       		.byte	0xd
 557 02b4 9D020000 		.4byte	0x29d
 558 02b8 05       		.uleb128 0x5
 559 02b9 03       		.byte	0x3
 560 02ba 00000000 		.4byte	_ports
 561 02be 14       		.uleb128 0x14
 562 02bf 25000000 		.4byte	0x25
 563 02c3 CE020000 		.4byte	0x2ce
 564 02c7 15       		.uleb128 0x15
 565 02c8 98000000 		.4byte	0x98
 566 02cc 10       		.byte	0x10
ARM GAS  /tmp/cchSs7UB.s 			page 11


 567 02cd 00       		.byte	0
 568 02ce 16       		.uleb128 0x16
 569 02cf 1A000000 		.4byte	.LASF41
 570 02d3 01       		.byte	0x1
 571 02d4 21       		.byte	0x21
 572 02d5 BE020000 		.4byte	0x2be
 573 02d9 05       		.uleb128 0x5
 574 02da 03       		.byte	0x3
 575 02db 00000000 		.4byte	_pads
 576 02df 17       		.uleb128 0x17
 577 02e0 0C010000 		.4byte	.LASF46
 578 02e4 03       		.byte	0x3
 579 02e5 C201     		.2byte	0x1c2
 580 02e7 18       		.uleb128 0x18
 581 02e8 8E010000 		.4byte	0x18e
 582 02ec 18       		.uleb128 0x18
 583 02ed 78010000 		.4byte	0x178
 584 02f1 18       		.uleb128 0x18
 585 02f2 83010000 		.4byte	0x183
 586 02f6 00       		.byte	0
 587 02f7 00       		.byte	0
 588              		.section	.debug_abbrev,"",%progbits
 589              	.Ldebug_abbrev0:
 590 0000 01       		.uleb128 0x1
 591 0001 11       		.uleb128 0x11
 592 0002 01       		.byte	0x1
 593 0003 25       		.uleb128 0x25
 594 0004 0E       		.uleb128 0xe
 595 0005 13       		.uleb128 0x13
 596 0006 0B       		.uleb128 0xb
 597 0007 03       		.uleb128 0x3
 598 0008 0E       		.uleb128 0xe
 599 0009 1B       		.uleb128 0x1b
 600 000a 0E       		.uleb128 0xe
 601 000b 55       		.uleb128 0x55
 602 000c 17       		.uleb128 0x17
 603 000d 11       		.uleb128 0x11
 604 000e 01       		.uleb128 0x1
 605 000f 10       		.uleb128 0x10
 606 0010 17       		.uleb128 0x17
 607 0011 00       		.byte	0
 608 0012 00       		.byte	0
 609 0013 02       		.uleb128 0x2
 610 0014 24       		.uleb128 0x24
 611 0015 00       		.byte	0
 612 0016 0B       		.uleb128 0xb
 613 0017 0B       		.uleb128 0xb
 614 0018 3E       		.uleb128 0x3e
 615 0019 0B       		.uleb128 0xb
 616 001a 03       		.uleb128 0x3
 617 001b 08       		.uleb128 0x8
 618 001c 00       		.byte	0
 619 001d 00       		.byte	0
 620 001e 03       		.uleb128 0x3
 621 001f 24       		.uleb128 0x24
 622 0020 00       		.byte	0
 623 0021 0B       		.uleb128 0xb
ARM GAS  /tmp/cchSs7UB.s 			page 12


 624 0022 0B       		.uleb128 0xb
 625 0023 3E       		.uleb128 0x3e
 626 0024 0B       		.uleb128 0xb
 627 0025 03       		.uleb128 0x3
 628 0026 0E       		.uleb128 0xe
 629 0027 00       		.byte	0
 630 0028 00       		.byte	0
 631 0029 04       		.uleb128 0x4
 632 002a 16       		.uleb128 0x16
 633 002b 00       		.byte	0
 634 002c 03       		.uleb128 0x3
 635 002d 0E       		.uleb128 0xe
 636 002e 3A       		.uleb128 0x3a
 637 002f 0B       		.uleb128 0xb
 638 0030 3B       		.uleb128 0x3b
 639 0031 0B       		.uleb128 0xb
 640 0032 49       		.uleb128 0x49
 641 0033 13       		.uleb128 0x13
 642 0034 00       		.byte	0
 643 0035 00       		.byte	0
 644 0036 05       		.uleb128 0x5
 645 0037 35       		.uleb128 0x35
 646 0038 00       		.byte	0
 647 0039 49       		.uleb128 0x49
 648 003a 13       		.uleb128 0x13
 649 003b 00       		.byte	0
 650 003c 00       		.byte	0
 651 003d 06       		.uleb128 0x6
 652 003e 13       		.uleb128 0x13
 653 003f 01       		.byte	0x1
 654 0040 0B       		.uleb128 0xb
 655 0041 0B       		.uleb128 0xb
 656 0042 3A       		.uleb128 0x3a
 657 0043 0B       		.uleb128 0xb
 658 0044 3B       		.uleb128 0x3b
 659 0045 0B       		.uleb128 0xb
 660 0046 01       		.uleb128 0x1
 661 0047 13       		.uleb128 0x13
 662 0048 00       		.byte	0
 663 0049 00       		.byte	0
 664 004a 07       		.uleb128 0x7
 665 004b 0D       		.uleb128 0xd
 666 004c 00       		.byte	0
 667 004d 03       		.uleb128 0x3
 668 004e 08       		.uleb128 0x8
 669 004f 3A       		.uleb128 0x3a
 670 0050 0B       		.uleb128 0xb
 671 0051 3B       		.uleb128 0x3b
 672 0052 0B       		.uleb128 0xb
 673 0053 49       		.uleb128 0x49
 674 0054 13       		.uleb128 0x13
 675 0055 38       		.uleb128 0x38
 676 0056 0B       		.uleb128 0xb
 677 0057 00       		.byte	0
 678 0058 00       		.byte	0
 679 0059 08       		.uleb128 0x8
 680 005a 0D       		.uleb128 0xd
ARM GAS  /tmp/cchSs7UB.s 			page 13


 681 005b 00       		.byte	0
 682 005c 03       		.uleb128 0x3
 683 005d 0E       		.uleb128 0xe
 684 005e 3A       		.uleb128 0x3a
 685 005f 0B       		.uleb128 0xb
 686 0060 3B       		.uleb128 0x3b
 687 0061 0B       		.uleb128 0xb
 688 0062 49       		.uleb128 0x49
 689 0063 13       		.uleb128 0x13
 690 0064 38       		.uleb128 0x38
 691 0065 0B       		.uleb128 0xb
 692 0066 00       		.byte	0
 693 0067 00       		.byte	0
 694 0068 09       		.uleb128 0x9
 695 0069 17       		.uleb128 0x17
 696 006a 01       		.byte	0x1
 697 006b 0B       		.uleb128 0xb
 698 006c 0B       		.uleb128 0xb
 699 006d 3A       		.uleb128 0x3a
 700 006e 0B       		.uleb128 0xb
 701 006f 3B       		.uleb128 0x3b
 702 0070 0B       		.uleb128 0xb
 703 0071 01       		.uleb128 0x1
 704 0072 13       		.uleb128 0x13
 705 0073 00       		.byte	0
 706 0074 00       		.byte	0
 707 0075 0A       		.uleb128 0xa
 708 0076 0D       		.uleb128 0xd
 709 0077 00       		.byte	0
 710 0078 03       		.uleb128 0x3
 711 0079 08       		.uleb128 0x8
 712 007a 3A       		.uleb128 0x3a
 713 007b 0B       		.uleb128 0xb
 714 007c 3B       		.uleb128 0x3b
 715 007d 0B       		.uleb128 0xb
 716 007e 49       		.uleb128 0x49
 717 007f 13       		.uleb128 0x13
 718 0080 00       		.byte	0
 719 0081 00       		.byte	0
 720 0082 0B       		.uleb128 0xb
 721 0083 0F       		.uleb128 0xf
 722 0084 00       		.byte	0
 723 0085 0B       		.uleb128 0xb
 724 0086 0B       		.uleb128 0xb
 725 0087 49       		.uleb128 0x49
 726 0088 13       		.uleb128 0x13
 727 0089 00       		.byte	0
 728 008a 00       		.byte	0
 729 008b 0C       		.uleb128 0xc
 730 008c 04       		.uleb128 0x4
 731 008d 01       		.byte	0x1
 732 008e 0B       		.uleb128 0xb
 733 008f 0B       		.uleb128 0xb
 734 0090 3A       		.uleb128 0x3a
 735 0091 0B       		.uleb128 0xb
 736 0092 3B       		.uleb128 0x3b
 737 0093 0B       		.uleb128 0xb
ARM GAS  /tmp/cchSs7UB.s 			page 14


 738 0094 01       		.uleb128 0x1
 739 0095 13       		.uleb128 0x13
 740 0096 00       		.byte	0
 741 0097 00       		.byte	0
 742 0098 0D       		.uleb128 0xd
 743 0099 28       		.uleb128 0x28
 744 009a 00       		.byte	0
 745 009b 03       		.uleb128 0x3
 746 009c 0E       		.uleb128 0xe
 747 009d 1C       		.uleb128 0x1c
 748 009e 0D       		.uleb128 0xd
 749 009f 00       		.byte	0
 750 00a0 00       		.byte	0
 751 00a1 0E       		.uleb128 0xe
 752 00a2 2E       		.uleb128 0x2e
 753 00a3 01       		.byte	0x1
 754 00a4 3F       		.uleb128 0x3f
 755 00a5 19       		.uleb128 0x19
 756 00a6 03       		.uleb128 0x3
 757 00a7 0E       		.uleb128 0xe
 758 00a8 3A       		.uleb128 0x3a
 759 00a9 0B       		.uleb128 0xb
 760 00aa 3B       		.uleb128 0x3b
 761 00ab 0B       		.uleb128 0xb
 762 00ac 27       		.uleb128 0x27
 763 00ad 19       		.uleb128 0x19
 764 00ae 11       		.uleb128 0x11
 765 00af 01       		.uleb128 0x1
 766 00b0 12       		.uleb128 0x12
 767 00b1 06       		.uleb128 0x6
 768 00b2 40       		.uleb128 0x40
 769 00b3 18       		.uleb128 0x18
 770 00b4 9742     		.uleb128 0x2117
 771 00b6 19       		.uleb128 0x19
 772 00b7 01       		.uleb128 0x1
 773 00b8 13       		.uleb128 0x13
 774 00b9 00       		.byte	0
 775 00ba 00       		.byte	0
 776 00bb 0F       		.uleb128 0xf
 777 00bc 05       		.uleb128 0x5
 778 00bd 00       		.byte	0
 779 00be 03       		.uleb128 0x3
 780 00bf 08       		.uleb128 0x8
 781 00c0 3A       		.uleb128 0x3a
 782 00c1 0B       		.uleb128 0xb
 783 00c2 3B       		.uleb128 0x3b
 784 00c3 0B       		.uleb128 0xb
 785 00c4 49       		.uleb128 0x49
 786 00c5 13       		.uleb128 0x13
 787 00c6 02       		.uleb128 0x2
 788 00c7 17       		.uleb128 0x17
 789 00c8 00       		.byte	0
 790 00c9 00       		.byte	0
 791 00ca 10       		.uleb128 0x10
 792 00cb 05       		.uleb128 0x5
 793 00cc 00       		.byte	0
 794 00cd 03       		.uleb128 0x3
ARM GAS  /tmp/cchSs7UB.s 			page 15


 795 00ce 0E       		.uleb128 0xe
 796 00cf 3A       		.uleb128 0x3a
 797 00d0 0B       		.uleb128 0xb
 798 00d1 3B       		.uleb128 0x3b
 799 00d2 0B       		.uleb128 0xb
 800 00d3 49       		.uleb128 0x49
 801 00d4 13       		.uleb128 0x13
 802 00d5 02       		.uleb128 0x2
 803 00d6 17       		.uleb128 0x17
 804 00d7 00       		.byte	0
 805 00d8 00       		.byte	0
 806 00d9 11       		.uleb128 0x11
 807 00da 898201   		.uleb128 0x4109
 808 00dd 00       		.byte	0
 809 00de 11       		.uleb128 0x11
 810 00df 01       		.uleb128 0x1
 811 00e0 9542     		.uleb128 0x2115
 812 00e2 19       		.uleb128 0x19
 813 00e3 31       		.uleb128 0x31
 814 00e4 13       		.uleb128 0x13
 815 00e5 00       		.byte	0
 816 00e6 00       		.byte	0
 817 00e7 12       		.uleb128 0x12
 818 00e8 2E       		.uleb128 0x2e
 819 00e9 01       		.byte	0x1
 820 00ea 3F       		.uleb128 0x3f
 821 00eb 19       		.uleb128 0x19
 822 00ec 03       		.uleb128 0x3
 823 00ed 0E       		.uleb128 0xe
 824 00ee 3A       		.uleb128 0x3a
 825 00ef 0B       		.uleb128 0xb
 826 00f0 3B       		.uleb128 0x3b
 827 00f1 0B       		.uleb128 0xb
 828 00f2 27       		.uleb128 0x27
 829 00f3 19       		.uleb128 0x19
 830 00f4 49       		.uleb128 0x49
 831 00f5 13       		.uleb128 0x13
 832 00f6 11       		.uleb128 0x11
 833 00f7 01       		.uleb128 0x1
 834 00f8 12       		.uleb128 0x12
 835 00f9 06       		.uleb128 0x6
 836 00fa 40       		.uleb128 0x40
 837 00fb 18       		.uleb128 0x18
 838 00fc 9742     		.uleb128 0x2117
 839 00fe 19       		.uleb128 0x19
 840 00ff 01       		.uleb128 0x1
 841 0100 13       		.uleb128 0x13
 842 0101 00       		.byte	0
 843 0102 00       		.byte	0
 844 0103 13       		.uleb128 0x13
 845 0104 34       		.uleb128 0x34
 846 0105 00       		.byte	0
 847 0106 03       		.uleb128 0x3
 848 0107 0E       		.uleb128 0xe
 849 0108 3A       		.uleb128 0x3a
 850 0109 0B       		.uleb128 0xb
 851 010a 3B       		.uleb128 0x3b
ARM GAS  /tmp/cchSs7UB.s 			page 16


 852 010b 05       		.uleb128 0x5
 853 010c 49       		.uleb128 0x49
 854 010d 13       		.uleb128 0x13
 855 010e 3F       		.uleb128 0x3f
 856 010f 19       		.uleb128 0x19
 857 0110 3C       		.uleb128 0x3c
 858 0111 19       		.uleb128 0x19
 859 0112 00       		.byte	0
 860 0113 00       		.byte	0
 861 0114 14       		.uleb128 0x14
 862 0115 01       		.uleb128 0x1
 863 0116 01       		.byte	0x1
 864 0117 49       		.uleb128 0x49
 865 0118 13       		.uleb128 0x13
 866 0119 01       		.uleb128 0x1
 867 011a 13       		.uleb128 0x13
 868 011b 00       		.byte	0
 869 011c 00       		.byte	0
 870 011d 15       		.uleb128 0x15
 871 011e 21       		.uleb128 0x21
 872 011f 00       		.byte	0
 873 0120 49       		.uleb128 0x49
 874 0121 13       		.uleb128 0x13
 875 0122 2F       		.uleb128 0x2f
 876 0123 0B       		.uleb128 0xb
 877 0124 00       		.byte	0
 878 0125 00       		.byte	0
 879 0126 16       		.uleb128 0x16
 880 0127 34       		.uleb128 0x34
 881 0128 00       		.byte	0
 882 0129 03       		.uleb128 0x3
 883 012a 0E       		.uleb128 0xe
 884 012b 3A       		.uleb128 0x3a
 885 012c 0B       		.uleb128 0xb
 886 012d 3B       		.uleb128 0x3b
 887 012e 0B       		.uleb128 0xb
 888 012f 49       		.uleb128 0x49
 889 0130 13       		.uleb128 0x13
 890 0131 3F       		.uleb128 0x3f
 891 0132 19       		.uleb128 0x19
 892 0133 02       		.uleb128 0x2
 893 0134 18       		.uleb128 0x18
 894 0135 00       		.byte	0
 895 0136 00       		.byte	0
 896 0137 17       		.uleb128 0x17
 897 0138 2E       		.uleb128 0x2e
 898 0139 01       		.byte	0x1
 899 013a 3F       		.uleb128 0x3f
 900 013b 19       		.uleb128 0x19
 901 013c 03       		.uleb128 0x3
 902 013d 0E       		.uleb128 0xe
 903 013e 3A       		.uleb128 0x3a
 904 013f 0B       		.uleb128 0xb
 905 0140 3B       		.uleb128 0x3b
 906 0141 05       		.uleb128 0x5
 907 0142 27       		.uleb128 0x27
 908 0143 19       		.uleb128 0x19
ARM GAS  /tmp/cchSs7UB.s 			page 17


 909 0144 3C       		.uleb128 0x3c
 910 0145 19       		.uleb128 0x19
 911 0146 00       		.byte	0
 912 0147 00       		.byte	0
 913 0148 18       		.uleb128 0x18
 914 0149 05       		.uleb128 0x5
 915 014a 00       		.byte	0
 916 014b 49       		.uleb128 0x49
 917 014c 13       		.uleb128 0x13
 918 014d 00       		.byte	0
 919 014e 00       		.byte	0
 920 014f 00       		.byte	0
 921              		.section	.debug_loc,"",%progbits
 922              	.Ldebug_loc0:
 923              	.LLST0:
 924 0000 00000000 		.4byte	.LVL0
 925 0004 0C000000 		.4byte	.LVL1
 926 0008 0100     		.2byte	0x1
 927 000a 50       		.byte	0x50
 928 000b 0C000000 		.4byte	.LVL1
 929 000f 20000000 		.4byte	.LFE119
 930 0013 0400     		.2byte	0x4
 931 0015 F3       		.byte	0xf3
 932 0016 01       		.uleb128 0x1
 933 0017 50       		.byte	0x50
 934 0018 9F       		.byte	0x9f
 935 0019 00000000 		.4byte	0
 936 001d 00000000 		.4byte	0
 937              	.LLST1:
 938 0021 00000000 		.4byte	.LVL0
 939 0025 10000000 		.4byte	.LVL2
 940 0029 0100     		.2byte	0x1
 941 002b 51       		.byte	0x51
 942 002c 10000000 		.4byte	.LVL2
 943 0030 20000000 		.4byte	.LFE119
 944 0034 0400     		.2byte	0x4
 945 0036 F3       		.byte	0xf3
 946 0037 01       		.uleb128 0x1
 947 0038 51       		.byte	0x51
 948 0039 9F       		.byte	0x9f
 949 003a 00000000 		.4byte	0
 950 003e 00000000 		.4byte	0
 951              	.LLST2:
 952 0042 00000000 		.4byte	.LVL4
 953 0046 0E000000 		.4byte	.LVL5
 954 004a 0100     		.2byte	0x1
 955 004c 50       		.byte	0x50
 956 004d 0E000000 		.4byte	.LVL5
 957 0051 20000000 		.4byte	.LFE120
 958 0055 0400     		.2byte	0x4
 959 0057 F3       		.byte	0xf3
 960 0058 01       		.uleb128 0x1
 961 0059 50       		.byte	0x50
 962 005a 9F       		.byte	0x9f
 963 005b 00000000 		.4byte	0
 964 005f 00000000 		.4byte	0
 965              	.LLST3:
ARM GAS  /tmp/cchSs7UB.s 			page 18


 966 0063 00000000 		.4byte	.LVL6
 967 0067 16000000 		.4byte	.LVL8
 968 006b 0100     		.2byte	0x1
 969 006d 50       		.byte	0x50
 970 006e 16000000 		.4byte	.LVL8
 971 0072 34000000 		.4byte	.LFE121
 972 0076 0400     		.2byte	0x4
 973 0078 F3       		.byte	0xf3
 974 0079 01       		.uleb128 0x1
 975 007a 50       		.byte	0x50
 976 007b 9F       		.byte	0x9f
 977 007c 00000000 		.4byte	0
 978 0080 00000000 		.4byte	0
 979              	.LLST4:
 980 0084 00000000 		.4byte	.LVL6
 981 0088 10000000 		.4byte	.LVL7
 982 008c 0100     		.2byte	0x1
 983 008e 51       		.byte	0x51
 984 008f 10000000 		.4byte	.LVL7
 985 0093 34000000 		.4byte	.LFE121
 986 0097 0400     		.2byte	0x4
 987 0099 F3       		.byte	0xf3
 988 009a 01       		.uleb128 0x1
 989 009b 51       		.byte	0x51
 990 009c 9F       		.byte	0x9f
 991 009d 00000000 		.4byte	0
 992 00a1 00000000 		.4byte	0
 993              	.LLST5:
 994 00a5 00000000 		.4byte	.LVL9
 995 00a9 10000000 		.4byte	.LVL10
 996 00ad 0100     		.2byte	0x1
 997 00af 50       		.byte	0x50
 998 00b0 10000000 		.4byte	.LVL10
 999 00b4 24000000 		.4byte	.LFE122
 1000 00b8 0400     		.2byte	0x4
 1001 00ba F3       		.byte	0xf3
 1002 00bb 01       		.uleb128 0x1
 1003 00bc 50       		.byte	0x50
 1004 00bd 9F       		.byte	0x9f
 1005 00be 00000000 		.4byte	0
 1006 00c2 00000000 		.4byte	0
 1007              		.section	.debug_aranges,"",%progbits
 1008 0000 34000000 		.4byte	0x34
 1009 0004 0200     		.2byte	0x2
 1010 0006 00000000 		.4byte	.Ldebug_info0
 1011 000a 04       		.byte	0x4
 1012 000b 00       		.byte	0
 1013 000c 0000     		.2byte	0
 1014 000e 0000     		.2byte	0
 1015 0010 00000000 		.4byte	.LFB119
 1016 0014 20000000 		.4byte	.LFE119-.LFB119
 1017 0018 00000000 		.4byte	.LFB120
 1018 001c 20000000 		.4byte	.LFE120-.LFB120
 1019 0020 00000000 		.4byte	.LFB121
 1020 0024 34000000 		.4byte	.LFE121-.LFB121
 1021 0028 00000000 		.4byte	.LFB122
 1022 002c 24000000 		.4byte	.LFE122-.LFB122
ARM GAS  /tmp/cchSs7UB.s 			page 19


 1023 0030 00000000 		.4byte	0
 1024 0034 00000000 		.4byte	0
 1025              		.section	.debug_ranges,"",%progbits
 1026              	.Ldebug_ranges0:
 1027 0000 00000000 		.4byte	.LFB119
 1028 0004 20000000 		.4byte	.LFE119
 1029 0008 00000000 		.4byte	.LFB120
 1030 000c 20000000 		.4byte	.LFE120
 1031 0010 00000000 		.4byte	.LFB121
 1032 0014 34000000 		.4byte	.LFE121
 1033 0018 00000000 		.4byte	.LFB122
 1034 001c 24000000 		.4byte	.LFE122
 1035 0020 00000000 		.4byte	0
 1036 0024 00000000 		.4byte	0
 1037              		.section	.debug_line,"",%progbits
 1038              	.Ldebug_line0:
 1039 0000 43010000 		.section	.debug_str,"MS",%progbits,1
 1039      0200F400 
 1039      00000201 
 1039      FB0E0D00 
 1039      01010101 
 1040              	.LASF18:
 1041 0000 4F535045 		.ascii	"OSPEEDR\000"
 1041      45445200 
 1042              	.LASF15:
 1043 0008 636C6561 		.ascii	"clear\000"
 1043      7200
 1044              	.LASF16:
 1045 000e 4D4F4445 		.ascii	"MODER\000"
 1045      5200
 1046              	.LASF37:
 1047 0014 76616C75 		.ascii	"value\000"
 1047      6500
 1048              	.LASF41:
 1049 001a 5F706164 		.ascii	"_pads\000"
 1049      7300
 1050              	.LASF20:
 1051 0020 42535252 		.ascii	"BSRR\000"
 1051      00
 1052              	.LASF4:
 1053 0025 73686F72 		.ascii	"short unsigned int\000"
 1053      7420756E 
 1053      7369676E 
 1053      65642069 
 1053      6E7400
 1054              	.LASF0:
 1055 0038 756E7369 		.ascii	"unsigned int\000"
 1055      676E6564 
 1055      20696E74 
 1055      00
 1056              	.LASF25:
 1057 0045 696F706F 		.ascii	"ioportmask_t\000"
 1057      72746D61 
 1057      736B5F74 
 1057      00
 1058              	.LASF45:
 1059 0052 64696769 		.ascii	"digital_get\000"
ARM GAS  /tmp/cchSs7UB.s 			page 20


 1059      74616C5F 
 1059      67657400 
 1060              	.LASF17:
 1061 005e 4F545950 		.ascii	"OTYPER\000"
 1061      455200
 1062              	.LASF26:
 1063 0065 696F6D6F 		.ascii	"iomode_t\000"
 1063      64655F74 
 1063      00
 1064              	.LASF11:
 1065 006e 6C6F6E67 		.ascii	"long long unsigned int\000"
 1065      206C6F6E 
 1065      6720756E 
 1065      7369676E 
 1065      65642069 
 1066              	.LASF2:
 1067 0085 756E7369 		.ascii	"unsigned char\000"
 1067      676E6564 
 1067      20636861 
 1067      7200
 1068              	.LASF23:
 1069 0093 41465248 		.ascii	"AFRH\000"
 1069      00
 1070              	.LASF9:
 1071 0098 6C6F6E67 		.ascii	"long unsigned int\000"
 1071      20756E73 
 1071      69676E65 
 1071      6420696E 
 1071      7400
 1072              	.LASF30:
 1073 00aa 494E5055 		.ascii	"INPUT_PULLDOWN\000"
 1073      545F5055 
 1073      4C4C444F 
 1073      574E00
 1074              	.LASF22:
 1075 00b9 4146524C 		.ascii	"AFRL\000"
 1075      00
 1076              	.LASF33:
 1077 00be 44696769 		.ascii	"DigitalMode\000"
 1077      74616C4D 
 1077      6F646500 
 1078              	.LASF39:
 1079 00ca 49544D5F 		.ascii	"ITM_RxBuffer\000"
 1079      52784275 
 1079      66666572 
 1079      00
 1080              	.LASF36:
 1081 00d7 64696769 		.ascii	"digital_set\000"
 1081      74616C5F 
 1081      73657400 
 1082              	.LASF44:
 1083 00e3 2F686F6D 		.ascii	"/home/brian/aithon/ProjectTemplate\000"
 1083      652F6272 
 1083      69616E2F 
 1083      61697468 
 1083      6F6E2F50 
 1084              	.LASF28:
ARM GAS  /tmp/cchSs7UB.s 			page 21


 1085 0106 494E5055 		.ascii	"INPUT\000"
 1085      5400
 1086              	.LASF46:
 1087 010c 5F70616C 		.ascii	"_pal_lld_setgroupmode\000"
 1087      5F6C6C64 
 1087      5F736574 
 1087      67726F75 
 1087      706D6F64 
 1088              	.LASF42:
 1089 0122 474E5520 		.ascii	"GNU C 4.8.3 20131129 (release) [ARM/embedded-4_8-br"
 1089      4320342E 
 1089      382E3320 
 1089      32303133 
 1089      31313239 
 1090 0155 616E6368 		.ascii	"anch revision 205641] -mcpu=cortex-m4 -mfloat-abi=s"
 1090      20726576 
 1090      6973696F 
 1090      6E203230 
 1090      35363431 
 1091 0188 6F667466 		.ascii	"oftfp -mfpu=fpv4-sp-d16 -mno-thumb-interwork -mthum"
 1091      70202D6D 
 1091      6670753D 
 1091      66707634 
 1091      2D73702D 
 1092 01bb 62202D67 		.ascii	"b -ggdb -O2 -fomit-frame-pointer -falign-functions="
 1092      67646220 
 1092      2D4F3220 
 1092      2D666F6D 
 1092      69742D66 
 1093 01ee 3136202D 		.ascii	"16 -fsingle-precision-constant -ffunction-sections "
 1093      6673696E 
 1093      676C652D 
 1093      70726563 
 1093      6973696F 
 1094 0221 2D666461 		.ascii	"-fdata-sections -fno-common\000"
 1094      74612D73 
 1094      65637469 
 1094      6F6E7320 
 1094      2D666E6F 
 1095              	.LASF38:
 1096 023d 64696769 		.ascii	"digital_toggle\000"
 1096      74616C5F 
 1096      746F6767 
 1096      6C6500
 1097              	.LASF24:
 1098 024c 4750494F 		.ascii	"GPIO_TypeDef\000"
 1098      5F547970 
 1098      65446566 
 1098      00
 1099              	.LASF14:
 1100 0259 63686172 		.ascii	"char\000"
 1100      00
 1101              	.LASF34:
 1102 025e 6D6F6465 		.ascii	"mode\000"
 1102      00
 1103              	.LASF43:
 1104 0263 2E2E2F41 		.ascii	"../AithonLibrary/digital.c\000"
ARM GAS  /tmp/cchSs7UB.s 			page 22


 1104      6974686F 
 1104      6E4C6962 
 1104      72617279 
 1104      2F646967 
 1105              	.LASF27:
 1106 027e 696F706F 		.ascii	"ioportid_t\000"
 1106      72746964 
 1106      5F7400
 1107              	.LASF6:
 1108 0289 696E7433 		.ascii	"int32_t\000"
 1108      325F7400 
 1109              	.LASF13:
 1110 0291 73697A65 		.ascii	"sizetype\000"
 1110      74797065 
 1110      00
 1111              	.LASF19:
 1112 029a 50555044 		.ascii	"PUPDR\000"
 1112      5200
 1113              	.LASF32:
 1114 02a0 4F555450 		.ascii	"OUTPUT_OPENDRAIN\000"
 1114      55545F4F 
 1114      50454E44 
 1114      5241494E 
 1114      00
 1115              	.LASF10:
 1116 02b1 6C6F6E67 		.ascii	"long long int\000"
 1116      206C6F6E 
 1116      6720696E 
 1116      7400
 1117              	.LASF29:
 1118 02bf 494E5055 		.ascii	"INPUT_PULLUP\000"
 1118      545F5055 
 1118      4C4C5550 
 1118      00
 1119              	.LASF40:
 1120 02cc 5F706F72 		.ascii	"_ports\000"
 1120      747300
 1121              	.LASF5:
 1122 02d3 75696E74 		.ascii	"uint16_t\000"
 1122      31365F74 
 1122      00
 1123              	.LASF3:
 1124 02dc 73686F72 		.ascii	"short int\000"
 1124      7420696E 
 1124      7400
 1125              	.LASF8:
 1126 02e6 75696E74 		.ascii	"uint32_t\000"
 1126      33325F74 
 1126      00
 1127              	.LASF7:
 1128 02ef 6C6F6E67 		.ascii	"long int\000"
 1128      20696E74 
 1128      00
 1129              	.LASF31:
 1130 02f8 4F555450 		.ascii	"OUTPUT\000"
 1130      555400
 1131              	.LASF1:
ARM GAS  /tmp/cchSs7UB.s 			page 23


 1132 02ff 7369676E 		.ascii	"signed char\000"
 1132      65642063 
 1132      68617200 
 1133              	.LASF12:
 1134 030b 5F426F6F 		.ascii	"_Bool\000"
 1134      6C00
 1135              	.LASF35:
 1136 0311 64696769 		.ascii	"digital_mode\000"
 1136      74616C5F 
 1136      6D6F6465 
 1136      00
 1137              	.LASF21:
 1138 031e 4C434B52 		.ascii	"LCKR\000"
 1138      00
 1139              		.ident	"GCC: (GNU Tools for ARM Embedded Processors) 4.8.3 20131129 (release) [ARM/embedded-4_8-br
ARM GAS  /tmp/cchSs7UB.s 			page 24


DEFINED SYMBOLS
                            *ABS*:0000000000000000 digital.c
     /tmp/cchSs7UB.s:20     .text.digital_mode:0000000000000000 $t
     /tmp/cchSs7UB.s:26     .text.digital_mode:0000000000000000 digital_mode
     /tmp/cchSs7UB.s:52     .text.digital_mode:0000000000000018 $d
     /tmp/cchSs7UB.s:58     .text.digital_get:0000000000000000 $t
     /tmp/cchSs7UB.s:64     .text.digital_get:0000000000000000 digital_get
     /tmp/cchSs7UB.s:86     .text.digital_get:0000000000000018 $d
     /tmp/cchSs7UB.s:92     .text.digital_set:0000000000000000 $t
     /tmp/cchSs7UB.s:98     .text.digital_set:0000000000000000 digital_set
     /tmp/cchSs7UB.s:131    .text.digital_set:000000000000002c $d
     /tmp/cchSs7UB.s:137    .text.digital_toggle:0000000000000000 $t
     /tmp/cchSs7UB.s:143    .text.digital_toggle:0000000000000000 digital_toggle
     /tmp/cchSs7UB.s:166    .text.digital_toggle:000000000000001c $d
     /tmp/cchSs7UB.s:178    .data._pads:0000000000000000 _pads
     /tmp/cchSs7UB.s:201    .data._ports:0000000000000000 _ports
     /tmp/cchSs7UB.s:174    .data._pads:0000000000000000 $d
     /tmp/cchSs7UB.s:197    .data._ports:0000000000000000 $d
                     .debug_frame:0000000000000010 $d
     /tmp/cchSs7UB.s:136    .text.digital_set:0000000000000034 $t
     /tmp/cchSs7UB.s:173    .text.digital_toggle:0000000000000024 $t

UNDEFINED SYMBOLS
_pal_lld_setgroupmode
