ARM GAS  /tmp/ccKTmzKJ.s 			page 1


   1              		.syntax unified
   2              		.cpu cortex-m4
   3              		.eabi_attribute 27, 3
   4              		.fpu fpv4-sp-d16
   5              		.eabi_attribute 20, 1
   6              		.eabi_attribute 21, 1
   7              		.eabi_attribute 23, 3
   8              		.eabi_attribute 24, 1
   9              		.eabi_attribute 25, 1
  10              		.eabi_attribute 26, 1
  11              		.eabi_attribute 30, 2
  12              		.eabi_attribute 34, 1
  13              		.eabi_attribute 18, 4
  14              		.thumb
  15              		.file	"ee.c"
  16              		.text
  17              	.Ltext0:
  18              		.cfi_sections	.debug_frame
  19              		.section	.text._getReadPage,"ax",%progbits
  20              		.align	2
  21              		.p2align 4,,15
  22              		.global	_getReadPage
  23              		.thumb
  24              		.thumb_func
  25              		.type	_getReadPage, %function
  26              	_getReadPage:
  27              	.LFB119:
  28              		.file 1 "../AithonLibrary/ee.c"
  29              		.loc 1 85 0
  30              		.cfi_startproc
  31              		@ args = 0, pretend = 0, frame = 0
  32              		@ frame_needed = 0, uses_anonymous_args = 0
  33              		@ link register save eliminated.
  34              		.loc 1 86 0
  35 0000 0448     		ldr	r0, .L7
  36 0002 C389     		ldrh	r3, [r0, #14]
  37 0004 23B1     		cbz	r3, .L2
  38              	.LBB34:
  39              	.LBB35:
  40              		.loc 1 88 0
  41 0006 C38B     		ldrh	r3, [r0, #30]
  42              		.loc 1 89 0
  43 0008 1030     		adds	r0, r0, #16
  44              		.loc 1 88 0
  45 000a 002B     		cmp	r3, #0
  46              		.loc 1 89 0
  47 000c 18BF     		it	ne
  48 000e 0020     		movne	r0, #0
  49              	.L2:
  50              	.LBE35:
  51              	.LBE34:
  52              		.loc 1 92 0
  53 0010 7047     		bx	lr
  54              	.L8:
  55 0012 00BF     		.align	2
  56              	.L7:
  57 0014 00000000 		.word	.LANCHOR0
ARM GAS  /tmp/ccKTmzKJ.s 			page 2


  58              		.cfi_endproc
  59              	.LFE119:
  60              		.size	_getReadPage, .-_getReadPage
  61 0018 AFF30080 		.section	.text._getWritePage,"ax",%progbits
  61      AFF30080 
  62              		.align	2
  63              		.p2align 4,,15
  64              		.global	_getWritePage
  65              		.thumb
  66              		.thumb_func
  67              		.type	_getWritePage, %function
  68              	_getWritePage:
  69              	.LFB120:
  70              		.loc 1 95 0
  71              		.cfi_startproc
  72              		@ args = 0, pretend = 0, frame = 0
  73              		@ frame_needed = 0, uses_anonymous_args = 0
  74              		@ link register save eliminated.
  75              		.loc 1 96 0
  76 0000 0C4B     		ldr	r3, .L15
  77 0002 DA8B     		ldrh	r2, [r3, #30]
  78 0004 4AB9     		cbnz	r2, .L10
  79              		.loc 1 97 0
  80 0006 D889     		ldrh	r0, [r3, #14]
  81 0008 4EF6EE62 		movw	r2, #61166
  82 000c 03F11001 		add	r1, r3, #16
  83 0010 9042     		cmp	r0, r2
  84 0012 14BF     		ite	ne
  85 0014 0846     		movne	r0, r1
  86 0016 1846     		moveq	r0, r3
  87 0018 7047     		bx	lr
  88              	.L10:
  89              		.loc 1 98 0
  90 001a D989     		ldrh	r1, [r3, #14]
  91 001c 41B9     		cbnz	r1, .L13
  92              		.loc 1 99 0
  93 001e 03F11001 		add	r1, r3, #16
  94 0022 4EF6EE60 		movw	r0, #61166
  95 0026 8242     		cmp	r2, r0
  96 0028 14BF     		ite	ne
  97 002a 1846     		movne	r0, r3
  98 002c 0846     		moveq	r0, r1
  99 002e 7047     		bx	lr
 100              	.L13:
 101              		.loc 1 101 0
 102 0030 0020     		movs	r0, #0
 103              		.loc 1 102 0
 104 0032 7047     		bx	lr
 105              	.L16:
 106              		.align	2
 107              	.L15:
 108 0034 00000000 		.word	.LANCHOR0
 109              		.cfi_endproc
 110              	.LFE120:
 111              		.size	_getWritePage, .-_getWritePage
 112 0038 AFF30080 		.section	.text._verifyAndWrite,"ax",%progbits
 112      AFF30080 
ARM GAS  /tmp/ccKTmzKJ.s 			page 3


 113              		.align	2
 114              		.p2align 4,,15
 115              		.global	_verifyAndWrite
 116              		.thumb
 117              		.thumb_func
 118              		.type	_verifyAndWrite, %function
 119              	_verifyAndWrite:
 120              	.LFB121:
 121              		.loc 1 105 0
 122              		.cfi_startproc
 123              		@ args = 0, pretend = 0, frame = 0
 124              		@ frame_needed = 0, uses_anonymous_args = 0
 125              	.LVL0:
 126              	.LBB36:
 127              	.LBB37:
 128              		.loc 1 96 0
 129 0000 344B     		ldr	r3, .L43
 130 0002 DA8B     		ldrh	r2, [r3, #30]
 131              	.LBE37:
 132              	.LBE36:
 133              		.loc 1 105 0
 134 0004 2DE9F041 		push	{r4, r5, r6, r7, r8, lr}
 135              		.cfi_def_cfa_offset 24
 136              		.cfi_offset 4, -24
 137              		.cfi_offset 5, -20
 138              		.cfi_offset 6, -16
 139              		.cfi_offset 7, -12
 140              		.cfi_offset 8, -8
 141              		.cfi_offset 14, -4
 142              		.loc 1 105 0
 143 0008 0746     		mov	r7, r0
 144              	.LBB43:
 145              	.LBB38:
 146              		.loc 1 96 0
 147 000a 2ABB     		cbnz	r2, .L18
 148              	.LBE38:
 149              	.LBE43:
 150              		.loc 1 115 0
 151 000c 324E     		ldr	r6, .L43+4
 152              	.LBB44:
 153              	.LBB39:
 154              		.loc 1 97 0
 155 000e B3F80E80 		ldrh	r8, [r3, #14]
 156              	.LBE39:
 157              	.LBE44:
 158              		.loc 1 115 0
 159 0012 3468     		ldr	r4, [r6]
 160              	.LBB45:
 161              	.LBB40:
 162              		.loc 1 97 0
 163 0014 4EF6EE62 		movw	r2, #61166
 164 0018 03F11000 		add	r0, r3, #16
 165              	.LVL1:
 166 001c 9045     		cmp	r8, r2
 167 001e 0CBF     		ite	eq
 168 0020 9846     		moveq	r8, r3
 169 0022 8046     		movne	r8, r0
ARM GAS  /tmp/ccKTmzKJ.s 			page 4


 170              	.LBE40:
 171              	.LBE45:
 172              		.loc 1 115 0
 173 0024 34BB     		cbnz	r4, .L39
 174              	.L28:
 175              		.loc 1 118 0
 176 0026 D8F80420 		ldr	r2, [r8, #4]
 177 002a D8F80850 		ldr	r5, [r8, #8]
 178 002e 141D     		adds	r4, r2, #4
 179 0030 AC42     		cmp	r4, r5
 180 0032 3460     		str	r4, [r6]
 181 0034 33D2     		bcs	.L32
 182              		.loc 1 120 0
 183 0036 5368     		ldr	r3, [r2, #4]
 184 0038 0133     		adds	r3, r3, #1
 185 003a 30D0     		beq	.L32
 186 003c 0832     		adds	r2, r2, #8
 187 003e 04E0     		b	.L24
 188              	.L26:
 189 0040 53F8044B 		ldr	r4, [r3], #4
 190 0044 0134     		adds	r4, r4, #1
 191 0046 03D0     		beq	.L38
 192 0048 1A46     		mov	r2, r3
 193              	.L24:
 194              		.loc 1 118 0
 195 004a AA42     		cmp	r2, r5
 196              		.loc 1 120 0
 197 004c 1346     		mov	r3, r2
 198              		.loc 1 118 0
 199 004e F7D3     		bcc	.L26
 200              	.L38:
 201 0050 1446     		mov	r4, r2
 202 0052 3260     		str	r2, [r6]
 203 0054 1046     		mov	r0, r2
 204 0056 15E0     		b	.L23
 205              	.LVL2:
 206              	.L18:
 207              	.LBB46:
 208              	.LBB41:
 209              		.loc 1 98 0
 210 0058 D889     		ldrh	r0, [r3, #14]
 211              	.LVL3:
 212 005a C8B9     		cbnz	r0, .L30
 213              	.LBE41:
 214              	.LBE46:
 215              		.loc 1 115 0
 216 005c 1E4E     		ldr	r6, .L43+4
 217 005e 3468     		ldr	r4, [r6]
 218              	.LBB47:
 219              	.LBB42:
 220              		.loc 1 99 0
 221 0060 4EF6EE68 		movw	r8, #61166
 222 0064 03F11000 		add	r0, r3, #16
 223 0068 4245     		cmp	r2, r8
 224 006a 14BF     		ite	ne
 225 006c 9846     		movne	r8, r3
 226 006e 8046     		moveq	r8, r0
ARM GAS  /tmp/ccKTmzKJ.s 			page 5


 227              	.LBE42:
 228              	.LBE47:
 229              		.loc 1 115 0
 230 0070 002C     		cmp	r4, #0
 231 0072 D8D0     		beq	.L28
 232              	.L39:
 233              		.loc 1 127 0
 234 0074 D8F80430 		ldr	r3, [r8, #4]
 235 0078 9C42     		cmp	r4, r3
 236 007a 0CD2     		bcs	.L40
 237              	.L27:
 238              		.loc 1 131 0
 239 007c 0433     		adds	r3, r3, #4
 240 007e 1C46     		mov	r4, r3
 241 0080 3360     		str	r3, [r6]
 242 0082 1846     		mov	r0, r3
 243              	.L23:
 244              		.loc 1 135 0
 245 0084 2368     		ldr	r3, [r4]
 246 0086 0133     		adds	r3, r3, #1
 247 0088 0BD0     		beq	.L41
 248              		.loc 1 145 0
 249 008a EF20     		movs	r0, #239
 250 008c BDE8F081 		pop	{r4, r5, r6, r7, r8, pc}
 251              	.L30:
 252              		.loc 1 109 0
 253 0090 AB20     		movs	r0, #171
 254 0092 BDE8F081 		pop	{r4, r5, r6, r7, r8, pc}
 255              	.L40:
 256              		.loc 1 127 0 discriminator 1
 257 0096 D8F80820 		ldr	r2, [r8, #8]
 258 009a 9442     		cmp	r4, r2
 259 009c EED2     		bcs	.L27
 260              	.L32:
 261              		.loc 1 120 0
 262 009e 2046     		mov	r0, r4
 263 00a0 F0E7     		b	.L23
 264              	.L41:
 265              	.LBB48:
 266              		.loc 1 137 0
 267 00a2 FFF7FEFF 		bl	FLASH_ProgramHalfWord
 268              	.LVL4:
 269 00a6 0828     		cmp	r0, #8
 270 00a8 01D0     		beq	.L42
 271              	.LVL5:
 272              	.L36:
 273              	.LBE48:
 274              		.loc 1 146 0
 275 00aa BDE8F081 		pop	{r4, r5, r6, r7, r8, pc}
 276              	.LVL6:
 277              	.L42:
 278              	.LBB49:
 279              		.loc 1 138 0
 280 00ae 3068     		ldr	r0, [r6]
 281              	.LVL7:
 282 00b0 094C     		ldr	r4, .L43+4
 283 00b2 0230     		adds	r0, r0, #2
ARM GAS  /tmp/ccKTmzKJ.s 			page 6


 284 00b4 3946     		mov	r1, r7
 285 00b6 FFF7FEFF 		bl	FLASH_ProgramHalfWord
 286              	.LVL8:
 287 00ba 0828     		cmp	r0, #8
 288 00bc F5D1     		bne	.L36
 289              	.LBE49:
 290              		.loc 1 139 0
 291 00be 2368     		ldr	r3, [r4]
 292 00c0 D8F80410 		ldr	r1, [r8, #4]
 293 00c4 054A     		ldr	r2, .L43+8
 294 00c6 591A     		subs	r1, r3, r1
 295              		.loc 1 140 0
 296 00c8 0433     		adds	r3, r3, #4
 297 00ca 2360     		str	r3, [r4]
 298              		.loc 1 139 0
 299 00cc 22F81710 		strh	r1, [r2, r7, lsl #1]	@ movhi
 300              		.loc 1 141 0
 301 00d0 BDE8F081 		pop	{r4, r5, r6, r7, r8, pc}
 302              	.L44:
 303              		.align	2
 304              	.L43:
 305 00d4 00000000 		.word	.LANCHOR0
 306 00d8 00000000 		.word	.LANCHOR1
 307 00dc 00000000 		.word	.LANCHOR2
 308              		.cfi_endproc
 309              	.LFE121:
 310              		.size	_verifyAndWrite, .-_verifyAndWrite
 311              		.section	.text._read,"ax",%progbits
 312              		.align	2
 313              		.p2align 4,,15
 314              		.global	_read
 315              		.thumb
 316              		.thumb_func
 317              		.type	_read, %function
 318              	_read:
 319              	.LFB124:
 320              		.loc 1 270 0
 321              		.cfi_startproc
 322              		@ args = 0, pretend = 0, frame = 0
 323              		@ frame_needed = 0, uses_anonymous_args = 0
 324              		@ link register save eliminated.
 325              	.LVL9:
 326              	.LBB54:
 327              	.LBB55:
 328              		.loc 1 86 0
 329 0000 164B     		ldr	r3, .L58
 330 0002 DA89     		ldrh	r2, [r3, #14]
 331              	.LBE55:
 332              	.LBE54:
 333              		.loc 1 270 0
 334 0004 70B4     		push	{r4, r5, r6}
 335              		.cfi_def_cfa_offset 12
 336              		.cfi_offset 4, -12
 337              		.cfi_offset 5, -8
 338              		.cfi_offset 6, -4
 339              	.LBB59:
 340              	.LBB58:
ARM GAS  /tmp/ccKTmzKJ.s 			page 7


 341              		.loc 1 86 0
 342 0006 12B1     		cbz	r2, .L46
 343              	.LBB56:
 344              	.LBB57:
 345              		.loc 1 88 0
 346 0008 DA8B     		ldrh	r2, [r3, #30]
 347 000a 22BB     		cbnz	r2, .L55
 348              		.loc 1 89 0
 349 000c 1033     		adds	r3, r3, #16
 350              	.L46:
 351              	.LBE57:
 352              	.LBE56:
 353              	.LBE58:
 354              	.LBE59:
 355              		.loc 1 278 0
 356 000e 144D     		ldr	r5, .L58+4
 357              		.loc 1 277 0
 358 0010 9C68     		ldr	r4, [r3, #8]
 359              	.LVL10:
 360              		.loc 1 278 0
 361 0012 35F81020 		ldrh	r2, [r5, r0, lsl #1]
 362              		.loc 1 280 0
 363 0016 5E68     		ldr	r6, [r3, #4]
 364              		.loc 1 278 0
 365 0018 BAB9     		cbnz	r2, .L48
 366              		.loc 1 277 0
 367 001a 631E     		subs	r3, r4, #1
 368              	.LVL11:
 369 001c B41C     		adds	r4, r6, #2
 370              	.L49:
 371              		.loc 1 282 0 discriminator 1
 372 001e A342     		cmp	r3, r4
 373 0020 03D8     		bhi	.L53
 374 0022 15E0     		b	.L56
 375              	.L52:
 376              		.loc 1 282 0 is_stmt 0
 377 0024 043B     		subs	r3, r3, #4
 378              	.LVL12:
 379 0026 A342     		cmp	r3, r4
 380 0028 12D9     		bls	.L56
 381              	.L53:
 382              		.loc 1 284 0 is_stmt 1
 383 002a 1A88     		ldrh	r2, [r3]
 384 002c 92B2     		uxth	r2, r2
 385 002e 8242     		cmp	r2, r0
 386 0030 F8D1     		bne	.L52
 387              		.loc 1 286 0
 388 0032 C6F57F46 		rsb	r6, r6, #65280
 389 0036 FE36     		adds	r6, r6, #254
 390 0038 1E44     		add	r6, r6, r3
 391 003a 25F81060 		strh	r6, [r5, r0, lsl #1]	@ movhi
 392              		.loc 1 287 0
 393 003e 33F8023C 		ldrh	r3, [r3, #-2]
 394              	.LVL13:
 395 0042 0B80     		strh	r3, [r1]	@ movhi
 396              		.loc 1 288 0
 397 0044 0020     		movs	r0, #0
ARM GAS  /tmp/ccKTmzKJ.s 			page 8


 398              	.LVL14:
 399              	.L47:
 400              		.loc 1 293 0
 401 0046 70BC     		pop	{r4, r5, r6}
 402 0048 7047     		bx	lr
 403              	.LVL15:
 404              	.L48:
 405              		.loc 1 280 0
 406 004a B41C     		adds	r4, r6, #2
 407              	.LVL16:
 408 004c 1319     		adds	r3, r2, r4
 409              	.LVL17:
 410 004e E6E7     		b	.L49
 411              	.L56:
 412              		.loc 1 292 0
 413 0050 0120     		movs	r0, #1
 414              	.LVL18:
 415              		.loc 1 293 0
 416 0052 70BC     		pop	{r4, r5, r6}
 417 0054 7047     		bx	lr
 418              	.LVL19:
 419              	.L55:
 420              		.loc 1 274 0
 421 0056 AB20     		movs	r0, #171
 422              	.LVL20:
 423 0058 F5E7     		b	.L47
 424              	.L59:
 425 005a 00BF     		.align	2
 426              	.L58:
 427 005c 00000000 		.word	.LANCHOR0
 428 0060 00000000 		.word	.LANCHOR2
 429              		.cfi_endproc
 430              	.LFE124:
 431              		.size	_read, .-_read
 432 0064 AFF30080 		.section	.text._pageTransfer,"ax",%progbits
 432      AFF30080 
 432      AFF30080 
 433              		.align	2
 434              		.p2align 4,,15
 435              		.global	_pageTransfer
 436              		.thumb
 437              		.thumb_func
 438              		.type	_pageTransfer, %function
 439              	_pageTransfer:
 440              	.LFB122:
 441              		.loc 1 149 0
 442              		.cfi_startproc
 443              		@ args = 0, pretend = 0, frame = 8
 444              		@ frame_needed = 0, uses_anonymous_args = 0
 445              	.LVL21:
 446 0000 2DE9F041 		push	{r4, r5, r6, r7, r8, lr}
 447              		.cfi_def_cfa_offset 24
 448              		.cfi_offset 4, -24
 449              		.cfi_offset 5, -20
 450              		.cfi_offset 6, -16
 451              		.cfi_offset 7, -12
 452              		.cfi_offset 8, -8
ARM GAS  /tmp/ccKTmzKJ.s 			page 9


 453              		.cfi_offset 14, -4
 454 0004 2F4B     		ldr	r3, .L85
 455 0006 82B0     		sub	sp, sp, #8
 456              		.cfi_def_cfa_offset 32
 457              		.loc 1 149 0
 458 0008 0646     		mov	r6, r0
 459 000a 0D46     		mov	r5, r1
 460 000c 03F50874 		add	r4, r3, #544
 461              		.loc 1 152 0
 462 0010 0022     		movs	r2, #0
 463              	.LVL22:
 464              	.L62:
 465              		.loc 1 152 0 is_stmt 0 discriminator 2
 466 0012 23F8022F 		strh	r2, [r3, #2]!	@ movhi
 467              		.loc 1 151 0 is_stmt 1 discriminator 2
 468 0016 A342     		cmp	r3, r4
 469 0018 FBD1     		bne	.L62
 470              	.LBB72:
 471              	.LBB73:
 472              		.loc 1 86 0
 473 001a 2B4B     		ldr	r3, .L85+4
 474 001c DA89     		ldrh	r2, [r3, #14]
 475 001e 22B1     		cbz	r2, .L70
 476              	.LBB74:
 477              	.LBB75:
 478              		.loc 1 88 0
 479 0020 DA8B     		ldrh	r2, [r3, #30]
 480 0022 C2B9     		cbnz	r2, .L71
 481              		.loc 1 89 0
 482 0024 03F11007 		add	r7, r3, #16
 483 0028 00E0     		b	.L63
 484              	.L70:
 485              	.LBE75:
 486              	.LBE74:
 487              		.loc 1 87 0
 488 002a 1F46     		mov	r7, r3
 489              	.L63:
 490              	.LBE73:
 491              	.LBE72:
 492              		.loc 1 160 0
 493 002c 264A     		ldr	r2, .L85+4
 494 002e 1978     		ldrb	r1, [r3]	@ zero_extendqisi2
 495              	.LVL23:
 496 0030 97F80080 		ldrb	r8, [r7]	@ zero_extendqisi2
 497 0034 02F11003 		add	r3, r2, #16
 498 0038 8845     		cmp	r8, r1
 499 003a 14BF     		ite	ne
 500 003c 9046     		movne	r8, r2
 501 003e 9846     		moveq	r8, r3
 502              	.LVL24:
 503              	.LBB76:
 504              		.loc 1 163 0
 505 0040 4EF6EE61 		movw	r1, #61166
 506 0044 D8F80400 		ldr	r0, [r8, #4]
 507              	.LVL25:
 508 0048 FFF7FEFF 		bl	FLASH_ProgramHalfWord
 509              	.LVL26:
ARM GAS  /tmp/ccKTmzKJ.s 			page 10


 510 004c 0828     		cmp	r0, #8
 511 004e 04D0     		beq	.L84
 512              	.LVL27:
 513              	.L64:
 514              	.LBE76:
 515              		.loc 1 192 0
 516 0050 02B0     		add	sp, sp, #8
 517              		@ sp needed
 518 0052 BDE8F081 		pop	{r4, r5, r6, r7, r8, pc}
 519              	.LVL28:
 520              	.L71:
 521              		.loc 1 157 0
 522 0056 AB20     		movs	r0, #171
 523              	.LVL29:
 524 0058 FAE7     		b	.L64
 525              	.LVL30:
 526              	.L84:
 527              	.LBB77:
 528              		.loc 1 163 0 discriminator 2
 529 005a 4EF6EE63 		movw	r3, #61166
 530              	.LBE77:
 531              	.LBB78:
 532              		.loc 1 166 0 discriminator 2
 533 005e 2946     		mov	r1, r5
 534              	.LBE78:
 535              	.LBB79:
 536              		.loc 1 163 0 discriminator 2
 537 0060 A8F80E30 		strh	r3, [r8, #14]	@ movhi
 538              	.LBE79:
 539              	.LBB80:
 540              		.loc 1 166 0 discriminator 2
 541 0064 3046     		mov	r0, r6
 542              	.LVL31:
 543 0066 FFF7FEFF 		bl	_verifyAndWrite
 544              	.LVL32:
 545 006a 0828     		cmp	r0, #8
 546 006c F0D1     		bne	.L64
 547              		.loc 1 166 0 is_stmt 0
 548 006e 0024     		movs	r4, #0
 549              	.LVL33:
 550              	.L69:
 551 0070 A5B2     		uxth	r5, r4
 552              	.LVL34:
 553              	.LBE80:
 554              		.loc 1 173 0 is_stmt 1
 555 0072 AE42     		cmp	r6, r5
 556              	.LBB81:
 557              	.LBB82:
 558              	.LBB83:
 559              		.loc 1 332 0
 560 0074 0DF10601 		add	r1, sp, #6
 561              	.LVL35:
 562 0078 E8B2     		uxtb	r0, r5
 563 007a 04F10104 		add	r4, r4, #1
 564              	.LVL36:
 565              	.LBE83:
 566              	.LBE82:
ARM GAS  /tmp/ccKTmzKJ.s 			page 11


 567              	.LBE81:
 568              		.loc 1 173 0
 569 007e 0AD0     		beq	.L66
 570              	.LBB88:
 571              	.LBB85:
 572              	.LBB84:
 573              		.loc 1 332 0
 574 0080 FFF7FEFF 		bl	_read
 575              	.LVL37:
 576              	.LBE84:
 577              	.LBE85:
 578              		.loc 1 177 0
 579 0084 0128     		cmp	r0, #1
 580              	.LBB86:
 581              		.loc 1 180 0
 582 0086 2846     		mov	r0, r5
 583              	.LBE86:
 584              		.loc 1 177 0
 585 0088 05D0     		beq	.L66
 586              	.LBB87:
 587              		.loc 1 180 0
 588 008a BDF80610 		ldrh	r1, [sp, #6]
 589 008e FFF7FEFF 		bl	_verifyAndWrite
 590              	.LVL38:
 591 0092 0828     		cmp	r0, #8
 592 0094 DCD1     		bne	.L64
 593              	.LVL39:
 594              	.L66:
 595              	.LBE87:
 596              	.LBE88:
 597              		.loc 1 170 0
 598 0096 B4F5887F 		cmp	r4, #272
 599 009a E9D1     		bne	.L69
 600              	.LBB89:
 601              		.loc 1 186 0
 602 009c B889     		ldrh	r0, [r7, #12]
 603 009e 0221     		movs	r1, #2
 604 00a0 FFF7FEFF 		bl	FLASH_EraseSector
 605              	.LVL40:
 606 00a4 0828     		cmp	r0, #8
 607 00a6 D3D1     		bne	.L64
 608              		.loc 1 186 0 is_stmt 0 discriminator 2
 609 00a8 FF23     		movs	r3, #255
 610              	.LBE89:
 611              	.LBB90:
 612              		.loc 1 189 0 is_stmt 1 discriminator 2
 613 00aa D8F80400 		ldr	r0, [r8, #4]
 614              	.LVL41:
 615              	.LBE90:
 616              	.LBB91:
 617              		.loc 1 186 0 discriminator 2
 618 00ae FB81     		strh	r3, [r7, #14]	@ movhi
 619              	.LBE91:
 620              	.LBB92:
 621              		.loc 1 189 0 discriminator 2
 622 00b0 0021     		movs	r1, #0
 623 00b2 FFF7FEFF 		bl	FLASH_ProgramHalfWord
ARM GAS  /tmp/ccKTmzKJ.s 			page 12


 624              	.LVL42:
 625 00b6 0828     		cmp	r0, #8
 626 00b8 CAD1     		bne	.L64
 627 00ba 0023     		movs	r3, #0
 628 00bc A8F80E30 		strh	r3, [r8, #14]	@ movhi
 629              	.LBE92:
 630              		.loc 1 191 0 discriminator 2
 631 00c0 C6E7     		b	.L64
 632              	.L86:
 633 00c2 00BF     		.align	2
 634              	.L85:
 635 00c4 FEFFFFFF 		.word	.LANCHOR2-2
 636 00c8 00000000 		.word	.LANCHOR0
 637              		.cfi_endproc
 638              	.LFE122:
 639              		.size	_pageTransfer, .-_pageTransfer
 640 00cc AFF30080 		.section	.text._ee_init,"ax",%progbits
 641              		.align	2
 642              		.p2align 4,,15
 643              		.global	_ee_init
 644              		.thumb
 645              		.thumb_func
 646              		.type	_ee_init, %function
 647              	_ee_init:
 648              	.LFB123:
 649              		.loc 1 195 0
 650              		.cfi_startproc
 651              		@ args = 0, pretend = 0, frame = 8
 652              		@ frame_needed = 0, uses_anonymous_args = 0
 653 0000 2DE9F041 		push	{r4, r5, r6, r7, r8, lr}
 654              		.cfi_def_cfa_offset 24
 655              		.cfi_offset 4, -24
 656              		.cfi_offset 5, -20
 657              		.cfi_offset 6, -16
 658              		.cfi_offset 7, -12
 659              		.cfi_offset 8, -8
 660              		.cfi_offset 14, -4
 661 0004 82B0     		sub	sp, sp, #8
 662              		.cfi_def_cfa_offset 32
 663              		.loc 1 196 0
 664 0006 FFF7FEFF 		bl	FLASH_Unlock
 665              	.LVL43:
 666              		.loc 1 198 0
 667 000a 6048     		ldr	r0, .L128
 668 000c 604B     		ldr	r3, .L128+4
 669 000e D0F804E0 		ldr	lr, [r0, #4]
 670              		.loc 1 199 0
 671 0012 4469     		ldr	r4, [r0, #20]
 672              		.loc 1 198 0
 673 0014 BEF80020 		ldrh	r2, [lr]
 674 0018 C281     		strh	r2, [r0, #14]	@ movhi
 675              		.loc 1 199 0
 676 001a 2288     		ldrh	r2, [r4]
 677 001c C283     		strh	r2, [r0, #30]	@ movhi
 678              	.LVL44:
 679 001e 03F50871 		add	r1, r3, #544
 680              		.loc 1 203 0
ARM GAS  /tmp/ccKTmzKJ.s 			page 13


 681 0022 0022     		movs	r2, #0
 682              	.LVL45:
 683              	.L89:
 684              		.loc 1 203 0 is_stmt 0 discriminator 2
 685 0024 23F8022F 		strh	r2, [r3, #2]!	@ movhi
 686              		.loc 1 202 0 is_stmt 1 discriminator 2
 687 0028 8B42     		cmp	r3, r1
 688 002a FBD1     		bne	.L89
 689              		.loc 1 205 0
 690 002c C389     		ldrh	r3, [r0, #14]
 691 002e 4FF6FF72 		movw	r2, #65535
 692 0032 9342     		cmp	r3, r2
 693 0034 04D0     		beq	.L90
 694              		.loc 1 205 0 is_stmt 0 discriminator 1
 695 0036 4EF6EE62 		movw	r2, #61166
 696 003a 9342     		cmp	r3, r2
 697 003c 00D0     		beq	.L90
 698 003e 4BB9     		cbnz	r3, .L91
 699              	.L90:
 700              		.loc 1 205 0 discriminator 2
 701 0040 C28B     		ldrh	r2, [r0, #30]
 702 0042 4FF6FF71 		movw	r1, #65535
 703 0046 8A42     		cmp	r2, r1
 704 0048 0ED0     		beq	.L92
 705              		.loc 1 205 0 discriminator 1
 706 004a 4EF6EE61 		movw	r1, #61166
 707 004e 8A42     		cmp	r2, r1
 708 0050 0AD0     		beq	.L92
 709 0052 4AB1     		cbz	r2, .L92
 710              	.L91:
 711              	.LBB93:
 712              		.loc 1 208 0 is_stmt 1
 713 0054 8089     		ldrh	r0, [r0, #12]
 714 0056 4D4C     		ldr	r4, .L128
 715 0058 0221     		movs	r1, #2
 716 005a FFF7FEFF 		bl	FLASH_EraseSector
 717              	.LVL46:
 718 005e 0828     		cmp	r0, #8
 719 0060 37D0     		beq	.L123
 720              	.LVL47:
 721              	.L94:
 722              	.LBE93:
 723              		.loc 1 267 0
 724 0062 02B0     		add	sp, sp, #8
 725              		@ sp needed
 726 0064 BDE8F081 		pop	{r4, r5, r6, r7, r8, pc}
 727              	.L92:
 728              		.loc 1 205 0 discriminator 2
 729 0068 9342     		cmp	r3, r2
 730 006a F3D0     		beq	.L91
 731              		.loc 1 210 0
 732 006c 4FF6FF71 		movw	r1, #65535
 733 0070 8B42     		cmp	r3, r1
 734 0072 6FD0     		beq	.L124
 735              		.loc 1 220 0
 736 0074 8A42     		cmp	r2, r1
 737 0076 56D0     		beq	.L125
ARM GAS  /tmp/ccKTmzKJ.s 			page 14


 738              	.LBB94:
 739              		.loc 1 234 0
 740 0078 4EF6EE62 		movw	r2, #61166
 741 007c 9342     		cmp	r3, r2
 742 007e 4DD0     		beq	.L126
 743              		.loc 1 242 0
 744 0080 424F     		ldr	r7, .L128
 745              		.loc 1 241 0
 746 0082 07F11008 		add	r8, r7, #16
 747              	.L99:
 748              	.LVL48:
 749 0086 0024     		movs	r4, #0
 750              		.loc 1 247 0
 751 0088 4FF6FF76 		movw	r6, #65535
 752 008c 04E0     		b	.L104
 753              	.LVL49:
 754              	.L102:
 755 008e D7F804E0 		ldr	lr, [r7, #4]
 756              	.L101:
 757              	.LVL50:
 758              		.loc 1 248 0
 759 0092 B4F5887F 		cmp	r4, #272
 760 0096 2ED0     		beq	.L127
 761              	.LVL51:
 762              	.L104:
 763              		.loc 1 250 0
 764 0098 BEF80630 		ldrh	r3, [lr, #6]
 765 009c A5B2     		uxth	r5, r4
 766              	.LVL52:
 767 009e 9BB2     		uxth	r3, r3
 768 00a0 AB42     		cmp	r3, r5
 769              		.loc 1 251 0
 770 00a2 08BF     		it	eq
 771 00a4 AEB2     		uxtheq	r6, r5
 772              	.LVL53:
 773              		.loc 1 253 0
 774 00a6 33B2     		sxth	r3, r6
 775 00a8 9C42     		cmp	r4, r3
 776              	.LBB95:
 777              	.LBB96:
 778              	.LBB97:
 779              		.loc 1 332 0
 780 00aa 0DF10601 		add	r1, sp, #6
 781              	.LVL54:
 782 00ae E8B2     		uxtb	r0, r5
 783 00b0 04F10104 		add	r4, r4, #1
 784              	.LVL55:
 785              	.LBE97:
 786              	.LBE96:
 787              	.LBE95:
 788              		.loc 1 253 0
 789 00b4 EDD0     		beq	.L101
 790              	.LBB102:
 791              	.LBB99:
 792              	.LBB98:
 793              		.loc 1 332 0
 794 00b6 FFF7FEFF 		bl	_read
ARM GAS  /tmp/ccKTmzKJ.s 			page 15


 795              	.LVL56:
 796              	.LBE98:
 797              	.LBE99:
 798              		.loc 1 258 0
 799 00ba 0128     		cmp	r0, #1
 800              	.LBB100:
 801              		.loc 1 259 0
 802 00bc 2846     		mov	r0, r5
 803              	.LBE100:
 804              		.loc 1 258 0
 805 00be E6D0     		beq	.L102
 806              	.LBB101:
 807              		.loc 1 259 0
 808 00c0 BDF80610 		ldrh	r1, [sp, #6]
 809 00c4 FFF7FEFF 		bl	_verifyAndWrite
 810              	.LVL57:
 811 00c8 0828     		cmp	r0, #8
 812 00ca E0D0     		beq	.L102
 813              	.LBE101:
 814              	.LBE102:
 815              	.LBE94:
 816              		.loc 1 267 0
 817 00cc 02B0     		add	sp, sp, #8
 818              		@ sp needed
 819 00ce BDE8F081 		pop	{r4, r5, r6, r7, r8, pc}
 820              	.LVL58:
 821              	.L123:
 822              	.LBB107:
 823              		.loc 1 208 0 discriminator 2
 824 00d2 FF25     		movs	r5, #255
 825              	.LBE107:
 826              	.LBB108:
 827 00d4 6068     		ldr	r0, [r4, #4]
 828              	.LVL59:
 829              	.LBE108:
 830              	.LBB109:
 831 00d6 E581     		strh	r5, [r4, #14]	@ movhi
 832              	.LBE109:
 833              	.LBB110:
 834 00d8 0021     		movs	r1, #0
 835 00da FFF7FEFF 		bl	FLASH_ProgramHalfWord
 836              	.LVL60:
 837 00de 0828     		cmp	r0, #8
 838 00e0 BFD1     		bne	.L94
 839 00e2 0023     		movs	r3, #0
 840              	.LBE110:
 841              	.LBB111:
 842 00e4 A08B     		ldrh	r0, [r4, #28]
 843              	.LVL61:
 844              	.LBE111:
 845              	.LBB112:
 846 00e6 E381     		strh	r3, [r4, #14]	@ movhi
 847              	.LBE112:
 848              	.LBB113:
 849 00e8 0221     		movs	r1, #2
 850 00ea FFF7FEFF 		bl	FLASH_EraseSector
 851              	.LVL62:
ARM GAS  /tmp/ccKTmzKJ.s 			page 16


 852 00ee 0828     		cmp	r0, #8
 853 00f0 B7D1     		bne	.L94
 854 00f2 E583     		strh	r5, [r4, #30]	@ movhi
 855              	.LBE113:
 856 00f4 B5E7     		b	.L94
 857              	.LVL63:
 858              	.L127:
 859              	.LBB114:
 860              	.LBB103:
 861              		.loc 1 262 0
 862 00f6 7046     		mov	r0, lr
 863 00f8 0021     		movs	r1, #0
 864 00fa FFF7FEFF 		bl	FLASH_ProgramHalfWord
 865              	.LVL64:
 866 00fe 0828     		cmp	r0, #8
 867 0100 AFD1     		bne	.L94
 868              		.loc 1 262 0 is_stmt 0 discriminator 2
 869 0102 0023     		movs	r3, #0
 870              	.LBE103:
 871              	.LBB104:
 872              		.loc 1 263 0 is_stmt 1 discriminator 2
 873 0104 B8F80C00 		ldrh	r0, [r8, #12]
 874              	.LVL65:
 875              	.LBE104:
 876              	.LBB105:
 877              		.loc 1 262 0 discriminator 2
 878 0108 FB81     		strh	r3, [r7, #14]	@ movhi
 879              	.LBE105:
 880              	.LBB106:
 881              		.loc 1 263 0 discriminator 2
 882 010a 0221     		movs	r1, #2
 883 010c FFF7FEFF 		bl	FLASH_EraseSector
 884              	.LVL66:
 885 0110 0828     		cmp	r0, #8
 886 0112 04BF     		itt	eq
 887 0114 FF23     		moveq	r3, #255
 888 0116 A8F80E30 		strheq	r3, [r8, #14]	@ movhi
 889 011a A2E7     		b	.L94
 890              	.LVL67:
 891              	.L126:
 892              	.LBE106:
 893              		.loc 1 237 0
 894 011c 1D4F     		ldr	r7, .L128+8
 895              		.loc 1 234 0
 896 011e A646     		mov	lr, r4
 897              		.loc 1 236 0
 898 0120 A7F11008 		sub	r8, r7, #16
 899 0124 AFE7     		b	.L99
 900              	.L125:
 901              	.LBE114:
 902              	.LBB115:
 903              		.loc 1 223 0
 904 0126 808B     		ldrh	r0, [r0, #28]
 905 0128 184C     		ldr	r4, .L128
 906 012a 0221     		movs	r1, #2
 907 012c FFF7FEFF 		bl	FLASH_EraseSector
 908              	.LVL68:
ARM GAS  /tmp/ccKTmzKJ.s 			page 17


 909 0130 0828     		cmp	r0, #8
 910 0132 96D1     		bne	.L94
 911              	.LBE115:
 912              		.loc 1 225 0 discriminator 2
 913 0134 E289     		ldrh	r2, [r4, #14]
 914 0136 4EF6EE63 		movw	r3, #61166
 915              	.LBB116:
 916              		.loc 1 223 0 discriminator 2
 917 013a FF21     		movs	r1, #255
 918              	.LBE116:
 919              		.loc 1 225 0 discriminator 2
 920 013c 9A42     		cmp	r2, r3
 921              	.LBB117:
 922              		.loc 1 223 0 discriminator 2
 923 013e E183     		strh	r1, [r4, #30]	@ movhi
 924              	.LBE117:
 925              		.loc 1 225 0 discriminator 2
 926 0140 17D1     		bne	.L98
 927              	.LBB118:
 928              		.loc 1 227 0
 929 0142 6068     		ldr	r0, [r4, #4]
 930              	.LVL69:
 931 0144 0021     		movs	r1, #0
 932 0146 FFF7FEFF 		bl	FLASH_ProgramHalfWord
 933              	.LVL70:
 934 014a 0828     		cmp	r0, #8
 935 014c 89D1     		bne	.L94
 936              		.loc 1 227 0 is_stmt 0 discriminator 2
 937 014e 0023     		movs	r3, #0
 938 0150 E381     		strh	r3, [r4, #14]	@ movhi
 939 0152 86E7     		b	.L94
 940              	.LVL71:
 941              	.L124:
 942              	.LBE118:
 943              	.LBB119:
 944              		.loc 1 213 0 is_stmt 1
 945 0154 8089     		ldrh	r0, [r0, #12]
 946 0156 0D4C     		ldr	r4, .L128
 947 0158 0221     		movs	r1, #2
 948 015a FFF7FEFF 		bl	FLASH_EraseSector
 949              	.LVL72:
 950 015e 0828     		cmp	r0, #8
 951 0160 7FF47FAF 		bne	.L94
 952              	.LBE119:
 953              		.loc 1 215 0 discriminator 2
 954 0164 E28B     		ldrh	r2, [r4, #30]
 955 0166 4EF6EE63 		movw	r3, #61166
 956              	.LBB120:
 957              		.loc 1 213 0 discriminator 2
 958 016a FF21     		movs	r1, #255
 959              	.LBE120:
 960              		.loc 1 215 0 discriminator 2
 961 016c 9A42     		cmp	r2, r3
 962              	.LBB121:
 963              		.loc 1 213 0 discriminator 2
 964 016e E181     		strh	r1, [r4, #14]	@ movhi
 965              	.LBE121:
ARM GAS  /tmp/ccKTmzKJ.s 			page 18


 966              		.loc 1 215 0 discriminator 2
 967 0170 01D0     		beq	.L96
 968              	.LVL73:
 969              	.L98:
 970              		.loc 1 266 0
 971 0172 0820     		movs	r0, #8
 972 0174 75E7     		b	.L94
 973              	.LVL74:
 974              	.L96:
 975              	.LBB122:
 976              		.loc 1 217 0
 977 0176 6069     		ldr	r0, [r4, #20]
 978              	.LVL75:
 979 0178 0021     		movs	r1, #0
 980 017a FFF7FEFF 		bl	FLASH_ProgramHalfWord
 981              	.LVL76:
 982 017e 0828     		cmp	r0, #8
 983 0180 7FF46FAF 		bne	.L94
 984              		.loc 1 217 0 is_stmt 0 discriminator 2
 985 0184 0023     		movs	r3, #0
 986 0186 E383     		strh	r3, [r4, #30]	@ movhi
 987 0188 6BE7     		b	.L94
 988              	.L129:
 989 018a 00BF     		.align	2
 990              	.L128:
 991 018c 00000000 		.word	.LANCHOR0
 992 0190 FEFFFFFF 		.word	.LANCHOR2-2
 993 0194 10000000 		.word	.LANCHOR0+16
 994              	.LBE122:
 995              		.cfi_endproc
 996              	.LFE123:
 997              		.size	_ee_init, .-_ee_init
 998 0198 AFF30080 		.section	.text._write,"ax",%progbits
 998      AFF30080 
 999              		.align	2
 1000              		.p2align 4,,15
 1001              		.global	_write
 1002              		.thumb
 1003              		.thumb_func
 1004              		.type	_write, %function
 1005              	_write:
 1006              	.LFB125:
 1007              		.loc 1 296 0 is_stmt 1
 1008              		.cfi_startproc
 1009              		@ args = 0, pretend = 0, frame = 0
 1010              		@ frame_needed = 0, uses_anonymous_args = 0
 1011              	.LVL77:
 1012 0000 38B5     		push	{r3, r4, r5, lr}
 1013              		.cfi_def_cfa_offset 16
 1014              		.cfi_offset 3, -16
 1015              		.cfi_offset 4, -12
 1016              		.cfi_offset 5, -8
 1017              		.cfi_offset 14, -4
 1018              		.loc 1 296 0
 1019 0002 0546     		mov	r5, r0
 1020 0004 0C46     		mov	r4, r1
 1021              		.loc 1 298 0
ARM GAS  /tmp/ccKTmzKJ.s 			page 19


 1022 0006 FFF7FEFF 		bl	_verifyAndWrite
 1023              	.LVL78:
 1024              		.loc 1 301 0
 1025 000a EF28     		cmp	r0, #239
 1026 000c 00D0     		beq	.L132
 1027              		.loc 1 308 0
 1028 000e 38BD     		pop	{r3, r4, r5, pc}
 1029              	.L132:
 1030              		.loc 1 304 0
 1031 0010 2846     		mov	r0, r5
 1032              	.LVL79:
 1033 0012 2146     		mov	r1, r4
 1034              		.loc 1 308 0
 1035 0014 BDE83840 		pop	{r3, r4, r5, lr}
 1036              		.loc 1 304 0
 1037 0018 FFF7FEBF 		b	_pageTransfer
 1038              	.LVL80:
 1039              		.cfi_endproc
 1040              	.LFE125:
 1041              		.size	_write, .-_write
 1042 001c AFF30080 		.section	.text._ee_getReserved,"ax",%progbits
 1043              		.align	2
 1044              		.p2align 4,,15
 1045              		.global	_ee_getReserved
 1046              		.thumb
 1047              		.thumb_func
 1048              		.type	_ee_getReserved, %function
 1049              	_ee_getReserved:
 1050              	.LFB126:
 1051              		.loc 1 319 0
 1052              		.cfi_startproc
 1053              		@ args = 0, pretend = 0, frame = 0
 1054              		@ frame_needed = 0, uses_anonymous_args = 0
 1055              		@ link register save eliminated.
 1056              	.LVL81:
 1057              		.loc 1 320 0
 1058 0000 00F58070 		add	r0, r0, #256
 1059              	.LVL82:
 1060 0004 FFF7FEBF 		b	_read
 1061              	.LVL83:
 1062              		.cfi_endproc
 1063              	.LFE126:
 1064              		.size	_ee_getReserved, .-_ee_getReserved
 1065 0008 AFF30080 		.section	.text._ee_putReserved,"ax",%progbits
 1065      AFF30080 
 1066              		.align	2
 1067              		.p2align 4,,15
 1068              		.global	_ee_putReserved
 1069              		.thumb
 1070              		.thumb_func
 1071              		.type	_ee_putReserved, %function
 1072              	_ee_putReserved:
 1073              	.LFB127:
 1074              		.loc 1 323 0
 1075              		.cfi_startproc
 1076              		@ args = 0, pretend = 0, frame = 0
 1077              		@ frame_needed = 0, uses_anonymous_args = 0
ARM GAS  /tmp/ccKTmzKJ.s 			page 20


 1078              		@ link register save eliminated.
 1079              	.LVL84:
 1080              		.loc 1 324 0
 1081 0000 00F58070 		add	r0, r0, #256
 1082              	.LVL85:
 1083 0004 FFF7FEBF 		b	_write
 1084              	.LVL86:
 1085              		.cfi_endproc
 1086              	.LFE127:
 1087              		.size	_ee_putReserved, .-_ee_putReserved
 1088 0008 AFF30080 		.section	.text.ee_get,"ax",%progbits
 1088      AFF30080 
 1089              		.align	2
 1090              		.p2align 4,,15
 1091              		.global	ee_get
 1092              		.thumb
 1093              		.thumb_func
 1094              		.type	ee_get, %function
 1095              	ee_get:
 1096              	.LFB128:
 1097              		.loc 1 331 0
 1098              		.cfi_startproc
 1099              		@ args = 0, pretend = 0, frame = 0
 1100              		@ frame_needed = 0, uses_anonymous_args = 0
 1101              		@ link register save eliminated.
 1102              	.LVL87:
 1103              		.loc 1 332 0
 1104 0000 FFF7FEBF 		b	_read
 1105              	.LVL88:
 1106              		.cfi_endproc
 1107              	.LFE128:
 1108              		.size	ee_get, .-ee_get
 1109 0004 AFF30080 		.section	.text.ee_put,"ax",%progbits
 1109      AFF30080 
 1109      AFF30080 
 1110              		.align	2
 1111              		.p2align 4,,15
 1112              		.global	ee_put
 1113              		.thumb
 1114              		.thumb_func
 1115              		.type	ee_put, %function
 1116              	ee_put:
 1117              	.LFB129:
 1118              		.loc 1 336 0
 1119              		.cfi_startproc
 1120              		@ args = 0, pretend = 0, frame = 0
 1121              		@ frame_needed = 0, uses_anonymous_args = 0
 1122              		@ link register save eliminated.
 1123              	.LVL89:
 1124              		.loc 1 337 0
 1125 0000 FFF7FEBF 		b	_write
 1126              	.LVL90:
 1127              		.cfi_endproc
 1128              	.LFE129:
 1129              		.size	ee_put, .-ee_put
 1130              		.global	_addrMap
 1131              		.global	_pages
ARM GAS  /tmp/ccKTmzKJ.s 			page 21


 1132 0004 AFF30080 		.section	.data._pages,"aw",%progbits
 1132      AFF30080 
 1132      AFF30080 
 1133              		.align	2
 1134              		.set	.LANCHOR0,. + 0
 1135              		.type	_pages, %object
 1136              		.size	_pages, 32
 1137              	_pages:
 1138 0000 00       		.byte	0
 1139 0001 000000   		.space	3
 1140 0004 00800008 		.word	134250496
 1141 0008 FFBF0008 		.word	134266879
 1142 000c 1000     		.short	16
 1143 000e AAAA     		.short	-21846
 1144 0010 01       		.byte	1
 1145 0011 000000   		.space	3
 1146 0014 00C00008 		.word	134266880
 1147 0018 FFFF0008 		.word	134283263
 1148 001c 1800     		.short	24
 1149 001e AAAA     		.short	-21846
 1150              		.section	.bss._addrMap,"aw",%nobits
 1151              		.align	2
 1152              		.set	.LANCHOR2,. + 0
 1153              		.type	_addrMap, %object
 1154              		.size	_addrMap, 544
 1155              	_addrMap:
 1156 0000 00000000 		.space	544
 1156      00000000 
 1156      00000000 
 1156      00000000 
 1156      00000000 
 1157              		.section	.bss.nextWriteAddr.8385,"aw",%nobits
 1158              		.align	2
 1159              		.set	.LANCHOR1,. + 0
 1160              		.type	nextWriteAddr.8385, %object
 1161              		.size	nextWriteAddr.8385, 4
 1162              	nextWriteAddr.8385:
 1163 0000 00000000 		.space	4
 1164              		.text
 1165              	.Letext0:
 1166              		.file 2 "/usr/arm-none-eabi/include/stdint.h"
 1167              		.file 3 "../AithonLibrary/stm_flash.h"
 1168              		.file 4 "../AithonLibrary/ChibiOS/os/ports/common/ARMCMx/CMSIS/include/core_cm4.h"