ARM GAS  /tmp/ccfklhfX.s 			page 1


   1              		.syntax unified
   2              		.cpu cortex-m4
   3              		.eabi_attribute 27, 3
   4              		.fpu fpv4-sp-d16
   5              		.eabi_attribute 20, 1
   6              		.eabi_attribute 21, 1
   7              		.eabi_attribute 23, 3
   8              		.eabi_attribute 24, 1
   9              		.eabi_attribute 25, 1
  10              		.eabi_attribute 26, 1
  11              		.eabi_attribute 30, 2
  12              		.eabi_attribute 34, 1
  13              		.eabi_attribute 18, 4
  14              		.thumb
  15              		.file	"fatfs_diskio.c"
  16              		.text
  17              	.Ltext0:
  18              		.cfi_sections	.debug_frame
  19              		.section	.text.disk_initialize,"ax",%progbits
  20              		.align	2
  21              		.p2align 4,,15
  22              		.global	disk_initialize
  23              		.thumb
  24              		.thumb_func
  25              		.type	disk_initialize, %function
  26              	disk_initialize:
  27              	.LFB118:
  28              		.file 1 "../AithonLibrary/ChibiOS/os/various/fatfs_bindings/fatfs_diskio.c"
  29              		.loc 1 44 0
  30              		.cfi_startproc
  31              		@ args = 0, pretend = 0, frame = 0
  32              		@ frame_needed = 0, uses_anonymous_args = 0
  33              	.LVL0:
  34 0000 10B5     		push	{r4, lr}
  35              		.cfi_def_cfa_offset 8
  36              		.cfi_offset 4, -8
  37              		.cfi_offset 14, -4
  38              		.loc 1 47 0
  39 0002 10B1     		cbz	r0, .L10
  40              		.loc 1 68 0
  41 0004 0224     		movs	r4, #2
  42              	.LVL1:
  43              	.L2:
  44              		.loc 1 69 0
  45 0006 2046     		mov	r0, r4
  46 0008 10BD     		pop	{r4, pc}
  47              	.LVL2:
  48              	.L10:
  49              		.loc 1 52 0
  50 000a 0748     		ldr	r0, .L11
  51              	.LVL3:
  52 000c 0479     		ldrb	r4, [r0, #4]	@ zero_extendqisi2
  53              		.loc 1 50 0
  54 000e 053C     		subs	r4, r4, #5
  55 0010 18BF     		it	ne
  56 0012 0124     		movne	r4, #1
  57              	.LVL4:
ARM GAS  /tmp/ccfklhfX.s 			page 2


  58              		.loc 1 54 0
  59 0014 FFF7FEFF 		bl	mmc_lld_is_write_protected
  60              	.LVL5:
  61 0018 0028     		cmp	r0, #0
  62 001a F4D0     		beq	.L2
  63              		.loc 1 55 0
  64 001c 44F00404 		orr	r4, r4, #4
  65              	.LVL6:
  66 0020 E4B2     		uxtb	r4, r4
  67              		.loc 1 69 0
  68 0022 2046     		mov	r0, r4
  69 0024 10BD     		pop	{r4, pc}
  70              	.L12:
  71 0026 00BF     		.align	2
  72              	.L11:
  73 0028 00000000 		.word	MMCD1
  74              		.cfi_endproc
  75              	.LFE118:
  76              		.size	disk_initialize, .-disk_initialize
  77 002c AFF30080 		.section	.text.disk_status,"ax",%progbits
  78              		.align	2
  79              		.p2align 4,,15
  80              		.global	disk_status
  81              		.thumb
  82              		.thumb_func
  83              		.type	disk_status, %function
  84              	disk_status:
  85              	.LFB119:
  86              		.loc 1 79 0
  87              		.cfi_startproc
  88              		@ args = 0, pretend = 0, frame = 0
  89              		@ frame_needed = 0, uses_anonymous_args = 0
  90              	.LVL7:
  91 0000 10B5     		push	{r4, lr}
  92              		.cfi_def_cfa_offset 8
  93              		.cfi_offset 4, -8
  94              		.cfi_offset 14, -4
  95              		.loc 1 82 0
  96 0002 10B1     		cbz	r0, .L21
  97              		.loc 1 103 0
  98 0004 0224     		movs	r4, #2
  99              	.LVL8:
 100              	.L14:
 101              		.loc 1 104 0
 102 0006 2046     		mov	r0, r4
 103 0008 10BD     		pop	{r4, pc}
 104              	.LVL9:
 105              	.L21:
 106              		.loc 1 87 0
 107 000a 0748     		ldr	r0, .L22
 108              	.LVL10:
 109 000c 0479     		ldrb	r4, [r0, #4]	@ zero_extendqisi2
 110              		.loc 1 85 0
 111 000e 053C     		subs	r4, r4, #5
 112 0010 18BF     		it	ne
 113 0012 0124     		movne	r4, #1
 114              	.LVL11:
ARM GAS  /tmp/ccfklhfX.s 			page 3


 115              		.loc 1 89 0
 116 0014 FFF7FEFF 		bl	mmc_lld_is_write_protected
 117              	.LVL12:
 118 0018 0028     		cmp	r0, #0
 119 001a F4D0     		beq	.L14
 120              		.loc 1 90 0
 121 001c 44F00404 		orr	r4, r4, #4
 122              	.LVL13:
 123 0020 E4B2     		uxtb	r4, r4
 124              		.loc 1 104 0
 125 0022 2046     		mov	r0, r4
 126 0024 10BD     		pop	{r4, pc}
 127              	.L23:
 128 0026 00BF     		.align	2
 129              	.L22:
 130 0028 00000000 		.word	MMCD1
 131              		.cfi_endproc
 132              	.LFE119:
 133              		.size	disk_status, .-disk_status
 134 002c AFF30080 		.section	.text.disk_read,"ax",%progbits
 135              		.align	2
 136              		.p2align 4,,15
 137              		.global	disk_read
 138              		.thumb
 139              		.thumb_func
 140              		.type	disk_read, %function
 141              	disk_read:
 142              	.LFB120:
 143              		.loc 1 117 0
 144              		.cfi_startproc
 145              		@ args = 0, pretend = 0, frame = 8
 146              		@ frame_needed = 0, uses_anonymous_args = 0
 147              	.LVL14:
 148 0000 30B5     		push	{r4, r5, lr}
 149              		.cfi_def_cfa_offset 12
 150              		.cfi_offset 4, -12
 151              		.cfi_offset 5, -8
 152              		.cfi_offset 14, -4
 153 0002 0C46     		mov	r4, r1
 154 0004 83B0     		sub	sp, sp, #12
 155              		.cfi_def_cfa_offset 24
 156              		.loc 1 118 0
 157 0006 10B1     		cbz	r0, .L35
 158              		.loc 1 143 0
 159 0008 0420     		movs	r0, #4
 160              	.LVL15:
 161              	.L25:
 162              		.loc 1 144 0
 163 000a 03B0     		add	sp, sp, #12
 164              		@ sp needed
 165 000c 30BD     		pop	{r4, r5, pc}
 166              	.LVL16:
 167              	.L35:
 168              		.loc 1 121 0
 169 000e 1248     		ldr	r0, .L37
 170              	.LVL17:
 171 0010 0179     		ldrb	r1, [r0, #4]	@ zero_extendqisi2
ARM GAS  /tmp/ccfklhfX.s 			page 4


 172              	.LVL18:
 173 0012 0529     		cmp	r1, #5
 174              		.loc 1 122 0
 175 0014 18BF     		it	ne
 176 0016 0320     		movne	r0, #3
 177              		.loc 1 121 0
 178 0018 F7D1     		bne	.L25
 179              		.loc 1 123 0
 180 001a 1146     		mov	r1, r2
 181 001c 0193     		str	r3, [sp, #4]
 182 001e FFF7FEFF 		bl	mmcStartSequentialRead
 183              	.LVL19:
 184 0022 019B     		ldr	r3, [sp, #4]
 185 0024 80B9     		cbnz	r0, .L29
 186              	.LVL20:
 187              		.loc 1 125 0 discriminator 1
 188 0026 8BB1     		cbz	r3, .L30
 189 0028 013B     		subs	r3, r3, #1
 190              	.LVL21:
 191 002a DDB2     		uxtb	r5, r3
 192 002c 0135     		adds	r5, r5, #1
 193 002e 04EB4525 		add	r5, r4, r5, lsl #9
 194 0032 01E0     		b	.L31
 195              	.LVL22:
 196              	.L36:
 197              		.loc 1 125 0 is_stmt 0
 198 0034 AC42     		cmp	r4, r5
 199 0036 09D0     		beq	.L30
 200              	.L31:
 201              		.loc 1 126 0 is_stmt 1
 202 0038 2146     		mov	r1, r4
 203 003a 0748     		ldr	r0, .L37
 204              		.loc 1 128 0
 205 003c 04F50074 		add	r4, r4, #512
 206              	.LVL23:
 207              		.loc 1 126 0
 208 0040 FFF7FEFF 		bl	mmcSequentialRead
 209              	.LVL24:
 210 0044 0028     		cmp	r0, #0
 211 0046 F5D0     		beq	.L36
 212              	.L29:
 213              		.loc 1 124 0
 214 0048 0120     		movs	r0, #1
 215 004a DEE7     		b	.L25
 216              	.L30:
 217              		.loc 1 131 0
 218 004c 0248     		ldr	r0, .L37
 219              		.loc 1 144 0
 220 004e 03B0     		add	sp, sp, #12
 221              		@ sp needed
 222 0050 BDE83040 		pop	{r4, r5, lr}
 223              	.LVL25:
 224              		.loc 1 131 0
 225 0054 FFF7FEBF 		b	mmcStopSequentialRead
 226              	.LVL26:
 227              	.L38:
 228              		.align	2
ARM GAS  /tmp/ccfklhfX.s 			page 5


 229              	.L37:
 230 0058 00000000 		.word	MMCD1
 231              		.cfi_endproc
 232              	.LFE120:
 233              		.size	disk_read, .-disk_read
 234 005c AFF30080 		.section	.text.disk_write,"ax",%progbits
 235              		.align	2
 236              		.p2align 4,,15
 237              		.global	disk_write
 238              		.thumb
 239              		.thumb_func
 240              		.type	disk_write, %function
 241              	disk_write:
 242              	.LFB121:
 243              		.loc 1 158 0
 244              		.cfi_startproc
 245              		@ args = 0, pretend = 0, frame = 8
 246              		@ frame_needed = 0, uses_anonymous_args = 0
 247              	.LVL27:
 248 0000 30B5     		push	{r4, r5, lr}
 249              		.cfi_def_cfa_offset 12
 250              		.cfi_offset 4, -12
 251              		.cfi_offset 5, -8
 252              		.cfi_offset 14, -4
 253 0002 0C46     		mov	r4, r1
 254 0004 83B0     		sub	sp, sp, #12
 255              		.cfi_def_cfa_offset 24
 256              		.loc 1 159 0
 257 0006 10B1     		cbz	r0, .L51
 258              		.loc 1 186 0
 259 0008 0420     		movs	r0, #4
 260              	.LVL28:
 261              	.L40:
 262              		.loc 1 187 0
 263 000a 03B0     		add	sp, sp, #12
 264              		@ sp needed
 265 000c 30BD     		pop	{r4, r5, pc}
 266              	.LVL29:
 267              	.L51:
 268              		.loc 1 162 0
 269 000e 174D     		ldr	r5, .L54
 270 0010 2979     		ldrb	r1, [r5, #4]	@ zero_extendqisi2
 271              	.LVL30:
 272 0012 0529     		cmp	r1, #5
 273              		.loc 1 163 0
 274 0014 18BF     		it	ne
 275 0016 0320     		movne	r0, #3
 276              	.LVL31:
 277              		.loc 1 162 0
 278 0018 F7D1     		bne	.L40
 279              		.loc 1 164 0
 280 001a 2846     		mov	r0, r5
 281 001c 0192     		str	r2, [sp, #4]
 282 001e 0093     		str	r3, [sp]
 283 0020 FFF7FEFF 		bl	mmc_lld_is_write_protected
 284              	.LVL32:
 285 0024 019A     		ldr	r2, [sp, #4]
ARM GAS  /tmp/ccfklhfX.s 			page 6


 286 0026 08B1     		cbz	r0, .L52
 287              		.loc 1 165 0
 288 0028 0220     		movs	r0, #2
 289 002a EEE7     		b	.L40
 290              	.L52:
 291              		.loc 1 166 0
 292 002c 2846     		mov	r0, r5
 293 002e 1146     		mov	r1, r2
 294 0030 FFF7FEFF 		bl	mmcStartSequentialWrite
 295              	.LVL33:
 296 0034 009B     		ldr	r3, [sp]
 297 0036 80B9     		cbnz	r0, .L44
 298              	.LVL34:
 299              		.loc 1 168 0 discriminator 1
 300 0038 8BB1     		cbz	r3, .L45
 301 003a 013B     		subs	r3, r3, #1
 302              	.LVL35:
 303 003c DDB2     		uxtb	r5, r3
 304 003e 0135     		adds	r5, r5, #1
 305 0040 04EB4525 		add	r5, r4, r5, lsl #9
 306 0044 01E0     		b	.L46
 307              	.LVL36:
 308              	.L53:
 309              		.loc 1 168 0 is_stmt 0
 310 0046 AC42     		cmp	r4, r5
 311 0048 09D0     		beq	.L45
 312              	.L46:
 313              		.loc 1 169 0 is_stmt 1
 314 004a 2146     		mov	r1, r4
 315 004c 0748     		ldr	r0, .L54
 316              		.loc 1 171 0
 317 004e 04F50074 		add	r4, r4, #512
 318              	.LVL37:
 319              		.loc 1 169 0
 320 0052 FFF7FEFF 		bl	mmcSequentialWrite
 321              	.LVL38:
 322 0056 0028     		cmp	r0, #0
 323 0058 F5D0     		beq	.L53
 324              	.L44:
 325              		.loc 1 167 0
 326 005a 0120     		movs	r0, #1
 327 005c D5E7     		b	.L40
 328              	.L45:
 329              		.loc 1 174 0
 330 005e 0348     		ldr	r0, .L54
 331              		.loc 1 187 0
 332 0060 03B0     		add	sp, sp, #12
 333              		@ sp needed
 334 0062 BDE83040 		pop	{r4, r5, lr}
 335              	.LVL39:
 336              		.loc 1 174 0
 337 0066 FFF7FEBF 		b	mmcStopSequentialWrite
 338              	.LVL40:
 339              	.L55:
 340 006a 00BF     		.align	2
 341              	.L54:
 342 006c 00000000 		.word	MMCD1
ARM GAS  /tmp/ccfklhfX.s 			page 7


 343              		.cfi_endproc
 344              	.LFE121:
 345              		.size	disk_write, .-disk_write
 346              		.section	.text.disk_ioctl,"ax",%progbits
 347              		.align	2
 348              		.p2align 4,,15
 349              		.global	disk_ioctl
 350              		.thumb
 351              		.thumb_func
 352              		.type	disk_ioctl, %function
 353              	disk_ioctl:
 354              	.LFB122:
 355              		.loc 1 200 0
 356              		.cfi_startproc
 357              		@ args = 0, pretend = 0, frame = 0
 358              		@ frame_needed = 0, uses_anonymous_args = 0
 359              		@ link register save eliminated.
 360              	.LVL41:
 361              		.loc 1 201 0
 362 0000 08B1     		cbz	r0, .L65
 363              	.L64:
 364              		.loc 1 216 0
 365 0002 0420     		movs	r0, #4
 366              	.LVL42:
 367              		.loc 1 243 0
 368 0004 7047     		bx	lr
 369              	.LVL43:
 370              	.L65:
 371              		.loc 1 204 0
 372 0006 29B1     		cbz	r1, .L59
 373 0008 0229     		cmp	r1, #2
 374 000a FAD1     		bne	.L64
 375              		.loc 1 208 0
 376 000c 4FF40073 		mov	r3, #512
 377 0010 1380     		strh	r3, [r2]	@ movhi
 378              		.loc 1 209 0
 379 0012 7047     		bx	lr
 380              	.L59:
 381              		.loc 1 206 0
 382 0014 0846     		mov	r0, r1
 383              	.LVL44:
 384 0016 7047     		bx	lr
 385              		.cfi_endproc
 386              	.LFE122:
 387              		.size	disk_ioctl, .-disk_ioctl
 388 0018 AFF30080 		.section	.text.get_fattime,"ax",%progbits
 388      AFF30080 
 389              		.align	2
 390              		.p2align 4,,15
 391              		.global	get_fattime
 392              		.thumb
 393              		.thumb_func
 394              		.type	get_fattime, %function
 395              	get_fattime:
 396              	.LFB123:
 397              		.loc 1 245 0
 398              		.cfi_startproc
ARM GAS  /tmp/ccfklhfX.s 			page 8


 399              		@ args = 0, pretend = 0, frame = 0
 400              		@ frame_needed = 0, uses_anonymous_args = 0
 401              		@ link register save eliminated.
 402              		.loc 1 251 0
 403 0000 4FF40410 		mov	r0, #2162688
 404 0004 7047     		bx	lr
 405              		.cfi_endproc
 406              	.LFE123:
 407              		.size	get_fattime, .-get_fattime
 408 0006 00BFAFF3 		.text
 408      0080AFF3 
 408      0080
 409              	.Letext0:
 410              		.file 2 "/usr/arm-none-eabi/include/stdint.h"
 411              		.file 3 "../AithonLibrary/ChibiOS/os/ports/GCC/ARMCMx/chtypes.h"
 412              		.file 4 "../AithonLibrary/ChibiOS/os/kernel/include/chlists.h"
 413              		.file 5 "../AithonLibrary/ChibiOS/os/kernel/include/chthreads.h"
 414              		.file 6 "../AithonLibrary/ChibiOS/os/ports/GCC/ARMCMx/chcore_v7m.h"
 415              		.file 7 "../AithonLibrary/ChibiOS/os/kernel/include/chmtx.h"
 416              		.file 8 "../AithonLibrary/ChibiOS/os/hal/platforms/STM32F4xx/stm32f4xx.h"
 417              		.file 9 "../AithonLibrary/ChibiOS/os/hal/platforms/STM32F4xx/stm32_dma.h"
 418              		.file 10 "../AithonLibrary/ChibiOS/os/hal/include/io_block.h"
 419              		.file 11 "../AithonLibrary/ChibiOS/os/hal/platforms/STM32/GPIOv2/pal_lld.h"
 420              		.file 12 "../AithonLibrary/ChibiOS/os/hal/include/spi.h"
 421              		.file 13 "../AithonLibrary/ChibiOS/os/hal/platforms/STM32/SPIv1/spi_lld.h"
 422              		.file 14 "../AithonLibrary/ChibiOS/os/hal/include/mmc_spi.h"
 423              		.file 15 "../AithonLibrary/ChibiOS/ext/fatfs/src/integer.h"
 424              		.file 16 "../AithonLibrary/ChibiOS/ext/fatfs/src/diskio.h"
 425              		.file 17 "../AithonLibrary/ChibiOS/os/ports/common/ARMCMx/CMSIS/include/core_cm4.h"