ARM GAS  /tmp/ccfklhfX.s 			page 1


   1              		.syntax unified
   2              		.cpu cortex-m4
   3              		.eabi_attribute 27, 3
   4              		.fpu fpv4-sp-d16
   5              		.eabi_attribute 20, 1
   6              		.eabi_attribute 21, 1
   7              		.eabi_attribute 23, 3
   8              		.eabi_attribute 24, 1
   9              		.eabi_attribute 25, 1
  10              		.eabi_attribute 26, 1
  11              		.eabi_attribute 30, 2
  12              		.eabi_attribute 34, 1
  13              		.eabi_attribute 18, 4
  14              		.thumb
  15              		.file	"fatfs_diskio.c"
  16              		.text
  17              	.Ltext0:
  18              		.cfi_sections	.debug_frame
  19              		.section	.text.disk_initialize,"ax",%progbits
  20              		.align	2
  21              		.p2align 4,,15
  22              		.global	disk_initialize
  23              		.thumb
  24              		.thumb_func
  25              		.type	disk_initialize, %function
  26              	disk_initialize:
  27              	.LFB118:
  28              		.file 1 "../AithonLibrary/ChibiOS/os/various/fatfs_bindings/fatfs_diskio.c"
  29              		.loc 1 44 0
  30              		.cfi_startproc
  31              		@ args = 0, pretend = 0, frame = 0
  32              		@ frame_needed = 0, uses_anonymous_args = 0
  33              	.LVL0:
  34 0000 10B5     		push	{r4, lr}
  35              		.cfi_def_cfa_offset 8
  36              		.cfi_offset 4, -8
  37              		.cfi_offset 14, -4
  38              		.loc 1 47 0
  39 0002 10B1     		cbz	r0, .L10
  40              		.loc 1 68 0
  41 0004 0224     		movs	r4, #2
  42              	.LVL1:
  43              	.L2:
  44              		.loc 1 69 0
  45 0006 2046     		mov	r0, r4
  46 0008 10BD     		pop	{r4, pc}
  47              	.LVL2:
  48              	.L10:
  49              		.loc 1 52 0
  50 000a 0748     		ldr	r0, .L11
  51              	.LVL3:
  52 000c 0479     		ldrb	r4, [r0, #4]	@ zero_extendqisi2
  53              		.loc 1 50 0
  54 000e 053C     		subs	r4, r4, #5
  55 0010 18BF     		it	ne
  56 0012 0124     		movne	r4, #1
  57              	.LVL4:
ARM GAS  /tmp/ccfklhfX.s 			page 2


  58              		.loc 1 54 0
  59 0014 FFF7FEFF 		bl	mmc_lld_is_write_protected
  60              	.LVL5:
  61 0018 0028     		cmp	r0, #0
  62 001a F4D0     		beq	.L2
  63              		.loc 1 55 0
  64 001c 44F00404 		orr	r4, r4, #4
  65              	.LVL6:
  66 0020 E4B2     		uxtb	r4, r4
  67              		.loc 1 69 0
  68 0022 2046     		mov	r0, r4
  69 0024 10BD     		pop	{r4, pc}
  70              	.L12:
  71 0026 00BF     		.align	2
  72              	.L11:
  73 0028 00000000 		.word	MMCD1
  74              		.cfi_endproc
  75              	.LFE118:
  76              		.size	disk_initialize, .-disk_initialize
  77 002c AFF30080 		.section	.text.disk_status,"ax",%progbits
  78              		.align	2
  79              		.p2align 4,,15
  80              		.global	disk_status
  81              		.thumb
  82              		.thumb_func
  83              		.type	disk_status, %function
  84              	disk_status:
  85              	.LFB119:
  86              		.loc 1 79 0
  87              		.cfi_startproc
  88              		@ args = 0, pretend = 0, frame = 0
  89              		@ frame_needed = 0, uses_anonymous_args = 0
  90              	.LVL7:
  91 0000 10B5     		push	{r4, lr}
  92              		.cfi_def_cfa_offset 8
  93              		.cfi_offset 4, -8
  94              		.cfi_offset 14, -4
  95              		.loc 1 82 0
  96 0002 10B1     		cbz	r0, .L21
  97              		.loc 1 103 0
  98 0004 0224     		movs	r4, #2
  99              	.LVL8:
 100              	.L14:
 101              		.loc 1 104 0
 102 0006 2046     		mov	r0, r4
 103 0008 10BD     		pop	{r4, pc}
 104              	.LVL9:
 105              	.L21:
 106              		.loc 1 87 0
 107 000a 0748     		ldr	r0, .L22
 108              	.LVL10:
 109 000c 0479     		ldrb	r4, [r0, #4]	@ zero_extendqisi2
 110              		.loc 1 85 0
 111 000e 053C     		subs	r4, r4, #5
 112 0010 18BF     		it	ne
 113 0012 0124     		movne	r4, #1
 114              	.LVL11:
ARM GAS  /tmp/ccfklhfX.s 			page 3


 115              		.loc 1 89 0
 116 0014 FFF7FEFF 		bl	mmc_lld_is_write_protected
 117              	.LVL12:
 118 0018 0028     		cmp	r0, #0
 119 001a F4D0     		beq	.L14
 120              		.loc 1 90 0
 121 001c 44F00404 		orr	r4, r4, #4
 122              	.LVL13:
 123 0020 E4B2     		uxtb	r4, r4
 124              		.loc 1 104 0
 125 0022 2046     		mov	r0, r4
 126 0024 10BD     		pop	{r4, pc}
 127              	.L23:
 128 0026 00BF     		.align	2
 129              	.L22:
 130 0028 00000000 		.word	MMCD1
 131              		.cfi_endproc
 132              	.LFE119:
 133              		.size	disk_status, .-disk_status
 134 002c AFF30080 		.section	.text.disk_read,"ax",%progbits
 135              		.align	2
 136              		.p2align 4,,15
 137              		.global	disk_read
 138              		.thumb
 139              		.thumb_func
 140              		.type	disk_read, %function
 141              	disk_read:
 142              	.LFB120:
 143              		.loc 1 117 0
 144              		.cfi_startproc
 145              		@ args = 0, pretend = 0, frame = 8
 146              		@ frame_needed = 0, uses_anonymous_args = 0
 147              	.LVL14:
 148 0000 30B5     		push	{r4, r5, lr}
 149              		.cfi_def_cfa_offset 12
 150              		.cfi_offset 4, -12
 151              		.cfi_offset 5, -8
 152              		.cfi_offset 14, -4
 153 0002 0C46     		mov	r4, r1
 154 0004 83B0     		sub	sp, sp, #12
 155              		.cfi_def_cfa_offset 24
 156              		.loc 1 118 0
 157 0006 10B1     		cbz	r0, .L35
 158              		.loc 1 143 0
 159 0008 0420     		movs	r0, #4
 160              	.LVL15:
 161              	.L25:
 162              		.loc 1 144 0
 163 000a 03B0     		add	sp, sp, #12
 164              		@ sp needed
 165 000c 30BD     		pop	{r4, r5, pc}
 166              	.LVL16:
 167              	.L35:
 168              		.loc 1 121 0
 169 000e 1248     		ldr	r0, .L37
 170              	.LVL17:
 171 0010 0179     		ldrb	r1, [r0, #4]	@ zero_extendqisi2
ARM GAS  /tmp/ccfklhfX.s 			page 4


 172              	.LVL18:
 173 0012 0529     		cmp	r1, #5
 174              		.loc 1 122 0
 175 0014 18BF     		it	ne
 176 0016 0320     		movne	r0, #3
 177              		.loc 1 121 0
 178 0018 F7D1     		bne	.L25
 179              		.loc 1 123 0
 180 001a 1146     		mov	r1, r2
 181 001c 0193     		str	r3, [sp, #4]
 182 001e FFF7FEFF 		bl	mmcStartSequentialRead
 183              	.LVL19:
 184 0022 019B     		ldr	r3, [sp, #4]
 185 0024 80B9     		cbnz	r0, .L29
 186              	.LVL20:
 187              		.loc 1 125 0 discriminator 1
 188 0026 8BB1     		cbz	r3, .L30
 189 0028 013B     		subs	r3, r3, #1
 190              	.LVL21:
 191 002a DDB2     		uxtb	r5, r3
 192 002c 0135     		adds	r5, r5, #1
 193 002e 04EB4525 		add	r5, r4, r5, lsl #9
 194 0032 01E0     		b	.L31
 195              	.LVL22:
 196              	.L36:
 197              		.loc 1 125 0 is_stmt 0
 198 0034 AC42     		cmp	r4, r5
 199 0036 09D0     		beq	.L30
 200              	.L31:
 201              		.loc 1 126 0 is_stmt 1
 202 0038 2146     		mov	r1, r4
 203 003a 0748     		ldr	r0, .L37
 204              		.loc 1 128 0
 205 003c 04F50074 		add	r4, r4, #512
 206              	.LVL23:
 207              		.loc 1 126 0
 208 0040 FFF7FEFF 		bl	mmcSequentialRead
 209              	.LVL24:
 210 0044 0028     		cmp	r0, #0
 211 0046 F5D0     		beq	.L36
 212              	.L29:
 213              		.loc 1 124 0
 214 0048 0120     		movs	r0, #1
 215 004a DEE7     		b	.L25
 216              	.L30:
 217              		.loc 1 131 0
 218 004c 0248     		ldr	r0, .L37
 219              		.loc 1 144 0
 220 004e 03B0     		add	sp, sp, #12
 221              		@ sp needed
 222 0050 BDE83040 		pop	{r4, r5, lr}
 223              	.LVL25:
 224              		.loc 1 131 0
 225 0054 FFF7FEBF 		b	mmcStopSequentialRead
 226              	.LVL26:
 227              	.L38:
 228              		.align	2
ARM GAS  /tmp/ccfklhfX.s 			page 5


 229              	.L37:
 230 0058 00000000 		.word	MMCD1
 231              		.cfi_endproc
 232              	.LFE120:
 233              		.size	disk_read, .-disk_read
 234 005c AFF30080 		.section	.text.disk_write,"ax",%progbits
 235              		.align	2
 236              		.p2align 4,,15
 237              		.global	disk_write
 238              		.thumb
 239              		.thumb_func
 240              		.type	disk_write, %function
 241              	disk_write:
 242              	.LFB121:
 243              		.loc 1 158 0
 244              		.cfi_startproc
 245              		@ args = 0, pretend = 0, frame = 8
 246              		@ frame_needed = 0, uses_anonymous_args = 0
 247              	.LVL27:
 248 0000 30B5     		push	{r4, r5, lr}
 249              		.cfi_def_cfa_offset 12
 250              		.cfi_offset 4, -12
 251              		.cfi_offset 5, -8
 252              		.cfi_offset 14, -4
 253 0002 0C46     		mov	r4, r1
 254 0004 83B0     		sub	sp, sp, #12
 255              		.cfi_def_cfa_offset 24
 256              		.loc 1 159 0
 257 0006 10B1     		cbz	r0, .L51
 258              		.loc 1 186 0
 259 0008 0420     		movs	r0, #4
 260              	.LVL28:
 261              	.L40:
 262              		.loc 1 187 0
 263 000a 03B0     		add	sp, sp, #12
 264              		@ sp needed
 265 000c 30BD     		pop	{r4, r5, pc}
 266              	.LVL29:
 267              	.L51:
 268              		.loc 1 162 0
 269 000e 174D     		ldr	r5, .L54
 270 0010 2979     		ldrb	r1, [r5, #4]	@ zero_extendqisi2
 271              	.LVL30:
 272 0012 0529     		cmp	r1, #5
 273              		.loc 1 163 0
 274 0014 18BF     		it	ne
 275 0016 0320     		movne	r0, #3
 276              	.LVL31:
 277              		.loc 1 162 0
 278 0018 F7D1     		bne	.L40
 279              		.loc 1 164 0
 280 001a 2846     		mov	r0, r5
 281 001c 0192     		str	r2, [sp, #4]
 282 001e 0093     		str	r3, [sp]
 283 0020 FFF7FEFF 		bl	mmc_lld_is_write_protected
 284              	.LVL32:
 285 0024 019A     		ldr	r2, [sp, #4]
ARM GAS  /tmp/ccfklhfX.s 			page 6


 286 0026 08B1     		cbz	r0, .L52
 287              		.loc 1 165 0
 288 0028 0220     		movs	r0, #2
 289 002a EEE7     		b	.L40
 290              	.L52:
 291              		.loc 1 166 0
 292 002c 2846     		mov	r0, r5
 293 002e 1146     		mov	r1, r2
 294 0030 FFF7FEFF 		bl	mmcStartSequentialWrite
 295              	.LVL33:
 296 0034 009B     		ldr	r3, [sp]
 297 0036 80B9     		cbnz	r0, .L44
 298              	.LVL34:
 299              		.loc 1 168 0 discriminator 1
 300 0038 8BB1     		cbz	r3, .L45
 301 003a 013B     		subs	r3, r3, #1
 302              	.LVL35:
 303 003c DDB2     		uxtb	r5, r3
 304 003e 0135     		adds	r5, r5, #1
 305 0040 04EB4525 		add	r5, r4, r5, lsl #9
 306 0044 01E0     		b	.L46
 307              	.LVL36:
 308              	.L53:
 309              		.loc 1 168 0 is_stmt 0
 310 0046 AC42     		cmp	r4, r5
 311 0048 09D0     		beq	.L45
 312              	.L46:
 313              		.loc 1 169 0 is_stmt 1
 314 004a 2146     		mov	r1, r4
 315 004c 0748     		ldr	r0, .L54
 316              		.loc 1 171 0
 317 004e 04F50074 		add	r4, r4, #512
 318              	.LVL37:
 319              		.loc 1 169 0
 320 0052 FFF7FEFF 		bl	mmcSequentialWrite
 321              	.LVL38:
 322 0056 0028     		cmp	r0, #0
 323 0058 F5D0     		beq	.L53
 324              	.L44:
 325              		.loc 1 167 0
 326 005a 0120     		movs	r0, #1
 327 005c D5E7     		b	.L40
 328              	.L45:
 329              		.loc 1 174 0
 330 005e 0348     		ldr	r0, .L54
 331              		.loc 1 187 0
 332 0060 03B0     		add	sp, sp, #12
 333              		@ sp needed
 334 0062 BDE83040 		pop	{r4, r5, lr}
 335              	.LVL39:
 336              		.loc 1 174 0
 337 0066 FFF7FEBF 		b	mmcStopSequentialWrite
 338              	.LVL40:
 339              	.L55:
 340 006a 00BF     		.align	2
 341              	.L54:
 342 006c 00000000 		.word	MMCD1
ARM GAS  /tmp/ccfklhfX.s 			page 7


 343              		.cfi_endproc
 344              	.LFE121:
 345              		.size	disk_write, .-disk_write
 346              		.section	.text.disk_ioctl,"ax",%progbits
 347              		.align	2
 348              		.p2align 4,,15
 349              		.global	disk_ioctl
 350              		.thumb
 351              		.thumb_func
 352              		.type	disk_ioctl, %function
 353              	disk_ioctl:
 354              	.LFB122:
 355              		.loc 1 200 0
 356              		.cfi_startproc
 357              		@ args = 0, pretend = 0, frame = 0
 358              		@ frame_needed = 0, uses_anonymous_args = 0
 359              		@ link register save eliminated.
 360              	.LVL41:
 361              		.loc 1 201 0
 362 0000 08B1     		cbz	r0, .L65
 363              	.L64:
 364              		.loc 1 216 0
 365 0002 0420     		movs	r0, #4
 366              	.LVL42:
 367              		.loc 1 243 0
 368 0004 7047     		bx	lr
 369              	.LVL43:
 370              	.L65:
 371              		.loc 1 204 0
 372 0006 29B1     		cbz	r1, .L59
 373 0008 0229     		cmp	r1, #2
 374 000a FAD1     		bne	.L64
 375              		.loc 1 208 0
 376 000c 4FF40073 		mov	r3, #512
 377 0010 1380     		strh	r3, [r2]	@ movhi
 378              		.loc 1 209 0
 379 0012 7047     		bx	lr
 380              	.L59:
 381              		.loc 1 206 0
 382 0014 0846     		mov	r0, r1
 383              	.LVL44:
 384 0016 7047     		bx	lr
 385              		.cfi_endproc
 386              	.LFE122:
 387              		.size	disk_ioctl, .-disk_ioctl
 388 0018 AFF30080 		.section	.text.get_fattime,"ax",%progbits
 388      AFF30080 
 389              		.align	2
 390              		.p2align 4,,15
 391              		.global	get_fattime
 392              		.thumb
 393              		.thumb_func
 394              		.type	get_fattime, %function
 395              	get_fattime:
 396              	.LFB123:
 397              		.loc 1 245 0
 398              		.cfi_startproc
ARM GAS  /tmp/ccfklhfX.s 			page 8


 399              		@ args = 0, pretend = 0, frame = 0
 400              		@ frame_needed = 0, uses_anonymous_args = 0
 401              		@ link register save eliminated.
 402              		.loc 1 251 0
 403 0000 4FF40410 		mov	r0, #2162688
 404 0004 7047     		bx	lr
 405              		.cfi_endproc
 406              	.LFE123:
 407              		.size	get_fattime, .-get_fattime
 408 0006 00BFAFF3 		.text
 408      0080AFF3 
 408      0080
 409              	.Letext0:
 410              		.file 2 "/usr/arm-none-eabi/include/stdint.h"
 411              		.file 3 "../AithonLibrary/ChibiOS/os/ports/GCC/ARMCMx/chtypes.h"
 412              		.file 4 "../AithonLibrary/ChibiOS/os/kernel/include/chlists.h"
 413              		.file 5 "../AithonLibrary/ChibiOS/os/kernel/include/chthreads.h"
 414              		.file 6 "../AithonLibrary/ChibiOS/os/ports/GCC/ARMCMx/chcore_v7m.h"
 415              		.file 7 "../AithonLibrary/ChibiOS/os/kernel/include/chmtx.h"
 416              		.file 8 "../AithonLibrary/ChibiOS/os/hal/platforms/STM32F4xx/stm32f4xx.h"
 417              		.file 9 "../AithonLibrary/ChibiOS/os/hal/platforms/STM32F4xx/stm32_dma.h"
 418              		.file 10 "../AithonLibrary/ChibiOS/os/hal/include/io_block.h"
 419              		.file 11 "../AithonLibrary/ChibiOS/os/hal/platforms/STM32/GPIOv2/pal_lld.h"
 420              		.file 12 "../AithonLibrary/ChibiOS/os/hal/include/spi.h"
 421              		.file 13 "../AithonLibrary/ChibiOS/os/hal/platforms/STM32/SPIv1/spi_lld.h"
 422              		.file 14 "../AithonLibrary/ChibiOS/os/hal/include/mmc_spi.h"
 423              		.file 15 "../AithonLibrary/ChibiOS/ext/fatfs/src/integer.h"
 424              		.file 16 "../AithonLibrary/ChibiOS/ext/fatfs/src/diskio.h"
 425              		.file 17 "../AithonLibrary/ChibiOS/os/ports/common/ARMCMx/CMSIS/include/core_cm4.h"
 426              		.section	.debug_info,"",%progbits
 427              	.Ldebug_info0:
 428 0000 C60D0000 		.4byte	0xdc6
 429 0004 0400     		.2byte	0x4
 430 0006 00000000 		.4byte	.Ldebug_abbrev0
 431 000a 04       		.byte	0x4
 432 000b 01       		.uleb128 0x1
 433 000c 73020000 		.4byte	.LASF171
 434 0010 01       		.byte	0x1
 435 0011 43040000 		.4byte	.LASF172
 436 0015 25050000 		.4byte	.LASF173
 437 0019 00000000 		.4byte	.Ldebug_ranges0+0
 438 001d 00000000 		.4byte	0
 439 0021 00000000 		.4byte	.Ldebug_line0
 440 0025 02       		.uleb128 0x2
 441 0026 04       		.byte	0x4
 442 0027 05       		.byte	0x5
 443 0028 696E7400 		.ascii	"int\000"
 444 002c 03       		.uleb128 0x3
 445 002d 04       		.byte	0x4
 446 002e 07       		.byte	0x7
 447 002f 45020000 		.4byte	.LASF0
 448 0033 03       		.uleb128 0x3
 449 0034 01       		.byte	0x1
 450 0035 06       		.byte	0x6
 451 0036 29010000 		.4byte	.LASF1
 452 003a 04       		.uleb128 0x4
 453 003b 9D070000 		.4byte	.LASF4
ARM GAS  /tmp/ccfklhfX.s 			page 9


 454 003f 02       		.byte	0x2
 455 0040 2A       		.byte	0x2a
 456 0041 45000000 		.4byte	0x45
 457 0045 03       		.uleb128 0x3
 458 0046 01       		.byte	0x1
 459 0047 08       		.byte	0x8
 460 0048 D2050000 		.4byte	.LASF2
 461 004c 03       		.uleb128 0x3
 462 004d 02       		.byte	0x2
 463 004e 05       		.byte	0x5
 464 004f FD050000 		.4byte	.LASF3
 465 0053 04       		.uleb128 0x4
 466 0054 52020000 		.4byte	.LASF5
 467 0058 02       		.byte	0x2
 468 0059 36       		.byte	0x36
 469 005a 5E000000 		.4byte	0x5e
 470 005e 03       		.uleb128 0x3
 471 005f 02       		.byte	0x2
 472 0060 07       		.byte	0x7
 473 0061 B1030000 		.4byte	.LASF6
 474 0065 04       		.uleb128 0x4
 475 0066 CA050000 		.4byte	.LASF7
 476 006a 02       		.byte	0x2
 477 006b 4F       		.byte	0x4f
 478 006c 70000000 		.4byte	0x70
 479 0070 03       		.uleb128 0x3
 480 0071 04       		.byte	0x4
 481 0072 05       		.byte	0x5
 482 0073 87010000 		.4byte	.LASF8
 483 0077 04       		.uleb128 0x4
 484 0078 8C060000 		.4byte	.LASF9
 485 007c 02       		.byte	0x2
 486 007d 50       		.byte	0x50
 487 007e 82000000 		.4byte	0x82
 488 0082 03       		.uleb128 0x3
 489 0083 04       		.byte	0x4
 490 0084 07       		.byte	0x7
 491 0085 9D060000 		.4byte	.LASF10
 492 0089 03       		.uleb128 0x3
 493 008a 08       		.byte	0x8
 494 008b 05       		.byte	0x5
 495 008c 1B010000 		.4byte	.LASF11
 496 0090 03       		.uleb128 0x3
 497 0091 08       		.byte	0x8
 498 0092 07       		.byte	0x7
 499 0093 9C000000 		.4byte	.LASF12
 500 0097 04       		.uleb128 0x4
 501 0098 46010000 		.4byte	.LASF13
 502 009c 03       		.byte	0x3
 503 009d 2B       		.byte	0x2b
 504 009e A2000000 		.4byte	0xa2
 505 00a2 03       		.uleb128 0x3
 506 00a3 01       		.byte	0x1
 507 00a4 02       		.byte	0x2
 508 00a5 C4050000 		.4byte	.LASF14
 509 00a9 04       		.uleb128 0x4
 510 00aa FA030000 		.4byte	.LASF15
ARM GAS  /tmp/ccfklhfX.s 			page 10


 511 00ae 03       		.byte	0x3
 512 00af 2C       		.byte	0x2c
 513 00b0 3A000000 		.4byte	0x3a
 514 00b4 04       		.uleb128 0x4
 515 00b5 90010000 		.4byte	.LASF16
 516 00b9 03       		.byte	0x3
 517 00ba 2D       		.byte	0x2d
 518 00bb 3A000000 		.4byte	0x3a
 519 00bf 04       		.uleb128 0x4
 520 00c0 13010000 		.4byte	.LASF17
 521 00c4 03       		.byte	0x3
 522 00c5 2E       		.byte	0x2e
 523 00c6 3A000000 		.4byte	0x3a
 524 00ca 04       		.uleb128 0x4
 525 00cb 60010000 		.4byte	.LASF18
 526 00cf 03       		.byte	0x3
 527 00d0 2F       		.byte	0x2f
 528 00d1 3A000000 		.4byte	0x3a
 529 00d5 04       		.uleb128 0x4
 530 00d6 B6050000 		.4byte	.LASF19
 531 00da 03       		.byte	0x3
 532 00db 30       		.byte	0x30
 533 00dc 77000000 		.4byte	0x77
 534 00e0 04       		.uleb128 0x4
 535 00e1 E5030000 		.4byte	.LASF20
 536 00e5 03       		.byte	0x3
 537 00e6 31       		.byte	0x31
 538 00e7 65000000 		.4byte	0x65
 539 00eb 04       		.uleb128 0x4
 540 00ec 1C040000 		.4byte	.LASF21
 541 00f0 03       		.byte	0x3
 542 00f1 33       		.byte	0x33
 543 00f2 77000000 		.4byte	0x77
 544 00f6 04       		.uleb128 0x4
 545 00f7 FD060000 		.4byte	.LASF22
 546 00fb 03       		.byte	0x3
 547 00fc 35       		.byte	0x35
 548 00fd 77000000 		.4byte	0x77
 549 0101 04       		.uleb128 0x4
 550 0102 53060000 		.4byte	.LASF23
 551 0106 04       		.byte	0x4
 552 0107 2A       		.byte	0x2a
 553 0108 0C010000 		.4byte	0x10c
 554 010c 05       		.uleb128 0x5
 555 010d 53060000 		.4byte	.LASF23
 556 0111 48       		.byte	0x48
 557 0112 05       		.byte	0x5
 558 0113 5E       		.byte	0x5e
 559 0114 09020000 		.4byte	0x209
 560 0118 06       		.uleb128 0x6
 561 0119 2C060000 		.4byte	.LASF24
 562 011d 05       		.byte	0x5
 563 011e 5F       		.byte	0x5f
 564 011f 2A020000 		.4byte	0x22a
 565 0123 00       		.byte	0
 566 0124 06       		.uleb128 0x6
 567 0125 91050000 		.4byte	.LASF25
ARM GAS  /tmp/ccfklhfX.s 			page 11


 568 0129 05       		.byte	0x5
 569 012a 61       		.byte	0x61
 570 012b 2A020000 		.4byte	0x22a
 571 012f 04       		.byte	0x4
 572 0130 06       		.uleb128 0x6
 573 0131 07010000 		.4byte	.LASF26
 574 0135 05       		.byte	0x5
 575 0136 63       		.byte	0x63
 576 0137 D5000000 		.4byte	0xd5
 577 013b 08       		.byte	0x8
 578 013c 06       		.uleb128 0x6
 579 013d F5070000 		.4byte	.LASF27
 580 0141 05       		.byte	0x5
 581 0142 64       		.byte	0x64
 582 0143 B4030000 		.4byte	0x3b4
 583 0147 0C       		.byte	0xc
 584 0148 06       		.uleb128 0x6
 585 0149 CB010000 		.4byte	.LASF28
 586 014d 05       		.byte	0x5
 587 014e 66       		.byte	0x66
 588 014f 2A020000 		.4byte	0x22a
 589 0153 10       		.byte	0x10
 590 0154 06       		.uleb128 0x6
 591 0155 B8040000 		.4byte	.LASF29
 592 0159 05       		.byte	0x5
 593 015a 67       		.byte	0x67
 594 015b 2A020000 		.4byte	0x22a
 595 015f 14       		.byte	0x14
 596 0160 06       		.uleb128 0x6
 597 0161 84070000 		.4byte	.LASF30
 598 0165 05       		.byte	0x5
 599 0166 6E       		.byte	0x6e
 600 0167 5D040000 		.4byte	0x45d
 601 016b 18       		.byte	0x18
 602 016c 06       		.uleb128 0x6
 603 016d 07060000 		.4byte	.LASF31
 604 0171 05       		.byte	0x5
 605 0172 79       		.byte	0x79
 606 0173 B4000000 		.4byte	0xb4
 607 0177 1C       		.byte	0x1c
 608 0178 06       		.uleb128 0x6
 609 0179 33060000 		.4byte	.LASF32
 610 017d 05       		.byte	0x5
 611 017e 7D       		.byte	0x7d
 612 017f A9000000 		.4byte	0xa9
 613 0183 1D       		.byte	0x1d
 614 0184 06       		.uleb128 0x6
 615 0185 8B070000 		.4byte	.LASF33
 616 0189 05       		.byte	0x5
 617 018a 82       		.byte	0x82
 618 018b BF000000 		.4byte	0xbf
 619 018f 1E       		.byte	0x1e
 620 0190 06       		.uleb128 0x6
 621 0191 1B060000 		.4byte	.LASF34
 622 0195 05       		.byte	0x5
 623 0196 88       		.byte	0x88
 624 0197 CA000000 		.4byte	0xca
ARM GAS  /tmp/ccfklhfX.s 			page 12


 625 019b 1F       		.byte	0x1f
 626 019c 06       		.uleb128 0x6
 627 019d 09040000 		.4byte	.LASF35
 628 01a1 05       		.byte	0x5
 629 01a2 8F       		.byte	0x8f
 630 01a3 E1030000 		.4byte	0x3e1
 631 01a7 20       		.byte	0x20
 632 01a8 07       		.uleb128 0x7
 633 01a9 705F7500 		.ascii	"p_u\000"
 634 01ad 05       		.byte	0x5
 635 01ae B4       		.byte	0xb4
 636 01af 28040000 		.4byte	0x428
 637 01b3 24       		.byte	0x24
 638 01b4 06       		.uleb128 0x6
 639 01b5 FB070000 		.4byte	.LASF36
 640 01b9 05       		.byte	0x5
 641 01ba B9       		.byte	0xb9
 642 01bb 50020000 		.4byte	0x250
 643 01bf 28       		.byte	0x28
 644 01c0 06       		.uleb128 0x6
 645 01c1 8E030000 		.4byte	.LASF37
 646 01c5 05       		.byte	0x5
 647 01c6 BF       		.byte	0xbf
 648 01c7 30020000 		.4byte	0x230
 649 01cb 2C       		.byte	0x2c
 650 01cc 06       		.uleb128 0x6
 651 01cd CA070000 		.4byte	.LASF38
 652 01d1 05       		.byte	0x5
 653 01d2 C3       		.byte	0xc3
 654 01d3 E0000000 		.4byte	0xe0
 655 01d7 34       		.byte	0x34
 656 01d8 06       		.uleb128 0x6
 657 01d9 62060000 		.4byte	.LASF39
 658 01dd 05       		.byte	0x5
 659 01de C9       		.byte	0xc9
 660 01df EB000000 		.4byte	0xeb
 661 01e3 38       		.byte	0x38
 662 01e4 06       		.uleb128 0x6
 663 01e5 F3050000 		.4byte	.LASF40
 664 01e9 05       		.byte	0x5
 665 01ea D0       		.byte	0xd0
 666 01eb 6F040000 		.4byte	0x46f
 667 01ef 3C       		.byte	0x3c
 668 01f0 06       		.uleb128 0x6
 669 01f1 07070000 		.4byte	.LASF41
 670 01f5 05       		.byte	0x5
 671 01f6 D4       		.byte	0xd4
 672 01f7 D5000000 		.4byte	0xd5
 673 01fb 40       		.byte	0x40
 674 01fc 06       		.uleb128 0x6
 675 01fd 11020000 		.4byte	.LASF42
 676 0201 05       		.byte	0x5
 677 0202 DA       		.byte	0xda
 678 0203 66020000 		.4byte	0x266
 679 0207 44       		.byte	0x44
 680 0208 00       		.byte	0
 681 0209 08       		.uleb128 0x8
ARM GAS  /tmp/ccfklhfX.s 			page 13


 682 020a 08       		.byte	0x8
 683 020b 04       		.byte	0x4
 684 020c 61       		.byte	0x61
 685 020d 2A020000 		.4byte	0x22a
 686 0211 06       		.uleb128 0x6
 687 0212 2C060000 		.4byte	.LASF24
 688 0216 04       		.byte	0x4
 689 0217 62       		.byte	0x62
 690 0218 2A020000 		.4byte	0x22a
 691 021c 00       		.byte	0
 692 021d 06       		.uleb128 0x6
 693 021e 91050000 		.4byte	.LASF25
 694 0222 04       		.byte	0x4
 695 0223 64       		.byte	0x64
 696 0224 2A020000 		.4byte	0x22a
 697 0228 04       		.byte	0x4
 698 0229 00       		.byte	0
 699 022a 09       		.uleb128 0x9
 700 022b 04       		.byte	0x4
 701 022c 01010000 		.4byte	0x101
 702 0230 04       		.uleb128 0x4
 703 0231 ED040000 		.4byte	.LASF43
 704 0235 04       		.byte	0x4
 705 0236 66       		.byte	0x66
 706 0237 09020000 		.4byte	0x209
 707 023b 08       		.uleb128 0x8
 708 023c 04       		.byte	0x4
 709 023d 04       		.byte	0x4
 710 023e 6B       		.byte	0x6b
 711 023f 50020000 		.4byte	0x250
 712 0243 06       		.uleb128 0x6
 713 0244 2C060000 		.4byte	.LASF24
 714 0248 04       		.byte	0x4
 715 0249 6D       		.byte	0x6d
 716 024a 2A020000 		.4byte	0x22a
 717 024e 00       		.byte	0
 718 024f 00       		.byte	0
 719 0250 04       		.uleb128 0x4
 720 0251 10040000 		.4byte	.LASF44
 721 0255 04       		.byte	0x4
 722 0256 70       		.byte	0x70
 723 0257 3B020000 		.4byte	0x23b
 724 025b 04       		.uleb128 0x4
 725 025c 19020000 		.4byte	.LASF45
 726 0260 06       		.byte	0x6
 727 0261 E5       		.byte	0xe5
 728 0262 66020000 		.4byte	0x266
 729 0266 0A       		.uleb128 0xa
 730 0267 04       		.byte	0x4
 731 0268 0B       		.uleb128 0xb
 732 0269 57070000 		.4byte	.LASF46
 733 026d 64       		.byte	0x64
 734 026e 06       		.byte	0x6
 735 026f 0C01     		.2byte	0x10c
 736 0271 B4030000 		.4byte	0x3b4
 737 0275 0C       		.uleb128 0xc
 738 0276 73313600 		.ascii	"s16\000"
ARM GAS  /tmp/ccfklhfX.s 			page 14


 739 027a 06       		.byte	0x6
 740 027b 0E01     		.2byte	0x10e
 741 027d 5B020000 		.4byte	0x25b
 742 0281 00       		.byte	0
 743 0282 0C       		.uleb128 0xc
 744 0283 73313700 		.ascii	"s17\000"
 745 0287 06       		.byte	0x6
 746 0288 0F01     		.2byte	0x10f
 747 028a 5B020000 		.4byte	0x25b
 748 028e 04       		.byte	0x4
 749 028f 0C       		.uleb128 0xc
 750 0290 73313800 		.ascii	"s18\000"
 751 0294 06       		.byte	0x6
 752 0295 1001     		.2byte	0x110
 753 0297 5B020000 		.4byte	0x25b
 754 029b 08       		.byte	0x8
 755 029c 0C       		.uleb128 0xc
 756 029d 73313900 		.ascii	"s19\000"
 757 02a1 06       		.byte	0x6
 758 02a2 1101     		.2byte	0x111
 759 02a4 5B020000 		.4byte	0x25b
 760 02a8 0C       		.byte	0xc
 761 02a9 0C       		.uleb128 0xc
 762 02aa 73323000 		.ascii	"s20\000"
 763 02ae 06       		.byte	0x6
 764 02af 1201     		.2byte	0x112
 765 02b1 5B020000 		.4byte	0x25b
 766 02b5 10       		.byte	0x10
 767 02b6 0C       		.uleb128 0xc
 768 02b7 73323100 		.ascii	"s21\000"
 769 02bb 06       		.byte	0x6
 770 02bc 1301     		.2byte	0x113
 771 02be 5B020000 		.4byte	0x25b
 772 02c2 14       		.byte	0x14
 773 02c3 0C       		.uleb128 0xc
 774 02c4 73323200 		.ascii	"s22\000"
 775 02c8 06       		.byte	0x6
 776 02c9 1401     		.2byte	0x114
 777 02cb 5B020000 		.4byte	0x25b
 778 02cf 18       		.byte	0x18
 779 02d0 0C       		.uleb128 0xc
 780 02d1 73323300 		.ascii	"s23\000"
 781 02d5 06       		.byte	0x6
 782 02d6 1501     		.2byte	0x115
 783 02d8 5B020000 		.4byte	0x25b
 784 02dc 1C       		.byte	0x1c
 785 02dd 0C       		.uleb128 0xc
 786 02de 73323400 		.ascii	"s24\000"
 787 02e2 06       		.byte	0x6
 788 02e3 1601     		.2byte	0x116
 789 02e5 5B020000 		.4byte	0x25b
 790 02e9 20       		.byte	0x20
 791 02ea 0C       		.uleb128 0xc
 792 02eb 73323500 		.ascii	"s25\000"
 793 02ef 06       		.byte	0x6
 794 02f0 1701     		.2byte	0x117
 795 02f2 5B020000 		.4byte	0x25b
ARM GAS  /tmp/ccfklhfX.s 			page 15


 796 02f6 24       		.byte	0x24
 797 02f7 0C       		.uleb128 0xc
 798 02f8 73323600 		.ascii	"s26\000"
 799 02fc 06       		.byte	0x6
 800 02fd 1801     		.2byte	0x118
 801 02ff 5B020000 		.4byte	0x25b
 802 0303 28       		.byte	0x28
 803 0304 0C       		.uleb128 0xc
 804 0305 73323700 		.ascii	"s27\000"
 805 0309 06       		.byte	0x6
 806 030a 1901     		.2byte	0x119
 807 030c 5B020000 		.4byte	0x25b
 808 0310 2C       		.byte	0x2c
 809 0311 0C       		.uleb128 0xc
 810 0312 73323800 		.ascii	"s28\000"
 811 0316 06       		.byte	0x6
 812 0317 1A01     		.2byte	0x11a
 813 0319 5B020000 		.4byte	0x25b
 814 031d 30       		.byte	0x30
 815 031e 0C       		.uleb128 0xc
 816 031f 73323900 		.ascii	"s29\000"
 817 0323 06       		.byte	0x6
 818 0324 1B01     		.2byte	0x11b
 819 0326 5B020000 		.4byte	0x25b
 820 032a 34       		.byte	0x34
 821 032b 0C       		.uleb128 0xc
 822 032c 73333000 		.ascii	"s30\000"
 823 0330 06       		.byte	0x6
 824 0331 1C01     		.2byte	0x11c
 825 0333 5B020000 		.4byte	0x25b
 826 0337 38       		.byte	0x38
 827 0338 0C       		.uleb128 0xc
 828 0339 73333100 		.ascii	"s31\000"
 829 033d 06       		.byte	0x6
 830 033e 1D01     		.2byte	0x11d
 831 0340 5B020000 		.4byte	0x25b
 832 0344 3C       		.byte	0x3c
 833 0345 0C       		.uleb128 0xc
 834 0346 723400   		.ascii	"r4\000"
 835 0349 06       		.byte	0x6
 836 034a 1F01     		.2byte	0x11f
 837 034c 5B020000 		.4byte	0x25b
 838 0350 40       		.byte	0x40
 839 0351 0C       		.uleb128 0xc
 840 0352 723500   		.ascii	"r5\000"
 841 0355 06       		.byte	0x6
 842 0356 2001     		.2byte	0x120
 843 0358 5B020000 		.4byte	0x25b
 844 035c 44       		.byte	0x44
 845 035d 0C       		.uleb128 0xc
 846 035e 723600   		.ascii	"r6\000"
 847 0361 06       		.byte	0x6
 848 0362 2101     		.2byte	0x121
 849 0364 5B020000 		.4byte	0x25b
 850 0368 48       		.byte	0x48
 851 0369 0C       		.uleb128 0xc
 852 036a 723700   		.ascii	"r7\000"
ARM GAS  /tmp/ccfklhfX.s 			page 16


 853 036d 06       		.byte	0x6
 854 036e 2201     		.2byte	0x122
 855 0370 5B020000 		.4byte	0x25b
 856 0374 4C       		.byte	0x4c
 857 0375 0C       		.uleb128 0xc
 858 0376 723800   		.ascii	"r8\000"
 859 0379 06       		.byte	0x6
 860 037a 2301     		.2byte	0x123
 861 037c 5B020000 		.4byte	0x25b
 862 0380 50       		.byte	0x50
 863 0381 0C       		.uleb128 0xc
 864 0382 723900   		.ascii	"r9\000"
 865 0385 06       		.byte	0x6
 866 0386 2401     		.2byte	0x124
 867 0388 5B020000 		.4byte	0x25b
 868 038c 54       		.byte	0x54
 869 038d 0C       		.uleb128 0xc
 870 038e 72313000 		.ascii	"r10\000"
 871 0392 06       		.byte	0x6
 872 0393 2501     		.2byte	0x125
 873 0395 5B020000 		.4byte	0x25b
 874 0399 58       		.byte	0x58
 875 039a 0C       		.uleb128 0xc
 876 039b 72313100 		.ascii	"r11\000"
 877 039f 06       		.byte	0x6
 878 03a0 2601     		.2byte	0x126
 879 03a2 5B020000 		.4byte	0x25b
 880 03a6 5C       		.byte	0x5c
 881 03a7 0C       		.uleb128 0xc
 882 03a8 6C7200   		.ascii	"lr\000"
 883 03ab 06       		.byte	0x6
 884 03ac 2701     		.2byte	0x127
 885 03ae 5B020000 		.4byte	0x25b
 886 03b2 60       		.byte	0x60
 887 03b3 00       		.byte	0
 888 03b4 0B       		.uleb128 0xb
 889 03b5 44070000 		.4byte	.LASF47
 890 03b9 04       		.byte	0x4
 891 03ba 06       		.byte	0x6
 892 03bb 3101     		.2byte	0x131
 893 03bd CF030000 		.4byte	0x3cf
 894 03c1 0C       		.uleb128 0xc
 895 03c2 72313300 		.ascii	"r13\000"
 896 03c6 06       		.byte	0x6
 897 03c7 3201     		.2byte	0x132
 898 03c9 CF030000 		.4byte	0x3cf
 899 03cd 00       		.byte	0
 900 03ce 00       		.byte	0
 901 03cf 09       		.uleb128 0x9
 902 03d0 04       		.byte	0x4
 903 03d1 68020000 		.4byte	0x268
 904 03d5 0D       		.uleb128 0xd
 905 03d6 77000000 		.4byte	0x77
 906 03da 03       		.uleb128 0x3
 907 03db 04       		.byte	0x4
 908 03dc 07       		.byte	0x7
 909 03dd 97040000 		.4byte	.LASF48
ARM GAS  /tmp/ccfklhfX.s 			page 17


 910 03e1 0D       		.uleb128 0xd
 911 03e2 F6000000 		.4byte	0xf6
 912 03e6 05       		.uleb128 0x5
 913 03e7 A6040000 		.4byte	.LASF49
 914 03eb 10       		.byte	0x10
 915 03ec 07       		.byte	0x7
 916 03ed 2C       		.byte	0x2c
 917 03ee 17040000 		.4byte	0x417
 918 03f2 06       		.uleb128 0x6
 919 03f3 4D010000 		.4byte	.LASF50
 920 03f7 07       		.byte	0x7
 921 03f8 2D       		.byte	0x2d
 922 03f9 30020000 		.4byte	0x230
 923 03fd 00       		.byte	0
 924 03fe 06       		.uleb128 0x6
 925 03ff E6070000 		.4byte	.LASF51
 926 0403 07       		.byte	0x7
 927 0404 2F       		.byte	0x2f
 928 0405 2A020000 		.4byte	0x22a
 929 0409 08       		.byte	0x8
 930 040a 06       		.uleb128 0x6
 931 040b F6060000 		.4byte	.LASF52
 932 040f 07       		.byte	0x7
 933 0410 31       		.byte	0x31
 934 0411 17040000 		.4byte	0x417
 935 0415 0C       		.byte	0xc
 936 0416 00       		.byte	0
 937 0417 09       		.uleb128 0x9
 938 0418 04       		.byte	0x4
 939 0419 E6030000 		.4byte	0x3e6
 940 041d 04       		.uleb128 0x4
 941 041e A6040000 		.4byte	.LASF49
 942 0422 07       		.byte	0x7
 943 0423 33       		.byte	0x33
 944 0424 E6030000 		.4byte	0x3e6
 945 0428 0E       		.uleb128 0xe
 946 0429 04       		.byte	0x4
 947 042a 05       		.byte	0x5
 948 042b 96       		.byte	0x96
 949 042c 5D040000 		.4byte	0x45d
 950 0430 0F       		.uleb128 0xf
 951 0431 43000000 		.4byte	.LASF53
 952 0435 05       		.byte	0x5
 953 0436 9D       		.byte	0x9d
 954 0437 E0000000 		.4byte	0xe0
 955 043b 0F       		.uleb128 0xf
 956 043c C3000000 		.4byte	.LASF54
 957 0440 05       		.byte	0x5
 958 0441 A4       		.byte	0xa4
 959 0442 E0000000 		.4byte	0xe0
 960 0446 0F       		.uleb128 0xf
 961 0447 AF070000 		.4byte	.LASF55
 962 044b 05       		.byte	0x5
 963 044c AB       		.byte	0xab
 964 044d 66020000 		.4byte	0x266
 965 0451 0F       		.uleb128 0xf
 966 0452 25060000 		.4byte	.LASF56
ARM GAS  /tmp/ccfklhfX.s 			page 18


 967 0456 05       		.byte	0x5
 968 0457 B2       		.byte	0xb2
 969 0458 EB000000 		.4byte	0xeb
 970 045c 00       		.byte	0
 971 045d 09       		.uleb128 0x9
 972 045e 04       		.byte	0x4
 973 045f 63040000 		.4byte	0x463
 974 0463 10       		.uleb128 0x10
 975 0464 68040000 		.4byte	0x468
 976 0468 03       		.uleb128 0x3
 977 0469 01       		.byte	0x1
 978 046a 08       		.byte	0x8
 979 046b C0060000 		.4byte	.LASF57
 980 046f 09       		.uleb128 0x9
 981 0470 04       		.byte	0x4
 982 0471 1D040000 		.4byte	0x41d
 983 0475 09       		.uleb128 0x9
 984 0476 04       		.byte	0x4
 985 0477 3A000000 		.4byte	0x3a
 986 047b 09       		.uleb128 0x9
 987 047c 04       		.byte	0x4
 988 047d 81040000 		.4byte	0x481
 989 0481 10       		.uleb128 0x10
 990 0482 3A000000 		.4byte	0x3a
 991 0486 11       		.uleb128 0x11
 992 0487 77000000 		.4byte	0x77
 993 048b 96040000 		.4byte	0x496
 994 048f 12       		.uleb128 0x12
 995 0490 DA030000 		.4byte	0x3da
 996 0494 03       		.byte	0x3
 997 0495 00       		.byte	0
 998 0496 0D       		.uleb128 0xd
 999 0497 53000000 		.4byte	0x53
 1000 049b 0D       		.uleb128 0xd
 1001 049c 65000000 		.4byte	0x65
 1002 04a0 13       		.uleb128 0x13
 1003 04a1 18       		.byte	0x18
 1004 04a2 08       		.byte	0x8
 1005 04a3 B102     		.2byte	0x2b1
 1006 04a5 F7040000 		.4byte	0x4f7
 1007 04a9 0C       		.uleb128 0xc
 1008 04aa 435200   		.ascii	"CR\000"
 1009 04ad 08       		.byte	0x8
 1010 04ae B302     		.2byte	0x2b3
 1011 04b0 D5030000 		.4byte	0x3d5
 1012 04b4 00       		.byte	0
 1013 04b5 14       		.uleb128 0x14
 1014 04b6 21070000 		.4byte	.LASF58
 1015 04ba 08       		.byte	0x8
 1016 04bb B402     		.2byte	0x2b4
 1017 04bd D5030000 		.4byte	0x3d5
 1018 04c1 04       		.byte	0x4
 1019 04c2 0C       		.uleb128 0xc
 1020 04c3 50415200 		.ascii	"PAR\000"
 1021 04c7 08       		.byte	0x8
 1022 04c8 B502     		.2byte	0x2b5
 1023 04ca D5030000 		.4byte	0x3d5
ARM GAS  /tmp/ccfklhfX.s 			page 19


 1024 04ce 08       		.byte	0x8
 1025 04cf 14       		.uleb128 0x14
 1026 04d0 2F000000 		.4byte	.LASF59
 1027 04d4 08       		.byte	0x8
 1028 04d5 B602     		.2byte	0x2b6
 1029 04d7 D5030000 		.4byte	0x3d5
 1030 04db 0C       		.byte	0xc
 1031 04dc 14       		.uleb128 0x14
 1032 04dd 6A070000 		.4byte	.LASF60
 1033 04e1 08       		.byte	0x8
 1034 04e2 B702     		.2byte	0x2b7
 1035 04e4 D5030000 		.4byte	0x3d5
 1036 04e8 10       		.byte	0x10
 1037 04e9 0C       		.uleb128 0xc
 1038 04ea 46435200 		.ascii	"FCR\000"
 1039 04ee 08       		.byte	0x8
 1040 04ef B802     		.2byte	0x2b8
 1041 04f1 D5030000 		.4byte	0x3d5
 1042 04f5 14       		.byte	0x14
 1043 04f6 00       		.byte	0
 1044 04f7 15       		.uleb128 0x15
 1045 04f8 26070000 		.4byte	.LASF61
 1046 04fc 08       		.byte	0x8
 1047 04fd B902     		.2byte	0x2b9
 1048 04ff A0040000 		.4byte	0x4a0
 1049 0503 13       		.uleb128 0x13
 1050 0504 24       		.byte	0x24
 1051 0505 08       		.byte	0x8
 1052 0506 E304     		.2byte	0x4e3
 1053 0508 F5050000 		.4byte	0x5f5
 1054 050c 0C       		.uleb128 0xc
 1055 050d 43523100 		.ascii	"CR1\000"
 1056 0511 08       		.byte	0x8
 1057 0512 E504     		.2byte	0x4e5
 1058 0514 96040000 		.4byte	0x496
 1059 0518 00       		.byte	0
 1060 0519 14       		.uleb128 0x14
 1061 051a 5F050000 		.4byte	.LASF62
 1062 051e 08       		.byte	0x8
 1063 051f E604     		.2byte	0x4e6
 1064 0521 53000000 		.4byte	0x53
 1065 0525 02       		.byte	0x2
 1066 0526 0C       		.uleb128 0xc
 1067 0527 43523200 		.ascii	"CR2\000"
 1068 052b 08       		.byte	0x8
 1069 052c E704     		.2byte	0x4e7
 1070 052e 96040000 		.4byte	0x496
 1071 0532 04       		.byte	0x4
 1072 0533 14       		.uleb128 0x14
 1073 0534 69050000 		.4byte	.LASF63
 1074 0538 08       		.byte	0x8
 1075 0539 E804     		.2byte	0x4e8
 1076 053b 53000000 		.4byte	0x53
 1077 053f 06       		.byte	0x6
 1078 0540 0C       		.uleb128 0xc
 1079 0541 535200   		.ascii	"SR\000"
 1080 0544 08       		.byte	0x8
ARM GAS  /tmp/ccfklhfX.s 			page 20


 1081 0545 E904     		.2byte	0x4e9
 1082 0547 96040000 		.4byte	0x496
 1083 054b 08       		.byte	0x8
 1084 054c 14       		.uleb128 0x14
 1085 054d 73050000 		.4byte	.LASF64
 1086 0551 08       		.byte	0x8
 1087 0552 EA04     		.2byte	0x4ea
 1088 0554 53000000 		.4byte	0x53
 1089 0558 0A       		.byte	0xa
 1090 0559 0C       		.uleb128 0xc
 1091 055a 445200   		.ascii	"DR\000"
 1092 055d 08       		.byte	0x8
 1093 055e EB04     		.2byte	0x4eb
 1094 0560 96040000 		.4byte	0x496
 1095 0564 0C       		.byte	0xc
 1096 0565 14       		.uleb128 0x14
 1097 0566 7D050000 		.4byte	.LASF65
 1098 056a 08       		.byte	0x8
 1099 056b EC04     		.2byte	0x4ec
 1100 056d 53000000 		.4byte	0x53
 1101 0571 0E       		.byte	0xe
 1102 0572 14       		.uleb128 0x14
 1103 0573 4D050000 		.4byte	.LASF66
 1104 0577 08       		.byte	0x8
 1105 0578 ED04     		.2byte	0x4ed
 1106 057a 96040000 		.4byte	0x496
 1107 057e 10       		.byte	0x10
 1108 057f 14       		.uleb128 0x14
 1109 0580 87050000 		.4byte	.LASF67
 1110 0584 08       		.byte	0x8
 1111 0585 EE04     		.2byte	0x4ee
 1112 0587 53000000 		.4byte	0x53
 1113 058b 12       		.byte	0x12
 1114 058c 14       		.uleb128 0x14
 1115 058d 34000000 		.4byte	.LASF68
 1116 0591 08       		.byte	0x8
 1117 0592 EF04     		.2byte	0x4ef
 1118 0594 96040000 		.4byte	0x496
 1119 0598 14       		.byte	0x14
 1120 0599 14       		.uleb128 0x14
 1121 059a 72060000 		.4byte	.LASF69
 1122 059e 08       		.byte	0x8
 1123 059f F004     		.2byte	0x4f0
 1124 05a1 53000000 		.4byte	0x53
 1125 05a5 16       		.byte	0x16
 1126 05a6 14       		.uleb128 0x14
 1127 05a7 58050000 		.4byte	.LASF70
 1128 05ab 08       		.byte	0x8
 1129 05ac F104     		.2byte	0x4f1
 1130 05ae 96040000 		.4byte	0x496
 1131 05b2 18       		.byte	0x18
 1132 05b3 14       		.uleb128 0x14
 1133 05b4 98050000 		.4byte	.LASF71
 1134 05b8 08       		.byte	0x8
 1135 05b9 F204     		.2byte	0x4f2
 1136 05bb 53000000 		.4byte	0x53
 1137 05bf 1A       		.byte	0x1a
ARM GAS  /tmp/ccfklhfX.s 			page 21


 1138 05c0 14       		.uleb128 0x14
 1139 05c1 3E010000 		.4byte	.LASF72
 1140 05c5 08       		.byte	0x8
 1141 05c6 F304     		.2byte	0x4f3
 1142 05c8 96040000 		.4byte	0x496
 1143 05cc 1C       		.byte	0x1c
 1144 05cd 14       		.uleb128 0x14
 1145 05ce A2050000 		.4byte	.LASF73
 1146 05d2 08       		.byte	0x8
 1147 05d3 F404     		.2byte	0x4f4
 1148 05d5 53000000 		.4byte	0x53
 1149 05d9 1E       		.byte	0x1e
 1150 05da 14       		.uleb128 0x14
 1151 05db 91040000 		.4byte	.LASF74
 1152 05df 08       		.byte	0x8
 1153 05e0 F504     		.2byte	0x4f5
 1154 05e2 96040000 		.4byte	0x496
 1155 05e6 20       		.byte	0x20
 1156 05e7 14       		.uleb128 0x14
 1157 05e8 AC050000 		.4byte	.LASF75
 1158 05ec 08       		.byte	0x8
 1159 05ed F604     		.2byte	0x4f6
 1160 05ef 53000000 		.4byte	0x53
 1161 05f3 22       		.byte	0x22
 1162 05f4 00       		.byte	0
 1163 05f5 15       		.uleb128 0x15
 1164 05f6 AF060000 		.4byte	.LASF76
 1165 05fa 08       		.byte	0x8
 1166 05fb F704     		.2byte	0x4f7
 1167 05fd 03050000 		.4byte	0x503
 1168 0601 08       		.uleb128 0x8
 1169 0602 0C       		.byte	0xc
 1170 0603 09       		.byte	0x9
 1171 0604 DA       		.byte	0xda
 1172 0605 46060000 		.4byte	0x646
 1173 0609 06       		.uleb128 0x6
 1174 060a 81000000 		.4byte	.LASF77
 1175 060e 09       		.byte	0x9
 1176 060f DB       		.byte	0xdb
 1177 0610 46060000 		.4byte	0x646
 1178 0614 00       		.byte	0
 1179 0615 06       		.uleb128 0x6
 1180 0616 6D060000 		.4byte	.LASF78
 1181 061a 09       		.byte	0x9
 1182 061b DC       		.byte	0xdc
 1183 061c 4C060000 		.4byte	0x64c
 1184 0620 04       		.byte	0x4
 1185 0621 06       		.uleb128 0x6
 1186 0622 AA030000 		.4byte	.LASF79
 1187 0626 09       		.byte	0x9
 1188 0627 DD       		.byte	0xdd
 1189 0628 3A000000 		.4byte	0x3a
 1190 062c 08       		.byte	0x8
 1191 062d 06       		.uleb128 0x6
 1192 062e 22020000 		.4byte	.LASF80
 1193 0632 09       		.byte	0x9
 1194 0633 DF       		.byte	0xdf
ARM GAS  /tmp/ccfklhfX.s 			page 22


 1195 0634 3A000000 		.4byte	0x3a
 1196 0638 09       		.byte	0x9
 1197 0639 06       		.uleb128 0x6
 1198 063a EE070000 		.4byte	.LASF81
 1199 063e 09       		.byte	0x9
 1200 063f E0       		.byte	0xe0
 1201 0640 3A000000 		.4byte	0x3a
 1202 0644 0A       		.byte	0xa
 1203 0645 00       		.byte	0
 1204 0646 09       		.uleb128 0x9
 1205 0647 04       		.byte	0x4
 1206 0648 F7040000 		.4byte	0x4f7
 1207 064c 09       		.uleb128 0x9
 1208 064d 04       		.byte	0x4
 1209 064e D5030000 		.4byte	0x3d5
 1210 0652 04       		.uleb128 0x4
 1211 0653 E0050000 		.4byte	.LASF82
 1212 0657 09       		.byte	0x9
 1213 0658 E1       		.byte	0xe1
 1214 0659 01060000 		.4byte	0x601
 1215 065d 16       		.uleb128 0x16
 1216 065e 01       		.byte	0x1
 1217 065f 0A       		.byte	0xa
 1218 0660 33       		.byte	0x33
 1219 0661 9C060000 		.4byte	0x69c
 1220 0665 17       		.uleb128 0x17
 1221 0666 76010000 		.4byte	.LASF83
 1222 066a 00       		.sleb128 0
 1223 066b 17       		.uleb128 0x17
 1224 066c 00020000 		.4byte	.LASF84
 1225 0670 01       		.sleb128 1
 1226 0671 17       		.uleb128 0x17
 1227 0672 C4030000 		.4byte	.LASF85
 1228 0676 02       		.sleb128 2
 1229 0677 17       		.uleb128 0x17
 1230 0678 EB030000 		.4byte	.LASF86
 1231 067c 03       		.sleb128 3
 1232 067d 17       		.uleb128 0x17
 1233 067e D2060000 		.4byte	.LASF87
 1234 0682 04       		.sleb128 4
 1235 0683 17       		.uleb128 0x17
 1236 0684 E3040000 		.4byte	.LASF88
 1237 0688 05       		.sleb128 5
 1238 0689 17       		.uleb128 0x17
 1239 068a 85040000 		.4byte	.LASF89
 1240 068e 06       		.sleb128 6
 1241 068f 17       		.uleb128 0x17
 1242 0690 0F060000 		.4byte	.LASF90
 1243 0694 07       		.sleb128 7
 1244 0695 17       		.uleb128 0x17
 1245 0696 C0040000 		.4byte	.LASF91
 1246 069a 08       		.sleb128 8
 1247 069b 00       		.byte	0
 1248 069c 04       		.uleb128 0x4
 1249 069d FC000000 		.4byte	.LASF92
 1250 06a1 0A       		.byte	0xa
 1251 06a2 3D       		.byte	0x3d
ARM GAS  /tmp/ccfklhfX.s 			page 23


 1252 06a3 5D060000 		.4byte	0x65d
 1253 06a7 08       		.uleb128 0x8
 1254 06a8 08       		.byte	0x8
 1255 06a9 0A       		.byte	0xa
 1256 06aa 42       		.byte	0x42
 1257 06ab C8060000 		.4byte	0x6c8
 1258 06af 06       		.uleb128 0x6
 1259 06b0 37020000 		.4byte	.LASF93
 1260 06b4 0A       		.byte	0xa
 1261 06b5 43       		.byte	0x43
 1262 06b6 77000000 		.4byte	0x77
 1263 06ba 00       		.byte	0
 1264 06bb 06       		.uleb128 0x6
 1265 06bc 3B000000 		.4byte	.LASF94
 1266 06c0 0A       		.byte	0xa
 1267 06c1 44       		.byte	0x44
 1268 06c2 77000000 		.4byte	0x77
 1269 06c6 04       		.byte	0x4
 1270 06c7 00       		.byte	0
 1271 06c8 04       		.uleb128 0x4
 1272 06c9 00000000 		.4byte	.LASF95
 1273 06cd 0A       		.byte	0xa
 1274 06ce 45       		.byte	0x45
 1275 06cf A7060000 		.4byte	0x6a7
 1276 06d3 18       		.uleb128 0x18
 1277 06d4 97000000 		.4byte	0x97
 1278 06d8 E2060000 		.4byte	0x6e2
 1279 06dc 19       		.uleb128 0x19
 1280 06dd 66020000 		.4byte	0x266
 1281 06e1 00       		.byte	0
 1282 06e2 09       		.uleb128 0x9
 1283 06e3 04       		.byte	0x4
 1284 06e4 D3060000 		.4byte	0x6d3
 1285 06e8 18       		.uleb128 0x18
 1286 06e9 97000000 		.4byte	0x97
 1287 06ed 06070000 		.4byte	0x706
 1288 06f1 19       		.uleb128 0x19
 1289 06f2 66020000 		.4byte	0x266
 1290 06f6 19       		.uleb128 0x19
 1291 06f7 77000000 		.4byte	0x77
 1292 06fb 19       		.uleb128 0x19
 1293 06fc 75040000 		.4byte	0x475
 1294 0700 19       		.uleb128 0x19
 1295 0701 77000000 		.4byte	0x77
 1296 0705 00       		.byte	0
 1297 0706 09       		.uleb128 0x9
 1298 0707 04       		.byte	0x4
 1299 0708 E8060000 		.4byte	0x6e8
 1300 070c 18       		.uleb128 0x18
 1301 070d 97000000 		.4byte	0x97
 1302 0711 2A070000 		.4byte	0x72a
 1303 0715 19       		.uleb128 0x19
 1304 0716 66020000 		.4byte	0x266
 1305 071a 19       		.uleb128 0x19
 1306 071b 77000000 		.4byte	0x77
 1307 071f 19       		.uleb128 0x19
 1308 0720 7B040000 		.4byte	0x47b
ARM GAS  /tmp/ccfklhfX.s 			page 24


 1309 0724 19       		.uleb128 0x19
 1310 0725 77000000 		.4byte	0x77
 1311 0729 00       		.byte	0
 1312 072a 09       		.uleb128 0x9
 1313 072b 04       		.byte	0x4
 1314 072c 0C070000 		.4byte	0x70c
 1315 0730 18       		.uleb128 0x18
 1316 0731 97000000 		.4byte	0x97
 1317 0735 44070000 		.4byte	0x744
 1318 0739 19       		.uleb128 0x19
 1319 073a 66020000 		.4byte	0x266
 1320 073e 19       		.uleb128 0x19
 1321 073f 44070000 		.4byte	0x744
 1322 0743 00       		.byte	0
 1323 0744 09       		.uleb128 0x9
 1324 0745 04       		.byte	0x4
 1325 0746 C8060000 		.4byte	0x6c8
 1326 074a 09       		.uleb128 0x9
 1327 074b 04       		.byte	0x4
 1328 074c 30070000 		.4byte	0x730
 1329 0750 08       		.uleb128 0x8
 1330 0751 04       		.byte	0x4
 1331 0752 0B       		.byte	0xb
 1332 0753 96       		.byte	0x96
 1333 0754 71070000 		.4byte	0x771
 1334 0758 07       		.uleb128 0x7
 1335 0759 73657400 		.ascii	"set\000"
 1336 075d 0B       		.byte	0xb
 1337 075e 97       		.byte	0x97
 1338 075f 53000000 		.4byte	0x53
 1339 0763 00       		.byte	0
 1340 0764 06       		.uleb128 0x6
 1341 0765 A0040000 		.4byte	.LASF96
 1342 0769 0B       		.byte	0xb
 1343 076a 98       		.byte	0x98
 1344 076b 53000000 		.4byte	0x53
 1345 076f 02       		.byte	0x2
 1346 0770 00       		.byte	0
 1347 0771 0E       		.uleb128 0xe
 1348 0772 04       		.byte	0x4
 1349 0773 0B       		.byte	0xb
 1350 0774 94       		.byte	0x94
 1351 0775 8C070000 		.4byte	0x78c
 1352 0779 1A       		.uleb128 0x1a
 1353 077a 5700     		.ascii	"W\000"
 1354 077c 0B       		.byte	0xb
 1355 077d 95       		.byte	0x95
 1356 077e 77000000 		.4byte	0x77
 1357 0782 1A       		.uleb128 0x1a
 1358 0783 4800     		.ascii	"H\000"
 1359 0785 0B       		.byte	0xb
 1360 0786 99       		.byte	0x99
 1361 0787 50070000 		.4byte	0x750
 1362 078b 00       		.byte	0
 1363 078c 08       		.uleb128 0x8
 1364 078d 28       		.byte	0x28
 1365 078e 0B       		.byte	0xb
ARM GAS  /tmp/ccfklhfX.s 			page 25


 1366 078f 8C       		.byte	0x8c
 1367 0790 0D080000 		.4byte	0x80d
 1368 0794 06       		.uleb128 0x6
 1369 0795 96000000 		.4byte	.LASF97
 1370 0799 0B       		.byte	0xb
 1371 079a 8E       		.byte	0x8e
 1372 079b D5030000 		.4byte	0x3d5
 1373 079f 00       		.byte	0
 1374 07a0 06       		.uleb128 0x6
 1375 07a1 57000000 		.4byte	.LASF98
 1376 07a5 0B       		.byte	0xb
 1377 07a6 8F       		.byte	0x8f
 1378 07a7 D5030000 		.4byte	0x3d5
 1379 07ab 04       		.byte	0x4
 1380 07ac 06       		.uleb128 0x6
 1381 07ad 09020000 		.4byte	.LASF99
 1382 07b1 0B       		.byte	0xb
 1383 07b2 90       		.byte	0x90
 1384 07b3 D5030000 		.4byte	0x3d5
 1385 07b7 08       		.byte	0x8
 1386 07b8 06       		.uleb128 0x6
 1387 07b9 BD000000 		.4byte	.LASF100
 1388 07bd 0B       		.byte	0xb
 1389 07be 91       		.byte	0x91
 1390 07bf D5030000 		.4byte	0x3d5
 1391 07c3 0C       		.byte	0xc
 1392 07c4 07       		.uleb128 0x7
 1393 07c5 49445200 		.ascii	"IDR\000"
 1394 07c9 0B       		.byte	0xb
 1395 07ca 92       		.byte	0x92
 1396 07cb D5030000 		.4byte	0x3d5
 1397 07cf 10       		.byte	0x10
 1398 07d0 07       		.uleb128 0x7
 1399 07d1 4F445200 		.ascii	"ODR\000"
 1400 07d5 0B       		.byte	0xb
 1401 07d6 93       		.byte	0x93
 1402 07d7 D5030000 		.4byte	0x3d5
 1403 07db 14       		.byte	0x14
 1404 07dc 06       		.uleb128 0x6
 1405 07dd 92070000 		.4byte	.LASF101
 1406 07e1 0B       		.byte	0xb
 1407 07e2 9A       		.byte	0x9a
 1408 07e3 0D080000 		.4byte	0x80d
 1409 07e7 18       		.byte	0x18
 1410 07e8 06       		.uleb128 0x6
 1411 07e9 A5030000 		.4byte	.LASF102
 1412 07ed 0B       		.byte	0xb
 1413 07ee 9B       		.byte	0x9b
 1414 07ef D5030000 		.4byte	0x3d5
 1415 07f3 1C       		.byte	0x1c
 1416 07f4 06       		.uleb128 0x6
 1417 07f5 53050000 		.4byte	.LASF103
 1418 07f9 0B       		.byte	0xb
 1419 07fa 9C       		.byte	0x9c
 1420 07fb D5030000 		.4byte	0x3d5
 1421 07ff 20       		.byte	0x20
 1422 0800 06       		.uleb128 0x6
ARM GAS  /tmp/ccfklhfX.s 			page 26


 1423 0801 48050000 		.4byte	.LASF104
 1424 0805 0B       		.byte	0xb
 1425 0806 9D       		.byte	0x9d
 1426 0807 D5030000 		.4byte	0x3d5
 1427 080b 24       		.byte	0x24
 1428 080c 00       		.byte	0
 1429 080d 0D       		.uleb128 0xd
 1430 080e 71070000 		.4byte	0x771
 1431 0812 04       		.uleb128 0x4
 1432 0813 E4010000 		.4byte	.LASF105
 1433 0817 0B       		.byte	0xb
 1434 0818 9E       		.byte	0x9e
 1435 0819 8C070000 		.4byte	0x78c
 1436 081d 04       		.uleb128 0x4
 1437 081e 39070000 		.4byte	.LASF106
 1438 0822 0B       		.byte	0xb
 1439 0823 FD       		.byte	0xfd
 1440 0824 28080000 		.4byte	0x828
 1441 0828 09       		.uleb128 0x9
 1442 0829 04       		.byte	0x4
 1443 082a 12080000 		.4byte	0x812
 1444 082e 09       		.uleb128 0x9
 1445 082f 04       		.byte	0x4
 1446 0830 34080000 		.4byte	0x834
 1447 0834 10       		.uleb128 0x10
 1448 0835 52060000 		.4byte	0x652
 1449 0839 16       		.uleb128 0x16
 1450 083a 01       		.byte	0x1
 1451 083b 0C       		.byte	0xc
 1452 083c 55       		.byte	0x55
 1453 083d 60080000 		.4byte	0x860
 1454 0841 17       		.uleb128 0x17
 1455 0842 6F070000 		.4byte	.LASF107
 1456 0846 00       		.sleb128 0
 1457 0847 17       		.uleb128 0x17
 1458 0848 35010000 		.4byte	.LASF108
 1459 084c 01       		.sleb128 1
 1460 084d 17       		.uleb128 0x17
 1461 084e B3000000 		.4byte	.LASF109
 1462 0852 02       		.sleb128 2
 1463 0853 17       		.uleb128 0x17
 1464 0854 5E000000 		.4byte	.LASF110
 1465 0858 03       		.sleb128 3
 1466 0859 17       		.uleb128 0x17
 1467 085a C5060000 		.4byte	.LASF111
 1468 085e 04       		.sleb128 4
 1469 085f 00       		.byte	0
 1470 0860 04       		.uleb128 0x4
 1471 0861 EB060000 		.4byte	.LASF112
 1472 0865 0C       		.byte	0xc
 1473 0866 5B       		.byte	0x5b
 1474 0867 39080000 		.4byte	0x839
 1475 086b 15       		.uleb128 0x15
 1476 086c DE000000 		.4byte	.LASF113
 1477 0870 0D       		.byte	0xd
 1478 0871 E701     		.2byte	0x1e7
 1479 0873 77080000 		.4byte	0x877
ARM GAS  /tmp/ccfklhfX.s 			page 27


 1480 0877 0B       		.uleb128 0xb
 1481 0878 DE000000 		.4byte	.LASF113
 1482 087c 30       		.byte	0x30
 1483 087d 0D       		.byte	0xd
 1484 087e 0B02     		.2byte	0x20b
 1485 0880 FA080000 		.4byte	0x8fa
 1486 0884 14       		.uleb128 0x14
 1487 0885 81010000 		.4byte	.LASF114
 1488 0889 0D       		.byte	0xd
 1489 088a 0F02     		.2byte	0x20f
 1490 088c 60080000 		.4byte	0x860
 1491 0890 00       		.byte	0
 1492 0891 14       		.uleb128 0x14
 1493 0892 E4060000 		.4byte	.LASF115
 1494 0896 0D       		.byte	0xd
 1495 0897 1302     		.2byte	0x213
 1496 0899 67090000 		.4byte	0x967
 1497 089d 04       		.byte	0x4
 1498 089e 14       		.uleb128 0x14
 1499 089f 1A070000 		.4byte	.LASF116
 1500 08a3 0D       		.byte	0xd
 1501 08a4 1802     		.2byte	0x218
 1502 08a6 2A020000 		.4byte	0x22a
 1503 08aa 08       		.byte	0x8
 1504 08ab 14       		.uleb128 0x14
 1505 08ac BE050000 		.4byte	.LASF117
 1506 08b0 0D       		.byte	0xd
 1507 08b1 1F02     		.2byte	0x21f
 1508 08b3 1D040000 		.4byte	0x41d
 1509 08b7 0C       		.byte	0xc
 1510 08b8 0C       		.uleb128 0xc
 1511 08b9 73706900 		.ascii	"spi\000"
 1512 08bd 0D       		.byte	0xd
 1513 08be 2B02     		.2byte	0x22b
 1514 08c0 72090000 		.4byte	0x972
 1515 08c4 1C       		.byte	0x1c
 1516 08c5 14       		.uleb128 0x14
 1517 08c6 10000000 		.4byte	.LASF118
 1518 08ca 0D       		.byte	0xd
 1519 08cb 2F02     		.2byte	0x22f
 1520 08cd 2E080000 		.4byte	0x82e
 1521 08d1 20       		.byte	0x20
 1522 08d2 14       		.uleb128 0x14
 1523 08d3 FA010000 		.4byte	.LASF119
 1524 08d7 0D       		.byte	0xd
 1525 08d8 3302     		.2byte	0x233
 1526 08da 2E080000 		.4byte	0x82e
 1527 08de 24       		.byte	0x24
 1528 08df 14       		.uleb128 0x14
 1529 08e0 DA010000 		.4byte	.LASF120
 1530 08e4 0D       		.byte	0xd
 1531 08e5 3702     		.2byte	0x237
 1532 08e7 77000000 		.4byte	0x77
 1533 08eb 28       		.byte	0x28
 1534 08ec 14       		.uleb128 0x14
 1535 08ed FA040000 		.4byte	.LASF121
 1536 08f1 0D       		.byte	0xd
ARM GAS  /tmp/ccfklhfX.s 			page 28


 1537 08f2 3B02     		.2byte	0x23b
 1538 08f4 77000000 		.4byte	0x77
 1539 08f8 2C       		.byte	0x2c
 1540 08f9 00       		.byte	0
 1541 08fa 15       		.uleb128 0x15
 1542 08fb 88000000 		.4byte	.LASF122
 1543 08ff 0D       		.byte	0xd
 1544 0900 EF01     		.2byte	0x1ef
 1545 0902 06090000 		.4byte	0x906
 1546 0906 09       		.uleb128 0x9
 1547 0907 04       		.byte	0x4
 1548 0908 0C090000 		.4byte	0x90c
 1549 090c 1B       		.uleb128 0x1b
 1550 090d 17090000 		.4byte	0x917
 1551 0911 19       		.uleb128 0x19
 1552 0912 17090000 		.4byte	0x917
 1553 0916 00       		.byte	0
 1554 0917 09       		.uleb128 0x9
 1555 0918 04       		.byte	0x4
 1556 0919 6B080000 		.4byte	0x86b
 1557 091d 13       		.uleb128 0x13
 1558 091e 0C       		.byte	0xc
 1559 091f 0D       		.byte	0xd
 1560 0920 F401     		.2byte	0x1f4
 1561 0922 5B090000 		.4byte	0x95b
 1562 0926 14       		.uleb128 0x14
 1563 0927 D3010000 		.4byte	.LASF123
 1564 092b 0D       		.byte	0xd
 1565 092c F801     		.2byte	0x1f8
 1566 092e FA080000 		.4byte	0x8fa
 1567 0932 00       		.byte	0
 1568 0933 14       		.uleb128 0x14
 1569 0934 E8000000 		.4byte	.LASF124
 1570 0938 0D       		.byte	0xd
 1571 0939 FD01     		.2byte	0x1fd
 1572 093b 1D080000 		.4byte	0x81d
 1573 093f 04       		.byte	0x4
 1574 0940 14       		.uleb128 0x14
 1575 0941 BF010000 		.4byte	.LASF125
 1576 0945 0D       		.byte	0xd
 1577 0946 0102     		.2byte	0x201
 1578 0948 53000000 		.4byte	0x53
 1579 094c 08       		.byte	0x8
 1580 094d 0C       		.uleb128 0xc
 1581 094e 63723100 		.ascii	"cr1\000"
 1582 0952 0D       		.byte	0xd
 1583 0953 0502     		.2byte	0x205
 1584 0955 53000000 		.4byte	0x53
 1585 0959 0A       		.byte	0xa
 1586 095a 00       		.byte	0
 1587 095b 15       		.uleb128 0x15
 1588 095c C0070000 		.4byte	.LASF126
 1589 0960 0D       		.byte	0xd
 1590 0961 0602     		.2byte	0x206
 1591 0963 1D090000 		.4byte	0x91d
 1592 0967 09       		.uleb128 0x9
 1593 0968 04       		.byte	0x4
ARM GAS  /tmp/ccfklhfX.s 			page 29


 1594 0969 6D090000 		.4byte	0x96d
 1595 096d 10       		.uleb128 0x10
 1596 096e 5B090000 		.4byte	0x95b
 1597 0972 09       		.uleb128 0x9
 1598 0973 04       		.byte	0x4
 1599 0974 F5050000 		.4byte	0x5f5
 1600 0978 08       		.uleb128 0x8
 1601 0979 0C       		.byte	0xc
 1602 097a 0E       		.byte	0xe
 1603 097b 56       		.byte	0x56
 1604 097c A5090000 		.4byte	0x9a5
 1605 0980 06       		.uleb128 0x6
 1606 0981 A5070000 		.4byte	.LASF127
 1607 0985 0E       		.byte	0xe
 1608 0986 5A       		.byte	0x5a
 1609 0987 17090000 		.4byte	0x917
 1610 098b 00       		.byte	0
 1611 098c 06       		.uleb128 0x6
 1612 098d CF030000 		.4byte	.LASF128
 1613 0991 0E       		.byte	0xe
 1614 0992 5E       		.byte	0x5e
 1615 0993 67090000 		.4byte	0x967
 1616 0997 04       		.byte	0x4
 1617 0998 06       		.uleb128 0x6
 1618 0999 97070000 		.4byte	.LASF129
 1619 099d 0E       		.byte	0xe
 1620 099e 62       		.byte	0x62
 1621 099f 67090000 		.4byte	0x967
 1622 09a3 08       		.byte	0x8
 1623 09a4 00       		.byte	0
 1624 09a5 04       		.uleb128 0x4
 1625 09a6 04050000 		.4byte	.LASF130
 1626 09aa 0E       		.byte	0xe
 1627 09ab 63       		.byte	0x63
 1628 09ac 78090000 		.4byte	0x978
 1629 09b0 05       		.uleb128 0x5
 1630 09b1 69000000 		.4byte	.LASF131
 1631 09b5 20       		.byte	0x20
 1632 09b6 0E       		.byte	0xe
 1633 09b7 70       		.byte	0x70
 1634 09b8 1D0A0000 		.4byte	0xa1d
 1635 09bc 06       		.uleb128 0x6
 1636 09bd 5E070000 		.4byte	.LASF132
 1637 09c1 0E       		.byte	0xe
 1638 09c2 71       		.byte	0x71
 1639 09c3 E2060000 		.4byte	0x6e2
 1640 09c7 00       		.byte	0
 1641 09c8 06       		.uleb128 0x6
 1642 09c9 4A000000 		.4byte	.LASF133
 1643 09cd 0E       		.byte	0xe
 1644 09ce 71       		.byte	0x71
 1645 09cf E2060000 		.4byte	0x6e2
 1646 09d3 04       		.byte	0x4
 1647 09d4 06       		.uleb128 0x6
 1648 09d5 5A060000 		.4byte	.LASF134
 1649 09d9 0E       		.byte	0xe
 1650 09da 71       		.byte	0x71
ARM GAS  /tmp/ccfklhfX.s 			page 30


 1651 09db E2060000 		.4byte	0x6e2
 1652 09df 08       		.byte	0x8
 1653 09e0 06       		.uleb128 0x6
 1654 09e1 55010000 		.4byte	.LASF135
 1655 09e5 0E       		.byte	0xe
 1656 09e6 71       		.byte	0x71
 1657 09e7 E2060000 		.4byte	0x6e2
 1658 09eb 0C       		.byte	0xc
 1659 09ec 06       		.uleb128 0x6
 1660 09ed BB060000 		.4byte	.LASF136
 1661 09f1 0E       		.byte	0xe
 1662 09f2 71       		.byte	0x71
 1663 09f3 06070000 		.4byte	0x706
 1664 09f7 10       		.byte	0x10
 1665 09f8 06       		.uleb128 0x6
 1666 09f9 33040000 		.4byte	.LASF137
 1667 09fd 0E       		.byte	0xe
 1668 09fe 71       		.byte	0x71
 1669 09ff 2A070000 		.4byte	0x72a
 1670 0a03 14       		.byte	0x14
 1671 0a04 06       		.uleb128 0x6
 1672 0a05 AA070000 		.4byte	.LASF138
 1673 0a09 0E       		.byte	0xe
 1674 0a0a 71       		.byte	0x71
 1675 0a0b E2060000 		.4byte	0x6e2
 1676 0a0f 18       		.byte	0x18
 1677 0a10 06       		.uleb128 0x6
 1678 0a11 F1010000 		.4byte	.LASF139
 1679 0a15 0E       		.byte	0xe
 1680 0a16 71       		.byte	0x71
 1681 0a17 4A070000 		.4byte	0x74a
 1682 0a1b 1C       		.byte	0x1c
 1683 0a1c 00       		.byte	0
 1684 0a1d 08       		.uleb128 0x8
 1685 0a1e 34       		.byte	0x34
 1686 0a1f 0E       		.byte	0xe
 1687 0a20 79       		.byte	0x79
 1688 0a21 7A0A0000 		.4byte	0xa7a
 1689 0a25 07       		.uleb128 0x7
 1690 0a26 766D7400 		.ascii	"vmt\000"
 1691 0a2a 0E       		.byte	0xe
 1692 0a2b 7D       		.byte	0x7d
 1693 0a2c 7A0A0000 		.4byte	0xa7a
 1694 0a30 00       		.byte	0
 1695 0a31 06       		.uleb128 0x6
 1696 0a32 81010000 		.4byte	.LASF114
 1697 0a36 0E       		.byte	0xe
 1698 0a37 7E       		.byte	0x7e
 1699 0a38 9C060000 		.4byte	0x69c
 1700 0a3c 04       		.byte	0x4
 1701 0a3d 07       		.uleb128 0x7
 1702 0a3e 63696400 		.ascii	"cid\000"
 1703 0a42 0E       		.byte	0xe
 1704 0a43 7E       		.byte	0x7e
 1705 0a44 86040000 		.4byte	0x486
 1706 0a48 08       		.byte	0x8
 1707 0a49 07       		.uleb128 0x7
ARM GAS  /tmp/ccfklhfX.s 			page 31


 1708 0a4a 63736400 		.ascii	"csd\000"
 1709 0a4e 0E       		.byte	0xe
 1710 0a4f 7E       		.byte	0x7e
 1711 0a50 86040000 		.4byte	0x486
 1712 0a54 18       		.byte	0x18
 1713 0a55 06       		.uleb128 0x6
 1714 0a56 1C000000 		.4byte	.LASF140
 1715 0a5a 0E       		.byte	0xe
 1716 0a5b 7E       		.byte	0x7e
 1717 0a5c 77000000 		.4byte	0x77
 1718 0a60 28       		.byte	0x28
 1719 0a61 06       		.uleb128 0x6
 1720 0a62 E4060000 		.4byte	.LASF115
 1721 0a66 0E       		.byte	0xe
 1722 0a67 82       		.byte	0x82
 1723 0a68 850A0000 		.4byte	0xa85
 1724 0a6c 2C       		.byte	0x2c
 1725 0a6d 06       		.uleb128 0x6
 1726 0a6e D5030000 		.4byte	.LASF141
 1727 0a72 0E       		.byte	0xe
 1728 0a73 86       		.byte	0x86
 1729 0a74 97000000 		.4byte	0x97
 1730 0a78 30       		.byte	0x30
 1731 0a79 00       		.byte	0
 1732 0a7a 09       		.uleb128 0x9
 1733 0a7b 04       		.byte	0x4
 1734 0a7c 800A0000 		.4byte	0xa80
 1735 0a80 10       		.uleb128 0x10
 1736 0a81 B0090000 		.4byte	0x9b0
 1737 0a85 09       		.uleb128 0x9
 1738 0a86 04       		.byte	0x4
 1739 0a87 8B0A0000 		.4byte	0xa8b
 1740 0a8b 10       		.uleb128 0x10
 1741 0a8c A5090000 		.4byte	0x9a5
 1742 0a90 04       		.uleb128 0x4
 1743 0a91 7A070000 		.4byte	.LASF142
 1744 0a95 0E       		.byte	0xe
 1745 0a96 87       		.byte	0x87
 1746 0a97 1D0A0000 		.4byte	0xa1d
 1747 0a9b 04       		.uleb128 0x4
 1748 0a9c 40020000 		.4byte	.LASF143
 1749 0aa0 0F       		.byte	0xf
 1750 0aa1 16       		.byte	0x16
 1751 0aa2 45000000 		.4byte	0x45
 1752 0aa6 04       		.uleb128 0x4
 1753 0aa7 AC040000 		.4byte	.LASF144
 1754 0aab 0F       		.byte	0xf
 1755 0aac 1B       		.byte	0x1b
 1756 0aad 5E000000 		.4byte	0x5e
 1757 0ab1 04       		.uleb128 0x4
 1758 0ab2 C5010000 		.4byte	.LASF145
 1759 0ab6 0F       		.byte	0xf
 1760 0ab7 21       		.byte	0x21
 1761 0ab8 82000000 		.4byte	0x82
 1762 0abc 04       		.uleb128 0x4
 1763 0abd 12070000 		.4byte	.LASF146
 1764 0ac1 10       		.byte	0x10
ARM GAS  /tmp/ccfklhfX.s 			page 32


 1765 0ac2 0E       		.byte	0xe
 1766 0ac3 9B0A0000 		.4byte	0xa9b
 1767 0ac7 16       		.uleb128 0x16
 1768 0ac8 01       		.byte	0x1
 1769 0ac9 10       		.byte	0x10
 1770 0aca 11       		.byte	0x11
 1771 0acb EE0A0000 		.4byte	0xaee
 1772 0acf 17       		.uleb128 0x17
 1773 0ad0 B1040000 		.4byte	.LASF147
 1774 0ad4 00       		.sleb128 0
 1775 0ad5 17       		.uleb128 0x17
 1776 0ad6 B6070000 		.4byte	.LASF148
 1777 0ada 01       		.sleb128 1
 1778 0adb 17       		.uleb128 0x17
 1779 0adc 25000000 		.4byte	.LASF149
 1780 0ae0 02       		.sleb128 2
 1781 0ae1 17       		.uleb128 0x17
 1782 0ae2 76000000 		.4byte	.LASF150
 1783 0ae6 03       		.sleb128 3
 1784 0ae7 17       		.uleb128 0x17
 1785 0ae8 99010000 		.4byte	.LASF151
 1786 0aec 04       		.sleb128 4
 1787 0aed 00       		.byte	0
 1788 0aee 04       		.uleb128 0x4
 1789 0aef 95060000 		.4byte	.LASF152
 1790 0af3 10       		.byte	0x10
 1791 0af4 17       		.byte	0x17
 1792 0af5 C70A0000 		.4byte	0xac7
 1793 0af9 1C       		.uleb128 0x1c
 1794 0afa 7C060000 		.4byte	.LASF153
 1795 0afe 01       		.byte	0x1
 1796 0aff 29       		.byte	0x29
 1797 0b00 BC0A0000 		.4byte	0xabc
 1798 0b04 00000000 		.4byte	.LFB118
 1799 0b08 2C000000 		.4byte	.LFE118-.LFB118
 1800 0b0c 01       		.uleb128 0x1
 1801 0b0d 9C       		.byte	0x9c
 1802 0b0e 3A0B0000 		.4byte	0xb3a
 1803 0b12 1D       		.uleb128 0x1d
 1804 0b13 64727600 		.ascii	"drv\000"
 1805 0b17 01       		.byte	0x1
 1806 0b18 2A       		.byte	0x2a
 1807 0b19 9B0A0000 		.4byte	0xa9b
 1808 0b1d 00000000 		.4byte	.LLST0
 1809 0b21 1E       		.uleb128 0x1e
 1810 0b22 0E010000 		.4byte	.LASF155
 1811 0b26 01       		.byte	0x1
 1812 0b27 2D       		.byte	0x2d
 1813 0b28 BC0A0000 		.4byte	0xabc
 1814 0b2c 3A000000 		.4byte	.LLST1
 1815 0b30 1F       		.uleb128 0x1f
 1816 0b31 18000000 		.4byte	.LVL5
 1817 0b35 200D0000 		.4byte	0xd20
 1818 0b39 00       		.byte	0
 1819 0b3a 1C       		.uleb128 0x1c
 1820 0b3b 99030000 		.4byte	.LASF154
 1821 0b3f 01       		.byte	0x1
ARM GAS  /tmp/ccfklhfX.s 			page 33


 1822 0b40 4C       		.byte	0x4c
 1823 0b41 BC0A0000 		.4byte	0xabc
 1824 0b45 00000000 		.4byte	.LFB119
 1825 0b49 2C000000 		.4byte	.LFE119-.LFB119
 1826 0b4d 01       		.uleb128 0x1
 1827 0b4e 9C       		.byte	0x9c
 1828 0b4f 7B0B0000 		.4byte	0xb7b
 1829 0b53 1D       		.uleb128 0x1d
 1830 0b54 64727600 		.ascii	"drv\000"
 1831 0b58 01       		.byte	0x1
 1832 0b59 4D       		.byte	0x4d
 1833 0b5a 9B0A0000 		.4byte	0xa9b
 1834 0b5e 59000000 		.4byte	.LLST2
 1835 0b62 1E       		.uleb128 0x1e
 1836 0b63 0E010000 		.4byte	.LASF155
 1837 0b67 01       		.byte	0x1
 1838 0b68 50       		.byte	0x50
 1839 0b69 BC0A0000 		.4byte	0xabc
 1840 0b6d 93000000 		.4byte	.LLST3
 1841 0b71 1F       		.uleb128 0x1f
 1842 0b72 18000000 		.4byte	.LVL12
 1843 0b76 200D0000 		.4byte	0xd20
 1844 0b7a 00       		.byte	0
 1845 0b7b 1C       		.uleb128 0x1c
 1846 0b7c 39040000 		.4byte	.LASF156
 1847 0b80 01       		.byte	0x1
 1848 0b81 6F       		.byte	0x6f
 1849 0b82 EE0A0000 		.4byte	0xaee
 1850 0b86 00000000 		.4byte	.LFB120
 1851 0b8a 5C000000 		.4byte	.LFE120-.LFB120
 1852 0b8e 01       		.uleb128 0x1
 1853 0b8f 9C       		.byte	0x9c
 1854 0b90 040C0000 		.4byte	0xc04
 1855 0b94 1D       		.uleb128 0x1d
 1856 0b95 64727600 		.ascii	"drv\000"
 1857 0b99 01       		.byte	0x1
 1858 0b9a 70       		.byte	0x70
 1859 0b9b 9B0A0000 		.4byte	0xa9b
 1860 0b9f B2000000 		.4byte	.LLST4
 1861 0ba3 20       		.uleb128 0x20
 1862 0ba4 4E060000 		.4byte	.LASF157
 1863 0ba8 01       		.byte	0x1
 1864 0ba9 71       		.byte	0x71
 1865 0baa 040C0000 		.4byte	0xc04
 1866 0bae EC000000 		.4byte	.LLST5
 1867 0bb2 20       		.uleb128 0x20
 1868 0bb3 02040000 		.4byte	.LASF158
 1869 0bb7 01       		.byte	0x1
 1870 0bb8 72       		.byte	0x72
 1871 0bb9 B10A0000 		.4byte	0xab1
 1872 0bbd 44010000 		.4byte	.LLST6
 1873 0bc1 20       		.uleb128 0x20
 1874 0bc2 16000000 		.4byte	.LASF159
 1875 0bc6 01       		.byte	0x1
 1876 0bc7 73       		.byte	0x73
 1877 0bc8 9B0A0000 		.4byte	0xa9b
 1878 0bcc 7E010000 		.4byte	.LLST7
ARM GAS  /tmp/ccfklhfX.s 			page 34


 1879 0bd0 21       		.uleb128 0x21
 1880 0bd1 22000000 		.4byte	.LVL19
 1881 0bd5 3B0D0000 		.4byte	0xd3b
 1882 0bd9 E50B0000 		.4byte	0xbe5
 1883 0bdd 22       		.uleb128 0x22
 1884 0bde 01       		.uleb128 0x1
 1885 0bdf 51       		.byte	0x51
 1886 0be0 03       		.uleb128 0x3
 1887 0be1 F3       		.byte	0xf3
 1888 0be2 01       		.uleb128 0x1
 1889 0be3 52       		.byte	0x52
 1890 0be4 00       		.byte	0
 1891 0be5 21       		.uleb128 0x21
 1892 0be6 44000000 		.4byte	.LVL24
 1893 0bea 550D0000 		.4byte	0xd55
 1894 0bee FA0B0000 		.4byte	0xbfa
 1895 0bf2 22       		.uleb128 0x22
 1896 0bf3 01       		.uleb128 0x1
 1897 0bf4 51       		.byte	0x51
 1898 0bf5 03       		.uleb128 0x3
 1899 0bf6 74       		.byte	0x74
 1900 0bf7 807C     		.sleb128 -512
 1901 0bf9 00       		.byte	0
 1902 0bfa 23       		.uleb128 0x23
 1903 0bfb 58000000 		.4byte	.LVL26
 1904 0bff 6F0D0000 		.4byte	0xd6f
 1905 0c03 00       		.byte	0
 1906 0c04 09       		.uleb128 0x9
 1907 0c05 04       		.byte	0x4
 1908 0c06 9B0A0000 		.4byte	0xa9b
 1909 0c0a 1C       		.uleb128 0x1c
 1910 0c0b 4C070000 		.4byte	.LASF160
 1911 0c0f 01       		.byte	0x1
 1912 0c10 98       		.byte	0x98
 1913 0c11 EE0A0000 		.4byte	0xaee
 1914 0c15 00000000 		.4byte	.LFB121
 1915 0c19 70000000 		.4byte	.LFE121-.LFB121
 1916 0c1d 01       		.uleb128 0x1
 1917 0c1e 9C       		.byte	0x9c
 1918 0c1f A60C0000 		.4byte	0xca6
 1919 0c23 1D       		.uleb128 0x1d
 1920 0c24 64727600 		.ascii	"drv\000"
 1921 0c28 01       		.byte	0x1
 1922 0c29 99       		.byte	0x99
 1923 0c2a 9B0A0000 		.4byte	0xa9b
 1924 0c2e C1010000 		.4byte	.LLST8
 1925 0c32 20       		.uleb128 0x20
 1926 0c33 4E060000 		.4byte	.LASF157
 1927 0c37 01       		.byte	0x1
 1928 0c38 9A       		.byte	0x9a
 1929 0c39 A60C0000 		.4byte	0xca6
 1930 0c3d FB010000 		.4byte	.LLST9
 1931 0c41 20       		.uleb128 0x20
 1932 0c42 02040000 		.4byte	.LASF158
 1933 0c46 01       		.byte	0x1
 1934 0c47 9B       		.byte	0x9b
 1935 0c48 B10A0000 		.4byte	0xab1
ARM GAS  /tmp/ccfklhfX.s 			page 35


 1936 0c4c 53020000 		.4byte	.LLST10
 1937 0c50 20       		.uleb128 0x20
 1938 0c51 16000000 		.4byte	.LASF159
 1939 0c55 01       		.byte	0x1
 1940 0c56 9C       		.byte	0x9c
 1941 0c57 9B0A0000 		.4byte	0xa9b
 1942 0c5b 8D020000 		.4byte	.LLST11
 1943 0c5f 21       		.uleb128 0x21
 1944 0c60 24000000 		.4byte	.LVL32
 1945 0c64 200D0000 		.4byte	0xd20
 1946 0c68 730C0000 		.4byte	0xc73
 1947 0c6c 22       		.uleb128 0x22
 1948 0c6d 01       		.uleb128 0x1
 1949 0c6e 50       		.byte	0x50
 1950 0c6f 02       		.uleb128 0x2
 1951 0c70 75       		.byte	0x75
 1952 0c71 00       		.sleb128 0
 1953 0c72 00       		.byte	0
 1954 0c73 21       		.uleb128 0x21
 1955 0c74 34000000 		.4byte	.LVL33
 1956 0c78 840D0000 		.4byte	0xd84
 1957 0c7c 870C0000 		.4byte	0xc87
 1958 0c80 22       		.uleb128 0x22
 1959 0c81 01       		.uleb128 0x1
 1960 0c82 50       		.byte	0x50
 1961 0c83 02       		.uleb128 0x2
 1962 0c84 75       		.byte	0x75
 1963 0c85 00       		.sleb128 0
 1964 0c86 00       		.byte	0
 1965 0c87 21       		.uleb128 0x21
 1966 0c88 56000000 		.4byte	.LVL38
 1967 0c8c 9E0D0000 		.4byte	0xd9e
 1968 0c90 9C0C0000 		.4byte	0xc9c
 1969 0c94 22       		.uleb128 0x22
 1970 0c95 01       		.uleb128 0x1
 1971 0c96 51       		.byte	0x51
 1972 0c97 03       		.uleb128 0x3
 1973 0c98 74       		.byte	0x74
 1974 0c99 807C     		.sleb128 -512
 1975 0c9b 00       		.byte	0
 1976 0c9c 23       		.uleb128 0x23
 1977 0c9d 6A000000 		.4byte	.LVL40
 1978 0ca1 B80D0000 		.4byte	0xdb8
 1979 0ca5 00       		.byte	0
 1980 0ca6 09       		.uleb128 0x9
 1981 0ca7 04       		.byte	0x4
 1982 0ca8 AC0C0000 		.4byte	0xcac
 1983 0cac 10       		.uleb128 0x10
 1984 0cad 9B0A0000 		.4byte	0xa9b
 1985 0cb1 1C       		.uleb128 0x1c
 1986 0cb2 28040000 		.4byte	.LASF161
 1987 0cb6 01       		.byte	0x1
 1988 0cb7 C3       		.byte	0xc3
 1989 0cb8 EE0A0000 		.4byte	0xaee
 1990 0cbc 00000000 		.4byte	.LFB122
 1991 0cc0 18000000 		.4byte	.LFE122-.LFB122
 1992 0cc4 01       		.uleb128 0x1
ARM GAS  /tmp/ccfklhfX.s 			page 36


 1993 0cc5 9C       		.byte	0x9c
 1994 0cc6 F40C0000 		.4byte	0xcf4
 1995 0cca 1D       		.uleb128 0x1d
 1996 0ccb 64727600 		.ascii	"drv\000"
 1997 0ccf 01       		.byte	0x1
 1998 0cd0 C4       		.byte	0xc4
 1999 0cd1 9B0A0000 		.4byte	0xa9b
 2000 0cd5 D0020000 		.4byte	.LLST12
 2001 0cd9 24       		.uleb128 0x24
 2002 0cda 32020000 		.4byte	.LASF162
 2003 0cde 01       		.byte	0x1
 2004 0cdf C5       		.byte	0xc5
 2005 0ce0 9B0A0000 		.4byte	0xa9b
 2006 0ce4 01       		.uleb128 0x1
 2007 0ce5 51       		.byte	0x51
 2008 0ce6 24       		.uleb128 0x24
 2009 0ce7 4E060000 		.4byte	.LASF157
 2010 0ceb 01       		.byte	0x1
 2011 0cec C6       		.byte	0xc6
 2012 0ced 66020000 		.4byte	0x266
 2013 0cf1 01       		.uleb128 0x1
 2014 0cf2 52       		.byte	0x52
 2015 0cf3 00       		.byte	0
 2016 0cf4 25       		.uleb128 0x25
 2017 0cf5 6A010000 		.4byte	.LASF174
 2018 0cf9 01       		.byte	0x1
 2019 0cfa F5       		.byte	0xf5
 2020 0cfb B10A0000 		.4byte	0xab1
 2021 0cff 00000000 		.4byte	.LFB123
 2022 0d03 06000000 		.4byte	.LFE123-.LFB123
 2023 0d07 01       		.uleb128 0x1
 2024 0d08 9C       		.byte	0x9c
 2025 0d09 26       		.uleb128 0x26
 2026 0d0a EF000000 		.4byte	.LASF163
 2027 0d0e 11       		.byte	0x11
 2028 0d0f 9806     		.2byte	0x698
 2029 0d11 9B040000 		.4byte	0x49b
 2030 0d15 27       		.uleb128 0x27
 2031 0d16 2C020000 		.4byte	.LASF164
 2032 0d1a 01       		.byte	0x1
 2033 0d1b 12       		.byte	0x12
 2034 0d1c 900A0000 		.4byte	0xa90
 2035 0d20 28       		.uleb128 0x28
 2036 0d21 A4010000 		.4byte	.LASF165
 2037 0d25 0E       		.byte	0xe
 2038 0d26 C5       		.byte	0xc5
 2039 0d27 97000000 		.4byte	0x97
 2040 0d2b 350D0000 		.4byte	0xd35
 2041 0d2f 19       		.uleb128 0x19
 2042 0d30 350D0000 		.4byte	0xd35
 2043 0d34 00       		.byte	0
 2044 0d35 09       		.uleb128 0x9
 2045 0d36 04       		.byte	0x4
 2046 0d37 900A0000 		.4byte	0xa90
 2047 0d3b 28       		.uleb128 0x28
 2048 0d3c CC040000 		.4byte	.LASF166
 2049 0d40 0E       		.byte	0xe
ARM GAS  /tmp/ccfklhfX.s 			page 37


 2050 0d41 BB       		.byte	0xbb
 2051 0d42 97000000 		.4byte	0x97
 2052 0d46 550D0000 		.4byte	0xd55
 2053 0d4a 19       		.uleb128 0x19
 2054 0d4b 350D0000 		.4byte	0xd35
 2055 0d4f 19       		.uleb128 0x19
 2056 0d50 77000000 		.4byte	0x77
 2057 0d54 00       		.byte	0
 2058 0d55 28       		.uleb128 0x28
 2059 0d56 CC000000 		.4byte	.LASF167
 2060 0d5a 0E       		.byte	0xe
 2061 0d5b BC       		.byte	0xbc
 2062 0d5c 97000000 		.4byte	0x97
 2063 0d60 6F0D0000 		.4byte	0xd6f
 2064 0d64 19       		.uleb128 0x19
 2065 0d65 350D0000 		.4byte	0xd35
 2066 0d69 19       		.uleb128 0x19
 2067 0d6a 75040000 		.4byte	0x475
 2068 0d6e 00       		.byte	0
 2069 0d6f 28       		.uleb128 0x28
 2070 0d70 D0070000 		.4byte	.LASF168
 2071 0d74 0E       		.byte	0xe
 2072 0d75 BD       		.byte	0xbd
 2073 0d76 97000000 		.4byte	0x97
 2074 0d7a 840D0000 		.4byte	0xd84
 2075 0d7e 19       		.uleb128 0x19
 2076 0d7f 350D0000 		.4byte	0xd35
 2077 0d83 00       		.byte	0
 2078 0d84 28       		.uleb128 0x28
 2079 0d85 5B020000 		.4byte	.LASF169
 2080 0d89 0E       		.byte	0xe
 2081 0d8a BE       		.byte	0xbe
 2082 0d8b 97000000 		.4byte	0x97
 2083 0d8f 9E0D0000 		.4byte	0xd9e
 2084 0d93 19       		.uleb128 0x19
 2085 0d94 350D0000 		.4byte	0xd35
 2086 0d98 19       		.uleb128 0x19
 2087 0d99 77000000 		.4byte	0x77
 2088 0d9d 00       		.byte	0
 2089 0d9e 28       		.uleb128 0x28
 2090 0d9f 3B060000 		.4byte	.LASF170
 2091 0da3 0E       		.byte	0xe
 2092 0da4 BF       		.byte	0xbf
 2093 0da5 97000000 		.4byte	0x97
 2094 0da9 B80D0000 		.4byte	0xdb8
 2095 0dad 19       		.uleb128 0x19
 2096 0dae 350D0000 		.4byte	0xd35
 2097 0db2 19       		.uleb128 0x19
 2098 0db3 7B040000 		.4byte	0x47b
 2099 0db7 00       		.byte	0
 2100 0db8 29       		.uleb128 0x29
 2101 0db9 0E050000 		.4byte	.LASF175
 2102 0dbd 0E       		.byte	0xe
 2103 0dbe C0       		.byte	0xc0
 2104 0dbf 97000000 		.4byte	0x97
 2105 0dc3 19       		.uleb128 0x19
 2106 0dc4 350D0000 		.4byte	0xd35
ARM GAS  /tmp/ccfklhfX.s 			page 38


 2107 0dc8 00       		.byte	0
 2108 0dc9 00       		.byte	0
 2109              		.section	.debug_abbrev,"",%progbits
 2110              	.Ldebug_abbrev0:
 2111 0000 01       		.uleb128 0x1
 2112 0001 11       		.uleb128 0x11
 2113 0002 01       		.byte	0x1
 2114 0003 25       		.uleb128 0x25
 2115 0004 0E       		.uleb128 0xe
 2116 0005 13       		.uleb128 0x13
 2117 0006 0B       		.uleb128 0xb
 2118 0007 03       		.uleb128 0x3
 2119 0008 0E       		.uleb128 0xe
 2120 0009 1B       		.uleb128 0x1b
 2121 000a 0E       		.uleb128 0xe
 2122 000b 55       		.uleb128 0x55
 2123 000c 17       		.uleb128 0x17
 2124 000d 11       		.uleb128 0x11
 2125 000e 01       		.uleb128 0x1
 2126 000f 10       		.uleb128 0x10
 2127 0010 17       		.uleb128 0x17
 2128 0011 00       		.byte	0
 2129 0012 00       		.byte	0
 2130 0013 02       		.uleb128 0x2
 2131 0014 24       		.uleb128 0x24
 2132 0015 00       		.byte	0
 2133 0016 0B       		.uleb128 0xb
 2134 0017 0B       		.uleb128 0xb
 2135 0018 3E       		.uleb128 0x3e
 2136 0019 0B       		.uleb128 0xb
 2137 001a 03       		.uleb128 0x3
 2138 001b 08       		.uleb128 0x8
 2139 001c 00       		.byte	0
 2140 001d 00       		.byte	0
 2141 001e 03       		.uleb128 0x3
 2142 001f 24       		.uleb128 0x24
 2143 0020 00       		.byte	0
 2144 0021 0B       		.uleb128 0xb
 2145 0022 0B       		.uleb128 0xb
 2146 0023 3E       		.uleb128 0x3e
 2147 0024 0B       		.uleb128 0xb
 2148 0025 03       		.uleb128 0x3
 2149 0026 0E       		.uleb128 0xe
 2150 0027 00       		.byte	0
 2151 0028 00       		.byte	0
 2152 0029 04       		.uleb128 0x4
 2153 002a 16       		.uleb128 0x16
 2154 002b 00       		.byte	0
 2155 002c 03       		.uleb128 0x3
 2156 002d 0E       		.uleb128 0xe
 2157 002e 3A       		.uleb128 0x3a
 2158 002f 0B       		.uleb128 0xb
 2159 0030 3B       		.uleb128 0x3b
 2160 0031 0B       		.uleb128 0xb
 2161 0032 49       		.uleb128 0x49
 2162 0033 13       		.uleb128 0x13
 2163 0034 00       		.byte	0
ARM GAS  /tmp/ccfklhfX.s 			page 39


 2164 0035 00       		.byte	0
 2165 0036 05       		.uleb128 0x5
 2166 0037 13       		.uleb128 0x13
 2167 0038 01       		.byte	0x1
 2168 0039 03       		.uleb128 0x3
 2169 003a 0E       		.uleb128 0xe
 2170 003b 0B       		.uleb128 0xb
 2171 003c 0B       		.uleb128 0xb
 2172 003d 3A       		.uleb128 0x3a
 2173 003e 0B       		.uleb128 0xb
 2174 003f 3B       		.uleb128 0x3b
 2175 0040 0B       		.uleb128 0xb
 2176 0041 01       		.uleb128 0x1
 2177 0042 13       		.uleb128 0x13
 2178 0043 00       		.byte	0
 2179 0044 00       		.byte	0
 2180 0045 06       		.uleb128 0x6
 2181 0046 0D       		.uleb128 0xd
 2182 0047 00       		.byte	0
 2183 0048 03       		.uleb128 0x3
 2184 0049 0E       		.uleb128 0xe
 2185 004a 3A       		.uleb128 0x3a
 2186 004b 0B       		.uleb128 0xb
 2187 004c 3B       		.uleb128 0x3b
 2188 004d 0B       		.uleb128 0xb
 2189 004e 49       		.uleb128 0x49
 2190 004f 13       		.uleb128 0x13
 2191 0050 38       		.uleb128 0x38
 2192 0051 0B       		.uleb128 0xb
 2193 0052 00       		.byte	0
 2194 0053 00       		.byte	0
 2195 0054 07       		.uleb128 0x7
 2196 0055 0D       		.uleb128 0xd
 2197 0056 00       		.byte	0
 2198 0057 03       		.uleb128 0x3
 2199 0058 08       		.uleb128 0x8
 2200 0059 3A       		.uleb128 0x3a
 2201 005a 0B       		.uleb128 0xb
 2202 005b 3B       		.uleb128 0x3b
 2203 005c 0B       		.uleb128 0xb
 2204 005d 49       		.uleb128 0x49
 2205 005e 13       		.uleb128 0x13
 2206 005f 38       		.uleb128 0x38
 2207 0060 0B       		.uleb128 0xb
 2208 0061 00       		.byte	0
 2209 0062 00       		.byte	0
 2210 0063 08       		.uleb128 0x8
 2211 0064 13       		.uleb128 0x13
 2212 0065 01       		.byte	0x1
 2213 0066 0B       		.uleb128 0xb
 2214 0067 0B       		.uleb128 0xb
 2215 0068 3A       		.uleb128 0x3a
 2216 0069 0B       		.uleb128 0xb
 2217 006a 3B       		.uleb128 0x3b
 2218 006b 0B       		.uleb128 0xb
 2219 006c 01       		.uleb128 0x1
 2220 006d 13       		.uleb128 0x13
ARM GAS  /tmp/ccfklhfX.s 			page 40


 2221 006e 00       		.byte	0
 2222 006f 00       		.byte	0
 2223 0070 09       		.uleb128 0x9
 2224 0071 0F       		.uleb128 0xf
 2225 0072 00       		.byte	0
 2226 0073 0B       		.uleb128 0xb
 2227 0074 0B       		.uleb128 0xb
 2228 0075 49       		.uleb128 0x49
 2229 0076 13       		.uleb128 0x13
 2230 0077 00       		.byte	0
 2231 0078 00       		.byte	0
 2232 0079 0A       		.uleb128 0xa
 2233 007a 0F       		.uleb128 0xf
 2234 007b 00       		.byte	0
 2235 007c 0B       		.uleb128 0xb
 2236 007d 0B       		.uleb128 0xb
 2237 007e 00       		.byte	0
 2238 007f 00       		.byte	0
 2239 0080 0B       		.uleb128 0xb
 2240 0081 13       		.uleb128 0x13
 2241 0082 01       		.byte	0x1
 2242 0083 03       		.uleb128 0x3
 2243 0084 0E       		.uleb128 0xe
 2244 0085 0B       		.uleb128 0xb
 2245 0086 0B       		.uleb128 0xb
 2246 0087 3A       		.uleb128 0x3a
 2247 0088 0B       		.uleb128 0xb
 2248 0089 3B       		.uleb128 0x3b
 2249 008a 05       		.uleb128 0x5
 2250 008b 01       		.uleb128 0x1
 2251 008c 13       		.uleb128 0x13
 2252 008d 00       		.byte	0
 2253 008e 00       		.byte	0
 2254 008f 0C       		.uleb128 0xc
 2255 0090 0D       		.uleb128 0xd
 2256 0091 00       		.byte	0
 2257 0092 03       		.uleb128 0x3
 2258 0093 08       		.uleb128 0x8
 2259 0094 3A       		.uleb128 0x3a
 2260 0095 0B       		.uleb128 0xb
 2261 0096 3B       		.uleb128 0x3b
 2262 0097 05       		.uleb128 0x5
 2263 0098 49       		.uleb128 0x49
 2264 0099 13       		.uleb128 0x13
 2265 009a 38       		.uleb128 0x38
 2266 009b 0B       		.uleb128 0xb
 2267 009c 00       		.byte	0
 2268 009d 00       		.byte	0
 2269 009e 0D       		.uleb128 0xd
 2270 009f 35       		.uleb128 0x35
 2271 00a0 00       		.byte	0
 2272 00a1 49       		.uleb128 0x49
 2273 00a2 13       		.uleb128 0x13
 2274 00a3 00       		.byte	0
 2275 00a4 00       		.byte	0
 2276 00a5 0E       		.uleb128 0xe
 2277 00a6 17       		.uleb128 0x17
ARM GAS  /tmp/ccfklhfX.s 			page 41


 2278 00a7 01       		.byte	0x1
 2279 00a8 0B       		.uleb128 0xb
 2280 00a9 0B       		.uleb128 0xb
 2281 00aa 3A       		.uleb128 0x3a
 2282 00ab 0B       		.uleb128 0xb
 2283 00ac 3B       		.uleb128 0x3b
 2284 00ad 0B       		.uleb128 0xb
 2285 00ae 01       		.uleb128 0x1
 2286 00af 13       		.uleb128 0x13
 2287 00b0 00       		.byte	0
 2288 00b1 00       		.byte	0
 2289 00b2 0F       		.uleb128 0xf
 2290 00b3 0D       		.uleb128 0xd
 2291 00b4 00       		.byte	0
 2292 00b5 03       		.uleb128 0x3
 2293 00b6 0E       		.uleb128 0xe
 2294 00b7 3A       		.uleb128 0x3a
 2295 00b8 0B       		.uleb128 0xb
 2296 00b9 3B       		.uleb128 0x3b
 2297 00ba 0B       		.uleb128 0xb
 2298 00bb 49       		.uleb128 0x49
 2299 00bc 13       		.uleb128 0x13
 2300 00bd 00       		.byte	0
 2301 00be 00       		.byte	0
 2302 00bf 10       		.uleb128 0x10
 2303 00c0 26       		.uleb128 0x26
 2304 00c1 00       		.byte	0
 2305 00c2 49       		.uleb128 0x49
 2306 00c3 13       		.uleb128 0x13
 2307 00c4 00       		.byte	0
 2308 00c5 00       		.byte	0
 2309 00c6 11       		.uleb128 0x11
 2310 00c7 01       		.uleb128 0x1
 2311 00c8 01       		.byte	0x1
 2312 00c9 49       		.uleb128 0x49
 2313 00ca 13       		.uleb128 0x13
 2314 00cb 01       		.uleb128 0x1
 2315 00cc 13       		.uleb128 0x13
 2316 00cd 00       		.byte	0
 2317 00ce 00       		.byte	0
 2318 00cf 12       		.uleb128 0x12
 2319 00d0 21       		.uleb128 0x21
 2320 00d1 00       		.byte	0
 2321 00d2 49       		.uleb128 0x49
 2322 00d3 13       		.uleb128 0x13
 2323 00d4 2F       		.uleb128 0x2f
 2324 00d5 0B       		.uleb128 0xb
 2325 00d6 00       		.byte	0
 2326 00d7 00       		.byte	0
 2327 00d8 13       		.uleb128 0x13
 2328 00d9 13       		.uleb128 0x13
 2329 00da 01       		.byte	0x1
 2330 00db 0B       		.uleb128 0xb
 2331 00dc 0B       		.uleb128 0xb
 2332 00dd 3A       		.uleb128 0x3a
 2333 00de 0B       		.uleb128 0xb
 2334 00df 3B       		.uleb128 0x3b
ARM GAS  /tmp/ccfklhfX.s 			page 42


 2335 00e0 05       		.uleb128 0x5
 2336 00e1 01       		.uleb128 0x1
 2337 00e2 13       		.uleb128 0x13
 2338 00e3 00       		.byte	0
 2339 00e4 00       		.byte	0
 2340 00e5 14       		.uleb128 0x14
 2341 00e6 0D       		.uleb128 0xd
 2342 00e7 00       		.byte	0
 2343 00e8 03       		.uleb128 0x3
 2344 00e9 0E       		.uleb128 0xe
 2345 00ea 3A       		.uleb128 0x3a
 2346 00eb 0B       		.uleb128 0xb
 2347 00ec 3B       		.uleb128 0x3b
 2348 00ed 05       		.uleb128 0x5
 2349 00ee 49       		.uleb128 0x49
 2350 00ef 13       		.uleb128 0x13
 2351 00f0 38       		.uleb128 0x38
 2352 00f1 0B       		.uleb128 0xb
 2353 00f2 00       		.byte	0
 2354 00f3 00       		.byte	0
 2355 00f4 15       		.uleb128 0x15
 2356 00f5 16       		.uleb128 0x16
 2357 00f6 00       		.byte	0
 2358 00f7 03       		.uleb128 0x3
 2359 00f8 0E       		.uleb128 0xe
 2360 00f9 3A       		.uleb128 0x3a
 2361 00fa 0B       		.uleb128 0xb
 2362 00fb 3B       		.uleb128 0x3b
 2363 00fc 05       		.uleb128 0x5
 2364 00fd 49       		.uleb128 0x49
 2365 00fe 13       		.uleb128 0x13
 2366 00ff 00       		.byte	0
 2367 0100 00       		.byte	0
 2368 0101 16       		.uleb128 0x16
 2369 0102 04       		.uleb128 0x4
 2370 0103 01       		.byte	0x1
 2371 0104 0B       		.uleb128 0xb
 2372 0105 0B       		.uleb128 0xb
 2373 0106 3A       		.uleb128 0x3a
 2374 0107 0B       		.uleb128 0xb
 2375 0108 3B       		.uleb128 0x3b
 2376 0109 0B       		.uleb128 0xb
 2377 010a 01       		.uleb128 0x1
 2378 010b 13       		.uleb128 0x13
 2379 010c 00       		.byte	0
 2380 010d 00       		.byte	0
 2381 010e 17       		.uleb128 0x17
 2382 010f 28       		.uleb128 0x28
 2383 0110 00       		.byte	0
 2384 0111 03       		.uleb128 0x3
 2385 0112 0E       		.uleb128 0xe
 2386 0113 1C       		.uleb128 0x1c
 2387 0114 0D       		.uleb128 0xd
 2388 0115 00       		.byte	0
 2389 0116 00       		.byte	0
 2390 0117 18       		.uleb128 0x18
 2391 0118 15       		.uleb128 0x15
ARM GAS  /tmp/ccfklhfX.s 			page 43


 2392 0119 01       		.byte	0x1
 2393 011a 27       		.uleb128 0x27
 2394 011b 19       		.uleb128 0x19
 2395 011c 49       		.uleb128 0x49
 2396 011d 13       		.uleb128 0x13
 2397 011e 01       		.uleb128 0x1
 2398 011f 13       		.uleb128 0x13
 2399 0120 00       		.byte	0
 2400 0121 00       		.byte	0
 2401 0122 19       		.uleb128 0x19
 2402 0123 05       		.uleb128 0x5
 2403 0124 00       		.byte	0
 2404 0125 49       		.uleb128 0x49
 2405 0126 13       		.uleb128 0x13
 2406 0127 00       		.byte	0
 2407 0128 00       		.byte	0
 2408 0129 1A       		.uleb128 0x1a
 2409 012a 0D       		.uleb128 0xd
 2410 012b 00       		.byte	0
 2411 012c 03       		.uleb128 0x3
 2412 012d 08       		.uleb128 0x8
 2413 012e 3A       		.uleb128 0x3a
 2414 012f 0B       		.uleb128 0xb
 2415 0130 3B       		.uleb128 0x3b
 2416 0131 0B       		.uleb128 0xb
 2417 0132 49       		.uleb128 0x49
 2418 0133 13       		.uleb128 0x13
 2419 0134 00       		.byte	0
 2420 0135 00       		.byte	0
 2421 0136 1B       		.uleb128 0x1b
 2422 0137 15       		.uleb128 0x15
 2423 0138 01       		.byte	0x1
 2424 0139 27       		.uleb128 0x27
 2425 013a 19       		.uleb128 0x19
 2426 013b 01       		.uleb128 0x1
 2427 013c 13       		.uleb128 0x13
 2428 013d 00       		.byte	0
 2429 013e 00       		.byte	0
 2430 013f 1C       		.uleb128 0x1c
 2431 0140 2E       		.uleb128 0x2e
 2432 0141 01       		.byte	0x1
 2433 0142 3F       		.uleb128 0x3f
 2434 0143 19       		.uleb128 0x19
 2435 0144 03       		.uleb128 0x3
 2436 0145 0E       		.uleb128 0xe
 2437 0146 3A       		.uleb128 0x3a
 2438 0147 0B       		.uleb128 0xb
 2439 0148 3B       		.uleb128 0x3b
 2440 0149 0B       		.uleb128 0xb
 2441 014a 27       		.uleb128 0x27
 2442 014b 19       		.uleb128 0x19
 2443 014c 49       		.uleb128 0x49
 2444 014d 13       		.uleb128 0x13
 2445 014e 11       		.uleb128 0x11
 2446 014f 01       		.uleb128 0x1
 2447 0150 12       		.uleb128 0x12
 2448 0151 06       		.uleb128 0x6
ARM GAS  /tmp/ccfklhfX.s 			page 44


 2449 0152 40       		.uleb128 0x40
 2450 0153 18       		.uleb128 0x18
 2451 0154 9742     		.uleb128 0x2117
 2452 0156 19       		.uleb128 0x19
 2453 0157 01       		.uleb128 0x1
 2454 0158 13       		.uleb128 0x13
 2455 0159 00       		.byte	0
 2456 015a 00       		.byte	0
 2457 015b 1D       		.uleb128 0x1d
 2458 015c 05       		.uleb128 0x5
 2459 015d 00       		.byte	0
 2460 015e 03       		.uleb128 0x3
 2461 015f 08       		.uleb128 0x8
 2462 0160 3A       		.uleb128 0x3a
 2463 0161 0B       		.uleb128 0xb
 2464 0162 3B       		.uleb128 0x3b
 2465 0163 0B       		.uleb128 0xb
 2466 0164 49       		.uleb128 0x49
 2467 0165 13       		.uleb128 0x13
 2468 0166 02       		.uleb128 0x2
 2469 0167 17       		.uleb128 0x17
 2470 0168 00       		.byte	0
 2471 0169 00       		.byte	0
 2472 016a 1E       		.uleb128 0x1e
 2473 016b 34       		.uleb128 0x34
 2474 016c 00       		.byte	0
 2475 016d 03       		.uleb128 0x3
 2476 016e 0E       		.uleb128 0xe
 2477 016f 3A       		.uleb128 0x3a
 2478 0170 0B       		.uleb128 0xb
 2479 0171 3B       		.uleb128 0x3b
 2480 0172 0B       		.uleb128 0xb
 2481 0173 49       		.uleb128 0x49
 2482 0174 13       		.uleb128 0x13
 2483 0175 02       		.uleb128 0x2
 2484 0176 17       		.uleb128 0x17
 2485 0177 00       		.byte	0
 2486 0178 00       		.byte	0
 2487 0179 1F       		.uleb128 0x1f
 2488 017a 898201   		.uleb128 0x4109
 2489 017d 00       		.byte	0
 2490 017e 11       		.uleb128 0x11
 2491 017f 01       		.uleb128 0x1
 2492 0180 31       		.uleb128 0x31
 2493 0181 13       		.uleb128 0x13
 2494 0182 00       		.byte	0
 2495 0183 00       		.byte	0
 2496 0184 20       		.uleb128 0x20
 2497 0185 05       		.uleb128 0x5
 2498 0186 00       		.byte	0
 2499 0187 03       		.uleb128 0x3
 2500 0188 0E       		.uleb128 0xe
 2501 0189 3A       		.uleb128 0x3a
 2502 018a 0B       		.uleb128 0xb
 2503 018b 3B       		.uleb128 0x3b
 2504 018c 0B       		.uleb128 0xb
 2505 018d 49       		.uleb128 0x49
ARM GAS  /tmp/ccfklhfX.s 			page 45


 2506 018e 13       		.uleb128 0x13
 2507 018f 02       		.uleb128 0x2
 2508 0190 17       		.uleb128 0x17
 2509 0191 00       		.byte	0
 2510 0192 00       		.byte	0
 2511 0193 21       		.uleb128 0x21
 2512 0194 898201   		.uleb128 0x4109
 2513 0197 01       		.byte	0x1
 2514 0198 11       		.uleb128 0x11
 2515 0199 01       		.uleb128 0x1
 2516 019a 31       		.uleb128 0x31
 2517 019b 13       		.uleb128 0x13
 2518 019c 01       		.uleb128 0x1
 2519 019d 13       		.uleb128 0x13
 2520 019e 00       		.byte	0
 2521 019f 00       		.byte	0
 2522 01a0 22       		.uleb128 0x22
 2523 01a1 8A8201   		.uleb128 0x410a
 2524 01a4 00       		.byte	0
 2525 01a5 02       		.uleb128 0x2
 2526 01a6 18       		.uleb128 0x18
 2527 01a7 9142     		.uleb128 0x2111
 2528 01a9 18       		.uleb128 0x18
 2529 01aa 00       		.byte	0
 2530 01ab 00       		.byte	0
 2531 01ac 23       		.uleb128 0x23
 2532 01ad 898201   		.uleb128 0x4109
 2533 01b0 00       		.byte	0
 2534 01b1 11       		.uleb128 0x11
 2535 01b2 01       		.uleb128 0x1
 2536 01b3 9542     		.uleb128 0x2115
 2537 01b5 19       		.uleb128 0x19
 2538 01b6 31       		.uleb128 0x31
 2539 01b7 13       		.uleb128 0x13
 2540 01b8 00       		.byte	0
 2541 01b9 00       		.byte	0
 2542 01ba 24       		.uleb128 0x24
 2543 01bb 05       		.uleb128 0x5
 2544 01bc 00       		.byte	0
 2545 01bd 03       		.uleb128 0x3
 2546 01be 0E       		.uleb128 0xe
 2547 01bf 3A       		.uleb128 0x3a
 2548 01c0 0B       		.uleb128 0xb
 2549 01c1 3B       		.uleb128 0x3b
 2550 01c2 0B       		.uleb128 0xb
 2551 01c3 49       		.uleb128 0x49
 2552 01c4 13       		.uleb128 0x13
 2553 01c5 02       		.uleb128 0x2
 2554 01c6 18       		.uleb128 0x18
 2555 01c7 00       		.byte	0
 2556 01c8 00       		.byte	0
 2557 01c9 25       		.uleb128 0x25
 2558 01ca 2E       		.uleb128 0x2e
 2559 01cb 00       		.byte	0
 2560 01cc 3F       		.uleb128 0x3f
 2561 01cd 19       		.uleb128 0x19
 2562 01ce 03       		.uleb128 0x3
ARM GAS  /tmp/ccfklhfX.s 			page 46


 2563 01cf 0E       		.uleb128 0xe
 2564 01d0 3A       		.uleb128 0x3a
 2565 01d1 0B       		.uleb128 0xb
 2566 01d2 3B       		.uleb128 0x3b
 2567 01d3 0B       		.uleb128 0xb
 2568 01d4 27       		.uleb128 0x27
 2569 01d5 19       		.uleb128 0x19
 2570 01d6 49       		.uleb128 0x49
 2571 01d7 13       		.uleb128 0x13
 2572 01d8 11       		.uleb128 0x11
 2573 01d9 01       		.uleb128 0x1
 2574 01da 12       		.uleb128 0x12
 2575 01db 06       		.uleb128 0x6
 2576 01dc 40       		.uleb128 0x40
 2577 01dd 18       		.uleb128 0x18
 2578 01de 9742     		.uleb128 0x2117
 2579 01e0 19       		.uleb128 0x19
 2580 01e1 00       		.byte	0
 2581 01e2 00       		.byte	0
 2582 01e3 26       		.uleb128 0x26
 2583 01e4 34       		.uleb128 0x34
 2584 01e5 00       		.byte	0
 2585 01e6 03       		.uleb128 0x3
 2586 01e7 0E       		.uleb128 0xe
 2587 01e8 3A       		.uleb128 0x3a
 2588 01e9 0B       		.uleb128 0xb
 2589 01ea 3B       		.uleb128 0x3b
 2590 01eb 05       		.uleb128 0x5
 2591 01ec 49       		.uleb128 0x49
 2592 01ed 13       		.uleb128 0x13
 2593 01ee 3F       		.uleb128 0x3f
 2594 01ef 19       		.uleb128 0x19
 2595 01f0 3C       		.uleb128 0x3c
 2596 01f1 19       		.uleb128 0x19
 2597 01f2 00       		.byte	0
 2598 01f3 00       		.byte	0
 2599 01f4 27       		.uleb128 0x27
 2600 01f5 34       		.uleb128 0x34
 2601 01f6 00       		.byte	0
 2602 01f7 03       		.uleb128 0x3
 2603 01f8 0E       		.uleb128 0xe
 2604 01f9 3A       		.uleb128 0x3a
 2605 01fa 0B       		.uleb128 0xb
 2606 01fb 3B       		.uleb128 0x3b
 2607 01fc 0B       		.uleb128 0xb
 2608 01fd 49       		.uleb128 0x49
 2609 01fe 13       		.uleb128 0x13
 2610 01ff 3F       		.uleb128 0x3f
 2611 0200 19       		.uleb128 0x19
 2612 0201 3C       		.uleb128 0x3c
 2613 0202 19       		.uleb128 0x19
 2614 0203 00       		.byte	0
 2615 0204 00       		.byte	0
 2616 0205 28       		.uleb128 0x28
 2617 0206 2E       		.uleb128 0x2e
 2618 0207 01       		.byte	0x1
 2619 0208 3F       		.uleb128 0x3f
ARM GAS  /tmp/ccfklhfX.s 			page 47


 2620 0209 19       		.uleb128 0x19
 2621 020a 03       		.uleb128 0x3
 2622 020b 0E       		.uleb128 0xe
 2623 020c 3A       		.uleb128 0x3a
 2624 020d 0B       		.uleb128 0xb
 2625 020e 3B       		.uleb128 0x3b
 2626 020f 0B       		.uleb128 0xb
 2627 0210 27       		.uleb128 0x27
 2628 0211 19       		.uleb128 0x19
 2629 0212 49       		.uleb128 0x49
 2630 0213 13       		.uleb128 0x13
 2631 0214 3C       		.uleb128 0x3c
 2632 0215 19       		.uleb128 0x19
 2633 0216 01       		.uleb128 0x1
 2634 0217 13       		.uleb128 0x13
 2635 0218 00       		.byte	0
 2636 0219 00       		.byte	0
 2637 021a 29       		.uleb128 0x29
 2638 021b 2E       		.uleb128 0x2e
 2639 021c 01       		.byte	0x1
 2640 021d 3F       		.uleb128 0x3f
 2641 021e 19       		.uleb128 0x19
 2642 021f 03       		.uleb128 0x3
 2643 0220 0E       		.uleb128 0xe
 2644 0221 3A       		.uleb128 0x3a
 2645 0222 0B       		.uleb128 0xb
 2646 0223 3B       		.uleb128 0x3b
 2647 0224 0B       		.uleb128 0xb
 2648 0225 27       		.uleb128 0x27
 2649 0226 19       		.uleb128 0x19
 2650 0227 49       		.uleb128 0x49
 2651 0228 13       		.uleb128 0x13
 2652 0229 3C       		.uleb128 0x3c
 2653 022a 19       		.uleb128 0x19
 2654 022b 00       		.byte	0
 2655 022c 00       		.byte	0
 2656 022d 00       		.byte	0
 2657              		.section	.debug_loc,"",%progbits
 2658              	.Ldebug_loc0:
 2659              	.LLST0:
 2660 0000 00000000 		.4byte	.LVL0
 2661 0004 06000000 		.4byte	.LVL1
 2662 0008 0100     		.2byte	0x1
 2663 000a 50       		.byte	0x50
 2664 000b 06000000 		.4byte	.LVL1
 2665 000f 0A000000 		.4byte	.LVL2
 2666 0013 0400     		.2byte	0x4
 2667 0015 F3       		.byte	0xf3
 2668 0016 01       		.uleb128 0x1
 2669 0017 50       		.byte	0x50
 2670 0018 9F       		.byte	0x9f
 2671 0019 0A000000 		.4byte	.LVL2
 2672 001d 0C000000 		.4byte	.LVL3
 2673 0021 0100     		.2byte	0x1
 2674 0023 50       		.byte	0x50
 2675 0024 0C000000 		.4byte	.LVL3
 2676 0028 2C000000 		.4byte	.LFE118
ARM GAS  /tmp/ccfklhfX.s 			page 48


 2677 002c 0400     		.2byte	0x4
 2678 002e F3       		.byte	0xf3
 2679 002f 01       		.uleb128 0x1
 2680 0030 50       		.byte	0x50
 2681 0031 9F       		.byte	0x9f
 2682 0032 00000000 		.4byte	0
 2683 0036 00000000 		.4byte	0
 2684              	.LLST1:
 2685 003a 0A000000 		.4byte	.LVL2
 2686 003e 14000000 		.4byte	.LVL4
 2687 0042 0200     		.2byte	0x2
 2688 0044 30       		.byte	0x30
 2689 0045 9F       		.byte	0x9f
 2690 0046 14000000 		.4byte	.LVL4
 2691 004a 20000000 		.4byte	.LVL6
 2692 004e 0100     		.2byte	0x1
 2693 0050 54       		.byte	0x54
 2694 0051 00000000 		.4byte	0
 2695 0055 00000000 		.4byte	0
 2696              	.LLST2:
 2697 0059 00000000 		.4byte	.LVL7
 2698 005d 06000000 		.4byte	.LVL8
 2699 0061 0100     		.2byte	0x1
 2700 0063 50       		.byte	0x50
 2701 0064 06000000 		.4byte	.LVL8
 2702 0068 0A000000 		.4byte	.LVL9
 2703 006c 0400     		.2byte	0x4
 2704 006e F3       		.byte	0xf3
 2705 006f 01       		.uleb128 0x1
 2706 0070 50       		.byte	0x50
 2707 0071 9F       		.byte	0x9f
 2708 0072 0A000000 		.4byte	.LVL9
 2709 0076 0C000000 		.4byte	.LVL10
 2710 007a 0100     		.2byte	0x1
 2711 007c 50       		.byte	0x50
 2712 007d 0C000000 		.4byte	.LVL10
 2713 0081 2C000000 		.4byte	.LFE119
 2714 0085 0400     		.2byte	0x4
 2715 0087 F3       		.byte	0xf3
 2716 0088 01       		.uleb128 0x1
 2717 0089 50       		.byte	0x50
 2718 008a 9F       		.byte	0x9f
 2719 008b 00000000 		.4byte	0
 2720 008f 00000000 		.4byte	0
 2721              	.LLST3:
 2722 0093 0A000000 		.4byte	.LVL9
 2723 0097 14000000 		.4byte	.LVL11
 2724 009b 0200     		.2byte	0x2
 2725 009d 30       		.byte	0x30
 2726 009e 9F       		.byte	0x9f
 2727 009f 14000000 		.4byte	.LVL11
 2728 00a3 20000000 		.4byte	.LVL13
 2729 00a7 0100     		.2byte	0x1
 2730 00a9 54       		.byte	0x54
 2731 00aa 00000000 		.4byte	0
 2732 00ae 00000000 		.4byte	0
 2733              	.LLST4:
ARM GAS  /tmp/ccfklhfX.s 			page 49


 2734 00b2 00000000 		.4byte	.LVL14
 2735 00b6 0A000000 		.4byte	.LVL15
 2736 00ba 0100     		.2byte	0x1
 2737 00bc 50       		.byte	0x50
 2738 00bd 0A000000 		.4byte	.LVL15
 2739 00c1 0E000000 		.4byte	.LVL16
 2740 00c5 0400     		.2byte	0x4
 2741 00c7 F3       		.byte	0xf3
 2742 00c8 01       		.uleb128 0x1
 2743 00c9 50       		.byte	0x50
 2744 00ca 9F       		.byte	0x9f
 2745 00cb 0E000000 		.4byte	.LVL16
 2746 00cf 10000000 		.4byte	.LVL17
 2747 00d3 0100     		.2byte	0x1
 2748 00d5 50       		.byte	0x50
 2749 00d6 10000000 		.4byte	.LVL17
 2750 00da 5C000000 		.4byte	.LFE120
 2751 00de 0400     		.2byte	0x4
 2752 00e0 F3       		.byte	0xf3
 2753 00e1 01       		.uleb128 0x1
 2754 00e2 50       		.byte	0x50
 2755 00e3 9F       		.byte	0x9f
 2756 00e4 00000000 		.4byte	0
 2757 00e8 00000000 		.4byte	0
 2758              	.LLST5:
 2759 00ec 00000000 		.4byte	.LVL14
 2760 00f0 0A000000 		.4byte	.LVL15
 2761 00f4 0100     		.2byte	0x1
 2762 00f6 51       		.byte	0x51
 2763 00f7 0A000000 		.4byte	.LVL15
 2764 00fb 0E000000 		.4byte	.LVL16
 2765 00ff 0100     		.2byte	0x1
 2766 0101 54       		.byte	0x54
 2767 0102 0E000000 		.4byte	.LVL16
 2768 0106 12000000 		.4byte	.LVL18
 2769 010a 0100     		.2byte	0x1
 2770 010c 51       		.byte	0x51
 2771 010d 12000000 		.4byte	.LVL18
 2772 0111 40000000 		.4byte	.LVL23
 2773 0115 0100     		.2byte	0x1
 2774 0117 54       		.byte	0x54
 2775 0118 40000000 		.4byte	.LVL23
 2776 011c 43000000 		.4byte	.LVL24-1
 2777 0120 0100     		.2byte	0x1
 2778 0122 51       		.byte	0x51
 2779 0123 43000000 		.4byte	.LVL24-1
 2780 0127 44000000 		.4byte	.LVL24
 2781 012b 0400     		.2byte	0x4
 2782 012d 74       		.byte	0x74
 2783 012e 807C     		.sleb128 -512
 2784 0130 9F       		.byte	0x9f
 2785 0131 44000000 		.4byte	.LVL24
 2786 0135 54000000 		.4byte	.LVL25
 2787 0139 0100     		.2byte	0x1
 2788 013b 54       		.byte	0x54
 2789 013c 00000000 		.4byte	0
 2790 0140 00000000 		.4byte	0
ARM GAS  /tmp/ccfklhfX.s 			page 50


 2791              	.LLST6:
 2792 0144 00000000 		.4byte	.LVL14
 2793 0148 0A000000 		.4byte	.LVL15
 2794 014c 0100     		.2byte	0x1
 2795 014e 52       		.byte	0x52
 2796 014f 0A000000 		.4byte	.LVL15
 2797 0153 0E000000 		.4byte	.LVL16
 2798 0157 0400     		.2byte	0x4
 2799 0159 F3       		.byte	0xf3
 2800 015a 01       		.uleb128 0x1
 2801 015b 52       		.byte	0x52
 2802 015c 9F       		.byte	0x9f
 2803 015d 0E000000 		.4byte	.LVL16
 2804 0161 21000000 		.4byte	.LVL19-1
 2805 0165 0100     		.2byte	0x1
 2806 0167 52       		.byte	0x52
 2807 0168 21000000 		.4byte	.LVL19-1
 2808 016c 5C000000 		.4byte	.LFE120
 2809 0170 0400     		.2byte	0x4
 2810 0172 F3       		.byte	0xf3
 2811 0173 01       		.uleb128 0x1
 2812 0174 52       		.byte	0x52
 2813 0175 9F       		.byte	0x9f
 2814 0176 00000000 		.4byte	0
 2815 017a 00000000 		.4byte	0
 2816              	.LLST7:
 2817 017e 00000000 		.4byte	.LVL14
 2818 0182 0A000000 		.4byte	.LVL15
 2819 0186 0100     		.2byte	0x1
 2820 0188 53       		.byte	0x53
 2821 0189 0E000000 		.4byte	.LVL16
 2822 018d 21000000 		.4byte	.LVL19-1
 2823 0191 0100     		.2byte	0x1
 2824 0193 53       		.byte	0x53
 2825 0194 21000000 		.4byte	.LVL19-1
 2826 0198 26000000 		.4byte	.LVL20
 2827 019c 0400     		.2byte	0x4
 2828 019e F3       		.byte	0xf3
 2829 019f 01       		.uleb128 0x1
 2830 01a0 53       		.byte	0x53
 2831 01a1 9F       		.byte	0x9f
 2832 01a2 26000000 		.4byte	.LVL20
 2833 01a6 2A000000 		.4byte	.LVL21
 2834 01aa 0100     		.2byte	0x1
 2835 01ac 53       		.byte	0x53
 2836 01ad 2A000000 		.4byte	.LVL21
 2837 01b1 34000000 		.4byte	.LVL22
 2838 01b5 0200     		.2byte	0x2
 2839 01b7 91       		.byte	0x91
 2840 01b8 6C       		.sleb128 -20
 2841 01b9 00000000 		.4byte	0
 2842 01bd 00000000 		.4byte	0
 2843              	.LLST8:
 2844 01c1 00000000 		.4byte	.LVL27
 2845 01c5 0A000000 		.4byte	.LVL28
 2846 01c9 0100     		.2byte	0x1
 2847 01cb 50       		.byte	0x50
ARM GAS  /tmp/ccfklhfX.s 			page 51


 2848 01cc 0A000000 		.4byte	.LVL28
 2849 01d0 0E000000 		.4byte	.LVL29
 2850 01d4 0400     		.2byte	0x4
 2851 01d6 F3       		.byte	0xf3
 2852 01d7 01       		.uleb128 0x1
 2853 01d8 50       		.byte	0x50
 2854 01d9 9F       		.byte	0x9f
 2855 01da 0E000000 		.4byte	.LVL29
 2856 01de 18000000 		.4byte	.LVL31
 2857 01e2 0100     		.2byte	0x1
 2858 01e4 50       		.byte	0x50
 2859 01e5 18000000 		.4byte	.LVL31
 2860 01e9 70000000 		.4byte	.LFE121
 2861 01ed 0400     		.2byte	0x4
 2862 01ef F3       		.byte	0xf3
 2863 01f0 01       		.uleb128 0x1
 2864 01f1 50       		.byte	0x50
 2865 01f2 9F       		.byte	0x9f
 2866 01f3 00000000 		.4byte	0
 2867 01f7 00000000 		.4byte	0
 2868              	.LLST9:
 2869 01fb 00000000 		.4byte	.LVL27
 2870 01ff 0A000000 		.4byte	.LVL28
 2871 0203 0100     		.2byte	0x1
 2872 0205 51       		.byte	0x51
 2873 0206 0A000000 		.4byte	.LVL28
 2874 020a 0E000000 		.4byte	.LVL29
 2875 020e 0100     		.2byte	0x1
 2876 0210 54       		.byte	0x54
 2877 0211 0E000000 		.4byte	.LVL29
 2878 0215 12000000 		.4byte	.LVL30
 2879 0219 0100     		.2byte	0x1
 2880 021b 51       		.byte	0x51
 2881 021c 12000000 		.4byte	.LVL30
 2882 0220 52000000 		.4byte	.LVL37
 2883 0224 0100     		.2byte	0x1
 2884 0226 54       		.byte	0x54
 2885 0227 52000000 		.4byte	.LVL37
 2886 022b 55000000 		.4byte	.LVL38-1
 2887 022f 0100     		.2byte	0x1
 2888 0231 51       		.byte	0x51
 2889 0232 55000000 		.4byte	.LVL38-1
 2890 0236 56000000 		.4byte	.LVL38
 2891 023a 0400     		.2byte	0x4
 2892 023c 74       		.byte	0x74
 2893 023d 807C     		.sleb128 -512
 2894 023f 9F       		.byte	0x9f
 2895 0240 56000000 		.4byte	.LVL38
 2896 0244 66000000 		.4byte	.LVL39
 2897 0248 0100     		.2byte	0x1
 2898 024a 54       		.byte	0x54
 2899 024b 00000000 		.4byte	0
 2900 024f 00000000 		.4byte	0
 2901              	.LLST10:
 2902 0253 00000000 		.4byte	.LVL27
 2903 0257 0A000000 		.4byte	.LVL28
 2904 025b 0100     		.2byte	0x1
ARM GAS  /tmp/ccfklhfX.s 			page 52


 2905 025d 52       		.byte	0x52
 2906 025e 0A000000 		.4byte	.LVL28
 2907 0262 0E000000 		.4byte	.LVL29
 2908 0266 0400     		.2byte	0x4
 2909 0268 F3       		.byte	0xf3
 2910 0269 01       		.uleb128 0x1
 2911 026a 52       		.byte	0x52
 2912 026b 9F       		.byte	0x9f
 2913 026c 0E000000 		.4byte	.LVL29
 2914 0270 23000000 		.4byte	.LVL32-1
 2915 0274 0100     		.2byte	0x1
 2916 0276 52       		.byte	0x52
 2917 0277 23000000 		.4byte	.LVL32-1
 2918 027b 70000000 		.4byte	.LFE121
 2919 027f 0400     		.2byte	0x4
 2920 0281 F3       		.byte	0xf3
 2921 0282 01       		.uleb128 0x1
 2922 0283 52       		.byte	0x52
 2923 0284 9F       		.byte	0x9f
 2924 0285 00000000 		.4byte	0
 2925 0289 00000000 		.4byte	0
 2926              	.LLST11:
 2927 028d 00000000 		.4byte	.LVL27
 2928 0291 0A000000 		.4byte	.LVL28
 2929 0295 0100     		.2byte	0x1
 2930 0297 53       		.byte	0x53
 2931 0298 0E000000 		.4byte	.LVL29
 2932 029c 23000000 		.4byte	.LVL32-1
 2933 02a0 0100     		.2byte	0x1
 2934 02a2 53       		.byte	0x53
 2935 02a3 23000000 		.4byte	.LVL32-1
 2936 02a7 38000000 		.4byte	.LVL34
 2937 02ab 0400     		.2byte	0x4
 2938 02ad F3       		.byte	0xf3
 2939 02ae 01       		.uleb128 0x1
 2940 02af 53       		.byte	0x53
 2941 02b0 9F       		.byte	0x9f
 2942 02b1 38000000 		.4byte	.LVL34
 2943 02b5 3C000000 		.4byte	.LVL35
 2944 02b9 0100     		.2byte	0x1
 2945 02bb 53       		.byte	0x53
 2946 02bc 3C000000 		.4byte	.LVL35
 2947 02c0 46000000 		.4byte	.LVL36
 2948 02c4 0200     		.2byte	0x2
 2949 02c6 7D       		.byte	0x7d
 2950 02c7 00       		.sleb128 0
 2951 02c8 00000000 		.4byte	0
 2952 02cc 00000000 		.4byte	0
 2953              	.LLST12:
 2954 02d0 00000000 		.4byte	.LVL41
 2955 02d4 04000000 		.4byte	.LVL42
 2956 02d8 0100     		.2byte	0x1
 2957 02da 50       		.byte	0x50
 2958 02db 04000000 		.4byte	.LVL42
 2959 02df 06000000 		.4byte	.LVL43
 2960 02e3 0400     		.2byte	0x4
 2961 02e5 F3       		.byte	0xf3
ARM GAS  /tmp/ccfklhfX.s 			page 53


 2962 02e6 01       		.uleb128 0x1
 2963 02e7 50       		.byte	0x50
 2964 02e8 9F       		.byte	0x9f
 2965 02e9 06000000 		.4byte	.LVL43
 2966 02ed 16000000 		.4byte	.LVL44
 2967 02f1 0100     		.2byte	0x1
 2968 02f3 50       		.byte	0x50
 2969 02f4 16000000 		.4byte	.LVL44
 2970 02f8 18000000 		.4byte	.LFE122
 2971 02fc 0400     		.2byte	0x4
 2972 02fe F3       		.byte	0xf3
 2973 02ff 01       		.uleb128 0x1
 2974 0300 50       		.byte	0x50
 2975 0301 9F       		.byte	0x9f
 2976 0302 00000000 		.4byte	0
 2977 0306 00000000 		.4byte	0
 2978              		.section	.debug_aranges,"",%progbits
 2979 0000 44000000 		.4byte	0x44
 2980 0004 0200     		.2byte	0x2
 2981 0006 00000000 		.4byte	.Ldebug_info0
 2982 000a 04       		.byte	0x4
 2983 000b 00       		.byte	0
 2984 000c 0000     		.2byte	0
 2985 000e 0000     		.2byte	0
 2986 0010 00000000 		.4byte	.LFB118
 2987 0014 2C000000 		.4byte	.LFE118-.LFB118
 2988 0018 00000000 		.4byte	.LFB119
 2989 001c 2C000000 		.4byte	.LFE119-.LFB119
 2990 0020 00000000 		.4byte	.LFB120
 2991 0024 5C000000 		.4byte	.LFE120-.LFB120
 2992 0028 00000000 		.4byte	.LFB121
 2993 002c 70000000 		.4byte	.LFE121-.LFB121
 2994 0030 00000000 		.4byte	.LFB122
 2995 0034 18000000 		.4byte	.LFE122-.LFB122
 2996 0038 00000000 		.4byte	.LFB123
 2997 003c 06000000 		.4byte	.LFE123-.LFB123
 2998 0040 00000000 		.4byte	0
 2999 0044 00000000 		.4byte	0
 3000              		.section	.debug_ranges,"",%progbits
 3001              	.Ldebug_ranges0:
 3002 0000 00000000 		.4byte	.LFB118
 3003 0004 2C000000 		.4byte	.LFE118
 3004 0008 00000000 		.4byte	.LFB119
 3005 000c 2C000000 		.4byte	.LFE119
 3006 0010 00000000 		.4byte	.LFB120
 3007 0014 5C000000 		.4byte	.LFE120
 3008 0018 00000000 		.4byte	.LFB121
 3009 001c 70000000 		.4byte	.LFE121
 3010 0020 00000000 		.4byte	.LFB122
 3011 0024 18000000 		.4byte	.LFE122
 3012 0028 00000000 		.4byte	.LFB123
 3013 002c 06000000 		.4byte	.LFE123
 3014 0030 00000000 		.4byte	0
 3015 0034 00000000 		.4byte	0
 3016              		.section	.debug_line,"",%progbits
 3017              	.Ldebug_line0:
 3018 0000 99030000 		.section	.debug_str,"MS",%progbits,1
ARM GAS  /tmp/ccfklhfX.s 			page 54


 3018      0200CC02 
 3018      00000201 
 3018      FB0E0D00 
 3018      01010101 
 3019              	.LASF95:
 3020 0000 426C6F63 		.ascii	"BlockDeviceInfo\000"
 3020      6B446576 
 3020      69636549 
 3020      6E666F00 
 3021              	.LASF118:
 3022 0010 646D6172 		.ascii	"dmarx\000"
 3022      7800
 3023              	.LASF159:
 3024 0016 636F756E 		.ascii	"count\000"
 3024      7400
 3025              	.LASF140:
 3026 001c 63617061 		.ascii	"capacity\000"
 3026      63697479 
 3026      00
 3027              	.LASF149:
 3028 0025 5245535F 		.ascii	"RES_WRPRT\000"
 3028      57525052 
 3028      5400
 3029              	.LASF59:
 3030 002f 4D304152 		.ascii	"M0AR\000"
 3030      00
 3031              	.LASF68:
 3032 0034 52584352 		.ascii	"RXCRCR\000"
 3032      435200
 3033              	.LASF94:
 3034 003b 626C6B5F 		.ascii	"blk_num\000"
 3034      6E756D00 
 3035              	.LASF53:
 3036 0043 7264796D 		.ascii	"rdymsg\000"
 3036      736700
 3037              	.LASF133:
 3038 004a 69735F70 		.ascii	"is_protected\000"
 3038      726F7465 
 3038      63746564 
 3038      00
 3039              	.LASF98:
 3040 0057 4F545950 		.ascii	"OTYPER\000"
 3040      455200
 3041              	.LASF110:
 3042 005e 5350495F 		.ascii	"SPI_ACTIVE\000"
 3042      41435449 
 3042      564500
 3043              	.LASF131:
 3044 0069 4D4D4344 		.ascii	"MMCDriverVMT\000"
 3044      72697665 
 3044      72564D54 
 3044      00
 3045              	.LASF150:
 3046 0076 5245535F 		.ascii	"RES_NOTRDY\000"
 3046      4E4F5452 
 3046      445900
 3047              	.LASF77:
ARM GAS  /tmp/ccfklhfX.s 			page 55


 3048 0081 73747265 		.ascii	"stream\000"
 3048      616D00
 3049              	.LASF122:
 3050 0088 73706963 		.ascii	"spicallback_t\000"
 3050      616C6C62 
 3050      61636B5F 
 3050      7400
 3051              	.LASF97:
 3052 0096 4D4F4445 		.ascii	"MODER\000"
 3052      5200
 3053              	.LASF12:
 3054 009c 6C6F6E67 		.ascii	"long long unsigned int\000"
 3054      206C6F6E 
 3054      6720756E 
 3054      7369676E 
 3054      65642069 
 3055              	.LASF109:
 3056 00b3 5350495F 		.ascii	"SPI_READY\000"
 3056      52454144 
 3056      5900
 3057              	.LASF100:
 3058 00bd 50555044 		.ascii	"PUPDR\000"
 3058      5200
 3059              	.LASF54:
 3060 00c3 65786974 		.ascii	"exitcode\000"
 3060      636F6465 
 3060      00
 3061              	.LASF167:
 3062 00cc 6D6D6353 		.ascii	"mmcSequentialRead\000"
 3062      65717565 
 3062      6E746961 
 3062      6C526561 
 3062      6400
 3063              	.LASF113:
 3064 00de 53504944 		.ascii	"SPIDriver\000"
 3064      72697665 
 3064      7200
 3065              	.LASF124:
 3066 00e8 7373706F 		.ascii	"ssport\000"
 3066      727400
 3067              	.LASF163:
 3068 00ef 49544D5F 		.ascii	"ITM_RxBuffer\000"
 3068      52784275 
 3068      66666572 
 3068      00
 3069              	.LASF92:
 3070 00fc 626C6B73 		.ascii	"blkstate_t\000"
 3070      74617465 
 3070      5F7400
 3071              	.LASF26:
 3072 0107 705F7072 		.ascii	"p_prio\000"
 3072      696F00
 3073              	.LASF155:
 3074 010e 73746174 		.ascii	"stat\000"
 3074      00
 3075              	.LASF17:
 3076 0113 74726566 		.ascii	"trefs_t\000"
ARM GAS  /tmp/ccfklhfX.s 			page 56


 3076      735F7400 
 3077              	.LASF11:
 3078 011b 6C6F6E67 		.ascii	"long long int\000"
 3078      206C6F6E 
 3078      6720696E 
 3078      7400
 3079              	.LASF1:
 3080 0129 7369676E 		.ascii	"signed char\000"
 3080      65642063 
 3080      68617200 
 3081              	.LASF108:
 3082 0135 5350495F 		.ascii	"SPI_STOP\000"
 3082      53544F50 
 3082      00
 3083              	.LASF72:
 3084 013e 49325343 		.ascii	"I2SCFGR\000"
 3084      46475200 
 3085              	.LASF13:
 3086 0146 626F6F6C 		.ascii	"bool_t\000"
 3086      5F7400
 3087              	.LASF50:
 3088 014d 6D5F7175 		.ascii	"m_queue\000"
 3088      65756500 
 3089              	.LASF135:
 3090 0155 64697363 		.ascii	"disconnect\000"
 3090      6F6E6E65 
 3090      637400
 3091              	.LASF18:
 3092 0160 74736C69 		.ascii	"tslices_t\000"
 3092      6365735F 
 3092      7400
 3093              	.LASF174:
 3094 016a 6765745F 		.ascii	"get_fattime\000"
 3094      66617474 
 3094      696D6500 
 3095              	.LASF83:
 3096 0176 424C4B5F 		.ascii	"BLK_UNINIT\000"
 3096      554E494E 
 3096      495400
 3097              	.LASF114:
 3098 0181 73746174 		.ascii	"state\000"
 3098      6500
 3099              	.LASF8:
 3100 0187 6C6F6E67 		.ascii	"long int\000"
 3100      20696E74 
 3100      00
 3101              	.LASF16:
 3102 0190 74737461 		.ascii	"tstate_t\000"
 3102      74655F74 
 3102      00
 3103              	.LASF151:
 3104 0199 5245535F 		.ascii	"RES_PARERR\000"
 3104      50415245 
 3104      525200
 3105              	.LASF165:
 3106 01a4 6D6D635F 		.ascii	"mmc_lld_is_write_protected\000"
 3106      6C6C645F 
ARM GAS  /tmp/ccfklhfX.s 			page 57


 3106      69735F77 
 3106      72697465 
 3106      5F70726F 
 3107              	.LASF125:
 3108 01bf 73737061 		.ascii	"sspad\000"
 3108      6400
 3109              	.LASF145:
 3110 01c5 44574F52 		.ascii	"DWORD\000"
 3110      4400
 3111              	.LASF28:
 3112 01cb 705F6E65 		.ascii	"p_newer\000"
 3112      77657200 
 3113              	.LASF123:
 3114 01d3 656E645F 		.ascii	"end_cb\000"
 3114      636200
 3115              	.LASF120:
 3116 01da 7278646D 		.ascii	"rxdmamode\000"
 3116      616D6F64 
 3116      6500
 3117              	.LASF105:
 3118 01e4 4750494F 		.ascii	"GPIO_TypeDef\000"
 3118      5F547970 
 3118      65446566 
 3118      00
 3119              	.LASF139:
 3120 01f1 6765745F 		.ascii	"get_info\000"
 3120      696E666F 
 3120      00
 3121              	.LASF119:
 3122 01fa 646D6174 		.ascii	"dmatx\000"
 3122      7800
 3123              	.LASF84:
 3124 0200 424C4B5F 		.ascii	"BLK_STOP\000"
 3124      53544F50 
 3124      00
 3125              	.LASF99:
 3126 0209 4F535045 		.ascii	"OSPEEDR\000"
 3126      45445200 
 3127              	.LASF42:
 3128 0211 705F6D70 		.ascii	"p_mpool\000"
 3128      6F6F6C00 
 3129              	.LASF45:
 3130 0219 72656761 		.ascii	"regarm_t\000"
 3130      726D5F74 
 3130      00
 3131              	.LASF80:
 3132 0222 73656C66 		.ascii	"selfindex\000"
 3132      696E6465 
 3132      7800
 3133              	.LASF164:
 3134 022c 4D4D4344 		.ascii	"MMCD1\000"
 3134      3100
 3135              	.LASF162:
 3136 0232 6374726C 		.ascii	"ctrl\000"
 3136      00
 3137              	.LASF93:
 3138 0237 626C6B5F 		.ascii	"blk_size\000"
ARM GAS  /tmp/ccfklhfX.s 			page 58


 3138      73697A65 
 3138      00
 3139              	.LASF143:
 3140 0240 42595445 		.ascii	"BYTE\000"
 3140      00
 3141              	.LASF0:
 3142 0245 756E7369 		.ascii	"unsigned int\000"
 3142      676E6564 
 3142      20696E74 
 3142      00
 3143              	.LASF5:
 3144 0252 75696E74 		.ascii	"uint16_t\000"
 3144      31365F74 
 3144      00
 3145              	.LASF169:
 3146 025b 6D6D6353 		.ascii	"mmcStartSequentialWrite\000"
 3146      74617274 
 3146      53657175 
 3146      656E7469 
 3146      616C5772 
 3147              	.LASF171:
 3148 0273 474E5520 		.ascii	"GNU C 4.8.3 20131129 (release) [ARM/embedded-4_8-br"
 3148      4320342E 
 3148      382E3320 
 3148      32303133 
 3148      31313239 
 3149 02a6 616E6368 		.ascii	"anch revision 205641] -mcpu=cortex-m4 -mfloat-abi=s"
 3149      20726576 
 3149      6973696F 
 3149      6E203230 
 3149      35363431 
 3150 02d9 6F667466 		.ascii	"oftfp -mfpu=fpv4-sp-d16 -mno-thumb-interwork -mthum"
 3150      70202D6D 
 3150      6670753D 
 3150      66707634 
 3150      2D73702D 
 3151 030c 62202D67 		.ascii	"b -ggdb -O2 -fomit-frame-pointer -falign-functions="
 3151      67646220 
 3151      2D4F3220 
 3151      2D666F6D 
 3151      69742D66 
 3152 033f 3136202D 		.ascii	"16 -fsingle-precision-constant -ffunction-sections "
 3152      6673696E 
 3152      676C652D 
 3152      70726563 
 3152      6973696F 
 3153 0372 2D666461 		.ascii	"-fdata-sections -fno-common\000"
 3153      74612D73 
 3153      65637469 
 3153      6F6E7320 
 3153      2D666E6F 
 3154              	.LASF37:
 3155 038e 705F6D73 		.ascii	"p_msgqueue\000"
 3155      67717565 
 3155      756500
 3156              	.LASF154:
 3157 0399 6469736B 		.ascii	"disk_status\000"
ARM GAS  /tmp/ccfklhfX.s 			page 59


 3157      5F737461 
 3157      74757300 
 3158              	.LASF102:
 3159 03a5 4C434B52 		.ascii	"LCKR\000"
 3159      00
 3160              	.LASF79:
 3161 03aa 69736869 		.ascii	"ishift\000"
 3161      667400
 3162              	.LASF6:
 3163 03b1 73686F72 		.ascii	"short unsigned int\000"
 3163      7420756E 
 3163      7369676E 
 3163      65642069 
 3163      6E7400
 3164              	.LASF85:
 3165 03c4 424C4B5F 		.ascii	"BLK_ACTIVE\000"
 3165      41435449 
 3165      564500
 3166              	.LASF128:
 3167 03cf 6C736366 		.ascii	"lscfg\000"
 3167      6700
 3168              	.LASF141:
 3169 03d5 626C6F63 		.ascii	"block_addresses\000"
 3169      6B5F6164 
 3169      64726573 
 3169      73657300 
 3170              	.LASF20:
 3171 03e5 6D73675F 		.ascii	"msg_t\000"
 3171      7400
 3172              	.LASF86:
 3173 03eb 424C4B5F 		.ascii	"BLK_CONNECTING\000"
 3173      434F4E4E 
 3173      45435449 
 3173      4E4700
 3174              	.LASF15:
 3175 03fa 746D6F64 		.ascii	"tmode_t\000"
 3175      655F7400 
 3176              	.LASF158:
 3177 0402 73656374 		.ascii	"sector\000"
 3177      6F7200
 3178              	.LASF35:
 3179 0409 705F7469 		.ascii	"p_time\000"
 3179      6D6500
 3180              	.LASF44:
 3181 0410 54687265 		.ascii	"ThreadsList\000"
 3181      6164734C 
 3181      69737400 
 3182              	.LASF21:
 3183 041c 6576656E 		.ascii	"eventmask_t\000"
 3183      746D6173 
 3183      6B5F7400 
 3184              	.LASF161:
 3185 0428 6469736B 		.ascii	"disk_ioctl\000"
 3185      5F696F63 
 3185      746C00
 3186              	.LASF137:
 3187 0433 77726974 		.ascii	"write\000"
ARM GAS  /tmp/ccfklhfX.s 			page 60


 3187      6500
 3188              	.LASF156:
 3189 0439 6469736B 		.ascii	"disk_read\000"
 3189      5F726561 
 3189      6400
 3190              	.LASF172:
 3191 0443 2E2E2F41 		.ascii	"../AithonLibrary/ChibiOS/os/various/fatfs_bindings/"
 3191      6974686F 
 3191      6E4C6962 
 3191      72617279 
 3191      2F436869 
 3192 0476 66617466 		.ascii	"fatfs_diskio.c\000"
 3192      735F6469 
 3192      736B696F 
 3192      2E6300
 3193              	.LASF89:
 3194 0485 424C4B5F 		.ascii	"BLK_READING\000"
 3194      52454144 
 3194      494E4700 
 3195              	.LASF74:
 3196 0491 49325350 		.ascii	"I2SPR\000"
 3196      5200
 3197              	.LASF48:
 3198 0497 73697A65 		.ascii	"sizetype\000"
 3198      74797065 
 3198      00
 3199              	.LASF96:
 3200 04a0 636C6561 		.ascii	"clear\000"
 3200      7200
 3201              	.LASF49:
 3202 04a6 4D757465 		.ascii	"Mutex\000"
 3202      7800
 3203              	.LASF144:
 3204 04ac 574F5244 		.ascii	"WORD\000"
 3204      00
 3205              	.LASF147:
 3206 04b1 5245535F 		.ascii	"RES_OK\000"
 3206      4F4B00
 3207              	.LASF29:
 3208 04b8 705F6F6C 		.ascii	"p_older\000"
 3208      64657200 
 3209              	.LASF91:
 3210 04c0 424C4B5F 		.ascii	"BLK_SYNCING\000"
 3210      53594E43 
 3210      494E4700 
 3211              	.LASF166:
 3212 04cc 6D6D6353 		.ascii	"mmcStartSequentialRead\000"
 3212      74617274 
 3212      53657175 
 3212      656E7469 
 3212      616C5265 
 3213              	.LASF88:
 3214 04e3 424C4B5F 		.ascii	"BLK_READY\000"
 3214      52454144 
 3214      5900
 3215              	.LASF43:
 3216 04ed 54687265 		.ascii	"ThreadsQueue\000"
ARM GAS  /tmp/ccfklhfX.s 			page 61


 3216      61647351 
 3216      75657565 
 3216      00
 3217              	.LASF121:
 3218 04fa 7478646D 		.ascii	"txdmamode\000"
 3218      616D6F64 
 3218      6500
 3219              	.LASF130:
 3220 0504 4D4D4343 		.ascii	"MMCConfig\000"
 3220      6F6E6669 
 3220      6700
 3221              	.LASF175:
 3222 050e 6D6D6353 		.ascii	"mmcStopSequentialWrite\000"
 3222      746F7053 
 3222      65717565 
 3222      6E746961 
 3222      6C577269 
 3223              	.LASF173:
 3224 0525 2F686F6D 		.ascii	"/home/brian/aithon/ProjectTemplate\000"
 3224      652F6272 
 3224      69616E2F 
 3224      61697468 
 3224      6F6E2F50 
 3225              	.LASF104:
 3226 0548 41465248 		.ascii	"AFRH\000"
 3226      00
 3227              	.LASF66:
 3228 054d 43524350 		.ascii	"CRCPR\000"
 3228      5200
 3229              	.LASF103:
 3230 0553 4146524C 		.ascii	"AFRL\000"
 3230      00
 3231              	.LASF70:
 3232 0558 54584352 		.ascii	"TXCRCR\000"
 3232      435200
 3233              	.LASF62:
 3234 055f 52455345 		.ascii	"RESERVED0\000"
 3234      52564544 
 3234      3000
 3235              	.LASF63:
 3236 0569 52455345 		.ascii	"RESERVED1\000"
 3236      52564544 
 3236      3100
 3237              	.LASF64:
 3238 0573 52455345 		.ascii	"RESERVED2\000"
 3238      52564544 
 3238      3200
 3239              	.LASF65:
 3240 057d 52455345 		.ascii	"RESERVED3\000"
 3240      52564544 
 3240      3300
 3241              	.LASF67:
 3242 0587 52455345 		.ascii	"RESERVED4\000"
 3242      52564544 
 3242      3400
 3243              	.LASF25:
 3244 0591 705F7072 		.ascii	"p_prev\000"
ARM GAS  /tmp/ccfklhfX.s 			page 62


 3244      657600
 3245              	.LASF71:
 3246 0598 52455345 		.ascii	"RESERVED6\000"
 3246      52564544 
 3246      3600
 3247              	.LASF73:
 3248 05a2 52455345 		.ascii	"RESERVED7\000"
 3248      52564544 
 3248      3700
 3249              	.LASF75:
 3250 05ac 52455345 		.ascii	"RESERVED8\000"
 3250      52564544 
 3250      3800
 3251              	.LASF19:
 3252 05b6 74707269 		.ascii	"tprio_t\000"
 3252      6F5F7400 
 3253              	.LASF117:
 3254 05be 6D757465 		.ascii	"mutex\000"
 3254      7800
 3255              	.LASF14:
 3256 05c4 5F426F6F 		.ascii	"_Bool\000"
 3256      6C00
 3257              	.LASF7:
 3258 05ca 696E7433 		.ascii	"int32_t\000"
 3258      325F7400 
 3259              	.LASF2:
 3260 05d2 756E7369 		.ascii	"unsigned char\000"
 3260      676E6564 
 3260      20636861 
 3260      7200
 3261              	.LASF82:
 3262 05e0 73746D33 		.ascii	"stm32_dma_stream_t\000"
 3262      325F646D 
 3262      615F7374 
 3262      7265616D 
 3262      5F7400
 3263              	.LASF40:
 3264 05f3 705F6D74 		.ascii	"p_mtxlist\000"
 3264      786C6973 
 3264      7400
 3265              	.LASF3:
 3266 05fd 73686F72 		.ascii	"short int\000"
 3266      7420696E 
 3266      7400
 3267              	.LASF31:
 3268 0607 705F7374 		.ascii	"p_state\000"
 3268      61746500 
 3269              	.LASF90:
 3270 060f 424C4B5F 		.ascii	"BLK_WRITING\000"
 3270      57524954 
 3270      494E4700 
 3271              	.LASF34:
 3272 061b 705F7072 		.ascii	"p_preempt\000"
 3272      65656D70 
 3272      7400
 3273              	.LASF56:
 3274 0625 65776D61 		.ascii	"ewmask\000"
ARM GAS  /tmp/ccfklhfX.s 			page 63


 3274      736B00
 3275              	.LASF24:
 3276 062c 705F6E65 		.ascii	"p_next\000"
 3276      787400
 3277              	.LASF32:
 3278 0633 705F666C 		.ascii	"p_flags\000"
 3278      61677300 
 3279              	.LASF170:
 3280 063b 6D6D6353 		.ascii	"mmcSequentialWrite\000"
 3280      65717565 
 3280      6E746961 
 3280      6C577269 
 3280      746500
 3281              	.LASF157:
 3282 064e 62756666 		.ascii	"buff\000"
 3282      00
 3283              	.LASF23:
 3284 0653 54687265 		.ascii	"Thread\000"
 3284      616400
 3285              	.LASF134:
 3286 065a 636F6E6E 		.ascii	"connect\000"
 3286      65637400 
 3287              	.LASF39:
 3288 0662 705F6570 		.ascii	"p_epending\000"
 3288      656E6469 
 3288      6E6700
 3289              	.LASF78:
 3290 066d 69666372 		.ascii	"ifcr\000"
 3290      00
 3291              	.LASF69:
 3292 0672 52455345 		.ascii	"RESERVED5\000"
 3292      52564544 
 3292      3500
 3293              	.LASF153:
 3294 067c 6469736B 		.ascii	"disk_initialize\000"
 3294      5F696E69 
 3294      7469616C 
 3294      697A6500 
 3295              	.LASF9:
 3296 068c 75696E74 		.ascii	"uint32_t\000"
 3296      33325F74 
 3296      00
 3297              	.LASF152:
 3298 0695 44524553 		.ascii	"DRESULT\000"
 3298      554C5400 
 3299              	.LASF10:
 3300 069d 6C6F6E67 		.ascii	"long unsigned int\000"
 3300      20756E73 
 3300      69676E65 
 3300      6420696E 
 3300      7400
 3301              	.LASF76:
 3302 06af 5350495F 		.ascii	"SPI_TypeDef\000"
 3302      54797065 
 3302      44656600 
 3303              	.LASF136:
 3304 06bb 72656164 		.ascii	"read\000"
ARM GAS  /tmp/ccfklhfX.s 			page 64


 3304      00
 3305              	.LASF57:
 3306 06c0 63686172 		.ascii	"char\000"
 3306      00
 3307              	.LASF111:
 3308 06c5 5350495F 		.ascii	"SPI_COMPLETE\000"
 3308      434F4D50 
 3308      4C455445 
 3308      00
 3309              	.LASF87:
 3310 06d2 424C4B5F 		.ascii	"BLK_DISCONNECTING\000"
 3310      44495343 
 3310      4F4E4E45 
 3310      4354494E 
 3310      4700
 3311              	.LASF115:
 3312 06e4 636F6E66 		.ascii	"config\000"
 3312      696700
 3313              	.LASF112:
 3314 06eb 73706973 		.ascii	"spistate_t\000"
 3314      74617465 
 3314      5F7400
 3315              	.LASF52:
 3316 06f6 6D5F6E65 		.ascii	"m_next\000"
 3316      787400
 3317              	.LASF22:
 3318 06fd 73797374 		.ascii	"systime_t\000"
 3318      696D655F 
 3318      7400
 3319              	.LASF41:
 3320 0707 705F7265 		.ascii	"p_realprio\000"
 3320      616C7072 
 3320      696F00
 3321              	.LASF146:
 3322 0712 44535441 		.ascii	"DSTATUS\000"
 3322      54555300 
 3323              	.LASF116:
 3324 071a 74687265 		.ascii	"thread\000"
 3324      616400
 3325              	.LASF58:
 3326 0721 4E445452 		.ascii	"NDTR\000"
 3326      00
 3327              	.LASF61:
 3328 0726 444D415F 		.ascii	"DMA_Stream_TypeDef\000"
 3328      53747265 
 3328      616D5F54 
 3328      79706544 
 3328      656600
 3329              	.LASF106:
 3330 0739 696F706F 		.ascii	"ioportid_t\000"
 3330      72746964 
 3330      5F7400
 3331              	.LASF47:
 3332 0744 636F6E74 		.ascii	"context\000"
 3332      65787400 
 3333              	.LASF160:
 3334 074c 6469736B 		.ascii	"disk_write\000"
ARM GAS  /tmp/ccfklhfX.s 			page 65


 3334      5F777269 
 3334      746500
 3335              	.LASF46:
 3336 0757 696E7463 		.ascii	"intctx\000"
 3336      747800
 3337              	.LASF132:
 3338 075e 69735F69 		.ascii	"is_inserted\000"
 3338      6E736572 
 3338      74656400 
 3339              	.LASF60:
 3340 076a 4D314152 		.ascii	"M1AR\000"
 3340      00
 3341              	.LASF107:
 3342 076f 5350495F 		.ascii	"SPI_UNINIT\000"
 3342      554E494E 
 3342      495400
 3343              	.LASF142:
 3344 077a 4D4D4344 		.ascii	"MMCDriver\000"
 3344      72697665 
 3344      7200
 3345              	.LASF30:
 3346 0784 705F6E61 		.ascii	"p_name\000"
 3346      6D6500
 3347              	.LASF33:
 3348 078b 705F7265 		.ascii	"p_refs\000"
 3348      667300
 3349              	.LASF101:
 3350 0792 42535252 		.ascii	"BSRR\000"
 3350      00
 3351              	.LASF129:
 3352 0797 68736366 		.ascii	"hscfg\000"
 3352      6700
 3353              	.LASF4:
 3354 079d 75696E74 		.ascii	"uint8_t\000"
 3354      385F7400 
 3355              	.LASF127:
 3356 07a5 73706970 		.ascii	"spip\000"
 3356      00
 3357              	.LASF138:
 3358 07aa 73796E63 		.ascii	"sync\000"
 3358      00
 3359              	.LASF55:
 3360 07af 77746F62 		.ascii	"wtobjp\000"
 3360      6A7000
 3361              	.LASF148:
 3362 07b6 5245535F 		.ascii	"RES_ERROR\000"
 3362      4552524F 
 3362      5200
 3363              	.LASF126:
 3364 07c0 53504943 		.ascii	"SPIConfig\000"
 3364      6F6E6669 
 3364      6700
 3365              	.LASF38:
 3366 07ca 705F6D73 		.ascii	"p_msg\000"
 3366      6700
 3367              	.LASF168:
 3368 07d0 6D6D6353 		.ascii	"mmcStopSequentialRead\000"
ARM GAS  /tmp/ccfklhfX.s 			page 66


 3368      746F7053 
 3368      65717565 
 3368      6E746961 
 3368      6C526561 
 3369              	.LASF51:
 3370 07e6 6D5F6F77 		.ascii	"m_owner\000"
 3370      6E657200 
 3371              	.LASF81:
 3372 07ee 76656374 		.ascii	"vector\000"
 3372      6F7200
 3373              	.LASF27:
 3374 07f5 705F6374 		.ascii	"p_ctx\000"
 3374      7800
 3375              	.LASF36:
 3376 07fb 705F7761 		.ascii	"p_waiting\000"
 3376      6974696E 
 3376      6700
 3377              		.ident	"GCC: (GNU Tools for ARM Embedded Processors) 4.8.3 20131129 (release) [ARM/embedded-4_8-br
ARM GAS  /tmp/ccfklhfX.s 			page 67


DEFINED SYMBOLS
                            *ABS*:0000000000000000 fatfs_diskio.c
     /tmp/ccfklhfX.s:20     .text.disk_initialize:0000000000000000 $t
     /tmp/ccfklhfX.s:26     .text.disk_initialize:0000000000000000 disk_initialize
     /tmp/ccfklhfX.s:73     .text.disk_initialize:0000000000000028 $d
     /tmp/ccfklhfX.s:78     .text.disk_status:0000000000000000 $t
     /tmp/ccfklhfX.s:84     .text.disk_status:0000000000000000 disk_status
     /tmp/ccfklhfX.s:130    .text.disk_status:0000000000000028 $d
     /tmp/ccfklhfX.s:135    .text.disk_read:0000000000000000 $t
     /tmp/ccfklhfX.s:141    .text.disk_read:0000000000000000 disk_read
     /tmp/ccfklhfX.s:230    .text.disk_read:0000000000000058 $d
     /tmp/ccfklhfX.s:235    .text.disk_write:0000000000000000 $t
     /tmp/ccfklhfX.s:241    .text.disk_write:0000000000000000 disk_write
     /tmp/ccfklhfX.s:342    .text.disk_write:000000000000006c $d
     /tmp/ccfklhfX.s:347    .text.disk_ioctl:0000000000000000 $t
     /tmp/ccfklhfX.s:353    .text.disk_ioctl:0000000000000000 disk_ioctl
     /tmp/ccfklhfX.s:389    .text.get_fattime:0000000000000000 $t
     /tmp/ccfklhfX.s:395    .text.get_fattime:0000000000000000 get_fattime
                     .debug_frame:0000000000000010 $d
     /tmp/ccfklhfX.s:77     .text.disk_initialize:000000000000002c $t
     /tmp/ccfklhfX.s:134    .text.disk_status:000000000000002c $t
     /tmp/ccfklhfX.s:234    .text.disk_read:000000000000005c $t

UNDEFINED SYMBOLS
mmc_lld_is_write_protected
MMCD1
mmcStartSequentialRead
mmcSequentialRead
mmcStopSequentialRead
mmcStartSequentialWrite
mmcSequentialWrite
mmcStopSequentialWrite
