ARM GAS  /tmp/ccICsm2b.s 			page 1


   1              		.syntax unified
   2              		.cpu cortex-m4
   3              		.eabi_attribute 27, 3
   4              		.fpu fpv4-sp-d16
   5              		.eabi_attribute 20, 1
   6              		.eabi_attribute 21, 1
   7              		.eabi_attribute 23, 3
   8              		.eabi_attribute 24, 1
   9              		.eabi_attribute 25, 1
  10              		.eabi_attribute 26, 1
  11              		.eabi_attribute 30, 2
  12              		.eabi_attribute 34, 1
  13              		.eabi_attribute 18, 4
  14              		.thumb
  15              		.file	"ff.c"
  16              		.text
  17              	.Ltext0:
  18              		.cfi_sections	.debug_frame
  19              		.section	.text.move_window,"ax",%progbits
  20              		.align	2
  21              		.p2align 4,,15
  22              		.thumb
  23              		.thumb_func
  24              		.type	move_window, %function
  25              	move_window:
  26              	.LFB13:
  27              		.file 1 "../AithonLibrary/ChibiOS/ext/fatfs/src/ff.c"
  28              		.loc 1 723 0
  29              		.cfi_startproc
  30              		@ args = 0, pretend = 0, frame = 0
  31              		@ frame_needed = 0, uses_anonymous_args = 0
  32              	.LVL0:
  33 0000 2DE9F041 		push	{r4, r5, r6, r7, r8, lr}
  34              		.cfi_def_cfa_offset 24
  35              		.cfi_offset 4, -24
  36              		.cfi_offset 5, -20
  37              		.cfi_offset 6, -16
  38              		.cfi_offset 7, -12
  39              		.cfi_offset 8, -8
  40              		.cfi_offset 14, -4
  41              		.loc 1 727 0
  42 0004 056B     		ldr	r5, [r0, #48]
  43              	.LVL1:
  44              		.loc 1 728 0
  45 0006 8D42     		cmp	r5, r1
  46              		.loc 1 723 0
  47 0008 0446     		mov	r4, r0
  48 000a 0E46     		mov	r6, r1
  49              		.loc 1 728 0
  50 000c 02D0     		beq	.L6
  51              		.loc 1 730 0
  52 000e 0379     		ldrb	r3, [r0, #4]	@ zero_extendqisi2
  53 0010 73B9     		cbnz	r3, .L4
  54              	.LVL2:
  55              	.L8:
  56              		.loc 1 743 0
  57 0012 16B9     		cbnz	r6, .L16
ARM GAS  /tmp/ccICsm2b.s 			page 2


  58              	.L6:
  59              		.loc 1 750 0
  60 0014 0020     		movs	r0, #0
  61 0016 BDE8F081 		pop	{r4, r5, r6, r7, r8, pc}
  62              	.LVL3:
  63              	.L16:
  64              		.loc 1 744 0
  65 001a 6078     		ldrb	r0, [r4, #1]	@ zero_extendqisi2
  66 001c 04F13401 		add	r1, r4, #52
  67 0020 3246     		mov	r2, r6
  68 0022 0123     		movs	r3, #1
  69 0024 FFF7FEFF 		bl	disk_read
  70              	.LVL4:
  71 0028 20BB     		cbnz	r0, .L10
  72              		.loc 1 746 0
  73 002a 2663     		str	r6, [r4, #48]
  74              		.loc 1 751 0
  75 002c BDE8F081 		pop	{r4, r5, r6, r7, r8, pc}
  76              	.LVL5:
  77              	.L4:
  78              		.loc 1 731 0
  79 0030 00F13408 		add	r8, r0, #52
  80 0034 4146     		mov	r1, r8
  81              	.LVL6:
  82 0036 4078     		ldrb	r0, [r0, #1]	@ zero_extendqisi2
  83              	.LVL7:
  84 0038 2A46     		mov	r2, r5
  85 003a 0123     		movs	r3, #1
  86 003c FFF7FEFF 		bl	disk_write
  87              	.LVL8:
  88 0040 C0B9     		cbnz	r0, .L10
  89              		.loc 1 734 0
  90 0042 236A     		ldr	r3, [r4, #32]
  91 0044 626A     		ldr	r2, [r4, #36]
  92              		.loc 1 733 0
  93 0046 2071     		strb	r0, [r4, #4]
  94              		.loc 1 734 0
  95 0048 1A44     		add	r2, r2, r3
  96 004a 9542     		cmp	r5, r2
  97 004c E1D2     		bcs	.L8
  98              	.LBB229:
  99              		.loc 1 736 0
 100 004e E778     		ldrb	r7, [r4, #3]	@ zero_extendqisi2
 101              	.LVL9:
 102 0050 012F     		cmp	r7, #1
 103 0052 01D8     		bhi	.L9
 104 0054 DDE7     		b	.L8
 105              	.LVL10:
 106              	.L17:
 107 0056 236A     		ldr	r3, [r4, #32]
 108              	.LVL11:
 109              	.L9:
 110              		.loc 1 737 0 discriminator 2
 111 0058 1D44     		add	r5, r5, r3
 112              	.LVL12:
 113              		.loc 1 736 0 discriminator 2
 114 005a 013F     		subs	r7, r7, #1
ARM GAS  /tmp/ccICsm2b.s 			page 3


 115              	.LVL13:
 116              		.loc 1 738 0 discriminator 2
 117 005c 2A46     		mov	r2, r5
 118 005e 6078     		ldrb	r0, [r4, #1]	@ zero_extendqisi2
 119 0060 4146     		mov	r1, r8
 120 0062 0123     		movs	r3, #1
 121              		.loc 1 736 0 discriminator 2
 122 0064 FFB2     		uxtb	r7, r7
 123              	.LVL14:
 124              		.loc 1 738 0 discriminator 2
 125 0066 FFF7FEFF 		bl	disk_write
 126              	.LVL15:
 127              		.loc 1 736 0 discriminator 2
 128 006a 012F     		cmp	r7, #1
 129 006c F3D1     		bne	.L17
 130              	.LBE229:
 131              		.loc 1 743 0
 132 006e 002E     		cmp	r6, #0
 133 0070 D0D0     		beq	.L6
 134 0072 D2E7     		b	.L16
 135              	.LVL16:
 136              	.L10:
 137              		.loc 1 732 0
 138 0074 0120     		movs	r0, #1
 139 0076 BDE8F081 		pop	{r4, r5, r6, r7, r8, pc}
 140              		.cfi_endproc
 141              	.LFE13:
 142              		.size	move_window, .-move_window
 143 007a 00BFAFF3 		.section	.text.get_fileinfo,"ax",%progbits
 143      0080
 144              		.align	2
 145              		.p2align 4,,15
 146              		.thumb
 147              		.thumb_func
 148              		.type	get_fileinfo, %function
 149              	get_fileinfo:
 150              	.LFB32:
 151              		.loc 1 1841 0
 152              		.cfi_startproc
 153              		@ args = 0, pretend = 0, frame = 0
 154              		@ frame_needed = 0, uses_anonymous_args = 0
 155              	.LVL17:
 156 0000 F8B5     		push	{r3, r4, r5, r6, r7, lr}
 157              		.cfi_def_cfa_offset 24
 158              		.cfi_offset 3, -24
 159              		.cfi_offset 4, -20
 160              		.cfi_offset 5, -16
 161              		.cfi_offset 6, -12
 162              		.cfi_offset 7, -8
 163              		.cfi_offset 14, -4
 164              		.loc 1 1848 0
 165 0002 0369     		ldr	r3, [r0, #16]
 166              		.loc 1 1841 0
 167 0004 0E46     		mov	r6, r1
 168              		.loc 1 1847 0
 169 0006 01F10905 		add	r5, r1, #9
 170              	.LVL18:
ARM GAS  /tmp/ccICsm2b.s 			page 4


 171              		.loc 1 1848 0
 172 000a 002B     		cmp	r3, #0
 173 000c 50D0     		beq	.L19
 174              		.loc 1 1849 0
 175 000e 4469     		ldr	r4, [r0, #20]
 176              	.LVL19:
 177              		.loc 1 1850 0
 178 0010 94F80CC0 		ldrb	ip, [r4, #12]	@ zero_extendqisi2
 179              	.LVL20:
 180              		.loc 1 1855 0
 181 0014 0CF00807 		and	r7, ip, #8
 182 0018 FFB2     		uxtb	r7, r7
 183              		.loc 1 1851 0
 184 001a 0022     		movs	r2, #0
 185              	.LVL21:
 186              	.L23:
 187              		.loc 1 1852 0
 188 001c A35C     		ldrb	r3, [r4, r2]	@ zero_extendqisi2
 189              	.LVL22:
 190              		.loc 1 1853 0
 191 001e 202B     		cmp	r3, #32
 192              		.loc 1 1851 0
 193 0020 02F10102 		add	r2, r2, #1
 194              	.LVL23:
 195              		.loc 1 1853 0
 196 0024 0ED0     		beq	.L20
 197              		.loc 1 1854 0
 198 0026 052B     		cmp	r3, #5
 199 0028 08BF     		it	eq
 200 002a E523     		moveq	r3, #229
 201              	.LVL24:
 202              		.loc 1 1855 0
 203 002c A3F14101 		sub	r1, r3, #65
 204 0030 C9B2     		uxtb	r1, r1
 205 0032 1FB1     		cbz	r7, .L22
 206              		.loc 1 1855 0 is_stmt 0 discriminator 1
 207 0034 1929     		cmp	r1, #25
 208 0036 9CBF     		itt	ls
 209 0038 2033     		addls	r3, r3, #32
 210              	.LVL25:
 211 003a DBB2     		uxtbls	r3, r3
 212              	.LVL26:
 213              	.L22:
 214              		.loc 1 1851 0 is_stmt 1
 215 003c 082A     		cmp	r2, #8
 216              		.loc 1 1862 0
 217 003e 05F8013B 		strb	r3, [r5], #1
 218              	.LVL27:
 219              		.loc 1 1851 0
 220 0042 EBD1     		bne	.L23
 221              	.LVL28:
 222              	.L20:
 223              		.loc 1 1864 0
 224 0044 237A     		ldrb	r3, [r4, #8]	@ zero_extendqisi2
 225 0046 202B     		cmp	r3, #32
 226 0048 1BD0     		beq	.L24
 227              	.LVL29:
ARM GAS  /tmp/ccICsm2b.s 			page 5


 228              		.loc 1 1865 0
 229 004a 2946     		mov	r1, r5
 230 004c 2E23     		movs	r3, #46
 231              		.loc 1 1869 0
 232 004e 0CF0100C 		and	ip, ip, #16
 233              	.LVL30:
 234              		.loc 1 1865 0
 235 0052 01F8043B 		strb	r3, [r1], #4
 236              	.LVL31:
 237              		.loc 1 1869 0
 238 0056 5FFA8CFC 		uxtb	ip, ip
 239              		.loc 1 1865 0
 240 005a 0135     		adds	r5, r5, #1
 241              	.LVL32:
 242 005c E21D     		adds	r2, r4, #7
 243              	.LVL33:
 244              	.L26:
 245              		.loc 1 1867 0
 246 005e 12F8013F 		ldrb	r3, [r2, #1]!	@ zero_extendqisi2
 247              	.LVL34:
 248              		.loc 1 1869 0
 249 0062 A3F14107 		sub	r7, r3, #65
 250              		.loc 1 1868 0
 251 0066 202B     		cmp	r3, #32
 252              		.loc 1 1869 0
 253 0068 FFB2     		uxtb	r7, r7
 254              		.loc 1 1868 0
 255 006a 0AD0     		beq	.L24
 256              		.loc 1 1869 0
 257 006c BCF1000F 		cmp	ip, #0
 258 0070 03D0     		beq	.L25
 259              		.loc 1 1869 0 is_stmt 0 discriminator 1
 260 0072 192F     		cmp	r7, #25
 261 0074 9CBF     		itt	ls
 262 0076 2033     		addls	r3, r3, #32
 263 0078 DBB2     		uxtbls	r3, r3
 264              	.LVL35:
 265              	.L25:
 266              		.loc 1 1876 0 is_stmt 1
 267 007a 05F8013B 		strb	r3, [r5], #1
 268              	.LVL36:
 269              		.loc 1 1866 0
 270 007e 8D42     		cmp	r5, r1
 271 0080 EDD1     		bne	.L26
 272              	.LVL37:
 273              	.L24:
 274              		.loc 1 1879 0
 275 0082 E37A     		ldrb	r3, [r4, #11]	@ zero_extendqisi2
 276 0084 3372     		strb	r3, [r6, #8]
 277              		.loc 1 1880 0
 278 0086 A37F     		ldrb	r3, [r4, #30]	@ zero_extendqisi2
 279 0088 E77F     		ldrb	r7, [r4, #31]	@ zero_extendqisi2
 280 008a 217F     		ldrb	r1, [r4, #28]	@ zero_extendqisi2
 281 008c 627F     		ldrb	r2, [r4, #29]	@ zero_extendqisi2
 282 008e 1B04     		lsls	r3, r3, #16
 283 0090 43EA0763 		orr	r3, r3, r7, lsl #24
 284 0094 0B43     		orrs	r3, r3, r1
ARM GAS  /tmp/ccICsm2b.s 			page 6


 285 0096 43EA0223 		orr	r3, r3, r2, lsl #8
 286 009a 3360     		str	r3, [r6]
 287              		.loc 1 1881 0
 288 009c 627E     		ldrb	r2, [r4, #25]	@ zero_extendqisi2
 289 009e 237E     		ldrb	r3, [r4, #24]	@ zero_extendqisi2
 290 00a0 43EA0223 		orr	r3, r3, r2, lsl #8
 291 00a4 B380     		strh	r3, [r6, #4]	@ movhi
 292              		.loc 1 1882 0
 293 00a6 E27D     		ldrb	r2, [r4, #23]	@ zero_extendqisi2
 294 00a8 A37D     		ldrb	r3, [r4, #22]	@ zero_extendqisi2
 295 00aa 43EA0223 		orr	r3, r3, r2, lsl #8
 296 00ae F380     		strh	r3, [r6, #6]	@ movhi
 297              	.LVL38:
 298              	.L19:
 299              		.loc 1 1884 0
 300 00b0 0024     		movs	r4, #0
 301 00b2 2C70     		strb	r4, [r5]
 302              		.loc 1 1887 0
 303 00b4 B569     		ldr	r5, [r6, #24]
 304              	.LVL39:
 305 00b6 35B1     		cbz	r5, .L18
 306              		.loc 1 1887 0 is_stmt 0 discriminator 1
 307 00b8 F369     		ldr	r3, [r6, #28]
 308 00ba 23B1     		cbz	r3, .L18
 309              	.LVL40:
 310              	.LBB230:
 311              		.loc 1 1892 0 is_stmt 1
 312 00bc 0369     		ldr	r3, [r0, #16]
 313 00be 1BB9     		cbnz	r3, .L28
 314              	.LVL41:
 315              	.L30:
 316              		.loc 1 1891 0
 317 00c0 0024     		movs	r4, #0
 318              	.L29:
 319              	.LVL42:
 320              		.loc 1 1905 0
 321 00c2 0023     		movs	r3, #0
 322 00c4 2B55     		strb	r3, [r5, r4]
 323              	.LVL43:
 324              	.L18:
 325 00c6 F8BD     		pop	{r3, r4, r5, r6, r7, pc}
 326              	.LVL44:
 327              	.L28:
 328              		.loc 1 1892 0 discriminator 1
 329 00c8 028C     		ldrh	r2, [r0, #32]
 330 00ca 4FF6FF73 		movw	r3, #65535
 331 00ce 9A42     		cmp	r2, r3
 332 00d0 F6D0     		beq	.L30
 333              		.loc 1 1893 0
 334 00d2 C769     		ldr	r7, [r0, #28]
 335              	.LVL45:
 336              		.loc 1 1894 0
 337 00d4 3888     		ldrh	r0, [r7]
 338              	.LVL46:
 339 00d6 70B9     		cbnz	r0, .L31
 340 00d8 F2E7     		b	.L30
 341              	.LVL47:
ARM GAS  /tmp/ccICsm2b.s 			page 7


 342              	.L70:
 343              		.loc 1 1901 0
 344 00da F369     		ldr	r3, [r6, #28]
 345 00dc 013B     		subs	r3, r3, #1
 346 00de 9C42     		cmp	r4, r3
 347              		.loc 1 1902 0
 348 00e0 04F10104 		add	r4, r4, #1
 349              	.LVL48:
 350 00e4 05EB0403 		add	r3, r5, r4
 351              		.loc 1 1901 0
 352 00e8 EAD2     		bcs	.L30
 353              		.loc 1 1902 0
 354 00ea 03F8010C 		strb	r0, [r3, #-1]
 355              	.LVL49:
 356              		.loc 1 1894 0
 357 00ee 37F81400 		ldrh	r0, [r7, r4, lsl #1]
 358              	.LVL50:
 359 00f2 0028     		cmp	r0, #0
 360 00f4 E5D0     		beq	.L29
 361              	.LVL51:
 362              	.L31:
 363              		.loc 1 1896 0
 364 00f6 0021     		movs	r1, #0
 365 00f8 FFF7FEFF 		bl	ff_convert
 366              	.LVL52:
 367              		.loc 1 1897 0
 368 00fc 0028     		cmp	r0, #0
 369 00fe ECD1     		bne	.L70
 370 0100 DEE7     		b	.L30
 371              	.LBE230:
 372              		.cfi_endproc
 373              	.LFE32:
 374              		.size	get_fileinfo, .-get_fileinfo
 375 0102 00BFAFF3 		.section	.text.sync,"ax",%progbits
 375      0080AFF3 
 375      0080AFF3 
 375      0080
 376              		.align	2
 377              		.p2align 4,,15
 378              		.thumb
 379              		.thumb_func
 380              		.type	sync, %function
 381              	sync:
 382              	.LFB14:
 383              		.loc 1 764 0
 384              		.cfi_startproc
 385              		@ args = 0, pretend = 0, frame = 0
 386              		@ frame_needed = 0, uses_anonymous_args = 0
 387              	.LVL53:
 388 0000 2DE9F84F 		push	{r3, r4, r5, r6, r7, r8, r9, r10, fp, lr}
 389              		.cfi_def_cfa_offset 40
 390              		.cfi_offset 3, -40
 391              		.cfi_offset 4, -36
 392              		.cfi_offset 5, -32
 393              		.cfi_offset 6, -28
 394              		.cfi_offset 7, -24
 395              		.cfi_offset 8, -20
ARM GAS  /tmp/ccICsm2b.s 			page 8


 396              		.cfi_offset 9, -16
 397              		.cfi_offset 10, -12
 398              		.cfi_offset 11, -8
 399              		.cfi_offset 14, -4
 400              		.loc 1 768 0
 401 0004 0021     		movs	r1, #0
 402              		.loc 1 764 0
 403 0006 0546     		mov	r5, r0
 404              		.loc 1 768 0
 405 0008 FFF7FEFF 		bl	move_window
 406              	.LVL54:
 407 000c 0346     		mov	r3, r0
 408              	.LVL55:
 409              		.loc 1 769 0
 410 000e 50B9     		cbnz	r0, .L72
 411              		.loc 1 771 0
 412 0010 2B78     		ldrb	r3, [r5]	@ zero_extendqisi2
 413 0012 032B     		cmp	r3, #3
 414 0014 0AD0     		beq	.L80
 415              	.LVL56:
 416              	.L73:
 417              		.loc 1 785 0
 418 0016 0021     		movs	r1, #0
 419 0018 6878     		ldrb	r0, [r5, #1]	@ zero_extendqisi2
 420 001a 0A46     		mov	r2, r1
 421 001c FFF7FEFF 		bl	disk_ioctl
 422              	.LVL57:
 423 0020 031C     		adds	r3, r0, #0
 424 0022 18BF     		it	ne
 425 0024 0123     		movne	r3, #1
 426              	.L72:
 427              	.LVL58:
 428              		.loc 1 790 0
 429 0026 1846     		mov	r0, r3
 430 0028 BDE8F88F 		pop	{r3, r4, r5, r6, r7, r8, r9, r10, fp, pc}
 431              	.LVL59:
 432              	.L80:
 433              		.loc 1 771 0 discriminator 1
 434 002c 6B79     		ldrb	r3, [r5, #5]	@ zero_extendqisi2
 435 002e 002B     		cmp	r3, #0
 436 0030 F1D0     		beq	.L73
 437              		.loc 1 774 0
 438 0032 05F13401 		add	r1, r5, #52
 439              	.LVL60:
 440              		.loc 1 772 0
 441 0036 2863     		str	r0, [r5, #48]
 442              	.LBB231:
 443              	.LBB232:
 444              		.loc 1 547 0
 445 0038 0B46     		mov	r3, r1
 446 003a 05F50D72 		add	r2, r5, #564
 447              	.LVL61:
 448              	.L75:
 449              		.loc 1 550 0
 450 003e 03F8010B 		strb	r0, [r3], #1
 451              	.LVL62:
 452              		.loc 1 549 0
ARM GAS  /tmp/ccICsm2b.s 			page 9


 453 0042 9342     		cmp	r3, r2
 454              		.loc 1 550 0
 455 0044 4FF00004 		mov	r4, #0
 456              		.loc 1 549 0
 457 0048 F9D1     		bne	.L75
 458              	.LBE232:
 459              	.LBE231:
 460              		.loc 1 778 0
 461 004a 6A69     		ldr	r2, [r5, #20]
 462              		.loc 1 779 0
 463 004c 2B69     		ldr	r3, [r5, #16]
 464              	.LVL63:
 465              		.loc 1 778 0
 466 004e 85F81C22 		strb	r2, [r5, #540]
 467 0052 C2F3072B 		ubfx	fp, r2, #8, #8
 468 0056 4FEA124A 		lsr	r10, r2, #16
 469              		.loc 1 779 0
 470 005a 4FEA134C 		lsr	ip, r3, #16
 471 005e 4FEA136E 		lsr	lr, r3, #24
 472              		.loc 1 776 0
 473 0062 5220     		movs	r0, #82
 474              	.LVL64:
 475              		.loc 1 778 0
 476 0064 4FEA1269 		lsr	r9, r2, #24
 477              		.loc 1 779 0
 478 0068 C3F30728 		ubfx	r8, r3, #8, #8
 479              		.loc 1 776 0
 480 006c 6122     		movs	r2, #97
 481              		.loc 1 778 0
 482 006e 85F81DB2 		strb	fp, [r5, #541]
 483 0072 85F81EA2 		strb	r10, [r5, #542]
 484              		.loc 1 776 0
 485 0076 4FF0410B 		mov	fp, #65
 486              		.loc 1 777 0
 487 007a 4FF0720A 		mov	r10, #114
 488              		.loc 1 775 0
 489 007e 5527     		movs	r7, #85
 490 0080 AA26     		movs	r6, #170
 491              		.loc 1 779 0
 492 0082 85F82032 		strb	r3, [r5, #544]
 493              		.loc 1 776 0
 494 0086 85F83400 		strb	r0, [r5, #52]
 495 008a 85F83500 		strb	r0, [r5, #53]
 496 008e 85F83620 		strb	r2, [r5, #54]
 497              		.loc 1 777 0
 498 0092 85F81B22 		strb	r2, [r5, #539]
 499              		.loc 1 778 0
 500 0096 85F81F92 		strb	r9, [r5, #543]
 501              		.loc 1 779 0
 502 009a 85F82182 		strb	r8, [r5, #545]
 503 009e 85F822C2 		strb	ip, [r5, #546]
 504 00a2 85F823E2 		strb	lr, [r5, #547]
 505              		.loc 1 775 0
 506 00a6 85F83272 		strb	r7, [r5, #562]
 507 00aa 85F83362 		strb	r6, [r5, #563]
 508              		.loc 1 776 0
 509 00ae 85F837B0 		strb	fp, [r5, #55]
ARM GAS  /tmp/ccICsm2b.s 			page 10


 510              		.loc 1 777 0
 511 00b2 85F81AB2 		strb	fp, [r5, #538]
 512 00b6 85F818A2 		strb	r10, [r5, #536]
 513 00ba 85F819A2 		strb	r10, [r5, #537]
 514              		.loc 1 781 0
 515 00be 6878     		ldrb	r0, [r5, #1]	@ zero_extendqisi2
 516 00c0 AA69     		ldr	r2, [r5, #24]
 517 00c2 0123     		movs	r3, #1
 518 00c4 FFF7FEFF 		bl	disk_write
 519              	.LVL65:
 520              		.loc 1 782 0
 521 00c8 6C71     		strb	r4, [r5, #5]
 522 00ca A4E7     		b	.L73
 523              		.cfi_endproc
 524              	.LFE14:
 525              		.size	sync, .-sync
 526 00cc AFF30080 		.section	.text.check_fs,"ax",%progbits
 527              		.align	2
 528              		.p2align 4,,15
 529              		.thumb
 530              		.thumb_func
 531              		.type	check_fs, %function
 532              	check_fs:
 533              	.LFB34:
 534              		.loc 1 1986 0
 535              		.cfi_startproc
 536              		@ args = 0, pretend = 0, frame = 0
 537              		@ frame_needed = 0, uses_anonymous_args = 0
 538              	.LVL66:
 539 0000 70B5     		push	{r4, r5, r6, lr}
 540              		.cfi_def_cfa_offset 16
 541              		.cfi_offset 4, -16
 542              		.cfi_offset 5, -12
 543              		.cfi_offset 6, -8
 544              		.cfi_offset 14, -4
 545              		.loc 1 1986 0
 546 0002 0446     		mov	r4, r0
 547 0004 0A46     		mov	r2, r1
 548              		.loc 1 1987 0
 549 0006 4078     		ldrb	r0, [r0, #1]	@ zero_extendqisi2
 550              	.LVL67:
 551 0008 04F13401 		add	r1, r4, #52
 552              	.LVL68:
 553 000c 0123     		movs	r3, #1
 554 000e FFF7FEFF 		bl	disk_read
 555              	.LVL69:
 556 0012 08B1     		cbz	r0, .L86
 557              		.loc 1 1988 0
 558 0014 0320     		movs	r0, #3
 559 0016 70BD     		pop	{r4, r5, r6, pc}
 560              	.LVL70:
 561              	.L86:
 562              		.loc 1 1989 0
 563 0018 94F83312 		ldrb	r1, [r4, #563]	@ zero_extendqisi2
 564 001c 94F83222 		ldrb	r2, [r4, #562]	@ zero_extendqisi2
 565 0020 174B     		ldr	r3, .L88
 566 0022 42EA0122 		orr	r2, r2, r1, lsl #8
ARM GAS  /tmp/ccICsm2b.s 			page 11


 567 0026 12B2     		sxth	r2, r2
 568 0028 9A42     		cmp	r2, r3
 569 002a 01D0     		beq	.L87
 570              		.loc 1 1990 0
 571 002c 0220     		movs	r0, #2
 572              	.L82:
 573              		.loc 1 1998 0
 574 002e 70BD     		pop	{r4, r5, r6, pc}
 575              	.LVL71:
 576              	.L87:
 577              		.loc 1 1992 0
 578 0030 94F86C20 		ldrb	r2, [r4, #108]	@ zero_extendqisi2
 579 0034 94F86D60 		ldrb	r6, [r4, #109]	@ zero_extendqisi2
 580 0038 94F86A50 		ldrb	r5, [r4, #106]	@ zero_extendqisi2
 581 003c 94F86B10 		ldrb	r1, [r4, #107]	@ zero_extendqisi2
 582 0040 104B     		ldr	r3, .L88+4
 583 0042 1204     		lsls	r2, r2, #16
 584 0044 42EA0662 		orr	r2, r2, r6, lsl #24
 585 0048 2A43     		orrs	r2, r2, r5
 586 004a 42EA0122 		orr	r2, r2, r1, lsl #8
 587 004e 22F07F42 		bic	r2, r2, #-16777216
 588 0052 9A42     		cmp	r2, r3
 589 0054 EBD0     		beq	.L82
 590              	.LVL72:
 591              	.LBB235:
 592              	.LBB236:
 593              		.loc 1 1994 0
 594 0056 94F88820 		ldrb	r2, [r4, #136]	@ zero_extendqisi2
 595 005a 94F88950 		ldrb	r5, [r4, #137]	@ zero_extendqisi2
 596 005e 94F88610 		ldrb	r1, [r4, #134]	@ zero_extendqisi2
 597 0062 94F88700 		ldrb	r0, [r4, #135]	@ zero_extendqisi2
 598 0066 1204     		lsls	r2, r2, #16
 599 0068 42EA0562 		orr	r2, r2, r5, lsl #24
 600 006c 0A43     		orrs	r2, r2, r1
 601 006e 42EA0020 		orr	r0, r2, r0, lsl #8
 602 0072 20F07F40 		bic	r0, r0, #-16777216
 603              		.loc 1 1995 0
 604 0076 C01A     		subs	r0, r0, r3
 605 0078 18BF     		it	ne
 606 007a 0120     		movne	r0, #1
 607 007c 70BD     		pop	{r4, r5, r6, pc}
 608              	.LVL73:
 609              	.L89:
 610 007e 00BF     		.align	2
 611              	.L88:
 612 0080 55AAFFFF 		.word	-21931
 613 0084 46415400 		.word	5521734
 614              	.LBE236:
 615              	.LBE235:
 616              		.cfi_endproc
 617              	.LFE34:
 618              		.size	check_fs, .-check_fs
 619 0088 AFF30080 		.section	.text.chk_mounted,"ax",%progbits
 619      AFF30080 
 620              		.align	2
 621              		.p2align 4,,15
 622              		.thumb
ARM GAS  /tmp/ccICsm2b.s 			page 12


 623              		.thumb_func
 624              		.type	chk_mounted, %function
 625              	chk_mounted:
 626              	.LFB35:
 627              		.loc 1 2013 0
 628              		.cfi_startproc
 629              		@ args = 0, pretend = 0, frame = 0
 630              		@ frame_needed = 0, uses_anonymous_args = 0
 631              	.LVL74:
 632 0000 2DE9F041 		push	{r4, r5, r6, r7, r8, lr}
 633              		.cfi_def_cfa_offset 24
 634              		.cfi_offset 4, -24
 635              		.cfi_offset 5, -20
 636              		.cfi_offset 6, -16
 637              		.cfi_offset 7, -12
 638              		.cfi_offset 8, -8
 639              		.cfi_offset 14, -4
 640              		.loc 1 2019 0
 641 0004 0368     		ldr	r3, [r0]
 642              	.LVL75:
 643              		.loc 1 2023 0
 644 0006 1C78     		ldrb	r4, [r3]	@ zero_extendqisi2
 645 0008 303C     		subs	r4, r4, #48
 646              	.LVL76:
 647              		.loc 1 2024 0
 648 000a 092C     		cmp	r4, #9
 649              		.loc 1 2013 0
 650 000c 1546     		mov	r5, r2
 651              		.loc 1 2024 0
 652 000e 02D8     		bhi	.L94
 653              		.loc 1 2024 0 is_stmt 0 discriminator 1
 654 0010 5A78     		ldrb	r2, [r3, #1]	@ zero_extendqisi2
 655              	.LVL77:
 656 0012 3A2A     		cmp	r2, #58
 657 0014 0DD0     		beq	.L143
 658              	.L94:
 659              	.LVL78:
 660              		.loc 1 2037 0 is_stmt 1
 661 0016 BB4B     		ldr	r3, .L151
 662              	.LVL79:
 663 0018 1C68     		ldr	r4, [r3]
 664              	.LVL80:
 665 001a 0C60     		str	r4, [r1]
 666              		.loc 1 2038 0
 667 001c 34B1     		cbz	r4, .L144
 668              	.LVL81:
 669              	.LBB237:
 670              	.LBB238:
 671              		.loc 1 582 0
 672 001e E068     		ldr	r0, [r4, #12]
 673              	.LVL82:
 674 0020 FFF7FEFF 		bl	ff_req_grant
 675              	.LVL83:
 676              	.LBE238:
 677              	.LBE237:
 678              		.loc 1 2040 0
 679 0024 60B9     		cbnz	r0, .L145
ARM GAS  /tmp/ccICsm2b.s 			page 13


 680 0026 0F20     		movs	r0, #15
 681 0028 BDE8F081 		pop	{r4, r5, r6, r7, r8, pc}
 682              	.LVL84:
 683              	.L144:
 684              		.loc 1 2038 0
 685 002c 0C20     		movs	r0, #12
 686              	.LVL85:
 687 002e BDE8F081 		pop	{r4, r5, r6, r7, r8, pc}
 688              	.LVL86:
 689              	.L143:
 690              		.loc 1 2025 0
 691 0032 0233     		adds	r3, r3, #2
 692              	.LVL87:
 693 0034 0360     		str	r3, [r0]
 694              		.loc 1 2035 0
 695 0036 002C     		cmp	r4, #0
 696 0038 EDD0     		beq	.L94
 697              		.loc 1 2036 0
 698 003a 0B20     		movs	r0, #11
 699              	.LVL88:
 700 003c BDE8F081 		pop	{r4, r5, r6, r7, r8, pc}
 701              	.LVL89:
 702              	.L145:
 703              		.loc 1 2042 0
 704 0040 2378     		ldrb	r3, [r4]	@ zero_extendqisi2
 705 0042 63B1     		cbz	r3, .L95
 706              		.loc 1 2043 0
 707 0044 6078     		ldrb	r0, [r4, #1]	@ zero_extendqisi2
 708 0046 FFF7FEFF 		bl	disk_status
 709              	.LVL90:
 710              		.loc 1 2044 0
 711 004a C707     		lsls	r7, r0, #31
 712 004c 07D4     		bmi	.L95
 713              		.loc 1 2045 0
 714 004e 25B3     		cbz	r5, .L114
 715              		.loc 1 2046 0 discriminator 1
 716 0050 10F0040F 		tst	r0, #4
 717 0054 0CBF     		ite	eq
 718 0056 0020     		moveq	r0, #0
 719 0058 0A20     		movne	r0, #10
 720              	.LVL91:
 721 005a BDE8F081 		pop	{r4, r5, r6, r7, r8, pc}
 722              	.LVL92:
 723              	.L95:
 724              		.loc 1 2054 0
 725 005e 0020     		movs	r0, #0
 726 0060 2070     		strb	r0, [r4]
 727              		.loc 1 2055 0
 728 0062 6070     		strb	r0, [r4, #1]
 729              		.loc 1 2056 0
 730 0064 FFF7FEFF 		bl	disk_initialize
 731              	.LVL93:
 732              		.loc 1 2057 0
 733 0068 C607     		lsls	r6, r0, #31
 734 006a 02D5     		bpl	.L146
 735              		.loc 1 2058 0
 736 006c 0320     		movs	r0, #3
ARM GAS  /tmp/ccICsm2b.s 			page 14


 737              	.LVL94:
 738 006e BDE8F081 		pop	{r4, r5, r6, r7, r8, pc}
 739              	.LVL95:
 740              	.L146:
 741              		.loc 1 2059 0
 742 0072 25B1     		cbz	r5, .L96
 743              		.loc 1 2059 0 is_stmt 0 discriminator 1
 744 0074 4507     		lsls	r5, r0, #29
 745 0076 02D5     		bpl	.L96
 746              		.loc 1 2060 0 is_stmt 1
 747 0078 0A20     		movs	r0, #10
 748              	.LVL96:
 749 007a BDE8F081 		pop	{r4, r5, r6, r7, r8, pc}
 750              	.LVL97:
 751              	.L96:
 752              		.loc 1 2066 0
 753 007e 2046     		mov	r0, r4
 754              	.LVL98:
 755 0080 0021     		movs	r1, #0
 756 0082 FFF7FEFF 		bl	check_fs
 757              	.LVL99:
 758              		.loc 1 2068 0
 759 0086 0128     		cmp	r0, #1
 760 0088 0AD0     		beq	.L147
 761              		.loc 1 2066 0
 762 008a 0025     		movs	r5, #0
 763              	.LVL100:
 764              	.L97:
 765              		.loc 1 2078 0
 766 008c 0328     		cmp	r0, #3
 767 008e 00F0B680 		beq	.L119
 768              		.loc 1 2079 0
 769 0092 E0B1     		cbz	r0, .L148
 770              	.LVL101:
 771              	.L99:
 772 0094 0D20     		movs	r0, #13
 773 0096 BDE8F081 		pop	{r4, r5, r6, r7, r8, pc}
 774              	.LVL102:
 775              	.L114:
 776              		.loc 1 2047 0
 777 009a 2846     		mov	r0, r5
 778              	.LVL103:
 779 009c BDE8F081 		pop	{r4, r5, r6, r7, r8, pc}
 780              	.LVL104:
 781              	.L147:
 782              		.loc 1 2073 0
 783 00a0 94F8F631 		ldrb	r3, [r4, #502]	@ zero_extendqisi2
 784 00a4 002B     		cmp	r3, #0
 785 00a6 F5D0     		beq	.L99
 786              		.loc 1 2074 0
 787 00a8 94F8FC21 		ldrb	r2, [r4, #508]	@ zero_extendqisi2
 788 00ac 94F8FD11 		ldrb	r1, [r4, #509]	@ zero_extendqisi2
 789 00b0 94F8FA31 		ldrb	r3, [r4, #506]	@ zero_extendqisi2
 790 00b4 94F8FB51 		ldrb	r5, [r4, #507]	@ zero_extendqisi2
 791 00b8 1204     		lsls	r2, r2, #16
 792 00ba 42EA0162 		orr	r2, r2, r1, lsl #24
 793 00be 1343     		orrs	r3, r3, r2
ARM GAS  /tmp/ccICsm2b.s 			page 15


 794 00c0 43EA0525 		orr	r5, r3, r5, lsl #8
 795              	.LVL105:
 796              		.loc 1 2075 0
 797 00c4 2946     		mov	r1, r5
 798 00c6 2046     		mov	r0, r4
 799              	.LVL106:
 800 00c8 FFF7FEFF 		bl	check_fs
 801              	.LVL107:
 802 00cc DEE7     		b	.L97
 803              	.LVL108:
 804              	.L148:
 805              		.loc 1 2083 0
 806 00ce 94F84020 		ldrb	r2, [r4, #64]	@ zero_extendqisi2
 807 00d2 94F83F30 		ldrb	r3, [r4, #63]	@ zero_extendqisi2
 808 00d6 43EA0223 		orr	r3, r3, r2, lsl #8
 809 00da B3F5007F 		cmp	r3, #512
 810 00de D9D1     		bne	.L99
 811              		.loc 1 2086 0
 812 00e0 94F84B10 		ldrb	r1, [r4, #75]	@ zero_extendqisi2
 813 00e4 94F84A30 		ldrb	r3, [r4, #74]	@ zero_extendqisi2
 814              	.LVL109:
 815              		.loc 1 2087 0
 816 00e8 53EA0121 		orrs	r1, r3, r1, lsl #8
 817              	.LVL110:
 818 00ec 0DD1     		bne	.L100
 819              		.loc 1 2087 0 is_stmt 0 discriminator 1
 820 00ee 94F85A20 		ldrb	r2, [r4, #90]	@ zero_extendqisi2
 821 00f2 94F85B00 		ldrb	r0, [r4, #91]	@ zero_extendqisi2
 822              	.LVL111:
 823 00f6 94F85830 		ldrb	r3, [r4, #88]	@ zero_extendqisi2
 824 00fa 94F85910 		ldrb	r1, [r4, #89]	@ zero_extendqisi2
 825              	.LVL112:
 826 00fe 1204     		lsls	r2, r2, #16
 827 0100 42EA0062 		orr	r2, r2, r0, lsl #24
 828 0104 1343     		orrs	r3, r3, r2
 829 0106 43EA0121 		orr	r1, r3, r1, lsl #8
 830              	.LVL113:
 831              	.L100:
 832              		.loc 1 2090 0 is_stmt 1
 833 010a 94F84420 		ldrb	r2, [r4, #68]	@ zero_extendqisi2
 834              	.LVL114:
 835              		.loc 1 2088 0
 836 010e 2162     		str	r1, [r4, #32]
 837              		.loc 1 2091 0
 838 0110 531E     		subs	r3, r2, #1
 839 0112 DBB2     		uxtb	r3, r3
 840 0114 012B     		cmp	r3, #1
 841              		.loc 1 2090 0
 842 0116 E270     		strb	r2, [r4, #3]
 843              		.loc 1 2091 0
 844 0118 BCD8     		bhi	.L99
 845              		.loc 1 2094 0
 846 011a 94F84130 		ldrb	r3, [r4, #65]	@ zero_extendqisi2
 847 011e A370     		strb	r3, [r4, #2]
 848              		.loc 1 2092 0
 849 0120 02FB01FC 		mul	ip, r2, r1
 850              	.LVL115:
ARM GAS  /tmp/ccICsm2b.s 			page 16


 851              		.loc 1 2095 0
 852 0124 002B     		cmp	r3, #0
 853 0126 B5D0     		beq	.L99
 854              		.loc 1 2095 0 is_stmt 0 discriminator 2
 855 0128 5A1E     		subs	r2, r3, #1
 856 012a 1A42     		tst	r2, r3
 857 012c B2D1     		bne	.L99
 858              		.loc 1 2097 0 is_stmt 1
 859 012e 94F84600 		ldrb	r0, [r4, #70]	@ zero_extendqisi2
 860 0132 94F84520 		ldrb	r2, [r4, #69]	@ zero_extendqisi2
 861 0136 42EA0022 		orr	r2, r2, r0, lsl #8
 862              		.loc 1 2098 0
 863 013a 1007     		lsls	r0, r2, #28
 864              		.loc 1 2097 0
 865 013c 2281     		strh	r2, [r4, #8]	@ movhi
 866              		.loc 1 2098 0
 867 013e A9D1     		bne	.L99
 868              		.loc 1 2100 0
 869 0140 94F84860 		ldrb	r6, [r4, #72]	@ zero_extendqisi2
 870 0144 94F84700 		ldrb	r0, [r4, #71]	@ zero_extendqisi2
 871              	.LVL116:
 872              		.loc 1 2101 0
 873 0148 50EA0626 		orrs	r6, r0, r6, lsl #8
 874              	.LVL117:
 875 014c 0DD1     		bne	.L101
 876              		.loc 1 2101 0 is_stmt 0 discriminator 1
 877 014e 94F85670 		ldrb	r7, [r4, #86]	@ zero_extendqisi2
 878 0152 94F85780 		ldrb	r8, [r4, #87]	@ zero_extendqisi2
 879 0156 94F85400 		ldrb	r0, [r4, #84]	@ zero_extendqisi2
 880 015a 94F85560 		ldrb	r6, [r4, #85]	@ zero_extendqisi2
 881              	.LVL118:
 882 015e 3F04     		lsls	r7, r7, #16
 883 0160 47EA0867 		orr	r7, r7, r8, lsl #24
 884 0164 3843     		orrs	r0, r0, r7
 885 0166 40EA0626 		orr	r6, r0, r6, lsl #8
 886              	.LVL119:
 887              	.L101:
 888              		.loc 1 2103 0 is_stmt 1
 889 016a 94F84370 		ldrb	r7, [r4, #67]	@ zero_extendqisi2
 890 016e 94F84200 		ldrb	r0, [r4, #66]	@ zero_extendqisi2
 891              	.LVL120:
 892              		.loc 1 2104 0
 893 0172 50EA0727 		orrs	r7, r0, r7, lsl #8
 894              	.LVL121:
 895 0176 8DD0     		beq	.L99
 896              		.loc 1 2107 0
 897 0178 07EB1210 		add	r0, r7, r2, lsr #4
 898              	.LVL122:
 899 017c 6044     		add	r0, r0, ip
 900              	.LVL123:
 901              		.loc 1 2108 0
 902 017e 8642     		cmp	r6, r0
 903 0180 88D3     		bcc	.L99
 904              		.loc 1 2109 0
 905 0182 361A     		subs	r6, r6, r0
 906              	.LVL124:
 907 0184 B6FBF3F3 		udiv	r3, r6, r3
ARM GAS  /tmp/ccICsm2b.s 			page 17


 908              	.LVL125:
 909              		.loc 1 2110 0
 910 0188 002B     		cmp	r3, #0
 911 018a 83D0     		beq	.L99
 912              	.LVL126:
 913              		.loc 1 2112 0
 914 018c 40F6F576 		movw	r6, #4085
 915 0190 B342     		cmp	r3, r6
 916 0192 40F2B480 		bls	.L120
 917              	.LVL127:
 918              		.loc 1 2113 0
 919 0196 4FF6F576 		movw	r6, #65525
 920 019a B342     		cmp	r3, r6
 921 019c 00F29480 		bhi	.L103
 922              		.loc 1 2112 0
 923 01a0 0226     		movs	r6, #2
 924              	.LVL128:
 925              	.L102:
 926              		.loc 1 2116 0
 927 01a2 0233     		adds	r3, r3, #2
 928              	.LVL129:
 929              		.loc 1 2117 0
 930 01a4 2844     		add	r0, r0, r5
 931              	.LVL130:
 932              		.loc 1 2118 0
 933 01a6 2F44     		add	r7, r7, r5
 934              	.LVL131:
 935              		.loc 1 2116 0
 936 01a8 E361     		str	r3, [r4, #28]
 937              		.loc 1 2117 0
 938 01aa E062     		str	r0, [r4, #44]
 939              		.loc 1 2118 0
 940 01ac 6762     		str	r7, [r4, #36]
 941              		.loc 1 2124 0
 942 01ae 002A     		cmp	r2, #0
 943 01b0 3FF470AF 		beq	.L99
 944              		.loc 1 2125 0
 945 01b4 6744     		add	r7, r7, ip
 946              		.loc 1 2127 0
 947 01b6 022E     		cmp	r6, #2
 948              		.loc 1 2125 0
 949 01b8 A762     		str	r7, [r4, #40]
 950              		.loc 1 2127 0
 951 01ba 00F08380 		beq	.L149
 952              		.loc 1 2127 0 is_stmt 0 discriminator 2
 953 01be 03EB4302 		add	r2, r3, r3, lsl #1
 954              	.LVL132:
 955 01c2 03F00103 		and	r3, r3, #1
 956              	.LVL133:
 957 01c6 03EB5203 		add	r3, r3, r2, lsr #1
 958 01ca 0126     		movs	r6, #1
 959              	.LVL134:
 960              	.L104:
 961              		.loc 1 2129 0 is_stmt 1
 962 01cc 03F2FF13 		addw	r3, r3, #511
 963              	.LVL135:
 964 01d0 B1EB532F 		cmp	r1, r3, lsr #9
ARM GAS  /tmp/ccICsm2b.s 			page 18


 965 01d4 FFF45EAF 		bcc	.L99
 966              		.loc 1 2134 0
 967 01d8 4FF0FF32 		mov	r2, #-1
 968              		.loc 1 2135 0
 969 01dc 0023     		movs	r3, #0
 970              	.LVL136:
 971              		.loc 1 2138 0
 972 01de 032E     		cmp	r6, #3
 973              		.loc 1 2134 0
 974 01e0 6261     		str	r2, [r4, #20]
 975              		.loc 1 2135 0
 976 01e2 2361     		str	r3, [r4, #16]
 977              		.loc 1 2138 0
 978 01e4 0ED0     		beq	.L150
 979              	.LVL137:
 980              	.L107:
 981              		.loc 1 2151 0
 982 01e6 484A     		ldr	r2, .L151+4
 983              		.loc 1 2150 0
 984 01e8 2670     		strb	r6, [r4]
 985              		.loc 1 2151 0
 986 01ea 1388     		ldrh	r3, [r2]
 987              		.loc 1 2152 0
 988 01ec 0020     		movs	r0, #0
 989              		.loc 1 2151 0
 990 01ee 0133     		adds	r3, r3, #1
 991 01f0 9BB2     		uxth	r3, r3
 992              		.loc 1 2153 0
 993 01f2 2071     		strb	r0, [r4, #4]
 994              		.loc 1 2151 0
 995 01f4 1380     		strh	r3, [r2]	@ movhi
 996 01f6 E380     		strh	r3, [r4, #6]	@ movhi
 997              		.loc 1 2152 0
 998 01f8 2063     		str	r0, [r4, #48]
 999              		.loc 1 2161 0
 1000 01fa BDE8F081 		pop	{r4, r5, r6, r7, r8, pc}
 1001              	.LVL138:
 1002              	.L119:
 1003              		.loc 1 2078 0
 1004 01fe 0120     		movs	r0, #1
 1005              	.LVL139:
 1006 0200 BDE8F081 		pop	{r4, r5, r6, r7, r8, pc}
 1007              	.LVL140:
 1008              	.L150:
 1009              		.loc 1 2140 0
 1010 0204 94F86510 		ldrb	r1, [r4, #101]	@ zero_extendqisi2
 1011 0208 94F86420 		ldrb	r2, [r4, #100]	@ zero_extendqisi2
 1012              		.loc 1 2139 0
 1013 020c 6371     		strb	r3, [r4, #5]
 1014              		.loc 1 2140 0
 1015 020e 42EA0122 		orr	r2, r2, r1, lsl #8
 1016 0212 2A44     		add	r2, r2, r5
 1017 0214 A261     		str	r2, [r4, #24]
 1018              		.loc 1 2141 0
 1019 0216 6078     		ldrb	r0, [r4, #1]	@ zero_extendqisi2
 1020 0218 04F13401 		add	r1, r4, #52
 1021 021c 0123     		movs	r3, #1
ARM GAS  /tmp/ccICsm2b.s 			page 19


 1022 021e FFF7FEFF 		bl	disk_read
 1023              	.LVL141:
 1024 0222 0028     		cmp	r0, #0
 1025 0224 DFD1     		bne	.L107
 1026              		.loc 1 2142 0 discriminator 1
 1027 0226 94F83312 		ldrb	r1, [r4, #563]	@ zero_extendqisi2
 1028 022a 94F83222 		ldrb	r2, [r4, #562]	@ zero_extendqisi2
 1029              		.loc 1 2141 0 discriminator 1
 1030 022e 374B     		ldr	r3, .L151+8
 1031              		.loc 1 2142 0 discriminator 1
 1032 0230 42EA0122 		orr	r2, r2, r1, lsl #8
 1033              		.loc 1 2141 0 discriminator 1
 1034 0234 12B2     		sxth	r2, r2
 1035 0236 9A42     		cmp	r2, r3
 1036 0238 D5D1     		bne	.L107
 1037              		.loc 1 2143 0
 1038 023a 94F83600 		ldrb	r0, [r4, #54]	@ zero_extendqisi2
 1039 023e 94F83750 		ldrb	r5, [r4, #55]	@ zero_extendqisi2
 1040              	.LVL142:
 1041 0242 94F83420 		ldrb	r2, [r4, #52]	@ zero_extendqisi2
 1042 0246 94F83510 		ldrb	r1, [r4, #53]	@ zero_extendqisi2
 1043              		.loc 1 2142 0
 1044 024a 314B     		ldr	r3, .L151+12
 1045              		.loc 1 2143 0
 1046 024c 0004     		lsls	r0, r0, #16
 1047 024e 40EA0560 		orr	r0, r0, r5, lsl #24
 1048 0252 0243     		orrs	r2, r2, r0
 1049 0254 42EA0122 		orr	r2, r2, r1, lsl #8
 1050              		.loc 1 2142 0
 1051 0258 9A42     		cmp	r2, r3
 1052 025a C4D1     		bne	.L107
 1053              		.loc 1 2144 0
 1054 025c 94F81A02 		ldrb	r0, [r4, #538]	@ zero_extendqisi2
 1055 0260 94F81B52 		ldrb	r5, [r4, #539]	@ zero_extendqisi2
 1056 0264 94F81822 		ldrb	r2, [r4, #536]	@ zero_extendqisi2
 1057 0268 94F81912 		ldrb	r1, [r4, #537]	@ zero_extendqisi2
 1058 026c 0004     		lsls	r0, r0, #16
 1059              		.loc 1 2143 0
 1060 026e 03F1FF53 		add	r3, r3, #534773760
 1061              		.loc 1 2144 0
 1062 0272 40EA0560 		orr	r0, r0, r5, lsl #24
 1063              		.loc 1 2143 0
 1064 0276 03F50053 		add	r3, r3, #8192
 1065              		.loc 1 2144 0
 1066 027a 0243     		orrs	r2, r2, r0
 1067              		.loc 1 2143 0
 1068 027c 2033     		adds	r3, r3, #32
 1069              		.loc 1 2144 0
 1070 027e 42EA0122 		orr	r2, r2, r1, lsl #8
 1071              		.loc 1 2143 0
 1072 0282 9A42     		cmp	r2, r3
 1073 0284 AFD1     		bne	.L107
 1074              		.loc 1 2145 0
 1075 0286 94F82272 		ldrb	r7, [r4, #546]	@ zero_extendqisi2
 1076              		.loc 1 2146 0
 1077 028a 94F81E52 		ldrb	r5, [r4, #542]	@ zero_extendqisi2
 1078              		.loc 1 2145 0
ARM GAS  /tmp/ccICsm2b.s 			page 20


 1079 028e 94F82382 		ldrb	r8, [r4, #547]	@ zero_extendqisi2
 1080              		.loc 1 2146 0
 1081 0292 94F81FC2 		ldrb	ip, [r4, #543]	@ zero_extendqisi2
 1082              		.loc 1 2145 0
 1083 0296 94F82022 		ldrb	r2, [r4, #544]	@ zero_extendqisi2
 1084              		.loc 1 2146 0
 1085 029a 94F81C32 		ldrb	r3, [r4, #540]	@ zero_extendqisi2
 1086              		.loc 1 2145 0
 1087 029e 94F82102 		ldrb	r0, [r4, #545]	@ zero_extendqisi2
 1088              		.loc 1 2146 0
 1089 02a2 94F81D12 		ldrb	r1, [r4, #541]	@ zero_extendqisi2
 1090              		.loc 1 2145 0
 1091 02a6 3F04     		lsls	r7, r7, #16
 1092              		.loc 1 2146 0
 1093 02a8 2D04     		lsls	r5, r5, #16
 1094              		.loc 1 2145 0
 1095 02aa 47EA0867 		orr	r7, r7, r8, lsl #24
 1096              		.loc 1 2146 0
 1097 02ae 45EA0C65 		orr	r5, r5, ip, lsl #24
 1098              		.loc 1 2145 0
 1099 02b2 3A43     		orrs	r2, r2, r7
 1100              		.loc 1 2146 0
 1101 02b4 2B43     		orrs	r3, r3, r5
 1102              		.loc 1 2145 0
 1103 02b6 42EA0022 		orr	r2, r2, r0, lsl #8
 1104              		.loc 1 2146 0
 1105 02ba 43EA0123 		orr	r3, r3, r1, lsl #8
 1106              		.loc 1 2145 0
 1107 02be 2261     		str	r2, [r4, #16]
 1108              		.loc 1 2146 0
 1109 02c0 6361     		str	r3, [r4, #20]
 1110 02c2 90E7     		b	.L107
 1111              	.LVL143:
 1112              	.L149:
 1113              		.loc 1 2127 0 discriminator 1
 1114 02c4 5B00     		lsls	r3, r3, #1
 1115              	.LVL144:
 1116 02c6 81E7     		b	.L104
 1117              	.LVL145:
 1118              	.L103:
 1119              		.loc 1 2116 0
 1120 02c8 0233     		adds	r3, r3, #2
 1121              	.LVL146:
 1122              		.loc 1 2117 0
 1123 02ca 2844     		add	r0, r0, r5
 1124              	.LVL147:
 1125              		.loc 1 2118 0
 1126 02cc 2F44     		add	r7, r7, r5
 1127              	.LVL148:
 1128              		.loc 1 2116 0
 1129 02ce E361     		str	r3, [r4, #28]
 1130              		.loc 1 2117 0
 1131 02d0 E062     		str	r0, [r4, #44]
 1132              		.loc 1 2118 0
 1133 02d2 6762     		str	r7, [r4, #36]
 1134              		.loc 1 2120 0
 1135 02d4 002A     		cmp	r2, #0
ARM GAS  /tmp/ccICsm2b.s 			page 21


 1136 02d6 7FF4DDAE 		bne	.L99
 1137              		.loc 1 2121 0
 1138 02da 94F86260 		ldrb	r6, [r4, #98]	@ zero_extendqisi2
 1139 02de 94F86370 		ldrb	r7, [r4, #99]	@ zero_extendqisi2
 1140 02e2 94F86020 		ldrb	r2, [r4, #96]	@ zero_extendqisi2
 1141              	.LVL149:
 1142 02e6 94F86100 		ldrb	r0, [r4, #97]	@ zero_extendqisi2
 1143 02ea 3604     		lsls	r6, r6, #16
 1144 02ec 46EA0766 		orr	r6, r6, r7, lsl #24
 1145 02f0 3243     		orrs	r2, r2, r6
 1146 02f2 42EA0022 		orr	r2, r2, r0, lsl #8
 1147              		.loc 1 2122 0
 1148 02f6 9B00     		lsls	r3, r3, #2
 1149              	.LVL150:
 1150              		.loc 1 2121 0
 1151 02f8 A262     		str	r2, [r4, #40]
 1152              		.loc 1 2113 0
 1153 02fa 0326     		movs	r6, #3
 1154 02fc 66E7     		b	.L104
 1155              	.LVL151:
 1156              	.L120:
 1157              		.loc 1 2111 0
 1158 02fe 0126     		movs	r6, #1
 1159 0300 4FE7     		b	.L102
 1160              	.L152:
 1161 0302 00BF     		.align	2
 1162              	.L151:
 1163 0304 00000000 		.word	.LANCHOR0
 1164 0308 00000000 		.word	.LANCHOR1
 1165 030c 55AAFFFF 		.word	-21931
 1166 0310 52526141 		.word	1096897106
 1167              		.cfi_endproc
 1168              	.LFE35:
 1169              		.size	chk_mounted, .-chk_mounted
 1170 0314 AFF30080 		.section	.text.validate,"ax",%progbits
 1170      AFF30080 
 1170      AFF30080 
 1171              		.align	2
 1172              		.p2align 4,,15
 1173              		.thumb
 1174              		.thumb_func
 1175              		.type	validate, %function
 1176              	validate:
 1177              	.LFB36:
 1178              		.loc 1 2176 0
 1179              		.cfi_startproc
 1180              		@ args = 0, pretend = 0, frame = 0
 1181              		@ frame_needed = 0, uses_anonymous_args = 0
 1182              	.LVL152:
 1183 0000 10B5     		push	{r4, lr}
 1184              		.cfi_def_cfa_offset 8
 1185              		.cfi_offset 4, -8
 1186              		.cfi_offset 14, -4
 1187              		.loc 1 2177 0
 1188 0002 0446     		mov	r4, r0
 1189 0004 08B1     		cbz	r0, .L158
 1190              		.loc 1 2177 0 is_stmt 0 discriminator 1
ARM GAS  /tmp/ccICsm2b.s 			page 22


 1191 0006 0378     		ldrb	r3, [r0]	@ zero_extendqisi2
 1192 0008 0BB9     		cbnz	r3, .L161
 1193              	.L158:
 1194              		.loc 1 2178 0 is_stmt 1
 1195 000a 0920     		movs	r0, #9
 1196              	.LVL153:
 1197 000c 10BD     		pop	{r4, pc}
 1198              	.LVL154:
 1199              	.L161:
 1200              		.loc 1 2177 0 discriminator 1
 1201 000e C388     		ldrh	r3, [r0, #6]
 1202 0010 8B42     		cmp	r3, r1
 1203 0012 FAD1     		bne	.L158
 1204              	.LVL155:
 1205              	.LBB245:
 1206              	.LBB246:
 1207              		.loc 1 582 0
 1208 0014 C068     		ldr	r0, [r0, #12]
 1209              	.LVL156:
 1210 0016 FFF7FEFF 		bl	ff_req_grant
 1211              	.LVL157:
 1212              	.LBE246:
 1213              	.LBE245:
 1214              		.loc 1 2180 0
 1215 001a 08B9     		cbnz	r0, .L162
 1216 001c 0F20     		movs	r0, #15
 1217              		.loc 1 2186 0
 1218 001e 10BD     		pop	{r4, pc}
 1219              	.LVL158:
 1220              	.L162:
 1221              	.LBB247:
 1222              	.LBB248:
 1223              		.loc 1 2182 0
 1224 0020 6078     		ldrb	r0, [r4, #1]	@ zero_extendqisi2
 1225 0022 FFF7FEFF 		bl	disk_status
 1226              	.LVL159:
 1227 0026 10F0010F 		tst	r0, #1
 1228              		.loc 1 2183 0
 1229 002a 0CBF     		ite	eq
 1230 002c 0020     		moveq	r0, #0
 1231 002e 0320     		movne	r0, #3
 1232 0030 10BD     		pop	{r4, pc}
 1233              	.LBE248:
 1234              	.LBE247:
 1235              		.cfi_endproc
 1236              	.LFE36:
 1237              		.size	validate, .-validate
 1238 0032 00BFAFF3 		.section	.text.unlock_fs.isra.4.part.5,"ax",%progbits
 1238      0080AFF3 
 1238      0080AFF3 
 1238      0080
 1239              		.align	2
 1240              		.p2align 4,,15
 1241              		.thumb
 1242              		.thumb_func
 1243              		.type	unlock_fs.isra.4.part.5, %function
 1244              	unlock_fs.isra.4.part.5:
ARM GAS  /tmp/ccICsm2b.s 			page 23


 1245              	.LFB59:
 1246              		.loc 1 587 0
 1247              		.cfi_startproc
 1248              		@ args = 0, pretend = 0, frame = 0
 1249              		@ frame_needed = 0, uses_anonymous_args = 0
 1250              		@ link register save eliminated.
 1251              	.LVL160:
 1252              		.loc 1 594 0
 1253 0000 0F29     		cmp	r1, #15
 1254 0002 02D0     		beq	.L163
 1255              		.loc 1 596 0
 1256 0004 0068     		ldr	r0, [r0]
 1257 0006 FFF7FEBF 		b	ff_rel_grant
 1258              	.LVL161:
 1259              	.L163:
 1260 000a 7047     		bx	lr
 1261              		.cfi_endproc
 1262              	.LFE59:
 1263              		.size	unlock_fs.isra.4.part.5, .-unlock_fs.isra.4.part.5
 1264 000c AFF30080 		.section	.text.get_fat.part.6,"ax",%progbits
 1265              		.align	2
 1266              		.p2align 4,,15
 1267              		.thumb
 1268              		.thumb_func
 1269              		.type	get_fat.part.6, %function
 1270              	get_fat.part.6:
 1271              	.LFB60:
 1272              		.loc 1 819 0
 1273              		.cfi_startproc
 1274              		@ args = 0, pretend = 0, frame = 0
 1275              		@ frame_needed = 0, uses_anonymous_args = 0
 1276              	.LVL162:
 1277 0000 F8B5     		push	{r3, r4, r5, r6, r7, lr}
 1278              		.cfi_def_cfa_offset 24
 1279              		.cfi_offset 3, -24
 1280              		.cfi_offset 4, -20
 1281              		.cfi_offset 5, -16
 1282              		.cfi_offset 6, -12
 1283              		.cfi_offset 7, -8
 1284              		.cfi_offset 14, -4
 1285              		.loc 1 831 0
 1286 0002 0378     		ldrb	r3, [r0]	@ zero_extendqisi2
 1287 0004 022B     		cmp	r3, #2
 1288              		.loc 1 819 0
 1289 0006 0446     		mov	r4, r0
 1290 0008 0D46     		mov	r5, r1
 1291              		.loc 1 831 0
 1292 000a 46D0     		beq	.L167
 1293 000c 032B     		cmp	r3, #3
 1294 000e 28D0     		beq	.L168
 1295 0010 012B     		cmp	r3, #1
 1296 0012 02D0     		beq	.L175
 1297              	.LVL163:
 1298              	.L174:
 1299              		.loc 1 851 0
 1300 0014 4FF0FF30 		mov	r0, #-1
 1301              		.loc 1 852 0
ARM GAS  /tmp/ccICsm2b.s 			page 24


 1302 0018 F8BD     		pop	{r3, r4, r5, r6, r7, pc}
 1303              	.LVL164:
 1304              	.L175:
 1305              		.loc 1 834 0
 1306 001a 416A     		ldr	r1, [r0, #36]
 1307              	.LVL165:
 1308              		.loc 1 833 0
 1309 001c 05EB5506 		add	r6, r5, r5, lsr #1
 1310              	.LVL166:
 1311              		.loc 1 834 0
 1312 0020 01EB5621 		add	r1, r1, r6, lsr #9
 1313 0024 FFF7FEFF 		bl	move_window
 1314              	.LVL167:
 1315 0028 0028     		cmp	r0, #0
 1316 002a F3D1     		bne	.L174
 1317              		.loc 1 835 0
 1318 002c C6F30803 		ubfx	r3, r6, #0, #9
 1319              		.loc 1 836 0
 1320 0030 616A     		ldr	r1, [r4, #36]
 1321              		.loc 1 835 0
 1322 0032 2344     		add	r3, r3, r4
 1323 0034 0136     		adds	r6, r6, #1
 1324              	.LVL168:
 1325              		.loc 1 836 0
 1326 0036 01EB5621 		add	r1, r1, r6, lsr #9
 1327 003a 2046     		mov	r0, r4
 1328              		.loc 1 835 0
 1329 003c 93F83470 		ldrb	r7, [r3, #52]	@ zero_extendqisi2
 1330              	.LVL169:
 1331              		.loc 1 836 0
 1332 0040 FFF7FEFF 		bl	move_window
 1333              	.LVL170:
 1334 0044 0028     		cmp	r0, #0
 1335 0046 E5D1     		bne	.L174
 1336              		.loc 1 837 0
 1337 0048 C6F30806 		ubfx	r6, r6, #0, #9
 1338              	.LVL171:
 1339 004c 3444     		add	r4, r4, r6
 1340              	.LVL172:
 1341 004e 94F83430 		ldrb	r3, [r4, #52]	@ zero_extendqisi2
 1342 0052 47EA0320 		orr	r0, r7, r3, lsl #8
 1343              	.LVL173:
 1344              		.loc 1 838 0
 1345 0056 EB07     		lsls	r3, r5, #31
 1346 0058 4CBF     		ite	mi
 1347 005a 0009     		lsrmi	r0, r0, #4
 1348              	.LVL174:
 1349 005c C0F30B00 		ubfxpl	r0, r0, #0, #12
 1350 0060 F8BD     		pop	{r3, r4, r5, r6, r7, pc}
 1351              	.LVL175:
 1352              	.L168:
 1353              		.loc 1 846 0
 1354 0062 416A     		ldr	r1, [r0, #36]
 1355              	.LVL176:
 1356 0064 01EBD511 		add	r1, r1, r5, lsr #7
 1357 0068 FFF7FEFF 		bl	move_window
 1358              	.LVL177:
ARM GAS  /tmp/ccICsm2b.s 			page 25


 1359 006c 0028     		cmp	r0, #0
 1360 006e D1D1     		bne	.L174
 1361              		.loc 1 847 0
 1362 0070 AD00     		lsls	r5, r5, #2
 1363              	.LVL178:
 1364 0072 05F4FE75 		and	r5, r5, #508
 1365 0076 6319     		adds	r3, r4, r5
 1366              	.LVL179:
 1367              		.loc 1 848 0
 1368 0078 93F83700 		ldrb	r0, [r3, #55]	@ zero_extendqisi2
 1369 007c 93F83610 		ldrb	r1, [r3, #54]	@ zero_extendqisi2
 1370 0080 93F83520 		ldrb	r2, [r3, #53]	@ zero_extendqisi2
 1371 0084 93F83430 		ldrb	r3, [r3, #52]	@ zero_extendqisi2
 1372              	.LVL180:
 1373 0088 0006     		lsls	r0, r0, #24
 1374 008a 40EA0140 		orr	r0, r0, r1, lsl #16
 1375 008e 40EA0220 		orr	r0, r0, r2, lsl #8
 1376 0092 1843     		orrs	r0, r0, r3
 1377 0094 20F07040 		bic	r0, r0, #-268435456
 1378 0098 F8BD     		pop	{r3, r4, r5, r6, r7, pc}
 1379              	.LVL181:
 1380              	.L167:
 1381              		.loc 1 841 0
 1382 009a 416A     		ldr	r1, [r0, #36]
 1383              	.LVL182:
 1384 009c 01EB1521 		add	r1, r1, r5, lsr #8
 1385 00a0 FFF7FEFF 		bl	move_window
 1386              	.LVL183:
 1387 00a4 0028     		cmp	r0, #0
 1388 00a6 B5D1     		bne	.L174
 1389              		.loc 1 842 0
 1390 00a8 6D00     		lsls	r5, r5, #1
 1391              	.LVL184:
 1392 00aa 05F4FF75 		and	r5, r5, #510
 1393              	.LVL185:
 1394              		.loc 1 843 0
 1395 00ae 6319     		adds	r3, r4, r5
 1396 00b0 1C46     		mov	r4, r3
 1397              	.LVL186:
 1398 00b2 93F83430 		ldrb	r3, [r3, #52]	@ zero_extendqisi2
 1399 00b6 94F83500 		ldrb	r0, [r4, #53]	@ zero_extendqisi2
 1400 00ba 43EA0020 		orr	r0, r3, r0, lsl #8
 1401 00be F8BD     		pop	{r3, r4, r5, r6, r7, pc}
 1402              		.cfi_endproc
 1403              	.LFE60:
 1404              		.size	get_fat.part.6, .-get_fat.part.6
 1405              		.section	.text.dir_sdi,"ax",%progbits
 1406              		.align	2
 1407              		.p2align 4,,15
 1408              		.thumb
 1409              		.thumb_func
 1410              		.type	dir_sdi, %function
 1411              	dir_sdi:
 1412              	.LFB20:
 1413              		.loc 1 1069 0
 1414              		.cfi_startproc
 1415              		@ args = 0, pretend = 0, frame = 0
ARM GAS  /tmp/ccICsm2b.s 			page 26


 1416              		@ frame_needed = 0, uses_anonymous_args = 0
 1417              	.LVL187:
 1418              		.loc 1 1075 0
 1419 0000 8368     		ldr	r3, [r0, #8]
 1420              	.LVL188:
 1421              		.loc 1 1069 0
 1422 0002 70B5     		push	{r4, r5, r6, lr}
 1423              		.cfi_def_cfa_offset 16
 1424              		.cfi_offset 4, -16
 1425              		.cfi_offset 5, -12
 1426              		.cfi_offset 6, -8
 1427              		.cfi_offset 14, -4
 1428              		.loc 1 1069 0
 1429 0004 0446     		mov	r4, r0
 1430              		.loc 1 1076 0
 1431 0006 012B     		cmp	r3, #1
 1432              		.loc 1 1069 0
 1433 0008 0D46     		mov	r5, r1
 1434              		.loc 1 1074 0
 1435 000a E180     		strh	r1, [r4, #6]	@ movhi
 1436              		.loc 1 1076 0
 1437 000c 03D0     		beq	.L188
 1438              		.loc 1 1076 0 is_stmt 0 discriminator 1
 1439 000e 0068     		ldr	r0, [r0]
 1440              	.LVL189:
 1441 0010 C269     		ldr	r2, [r0, #28]
 1442 0012 9342     		cmp	r3, r2
 1443 0014 01D3     		bcc	.L192
 1444              	.LVL190:
 1445              	.L188:
 1446              		.loc 1 1093 0 is_stmt 1
 1447 0016 0220     		movs	r0, #2
 1448 0018 70BD     		pop	{r4, r5, r6, pc}
 1449              	.LVL191:
 1450              	.L192:
 1451              		.loc 1 1078 0
 1452 001a B3B9     		cbnz	r3, .L180
 1453              		.loc 1 1078 0 is_stmt 0 discriminator 1
 1454 001c 0378     		ldrb	r3, [r0]	@ zero_extendqisi2
 1455              	.LVL192:
 1456 001e 032B     		cmp	r3, #3
 1457 0020 10D0     		beq	.L193
 1458              	.LVL193:
 1459              	.L181:
 1460              		.loc 1 1083 0 is_stmt 1
 1461 0022 0389     		ldrh	r3, [r0, #8]
 1462              		.loc 1 1082 0
 1463 0024 0022     		movs	r2, #0
 1464              		.loc 1 1083 0
 1465 0026 AB42     		cmp	r3, r5
 1466              		.loc 1 1082 0
 1467 0028 E260     		str	r2, [r4, #12]
 1468              		.loc 1 1083 0
 1469 002a F4D9     		bls	.L188
 1470              		.loc 1 1085 0
 1471 002c 836A     		ldr	r3, [r0, #40]
 1472 002e 03EB1513 		add	r3, r3, r5, lsr #4
ARM GAS  /tmp/ccICsm2b.s 			page 27


 1473 0032 2361     		str	r3, [r4, #16]
 1474              	.LVL194:
 1475              	.L182:
 1476              		.loc 1 1100 0
 1477 0034 05F00F05 		and	r5, r5, #15
 1478              	.LVL195:
 1479 0038 00EB4510 		add	r0, r0, r5, lsl #5
 1480 003c 3430     		adds	r0, r0, #52
 1481 003e 6061     		str	r0, [r4, #20]
 1482              		.loc 1 1102 0
 1483 0040 0020     		movs	r0, #0
 1484 0042 70BD     		pop	{r4, r5, r6, pc}
 1485              	.LVL196:
 1486              	.L193:
 1487              		.loc 1 1079 0
 1488 0044 836A     		ldr	r3, [r0, #40]
 1489              	.LVL197:
 1490              		.loc 1 1081 0
 1491 0046 002B     		cmp	r3, #0
 1492 0048 EBD0     		beq	.L181
 1493              	.L180:
 1494              		.loc 1 1088 0
 1495 004a 8678     		ldrb	r6, [r0, #2]	@ zero_extendqisi2
 1496 004c 3601     		lsls	r6, r6, #4
 1497              	.LVL198:
 1498              		.loc 1 1089 0
 1499 004e B542     		cmp	r5, r6
 1500 0050 19D3     		bcc	.L183
 1501              	.LVL199:
 1502              	.LBB249:
 1503              	.LBB250:
 1504              		.loc 1 828 0
 1505 0052 012B     		cmp	r3, #1
 1506 0054 DFD9     		bls	.L188
 1507 0056 AD1B     		subs	r5, r5, r6
 1508 0058 9A42     		cmp	r2, r3
 1509 005a ADB2     		uxth	r5, r5
 1510              	.LVL200:
 1511 005c DBD9     		bls	.L188
 1512 005e 08E0     		b	.L186
 1513              	.LVL201:
 1514              	.L194:
 1515              	.LBE250:
 1516              	.LBE249:
 1517              		.loc 1 1092 0
 1518 0060 0128     		cmp	r0, #1
 1519 0062 D8D9     		bls	.L188
 1520              		.loc 1 1092 0 is_stmt 0 discriminator 1
 1521 0064 2068     		ldr	r0, [r4]
 1522              	.LVL202:
 1523 0066 C269     		ldr	r2, [r0, #28]
 1524 0068 9A42     		cmp	r2, r3
 1525 006a D4D9     		bls	.L188
 1526              		.loc 1 1089 0 is_stmt 1
 1527 006c AE42     		cmp	r6, r5
 1528 006e 0AD8     		bhi	.L183
 1529 0070 0D46     		mov	r5, r1
ARM GAS  /tmp/ccICsm2b.s 			page 28


 1530              	.L186:
 1531              	.LBB253:
 1532              	.LBB251:
 1533 0072 1946     		mov	r1, r3
 1534 0074 FFF7FEFF 		bl	get_fat.part.6
 1535              	.LVL203:
 1536 0078 A91B     		subs	r1, r5, r6
 1537              	.LBE251:
 1538              	.LBE253:
 1539              		.loc 1 1091 0
 1540 007a 421C     		adds	r2, r0, #1
 1541              	.LBB254:
 1542              	.LBB252:
 1543 007c 0346     		mov	r3, r0
 1544              	.LVL204:
 1545 007e 89B2     		uxth	r1, r1
 1546              	.LBE252:
 1547              	.LBE254:
 1548 0080 EED1     		bne	.L194
 1549 0082 0120     		movs	r0, #1
 1550              	.LVL205:
 1551 0084 70BD     		pop	{r4, r5, r6, pc}
 1552              	.LVL206:
 1553              	.L183:
 1554              	.LBB255:
 1555              	.LBB256:
 1556              		.loc 1 806 0
 1557 0086 991E     		subs	r1, r3, #2
 1558              		.loc 1 807 0
 1559 0088 023A     		subs	r2, r2, #2
 1560 008a 9142     		cmp	r1, r2
 1561              	.LBE256:
 1562              	.LBE255:
 1563              		.loc 1 1096 0
 1564 008c E360     		str	r3, [r4, #12]
 1565              	.LVL207:
 1566              	.LBB258:
 1567              	.LBB257:
 1568              		.loc 1 808 0
 1569 008e 3BBF     		ittet	cc
 1570 0090 8278     		ldrbcc	r2, [r0, #2]	@ zero_extendqisi2
 1571 0092 C36A     		ldrcc	r3, [r0, #44]
 1572              	.LVL208:
 1573              		.loc 1 807 0
 1574 0094 0021     		movcs	r1, #0
 1575              	.LVL209:
 1576              		.loc 1 808 0
 1577 0096 02FB0131 		mlacc	r1, r2, r1, r3
 1578              	.LBE257:
 1579              	.LBE258:
 1580              		.loc 1 1097 0
 1581 009a 01EB1511 		add	r1, r1, r5, lsr #4
 1582 009e 2161     		str	r1, [r4, #16]
 1583 00a0 C8E7     		b	.L182
 1584              		.cfi_endproc
 1585              	.LFE20:
 1586              		.size	dir_sdi, .-dir_sdi
ARM GAS  /tmp/ccICsm2b.s 			page 29


 1587 00a2 00BFAFF3 		.section	.text.put_fat.part.7,"ax",%progbits
 1587      0080AFF3 
 1587      0080AFF3 
 1587      0080
 1588              		.align	2
 1589              		.p2align 4,,15
 1590              		.thumb
 1591              		.thumb_func
 1592              		.type	put_fat.part.7, %function
 1593              	put_fat.part.7:
 1594              	.LFB61:
 1595              		.loc 1 862 0
 1596              		.cfi_startproc
 1597              		@ args = 0, pretend = 0, frame = 0
 1598              		@ frame_needed = 0, uses_anonymous_args = 0
 1599              	.LVL210:
 1600 0000 F8B5     		push	{r3, r4, r5, r6, r7, lr}
 1601              		.cfi_def_cfa_offset 24
 1602              		.cfi_offset 3, -24
 1603              		.cfi_offset 4, -20
 1604              		.cfi_offset 5, -16
 1605              		.cfi_offset 6, -12
 1606              		.cfi_offset 7, -8
 1607              		.cfi_offset 14, -4
 1608              		.loc 1 877 0
 1609 0002 0378     		ldrb	r3, [r0]	@ zero_extendqisi2
 1610 0004 022B     		cmp	r3, #2
 1611              		.loc 1 862 0
 1612 0006 0446     		mov	r4, r0
 1613 0008 0D46     		mov	r5, r1
 1614 000a 1646     		mov	r6, r2
 1615              		.loc 1 877 0
 1616 000c 5AD0     		beq	.L197
 1617 000e 032B     		cmp	r3, #3
 1618 0010 38D0     		beq	.L198
 1619 0012 012B     		cmp	r3, #1
 1620 0014 03D0     		beq	.L206
 1621              		.loc 1 908 0
 1622 0016 0220     		movs	r0, #2
 1623              	.LVL211:
 1624              	.L196:
 1625              		.loc 1 910 0
 1626 0018 0123     		movs	r3, #1
 1627 001a 2371     		strb	r3, [r4, #4]
 1628              		.loc 1 914 0
 1629 001c F8BD     		pop	{r3, r4, r5, r6, r7, pc}
 1630              	.LVL212:
 1631              	.L206:
 1632              		.loc 1 880 0
 1633 001e 416A     		ldr	r1, [r0, #36]
 1634              	.LVL213:
 1635              		.loc 1 879 0
 1636 0020 05EB5507 		add	r7, r5, r5, lsr #1
 1637              	.LVL214:
 1638              		.loc 1 880 0
 1639 0024 01EB5721 		add	r1, r1, r7, lsr #9
 1640 0028 FFF7FEFF 		bl	move_window
ARM GAS  /tmp/ccICsm2b.s 			page 30


 1641              	.LVL215:
 1642              		.loc 1 881 0
 1643 002c 0028     		cmp	r0, #0
 1644 002e F3D1     		bne	.L196
 1645              		.loc 1 882 0
 1646 0030 C7F30803 		ubfx	r3, r7, #0, #9
 1647              	.LVL216:
 1648              		.loc 1 883 0
 1649 0034 15F00105 		ands	r5, r5, #1
 1650              	.LVL217:
 1651 0038 2344     		add	r3, r3, r4
 1652              	.LVL218:
 1653 003a F2B2     		uxtb	r2, r6
 1654 003c 06D0     		beq	.L201
 1655 003e 93F83410 		ldrb	r1, [r3, #52]	@ zero_extendqisi2
 1656 0042 01F00F01 		and	r1, r1, #15
 1657 0046 41EA0212 		orr	r2, r1, r2, lsl #4
 1658 004a D2B2     		uxtb	r2, r2
 1659              	.L201:
 1660              		.loc 1 886 0
 1661 004c 616A     		ldr	r1, [r4, #36]
 1662              		.loc 1 883 0
 1663 004e 83F83420 		strb	r2, [r3, #52]
 1664              		.loc 1 884 0
 1665 0052 0137     		adds	r7, r7, #1
 1666              	.LVL219:
 1667              		.loc 1 885 0
 1668 0054 0123     		movs	r3, #1
 1669              		.loc 1 886 0
 1670 0056 01EB5721 		add	r1, r1, r7, lsr #9
 1671              		.loc 1 885 0
 1672 005a 2371     		strb	r3, [r4, #4]
 1673              		.loc 1 886 0
 1674 005c 2046     		mov	r0, r4
 1675              	.LVL220:
 1676 005e FFF7FEFF 		bl	move_window
 1677              	.LVL221:
 1678              		.loc 1 887 0
 1679 0062 0028     		cmp	r0, #0
 1680 0064 D8D1     		bne	.L196
 1681              		.loc 1 888 0
 1682 0066 C7F30807 		ubfx	r7, r7, #0, #9
 1683              	.LVL222:
 1684              		.loc 1 889 0
 1685 006a 002D     		cmp	r5, #0
 1686 006c 3ED1     		bne	.L207
 1687 006e 2744     		add	r7, r7, r4
 1688              	.LVL223:
 1689 0070 C6F30326 		ubfx	r6, r6, #8, #4
 1690              	.LVL224:
 1691 0074 97F83430 		ldrb	r3, [r7, #52]	@ zero_extendqisi2
 1692 0078 23F00F03 		bic	r3, r3, #15
 1693 007c 1E43     		orrs	r6, r6, r3
 1694              	.L203:
 1695 007e 87F83460 		strb	r6, [r7, #52]
 1696 0082 C9E7     		b	.L196
 1697              	.LVL225:
ARM GAS  /tmp/ccICsm2b.s 			page 31


 1698              	.L198:
 1699              		.loc 1 900 0
 1700 0084 416A     		ldr	r1, [r0, #36]
 1701              	.LVL226:
 1702 0086 01EBD511 		add	r1, r1, r5, lsr #7
 1703 008a FFF7FEFF 		bl	move_window
 1704              	.LVL227:
 1705              		.loc 1 901 0
 1706 008e 0028     		cmp	r0, #0
 1707 0090 C2D1     		bne	.L196
 1708              		.loc 1 902 0
 1709 0092 AD00     		lsls	r5, r5, #2
 1710              	.LVL228:
 1711 0094 05F4FE75 		and	r5, r5, #508
 1712 0098 6319     		adds	r3, r4, r5
 1713              	.LVL229:
 1714              		.loc 1 903 0
 1715 009a 93F83720 		ldrb	r2, [r3, #55]	@ zero_extendqisi2
 1716 009e 1206     		lsls	r2, r2, #24
 1717 00a0 02F07042 		and	r2, r2, #-268435456
 1718 00a4 1643     		orrs	r6, r6, r2
 1719              	.LVL230:
 1720              		.loc 1 904 0
 1721 00a6 C6F30727 		ubfx	r7, r6, #8, #8
 1722 00aa 310C     		lsrs	r1, r6, #16
 1723 00ac 320E     		lsrs	r2, r6, #24
 1724 00ae 83F83460 		strb	r6, [r3, #52]
 1725 00b2 83F83570 		strb	r7, [r3, #53]
 1726 00b6 83F83610 		strb	r1, [r3, #54]
 1727 00ba 83F83720 		strb	r2, [r3, #55]
 1728              		.loc 1 910 0
 1729 00be 0123     		movs	r3, #1
 1730              	.LVL231:
 1731 00c0 2371     		strb	r3, [r4, #4]
 1732              		.loc 1 914 0
 1733 00c2 F8BD     		pop	{r3, r4, r5, r6, r7, pc}
 1734              	.LVL232:
 1735              	.L197:
 1736              		.loc 1 893 0
 1737 00c4 416A     		ldr	r1, [r0, #36]
 1738              	.LVL233:
 1739 00c6 01EB1521 		add	r1, r1, r5, lsr #8
 1740 00ca FFF7FEFF 		bl	move_window
 1741              	.LVL234:
 1742              		.loc 1 894 0
 1743 00ce 0028     		cmp	r0, #0
 1744 00d0 A2D1     		bne	.L196
 1745              		.loc 1 895 0
 1746 00d2 6D00     		lsls	r5, r5, #1
 1747              	.LVL235:
 1748 00d4 05F4FF75 		and	r5, r5, #510
 1749              	.LVL236:
 1750              		.loc 1 896 0
 1751 00d8 6219     		adds	r2, r4, r5
 1752 00da C6F30723 		ubfx	r3, r6, #8, #8
 1753 00de 82F83530 		strb	r3, [r2, #53]
 1754              		.loc 1 910 0
ARM GAS  /tmp/ccICsm2b.s 			page 32


 1755 00e2 0123     		movs	r3, #1
 1756              		.loc 1 896 0
 1757 00e4 82F83460 		strb	r6, [r2, #52]
 1758              		.loc 1 910 0
 1759 00e8 2371     		strb	r3, [r4, #4]
 1760              		.loc 1 914 0
 1761 00ea F8BD     		pop	{r3, r4, r5, r6, r7, pc}
 1762              	.LVL237:
 1763              	.L207:
 1764              		.loc 1 889 0
 1765 00ec C6F30716 		ubfx	r6, r6, #4, #8
 1766              	.LVL238:
 1767 00f0 2744     		add	r7, r7, r4
 1768              	.LVL239:
 1769 00f2 C4E7     		b	.L203
 1770              		.cfi_endproc
 1771              	.LFE61:
 1772              		.size	put_fat.part.7, .-put_fat.part.7
 1773 00f4 AFF30080 		.section	.text.create_chain,"ax",%progbits
 1773      AFF30080 
 1773      AFF30080 
 1774              		.align	2
 1775              		.p2align 4,,15
 1776              		.thumb
 1777              		.thumb_func
 1778              		.type	create_chain, %function
 1779              	create_chain:
 1780              	.LFB19:
 1781              		.loc 1 982 0
 1782              		.cfi_startproc
 1783              		@ args = 0, pretend = 0, frame = 0
 1784              		@ frame_needed = 0, uses_anonymous_args = 0
 1785              	.LVL240:
 1786 0000 F8B5     		push	{r3, r4, r5, r6, r7, lr}
 1787              		.cfi_def_cfa_offset 24
 1788              		.cfi_offset 3, -24
 1789              		.cfi_offset 4, -20
 1790              		.cfi_offset 5, -16
 1791              		.cfi_offset 6, -12
 1792              		.cfi_offset 7, -8
 1793              		.cfi_offset 14, -4
 1794              		.loc 1 982 0
 1795 0002 0546     		mov	r5, r0
 1796              		.loc 1 987 0
 1797 0004 0F46     		mov	r7, r1
 1798 0006 F9B9     		cbnz	r1, .L209
 1799              		.loc 1 988 0
 1800 0008 0669     		ldr	r6, [r0, #16]
 1801              	.LVL241:
 1802 000a C369     		ldr	r3, [r0, #28]
 1803              		.loc 1 989 0
 1804 000c 56B3     		cbz	r6, .L241
 1805              		.loc 1 989 0 is_stmt 0 discriminator 2
 1806 000e 9E42     		cmp	r6, r3
 1807 0010 28BF     		it	cs
 1808 0012 0126     		movcs	r6, #1
 1809              	.LVL242:
ARM GAS  /tmp/ccICsm2b.s 			page 33


 1810              	.L211:
 1811              		.loc 1 989 0
 1812 0014 3446     		mov	r4, r6
 1813 0016 10E0     		b	.L221
 1814              	.LVL243:
 1815              	.L242:
 1816              		.loc 1 1003 0 is_stmt 1
 1817 0018 012E     		cmp	r6, #1
 1818 001a 25D9     		bls	.L220
 1819              	.LBB259:
 1820              	.LBB260:
 1821              		.loc 1 828 0
 1822 001c 022B     		cmp	r3, #2
 1823 001e 11D9     		bls	.L237
 1824              	.LBE260:
 1825              	.LBE259:
 1826              		.loc 1 1002 0
 1827 0020 0224     		movs	r4, #2
 1828              	.LVL244:
 1829              	.L217:
 1830              	.LBB263:
 1831              	.LBB261:
 1832 0022 2846     		mov	r0, r5
 1833 0024 2146     		mov	r1, r4
 1834 0026 FFF7FEFF 		bl	get_fat.part.6
 1835              	.LVL245:
 1836              	.LBE261:
 1837              	.LBE263:
 1838              		.loc 1 1006 0
 1839 002a 20B3     		cbz	r0, .L218
 1840              		.loc 1 1007 0
 1841 002c 411C     		adds	r1, r0, #1
 1842 002e 1FD0     		beq	.L228
 1843              		.loc 1 1007 0 is_stmt 0 discriminator 1
 1844 0030 0128     		cmp	r0, #1
 1845 0032 07D0     		beq	.L237
 1846              		.loc 1 1009 0 is_stmt 1
 1847 0034 A642     		cmp	r6, r4
 1848 0036 17D0     		beq	.L220
 1849 0038 EB69     		ldr	r3, [r5, #28]
 1850              	.LVL246:
 1851              	.L221:
 1852              		.loc 1 1000 0
 1853 003a 0134     		adds	r4, r4, #1
 1854              	.LVL247:
 1855              		.loc 1 1001 0
 1856 003c 9C42     		cmp	r4, r3
 1857 003e EBD2     		bcs	.L242
 1858              	.LBB264:
 1859              	.LBB262:
 1860              		.loc 1 828 0
 1861 0040 012C     		cmp	r4, #1
 1862 0042 EED8     		bhi	.L217
 1863              	.LVL248:
 1864              	.L237:
 1865              	.LBE262:
 1866              	.LBE264:
ARM GAS  /tmp/ccICsm2b.s 			page 34


 1867              		.loc 1 1023 0
 1868 0044 0120     		movs	r0, #1
 1869              	.L233:
 1870              		.loc 1 1027 0
 1871 0046 F8BD     		pop	{r3, r4, r5, r6, r7, pc}
 1872              	.LVL249:
 1873              	.L209:
 1874              	.LBB265:
 1875              	.LBB266:
 1876              		.loc 1 828 0
 1877 0048 0129     		cmp	r1, #1
 1878 004a FBD9     		bls	.L237
 1879 004c C369     		ldr	r3, [r0, #28]
 1880 004e 9942     		cmp	r1, r3
 1881 0050 F8D2     		bcs	.L237
 1882 0052 FFF7FEFF 		bl	get_fat.part.6
 1883              	.LVL250:
 1884              	.LBE266:
 1885              	.LBE265:
 1886              		.loc 1 993 0
 1887 0056 0128     		cmp	r0, #1
 1888 0058 F4D9     		bls	.L237
 1889              		.loc 1 994 0
 1890 005a EB69     		ldr	r3, [r5, #28]
 1891 005c 8342     		cmp	r3, r0
 1892 005e F2D8     		bhi	.L233
 1893 0060 3E46     		mov	r6, r7
 1894 0062 D7E7     		b	.L211
 1895              	.LVL251:
 1896              	.L241:
 1897              		.loc 1 989 0
 1898 0064 0126     		movs	r6, #1
 1899              	.LVL252:
 1900 0066 D5E7     		b	.L211
 1901              	.LVL253:
 1902              	.L220:
 1903              		.loc 1 1003 0
 1904 0068 0020     		movs	r0, #0
 1905 006a F8BD     		pop	{r3, r4, r5, r6, r7, pc}
 1906              	.LVL254:
 1907              	.L227:
 1908              		.loc 1 1023 0
 1909 006c 0128     		cmp	r0, #1
 1910 006e E9D1     		bne	.L237
 1911              	.LVL255:
 1912              	.L228:
 1913 0070 4FF0FF30 		mov	r0, #-1
 1914 0074 F8BD     		pop	{r3, r4, r5, r6, r7, pc}
 1915              	.LVL256:
 1916              	.L218:
 1917              	.LBB267:
 1918              	.LBB268:
 1919              		.loc 1 873 0
 1920 0076 EB69     		ldr	r3, [r5, #28]
 1921 0078 A342     		cmp	r3, r4
 1922 007a E3D9     		bls	.L237
 1923 007c 2846     		mov	r0, r5
ARM GAS  /tmp/ccICsm2b.s 			page 35


 1924 007e 2146     		mov	r1, r4
 1925 0080 6FF07042 		mvn	r2, #-268435456
 1926 0084 FFF7FEFF 		bl	put_fat.part.7
 1927              	.LVL257:
 1928              	.LBE268:
 1929              	.LBE267:
 1930              		.loc 1 1013 0
 1931 0088 0028     		cmp	r0, #0
 1932 008a EFD1     		bne	.L227
 1933              		.loc 1 1013 0 is_stmt 0 discriminator 1
 1934 008c 5FB1     		cbz	r7, .L226
 1935              	.LVL258:
 1936              	.LBB269:
 1937              	.LBB270:
 1938              		.loc 1 873 0 is_stmt 1
 1939 008e 012F     		cmp	r7, #1
 1940 0090 D8D9     		bls	.L237
 1941 0092 EB69     		ldr	r3, [r5, #28]
 1942 0094 9F42     		cmp	r7, r3
 1943 0096 D5D2     		bcs	.L237
 1944 0098 3946     		mov	r1, r7
 1945 009a 2846     		mov	r0, r5
 1946              	.LVL259:
 1947 009c 2246     		mov	r2, r4
 1948 009e FFF7FEFF 		bl	put_fat.part.7
 1949              	.LVL260:
 1950              	.LBE270:
 1951              	.LBE269:
 1952              		.loc 1 1016 0
 1953 00a2 0028     		cmp	r0, #0
 1954 00a4 E2D1     		bne	.L227
 1955              	.LVL261:
 1956              	.L226:
 1957              		.loc 1 1018 0
 1958 00a6 6B69     		ldr	r3, [r5, #20]
 1959              		.loc 1 1017 0
 1960 00a8 2C61     		str	r4, [r5, #16]
 1961              		.loc 1 1018 0
 1962 00aa 5A1C     		adds	r2, r3, #1
 1963 00ac 05D0     		beq	.L243
 1964              		.loc 1 1020 0
 1965 00ae 0122     		movs	r2, #1
 1966              		.loc 1 1019 0
 1967 00b0 013B     		subs	r3, r3, #1
 1968              		.loc 1 1020 0
 1969 00b2 6A71     		strb	r2, [r5, #5]
 1970              		.loc 1 1019 0
 1971 00b4 6B61     		str	r3, [r5, #20]
 1972              		.loc 1 1020 0
 1973 00b6 2046     		mov	r0, r4
 1974 00b8 F8BD     		pop	{r3, r4, r5, r6, r7, pc}
 1975              	.LVL262:
 1976              	.L243:
 1977 00ba 2046     		mov	r0, r4
 1978 00bc F8BD     		pop	{r3, r4, r5, r6, r7, pc}
 1979              		.cfi_endproc
 1980              	.LFE19:
ARM GAS  /tmp/ccICsm2b.s 			page 36


 1981              		.size	create_chain, .-create_chain
 1982 00be 00BF     		.section	.text.dir_next,"ax",%progbits
 1983              		.align	2
 1984              		.p2align 4,,15
 1985              		.thumb
 1986              		.thumb_func
 1987              		.type	dir_next, %function
 1988              	dir_next:
 1989              	.LFB21:
 1990              		.loc 1 1117 0
 1991              		.cfi_startproc
 1992              		@ args = 0, pretend = 0, frame = 0
 1993              		@ frame_needed = 0, uses_anonymous_args = 0
 1994              	.LVL263:
 1995 0000 2DE9F047 		push	{r4, r5, r6, r7, r8, r9, r10, lr}
 1996              		.cfi_def_cfa_offset 32
 1997              		.cfi_offset 4, -32
 1998              		.cfi_offset 5, -28
 1999              		.cfi_offset 6, -24
 2000              		.cfi_offset 7, -20
 2001              		.cfi_offset 8, -16
 2002              		.cfi_offset 9, -12
 2003              		.cfi_offset 10, -8
 2004              		.cfi_offset 14, -4
 2005              		.loc 1 1123 0
 2006 0004 C588     		ldrh	r5, [r0, #6]
 2007 0006 0135     		adds	r5, r5, #1
 2008 0008 ADB2     		uxth	r5, r5
 2009              		.loc 1 1117 0
 2010 000a 0446     		mov	r4, r0
 2011 000c 0E46     		mov	r6, r1
 2012              	.LVL264:
 2013              		.loc 1 1124 0
 2014 000e 15B9     		cbnz	r5, .L245
 2015              	.LVL265:
 2016              	.L247:
 2017              		.loc 1 1125 0
 2018 0010 0420     		movs	r0, #4
 2019 0012 BDE8F087 		pop	{r4, r5, r6, r7, r8, r9, r10, pc}
 2020              	.LVL266:
 2021              	.L245:
 2022              		.loc 1 1124 0 discriminator 1
 2023 0016 0369     		ldr	r3, [r0, #16]
 2024 0018 002B     		cmp	r3, #0
 2025 001a F9D0     		beq	.L247
 2026              		.loc 1 1127 0
 2027 001c 15F00F07 		ands	r7, r5, #15
 2028 0020 08D0     		beq	.L248
 2029 0022 0368     		ldr	r3, [r0]
 2030              	.LVL267:
 2031              	.L249:
 2032              		.loc 1 1168 0
 2033 0024 03EB4713 		add	r3, r3, r7, lsl #5
 2034 0028 3433     		adds	r3, r3, #52
 2035 002a 6361     		str	r3, [r4, #20]
 2036              		.loc 1 1167 0
 2037 002c E580     		strh	r5, [r4, #6]	@ movhi
ARM GAS  /tmp/ccICsm2b.s 			page 37


 2038              		.loc 1 1170 0
 2039 002e 0020     		movs	r0, #0
 2040 0030 BDE8F087 		pop	{r4, r5, r6, r7, r8, r9, r10, pc}
 2041              	.LVL268:
 2042              	.L248:
 2043              		.loc 1 1130 0
 2044 0034 C168     		ldr	r1, [r0, #12]
 2045              	.LVL269:
 2046              		.loc 1 1128 0
 2047 0036 0133     		adds	r3, r3, #1
 2048 0038 0361     		str	r3, [r0, #16]
 2049              		.loc 1 1131 0
 2050 003a 0368     		ldr	r3, [r0]
 2051              		.loc 1 1130 0
 2052 003c 61B1     		cbz	r1, .L280
 2053              		.loc 1 1135 0
 2054 003e 9A78     		ldrb	r2, [r3, #2]	@ zero_extendqisi2
 2055 0040 013A     		subs	r2, r2, #1
 2056 0042 12EA1512 		ands	r2, r2, r5, lsr #4
 2057 0046 EDD1     		bne	.L249
 2058              	.LVL270:
 2059              	.LBB271:
 2060              	.LBB272:
 2061              		.loc 1 828 0
 2062 0048 0129     		cmp	r1, #1
 2063 004a 02D9     		bls	.L252
 2064 004c DA69     		ldr	r2, [r3, #28]
 2065 004e 9142     		cmp	r1, r2
 2066 0050 06D3     		bcc	.L281
 2067              	.LVL271:
 2068              	.L252:
 2069              	.LBE272:
 2070              	.LBE271:
 2071              		.loc 1 1137 0
 2072 0052 0220     		movs	r0, #2
 2073 0054 BDE8F087 		pop	{r4, r5, r6, r7, r8, r9, r10, pc}
 2074              	.LVL272:
 2075              	.L280:
 2076              		.loc 1 1131 0
 2077 0058 1A89     		ldrh	r2, [r3, #8]
 2078 005a AA42     		cmp	r2, r5
 2079 005c D8D9     		bls	.L247
 2080 005e E1E7     		b	.L249
 2081              	.LVL273:
 2082              	.L281:
 2083              	.LBB275:
 2084              	.LBB273:
 2085 0060 1846     		mov	r0, r3
 2086              	.LVL274:
 2087 0062 FFF7FEFF 		bl	get_fat.part.6
 2088              	.LVL275:
 2089              	.LBE273:
 2090              	.LBE275:
 2091              		.loc 1 1137 0
 2092 0066 0128     		cmp	r0, #1
 2093              	.LBB276:
 2094              	.LBB274:
ARM GAS  /tmp/ccICsm2b.s 			page 38


 2095 0068 8046     		mov	r8, r0
 2096              	.LBE274:
 2097              	.LBE276:
 2098 006a F2D9     		bls	.L252
 2099              		.loc 1 1138 0
 2100 006c B0F1FF3F 		cmp	r0, #-1
 2101 0070 1BD0     		beq	.L255
 2102              		.loc 1 1139 0
 2103 0072 2368     		ldr	r3, [r4]
 2104 0074 DA69     		ldr	r2, [r3, #28]
 2105 0076 8242     		cmp	r2, r0
 2106 0078 0CD9     		bls	.L279
 2107 007a 861E     		subs	r6, r0, #2
 2108              	.LVL276:
 2109              	.L254:
 2110              	.LBB277:
 2111              	.LBB278:
 2112              		.loc 1 807 0
 2113 007c 023A     		subs	r2, r2, #2
 2114 007e 9642     		cmp	r6, r2
 2115              	.LBE278:
 2116              	.LBE277:
 2117              		.loc 1 1161 0
 2118 0080 C4F80C80 		str	r8, [r4, #12]
 2119              	.LVL277:
 2120              	.LBB280:
 2121              	.LBB279:
 2122              		.loc 1 808 0
 2123 0084 3BBF     		ittet	cc
 2124 0086 9978     		ldrbcc	r1, [r3, #2]	@ zero_extendqisi2
 2125 0088 DA6A     		ldrcc	r2, [r3, #44]
 2126              		.loc 1 807 0
 2127 008a 0026     		movcs	r6, #0
 2128              	.LVL278:
 2129              		.loc 1 808 0
 2130 008c 01FB0626 		mlacc	r6, r1, r6, r2
 2131              	.LBE279:
 2132              	.LBE280:
 2133              		.loc 1 1162 0
 2134 0090 2661     		str	r6, [r4, #16]
 2135 0092 C7E7     		b	.L249
 2136              	.LVL279:
 2137              	.L279:
 2138              	.LBB281:
 2139              		.loc 1 1142 0
 2140 0094 002E     		cmp	r6, #0
 2141 0096 BBD0     		beq	.L247
 2142              		.loc 1 1143 0
 2143 0098 1846     		mov	r0, r3
 2144 009a E168     		ldr	r1, [r4, #12]
 2145 009c FFF7FEFF 		bl	create_chain
 2146              	.LVL280:
 2147              		.loc 1 1144 0
 2148 00a0 8046     		mov	r8, r0
 2149 00a2 28B9     		cbnz	r0, .L282
 2150 00a4 0720     		movs	r0, #7
 2151              	.LVL281:
ARM GAS  /tmp/ccICsm2b.s 			page 39


 2152              	.LBE281:
 2153              		.loc 1 1171 0
 2154 00a6 BDE8F087 		pop	{r4, r5, r6, r7, r8, r9, r10, pc}
 2155              	.LVL282:
 2156              	.L255:
 2157              		.loc 1 1138 0
 2158 00aa 0120     		movs	r0, #1
 2159 00ac BDE8F087 		pop	{r4, r5, r6, r7, r8, r9, r10, pc}
 2160              	.LVL283:
 2161              	.L282:
 2162              	.LBB288:
 2163              		.loc 1 1145 0
 2164 00b0 0128     		cmp	r0, #1
 2165 00b2 CED0     		beq	.L252
 2166              		.loc 1 1146 0
 2167 00b4 B0F1FF3F 		cmp	r0, #-1
 2168 00b8 F7D0     		beq	.L255
 2169              		.loc 1 1148 0
 2170 00ba 2068     		ldr	r0, [r4]
 2171              	.LVL284:
 2172 00bc 0021     		movs	r1, #0
 2173 00be FFF7FEFF 		bl	move_window
 2174              	.LVL285:
 2175 00c2 0028     		cmp	r0, #0
 2176 00c4 F1D1     		bne	.L255
 2177              		.loc 1 1149 0
 2178 00c6 2268     		ldr	r2, [r4]
 2179              	.LBB282:
 2180              	.LBB283:
 2181              		.loc 1 550 0
 2182 00c8 0146     		mov	r1, r0
 2183              	.LBE283:
 2184              	.LBE282:
 2185              		.loc 1 1149 0
 2186 00ca 02F13403 		add	r3, r2, #52
 2187              	.LVL286:
 2188 00ce 02F50D72 		add	r2, r2, #564
 2189              	.LVL287:
 2190              	.L257:
 2191              	.LBB285:
 2192              	.LBB284:
 2193              		.loc 1 550 0
 2194 00d2 03F8011B 		strb	r1, [r3], #1
 2195              	.LVL288:
 2196              		.loc 1 549 0
 2197 00d6 9342     		cmp	r3, r2
 2198 00d8 FBD1     		bne	.L257
 2199              	.LBE284:
 2200              	.LBE285:
 2201              		.loc 1 1150 0
 2202 00da 2268     		ldr	r2, [r4]
 2203              	.LVL289:
 2204              	.LBB286:
 2205              	.LBB287:
 2206              		.loc 1 807 0
 2207 00dc D369     		ldr	r3, [r2, #28]
 2208              	.LVL290:
ARM GAS  /tmp/ccICsm2b.s 			page 40


 2209              		.loc 1 806 0
 2210 00de A8F10206 		sub	r6, r8, #2
 2211              	.LVL291:
 2212              		.loc 1 807 0
 2213 00e2 023B     		subs	r3, r3, #2
 2214 00e4 9E42     		cmp	r6, r3
 2215              		.loc 1 808 0
 2216 00e6 3BBF     		ittet	cc
 2217 00e8 D36A     		ldrcc	r3, [r2, #44]
 2218 00ea 9178     		ldrbcc	r1, [r2, #2]	@ zero_extendqisi2
 2219              		.loc 1 807 0
 2220 00ec 0023     		movcs	r3, #0
 2221              		.loc 1 808 0
 2222 00ee 01FB0633 		mlacc	r3, r1, r6, r3
 2223              	.LBE287:
 2224              	.LBE286:
 2225              		.loc 1 1150 0
 2226 00f2 1363     		str	r3, [r2, #48]
 2227              	.LVL292:
 2228              		.loc 1 1151 0
 2229 00f4 4FF00009 		mov	r9, #0
 2230              		.loc 1 1152 0
 2231 00f8 4FF0010A 		mov	r10, #1
 2232              		.loc 1 1151 0
 2233 00fc 0CE0     		b	.L259
 2234              	.LVL293:
 2235              	.L260:
 2236              		.loc 1 1152 0
 2237 00fe 82F804A0 		strb	r10, [r2, #4]
 2238              		.loc 1 1153 0
 2239 0102 2068     		ldr	r0, [r4]
 2240 0104 FFF7FEFF 		bl	move_window
 2241              	.LVL294:
 2242 0108 09F10109 		add	r9, r9, #1
 2243              	.LVL295:
 2244 010c 0028     		cmp	r0, #0
 2245 010e CCD1     		bne	.L255
 2246              		.loc 1 1154 0
 2247 0110 2268     		ldr	r2, [r4]
 2248 0112 136B     		ldr	r3, [r2, #48]
 2249 0114 0133     		adds	r3, r3, #1
 2250 0116 1363     		str	r3, [r2, #48]
 2251              	.LVL296:
 2252              	.L259:
 2253              		.loc 1 1151 0 discriminator 1
 2254 0118 92F802C0 		ldrb	ip, [r2, #2]	@ zero_extendqisi2
 2255 011c 5FFA89F0 		uxtb	r0, r9
 2256              	.LVL297:
 2257 0120 8445     		cmp	ip, r0
 2258              		.loc 1 1153 0 discriminator 1
 2259 0122 4FF00001 		mov	r1, #0
 2260              		.loc 1 1151 0 discriminator 1
 2261 0126 1346     		mov	r3, r2
 2262 0128 E9D8     		bhi	.L260
 2263              		.loc 1 1156 0
 2264 012a 116B     		ldr	r1, [r2, #48]
 2265 012c D269     		ldr	r2, [r2, #28]
ARM GAS  /tmp/ccICsm2b.s 			page 41


 2266 012e 091A     		subs	r1, r1, r0
 2267 0130 1963     		str	r1, [r3, #48]
 2268 0132 A3E7     		b	.L254
 2269              	.LBE288:
 2270              		.cfi_endproc
 2271              	.LFE21:
 2272              		.size	dir_next, .-dir_next
 2273 0134 AFF30080 		.section	.text.dir_read,"ax",%progbits
 2273      AFF30080 
 2273      AFF30080 
 2274              		.align	2
 2275              		.p2align 4,,15
 2276              		.thumb
 2277              		.thumb_func
 2278              		.type	dir_read, %function
 2279              	dir_read:
 2280              	.LFB28:
 2281              		.loc 1 1417 0
 2282              		.cfi_startproc
 2283              		@ args = 0, pretend = 0, frame = 0
 2284              		@ frame_needed = 0, uses_anonymous_args = 0
 2285              	.LVL298:
 2286 0000 2DE9F843 		push	{r3, r4, r5, r6, r7, r8, r9, lr}
 2287              		.cfi_def_cfa_offset 32
 2288              		.cfi_offset 3, -32
 2289              		.cfi_offset 4, -28
 2290              		.cfi_offset 5, -24
 2291              		.cfi_offset 6, -20
 2292              		.cfi_offset 7, -16
 2293              		.cfi_offset 8, -12
 2294              		.cfi_offset 9, -8
 2295              		.cfi_offset 14, -4
 2296              		.loc 1 1421 0
 2297 0004 FF26     		movs	r6, #255
 2298              		.loc 1 1417 0
 2299 0006 0446     		mov	r4, r0
 2300              		.loc 1 1421 0
 2301 0008 3546     		mov	r5, r6
 2302              		.loc 1 1424 0
 2303 000a 0420     		movs	r0, #4
 2304              	.LVL299:
 2305 000c 414F     		ldr	r7, .L326
 2306              		.loc 1 1425 0
 2307 000e 09E0     		b	.L284
 2308              	.LVL300:
 2309              	.L322:
 2310              		.loc 1 1433 0 discriminator 1
 2311 0010 BCF10F0F 		cmp	ip, #15
 2312 0014 1ED0     		beq	.L288
 2313              	.LVL301:
 2314              	.L310:
 2315              		.loc 1 1443 0
 2316 0016 FF25     		movs	r5, #255
 2317              	.LVL302:
 2318              	.L286:
 2319              		.loc 1 1454 0
 2320 0018 2046     		mov	r0, r4
ARM GAS  /tmp/ccICsm2b.s 			page 42


 2321 001a 0021     		movs	r1, #0
 2322 001c FFF7FEFF 		bl	dir_next
 2323              	.LVL303:
 2324              		.loc 1 1455 0
 2325 0020 0028     		cmp	r0, #0
 2326 0022 4DD1     		bne	.L304
 2327              	.LVL304:
 2328              	.L284:
 2329              		.loc 1 1425 0 discriminator 1
 2330 0024 2169     		ldr	r1, [r4, #16]
 2331 0026 0029     		cmp	r1, #0
 2332 0028 4ED0     		beq	.L321
 2333              		.loc 1 1426 0
 2334 002a 2068     		ldr	r0, [r4]
 2335 002c FFF7FEFF 		bl	move_window
 2336              	.LVL305:
 2337              		.loc 1 1427 0
 2338 0030 0028     		cmp	r0, #0
 2339 0032 45D1     		bne	.L304
 2340              		.loc 1 1428 0
 2341 0034 6269     		ldr	r2, [r4, #20]
 2342              	.LVL306:
 2343              		.loc 1 1429 0
 2344 0036 1378     		ldrb	r3, [r2]	@ zero_extendqisi2
 2345              	.LVL307:
 2346              		.loc 1 1430 0
 2347 0038 002B     		cmp	r3, #0
 2348 003a 40D0     		beq	.L305
 2349              		.loc 1 1433 0
 2350 003c E52B     		cmp	r3, #229
 2351              		.loc 1 1432 0
 2352 003e D17A     		ldrb	r1, [r2, #11]	@ zero_extendqisi2
 2353              	.LVL308:
 2354              		.loc 1 1433 0
 2355 0040 E9D0     		beq	.L310
 2356              		.loc 1 1433 0 is_stmt 0 discriminator 1
 2357 0042 2E2B     		cmp	r3, #46
 2358 0044 E7D0     		beq	.L310
 2359              		.loc 1 1432 0 is_stmt 1 discriminator 1
 2360 0046 01F03F0C 		and	ip, r1, #63
 2361              		.loc 1 1433 0 discriminator 1
 2362 004a 0907     		lsls	r1, r1, #28
 2363              	.LVL309:
 2364 004c E0D4     		bmi	.L322
 2365              		.loc 1 1436 0
 2366 004e BCF10F0F 		cmp	ip, #15
 2367 0052 49D1     		bne	.L289
 2368              	.L288:
 2369              		.loc 1 1437 0
 2370 0054 5906     		lsls	r1, r3, #25
 2371 0056 2FD5     		bpl	.L290
 2372              		.loc 1 1440 0
 2373 0058 E188     		ldrh	r1, [r4, #6]
 2374              		.loc 1 1438 0
 2375 005a 567B     		ldrb	r6, [r2, #13]	@ zero_extendqisi2
 2376              	.LVL310:
 2377              		.loc 1 1440 0
ARM GAS  /tmp/ccICsm2b.s 			page 43


 2378 005c 2184     		strh	r1, [r4, #32]	@ movhi
 2379              	.LVL311:
 2380              		.loc 1 1439 0
 2381 005e 03F0BF05 		and	r5, r3, #191
 2382              	.LVL312:
 2383              	.L291:
 2384              		.loc 1 1443 0 discriminator 1
 2385 0062 92F80DE0 		ldrb	lr, [r2, #13]	@ zero_extendqisi2
 2386 0066 B645     		cmp	lr, r6
 2387 0068 D5D1     		bne	.L310
 2388              	.LBB293:
 2389              	.LBB294:
 2390              		.loc 1 1225 0 discriminator 1
 2391 006a 1178     		ldrb	r1, [r2]	@ zero_extendqisi2
 2392              	.LBE294:
 2393              	.LBE293:
 2394              		.loc 1 1443 0 discriminator 1
 2395 006c D4F81C80 		ldr	r8, [r4, #28]
 2396              	.LVL313:
 2397 0070 294B     		ldr	r3, .L326+4
 2398              	.LBB297:
 2399              	.LBB295:
 2400              		.loc 1 1225 0 discriminator 1
 2401 0072 01F03F01 		and	r1, r1, #63
 2402 0076 0139     		subs	r1, r1, #1
 2403 0078 01EB4100 		add	r0, r1, r1, lsl #1
 2404              	.LVL314:
 2405 007c 01EB8000 		add	r0, r1, r0, lsl #2
 2406              	.LVL315:
 2407              		.loc 1 1227 0 discriminator 1
 2408 0080 4FF0010C 		mov	ip, #1
 2409              		.loc 1 1234 0 discriminator 1
 2410 0084 4FF6FF79 		movw	r9, #65535
 2411 0088 07E0     		b	.L296
 2412              	.LVL316:
 2413              	.L324:
 2414              		.loc 1 1231 0
 2415 008a FE28     		cmp	r0, #254
 2416 008c 11D8     		bhi	.L293
 2417              		.loc 1 1232 0
 2418 008e 28F81010 		strh	r1, [r8, r0, lsl #1]	@ movhi
 2419              		.loc 1 1229 0
 2420 0092 8C46     		mov	ip, r1
 2421              		.loc 1 1232 0
 2422 0094 0130     		adds	r0, r0, #1
 2423              	.LVL317:
 2424              	.L294:
 2425              		.loc 1 1236 0
 2426 0096 BB42     		cmp	r3, r7
 2427 0098 1AD0     		beq	.L323
 2428              	.LVL318:
 2429              	.L296:
 2430              		.loc 1 1229 0
 2431 009a 13F8011F 		ldrb	r1, [r3, #1]!	@ zero_extendqisi2
 2432              	.LVL319:
 2433 009e 5618     		adds	r6, r2, r1
 2434 00a0 515C     		ldrb	r1, [r2, r1]	@ zero_extendqisi2
ARM GAS  /tmp/ccICsm2b.s 			page 44


 2435 00a2 7678     		ldrb	r6, [r6, #1]	@ zero_extendqisi2
 2436 00a4 41EA0621 		orr	r1, r1, r6, lsl #8
 2437              	.LVL320:
 2438              		.loc 1 1230 0
 2439 00a8 BCF1000F 		cmp	ip, #0
 2440 00ac EDD1     		bne	.L324
 2441              		.loc 1 1234 0
 2442 00ae 4945     		cmp	r1, r9
 2443 00b0 F1D0     		beq	.L294
 2444              	.LVL321:
 2445              	.L293:
 2446              	.LBE295:
 2447              	.LBE297:
 2448              		.loc 1 1443 0
 2449 00b2 7646     		mov	r6, lr
 2450 00b4 FF25     		movs	r5, #255
 2451              	.LVL322:
 2452 00b6 AFE7     		b	.L286
 2453              	.LVL323:
 2454              	.L290:
 2455 00b8 9D42     		cmp	r5, r3
 2456 00ba ACD1     		bne	.L310
 2457 00bc D1E7     		b	.L291
 2458              	.LVL324:
 2459              	.L305:
 2460              		.loc 1 1430 0
 2461 00be 0420     		movs	r0, #4
 2462              	.LVL325:
 2463              	.L304:
 2464              		.loc 1 1458 0 discriminator 1
 2465 00c0 0023     		movs	r3, #0
 2466 00c2 2361     		str	r3, [r4, #16]
 2467 00c4 BDE8F883 		pop	{r3, r4, r5, r6, r7, r8, r9, pc}
 2468              	.LVL326:
 2469              	.L321:
 2470              		.loc 1 1458 0 is_stmt 0
 2471 00c8 0028     		cmp	r0, #0
 2472 00ca F9D1     		bne	.L304
 2473              	.LVL327:
 2474              	.L314:
 2475              		.loc 1 1461 0 is_stmt 1
 2476 00cc BDE8F883 		pop	{r3, r4, r5, r6, r7, r8, r9, pc}
 2477              	.LVL328:
 2478              	.L323:
 2479              	.LBB298:
 2480              	.LBB296:
 2481              		.loc 1 1238 0
 2482 00d0 1378     		ldrb	r3, [r2]	@ zero_extendqisi2
 2483              	.LVL329:
 2484 00d2 5B06     		lsls	r3, r3, #25
 2485 00d4 04D5     		bpl	.L297
 2486              		.loc 1 1239 0
 2487 00d6 FE28     		cmp	r0, #254
 2488 00d8 EBD8     		bhi	.L293
 2489              		.loc 1 1240 0
 2490 00da 0023     		movs	r3, #0
 2491 00dc 28F81030 		strh	r3, [r8, r0, lsl #1]	@ movhi
ARM GAS  /tmp/ccICsm2b.s 			page 45


 2492              	.L297:
 2493              	.LBE296:
 2494              	.LBE298:
 2495              		.loc 1 1443 0
 2496 00e0 013D     		subs	r5, r5, #1
 2497              	.LVL330:
 2498 00e2 EDB2     		uxtb	r5, r5
 2499              	.LVL331:
 2500 00e4 7646     		mov	r6, lr
 2501 00e6 97E7     		b	.L286
 2502              	.LVL332:
 2503              	.L289:
 2504              		.loc 1 1445 0
 2505 00e8 7DB9     		cbnz	r5, .L298
 2506 00ea 02F10A07 		add	r7, r2, #10
 2507 00ee 0146     		mov	r1, r0
 2508 00f0 01E0     		b	.L300
 2509              	.LVL333:
 2510              	.L325:
 2511 00f2 12F8013F 		ldrb	r3, [r2, #1]!	@ zero_extendqisi2
 2512              	.LVL334:
 2513              	.L300:
 2514              	.LBB299:
 2515              	.LBB300:
 2516              		.loc 1 1340 0
 2517 00f6 CD01     		lsls	r5, r1, #7
 2518 00f8 45EA5101 		orr	r1, r5, r1, lsr #1
 2519              	.LVL335:
 2520 00fc 53FA81F1 		uxtab	r1, r3, r1
 2521 0100 BA42     		cmp	r2, r7
 2522 0102 C9B2     		uxtb	r1, r1
 2523              	.LVL336:
 2524 0104 F5D1     		bne	.L325
 2525              	.LBE300:
 2526              	.LBE299:
 2527              		.loc 1 1445 0
 2528 0106 8E42     		cmp	r6, r1
 2529 0108 E0D0     		beq	.L314
 2530              	.LVL337:
 2531              	.L298:
 2532              		.loc 1 1446 0
 2533 010a 4FF6FF73 		movw	r3, #65535
 2534 010e 2384     		strh	r3, [r4, #32]	@ movhi
 2535              	.LVL338:
 2536 0110 BDE8F883 		pop	{r3, r4, r5, r6, r7, r8, r9, pc}
 2537              	.LVL339:
 2538              	.L327:
 2539              		.align	2
 2540              	.L326:
 2541 0114 0C000000 		.word	.LANCHOR2+12
 2542 0118 FFFFFFFF 		.word	.LANCHOR2-1
 2543              		.cfi_endproc
 2544              	.LFE28:
 2545              		.size	dir_read, .-dir_read
 2546 011c AFF30080 		.section	.text.dir_remove,"ax",%progbits
 2547              		.align	2
 2548              		.p2align 4,,15
ARM GAS  /tmp/ccICsm2b.s 			page 46


 2549              		.thumb
 2550              		.thumb_func
 2551              		.type	dir_remove, %function
 2552              	dir_remove:
 2553              	.LFB30:
 2554              		.loc 1 1581 0
 2555              		.cfi_startproc
 2556              		@ args = 0, pretend = 0, frame = 0
 2557              		@ frame_needed = 0, uses_anonymous_args = 0
 2558              	.LVL340:
 2559 0000 F8B5     		push	{r3, r4, r5, r6, r7, lr}
 2560              		.cfi_def_cfa_offset 24
 2561              		.cfi_offset 3, -24
 2562              		.cfi_offset 4, -20
 2563              		.cfi_offset 5, -16
 2564              		.cfi_offset 6, -12
 2565              		.cfi_offset 7, -8
 2566              		.cfi_offset 14, -4
 2567              		.loc 1 1587 0
 2568 0002 018C     		ldrh	r1, [r0, #32]
 2569              		.loc 1 1586 0
 2570 0004 C588     		ldrh	r5, [r0, #6]
 2571              	.LVL341:
 2572              		.loc 1 1587 0
 2573 0006 4FF6FF73 		movw	r3, #65535
 2574 000a 9942     		cmp	r1, r3
 2575 000c 08BF     		it	eq
 2576 000e 2946     		moveq	r1, r5
 2577              		.loc 1 1581 0
 2578 0010 0446     		mov	r4, r0
 2579              		.loc 1 1587 0
 2580 0012 FFF7FEFF 		bl	dir_sdi
 2581              	.LVL342:
 2582              		.loc 1 1588 0
 2583 0016 0346     		mov	r3, r0
 2584 0018 C8B9     		cbnz	r0, .L330
 2585              		.loc 1 1592 0
 2586 001a E527     		movs	r7, #229
 2587              		.loc 1 1593 0
 2588 001c 0126     		movs	r6, #1
 2589 001e 0AE0     		b	.L333
 2590              	.LVL343:
 2591              	.L336:
 2592              		.loc 1 1592 0
 2593 0020 6269     		ldr	r2, [r4, #20]
 2594 0022 1770     		strb	r7, [r2]
 2595              		.loc 1 1593 0
 2596 0024 2268     		ldr	r2, [r4]
 2597 0026 1671     		strb	r6, [r2, #4]
 2598              		.loc 1 1594 0
 2599 0028 E288     		ldrh	r2, [r4, #6]
 2600 002a AA42     		cmp	r2, r5
 2601 002c 0FD2     		bcs	.L330
 2602              		.loc 1 1595 0
 2603 002e FFF7FEFF 		bl	dir_next
 2604              	.LVL344:
 2605              		.loc 1 1596 0
ARM GAS  /tmp/ccICsm2b.s 			page 47


 2606 0032 0346     		mov	r3, r0
 2607 0034 40B9     		cbnz	r0, .L331
 2608              	.L333:
 2609              		.loc 1 1590 0
 2610 0036 2169     		ldr	r1, [r4, #16]
 2611 0038 2068     		ldr	r0, [r4]
 2612              	.LVL345:
 2613 003a FFF7FEFF 		bl	move_window
 2614              	.LVL346:
 2615              		.loc 1 1591 0
 2616 003e 0346     		mov	r3, r0
 2617              		.loc 1 1595 0
 2618 0040 0146     		mov	r1, r0
 2619 0042 2046     		mov	r0, r4
 2620              	.LVL347:
 2621              		.loc 1 1591 0
 2622 0044 002B     		cmp	r3, #0
 2623 0046 EBD0     		beq	.L336
 2624              	.L331:
 2625              	.LVL348:
 2626              		.loc 1 1597 0
 2627 0048 042B     		cmp	r3, #4
 2628 004a 08BF     		it	eq
 2629 004c 0223     		moveq	r3, #2
 2630              	.LVL349:
 2631              	.L330:
 2632              		.loc 1 1612 0
 2633 004e 1846     		mov	r0, r3
 2634 0050 F8BD     		pop	{r3, r4, r5, r6, r7, pc}
 2635              		.cfi_endproc
 2636              	.LFE30:
 2637              		.size	dir_remove, .-dir_remove
 2638 0052 00BFAFF3 		.section	.text.dir_find.part.8,"ax",%progbits
 2638      0080AFF3 
 2638      0080AFF3 
 2638      0080
 2639              		.align	2
 2640              		.p2align 4,,15
 2641              		.thumb
 2642              		.thumb_func
 2643              		.type	dir_find.part.8, %function
 2644              	dir_find.part.8:
 2645              	.LFB62:
 2646              		.loc 1 1353 0
 2647              		.cfi_startproc
 2648              		@ args = 0, pretend = 0, frame = 16
 2649              		@ frame_needed = 0, uses_anonymous_args = 0
 2650              	.LVL350:
 2651 0000 2DE9F04F 		push	{r4, r5, r6, r7, r8, r9, r10, fp, lr}
 2652              		.cfi_def_cfa_offset 36
 2653              		.cfi_offset 4, -36
 2654              		.cfi_offset 5, -32
 2655              		.cfi_offset 6, -28
 2656              		.cfi_offset 7, -24
 2657              		.cfi_offset 8, -20
 2658              		.cfi_offset 9, -16
 2659              		.cfi_offset 10, -12
ARM GAS  /tmp/ccICsm2b.s 			page 48


 2660              		.cfi_offset 11, -8
 2661              		.cfi_offset 14, -4
 2662 0004 FF26     		movs	r6, #255
 2663 0006 85B0     		sub	sp, sp, #20
 2664              		.cfi_def_cfa_offset 56
 2665 0008 534F     		ldr	r7, .L379
 2666              		.loc 1 1353 0
 2667 000a 0546     		mov	r5, r0
 2668 000c B046     		mov	r8, r6
 2669 000e 09E0     		b	.L357
 2670              	.LVL351:
 2671              	.L376:
 2672              		.loc 1 1377 0
 2673 0010 0F29     		cmp	r1, #15
 2674 0012 43D0     		beq	.L341
 2675              	.LVL352:
 2676              	.L363:
 2677              		.loc 1 1392 0
 2678 0014 4FF0FF08 		mov	r8, #255
 2679              	.LVL353:
 2680              	.L339:
 2681              		.loc 1 1400 0
 2682 0018 2846     		mov	r0, r5
 2683 001a 0021     		movs	r1, #0
 2684 001c FFF7FEFF 		bl	dir_next
 2685              	.LVL354:
 2686              		.loc 1 1401 0
 2687 0020 0028     		cmp	r0, #0
 2688 0022 38D1     		bne	.L367
 2689              	.LVL355:
 2690              	.L357:
 2691              		.loc 1 1370 0
 2692 0024 2868     		ldr	r0, [r5]
 2693 0026 2969     		ldr	r1, [r5, #16]
 2694 0028 FFF7FEFF 		bl	move_window
 2695              	.LVL356:
 2696              		.loc 1 1371 0
 2697 002c 0028     		cmp	r0, #0
 2698 002e 32D1     		bne	.L367
 2699              		.loc 1 1372 0
 2700 0030 6C69     		ldr	r4, [r5, #20]
 2701              	.LVL357:
 2702              		.loc 1 1373 0
 2703 0032 2378     		ldrb	r3, [r4]	@ zero_extendqisi2
 2704              	.LVL358:
 2705              		.loc 1 1374 0
 2706 0034 002B     		cmp	r3, #0
 2707 0036 78D0     		beq	.L358
 2708              		.loc 1 1376 0
 2709 0038 E27A     		ldrb	r2, [r4, #11]	@ zero_extendqisi2
 2710              		.loc 1 1377 0
 2711 003a E52B     		cmp	r3, #229
 2712              		.loc 1 1376 0
 2713 003c 02F03F01 		and	r1, r2, #63
 2714              	.LVL359:
 2715              		.loc 1 1377 0
 2716 0040 E8D0     		beq	.L363
ARM GAS  /tmp/ccICsm2b.s 			page 49


 2717 0042 1207     		lsls	r2, r2, #28
 2718 0044 E4D4     		bmi	.L376
 2719              		.loc 1 1380 0
 2720 0046 0F29     		cmp	r1, #15
 2721 0048 28D0     		beq	.L341
 2722              		.loc 1 1391 0
 2723 004a B8F1000F 		cmp	r8, #0
 2724 004e 11D1     		bne	.L351
 2725 0050 9C46     		mov	ip, r3
 2726 0052 2246     		mov	r2, r4
 2727 0054 04F10A08 		add	r8, r4, #10
 2728              	.LVL360:
 2729 0058 0346     		mov	r3, r0
 2730 005a 01E0     		b	.L353
 2731              	.LVL361:
 2732              	.L377:
 2733 005c 12F801CF 		ldrb	ip, [r2, #1]!	@ zero_extendqisi2
 2734              	.LVL362:
 2735              	.L353:
 2736              	.LBB307:
 2737              	.LBB308:
 2738              		.loc 1 1340 0
 2739 0060 D901     		lsls	r1, r3, #7
 2740 0062 41EA5303 		orr	r3, r1, r3, lsr #1
 2741              	.LVL363:
 2742 0066 5CFA83F3 		uxtab	r3, ip, r3
 2743 006a 4245     		cmp	r2, r8
 2744 006c DBB2     		uxtb	r3, r3
 2745              	.LVL364:
 2746 006e F5D1     		bne	.L377
 2747              	.LBE308:
 2748              	.LBE307:
 2749              		.loc 1 1391 0
 2750 0070 B342     		cmp	r3, r6
 2751 0072 10D0     		beq	.L367
 2752              	.LVL365:
 2753              	.L351:
 2754              		.loc 1 1392 0
 2755 0074 4FF6FF72 		movw	r2, #65535
 2756              		.loc 1 1393 0
 2757 0078 AB69     		ldr	r3, [r5, #24]
 2758              		.loc 1 1392 0
 2759 007a 2A84     		strh	r2, [r5, #32]	@ movhi
 2760              	.LVL366:
 2761              		.loc 1 1393 0
 2762 007c DA7A     		ldrb	r2, [r3, #11]	@ zero_extendqisi2
 2763 007e D207     		lsls	r2, r2, #31
 2764 0080 C8D4     		bmi	.L363
 2765 0082 04F10B0C 		add	ip, r4, #11
 2766              	.LVL367:
 2767              	.L354:
 2768              	.LBB309:
 2769              	.LBB310:
 2770              		.loc 1 559 0
 2771 0086 14F8011B 		ldrb	r1, [r4], #1	@ zero_extendqisi2
 2772              	.LVL368:
 2773 008a 13F8012B 		ldrb	r2, [r3], #1	@ zero_extendqisi2
ARM GAS  /tmp/ccICsm2b.s 			page 50


 2774              	.LVL369:
 2775 008e 9142     		cmp	r1, r2
 2776 0090 C0D1     		bne	.L363
 2777 0092 6445     		cmp	r4, ip
 2778 0094 F7D1     		bne	.L354
 2779              	.LVL370:
 2780              	.L367:
 2781              	.LBE310:
 2782              	.LBE309:
 2783              		.loc 1 1404 0
 2784 0096 05B0     		add	sp, sp, #20
 2785              		@ sp needed
 2786 0098 BDE8F08F 		pop	{r4, r5, r6, r7, r8, r9, r10, fp, pc}
 2787              	.LVL371:
 2788              	.L341:
 2789              		.loc 1 1381 0
 2790 009c EA69     		ldr	r2, [r5, #28]
 2791 009e 002A     		cmp	r2, #0
 2792 00a0 BAD0     		beq	.L339
 2793              		.loc 1 1382 0
 2794 00a2 5806     		lsls	r0, r3, #25
 2795              	.LVL372:
 2796 00a4 3DD5     		bpl	.L343
 2797              		.loc 1 1385 0
 2798 00a6 E988     		ldrh	r1, [r5, #6]
 2799              	.LVL373:
 2800              		.loc 1 1383 0
 2801 00a8 667B     		ldrb	r6, [r4, #13]	@ zero_extendqisi2
 2802              	.LVL374:
 2803              		.loc 1 1385 0
 2804 00aa 2984     		strh	r1, [r5, #32]	@ movhi
 2805              	.LVL375:
 2806              		.loc 1 1384 0
 2807 00ac 03F0BF08 		and	r8, r3, #191
 2808              	.LVL376:
 2809              	.L344:
 2810              		.loc 1 1388 0
 2811 00b0 94F80DA0 		ldrb	r10, [r4, #13]	@ zero_extendqisi2
 2812 00b4 B245     		cmp	r10, r6
 2813 00b6 ADD1     		bne	.L363
 2814              	.LVL377:
 2815              	.LBB311:
 2816              	.LBB312:
 2817              		.loc 1 1194 0
 2818 00b8 2378     		ldrb	r3, [r4]	@ zero_extendqisi2
 2819 00ba 284E     		ldr	r6, .L379+4
 2820              	.LVL378:
 2821 00bc 23F04003 		bic	r3, r3, #64
 2822 00c0 013B     		subs	r3, r3, #1
 2823 00c2 03EB430C 		add	ip, r3, r3, lsl #1
 2824 00c6 03EB8C0C 		add	ip, r3, ip, lsl #2
 2825              	.LVL379:
 2826              		.loc 1 1195 0
 2827 00ca 4FF0010B 		mov	fp, #1
 2828              		.loc 1 1203 0
 2829 00ce 4FF6FF79 		movw	r9, #65535
 2830 00d2 03E0     		b	.L349
ARM GAS  /tmp/ccICsm2b.s 			page 51


 2831              	.LVL380:
 2832              	.L345:
 2833 00d4 4845     		cmp	r0, r9
 2834 00d6 35D1     		bne	.L346
 2835              	.LVL381:
 2836              	.L347:
 2837              		.loc 1 1205 0
 2838 00d8 BE42     		cmp	r6, r7
 2839 00da 2AD0     		beq	.L378
 2840              	.LVL382:
 2841              	.L349:
 2842              		.loc 1 1197 0
 2843 00dc 16F8013F 		ldrb	r3, [r6, #1]!	@ zero_extendqisi2
 2844              	.LVL383:
 2845 00e0 E018     		adds	r0, r4, r3
 2846 00e2 E35C     		ldrb	r3, [r4, r3]	@ zero_extendqisi2
 2847 00e4 4078     		ldrb	r0, [r0, #1]	@ zero_extendqisi2
 2848 00e6 43EA0020 		orr	r0, r3, r0, lsl #8
 2849              	.LVL384:
 2850              		.loc 1 1198 0
 2851 00ea BBF1000F 		cmp	fp, #0
 2852 00ee F1D0     		beq	.L345
 2853              		.loc 1 1200 0
 2854 00f0 0CF10103 		add	r3, ip, #1
 2855              		.loc 1 1199 0
 2856 00f4 0192     		str	r2, [sp, #4]
 2857 00f6 CDF808C0 		str	ip, [sp, #8]
 2858              		.loc 1 1200 0
 2859 00fa 0393     		str	r3, [sp, #12]
 2860              		.loc 1 1199 0
 2861 00fc FFF7FEFF 		bl	ff_wtoupper
 2862              	.LVL385:
 2863              		.loc 1 1200 0
 2864 0100 DDF808C0 		ldr	ip, [sp, #8]
 2865 0104 019A     		ldr	r2, [sp, #4]
 2866 0106 BCF1FE0F 		cmp	ip, #254
 2867              		.loc 1 1199 0
 2868 010a 8346     		mov	fp, r0
 2869              	.LVL386:
 2870              		.loc 1 1200 0
 2871 010c 1AD8     		bhi	.L346
 2872 010e 32F81C00 		ldrh	r0, [r2, ip, lsl #1]
 2873              	.LVL387:
 2874 0112 FFF7FEFF 		bl	ff_wtoupper
 2875              	.LVL388:
 2876 0116 8345     		cmp	fp, r0
 2877 0118 019A     		ldr	r2, [sp, #4]
 2878 011a 13D1     		bne	.L346
 2879 011c DDF80CC0 		ldr	ip, [sp, #12]
 2880 0120 DAE7     		b	.L347
 2881              	.LVL389:
 2882              	.L343:
 2883              	.LBE312:
 2884              	.LBE311:
 2885              		.loc 1 1388 0
 2886 0122 4345     		cmp	r3, r8
 2887 0124 7FF476AF 		bne	.L363
ARM GAS  /tmp/ccICsm2b.s 			page 52


 2888 0128 C2E7     		b	.L344
 2889              	.LVL390:
 2890              	.L358:
 2891              		.loc 1 1374 0
 2892 012a 0420     		movs	r0, #4
 2893              	.LVL391:
 2894              		.loc 1 1404 0
 2895 012c 05B0     		add	sp, sp, #20
 2896              		@ sp needed
 2897 012e BDE8F08F 		pop	{r4, r5, r6, r7, r8, r9, r10, fp, pc}
 2898              	.LVL392:
 2899              	.L378:
 2900              	.LBB314:
 2901              	.LBB313:
 2902              		.loc 1 1207 0
 2903 0132 2378     		ldrb	r3, [r4]	@ zero_extendqisi2
 2904 0134 5906     		lsls	r1, r3, #25
 2905 0136 09D5     		bpl	.L350
 2906 0138 BBF1000F 		cmp	fp, #0
 2907 013c 06D0     		beq	.L350
 2908 013e 32F81C30 		ldrh	r3, [r2, ip, lsl #1]
 2909 0142 1BB1     		cbz	r3, .L350
 2910              	.LVL393:
 2911              	.L346:
 2912              	.LBE313:
 2913              	.LBE314:
 2914              		.loc 1 1388 0
 2915 0144 5646     		mov	r6, r10
 2916 0146 4FF0FF08 		mov	r8, #255
 2917              	.LVL394:
 2918 014a 65E7     		b	.L339
 2919              	.LVL395:
 2920              	.L350:
 2921 014c 08F1FF38 		add	r8, r8, #-1
 2922              	.LVL396:
 2923 0150 5FFA88F8 		uxtb	r8, r8
 2924              	.LVL397:
 2925 0154 5646     		mov	r6, r10
 2926              	.LVL398:
 2927 0156 5FE7     		b	.L339
 2928              	.L380:
 2929              		.align	2
 2930              	.L379:
 2931 0158 0C000000 		.word	.LANCHOR2+12
 2932 015c FFFFFFFF 		.word	.LANCHOR2-1
 2933              		.cfi_endproc
 2934              	.LFE62:
 2935              		.size	dir_find.part.8, .-dir_find.part.8
 2936              		.section	.text.remove_chain.part.9,"ax",%progbits
 2937              		.align	2
 2938              		.p2align 4,,15
 2939              		.thumb
 2940              		.thumb_func
 2941              		.type	remove_chain.part.9, %function
 2942              	remove_chain.part.9:
 2943              	.LFB63:
 2944              		.loc 1 925 0
ARM GAS  /tmp/ccICsm2b.s 			page 53


 2945              		.cfi_startproc
 2946              		@ args = 0, pretend = 0, frame = 0
 2947              		@ frame_needed = 0, uses_anonymous_args = 0
 2948              	.LVL399:
 2949 0000 F8B5     		push	{r3, r4, r5, r6, r7, lr}
 2950              		.cfi_def_cfa_offset 24
 2951              		.cfi_offset 3, -24
 2952              		.cfi_offset 4, -20
 2953              		.cfi_offset 5, -16
 2954              		.cfi_offset 6, -12
 2955              		.cfi_offset 7, -8
 2956              		.cfi_offset 14, -4
 2957              		.loc 1 925 0
 2958 0002 0446     		mov	r4, r0
 2959 0004 0D46     		mov	r5, r1
 2960              		.loc 1 941 0
 2961 0006 E369     		ldr	r3, [r4, #28]
 2962 0008 9D42     		cmp	r5, r3
 2963              		.loc 1 950 0
 2964 000a 4FF00107 		mov	r7, #1
 2965              	.LVL400:
 2966              		.loc 1 941 0
 2967 000e 20D2     		bcs	.L389
 2968              	.LVL401:
 2969              	.L388:
 2970              	.LBB315:
 2971              	.LBB316:
 2972              		.loc 1 828 0
 2973 0010 012D     		cmp	r5, #1
 2974 0012 0CD9     		bls	.L386
 2975 0014 2046     		mov	r0, r4
 2976 0016 2946     		mov	r1, r5
 2977 0018 FFF7FEFF 		bl	get_fat.part.6
 2978              	.LVL402:
 2979              	.LBE316:
 2980              	.LBE315:
 2981              		.loc 1 943 0
 2982 001c 0646     		mov	r6, r0
 2983 001e C0B1     		cbz	r0, .L389
 2984              		.loc 1 944 0
 2985 0020 0128     		cmp	r0, #1
 2986 0022 04D0     		beq	.L386
 2987              		.loc 1 945 0
 2988 0024 411C     		adds	r1, r0, #1
 2989 0026 16D0     		beq	.L390
 2990              	.LBB317:
 2991              	.LBB318:
 2992              		.loc 1 873 0
 2993 0028 E369     		ldr	r3, [r4, #28]
 2994 002a 9D42     		cmp	r5, r3
 2995 002c 01D3     		bcc	.L397
 2996              	.LVL403:
 2997              	.L386:
 2998              	.LBE318:
 2999              	.LBE317:
 3000              		.loc 1 944 0
 3001 002e 0220     		movs	r0, #2
ARM GAS  /tmp/ccICsm2b.s 			page 54


 3002 0030 F8BD     		pop	{r3, r4, r5, r6, r7, pc}
 3003              	.LVL404:
 3004              	.L397:
 3005              	.LBB320:
 3006              	.LBB319:
 3007 0032 2946     		mov	r1, r5
 3008 0034 2046     		mov	r0, r4
 3009 0036 0022     		movs	r2, #0
 3010 0038 FFF7FEFF 		bl	put_fat.part.7
 3011              	.LVL405:
 3012              	.LBE319:
 3013              	.LBE320:
 3014              		.loc 1 947 0
 3015 003c 60B9     		cbnz	r0, .L384
 3016              		.loc 1 948 0
 3017 003e 6369     		ldr	r3, [r4, #20]
 3018 0040 5A1C     		adds	r2, r3, #1
 3019 0042 02D0     		beq	.L387
 3020              		.loc 1 949 0
 3021 0044 0133     		adds	r3, r3, #1
 3022 0046 6361     		str	r3, [r4, #20]
 3023              		.loc 1 950 0
 3024 0048 6771     		strb	r7, [r4, #5]
 3025              	.L387:
 3026              		.loc 1 941 0
 3027 004a E369     		ldr	r3, [r4, #28]
 3028              		.loc 1 925 0
 3029 004c 3546     		mov	r5, r6
 3030              	.LVL406:
 3031              		.loc 1 941 0
 3032 004e 9D42     		cmp	r5, r3
 3033 0050 DED3     		bcc	.L388
 3034              	.LVL407:
 3035              	.L389:
 3036              		.loc 1 925 0
 3037 0052 0020     		movs	r0, #0
 3038 0054 F8BD     		pop	{r3, r4, r5, r6, r7, pc}
 3039              	.LVL408:
 3040              	.L390:
 3041              		.loc 1 945 0
 3042 0056 0120     		movs	r0, #1
 3043              	.LVL409:
 3044              	.L384:
 3045              		.loc 1 967 0
 3046 0058 F8BD     		pop	{r3, r4, r5, r6, r7, pc}
 3047              		.cfi_endproc
 3048              	.LFE63:
 3049              		.size	remove_chain.part.9, .-remove_chain.part.9
 3050 005a 00BFAFF3 		.section	.text.follow_path,"ax",%progbits
 3050      0080
 3051              		.align	2
 3052              		.p2align 4,,15
 3053              		.thumb
 3054              		.thumb_func
 3055              		.type	follow_path, %function
 3056              	follow_path:
 3057              	.LFB33:
ARM GAS  /tmp/ccICsm2b.s 			page 55


 3058              		.loc 1 1923 0
 3059              		.cfi_startproc
 3060              		@ args = 0, pretend = 0, frame = 8
 3061              		@ frame_needed = 0, uses_anonymous_args = 0
 3062              	.LVL410:
 3063 0000 2DE9F04F 		push	{r4, r5, r6, r7, r8, r9, r10, fp, lr}
 3064              		.cfi_def_cfa_offset 36
 3065              		.cfi_offset 4, -36
 3066              		.cfi_offset 5, -32
 3067              		.cfi_offset 6, -28
 3068              		.cfi_offset 7, -24
 3069              		.cfi_offset 8, -20
 3070              		.cfi_offset 9, -16
 3071              		.cfi_offset 10, -12
 3072              		.cfi_offset 11, -8
 3073              		.cfi_offset 14, -4
 3074              		.loc 1 1935 0
 3075 0004 0B78     		ldrb	r3, [r1]	@ zero_extendqisi2
 3076 0006 2F2B     		cmp	r3, #47
 3077              		.loc 1 1923 0
 3078 0008 83B0     		sub	sp, sp, #12
 3079              		.cfi_def_cfa_offset 48
 3080              		.loc 1 1923 0
 3081 000a 8846     		mov	r8, r1
 3082 000c 0546     		mov	r5, r0
 3083              		.loc 1 1935 0
 3084 000e 00F03981 		beq	.L399
 3085              		.loc 1 1935 0 is_stmt 0 discriminator 1
 3086 0012 5C2B     		cmp	r3, #92
 3087 0014 00F03681 		beq	.L399
 3088              		.loc 1 1937 0 is_stmt 1
 3089 0018 0024     		movs	r4, #0
 3090 001a AC60     		str	r4, [r5, #8]
 3091              		.loc 1 1940 0
 3092 001c 98F80030 		ldrb	r3, [r8]	@ zero_extendqisi2
 3093 0020 1F2B     		cmp	r3, #31
 3094 0022 40F23881 		bls	.L534
 3095              	.LVL411:
 3096              	.L401:
 3097              	.LBB331:
 3098              	.LBB332:
 3099              		.loc 1 1710 0
 3100 0026 AB4E     		ldr	r6, .L542
 3101              	.LVL412:
 3102 0028 01E0     		b	.L403
 3103              	.LVL413:
 3104              	.L404:
 3105 002a 18F8013F 		ldrb	r3, [r8, #1]!	@ zero_extendqisi2
 3106              	.LVL414:
 3107              	.L403:
 3108              		.loc 1 1639 0
 3109 002e 2F2B     		cmp	r3, #47
 3110 0030 FBD0     		beq	.L404
 3111 0032 5C2B     		cmp	r3, #92
 3112 0034 F9D0     		beq	.L404
 3113              		.loc 1 1644 0
 3114 0036 1F2B     		cmp	r3, #31
ARM GAS  /tmp/ccICsm2b.s 			page 56


 3115              		.loc 1 1643 0
 3116 0038 1846     		mov	r0, r3
 3117              		.loc 1 1640 0
 3118 003a EF69     		ldr	r7, [r5, #28]
 3119              	.LVL415:
 3120              		.loc 1 1644 0
 3121 003c 40F2F180 		bls	.L457
 3122 0040 2F2B     		cmp	r3, #47
 3123 0042 2FD0     		beq	.L459
 3124 0044 5C2B     		cmp	r3, #92
 3125 0046 2DD0     		beq	.L459
 3126              		.loc 1 1655 0
 3127 0048 0121     		movs	r1, #1
 3128 004a A7F1020A 		sub	r10, r7, #2
 3129 004e C146     		mov	r9, r8
 3130              		.loc 1 1643 0
 3131 0050 0124     		movs	r4, #1
 3132              	.LVL416:
 3133              		.loc 1 1655 0
 3134 0052 FFF7FEFF 		bl	ff_convert
 3135              	.LVL417:
 3136              		.loc 1 1656 0
 3137 0056 08B3     		cbz	r0, .L408
 3138              	.LVL418:
 3139              	.L536:
 3140              		.loc 1 1658 0
 3141 0058 7F28     		cmp	r0, #127
 3142 005a 09D8     		bhi	.L409
 3143              	.LVL419:
 3144              	.LBB333:
 3145              	.LBB334:
 3146              		.loc 1 566 0
 3147 005c 2228     		cmp	r0, #34
 3148 005e 1DD0     		beq	.L408
 3149 0060 9D4A     		ldr	r2, .L542+4
 3150 0062 01E0     		b	.L410
 3151              	.LVL420:
 3152              	.L535:
 3153 0064 9842     		cmp	r0, r3
 3154 0066 19D0     		beq	.L408
 3155              	.LVL421:
 3156              	.L410:
 3157 0068 12F8013F 		ldrb	r3, [r2, #1]!	@ zero_extendqisi2
 3158              	.LVL422:
 3159 006c 002B     		cmp	r3, #0
 3160 006e F9D1     		bne	.L535
 3161              	.LVL423:
 3162              	.L409:
 3163              	.LBE334:
 3164              	.LBE333:
 3165              		.loc 1 1660 0
 3166 0070 2AF8020F 		strh	r0, [r10, #2]!	@ movhi
 3167              		.loc 1 1643 0
 3168 0074 19F8010F 		ldrb	r0, [r9, #1]!	@ zero_extendqisi2
 3169              	.LVL424:
 3170              		.loc 1 1644 0
 3171 0078 1F28     		cmp	r0, #31
ARM GAS  /tmp/ccICsm2b.s 			page 57


 3172              		.loc 1 1643 0
 3173 007a 04F10103 		add	r3, r4, #1
 3174              	.LVL425:
 3175              		.loc 1 1644 0
 3176 007e 40F2D280 		bls	.L405
 3177 0082 2F28     		cmp	r0, #47
 3178 0084 10D0     		beq	.L406
 3179 0086 5C28     		cmp	r0, #92
 3180 0088 0ED0     		beq	.L406
 3181              		.loc 1 1645 0
 3182 008a B3F5807F 		cmp	r3, #256
 3183 008e 05D0     		beq	.L408
 3184              		.loc 1 1655 0
 3185 0090 0121     		movs	r1, #1
 3186              		.loc 1 1643 0
 3187 0092 1C46     		mov	r4, r3
 3188              	.LVL426:
 3189              		.loc 1 1655 0
 3190 0094 FFF7FEFF 		bl	ff_convert
 3191              	.LVL427:
 3192              		.loc 1 1656 0
 3193 0098 0028     		cmp	r0, #0
 3194 009a DDD1     		bne	.L536
 3195              	.LVL428:
 3196              	.L408:
 3197              		.loc 1 1702 0
 3198 009c 0620     		movs	r0, #6
 3199              	.LVL429:
 3200              	.L485:
 3201              	.LBE332:
 3202              	.LBE331:
 3203              		.loc 1 1972 0
 3204 009e 03B0     		add	sp, sp, #12
 3205              		@ sp needed
 3206 00a0 BDE8F08F 		pop	{r4, r5, r6, r7, r8, r9, r10, fp, pc}
 3207              	.LVL430:
 3208              	.L459:
 3209              	.LBB343:
 3210              	.LBB339:
 3211              		.loc 1 1641 0
 3212 00a4 0024     		movs	r4, #0
 3213              		.loc 1 1643 0
 3214 00a6 0123     		movs	r3, #1
 3215              	.LVL431:
 3216              	.L406:
 3217              		.loc 1 1662 0
 3218 00a8 9844     		add	r8, r8, r3
 3219              	.LVL432:
 3220              		.loc 1 1663 0
 3221 00aa 4FF0000A 		mov	r10, #0
 3222              	.L450:
 3223              	.LVL433:
 3224              		.loc 1 1674 0
 3225 00ae 002C     		cmp	r4, #0
 3226 00b0 F4D0     		beq	.L408
 3227 00b2 07EB4400 		add	r0, r7, r4, lsl #1
 3228              	.LVL434:
ARM GAS  /tmp/ccICsm2b.s 			page 58


 3229              	.L414:
 3230              		.loc 1 1675 0
 3231 00b6 30F8022D 		ldrh	r2, [r0, #-2]!
 3232              	.LVL435:
 3233              		.loc 1 1676 0
 3234 00ba 202A     		cmp	r2, #32
 3235 00bc 01D0     		beq	.L412
 3236 00be 2E2A     		cmp	r2, #46
 3237 00c0 02D1     		bne	.L413
 3238              	.L412:
 3239              		.loc 1 1674 0
 3240 00c2 013C     		subs	r4, r4, #1
 3241              	.LVL436:
 3242 00c4 F7D1     		bne	.L414
 3243 00c6 E9E7     		b	.L408
 3244              	.LVL437:
 3245              	.L413:
 3246              		.loc 1 1684 0
 3247 00c8 AA69     		ldr	r2, [r5, #24]
 3248              	.LVL438:
 3249              		.loc 1 1681 0
 3250 00ca 0023     		movs	r3, #0
 3251 00cc 27F81430 		strh	r3, [r7, r4, lsl #1]	@ movhi
 3252              	.LVL439:
 3253 00d0 02F10B00 		add	r0, r2, #11
 3254 00d4 07EB440E 		add	lr, r7, r4, lsl #1
 3255              	.LBB335:
 3256              	.LBB336:
 3257              		.loc 1 550 0
 3258 00d8 2021     		movs	r1, #32
 3259              	.LVL440:
 3260              	.L451:
 3261 00da 02F8011B 		strb	r1, [r2], #1
 3262              	.LVL441:
 3263              		.loc 1 549 0
 3264 00de 8242     		cmp	r2, r0
 3265 00e0 FBD1     		bne	.L451
 3266 00e2 BB1E     		subs	r3, r7, #2
 3267 00e4 4FF00009 		mov	r9, #0
 3268 00e8 01E0     		b	.L416
 3269              	.LVL442:
 3270              	.L417:
 3271              	.LBE336:
 3272              	.LBE335:
 3273              		.loc 1 1685 0
 3274 00ea 09F10109 		add	r9, r9, #1
 3275              	.LVL443:
 3276              	.L416:
 3277 00ee 33F8022F 		ldrh	r2, [r3, #2]!
 3278 00f2 202A     		cmp	r2, #32
 3279 00f4 F9D0     		beq	.L417
 3280 00f6 2E2A     		cmp	r2, #46
 3281 00f8 F7D0     		beq	.L417
 3282              		.loc 1 1686 0
 3283 00fa B9F1000F 		cmp	r9, #0
 3284 00fe 01D0     		beq	.L418
 3285 0100 4AF0030A 		orr	r10, r10, #3
ARM GAS  /tmp/ccICsm2b.s 			page 59


 3286              	.LVL444:
 3287              	.L418:
 3288 0104 7346     		mov	r3, lr
 3289              	.LVL445:
 3290              	.L419:
 3291              		.loc 1 1687 0
 3292 0106 33F8021D 		ldrh	r1, [r3, #-2]!
 3293 010a 2E29     		cmp	r1, #46
 3294 010c 01D0     		beq	.L423
 3295 010e 013C     		subs	r4, r4, #1
 3296              	.LVL446:
 3297 0110 F9D1     		bne	.L419
 3298              	.LVL447:
 3299              	.L423:
 3300              		.loc 1 1685 0
 3301 0112 0023     		movs	r3, #0
 3302 0114 9C46     		mov	ip, r3
 3303 0116 4FF0080B 		mov	fp, #8
 3304              	.LVL448:
 3305              	.L421:
 3306              		.loc 1 1691 0
 3307 011a 09F10109 		add	r9, r9, #1
 3308              	.LVL449:
 3309              		.loc 1 1692 0
 3310 011e 8AB3     		cbz	r2, .L424
 3311              		.loc 1 1693 0
 3312 0120 202A     		cmp	r2, #32
 3313 0122 20D0     		beq	.L425
 3314 0124 2E2A     		cmp	r2, #46
 3315 0126 1CD0     		beq	.L537
 3316              		.loc 1 1697 0
 3317 0128 5B45     		cmp	r3, fp
 3318 012a 21D2     		bcs	.L429
 3319 012c 4C45     		cmp	r4, r9
 3320 012e 7ED0     		beq	.L427
 3321              		.loc 1 1707 0
 3322 0130 7F2A     		cmp	r2, #127
 3323 0132 00F28880 		bhi	.L538
 3324              	.LVL450:
 3325              	.L434:
 3326              	.LBB337:
 3327              	.LBB338:
 3328              		.loc 1 566 0
 3329 0136 2B2A     		cmp	r2, #43
 3330 0138 00F09680 		beq	.L436
 3331 013c 6748     		ldr	r0, .L542+8
 3332 013e 02E0     		b	.L456
 3333              	.LVL451:
 3334              	.L539:
 3335 0140 8A42     		cmp	r2, r1
 3336 0142 00F09180 		beq	.L436
 3337              	.LVL452:
 3338              	.L456:
 3339 0146 10F8011F 		ldrb	r1, [r0, #1]!	@ zero_extendqisi2
 3340              	.LVL453:
 3341 014a 0029     		cmp	r1, #0
 3342 014c F8D1     		bne	.L539
ARM GAS  /tmp/ccICsm2b.s 			page 60


 3343              	.LBE338:
 3344              	.LBE337:
 3345              		.loc 1 1726 0
 3346 014e A2F14101 		sub	r1, r2, #65
 3347 0152 89B2     		uxth	r1, r1
 3348 0154 1929     		cmp	r1, #25
 3349 0156 00F2A980 		bhi	.L540
 3350              		.loc 1 1727 0
 3351 015a 4CF0020C 		orr	ip, ip, #2
 3352              	.LVL454:
 3353 015e D2B2     		uxtb	r2, r2
 3354              	.LVL455:
 3355 0160 85E0     		b	.L439
 3356              	.LVL456:
 3357              	.L537:
 3358              		.loc 1 1693 0
 3359 0162 4C45     		cmp	r4, r9
 3360 0164 63D0     		beq	.L427
 3361              	.L425:
 3362              		.loc 1 1694 0
 3363 0166 4AF0030A 		orr	r10, r10, #3
 3364              	.LVL457:
 3365              	.L428:
 3366 016a 37F81920 		ldrh	r2, [r7, r9, lsl #1]
 3367 016e D4E7     		b	.L421
 3368              	.LVL458:
 3369              	.L429:
 3370              		.loc 1 1698 0
 3371 0170 BBF10B0F 		cmp	fp, #11
 3372 0174 00F0A980 		beq	.L455
 3373              		.loc 1 1701 0
 3374 0178 4C45     		cmp	r4, r9
 3375 017a 5BD0     		beq	.L433
 3376              		.loc 1 1702 0
 3377 017c A145     		cmp	r9, r4
 3378              		.loc 1 1701 0
 3379 017e 4AF0030A 		orr	r10, r10, #3
 3380              	.LVL459:
 3381              		.loc 1 1702 0
 3382 0182 57D9     		bls	.L433
 3383              	.LVL460:
 3384              	.L424:
 3385              		.loc 1 1738 0
 3386 0184 AB69     		ldr	r3, [r5, #24]
 3387              	.LVL461:
 3388 0186 1A78     		ldrb	r2, [r3]	@ zero_extendqisi2
 3389              	.LVL462:
 3390 0188 E52A     		cmp	r2, #229
 3391 018a 77D0     		beq	.L541
 3392              	.L441:
 3393              		.loc 1 1740 0
 3394 018c BBF1080F 		cmp	fp, #8
 3395 0190 04BF     		itt	eq
 3396 0192 4FEA8C0C 		lsleq	ip, ip, #2
 3397              	.LVL463:
 3398 0196 5FFA8CFC 		uxtbeq	ip, ip
 3399              	.LVL464:
ARM GAS  /tmp/ccICsm2b.s 			page 61


 3400              		.loc 1 1741 0
 3401 019a 0CF00C02 		and	r2, ip, #12
 3402 019e 0C2A     		cmp	r2, #12
 3403 01a0 69D0     		beq	.L443
 3404 01a2 0CF00301 		and	r1, ip, #3
 3405 01a6 0329     		cmp	r1, #3
 3406 01a8 65D0     		beq	.L443
 3407              	.LVL465:
 3408              	.L444:
 3409              		.loc 1 1743 0
 3410 01aa 1AF0020F 		tst	r10, #2
 3411 01ae 0AD1     		bne	.L445
 3412              		.loc 1 1744 0
 3413 01b0 0CF0030C 		and	ip, ip, #3
 3414              	.LVL466:
 3415 01b4 BCF1010F 		cmp	ip, #1
 3416 01b8 08BF     		it	eq
 3417 01ba 4AF0100A 		orreq	r10, r10, #16
 3418              	.LVL467:
 3419              		.loc 1 1745 0
 3420 01be 042A     		cmp	r2, #4
 3421 01c0 08BF     		it	eq
 3422 01c2 4AF0080A 		orreq	r10, r10, #8
 3423              	.LVL468:
 3424              	.L445:
 3425              		.loc 1 1748 0
 3426 01c6 83F80BA0 		strb	r10, [r3, #11]
 3427              	.LVL469:
 3428              	.LBE339:
 3429              	.LBE343:
 3430              	.LBB344:
 3431              	.LBB345:
 3432              		.loc 1 1363 0
 3433 01ca 2846     		mov	r0, r5
 3434 01cc 0021     		movs	r1, #0
 3435 01ce FFF7FEFF 		bl	dir_sdi
 3436              	.LVL470:
 3437              		.loc 1 1364 0
 3438 01d2 D0B9     		cbnz	r0, .L447
 3439 01d4 2846     		mov	r0, r5
 3440              	.LVL471:
 3441 01d6 FFF7FEFF 		bl	dir_find.part.8
 3442              	.LVL472:
 3443              	.LBE345:
 3444              	.LBE344:
 3445              		.loc 1 1949 0
 3446 01da AB69     		ldr	r3, [r5, #24]
 3447 01dc DB7A     		ldrb	r3, [r3, #11]	@ zero_extendqisi2
 3448              	.LVL473:
 3449              		.loc 1 1950 0
 3450 01de B0B9     		cbnz	r0, .L454
 3451              		.loc 1 1962 0
 3452 01e0 5907     		lsls	r1, r3, #29
 3453 01e2 3FF55CAF 		bmi	.L485
 3454              		.loc 1 1963 0
 3455 01e6 6B69     		ldr	r3, [r5, #20]
 3456              	.LVL474:
ARM GAS  /tmp/ccICsm2b.s 			page 62


 3457              		.loc 1 1964 0
 3458 01e8 DA7A     		ldrb	r2, [r3, #11]	@ zero_extendqisi2
 3459 01ea D206     		lsls	r2, r2, #27
 3460 01ec 69D5     		bpl	.L463
 3461              		.loc 1 1967 0
 3462 01ee 5C7D     		ldrb	r4, [r3, #21]	@ zero_extendqisi2
 3463 01f0 1A7D     		ldrb	r2, [r3, #20]	@ zero_extendqisi2
 3464 01f2 D87E     		ldrb	r0, [r3, #27]	@ zero_extendqisi2
 3465 01f4 997E     		ldrb	r1, [r3, #26]	@ zero_extendqisi2
 3466 01f6 42EA0422 		orr	r2, r2, r4, lsl #8
 3467 01fa 41EA0023 		orr	r3, r1, r0, lsl #8
 3468              	.LVL475:
 3469 01fe 43EA0243 		orr	r3, r3, r2, lsl #16
 3470 0202 AB60     		str	r3, [r5, #8]
 3471              	.LVL476:
 3472 0204 98F80030 		ldrb	r3, [r8]	@ zero_extendqisi2
 3473              		.loc 1 1968 0
 3474 0208 11E7     		b	.L403
 3475              	.LVL477:
 3476              	.L447:
 3477              		.loc 1 1949 0
 3478 020a AB69     		ldr	r3, [r5, #24]
 3479 020c DB7A     		ldrb	r3, [r3, #11]	@ zero_extendqisi2
 3480              	.LVL478:
 3481              	.L454:
 3482              		.loc 1 1951 0
 3483 020e 0428     		cmp	r0, #4
 3484 0210 7FF445AF 		bne	.L485
 3485              		.loc 1 1958 0
 3486 0214 13F0040F 		tst	r3, #4
 3487 0218 08BF     		it	eq
 3488 021a 0520     		moveq	r0, #5
 3489              		.loc 1 1972 0
 3490 021c 03B0     		add	sp, sp, #12
 3491              		@ sp needed
 3492 021e BDE8F08F 		pop	{r4, r5, r6, r7, r8, r9, r10, fp, pc}
 3493              	.LVL479:
 3494              	.L457:
 3495              	.LBB346:
 3496              	.LBB340:
 3497              		.loc 1 1641 0
 3498 0222 0024     		movs	r4, #0
 3499              		.loc 1 1643 0
 3500 0224 0123     		movs	r3, #1
 3501              	.LVL480:
 3502              	.L405:
 3503              		.loc 1 1662 0
 3504 0226 9844     		add	r8, r8, r3
 3505              	.LVL481:
 3506              		.loc 1 1663 0
 3507 0228 4FF0040A 		mov	r10, #4
 3508 022c 3FE7     		b	.L450
 3509              	.LVL482:
 3510              	.L427:
 3511              		.loc 1 1698 0
 3512 022e BBF10B0F 		cmp	fp, #11
 3513 0232 4AD0     		beq	.L455
ARM GAS  /tmp/ccICsm2b.s 			page 63


 3514              	.LVL483:
 3515              	.L433:
 3516              		.loc 1 1704 0
 3517 0234 4FEA8C0C 		lsl	ip, ip, #2
 3518              	.LVL484:
 3519 0238 5FFA8CFC 		uxtb	ip, ip
 3520              	.LVL485:
 3521 023c A146     		mov	r9, r4
 3522              		.loc 1 1703 0
 3523 023e 4FF00B0B 		mov	fp, #11
 3524 0242 0823     		movs	r3, #8
 3525 0244 91E7     		b	.L428
 3526              	.LVL486:
 3527              	.L538:
 3528              		.loc 1 1709 0
 3529 0246 1046     		mov	r0, r2
 3530 0248 0021     		movs	r1, #0
 3531 024a 8DE80810 		stmia	sp, {r3, ip}
 3532 024e FFF7FEFF 		bl	ff_convert
 3533              	.LVL487:
 3534              		.loc 1 1710 0
 3535 0252 9DE80810 		ldmia	sp, {r3, ip}
 3536 0256 30B3     		cbz	r0, .L435
 3537 0258 3044     		add	r0, r0, r6
 3538              	.LVL488:
 3539              		.loc 1 1714 0
 3540 025a 4AF0020A 		orr	r10, r10, #2
 3541              	.LVL489:
 3542              		.loc 1 1710 0
 3543 025e 10F8802C 		ldrb	r2, [r0, #-128]	@ zero_extendqisi2
 3544              	.LVL490:
 3545              		.loc 1 1723 0
 3546 0262 002A     		cmp	r2, #0
 3547 0264 7FF467AF 		bne	.L434
 3548              	.LVL491:
 3549              	.L436:
 3550              		.loc 1 1724 0
 3551 0268 4AF0030A 		orr	r10, r10, #3
 3552              	.LVL492:
 3553 026c 5F22     		movs	r2, #95
 3554              	.LVL493:
 3555              	.L439:
 3556              		.loc 1 1735 0
 3557 026e A969     		ldr	r1, [r5, #24]
 3558 0270 CA54     		strb	r2, [r1, r3]
 3559 0272 0133     		adds	r3, r3, #1
 3560              	.LVL494:
 3561 0274 79E7     		b	.L428
 3562              	.LVL495:
 3563              	.L443:
 3564              		.loc 1 1742 0
 3565 0276 4AF0020A 		orr	r10, r10, #2
 3566              	.LVL496:
 3567 027a 96E7     		b	.L444
 3568              	.L541:
 3569              		.loc 1 1738 0
 3570 027c 0522     		movs	r2, #5
ARM GAS  /tmp/ccICsm2b.s 			page 64


 3571 027e 1A70     		strb	r2, [r3]
 3572 0280 AB69     		ldr	r3, [r5, #24]
 3573 0282 83E7     		b	.L441
 3574              	.LVL497:
 3575              	.L399:
 3576              	.LBE340:
 3577              	.LBE346:
 3578              		.loc 1 1936 0
 3579 0284 08F10108 		add	r8, r8, #1
 3580              	.LVL498:
 3581              		.loc 1 1937 0
 3582 0288 0024     		movs	r4, #0
 3583 028a AC60     		str	r4, [r5, #8]
 3584              		.loc 1 1940 0
 3585 028c 98F80030 		ldrb	r3, [r8]	@ zero_extendqisi2
 3586 0290 1F2B     		cmp	r3, #31
 3587 0292 3FF6C8AE 		bhi	.L401
 3588              	.L534:
 3589              		.loc 1 1941 0
 3590 0296 2846     		mov	r0, r5
 3591              	.LVL499:
 3592 0298 2146     		mov	r1, r4
 3593 029a FFF7FEFF 		bl	dir_sdi
 3594              	.LVL500:
 3595              		.loc 1 1942 0
 3596 029e 6C61     		str	r4, [r5, #20]
 3597              		.loc 1 1972 0
 3598 02a0 03B0     		add	sp, sp, #12
 3599              		@ sp needed
 3600 02a2 BDE8F08F 		pop	{r4, r5, r6, r7, r8, r9, r10, fp, pc}
 3601              	.LVL501:
 3602              	.L435:
 3603              	.LBB347:
 3604              	.LBB341:
 3605              		.loc 1 1714 0
 3606 02a6 4AF0020A 		orr	r10, r10, #2
 3607              	.LVL502:
 3608 02aa DDE7     		b	.L436
 3609              	.LVL503:
 3610              	.L540:
 3611              		.loc 1 1729 0
 3612 02ac A2F16101 		sub	r1, r2, #97
 3613 02b0 89B2     		uxth	r1, r1
 3614 02b2 1929     		cmp	r1, #25
 3615              		.loc 1 1730 0
 3616 02b4 97BF     		itett	ls
 3617 02b6 203A     		subls	r2, r2, #32
 3618              	.LVL504:
 3619 02b8 D2B2     		uxtbhi	r2, r2
 3620 02ba D2B2     		uxtbls	r2, r2
 3621 02bc 4CF0010C 		orrls	ip, ip, #1
 3622              	.LVL505:
 3623 02c0 D5E7     		b	.L439
 3624              	.LVL506:
 3625              	.L463:
 3626              	.LBE341:
 3627              	.LBE347:
ARM GAS  /tmp/ccICsm2b.s 			page 65


 3628              		.loc 1 1965 0
 3629 02c2 0520     		movs	r0, #5
 3630              		.loc 1 1972 0
 3631 02c4 03B0     		add	sp, sp, #12
 3632              		@ sp needed
 3633 02c6 BDE8F08F 		pop	{r4, r5, r6, r7, r8, r9, r10, fp, pc}
 3634              	.LVL507:
 3635              	.L455:
 3636              	.LBB348:
 3637              	.LBB342:
 3638              		.loc 1 1699 0
 3639 02ca 4AF0030A 		orr	r10, r10, #3
 3640              	.LVL508:
 3641 02ce 4FF00B0B 		mov	fp, #11
 3642              	.LVL509:
 3643 02d2 57E7     		b	.L424
 3644              	.L543:
 3645              		.align	2
 3646              	.L542:
 3647 02d4 00000000 		.word	.LANCHOR3
 3648 02d8 00000000 		.word	.LC0
 3649 02dc 0C000000 		.word	.LC1
 3650              	.LBE342:
 3651              	.LBE348:
 3652              		.cfi_endproc
 3653              	.LFE33:
 3654              		.size	follow_path, .-follow_path
 3655              		.section	.text.clust2sect,"ax",%progbits
 3656              		.align	2
 3657              		.p2align 4,,15
 3658              		.global	clust2sect
 3659              		.thumb
 3660              		.thumb_func
 3661              		.type	clust2sect, %function
 3662              	clust2sect:
 3663              	.LFB15:
 3664              		.loc 1 805 0
 3665              		.cfi_startproc
 3666              		@ args = 0, pretend = 0, frame = 0
 3667              		@ frame_needed = 0, uses_anonymous_args = 0
 3668              		@ link register save eliminated.
 3669              	.LVL510:
 3670              		.loc 1 807 0
 3671 0000 C369     		ldr	r3, [r0, #28]
 3672              		.loc 1 806 0
 3673 0002 0239     		subs	r1, r1, #2
 3674              	.LVL511:
 3675              		.loc 1 807 0
 3676 0004 023B     		subs	r3, r3, #2
 3677 0006 9942     		cmp	r1, r3
 3678 0008 04D2     		bcs	.L546
 3679              		.loc 1 808 0
 3680 000a 8278     		ldrb	r2, [r0, #2]	@ zero_extendqisi2
 3681 000c C36A     		ldr	r3, [r0, #44]
 3682 000e 02FB0130 		mla	r0, r2, r1, r3
 3683              	.LVL512:
 3684 0012 7047     		bx	lr
ARM GAS  /tmp/ccICsm2b.s 			page 66


 3685              	.LVL513:
 3686              	.L546:
 3687              		.loc 1 807 0
 3688 0014 0020     		movs	r0, #0
 3689              	.LVL514:
 3690              		.loc 1 809 0
 3691 0016 7047     		bx	lr
 3692              		.cfi_endproc
 3693              	.LFE15:
 3694              		.size	clust2sect, .-clust2sect
 3695 0018 AFF30080 		.section	.text.get_fat,"ax",%progbits
 3695      AFF30080 
 3696              		.align	2
 3697              		.p2align 4,,15
 3698              		.global	get_fat
 3699              		.thumb
 3700              		.thumb_func
 3701              		.type	get_fat, %function
 3702              	get_fat:
 3703              	.LFB16:
 3704              		.loc 1 823 0
 3705              		.cfi_startproc
 3706              		@ args = 0, pretend = 0, frame = 0
 3707              		@ frame_needed = 0, uses_anonymous_args = 0
 3708              		@ link register save eliminated.
 3709              	.LVL515:
 3710              		.loc 1 828 0
 3711 0000 0129     		cmp	r1, #1
 3712 0002 04D9     		bls	.L548
 3713              		.loc 1 828 0 is_stmt 0 discriminator 1
 3714 0004 C269     		ldr	r2, [r0, #28]
 3715 0006 9142     		cmp	r1, r2
 3716 0008 01D2     		bcs	.L548
 3717 000a FFF7FEBF 		b	get_fat.part.6
 3718              	.LVL516:
 3719              	.L548:
 3720              		.loc 1 852 0 is_stmt 1
 3721 000e 0120     		movs	r0, #1
 3722              	.LVL517:
 3723 0010 7047     		bx	lr
 3724              		.cfi_endproc
 3725              	.LFE16:
 3726              		.size	get_fat, .-get_fat
 3727 0012 00BFAFF3 		.section	.text.put_fat,"ax",%progbits
 3727      0080AFF3 
 3727      0080AFF3 
 3727      0080
 3728              		.align	2
 3729              		.p2align 4,,15
 3730              		.global	put_fat
 3731              		.thumb
 3732              		.thumb_func
 3733              		.type	put_fat, %function
 3734              	put_fat:
 3735              	.LFB17:
 3736              		.loc 1 867 0
 3737              		.cfi_startproc
ARM GAS  /tmp/ccICsm2b.s 			page 67


 3738              		@ args = 0, pretend = 0, frame = 0
 3739              		@ frame_needed = 0, uses_anonymous_args = 0
 3740              		@ link register save eliminated.
 3741              	.LVL518:
 3742              		.loc 1 873 0
 3743 0000 0129     		cmp	r1, #1
 3744              		.loc 1 867 0
 3745 0002 10B4     		push	{r4}
 3746              		.cfi_def_cfa_offset 4
 3747              		.cfi_offset 4, -4
 3748              		.loc 1 873 0
 3749 0004 02D9     		bls	.L552
 3750              		.loc 1 873 0 is_stmt 0 discriminator 1
 3751 0006 C469     		ldr	r4, [r0, #28]
 3752 0008 A142     		cmp	r1, r4
 3753 000a 03D3     		bcc	.L555
 3754              	.L552:
 3755              		.loc 1 914 0 is_stmt 1
 3756 000c 0220     		movs	r0, #2
 3757              	.LVL519:
 3758 000e 5DF8044B 		ldr	r4, [sp], #4
 3759 0012 7047     		bx	lr
 3760              	.LVL520:
 3761              	.L555:
 3762 0014 5DF8044B 		ldr	r4, [sp], #4
 3763 0018 FFF7FEBF 		b	put_fat.part.7
 3764              	.LVL521:
 3765              		.cfi_endproc
 3766              	.LFE17:
 3767              		.size	put_fat, .-put_fat
 3768 001c AFF30080 		.section	.text.gen_numname,"ax",%progbits
 3769              		.align	2
 3770              		.p2align 4,,15
 3771              		.global	gen_numname
 3772              		.thumb
 3773              		.thumb_func
 3774              		.type	gen_numname, %function
 3775              	gen_numname:
 3776              	.LFB25:
 3777              		.loc 1 1291 0
 3778              		.cfi_startproc
 3779              		@ args = 0, pretend = 0, frame = 8
 3780              		@ frame_needed = 0, uses_anonymous_args = 0
 3781              		@ link register save eliminated.
 3782              	.LVL522:
 3783 0000 70B4     		push	{r4, r5, r6}
 3784              		.cfi_def_cfa_offset 12
 3785              		.cfi_offset 4, -12
 3786              		.cfi_offset 5, -8
 3787              		.cfi_offset 6, -4
 3788 0002 01F10B06 		add	r6, r1, #11
 3789 0006 83B0     		sub	sp, sp, #12
 3790              		.cfi_def_cfa_offset 24
 3791              		.loc 1 1291 0
 3792 0008 0446     		mov	r4, r0
 3793              	.LVL523:
 3794              	.L558:
ARM GAS  /tmp/ccICsm2b.s 			page 68


 3795              	.LBB349:
 3796              	.LBB350:
 3797              		.loc 1 541 0
 3798 000a 11F8015B 		ldrb	r5, [r1], #1	@ zero_extendqisi2
 3799              	.LVL524:
 3800 000e 04F8015B 		strb	r5, [r4], #1
 3801              	.LVL525:
 3802              		.loc 1 540 0
 3803 0012 B142     		cmp	r1, r6
 3804 0014 F9D1     		bne	.L558
 3805              	.LBE350:
 3806              	.LBE349:
 3807              		.loc 1 1298 0
 3808 0016 052B     		cmp	r3, #5
 3809 0018 0CD9     		bls	.L559
 3810 001a 1488     		ldrh	r4, [r2]
 3811              	.LVL526:
 3812 001c 00E0     		b	.L560
 3813              	.LVL527:
 3814              	.L582:
 3815              		.loc 1 1299 0
 3816 001e 0C46     		mov	r4, r1
 3817              	.LVL528:
 3818              	.L560:
 3819              		.loc 1 1299 0 is_stmt 0 discriminator 1
 3820 0020 D903     		lsls	r1, r3, #15
 3821 0022 41EA5303 		orr	r3, r1, r3, lsr #1
 3822              	.LVL529:
 3823 0026 32F8021F 		ldrh	r1, [r2, #2]!
 3824              	.LVL530:
 3825 002a 14FA83F3 		uxtah	r3, r4, r3
 3826 002e 9BB2     		uxth	r3, r3
 3827              	.LVL531:
 3828 0030 0029     		cmp	r1, #0
 3829 0032 F4D1     		bne	.L582
 3830              	.LVL532:
 3831              	.L559:
 3832              		.loc 1 1299 0
 3833 0034 0722     		movs	r2, #7
 3834              	.LVL533:
 3835              	.L563:
 3836              		.loc 1 1305 0 is_stmt 1
 3837 0036 03F00F04 		and	r4, r3, #15
 3838 003a 04F13001 		add	r1, r4, #48
 3839              	.LVL534:
 3840              		.loc 1 1307 0
 3841 003e 013A     		subs	r2, r2, #1
 3842              	.LVL535:
 3843 0040 00AD     		add	r5, sp, #0
 3844              		.loc 1 1306 0
 3845 0042 3929     		cmp	r1, #57
 3846 0044 1544     		add	r5, r5, r2
 3847 0046 88BF     		it	hi
 3848 0048 04F13701 		addhi	r1, r4, #55
 3849              	.LVL536:
 3850              		.loc 1 1309 0
 3851 004c 1B09     		lsrs	r3, r3, #4
ARM GAS  /tmp/ccICsm2b.s 			page 69


 3852              	.LVL537:
 3853              		.loc 1 1307 0
 3854 004e 6970     		strb	r1, [r5, #1]
 3855              		.loc 1 1309 0
 3856 0050 F1D1     		bne	.L563
 3857              		.loc 1 1310 0
 3858 0052 02A9     		add	r1, sp, #8
 3859              	.LVL538:
 3860 0054 1144     		add	r1, r1, r2
 3861 0056 7E24     		movs	r4, #126
 3862              	.LVL539:
 3863 0058 01F8084C 		strb	r4, [r1, #-8]
 3864              	.LVL540:
 3865              		.loc 1 1313 0
 3866 005c 02B3     		cbz	r2, .L569
 3867 005e 0178     		ldrb	r1, [r0]	@ zero_extendqisi2
 3868 0060 2029     		cmp	r1, #32
 3869 0062 13D0     		beq	.L568
 3870 0064 0146     		mov	r1, r0
 3871 0066 03E0     		b	.L565
 3872              	.LVL541:
 3873              	.L583:
 3874              		.loc 1 1313 0 is_stmt 0 discriminator 2
 3875 0068 11F8014F 		ldrb	r4, [r1, #1]!	@ zero_extendqisi2
 3876 006c 202C     		cmp	r4, #32
 3877 006e 0DD0     		beq	.L568
 3878              	.LVL542:
 3879              	.L565:
 3880              		.loc 1 1313 0
 3881 0070 0133     		adds	r3, r3, #1
 3882              	.LVL543:
 3883 0072 9342     		cmp	r3, r2
 3884 0074 F8D1     		bne	.L583
 3885              	.LVL544:
 3886              		.loc 1 1320 0 is_stmt 1
 3887 0076 072A     		cmp	r2, #7
 3888 0078 0AD8     		bhi	.L571
 3889              	.LVL545:
 3890              	.L585:
 3891              		.loc 1 1320 0 is_stmt 0 discriminator 1
 3892 007a 02A9     		add	r1, sp, #8
 3893 007c 1144     		add	r1, r1, r2
 3894 007e 0132     		adds	r2, r2, #1
 3895              	.LVL546:
 3896 0080 11F8081C 		ldrb	r1, [r1, #-8]	@ zero_extendqisi2
 3897 0084 C154     		strb	r1, [r0, r3]
 3898 0086 0133     		adds	r3, r3, #1
 3899              		.loc 1 1321 0 is_stmt 1 discriminator 1
 3900 0088 072B     		cmp	r3, #7
 3901 008a 06D8     		bhi	.L584
 3902              	.L568:
 3903              	.LVL547:
 3904              		.loc 1 1320 0
 3905 008c 072A     		cmp	r2, #7
 3906 008e F4D9     		bls	.L585
 3907              	.LVL548:
 3908              	.L571:
ARM GAS  /tmp/ccICsm2b.s 			page 70


 3909 0090 2021     		movs	r1, #32
 3910              	.LVL549:
 3911 0092 C154     		strb	r1, [r0, r3]
 3912 0094 0133     		adds	r3, r3, #1
 3913              		.loc 1 1321 0
 3914 0096 072B     		cmp	r3, #7
 3915 0098 F8D9     		bls	.L568
 3916              	.L584:
 3917              		.loc 1 1322 0
 3918 009a 03B0     		add	sp, sp, #12
 3919              		@ sp needed
 3920 009c 70BC     		pop	{r4, r5, r6}
 3921              	.LVL550:
 3922 009e 7047     		bx	lr
 3923              	.LVL551:
 3924              	.L569:
 3925              		.loc 1 1313 0
 3926 00a0 1346     		mov	r3, r2
 3927 00a2 F3E7     		b	.L568
 3928              		.cfi_endproc
 3929              	.LFE25:
 3930              		.size	gen_numname, .-gen_numname
 3931 00a4 AFF30080 		.section	.text.dir_register,"ax",%progbits
 3931      AFF30080 
 3931      AFF30080 
 3932              		.align	2
 3933              		.p2align 4,,15
 3934              		.thumb
 3935              		.thumb_func
 3936              		.type	dir_register, %function
 3937              	dir_register:
 3938              	.LFB29:
 3939              		.loc 1 1474 0
 3940              		.cfi_startproc
 3941              		@ args = 0, pretend = 0, frame = 16
 3942              		@ frame_needed = 0, uses_anonymous_args = 0
 3943              	.LVL552:
 3944 0000 2DE9F04F 		push	{r4, r5, r6, r7, r8, r9, r10, fp, lr}
 3945              		.cfi_def_cfa_offset 36
 3946              		.cfi_offset 4, -36
 3947              		.cfi_offset 5, -32
 3948              		.cfi_offset 6, -28
 3949              		.cfi_offset 7, -24
 3950              		.cfi_offset 8, -20
 3951              		.cfi_offset 9, -16
 3952              		.cfi_offset 10, -12
 3953              		.cfi_offset 11, -8
 3954              		.cfi_offset 14, -4
 3955              		.loc 1 1483 0
 3956 0004 8769     		ldr	r7, [r0, #24]
 3957              	.LVL553:
 3958 0006 C669     		ldr	r6, [r0, #28]
 3959              	.LVL554:
 3960              		.loc 1 1474 0
 3961 0008 85B0     		sub	sp, sp, #20
 3962              		.cfi_def_cfa_offset 56
 3963              	.LVL555:
ARM GAS  /tmp/ccICsm2b.s 			page 71


 3964              		.loc 1 1474 0
 3965 000a 0446     		mov	r4, r0
 3966              		.loc 1 1483 0
 3967 000c 3946     		mov	r1, r7
 3968              	.LBB363:
 3969              	.LBB364:
 3970              		.loc 1 530 0
 3971 000e 01AB     		add	r3, sp, #4
 3972              	.LVL556:
 3973              	.L588:
 3974              		.loc 1 541 0
 3975 0010 11F8015B 		ldrb	r5, [r1], #1	@ zero_extendqisi2
 3976              	.LVL557:
 3977 0014 03F8015B 		strb	r5, [r3], #1
 3978              	.LVL558:
 3979              		.loc 1 540 0
 3980 0018 04AA     		add	r2, sp, #16
 3981 001a 9342     		cmp	r3, r2
 3982 001c F8D1     		bne	.L588
 3983              	.LBE364:
 3984              	.LBE363:
 3985              		.loc 1 1489 0
 3986 001e 9DF80F30 		ldrb	r3, [sp, #15]	@ zero_extendqisi2
 3987              	.LVL559:
 3988 0022 DA07     		lsls	r2, r3, #31
 3989 0024 27D5     		bpl	.L589
 3990              		.loc 1 1490 0
 3991 0026 0023     		movs	r3, #0
 3992 0028 FB72     		strb	r3, [r7, #11]
 3993              		.loc 1 1491 0
 3994 002a 0125     		movs	r5, #1
 3995              		.loc 1 1490 0
 3996 002c E361     		str	r3, [r4, #28]
 3997              	.LVL560:
 3998 002e 08E0     		b	.L592
 3999              	.LVL561:
 4000              	.L646:
 4001              	.LBB365:
 4002              	.LBB366:
 4003 0030 FFF7FEFF 		bl	dir_find.part.8
 4004              	.LVL562:
 4005              	.LBE366:
 4006              	.LBE365:
 4007              		.loc 1 1491 0
 4008 0034 0135     		adds	r5, r5, #1
 4009              	.LVL563:
 4010              		.loc 1 1494 0
 4011 0036 0146     		mov	r1, r0
 4012              		.loc 1 1491 0
 4013 0038 ADB2     		uxth	r5, r5
 4014              	.LVL564:
 4015              		.loc 1 1494 0
 4016 003a 80B9     		cbnz	r0, .L590
 4017              		.loc 1 1491 0
 4018 003c 642D     		cmp	r5, #100
 4019 003e 00F0F580 		beq	.L645
 4020              	.LVL565:
ARM GAS  /tmp/ccICsm2b.s 			page 72


 4021              	.L592:
 4022              		.loc 1 1492 0
 4023 0042 3846     		mov	r0, r7
 4024 0044 01A9     		add	r1, sp, #4
 4025              	.LVL566:
 4026 0046 3246     		mov	r2, r6
 4027 0048 2B46     		mov	r3, r5
 4028 004a FFF7FEFF 		bl	gen_numname
 4029              	.LVL567:
 4030              	.LBB368:
 4031              	.LBB367:
 4032              		.loc 1 1363 0
 4033 004e 0021     		movs	r1, #0
 4034 0050 2046     		mov	r0, r4
 4035 0052 FFF7FEFF 		bl	dir_sdi
 4036              	.LVL568:
 4037              		.loc 1 1364 0
 4038 0056 0146     		mov	r1, r0
 4039 0058 2046     		mov	r0, r4
 4040              	.LVL569:
 4041 005a 0029     		cmp	r1, #0
 4042 005c E8D0     		beq	.L646
 4043              	.LVL570:
 4044              	.L590:
 4045              	.LBE367:
 4046              	.LBE368:
 4047              		.loc 1 1497 0
 4048 005e 0429     		cmp	r1, #4
 4049 0060 03D0     		beq	.L647
 4050 0062 0846     		mov	r0, r1
 4051              	.LVL571:
 4052              	.L643:
 4053              		.loc 1 1567 0
 4054 0064 05B0     		add	sp, sp, #20
 4055              		@ sp needed
 4056 0066 BDE8F08F 		pop	{r4, r5, r6, r7, r8, r9, r10, fp, pc}
 4057              	.LVL572:
 4058              	.L647:
 4059              		.loc 1 1498 0
 4060 006a 9DF80F30 		ldrb	r3, [sp, #15]	@ zero_extendqisi2
 4061 006e FB72     		strb	r3, [r7, #11]
 4062 0070 9DF80F30 		ldrb	r3, [sp, #15]	@ zero_extendqisi2
 4063 0074 E661     		str	r6, [r4, #28]
 4064              	.LVL573:
 4065              	.L589:
 4066              		.loc 1 1501 0
 4067 0076 9B07     		lsls	r3, r3, #30
 4068 0078 00F1C080 		bmi	.L648
 4069              	.L623:
 4070              		.loc 1 1505 0
 4071 007c 0127     		movs	r7, #1
 4072              	.LVL574:
 4073              	.L593:
 4074              		.loc 1 1509 0
 4075 007e 2046     		mov	r0, r4
 4076 0080 0021     		movs	r1, #0
 4077 0082 FFF7FEFF 		bl	dir_sdi
ARM GAS  /tmp/ccICsm2b.s 			page 73


 4078              	.LVL575:
 4079              		.loc 1 1510 0
 4080 0086 0028     		cmp	r0, #0
 4081 0088 ECD1     		bne	.L643
 4082 008a 8046     		mov	r8, r0
 4083 008c 0546     		mov	r5, r0
 4084 008e 06E0     		b	.L602
 4085              	.LVL576:
 4086              	.L626:
 4087              		.loc 1 1520 0
 4088 0090 1D46     		mov	r5, r3
 4089              	.LVL577:
 4090              	.L599:
 4091              		.loc 1 1522 0
 4092 0092 FFF7FEFF 		bl	dir_next
 4093              	.LVL578:
 4094              		.loc 1 1523 0
 4095 0096 0346     		mov	r3, r0
 4096 0098 0028     		cmp	r0, #0
 4097 009a 40F0C380 		bne	.L603
 4098              	.LVL579:
 4099              	.L602:
 4100              		.loc 1 1513 0
 4101 009e 2169     		ldr	r1, [r4, #16]
 4102 00a0 2068     		ldr	r0, [r4]
 4103              	.LVL580:
 4104 00a2 FFF7FEFF 		bl	move_window
 4105              	.LVL581:
 4106              		.loc 1 1514 0
 4107 00a6 0346     		mov	r3, r0
 4108              		.loc 1 1518 0
 4109 00a8 6E1C     		adds	r6, r5, #1
 4110              		.loc 1 1522 0
 4111 00aa 2046     		mov	r0, r4
 4112              	.LVL582:
 4113 00ac 0121     		movs	r1, #1
 4114              		.loc 1 1514 0
 4115 00ae 002B     		cmp	r3, #0
 4116 00b0 40F0B880 		bne	.L603
 4117              	.LVL583:
 4118              		.loc 1 1515 0
 4119 00b4 6269     		ldr	r2, [r4, #20]
 4120 00b6 1278     		ldrb	r2, [r2]	@ zero_extendqisi2
 4121              	.LVL584:
 4122              		.loc 1 1516 0
 4123 00b8 E52A     		cmp	r2, #229
 4124 00ba 01D0     		beq	.L598
 4125              		.loc 1 1516 0 is_stmt 0 discriminator 1
 4126 00bc 002A     		cmp	r2, #0
 4127 00be E7D1     		bne	.L626
 4128              	.L598:
 4129              		.loc 1 1517 0 is_stmt 1
 4130 00c0 0DB9     		cbnz	r5, .L600
 4131              		.loc 1 1517 0 is_stmt 0 discriminator 1
 4132 00c2 B4F80680 		ldrh	r8, [r4, #6]
 4133              	.LVL585:
 4134              	.L600:
ARM GAS  /tmp/ccICsm2b.s 			page 74


 4135              		.loc 1 1518 0 is_stmt 1
 4136 00c6 B5B2     		uxth	r5, r6
 4137              	.LVL586:
 4138 00c8 BD42     		cmp	r5, r7
 4139 00ca E2D1     		bne	.L599
 4140              	.LVL587:
 4141              		.loc 1 1525 0
 4142 00cc 012F     		cmp	r7, #1
 4143 00ce 72D0     		beq	.L612
 4144              		.loc 1 1526 0
 4145 00d0 4146     		mov	r1, r8
 4146 00d2 2046     		mov	r0, r4
 4147              	.LVL588:
 4148 00d4 FFF7FEFF 		bl	dir_sdi
 4149              	.LVL589:
 4150              		.loc 1 1527 0
 4151 00d8 0346     		mov	r3, r0
 4152 00da 0028     		cmp	r0, #0
 4153 00dc 40F0A280 		bne	.L603
 4154              		.loc 1 1528 0
 4155 00e0 A269     		ldr	r2, [r4, #24]
 4156              	.LVL590:
 4157              	.LBB369:
 4158              	.LBB370:
 4159              		.loc 1 1337 0
 4160 00e2 8146     		mov	r9, r0
 4161 00e4 02F10B00 		add	r0, r2, #11
 4162              	.LVL591:
 4163              	.L605:
 4164              		.loc 1 1340 0
 4165 00e8 12F8013B 		ldrb	r3, [r2], #1	@ zero_extendqisi2
 4166              	.LVL592:
 4167 00ec 4FEAC911 		lsl	r1, r9, #7
 4168 00f0 41EA5909 		orr	r9, r1, r9, lsr #1
 4169              	.LVL593:
 4170 00f4 53FA89F9 		uxtab	r9, r3, r9
 4171 00f8 8242     		cmp	r2, r0
 4172 00fa 5FFA89F9 		uxtb	r9, r9
 4173              	.LVL594:
 4174 00fe F3D1     		bne	.L605
 4175              	.LBE370:
 4176              	.LBE369:
 4177              		.loc 1 1529 0
 4178 0100 013F     		subs	r7, r7, #1
 4179              	.LVL595:
 4180 0102 DFF83081 		ldr	r8, .L651+4
 4181              	.LVL596:
 4182 0106 1FFA87FB 		uxth	fp, r7
 4183              	.LVL597:
 4184              	.L613:
 4185              		.loc 1 1531 0
 4186 010a 2068     		ldr	r0, [r4]
 4187 010c 2169     		ldr	r1, [r4, #16]
 4188 010e FFF7FEFF 		bl	move_window
 4189              	.LVL598:
 4190 0112 0346     		mov	r3, r0
 4191              	.LVL599:
ARM GAS  /tmp/ccICsm2b.s 			page 75


 4192              		.loc 1 1532 0
 4193 0114 0028     		cmp	r0, #0
 4194 0116 40F08580 		bne	.L603
 4195              		.loc 1 1533 0
 4196 011a 5FFA8BFA 		uxtb	r10, fp
 4197 011e 6569     		ldr	r5, [r4, #20]
 4198 0120 D4F81CE0 		ldr	lr, [r4, #28]
 4199              	.LVL600:
 4200              	.LBB371:
 4201              	.LBB372:
 4202              		.loc 1 1262 0
 4203 0124 2873     		strb	r0, [r5, #12]
 4204              		.loc 1 1265 0
 4205 0126 0AF1FF32 		add	r2, r10, #-1
 4206 012a 02EB4201 		add	r1, r2, r2, lsl #1
 4207              		.loc 1 1261 0
 4208 012e 0F26     		movs	r6, #15
 4209              		.loc 1 1265 0
 4210 0130 02EB8101 		add	r1, r2, r1, lsl #2
 4211              	.LVL601:
 4212              		.loc 1 1263 0
 4213 0134 A876     		strb	r0, [r5, #26]
 4214 0136 E876     		strb	r0, [r5, #27]
 4215              		.loc 1 1266 0
 4216 0138 0246     		mov	r2, r0
 4217              		.loc 1 1260 0
 4218 013a 85F80D90 		strb	r9, [r5, #13]
 4219              		.loc 1 1261 0
 4220 013e EE72     		strb	r6, [r5, #11]
 4221              		.loc 1 1268 0
 4222 0140 4FF6FF70 		movw	r0, #65535
 4223              	.LVL602:
 4224              		.loc 1 1269 0
 4225 0144 4FF0FF0C 		mov	ip, #255
 4226 0148 0DE0     		b	.L609
 4227              	.LVL603:
 4228              	.L650:
 4229              		.loc 1 1268 0
 4230 014a 3EF81130 		ldrh	r3, [lr, r1, lsl #1]
 4231              		.loc 1 1269 0
 4232 014e AB55     		strb	r3, [r5, r6]
 4233              		.loc 1 1271 0
 4234 0150 0132     		adds	r2, r2, #1
 4235              	.LVL604:
 4236              		.loc 1 1269 0
 4237 0152 2E44     		add	r6, r6, r5
 4238 0154 1F0A     		lsrs	r7, r3, #8
 4239              		.loc 1 1270 0
 4240 0156 002B     		cmp	r3, #0
 4241 0158 08BF     		it	eq
 4242 015a 0346     		moveq	r3, r0
 4243              		.loc 1 1271 0
 4244 015c 0D2A     		cmp	r2, #13
 4245              		.loc 1 1268 0
 4246 015e 01F10101 		add	r1, r1, #1
 4247              	.LVL605:
 4248              		.loc 1 1269 0
ARM GAS  /tmp/ccICsm2b.s 			page 76


 4249 0162 7770     		strb	r7, [r6, #1]
 4250              		.loc 1 1271 0
 4251 0164 0BD0     		beq	.L649
 4252              	.LVL606:
 4253              	.L609:
 4254              		.loc 1 1268 0
 4255 0166 8342     		cmp	r3, r0
 4256              		.loc 1 1269 0
 4257 0168 18F80260 		ldrb	r6, [r8, r2]	@ zero_extendqisi2
 4258              		.loc 1 1268 0
 4259 016c EDD1     		bne	.L650
 4260              	.LVL607:
 4261              		.loc 1 1269 0
 4262 016e AF19     		adds	r7, r5, r6
 4263              		.loc 1 1271 0
 4264 0170 0132     		adds	r2, r2, #1
 4265              	.LVL608:
 4266 0172 0D2A     		cmp	r2, #13
 4267              		.loc 1 1269 0
 4268 0174 05F806C0 		strb	ip, [r5, r6]
 4269 0178 87F801C0 		strb	ip, [r7, #1]
 4270              	.LVL609:
 4271              		.loc 1 1271 0
 4272 017c F3D1     		bne	.L609
 4273              	.L649:
 4274              		.loc 1 1272 0
 4275 017e 4FF6FF72 		movw	r2, #65535
 4276              	.LVL610:
 4277 0182 9342     		cmp	r3, r2
 4278 0184 02D0     		beq	.L610
 4279 0186 3EF81130 		ldrh	r3, [lr, r1, lsl #1]
 4280 018a 0BB9     		cbnz	r3, .L611
 4281              	.L610:
 4282 018c 4AF0400A 		orr	r10, r10, #64
 4283              	.LVL611:
 4284              	.L611:
 4285              		.loc 1 1273 0
 4286 0190 85F800A0 		strb	r10, [r5]
 4287              	.LBE372:
 4288              	.LBE371:
 4289              		.loc 1 1534 0
 4290 0194 2368     		ldr	r3, [r4]
 4291 0196 0122     		movs	r2, #1
 4292 0198 1A71     		strb	r2, [r3, #4]
 4293              		.loc 1 1535 0
 4294 019a 2046     		mov	r0, r4
 4295 019c 0021     		movs	r1, #0
 4296              	.LVL612:
 4297 019e FFF7FEFF 		bl	dir_next
 4298              	.LVL613:
 4299              		.loc 1 1536 0
 4300 01a2 0346     		mov	r3, r0
 4301 01a4 0028     		cmp	r0, #0
 4302 01a6 3DD1     		bne	.L603
 4303              		.loc 1 1536 0 is_stmt 0 discriminator 1
 4304 01a8 0BF1FF3B 		add	fp, fp, #-1
 4305              	.LVL614:
ARM GAS  /tmp/ccICsm2b.s 			page 77


 4306 01ac 1FFA8BFB 		uxth	fp, fp
 4307              	.LVL615:
 4308 01b0 BBF1000F 		cmp	fp, #0
 4309 01b4 A9D1     		bne	.L613
 4310              	.LVL616:
 4311              	.L612:
 4312              		.loc 1 1554 0 is_stmt 1
 4313 01b6 2068     		ldr	r0, [r4]
 4314 01b8 2169     		ldr	r1, [r4, #16]
 4315 01ba FFF7FEFF 		bl	move_window
 4316              	.LVL617:
 4317              		.loc 1 1555 0
 4318 01be 0028     		cmp	r0, #0
 4319 01c0 7FF450AF 		bne	.L643
 4320              		.loc 1 1556 0
 4321 01c4 6569     		ldr	r5, [r4, #20]
 4322              	.LVL618:
 4323 01c6 05F12002 		add	r2, r5, #32
 4324              	.LBB373:
 4325              	.LBB374:
 4326              		.loc 1 547 0
 4327 01ca 2B46     		mov	r3, r5
 4328              	.LVL619:
 4329              	.L615:
 4330              		.loc 1 550 0
 4331 01cc 03F8010B 		strb	r0, [r3], #1
 4332              	.LVL620:
 4333              		.loc 1 549 0
 4334 01d0 9342     		cmp	r3, r2
 4335 01d2 FBD1     		bne	.L615
 4336              	.LBE374:
 4337              	.LBE373:
 4338              		.loc 1 1558 0
 4339 01d4 A369     		ldr	r3, [r4, #24]
 4340              	.LVL621:
 4341              	.LBB375:
 4342              	.LBB376:
 4343              		.loc 1 530 0
 4344 01d6 2A46     		mov	r2, r5
 4345 01d8 03F10B00 		add	r0, r3, #11
 4346              	.LVL622:
 4347              	.L617:
 4348              		.loc 1 541 0
 4349 01dc 13F8011B 		ldrb	r1, [r3], #1	@ zero_extendqisi2
 4350              	.LVL623:
 4351 01e0 02F8011B 		strb	r1, [r2], #1
 4352              	.LVL624:
 4353              		.loc 1 540 0
 4354 01e4 8342     		cmp	r3, r0
 4355 01e6 F9D1     		bne	.L617
 4356              	.LBE376:
 4357              	.LBE375:
 4358              		.loc 1 1560 0
 4359 01e8 A369     		ldr	r3, [r4, #24]
 4360              	.LVL625:
 4361 01ea DB7A     		ldrb	r3, [r3, #11]	@ zero_extendqisi2
 4362 01ec 03F01803 		and	r3, r3, #24
ARM GAS  /tmp/ccICsm2b.s 			page 78


 4363 01f0 2B73     		strb	r3, [r5, #12]
 4364              		.loc 1 1562 0
 4365 01f2 2368     		ldr	r3, [r4]
 4366 01f4 0122     		movs	r2, #1
 4367              	.LVL626:
 4368 01f6 1A71     		strb	r2, [r3, #4]
 4369 01f8 0020     		movs	r0, #0
 4370              	.LVL627:
 4371 01fa 33E7     		b	.L643
 4372              	.LVL628:
 4373              	.L648:
 4374              		.loc 1 1502 0 discriminator 1
 4375 01fc 3388     		ldrh	r3, [r6]
 4376 01fe 002B     		cmp	r3, #0
 4377 0200 3FF43CAF 		beq	.L623
 4378              		.loc 1 1502 0 is_stmt 0
 4379 0204 0023     		movs	r3, #0
 4380              	.LVL629:
 4381              	.L596:
 4382              		.loc 1 1502 0 discriminator 2
 4383 0206 0133     		adds	r3, r3, #1
 4384              	.LVL630:
 4385 0208 9BB2     		uxth	r3, r3
 4386              	.LVL631:
 4387 020a 36F81320 		ldrh	r2, [r6, r3, lsl #1]
 4388 020e 002A     		cmp	r2, #0
 4389 0210 F9D1     		bne	.L596
 4390 0212 074F     		ldr	r7, .L651
 4391              	.LVL632:
 4392 0214 1933     		adds	r3, r3, #25
 4393              	.LVL633:
 4394 0216 87FB0327 		smull	r2, r7, r7, r3
 4395 021a DB17     		asrs	r3, r3, #31
 4396              	.LVL634:
 4397 021c C3EBA707 		rsb	r7, r3, r7, asr #2
 4398 0220 BFB2     		uxth	r7, r7
 4399 0222 2CE7     		b	.L593
 4400              	.LVL635:
 4401              	.L603:
 4402 0224 1846     		mov	r0, r3
 4403              		.loc 1 1567 0 is_stmt 1
 4404 0226 05B0     		add	sp, sp, #20
 4405              		@ sp needed
 4406 0228 BDE8F08F 		pop	{r4, r5, r6, r7, r8, r9, r10, fp, pc}
 4407              	.LVL636:
 4408              	.L645:
 4409              		.loc 1 1496 0
 4410 022c 0720     		movs	r0, #7
 4411 022e 19E7     		b	.L643
 4412              	.L652:
 4413              		.align	2
 4414              	.L651:
 4415 0230 4FECC44E 		.word	1321528399
 4416 0234 00000000 		.word	.LANCHOR2
 4417              		.cfi_endproc
 4418              	.LFE29:
 4419              		.size	dir_register, .-dir_register
ARM GAS  /tmp/ccICsm2b.s 			page 79


 4420 0238 AFF30080 		.section	.text.f_mount,"ax",%progbits
 4420      AFF30080 
 4421              		.align	2
 4422              		.p2align 4,,15
 4423              		.global	f_mount
 4424              		.thumb
 4425              		.thumb_func
 4426              		.type	f_mount, %function
 4427              	f_mount:
 4428              	.LFB37:
 4429              		.loc 1 2207 0
 4430              		.cfi_startproc
 4431              		@ args = 0, pretend = 0, frame = 0
 4432              		@ frame_needed = 0, uses_anonymous_args = 0
 4433              	.LVL637:
 4434 0000 F8B5     		push	{r3, r4, r5, r6, r7, lr}
 4435              		.cfi_def_cfa_offset 24
 4436              		.cfi_offset 3, -24
 4437              		.cfi_offset 4, -20
 4438              		.cfi_offset 5, -16
 4439              		.cfi_offset 6, -12
 4440              		.cfi_offset 7, -8
 4441              		.cfi_offset 14, -4
 4442              		.loc 1 2211 0
 4443 0002 0446     		mov	r4, r0
 4444              		.loc 1 2207 0
 4445 0004 0D46     		mov	r5, r1
 4446              		.loc 1 2211 0
 4447 0006 08B1     		cbz	r0, .L667
 4448              		.loc 1 2212 0
 4449 0008 0B20     		movs	r0, #11
 4450              	.LVL638:
 4451              		.loc 1 2234 0
 4452 000a F8BD     		pop	{r3, r4, r5, r6, r7, pc}
 4453              	.LVL639:
 4454              	.L667:
 4455              		.loc 1 2213 0
 4456 000c 0A4F     		ldr	r7, .L668
 4457 000e 3E68     		ldr	r6, [r7]
 4458              	.LVL640:
 4459              		.loc 1 2215 0
 4460 0010 36B1     		cbz	r6, .L655
 4461              		.loc 1 2220 0
 4462 0012 F068     		ldr	r0, [r6, #12]
 4463              	.LVL641:
 4464 0014 FFF7FEFF 		bl	ff_del_syncobj
 4465              	.LVL642:
 4466 0018 08B9     		cbnz	r0, .L656
 4467              	.L658:
 4468 001a 0220     		movs	r0, #2
 4469 001c F8BD     		pop	{r3, r4, r5, r6, r7, pc}
 4470              	.LVL643:
 4471              	.L656:
 4472              		.loc 1 2222 0
 4473 001e 3470     		strb	r4, [r6]
 4474              	.L655:
 4475              		.loc 1 2225 0
ARM GAS  /tmp/ccICsm2b.s 			page 80


 4476 0020 3DB1     		cbz	r5, .L659
 4477              		.loc 1 2226 0
 4478 0022 2946     		mov	r1, r5
 4479 0024 0020     		movs	r0, #0
 4480 0026 01F80C0B 		strb	r0, [r1], #12
 4481              		.loc 1 2228 0
 4482 002a FFF7FEFF 		bl	ff_cre_syncobj
 4483              	.LVL644:
 4484 002e 0028     		cmp	r0, #0
 4485 0030 F3D0     		beq	.L658
 4486              	.L659:
 4487              		.loc 1 2231 0
 4488 0032 3D60     		str	r5, [r7]
 4489              		.loc 1 2233 0
 4490 0034 0020     		movs	r0, #0
 4491 0036 F8BD     		pop	{r3, r4, r5, r6, r7, pc}
 4492              	.LVL645:
 4493              	.L669:
 4494              		.align	2
 4495              	.L668:
 4496 0038 00000000 		.word	.LANCHOR0
 4497              		.cfi_endproc
 4498              	.LFE37:
 4499              		.size	f_mount, .-f_mount
 4500 003c AFF30080 		.section	.text.f_open,"ax",%progbits
 4501              		.align	2
 4502              		.p2align 4,,15
 4503              		.global	f_open
 4504              		.thumb
 4505              		.thumb_func
 4506              		.type	f_open, %function
 4507              	f_open:
 4508              	.LFB38:
 4509              		.loc 1 2248 0
 4510              		.cfi_startproc
 4511              		@ args = 0, pretend = 0, frame = 56
 4512              		@ frame_needed = 0, uses_anonymous_args = 0
 4513              	.LVL646:
 4514 0000 2DE9F047 		push	{r4, r5, r6, r7, r8, r9, r10, lr}
 4515              		.cfi_def_cfa_offset 32
 4516              		.cfi_offset 4, -32
 4517              		.cfi_offset 5, -28
 4518              		.cfi_offset 6, -24
 4519              		.cfi_offset 7, -20
 4520              		.cfi_offset 8, -16
 4521              		.cfi_offset 9, -12
 4522              		.cfi_offset 10, -8
 4523              		.cfi_offset 14, -4
 4524 0004 8EB0     		sub	sp, sp, #56
 4525              		.cfi_def_cfa_offset 88
 4526              		.loc 1 2248 0
 4527 0006 0EAB     		add	r3, sp, #56
 4528 0008 9046     		mov	r8, r2
 4529 000a 43F8341D 		str	r1, [r3, #-52]!
 4530              		.loc 1 2255 0
 4531 000e 0022     		movs	r2, #0
 4532              	.LVL647:
ARM GAS  /tmp/ccICsm2b.s 			page 81


 4533 0010 0260     		str	r2, [r0]
 4534              		.loc 1 2259 0
 4535 0012 05A9     		add	r1, sp, #20
 4536              	.LVL648:
 4537 0014 08F01E02 		and	r2, r8, #30
 4538              		.loc 1 2248 0
 4539 0018 0546     		mov	r5, r0
 4540              		.loc 1 2259 0
 4541 001a 1846     		mov	r0, r3
 4542              	.LVL649:
 4543 001c FFF7FEFF 		bl	chk_mounted
 4544              	.LVL650:
 4545 0020 0646     		mov	r6, r0
 4546              		.loc 1 2264 0
 4547 0022 4FF40070 		mov	r0, #512
 4548 0026 FFF7FEFF 		bl	ff_memalloc
 4549              	.LVL651:
 4550              		.loc 1 2258 0
 4551 002a 08F01F09 		and	r9, r8, #31
 4552              	.LVL652:
 4553              		.loc 1 2264 0
 4554 002e 0746     		mov	r7, r0
 4555 0030 0028     		cmp	r0, #0
 4556 0032 7CD0     		beq	.L717
 4557              		.loc 1 2264 0 is_stmt 0 discriminator 2
 4558 0034 02AB     		add	r3, sp, #8
 4559 0036 0C90     		str	r0, [sp, #48]
 4560 0038 0B93     		str	r3, [sp, #44]
 4561              		.loc 1 2265 0 is_stmt 1 discriminator 2
 4562 003a 96B1     		cbz	r6, .L718
 4563              	.LVL653:
 4564              	.L673:
 4565              		.loc 1 2279 0
 4566 003c 18F01C0F 		tst	r8, #28
 4567 0040 71D0     		beq	.L715
 4568              	.LBB386:
 4569              		.loc 1 2283 0
 4570 0042 042E     		cmp	r6, #4
 4571 0044 6FD1     		bne	.L715
 4572              		.loc 1 2287 0
 4573 0046 05A8     		add	r0, sp, #20
 4574 0048 FFF7FEFF 		bl	dir_register
 4575              	.LVL654:
 4576              		.loc 1 2289 0
 4577 004c 49F00809 		orr	r9, r9, #8
 4578              	.LVL655:
 4579              		.loc 1 2300 0
 4580 0050 0646     		mov	r6, r0
 4581              		.loc 1 2290 0
 4582 0052 0A9C     		ldr	r4, [sp, #40]
 4583              	.LVL656:
 4584              		.loc 1 2300 0
 4585 0054 0028     		cmp	r0, #0
 4586 0056 66D1     		bne	.L715
 4587              	.LVL657:
 4588              	.L675:
 4589              		.loc 1 2300 0 is_stmt 0 discriminator 1
ARM GAS  /tmp/ccICsm2b.s 			page 82


 4590 0058 19F0080F 		tst	r9, #8
 4591 005c 74D1     		bne	.L719
 4592 005e 059B     		ldr	r3, [sp, #20]
 4593              	.LVL658:
 4594 0060 37E0     		b	.L686
 4595              	.LVL659:
 4596              	.L718:
 4597              	.LBE386:
 4598              		.loc 1 2266 0 is_stmt 1
 4599 0062 05A8     		add	r0, sp, #20
 4600              	.LVL660:
 4601 0064 0199     		ldr	r1, [sp, #4]
 4602 0066 FFF7FEFF 		bl	follow_path
 4603              	.LVL661:
 4604              		.loc 1 2267 0
 4605 006a 0A9C     		ldr	r4, [sp, #40]
 4606              	.LVL662:
 4607              		.loc 1 2270 0
 4608 006c 0646     		mov	r6, r0
 4609 006e 0028     		cmp	r0, #0
 4610 0070 E4D1     		bne	.L673
 4611              		.loc 1 2271 0
 4612 0072 002C     		cmp	r4, #0
 4613 0074 63D0     		beq	.L720
 4614              	.LVL663:
 4615              		.loc 1 2279 0
 4616 0076 18F01C0F 		tst	r8, #28
 4617 007a 09D0     		beq	.L721
 4618              	.LBB391:
 4619              		.loc 1 2293 0
 4620 007c E37A     		ldrb	r3, [r4, #11]	@ zero_extendqisi2
 4621 007e 13F0110F 		tst	r3, #17
 4622 0082 5ED1     		bne	.L699
 4623              		.loc 1 2296 0
 4624 0084 18F0040F 		tst	r8, #4
 4625 0088 E6D0     		beq	.L675
 4626 008a FD24     		movs	r4, #253
 4627              	.LVL664:
 4628              		.loc 1 2297 0
 4629 008c 0826     		movs	r6, #8
 4630 008e 04E0     		b	.L682
 4631              	.LVL665:
 4632              	.L721:
 4633              	.LBE391:
 4634              		.loc 1 2320 0
 4635 0090 E37A     		ldrb	r3, [r4, #11]	@ zero_extendqisi2
 4636 0092 DA06     		lsls	r2, r3, #27
 4637 0094 11D5     		bpl	.L722
 4638 0096 F924     		movs	r4, #249
 4639              	.LVL666:
 4640              		.loc 1 2321 0
 4641 0098 0426     		movs	r6, #4
 4642              	.LVL667:
 4643              	.L682:
 4644              		.loc 1 2349 0
 4645 009a 3846     		mov	r0, r7
 4646 009c FFF7FEFF 		bl	ff_memfree
ARM GAS  /tmp/ccICsm2b.s 			page 83


 4647              	.LVL668:
 4648              	.LBB392:
 4649              	.LBB393:
 4650              		.loc 1 592 0
 4651 00a0 012C     		cmp	r4, #1
 4652 00a2 0598     		ldr	r0, [sp, #20]
 4653              	.LVL669:
 4654 00a4 3BD9     		bls	.L716
 4655              		.loc 1 593 0
 4656 00a6 092E     		cmp	r6, #9
 4657 00a8 39D0     		beq	.L716
 4658              	.LVL670:
 4659              	.L685:
 4660 00aa 0C30     		adds	r0, r0, #12
 4661              	.LVL671:
 4662 00ac 3146     		mov	r1, r6
 4663 00ae FFF7FEFF 		bl	unlock_fs.isra.4.part.5
 4664              	.LVL672:
 4665 00b2 3046     		mov	r0, r6
 4666              	.LBE393:
 4667              	.LBE392:
 4668              		.loc 1 2364 0
 4669 00b4 0EB0     		add	sp, sp, #56
 4670              	.LVL673:
 4671              		@ sp needed
 4672 00b6 BDE8F087 		pop	{r4, r5, r6, r7, r8, r9, r10, pc}
 4673              	.LVL674:
 4674              	.L722:
 4675              		.loc 1 2323 0
 4676 00ba 18F0020F 		tst	r8, #2
 4677 00be 01D0     		beq	.L713
 4678              		.loc 1 2323 0 is_stmt 0 discriminator 1
 4679 00c0 DB07     		lsls	r3, r3, #31
 4680 00c2 3ED4     		bmi	.L699
 4681              	.L713:
 4682 00c4 08F00802 		and	r2, r8, #8
 4683 00c8 D2B2     		uxtb	r2, r2
 4684 00ca 059B     		ldr	r3, [sp, #20]
 4685              		.loc 1 2329 0 is_stmt 1
 4686 00cc 0AB1     		cbz	r2, .L686
 4687              	.LVL675:
 4688              	.L679:
 4689              		.loc 1 2330 0
 4690 00ce 49F02009 		orr	r9, r9, #32
 4691              	.LVL676:
 4692              	.L686:
 4693              		.loc 1 2331 0
 4694 00d2 1B6B     		ldr	r3, [r3, #48]
 4695 00d4 EB61     		str	r3, [r5, #28]
 4696              		.loc 1 2349 0
 4697 00d6 3846     		mov	r0, r7
 4698              		.loc 1 2332 0
 4699 00d8 2C62     		str	r4, [r5, #32]
 4700              		.loc 1 2349 0
 4701 00da FFF7FEFF 		bl	ff_memfree
 4702              	.LVL677:
 4703              		.loc 1 2352 0
ARM GAS  /tmp/ccICsm2b.s 			page 84


 4704 00de 85F80690 		strb	r9, [r5, #6]
 4705              		.loc 1 2353 0
 4706 00e2 667D     		ldrb	r6, [r4, #21]	@ zero_extendqisi2
 4707 00e4 A17E     		ldrb	r1, [r4, #26]	@ zero_extendqisi2
 4708 00e6 227D     		ldrb	r2, [r4, #20]	@ zero_extendqisi2
 4709 00e8 E37E     		ldrb	r3, [r4, #27]	@ zero_extendqisi2
 4710              		.loc 1 2360 0
 4711 00ea 0598     		ldr	r0, [sp, #20]
 4712              		.loc 1 2353 0
 4713 00ec 42EA0622 		orr	r2, r2, r6, lsl #8
 4714 00f0 41EA0323 		orr	r3, r1, r3, lsl #8
 4715 00f4 43EA0243 		orr	r3, r3, r2, lsl #16
 4716 00f8 2B61     		str	r3, [r5, #16]
 4717              		.loc 1 2354 0
 4718 00fa A27F     		ldrb	r2, [r4, #30]	@ zero_extendqisi2
 4719 00fc E77F     		ldrb	r7, [r4, #31]	@ zero_extendqisi2
 4720              	.LVL678:
 4721 00fe 267F     		ldrb	r6, [r4, #28]	@ zero_extendqisi2
 4722 0100 617F     		ldrb	r1, [r4, #29]	@ zero_extendqisi2
 4723              		.loc 1 2360 0
 4724 0102 C388     		ldrh	r3, [r0, #6]
 4725 0104 AB80     		strh	r3, [r5, #4]	@ movhi
 4726              	.LVL679:
 4727              		.loc 1 2354 0
 4728 0106 1204     		lsls	r2, r2, #16
 4729 0108 42EA0762 		orr	r2, r2, r7, lsl #24
 4730 010c 3243     		orrs	r2, r2, r6
 4731 010e 42EA0122 		orr	r2, r2, r1, lsl #8
 4732              		.loc 1 2355 0
 4733 0112 0026     		movs	r6, #0
 4734              		.loc 1 2360 0
 4735 0114 2860     		str	r0, [r5]
 4736              		.loc 1 2354 0
 4737 0116 EA60     		str	r2, [r5, #12]
 4738              		.loc 1 2355 0
 4739 0118 AE60     		str	r6, [r5, #8]
 4740              		.loc 1 2356 0
 4741 011a AE61     		str	r6, [r5, #24]
 4742 011c C5E7     		b	.L685
 4743              	.LVL680:
 4744              	.L716:
 4745              	.LBB395:
 4746              	.LBB394:
 4747              		.loc 1 592 0
 4748 011e 3046     		mov	r0, r6
 4749              	.LVL681:
 4750              	.LBE394:
 4751              	.LBE395:
 4752              		.loc 1 2364 0
 4753 0120 0EB0     		add	sp, sp, #56
 4754              	.LVL682:
 4755              		@ sp needed
 4756 0122 BDE8F087 		pop	{r4, r5, r6, r7, r8, r9, r10, pc}
 4757              	.LVL683:
 4758              	.L715:
 4759 0126 A6F10B04 		sub	r4, r6, #11
 4760 012a E4B2     		uxtb	r4, r4
ARM GAS  /tmp/ccICsm2b.s 			page 85


 4761 012c B5E7     		b	.L682
 4762              	.LVL684:
 4763              	.L717:
 4764              	.LBB396:
 4765              	.LBB397:
 4766              	.LBB398:
 4767              		.loc 1 596 0 discriminator 1
 4768 012e 059B     		ldr	r3, [sp, #20]
 4769 0130 D868     		ldr	r0, [r3, #12]
 4770              	.LVL685:
 4771 0132 FFF7FEFF 		bl	ff_rel_grant
 4772              	.LVL686:
 4773              	.LBE398:
 4774              	.LBE397:
 4775              	.LBE396:
 4776              		.loc 1 2264 0 discriminator 1
 4777 0136 1120     		movs	r0, #17
 4778              		.loc 1 2364 0 discriminator 1
 4779 0138 0EB0     		add	sp, sp, #56
 4780              	.LVL687:
 4781              		@ sp needed
 4782 013a BDE8F087 		pop	{r4, r5, r6, r7, r8, r9, r10, pc}
 4783              	.LVL688:
 4784              	.L720:
 4785              		.loc 1 2272 0
 4786 013e 0626     		movs	r6, #6
 4787 0140 7CE7     		b	.L673
 4788              	.LVL689:
 4789              	.L699:
 4790 0142 FC24     		movs	r4, #252
 4791              	.LVL690:
 4792              		.loc 1 2324 0
 4793 0144 0726     		movs	r6, #7
 4794              	.LVL691:
 4795 0146 A8E7     		b	.L682
 4796              	.LVL692:
 4797              	.L719:
 4798              	.LBB399:
 4799              		.loc 1 2301 0
 4800 0148 FFF7FEFF 		bl	get_fattime
 4801              	.LVL693:
 4802              		.loc 1 2305 0
 4803 014c 94F815E0 		ldrb	lr, [r4, #21]	@ zero_extendqisi2
 4804 0150 A27E     		ldrb	r2, [r4, #26]	@ zero_extendqisi2
 4805 0152 267D     		ldrb	r6, [r4, #20]	@ zero_extendqisi2
 4806 0154 E17E     		ldrb	r1, [r4, #27]	@ zero_extendqisi2
 4807              		.loc 1 2307 0
 4808 0156 059B     		ldr	r3, [sp, #20]
 4809              		.loc 1 2302 0
 4810 0158 A073     		strb	r0, [r4, #14]
 4811 015a C0F30728 		ubfx	r8, r0, #8, #8
 4812              		.loc 1 2305 0
 4813 015e 46EA0E26 		orr	r6, r6, lr, lsl #8
 4814 0162 42EA0121 		orr	r1, r2, r1, lsl #8
 4815              	.LVL694:
 4816              		.loc 1 2302 0
 4817 0166 4FEA104C 		lsr	ip, r0, #16
ARM GAS  /tmp/ccICsm2b.s 			page 86


 4818              		.loc 1 2303 0
 4819 016a 0022     		movs	r2, #0
 4820              		.loc 1 2302 0
 4821 016c 84F80F80 		strb	r8, [r4, #15]
 4822 0170 000E     		lsrs	r0, r0, #24
 4823              	.LVL695:
 4824              		.loc 1 2307 0
 4825 0172 4FF0010E 		mov	lr, #1
 4826              		.loc 1 2308 0
 4827 0176 51EA0648 		orrs	r8, r1, r6, lsl #16
 4828              	.LVL696:
 4829              		.loc 1 2302 0
 4830 017a 84F810C0 		strb	ip, [r4, #16]
 4831 017e 6074     		strb	r0, [r4, #17]
 4832              		.loc 1 2303 0
 4833 0180 E272     		strb	r2, [r4, #11]
 4834              		.loc 1 2304 0
 4835 0182 2277     		strb	r2, [r4, #28]
 4836 0184 6277     		strb	r2, [r4, #29]
 4837 0186 A277     		strb	r2, [r4, #30]
 4838 0188 E277     		strb	r2, [r4, #31]
 4839              		.loc 1 2306 0
 4840 018a A276     		strb	r2, [r4, #26]
 4841 018c E276     		strb	r2, [r4, #27]
 4842 018e 2275     		strb	r2, [r4, #20]
 4843 0190 6275     		strb	r2, [r4, #21]
 4844              		.loc 1 2307 0
 4845 0192 83F804E0 		strb	lr, [r3, #4]
 4846              		.loc 1 2308 0
 4847 0196 9AD0     		beq	.L679
 4848              	.LBB387:
 4849              	.LBB388:
 4850              		.loc 1 936 0
 4851 0198 F045     		cmp	r8, lr
 4852              	.LBE388:
 4853              	.LBE387:
 4854              		.loc 1 2309 0
 4855 019a D3F830A0 		ldr	r10, [r3, #48]
 4856              	.LVL697:
 4857              	.LBB390:
 4858              	.LBB389:
 4859              		.loc 1 936 0
 4860 019e 02D0     		beq	.L697
 4861 01a0 DA69     		ldr	r2, [r3, #28]
 4862 01a2 9045     		cmp	r8, r2
 4863 01a4 02D3     		bcc	.L723
 4864              	.L697:
 4865 01a6 F724     		movs	r4, #247
 4866              	.LVL698:
 4867 01a8 0226     		movs	r6, #2
 4868 01aa 76E7     		b	.L682
 4869              	.LVL699:
 4870              	.L723:
 4871 01ac 1846     		mov	r0, r3
 4872 01ae 4146     		mov	r1, r8
 4873 01b0 FFF7FEFF 		bl	remove_chain.part.9
 4874              	.LVL700:
ARM GAS  /tmp/ccICsm2b.s 			page 87


 4875              	.LBE389:
 4876              	.LBE390:
 4877              		.loc 1 2311 0
 4878 01b4 0646     		mov	r6, r0
 4879 01b6 0028     		cmp	r0, #0
 4880 01b8 B5D1     		bne	.L715
 4881              		.loc 1 2312 0
 4882 01ba 0598     		ldr	r0, [sp, #20]
 4883              	.LVL701:
 4884 01bc 08F1FF33 		add	r3, r8, #-1
 4885              		.loc 1 2313 0
 4886 01c0 5146     		mov	r1, r10
 4887              		.loc 1 2312 0
 4888 01c2 0361     		str	r3, [r0, #16]
 4889              		.loc 1 2313 0
 4890 01c4 FFF7FEFF 		bl	move_window
 4891              	.LVL702:
 4892              	.LBE399:
 4893              		.loc 1 2328 0
 4894 01c8 0646     		mov	r6, r0
 4895 01ca 0028     		cmp	r0, #0
 4896 01cc ABD1     		bne	.L715
 4897 01ce 059B     		ldr	r3, [sp, #20]
 4898 01d0 7DE7     		b	.L679
 4899              		.cfi_endproc
 4900              	.LFE38:
 4901              		.size	f_open, .-f_open
 4902 01d2 00BFAFF3 		.section	.text.f_read,"ax",%progbits
 4902      0080AFF3 
 4902      0080AFF3 
 4902      0080
 4903              		.align	2
 4904              		.p2align 4,,15
 4905              		.global	f_read
 4906              		.thumb
 4907              		.thumb_func
 4908              		.type	f_read, %function
 4909              	f_read:
 4910              	.LFB39:
 4911              		.loc 1 2379 0
 4912              		.cfi_startproc
 4913              		@ args = 0, pretend = 0, frame = 8
 4914              		@ frame_needed = 0, uses_anonymous_args = 0
 4915              	.LVL703:
 4916 0000 2DE9F04F 		push	{r4, r5, r6, r7, r8, r9, r10, fp, lr}
 4917              		.cfi_def_cfa_offset 36
 4918              		.cfi_offset 4, -36
 4919              		.cfi_offset 5, -32
 4920              		.cfi_offset 6, -28
 4921              		.cfi_offset 7, -24
 4922              		.cfi_offset 8, -20
 4923              		.cfi_offset 9, -16
 4924              		.cfi_offset 10, -12
 4925              		.cfi_offset 11, -8
 4926              		.cfi_offset 14, -4
 4927 0004 0646     		mov	r6, r0
 4928 0006 9946     		mov	r9, r3
ARM GAS  /tmp/ccICsm2b.s 			page 88


 4929              		.loc 1 2386 0
 4930 0008 0023     		movs	r3, #0
 4931              	.LVL704:
 4932              		.loc 1 2379 0
 4933 000a 83B0     		sub	sp, sp, #12
 4934              		.cfi_def_cfa_offset 48
 4935              		.loc 1 2379 0
 4936 000c 8A46     		mov	r10, r1
 4937              	.LVL705:
 4938              		.loc 1 2386 0
 4939 000e C9F80030 		str	r3, [r9]
 4940              		.loc 1 2388 0
 4941 0012 0068     		ldr	r0, [r0]
 4942              	.LVL706:
 4943 0014 B188     		ldrh	r1, [r6, #4]
 4944              	.LVL707:
 4945              		.loc 1 2379 0
 4946 0016 1746     		mov	r7, r2
 4947              		.loc 1 2388 0
 4948 0018 FFF7FEFF 		bl	validate
 4949              	.LVL708:
 4950              		.loc 1 2389 0
 4951 001c 0446     		mov	r4, r0
 4952 001e 78B1     		cbz	r0, .L725
 4953              	.LBB446:
 4954              	.LBB447:
 4955              		.loc 1 592 0 discriminator 1
 4956 0020 A0F10B03 		sub	r3, r0, #11
 4957 0024 DBB2     		uxtb	r3, r3
 4958 0026 012B     		cmp	r3, #1
 4959              	.LBE447:
 4960              	.LBE446:
 4961              		.loc 1 2389 0 discriminator 1
 4962 0028 3068     		ldr	r0, [r6]
 4963              	.LVL709:
 4964              	.LBB450:
 4965              	.LBB448:
 4966              		.loc 1 592 0 discriminator 1
 4967 002a 6FD9     		bls	.L756
 4968              		.loc 1 593 0
 4969 002c 092C     		cmp	r4, #9
 4970 002e 6DD0     		beq	.L756
 4971 0030 0C30     		adds	r0, r0, #12
 4972              	.LVL710:
 4973 0032 2146     		mov	r1, r4
 4974 0034 FFF7FEFF 		bl	unlock_fs.isra.4.part.5
 4975              	.LVL711:
 4976 0038 2046     		mov	r0, r4
 4977              	.LVL712:
 4978              	.L726:
 4979              	.LBE448:
 4980              	.LBE450:
 4981              		.loc 1 2464 0
 4982 003a 03B0     		add	sp, sp, #12
 4983              		@ sp needed
 4984 003c BDE8F08F 		pop	{r4, r5, r6, r7, r8, r9, r10, fp, pc}
 4985              	.LVL713:
ARM GAS  /tmp/ccICsm2b.s 			page 89


 4986              	.L725:
 4987              		.loc 1 2390 0
 4988 0040 B379     		ldrb	r3, [r6, #6]	@ zero_extendqisi2
 4989 0042 1A06     		lsls	r2, r3, #24
 4990 0044 00F1B380 		bmi	.L773
 4991              		.loc 1 2392 0
 4992 0048 DD07     		lsls	r5, r3, #31
 4993 004a 40F1BF80 		bpl	.L774
 4994              		.loc 1 2394 0
 4995 004e B568     		ldr	r5, [r6, #8]
 4996 0050 F368     		ldr	r3, [r6, #12]
 4997 0052 5B1B     		subs	r3, r3, r5
 4998              	.LVL714:
 4999 0054 9F42     		cmp	r7, r3
 5000 0056 28BF     		it	cs
 5001 0058 1F46     		movcs	r7, r3
 5002              	.LVL715:
 5003              		.loc 1 2441 0
 5004 005a 06F12408 		add	r8, r6, #36
 5005              		.loc 1 2397 0
 5006 005e 002F     		cmp	r7, #0
 5007 0060 4ED0     		beq	.L753
 5008              	.LVL716:
 5009              	.L754:
 5010              		.loc 1 2399 0
 5011 0062 C5F30804 		ubfx	r4, r5, #0, #9
 5012 0066 002C     		cmp	r4, #0
 5013 0068 72D1     		bne	.L730
 5014              		.loc 1 2400 0
 5015 006a 3368     		ldr	r3, [r6]
 5016 006c 9A78     		ldrb	r2, [r3, #2]	@ zero_extendqisi2
 5017 006e 013A     		subs	r2, r2, #1
 5018 0070 02EA5522 		and	r2, r2, r5, lsr #9
 5019              	.LVL717:
 5020              		.loc 1 2401 0
 5021 0074 12F0FF02 		ands	r2, r2, #255
 5022              	.LVL718:
 5023 0078 7FD0     		beq	.L731
 5024 007a 7169     		ldr	r1, [r6, #20]
 5025              	.LVL719:
 5026              	.L732:
 5027              	.LBB451:
 5028              	.LBB452:
 5029              		.loc 1 807 0
 5030 007c D869     		ldr	r0, [r3, #28]
 5031              		.loc 1 806 0
 5032 007e 0239     		subs	r1, r1, #2
 5033              	.LVL720:
 5034              		.loc 1 807 0
 5035 0080 0238     		subs	r0, r0, #2
 5036 0082 8142     		cmp	r1, r0
 5037 0084 80F08880 		bcs	.L739
 5038              		.loc 1 808 0
 5039 0088 9878     		ldrb	r0, [r3, #2]	@ zero_extendqisi2
 5040 008a DC6A     		ldr	r4, [r3, #44]
 5041 008c 00FB0144 		mla	r4, r0, r1, r4
 5042              	.LBE452:
ARM GAS  /tmp/ccICsm2b.s 			page 90


 5043              	.LBE451:
 5044              		.loc 1 2417 0
 5045 0090 002C     		cmp	r4, #0
 5046 0092 00F08180 		beq	.L739
 5047              		.loc 1 2420 0
 5048 0096 5FEA572B 		lsrs	fp, r7, #9
 5049              		.loc 1 2418 0
 5050 009a 1444     		add	r4, r4, r2
 5051              	.LVL721:
 5052              		.loc 1 2420 0
 5053 009c 3AD0     		beq	.L740
 5054              		.loc 1 2421 0
 5055 009e 02EB0B01 		add	r1, r2, fp
 5056              	.LVL722:
 5057 00a2 8142     		cmp	r1, r0
 5058              		.loc 1 2422 0
 5059 00a4 88BF     		it	hi
 5060 00a6 C2EB000B 		rsbhi	fp, r2, r0
 5061              	.LVL723:
 5062              		.loc 1 2423 0
 5063 00aa 5146     		mov	r1, r10
 5064 00ac 5878     		ldrb	r0, [r3, #1]	@ zero_extendqisi2
 5065 00ae 2246     		mov	r2, r4
 5066 00b0 5FFA8BF3 		uxtb	r3, fp
 5067              	.LVL724:
 5068 00b4 FFF7FEFF 		bl	disk_read
 5069              	.LVL725:
 5070 00b8 0028     		cmp	r0, #0
 5071 00ba 40F08F80 		bne	.L772
 5072              		.loc 1 2430 0
 5073 00be B379     		ldrb	r3, [r6, #6]	@ zero_extendqisi2
 5074 00c0 5806     		lsls	r0, r3, #25
 5075 00c2 0ED5     		bpl	.L745
 5076              		.loc 1 2430 0 is_stmt 0 discriminator 1
 5077 00c4 B369     		ldr	r3, [r6, #24]
 5078 00c6 1C1B     		subs	r4, r3, r4
 5079              	.LVL726:
 5080 00c8 A345     		cmp	fp, r4
 5081 00ca 0AD9     		bls	.L745
 5082              		.loc 1 2431 0 is_stmt 1
 5083 00cc 0AEB4424 		add	r4, r10, r4, lsl #9
 5084 00d0 04F50072 		add	r2, r4, #512
 5085 00d4 4546     		mov	r5, r8
 5086              	.LVL727:
 5087              	.L746:
 5088              	.LBB453:
 5089              	.LBB454:
 5090              		.loc 1 541 0
 5091 00d6 15F8013B 		ldrb	r3, [r5], #1	@ zero_extendqisi2
 5092              	.LVL728:
 5093 00da 04F8013B 		strb	r3, [r4], #1
 5094              	.LVL729:
 5095              		.loc 1 540 0
 5096 00de 9442     		cmp	r4, r2
 5097 00e0 F9D1     		bne	.L746
 5098              	.LVL730:
 5099              	.L745:
ARM GAS  /tmp/ccICsm2b.s 			page 91


 5100              	.LBE454:
 5101              	.LBE453:
 5102              		.loc 1 2434 0
 5103 00e2 4FEA4B21 		lsl	r1, fp, #9
 5104              	.LVL731:
 5105 00e6 B568     		ldr	r5, [r6, #8]
 5106 00e8 0AEB0103 		add	r3, r10, r1
 5107              	.LVL732:
 5108              	.L744:
 5109              		.loc 1 2398 0
 5110 00ec D9F80020 		ldr	r2, [r9]
 5111 00f0 0D44     		add	r5, r5, r1
 5112 00f2 0A44     		add	r2, r2, r1
 5113              		.loc 1 2397 0
 5114 00f4 7F1A     		subs	r7, r7, r1
 5115              	.LVL733:
 5116              		.loc 1 2398 0
 5117 00f6 B560     		str	r5, [r6, #8]
 5118 00f8 9A46     		mov	r10, r3
 5119              	.LVL734:
 5120 00fa C9F80020 		str	r2, [r9]
 5121              		.loc 1 2397 0
 5122 00fe B0D1     		bne	.L754
 5123              	.LVL735:
 5124              	.L753:
 5125              	.LBB455:
 5126              	.LBB456:
 5127              	.LBB457:
 5128              		.loc 1 596 0
 5129 0100 3368     		ldr	r3, [r6]
 5130 0102 D868     		ldr	r0, [r3, #12]
 5131 0104 FFF7FEFF 		bl	ff_rel_grant
 5132              	.LVL736:
 5133              	.LBE457:
 5134              	.LBE456:
 5135              	.LBE455:
 5136              		.loc 1 2463 0
 5137 0108 0020     		movs	r0, #0
 5138 010a 96E7     		b	.L726
 5139              	.LVL737:
 5140              	.L756:
 5141              	.LBB458:
 5142              	.LBB449:
 5143              		.loc 1 593 0
 5144 010c 2046     		mov	r0, r4
 5145              	.LVL738:
 5146              	.LBE449:
 5147              	.LBE458:
 5148              		.loc 1 2464 0
 5149 010e 03B0     		add	sp, sp, #12
 5150              		@ sp needed
 5151 0110 BDE8F08F 		pop	{r4, r5, r6, r7, r8, r9, r10, fp, pc}
 5152              	.LVL739:
 5153              	.L740:
 5154              		.loc 1 2438 0
 5155 0114 B269     		ldr	r2, [r6, #24]
 5156 0116 A242     		cmp	r2, r4
ARM GAS  /tmp/ccICsm2b.s 			page 92


 5157 0118 16D0     		beq	.L747
 5158              		.loc 1 2440 0
 5159 011a B179     		ldrb	r1, [r6, #6]	@ zero_extendqisi2
 5160              	.LVL740:
 5161 011c 4906     		lsls	r1, r1, #25
 5162 011e 0BD5     		bpl	.L749
 5163              		.loc 1 2441 0
 5164 0120 5878     		ldrb	r0, [r3, #1]	@ zero_extendqisi2
 5165 0122 4146     		mov	r1, r8
 5166 0124 0123     		movs	r3, #1
 5167              	.LVL741:
 5168 0126 FFF7FEFF 		bl	disk_write
 5169              	.LVL742:
 5170              		.loc 1 2442 0
 5171 012a B279     		ldrb	r2, [r6, #6]	@ zero_extendqisi2
 5172              	.LBB459:
 5173              	.LBB460:
 5174              	.LBB461:
 5175              		.loc 1 596 0
 5176 012c 3368     		ldr	r3, [r6]
 5177              	.LBE461:
 5178              	.LBE460:
 5179              	.LBE459:
 5180              		.loc 1 2441 0
 5181 012e 0028     		cmp	r0, #0
 5182 0130 56D1     		bne	.L771
 5183              		.loc 1 2443 0
 5184 0132 22F04002 		bic	r2, r2, #64
 5185 0136 B271     		strb	r2, [r6, #6]
 5186              	.L749:
 5187              		.loc 1 2446 0
 5188 0138 5878     		ldrb	r0, [r3, #1]	@ zero_extendqisi2
 5189 013a 4146     		mov	r1, r8
 5190 013c 2246     		mov	r2, r4
 5191 013e 0123     		movs	r3, #1
 5192 0140 FFF7FEFF 		bl	disk_read
 5193              	.LVL743:
 5194 0144 0028     		cmp	r0, #0
 5195 0146 49D1     		bne	.L772
 5196              	.L747:
 5197 0148 B568     		ldr	r5, [r6, #8]
 5198              		.loc 1 2450 0
 5199 014a B461     		str	r4, [r6, #24]
 5200 014c C5F30804 		ubfx	r4, r5, #0, #9
 5201              	.LVL744:
 5202              	.L730:
 5203              		.loc 1 2452 0
 5204 0150 C4F50071 		rsb	r1, r4, #512
 5205              	.LVL745:
 5206 0154 B942     		cmp	r1, r7
 5207 0156 28BF     		it	cs
 5208 0158 3946     		movcs	r1, r7
 5209              	.LVL746:
 5210              		.loc 1 2459 0
 5211 015a 3444     		add	r4, r4, r6
 5212 015c 2434     		adds	r4, r4, #36
 5213              	.LVL747:
ARM GAS  /tmp/ccICsm2b.s 			page 93


 5214 015e 5346     		mov	r3, r10
 5215              	.LBB462:
 5216              	.LBB463:
 5217              		.loc 1 540 0
 5218 0160 0029     		cmp	r1, #0
 5219 0162 C3D0     		beq	.L744
 5220              	.LVL748:
 5221 0164 0AEB0103 		add	r3, r10, r1
 5222              	.LVL749:
 5223 0168 5246     		mov	r2, r10
 5224              	.LVL750:
 5225              	.L752:
 5226              		.loc 1 541 0
 5227 016a 14F8015B 		ldrb	r5, [r4], #1	@ zero_extendqisi2
 5228              	.LVL751:
 5229 016e 02F8015B 		strb	r5, [r2], #1
 5230              	.LVL752:
 5231              		.loc 1 540 0
 5232 0172 9A42     		cmp	r2, r3
 5233 0174 F9D1     		bne	.L752
 5234 0176 B568     		ldr	r5, [r6, #8]
 5235 0178 B8E7     		b	.L744
 5236              	.LVL753:
 5237              	.L731:
 5238              	.LBE463:
 5239              	.LBE462:
 5240              		.loc 1 2402 0
 5241 017a 3DB9     		cbnz	r5, .L733
 5242              		.loc 1 2403 0
 5243 017c 3069     		ldr	r0, [r6, #16]
 5244              	.LVL754:
 5245              	.L734:
 5246              		.loc 1 2412 0
 5247 017e 0128     		cmp	r0, #1
 5248 0180 0AD9     		bls	.L739
 5249              		.loc 1 2413 0
 5250 0182 441C     		adds	r4, r0, #1
 5251 0184 36D0     		beq	.L775
 5252              		.loc 1 2414 0
 5253 0186 7061     		str	r0, [r6, #20]
 5254 0188 0146     		mov	r1, r0
 5255 018a 77E7     		b	.L732
 5256              	.LVL755:
 5257              	.L733:
 5258              		.loc 1 2410 0
 5259 018c 7169     		ldr	r1, [r6, #20]
 5260              	.LVL756:
 5261              	.LBB464:
 5262              	.LBB465:
 5263              		.loc 1 828 0
 5264 018e 0129     		cmp	r1, #1
 5265 0190 02D9     		bls	.L739
 5266 0192 D869     		ldr	r0, [r3, #28]
 5267 0194 8142     		cmp	r1, r0
 5268 0196 12D3     		bcc	.L776
 5269              	.LVL757:
 5270              	.L739:
ARM GAS  /tmp/ccICsm2b.s 			page 94


 5271              	.LBE465:
 5272              	.LBE464:
 5273              		.loc 1 2417 0
 5274 0198 B279     		ldrb	r2, [r6, #6]	@ zero_extendqisi2
 5275 019a 62F07F02 		orn	r2, r2, #127
 5276 019e B271     		strb	r2, [r6, #6]
 5277              	.LVL758:
 5278              	.LBB467:
 5279              	.LBB468:
 5280              	.LBB469:
 5281              		.loc 1 596 0
 5282 01a0 D868     		ldr	r0, [r3, #12]
 5283 01a2 FFF7FEFF 		bl	ff_rel_grant
 5284              	.LVL759:
 5285              	.LBE469:
 5286              	.LBE468:
 5287              	.LBE467:
 5288              		.loc 1 2417 0
 5289 01a6 0220     		movs	r0, #2
 5290              		.loc 1 2464 0
 5291 01a8 03B0     		add	sp, sp, #12
 5292              		@ sp needed
 5293 01aa BDE8F08F 		pop	{r4, r5, r6, r7, r8, r9, r10, fp, pc}
 5294              	.LVL760:
 5295              	.L773:
 5296              	.LBB470:
 5297              	.LBB471:
 5298              	.LBB472:
 5299              		.loc 1 596 0
 5300 01ae 3368     		ldr	r3, [r6]
 5301 01b0 D868     		ldr	r0, [r3, #12]
 5302              	.LVL761:
 5303 01b2 FFF7FEFF 		bl	ff_rel_grant
 5304              	.LVL762:
 5305              	.LBE472:
 5306              	.LBE471:
 5307              	.LBE470:
 5308              		.loc 1 2391 0
 5309 01b6 0220     		movs	r0, #2
 5310              		.loc 1 2464 0
 5311 01b8 03B0     		add	sp, sp, #12
 5312              		@ sp needed
 5313 01ba BDE8F08F 		pop	{r4, r5, r6, r7, r8, r9, r10, fp, pc}
 5314              	.LVL763:
 5315              	.L776:
 5316              	.LBB473:
 5317              	.LBB466:
 5318 01be 1846     		mov	r0, r3
 5319 01c0 0192     		str	r2, [sp, #4]
 5320              	.LVL764:
 5321 01c2 FFF7FEFF 		bl	get_fat.part.6
 5322              	.LVL765:
 5323 01c6 3368     		ldr	r3, [r6]
 5324 01c8 019A     		ldr	r2, [sp, #4]
 5325 01ca D8E7     		b	.L734
 5326              	.LVL766:
 5327              	.L774:
ARM GAS  /tmp/ccICsm2b.s 			page 95


 5328              	.LBE466:
 5329              	.LBE473:
 5330              	.LBB474:
 5331              	.LBB475:
 5332              	.LBB476:
 5333              		.loc 1 596 0
 5334 01cc 3368     		ldr	r3, [r6]
 5335 01ce D868     		ldr	r0, [r3, #12]
 5336              	.LVL767:
 5337 01d0 FFF7FEFF 		bl	ff_rel_grant
 5338              	.LVL768:
 5339              	.LBE476:
 5340              	.LBE475:
 5341              	.LBE474:
 5342              		.loc 1 2393 0
 5343 01d4 0720     		movs	r0, #7
 5344              		.loc 1 2464 0
 5345 01d6 03B0     		add	sp, sp, #12
 5346              		@ sp needed
 5347 01d8 BDE8F08F 		pop	{r4, r5, r6, r7, r8, r9, r10, fp, pc}
 5348              	.LVL769:
 5349              	.L772:
 5350              		.loc 1 2447 0
 5351 01dc B279     		ldrb	r2, [r6, #6]	@ zero_extendqisi2
 5352              	.LBB477:
 5353              	.LBB478:
 5354              	.LBB479:
 5355              		.loc 1 596 0
 5356 01de 3368     		ldr	r3, [r6]
 5357              	.LVL770:
 5358              	.L771:
 5359              	.LBE479:
 5360              	.LBE478:
 5361              	.LBE477:
 5362              		.loc 1 2447 0
 5363 01e0 62F07F02 		orn	r2, r2, #127
 5364 01e4 B271     		strb	r2, [r6, #6]
 5365              	.LVL771:
 5366              	.LBB482:
 5367              	.LBB481:
 5368              	.LBB480:
 5369              		.loc 1 596 0
 5370 01e6 D868     		ldr	r0, [r3, #12]
 5371 01e8 FFF7FEFF 		bl	ff_rel_grant
 5372              	.LVL772:
 5373              	.LBE480:
 5374              	.LBE481:
 5375              	.LBE482:
 5376              		.loc 1 2447 0
 5377 01ec 0120     		movs	r0, #1
 5378              		.loc 1 2464 0
 5379 01ee 03B0     		add	sp, sp, #12
 5380              		@ sp needed
 5381 01f0 BDE8F08F 		pop	{r4, r5, r6, r7, r8, r9, r10, fp, pc}
 5382              	.LVL773:
 5383              	.L775:
 5384              		.loc 1 2413 0 discriminator 1
ARM GAS  /tmp/ccICsm2b.s 			page 96


 5385 01f4 B279     		ldrb	r2, [r6, #6]	@ zero_extendqisi2
 5386 01f6 F3E7     		b	.L771
 5387              		.cfi_endproc
 5388              	.LFE39:
 5389              		.size	f_read, .-f_read
 5390 01f8 AFF30080 		.section	.text.f_write,"ax",%progbits
 5390      AFF30080 
 5391              		.align	2
 5392              		.p2align 4,,15
 5393              		.global	f_write
 5394              		.thumb
 5395              		.thumb_func
 5396              		.type	f_write, %function
 5397              	f_write:
 5398              	.LFB40:
 5399              		.loc 1 2480 0
 5400              		.cfi_startproc
 5401              		@ args = 0, pretend = 0, frame = 8
 5402              		@ frame_needed = 0, uses_anonymous_args = 0
 5403              	.LVL774:
 5404 0000 2DE9F04F 		push	{r4, r5, r6, r7, r8, r9, r10, fp, lr}
 5405              		.cfi_def_cfa_offset 36
 5406              		.cfi_offset 4, -36
 5407              		.cfi_offset 5, -32
 5408              		.cfi_offset 6, -28
 5409              		.cfi_offset 7, -24
 5410              		.cfi_offset 8, -20
 5411              		.cfi_offset 9, -16
 5412              		.cfi_offset 10, -12
 5413              		.cfi_offset 11, -8
 5414              		.cfi_offset 14, -4
 5415 0004 0646     		mov	r6, r0
 5416              	.LVL775:
 5417 0006 9B46     		mov	fp, r3
 5418              		.loc 1 2488 0
 5419 0008 0023     		movs	r3, #0
 5420              	.LVL776:
 5421              		.loc 1 2480 0
 5422 000a 83B0     		sub	sp, sp, #12
 5423              		.cfi_def_cfa_offset 48
 5424              		.loc 1 2480 0
 5425 000c 8946     		mov	r9, r1
 5426              		.loc 1 2488 0
 5427 000e CBF80030 		str	r3, [fp]
 5428              		.loc 1 2490 0
 5429 0012 0068     		ldr	r0, [r0]
 5430              	.LVL777:
 5431 0014 B188     		ldrh	r1, [r6, #4]
 5432              	.LVL778:
 5433              		.loc 1 2480 0
 5434 0016 9046     		mov	r8, r2
 5435              		.loc 1 2490 0
 5436 0018 FFF7FEFF 		bl	validate
 5437              	.LVL779:
 5438              		.loc 1 2491 0
 5439 001c 0446     		mov	r4, r0
 5440 001e 88B1     		cbz	r0, .L778
ARM GAS  /tmp/ccICsm2b.s 			page 97


 5441              	.LBB527:
 5442              	.LBB528:
 5443              		.loc 1 592 0 discriminator 1
 5444 0020 A0F10B03 		sub	r3, r0, #11
 5445 0024 DBB2     		uxtb	r3, r3
 5446 0026 012B     		cmp	r3, #1
 5447              	.LBE528:
 5448              	.LBE527:
 5449              		.loc 1 2491 0 discriminator 1
 5450 0028 3068     		ldr	r0, [r6]
 5451              	.LVL780:
 5452              	.LBB531:
 5453              	.LBB529:
 5454              		.loc 1 592 0 discriminator 1
 5455 002a 40F28C80 		bls	.L814
 5456              		.loc 1 593 0
 5457 002e 092C     		cmp	r4, #9
 5458 0030 00F08980 		beq	.L814
 5459 0034 0C30     		adds	r0, r0, #12
 5460              	.LVL781:
 5461 0036 2146     		mov	r1, r4
 5462 0038 FFF7FEFF 		bl	unlock_fs.isra.4.part.5
 5463              	.LVL782:
 5464 003c 2046     		mov	r0, r4
 5465              	.LVL783:
 5466              	.L779:
 5467              	.LBE529:
 5468              	.LBE531:
 5469              		.loc 1 2584 0
 5470 003e 03B0     		add	sp, sp, #12
 5471              		@ sp needed
 5472 0040 BDE8F08F 		pop	{r4, r5, r6, r7, r8, r9, r10, fp, pc}
 5473              	.LVL784:
 5474              	.L778:
 5475              		.loc 1 2492 0
 5476 0044 B379     		ldrb	r3, [r6, #6]	@ zero_extendqisi2
 5477 0046 1C06     		lsls	r4, r3, #24
 5478 0048 00F18180 		bmi	.L827
 5479              		.loc 1 2494 0
 5480 004c 9807     		lsls	r0, r3, #30
 5481              	.LVL785:
 5482 004e 40F1B580 		bpl	.L828
 5483              		.loc 1 2496 0
 5484 0052 F168     		ldr	r1, [r6, #12]
 5485 0054 B268     		ldr	r2, [r6, #8]
 5486 0056 18EB010F 		cmn	r8, r1
 5487 005a 68D2     		bcs	.L783
 5488              		.loc 1 2498 0 discriminator 1
 5489 005c B8F1000F 		cmp	r8, #0
 5490 0060 65D0     		beq	.L783
 5491              		.loc 1 2561 0
 5492 0062 06F12403 		add	r3, r6, #36
 5493 0066 0193     		str	r3, [sp, #4]
 5494 0068 06F50977 		add	r7, r6, #548
 5495              	.LVL786:
 5496              	.L811:
 5497              		.loc 1 2500 0
ARM GAS  /tmp/ccICsm2b.s 			page 98


 5498 006c C2F30803 		ubfx	r3, r2, #0, #9
 5499 0070 002B     		cmp	r3, #0
 5500 0072 7ED1     		bne	.L785
 5501              		.loc 1 2501 0
 5502 0074 3368     		ldr	r3, [r6]
 5503 0076 9D78     		ldrb	r5, [r3, #2]	@ zero_extendqisi2
 5504 0078 013D     		subs	r5, r5, #1
 5505 007a 05EA5225 		and	r5, r5, r2, lsr #9
 5506              	.LVL787:
 5507              		.loc 1 2502 0
 5508 007e 15F0FF05 		ands	r5, r5, #255
 5509              	.LVL788:
 5510 0082 0DD1     		bne	.L786
 5511              		.loc 1 2503 0
 5512 0084 002A     		cmp	r2, #0
 5513 0086 40F0A180 		bne	.L787
 5514              		.loc 1 2504 0
 5515 008a 3069     		ldr	r0, [r6, #16]
 5516              	.LVL789:
 5517              		.loc 1 2505 0
 5518 008c 0028     		cmp	r0, #0
 5519 008e 00F0B080 		beq	.L829
 5520              	.LVL790:
 5521              	.L788:
 5522              		.loc 1 2516 0
 5523 0092 0128     		cmp	r0, #1
 5524 0094 00F0BD80 		beq	.L796
 5525              		.loc 1 2517 0
 5526 0098 411C     		adds	r1, r0, #1
 5527 009a 00F0C580 		beq	.L830
 5528              		.loc 1 2518 0
 5529 009e 7061     		str	r0, [r6, #20]
 5530              	.LVL791:
 5531              	.L786:
 5532              		.loc 1 2524 0
 5533 00a0 B279     		ldrb	r2, [r6, #6]	@ zero_extendqisi2
 5534 00a2 5206     		lsls	r2, r2, #25
 5535 00a4 7DD4     		bmi	.L831
 5536              	.L793:
 5537              	.LVL792:
 5538              	.LBB532:
 5539              	.LBB533:
 5540              		.loc 1 806 0
 5541 00a6 7269     		ldr	r2, [r6, #20]
 5542              		.loc 1 807 0
 5543 00a8 D969     		ldr	r1, [r3, #28]
 5544              		.loc 1 806 0
 5545 00aa 023A     		subs	r2, r2, #2
 5546              	.LVL793:
 5547              		.loc 1 807 0
 5548 00ac 0239     		subs	r1, r1, #2
 5549 00ae 8A42     		cmp	r2, r1
 5550 00b0 80F0AF80 		bcs	.L796
 5551              		.loc 1 808 0
 5552 00b4 9978     		ldrb	r1, [r3, #2]	@ zero_extendqisi2
 5553 00b6 DC6A     		ldr	r4, [r3, #44]
 5554 00b8 02FB0144 		mla	r4, r2, r1, r4
ARM GAS  /tmp/ccICsm2b.s 			page 99


 5555              	.LBE533:
 5556              	.LBE532:
 5557              		.loc 1 2531 0
 5558 00bc 002C     		cmp	r4, #0
 5559 00be 00F0A880 		beq	.L796
 5560              		.loc 1 2534 0
 5561 00c2 5FEA582A 		lsrs	r10, r8, #9
 5562              		.loc 1 2532 0
 5563 00c6 2C44     		add	r4, r4, r5
 5564              	.LVL794:
 5565              		.loc 1 2534 0
 5566 00c8 49D0     		beq	.L797
 5567              		.loc 1 2535 0
 5568 00ca 05EB0A02 		add	r2, r5, r10
 5569              	.LVL795:
 5570 00ce 8A42     		cmp	r2, r1
 5571              		.loc 1 2536 0
 5572 00d0 88BF     		it	hi
 5573 00d2 C5EB010A 		rsbhi	r10, r5, r1
 5574              	.LVL796:
 5575              		.loc 1 2537 0
 5576 00d6 5878     		ldrb	r0, [r3, #1]	@ zero_extendqisi2
 5577 00d8 4946     		mov	r1, r9
 5578 00da 2246     		mov	r2, r4
 5579 00dc 5FFA8AF3 		uxtb	r3, r10
 5580              	.LVL797:
 5581 00e0 FFF7FEFF 		bl	disk_write
 5582              	.LVL798:
 5583 00e4 0028     		cmp	r0, #0
 5584 00e6 78D1     		bne	.L806
 5585              		.loc 1 2545 0
 5586 00e8 B569     		ldr	r5, [r6, #24]
 5587 00ea 2C1B     		subs	r4, r5, r4
 5588              	.LVL799:
 5589 00ec A245     		cmp	r10, r4
 5590 00ee 0CD9     		bls	.L800
 5591              		.loc 1 2546 0
 5592 00f0 09EB4425 		add	r5, r9, r4, lsl #9
 5593              	.LVL800:
 5594 00f4 019C     		ldr	r4, [sp, #4]
 5595              	.LVL801:
 5596              	.L802:
 5597              	.LBB534:
 5598              	.LBB535:
 5599              		.loc 1 541 0
 5600 00f6 15F8013B 		ldrb	r3, [r5], #1	@ zero_extendqisi2
 5601              	.LVL802:
 5602 00fa 04F8013B 		strb	r3, [r4], #1
 5603              	.LVL803:
 5604              		.loc 1 540 0
 5605 00fe BC42     		cmp	r4, r7
 5606 0100 F9D1     		bne	.L802
 5607              	.LBE535:
 5608              	.LBE534:
 5609              		.loc 1 2547 0
 5610 0102 B379     		ldrb	r3, [r6, #6]	@ zero_extendqisi2
 5611 0104 23F04003 		bic	r3, r3, #64
ARM GAS  /tmp/ccICsm2b.s 			page 100


 5612 0108 B371     		strb	r3, [r6, #6]
 5613              	.LVL804:
 5614              	.L800:
 5615              		.loc 1 2550 0
 5616 010a 4FEA4A20 		lsl	r0, r10, #9
 5617              	.LVL805:
 5618 010e B268     		ldr	r2, [r6, #8]
 5619 0110 09EB0001 		add	r1, r9, r0
 5620              	.LVL806:
 5621              	.L803:
 5622              		.loc 1 2499 0
 5623 0114 DBF80030 		ldr	r3, [fp]
 5624 0118 0244     		add	r2, r2, r0
 5625 011a 0344     		add	r3, r3, r0
 5626              		.loc 1 2498 0
 5627 011c B8EB0008 		subs	r8, r8, r0
 5628              	.LVL807:
 5629              		.loc 1 2499 0
 5630 0120 B260     		str	r2, [r6, #8]
 5631 0122 8946     		mov	r9, r1
 5632 0124 CBF80030 		str	r3, [fp]
 5633              		.loc 1 2498 0
 5634 0128 A0D1     		bne	.L811
 5635 012a F168     		ldr	r1, [r6, #12]
 5636              	.LVL808:
 5637 012c B379     		ldrb	r3, [r6, #6]	@ zero_extendqisi2
 5638              	.LVL809:
 5639              	.L783:
 5640              		.loc 1 2580 0
 5641 012e 9142     		cmp	r1, r2
 5642 0130 38BF     		it	cc
 5643 0132 F260     		strcc	r2, [r6, #12]
 5644              		.loc 1 2581 0
 5645 0134 43F02003 		orr	r3, r3, #32
 5646              	.LBB536:
 5647              	.LBB537:
 5648              	.LBB538:
 5649              		.loc 1 596 0
 5650 0138 3268     		ldr	r2, [r6]
 5651              	.LBE538:
 5652              	.LBE537:
 5653              	.LBE536:
 5654              		.loc 1 2581 0
 5655 013a B371     		strb	r3, [r6, #6]
 5656              	.LVL810:
 5657              	.LBB541:
 5658              	.LBB540:
 5659              	.LBB539:
 5660              		.loc 1 596 0
 5661 013c D068     		ldr	r0, [r2, #12]
 5662 013e FFF7FEFF 		bl	ff_rel_grant
 5663              	.LVL811:
 5664              	.LBE539:
 5665              	.LBE540:
 5666              	.LBE541:
 5667              		.loc 1 2583 0
 5668 0142 0020     		movs	r0, #0
ARM GAS  /tmp/ccICsm2b.s 			page 101


 5669 0144 7BE7     		b	.L779
 5670              	.LVL812:
 5671              	.L814:
 5672              	.LBB542:
 5673              	.LBB530:
 5674              		.loc 1 593 0
 5675 0146 2046     		mov	r0, r4
 5676              	.LVL813:
 5677              	.LBE530:
 5678              	.LBE542:
 5679              		.loc 1 2584 0
 5680 0148 03B0     		add	sp, sp, #12
 5681              		@ sp needed
 5682 014a BDE8F08F 		pop	{r4, r5, r6, r7, r8, r9, r10, fp, pc}
 5683              	.LVL814:
 5684              	.L827:
 5685              	.LBB543:
 5686              	.LBB544:
 5687              	.LBB545:
 5688              		.loc 1 596 0
 5689 014e 3368     		ldr	r3, [r6]
 5690 0150 D868     		ldr	r0, [r3, #12]
 5691              	.LVL815:
 5692 0152 FFF7FEFF 		bl	ff_rel_grant
 5693              	.LVL816:
 5694              	.LBE545:
 5695              	.LBE544:
 5696              	.LBE543:
 5697              		.loc 1 2493 0
 5698 0156 0220     		movs	r0, #2
 5699              		.loc 1 2584 0
 5700 0158 03B0     		add	sp, sp, #12
 5701              		@ sp needed
 5702 015a BDE8F08F 		pop	{r4, r5, r6, r7, r8, r9, r10, fp, pc}
 5703              	.LVL817:
 5704              	.L797:
 5705              		.loc 1 2559 0
 5706 015e B269     		ldr	r2, [r6, #24]
 5707              	.LVL818:
 5708 0160 A242     		cmp	r2, r4
 5709              		.loc 1 2560 0
 5710 0162 B268     		ldr	r2, [r6, #8]
 5711              		.loc 1 2559 0
 5712 0164 02D0     		beq	.L805
 5713              		.loc 1 2560 0
 5714 0166 F168     		ldr	r1, [r6, #12]
 5715 0168 8A42     		cmp	r2, r1
 5716 016a 48D3     		bcc	.L832
 5717              	.LVL819:
 5718              	.L805:
 5719              		.loc 1 2565 0
 5720 016c B461     		str	r4, [r6, #24]
 5721 016e C2F30803 		ubfx	r3, r2, #0, #9
 5722              	.LVL820:
 5723              	.L785:
 5724              		.loc 1 2567 0
 5725 0172 C3F50070 		rsb	r0, r3, #512
ARM GAS  /tmp/ccICsm2b.s 			page 102


 5726              	.LVL821:
 5727 0176 4045     		cmp	r0, r8
 5728 0178 28BF     		it	cs
 5729 017a 4046     		movcs	r0, r8
 5730              	.LVL822:
 5731              		.loc 1 2575 0
 5732 017c 3344     		add	r3, r3, r6
 5733 017e 2433     		adds	r3, r3, #36
 5734              	.LVL823:
 5735 0180 4946     		mov	r1, r9
 5736              	.LBB546:
 5737              	.LBB547:
 5738              		.loc 1 540 0
 5739 0182 48B1     		cbz	r0, .L807
 5740              	.LVL824:
 5741 0184 09EB0001 		add	r1, r9, r0
 5742              	.LVL825:
 5743 0188 4C46     		mov	r4, r9
 5744              	.LVL826:
 5745              	.L809:
 5746              		.loc 1 541 0
 5747 018a 14F8012B 		ldrb	r2, [r4], #1	@ zero_extendqisi2
 5748              	.LVL827:
 5749 018e 03F8012B 		strb	r2, [r3], #1
 5750              	.LVL828:
 5751              		.loc 1 540 0
 5752 0192 8C42     		cmp	r4, r1
 5753 0194 F9D1     		bne	.L809
 5754 0196 B268     		ldr	r2, [r6, #8]
 5755              	.LVL829:
 5756              	.L807:
 5757              	.LBE547:
 5758              	.LBE546:
 5759              		.loc 1 2576 0
 5760 0198 B379     		ldrb	r3, [r6, #6]	@ zero_extendqisi2
 5761              	.LVL830:
 5762 019a 43F04003 		orr	r3, r3, #64
 5763 019e B371     		strb	r3, [r6, #6]
 5764 01a0 B8E7     		b	.L803
 5765              	.LVL831:
 5766              	.L831:
 5767              		.loc 1 2525 0
 5768 01a2 5878     		ldrb	r0, [r3, #1]	@ zero_extendqisi2
 5769 01a4 B269     		ldr	r2, [r6, #24]
 5770 01a6 0199     		ldr	r1, [sp, #4]
 5771 01a8 0123     		movs	r3, #1
 5772 01aa FFF7FEFF 		bl	disk_write
 5773              	.LVL832:
 5774              		.loc 1 2526 0
 5775 01ae B279     		ldrb	r2, [r6, #6]	@ zero_extendqisi2
 5776              	.LBB548:
 5777              	.LBB549:
 5778              	.LBB550:
 5779              		.loc 1 596 0
 5780 01b0 3368     		ldr	r3, [r6]
 5781              	.LBE550:
 5782              	.LBE549:
ARM GAS  /tmp/ccICsm2b.s 			page 103


 5783              	.LBE548:
 5784              		.loc 1 2525 0
 5785 01b2 A0B9     		cbnz	r0, .L826
 5786              		.loc 1 2527 0
 5787 01b4 22F04002 		bic	r2, r2, #64
 5788 01b8 B271     		strb	r2, [r6, #6]
 5789 01ba 74E7     		b	.L793
 5790              	.LVL833:
 5791              	.L828:
 5792              	.LBB551:
 5793              	.LBB552:
 5794              	.LBB553:
 5795              		.loc 1 596 0
 5796 01bc 3368     		ldr	r3, [r6]
 5797 01be D868     		ldr	r0, [r3, #12]
 5798 01c0 FFF7FEFF 		bl	ff_rel_grant
 5799              	.LVL834:
 5800              	.LBE553:
 5801              	.LBE552:
 5802              	.LBE551:
 5803              		.loc 1 2495 0
 5804 01c4 0720     		movs	r0, #7
 5805              		.loc 1 2584 0
 5806 01c6 03B0     		add	sp, sp, #12
 5807              		@ sp needed
 5808 01c8 BDE8F08F 		pop	{r4, r5, r6, r7, r8, r9, r10, fp, pc}
 5809              	.LVL835:
 5810              	.L787:
 5811              		.loc 1 2513 0
 5812 01cc 1846     		mov	r0, r3
 5813 01ce 7169     		ldr	r1, [r6, #20]
 5814 01d0 FFF7FEFF 		bl	create_chain
 5815              	.LVL836:
 5816              	.L789:
 5817              		.loc 1 2515 0
 5818 01d4 50B3     		cbz	r0, .L833
 5819 01d6 3368     		ldr	r3, [r6]
 5820 01d8 5BE7     		b	.L788
 5821              	.LVL837:
 5822              	.L806:
 5823              		.loc 1 2562 0
 5824 01da B279     		ldrb	r2, [r6, #6]	@ zero_extendqisi2
 5825              	.LBB554:
 5826              	.LBB555:
 5827              	.LBB556:
 5828              		.loc 1 596 0
 5829 01dc 3368     		ldr	r3, [r6]
 5830              	.LVL838:
 5831              	.L826:
 5832              	.LBE556:
 5833              	.LBE555:
 5834              	.LBE554:
 5835              		.loc 1 2562 0
 5836 01de 62F07F02 		orn	r2, r2, #127
 5837 01e2 B271     		strb	r2, [r6, #6]
 5838              	.LVL839:
 5839              	.LBB559:
ARM GAS  /tmp/ccICsm2b.s 			page 104


 5840              	.LBB558:
 5841              	.LBB557:
 5842              		.loc 1 596 0
 5843 01e4 D868     		ldr	r0, [r3, #12]
 5844 01e6 FFF7FEFF 		bl	ff_rel_grant
 5845              	.LVL840:
 5846              	.LBE557:
 5847              	.LBE558:
 5848              	.LBE559:
 5849              		.loc 1 2562 0
 5850 01ea 0120     		movs	r0, #1
 5851              		.loc 1 2584 0
 5852 01ec 03B0     		add	sp, sp, #12
 5853              		@ sp needed
 5854 01ee BDE8F08F 		pop	{r4, r5, r6, r7, r8, r9, r10, fp, pc}
 5855              	.LVL841:
 5856              	.L829:
 5857              		.loc 1 2506 0
 5858 01f2 1846     		mov	r0, r3
 5859              	.LVL842:
 5860 01f4 2946     		mov	r1, r5
 5861 01f6 FFF7FEFF 		bl	create_chain
 5862              	.LVL843:
 5863 01fa 3061     		str	r0, [r6, #16]
 5864 01fc EAE7     		b	.L789
 5865              	.LVL844:
 5866              	.L832:
 5867              		.loc 1 2561 0 discriminator 1
 5868 01fe 5878     		ldrb	r0, [r3, #1]	@ zero_extendqisi2
 5869 0200 0199     		ldr	r1, [sp, #4]
 5870 0202 2246     		mov	r2, r4
 5871 0204 0123     		movs	r3, #1
 5872              	.LVL845:
 5873 0206 FFF7FEFF 		bl	disk_read
 5874              	.LVL846:
 5875              		.loc 1 2560 0 discriminator 1
 5876 020a 0028     		cmp	r0, #0
 5877 020c E5D1     		bne	.L806
 5878 020e B268     		ldr	r2, [r6, #8]
 5879 0210 ACE7     		b	.L805
 5880              	.LVL847:
 5881              	.L796:
 5882              		.loc 1 2531 0
 5883 0212 B279     		ldrb	r2, [r6, #6]	@ zero_extendqisi2
 5884 0214 62F07F02 		orn	r2, r2, #127
 5885 0218 B271     		strb	r2, [r6, #6]
 5886              	.LVL848:
 5887              	.LBB560:
 5888              	.LBB561:
 5889              	.LBB562:
 5890              		.loc 1 596 0
 5891 021a D868     		ldr	r0, [r3, #12]
 5892 021c FFF7FEFF 		bl	ff_rel_grant
 5893              	.LVL849:
 5894              	.LBE562:
 5895              	.LBE561:
 5896              	.LBE560:
ARM GAS  /tmp/ccICsm2b.s 			page 105


 5897              		.loc 1 2531 0
 5898 0220 0220     		movs	r0, #2
 5899              		.loc 1 2584 0
 5900 0222 03B0     		add	sp, sp, #12
 5901              		@ sp needed
 5902 0224 BDE8F08F 		pop	{r4, r5, r6, r7, r8, r9, r10, fp, pc}
 5903              	.LVL850:
 5904              	.L830:
 5905              		.loc 1 2517 0 discriminator 1
 5906 0228 B279     		ldrb	r2, [r6, #6]	@ zero_extendqisi2
 5907 022a D8E7     		b	.L826
 5908              	.L833:
 5909 022c B268     		ldr	r2, [r6, #8]
 5910 022e F168     		ldr	r1, [r6, #12]
 5911 0230 B379     		ldrb	r3, [r6, #6]	@ zero_extendqisi2
 5912 0232 7CE7     		b	.L783
 5913              		.cfi_endproc
 5914              	.LFE40:
 5915              		.size	f_write, .-f_write
 5916 0234 AFF30080 		.section	.text.f_sync,"ax",%progbits
 5916      AFF30080 
 5916      AFF30080 
 5917              		.align	2
 5918              		.p2align 4,,15
 5919              		.global	f_sync
 5920              		.thumb
 5921              		.thumb_func
 5922              		.type	f_sync, %function
 5923              	f_sync:
 5924              	.LFB41:
 5925              		.loc 1 2596 0
 5926              		.cfi_startproc
 5927              		@ args = 0, pretend = 0, frame = 0
 5928              		@ frame_needed = 0, uses_anonymous_args = 0
 5929              	.LVL851:
 5930 0000 38B5     		push	{r3, r4, r5, lr}
 5931              		.cfi_def_cfa_offset 16
 5932              		.cfi_offset 3, -16
 5933              		.cfi_offset 4, -12
 5934              		.cfi_offset 5, -8
 5935              		.cfi_offset 14, -4
 5936              		.loc 1 2596 0
 5937 0002 0446     		mov	r4, r0
 5938              		.loc 1 2602 0
 5939 0004 0068     		ldr	r0, [r0]
 5940              	.LVL852:
 5941 0006 A188     		ldrh	r1, [r4, #4]
 5942 0008 FFF7FEFF 		bl	validate
 5943              	.LVL853:
 5944              		.loc 1 2603 0
 5945 000c 0546     		mov	r5, r0
 5946 000e 0028     		cmp	r0, #0
 5947 0010 4CD1     		bne	.L835
 5948              		.loc 1 2604 0
 5949 0012 A379     		ldrb	r3, [r4, #6]	@ zero_extendqisi2
 5950 0014 9A06     		lsls	r2, r3, #26
 5951 0016 06D4     		bmi	.L847
ARM GAS  /tmp/ccICsm2b.s 			page 106


 5952              	.LVL854:
 5953 0018 2068     		ldr	r0, [r4]
 5954              	.LBB569:
 5955              	.LBB570:
 5956 001a 2946     		mov	r1, r5
 5957 001c 0C30     		adds	r0, r0, #12
 5958              	.LVL855:
 5959 001e FFF7FEFF 		bl	unlock_fs.isra.4.part.5
 5960              	.LVL856:
 5961 0022 2846     		mov	r0, r5
 5962 0024 38BD     		pop	{r3, r4, r5, pc}
 5963              	.LVL857:
 5964              	.L847:
 5965              	.LBE570:
 5966              	.LBE569:
 5967              		.loc 1 2606 0
 5968 0026 5B06     		lsls	r3, r3, #25
 5969 0028 0DD5     		bpl	.L837
 5970              		.loc 1 2607 0
 5971 002a 2146     		mov	r1, r4
 5972 002c A269     		ldr	r2, [r4, #24]
 5973 002e 51F8240B 		ldr	r0, [r1], #36
 5974              	.LVL858:
 5975 0032 0123     		movs	r3, #1
 5976 0034 4078     		ldrb	r0, [r0, #1]	@ zero_extendqisi2
 5977 0036 FFF7FEFF 		bl	disk_write
 5978              	.LVL859:
 5979 003a 0028     		cmp	r0, #0
 5980 003c 46D1     		bne	.L848
 5981              		.loc 1 2609 0
 5982 003e A379     		ldrb	r3, [r4, #6]	@ zero_extendqisi2
 5983 0040 23F04003 		bic	r3, r3, #64
 5984 0044 A371     		strb	r3, [r4, #6]
 5985              	.L837:
 5986              		.loc 1 2613 0
 5987 0046 2068     		ldr	r0, [r4]
 5988 0048 E169     		ldr	r1, [r4, #28]
 5989 004a FFF7FEFF 		bl	move_window
 5990              	.LVL860:
 5991              		.loc 1 2614 0
 5992 004e 0546     		mov	r5, r0
 5993 0050 60BB     		cbnz	r0, .L835
 5994              		.loc 1 2615 0
 5995 0052 256A     		ldr	r5, [r4, #32]
 5996              	.LVL861:
 5997              		.loc 1 2616 0
 5998 0054 EB7A     		ldrb	r3, [r5, #11]	@ zero_extendqisi2
 5999 0056 43F02003 		orr	r3, r3, #32
 6000 005a EB72     		strb	r3, [r5, #11]
 6001              		.loc 1 2617 0
 6002 005c E368     		ldr	r3, [r4, #12]
 6003 005e 2B77     		strb	r3, [r5, #28]
 6004 0060 A389     		ldrh	r3, [r4, #12]
 6005 0062 1B0A     		lsrs	r3, r3, #8
 6006 0064 6B77     		strb	r3, [r5, #29]
 6007 0066 E389     		ldrh	r3, [r4, #14]
 6008 0068 AB77     		strb	r3, [r5, #30]
ARM GAS  /tmp/ccICsm2b.s 			page 107


 6009 006a E37B     		ldrb	r3, [r4, #15]	@ zero_extendqisi2
 6010 006c EB77     		strb	r3, [r5, #31]
 6011              		.loc 1 2618 0
 6012 006e 2369     		ldr	r3, [r4, #16]
 6013 0070 AB76     		strb	r3, [r5, #26]
 6014 0072 238A     		ldrh	r3, [r4, #16]
 6015 0074 1B0A     		lsrs	r3, r3, #8
 6016 0076 EB76     		strb	r3, [r5, #27]
 6017 0078 638A     		ldrh	r3, [r4, #18]
 6018 007a 2B75     		strb	r3, [r5, #20]
 6019 007c 638A     		ldrh	r3, [r4, #18]
 6020 007e 1B0A     		lsrs	r3, r3, #8
 6021 0080 6B75     		strb	r3, [r5, #21]
 6022              		.loc 1 2619 0
 6023 0082 FFF7FEFF 		bl	get_fattime
 6024              	.LVL862:
 6025              		.loc 1 2620 0
 6026 0086 C0F30721 		ubfx	r1, r0, #8, #8
 6027 008a 020C     		lsrs	r2, r0, #16
 6028 008c 030E     		lsrs	r3, r0, #24
 6029 008e 2A76     		strb	r2, [r5, #24]
 6030 0090 A875     		strb	r0, [r5, #22]
 6031 0092 E975     		strb	r1, [r5, #23]
 6032 0094 6B76     		strb	r3, [r5, #25]
 6033              		.loc 1 2621 0
 6034 0096 A179     		ldrb	r1, [r4, #6]	@ zero_extendqisi2
 6035              		.loc 1 2622 0
 6036 0098 2368     		ldr	r3, [r4]
 6037              		.loc 1 2621 0
 6038 009a 21F02001 		bic	r1, r1, #32
 6039              		.loc 1 2622 0
 6040 009e 0122     		movs	r2, #1
 6041              		.loc 1 2621 0
 6042 00a0 A171     		strb	r1, [r4, #6]
 6043              		.loc 1 2622 0
 6044 00a2 1A71     		strb	r2, [r3, #4]
 6045              		.loc 1 2623 0
 6046 00a4 2068     		ldr	r0, [r4]
 6047              	.LVL863:
 6048 00a6 FFF7FEFF 		bl	sync
 6049              	.LVL864:
 6050 00aa 0546     		mov	r5, r0
 6051              	.LVL865:
 6052              	.L835:
 6053              	.LBB573:
 6054              	.LBB571:
 6055              		.loc 1 592 0
 6056 00ac A5F10B03 		sub	r3, r5, #11
 6057 00b0 DBB2     		uxtb	r3, r3
 6058 00b2 012B     		cmp	r3, #1
 6059              	.LBE571:
 6060              	.LBE573:
 6061              		.loc 1 2628 0
 6062 00b4 2068     		ldr	r0, [r4]
 6063              	.LVL866:
 6064              	.LBB574:
 6065              	.LBB572:
ARM GAS  /tmp/ccICsm2b.s 			page 108


 6066              		.loc 1 592 0
 6067 00b6 01D9     		bls	.L842
 6068              		.loc 1 593 0
 6069 00b8 092D     		cmp	r5, #9
 6070 00ba 01D1     		bne	.L849
 6071              	.L842:
 6072 00bc 2846     		mov	r0, r5
 6073              	.LVL867:
 6074 00be 38BD     		pop	{r3, r4, r5, pc}
 6075              	.LVL868:
 6076              	.L849:
 6077 00c0 0C30     		adds	r0, r0, #12
 6078              	.LVL869:
 6079 00c2 2946     		mov	r1, r5
 6080 00c4 FFF7FEFF 		bl	unlock_fs.isra.4.part.5
 6081              	.LVL870:
 6082 00c8 2846     		mov	r0, r5
 6083 00ca 38BD     		pop	{r3, r4, r5, pc}
 6084              	.LVL871:
 6085              	.L848:
 6086              	.LBE572:
 6087              	.LBE574:
 6088              	.LBB575:
 6089              	.LBB576:
 6090              	.LBB577:
 6091              		.loc 1 596 0
 6092 00cc 2368     		ldr	r3, [r4]
 6093 00ce D868     		ldr	r0, [r3, #12]
 6094 00d0 FFF7FEFF 		bl	ff_rel_grant
 6095              	.LVL872:
 6096              	.LBE577:
 6097              	.LBE576:
 6098              	.LBE575:
 6099              		.loc 1 2608 0
 6100 00d4 0120     		movs	r0, #1
 6101 00d6 38BD     		pop	{r3, r4, r5, pc}
 6102              		.cfi_endproc
 6103              	.LFE41:
 6104              		.size	f_sync, .-f_sync
 6105              		.section	.text.f_close,"ax",%progbits
 6106              		.align	2
 6107              		.p2align 4,,15
 6108              		.global	f_close
 6109              		.thumb
 6110              		.thumb_func
 6111              		.type	f_close, %function
 6112              	f_close:
 6113              	.LFB42:
 6114              		.loc 1 2643 0
 6115              		.cfi_startproc
 6116              		@ args = 0, pretend = 0, frame = 0
 6117              		@ frame_needed = 0, uses_anonymous_args = 0
 6118              	.LVL873:
 6119 0000 10B5     		push	{r4, lr}
 6120              		.cfi_def_cfa_offset 8
 6121              		.cfi_offset 4, -8
 6122              		.cfi_offset 14, -4
ARM GAS  /tmp/ccICsm2b.s 			page 109


 6123              		.loc 1 2643 0
 6124 0002 0446     		mov	r4, r0
 6125              		.loc 1 2653 0
 6126 0004 FFF7FEFF 		bl	f_sync
 6127              	.LVL874:
 6128              		.loc 1 2667 0
 6129 0008 00B9     		cbnz	r0, .L851
 6130              		.loc 1 2667 0 is_stmt 0 discriminator 1
 6131 000a 2060     		str	r0, [r4]
 6132              	.L851:
 6133              		.loc 1 2670 0 is_stmt 1
 6134 000c 10BD     		pop	{r4, pc}
 6135              		.cfi_endproc
 6136              	.LFE42:
 6137              		.size	f_close, .-f_close
 6138 000e 00BF     		.section	.text.f_lseek,"ax",%progbits
 6139              		.align	2
 6140              		.p2align 4,,15
 6141              		.global	f_lseek
 6142              		.thumb
 6143              		.thumb_func
 6144              		.type	f_lseek, %function
 6145              	f_lseek:
 6146              	.LFB43:
 6147              		.loc 1 2808 0
 6148              		.cfi_startproc
 6149              		@ args = 0, pretend = 0, frame = 0
 6150              		@ frame_needed = 0, uses_anonymous_args = 0
 6151              	.LVL875:
 6152 0000 70B5     		push	{r4, r5, r6, lr}
 6153              		.cfi_def_cfa_offset 16
 6154              		.cfi_offset 4, -16
 6155              		.cfi_offset 5, -12
 6156              		.cfi_offset 6, -8
 6157              		.cfi_offset 14, -4
 6158              		.loc 1 2808 0
 6159 0002 0446     		mov	r4, r0
 6160 0004 0D46     		mov	r5, r1
 6161              		.loc 1 2812 0
 6162 0006 0068     		ldr	r0, [r0]
 6163              	.LVL876:
 6164 0008 A188     		ldrh	r1, [r4, #4]
 6165              	.LVL877:
 6166 000a FFF7FEFF 		bl	validate
 6167              	.LVL878:
 6168              		.loc 1 2813 0
 6169 000e 0646     		mov	r6, r0
 6170 0010 68B1     		cbz	r0, .L853
 6171              	.LBB619:
 6172              	.LBB620:
 6173              		.loc 1 592 0 discriminator 1
 6174 0012 A0F10B03 		sub	r3, r0, #11
 6175 0016 DBB2     		uxtb	r3, r3
 6176 0018 012B     		cmp	r3, #1
 6177              	.LBE620:
 6178              	.LBE619:
 6179              		.loc 1 2813 0 discriminator 1
ARM GAS  /tmp/ccICsm2b.s 			page 110


 6180 001a 2068     		ldr	r0, [r4]
 6181              	.LVL879:
 6182              	.LBB623:
 6183              	.LBB621:
 6184              		.loc 1 592 0 discriminator 1
 6185 001c 5BD9     		bls	.L886
 6186              		.loc 1 593 0
 6187 001e 092E     		cmp	r6, #9
 6188 0020 59D0     		beq	.L886
 6189 0022 0C30     		adds	r0, r0, #12
 6190              	.LVL880:
 6191 0024 3146     		mov	r1, r6
 6192 0026 FFF7FEFF 		bl	unlock_fs.isra.4.part.5
 6193              	.LVL881:
 6194 002a 3046     		mov	r0, r6
 6195 002c 70BD     		pop	{r4, r5, r6, pc}
 6196              	.LVL882:
 6197              	.L853:
 6198              	.LBE621:
 6199              	.LBE623:
 6200              		.loc 1 2814 0
 6201 002e A379     		ldrb	r3, [r4, #6]	@ zero_extendqisi2
 6202 0030 1E06     		lsls	r6, r3, #24
 6203 0032 52D4     		bmi	.L896
 6204              	.LBB624:
 6205              		.loc 1 2878 0
 6206 0034 E268     		ldr	r2, [r4, #12]
 6207 0036 AA42     		cmp	r2, r5
 6208 0038 03D2     		bcs	.L856
 6209 003a 13F0020F 		tst	r3, #2
 6210 003e 08BF     		it	eq
 6211 0040 1546     		moveq	r5, r2
 6212              	.LVL883:
 6213              	.L856:
 6214              		.loc 1 2885 0
 6215 0042 0023     		movs	r3, #0
 6216              		.loc 1 2884 0
 6217 0044 A268     		ldr	r2, [r4, #8]
 6218              	.LVL884:
 6219              		.loc 1 2887 0
 6220 0046 2068     		ldr	r0, [r4]
 6221              	.LVL885:
 6222              		.loc 1 2885 0
 6223 0048 A360     		str	r3, [r4, #8]
 6224              		.loc 1 2886 0
 6225 004a 002D     		cmp	r5, #0
 6226 004c 3DD0     		beq	.L858
 6227              		.loc 1 2887 0
 6228 004e 8678     		ldrb	r6, [r0, #2]	@ zero_extendqisi2
 6229 0050 7602     		lsls	r6, r6, #9
 6230              	.LVL886:
 6231              		.loc 1 2888 0
 6232 0052 42B1     		cbz	r2, .L859
 6233              		.loc 1 2889 0 discriminator 1
 6234 0054 013A     		subs	r2, r2, #1
 6235              	.LVL887:
 6236 0056 691E     		subs	r1, r5, #1
ARM GAS  /tmp/ccICsm2b.s 			page 111


 6237 0058 B2FBF6F3 		udiv	r3, r2, r6
 6238 005c B1FBF6F1 		udiv	r1, r1, r6
 6239              		.loc 1 2888 0 discriminator 1
 6240 0060 9942     		cmp	r1, r3
 6241 0062 80F08480 		bcs	.L897
 6242              	.LVL888:
 6243              	.L859:
 6244              		.loc 1 2894 0
 6245 0066 2269     		ldr	r2, [r4, #16]
 6246              	.LVL889:
 6247              		.loc 1 2896 0
 6248 0068 002A     		cmp	r2, #0
 6249 006a 00F08880 		beq	.L898
 6250              	.L861:
 6251              		.loc 1 2903 0
 6252 006e 6261     		str	r2, [r4, #20]
 6253              	.L860:
 6254              		.loc 1 2905 0
 6255 0070 002A     		cmp	r2, #0
 6256 0072 42D1     		bne	.L864
 6257 0074 A368     		ldr	r3, [r4, #8]
 6258              		.loc 1 2885 0
 6259 0076 1546     		mov	r5, r2
 6260              	.LVL890:
 6261              	.L865:
 6262              		.loc 1 2930 0
 6263 0078 C3F30802 		ubfx	r2, r3, #0, #9
 6264 007c 002A     		cmp	r2, #0
 6265 007e 7CD0     		beq	.L893
 6266              		.loc 1 2930 0 is_stmt 0 discriminator 1
 6267 0080 A269     		ldr	r2, [r4, #24]
 6268 0082 AA42     		cmp	r2, r5
 6269 0084 79D0     		beq	.L893
 6270              		.loc 1 2933 0 is_stmt 1
 6271 0086 A379     		ldrb	r3, [r4, #6]	@ zero_extendqisi2
 6272 0088 5B06     		lsls	r3, r3, #25
 6273              		.loc 1 2934 0
 6274 008a 04F12406 		add	r6, r4, #36
 6275              		.loc 1 2933 0
 6276 008e 0AD5     		bpl	.L882
 6277              		.loc 1 2934 0
 6278 0090 4078     		ldrb	r0, [r0, #1]	@ zero_extendqisi2
 6279 0092 3146     		mov	r1, r6
 6280 0094 0123     		movs	r3, #1
 6281 0096 FFF7FEFF 		bl	disk_write
 6282              	.LVL891:
 6283 009a 20BB     		cbnz	r0, .L894
 6284              		.loc 1 2936 0
 6285 009c A379     		ldrb	r3, [r4, #6]	@ zero_extendqisi2
 6286 009e 2068     		ldr	r0, [r4]
 6287 00a0 23F04003 		bic	r3, r3, #64
 6288 00a4 A371     		strb	r3, [r4, #6]
 6289              	.L882:
 6290              		.loc 1 2939 0
 6291 00a6 4078     		ldrb	r0, [r0, #1]	@ zero_extendqisi2
 6292 00a8 3146     		mov	r1, r6
 6293 00aa 2A46     		mov	r2, r5
ARM GAS  /tmp/ccICsm2b.s 			page 112


 6294 00ac 0123     		movs	r3, #1
 6295 00ae FFF7FEFF 		bl	disk_read
 6296              	.LVL892:
 6297 00b2 C0B9     		cbnz	r0, .L894
 6298 00b4 A368     		ldr	r3, [r4, #8]
 6299 00b6 E268     		ldr	r2, [r4, #12]
 6300 00b8 2068     		ldr	r0, [r4]
 6301              		.loc 1 2942 0
 6302 00ba A561     		str	r5, [r4, #24]
 6303              	.L879:
 6304              		.loc 1 2945 0
 6305 00bc 9A42     		cmp	r2, r3
 6306 00be 04D2     		bcs	.L858
 6307              		.loc 1 2947 0
 6308 00c0 A279     		ldrb	r2, [r4, #6]	@ zero_extendqisi2
 6309              		.loc 1 2946 0
 6310 00c2 E360     		str	r3, [r4, #12]
 6311              		.loc 1 2947 0
 6312 00c4 42F02003 		orr	r3, r2, #32
 6313 00c8 A371     		strb	r3, [r4, #6]
 6314              	.LVL893:
 6315              	.L858:
 6316              	.LBE624:
 6317              	.LBB648:
 6318              	.LBB649:
 6319 00ca 0C30     		adds	r0, r0, #12
 6320              	.LVL894:
 6321 00cc 0021     		movs	r1, #0
 6322 00ce FFF7FEFF 		bl	unlock_fs.isra.4.part.5
 6323              	.LVL895:
 6324 00d2 0020     		movs	r0, #0
 6325 00d4 70BD     		pop	{r4, r5, r6, pc}
 6326              	.LVL896:
 6327              	.L886:
 6328              	.LBE649:
 6329              	.LBE648:
 6330              	.LBB650:
 6331              	.LBB622:
 6332              		.loc 1 593 0
 6333 00d6 3046     		mov	r0, r6
 6334              	.LVL897:
 6335              	.LBE622:
 6336              	.LBE650:
 6337              		.loc 1 2953 0
 6338 00d8 70BD     		pop	{r4, r5, r6, pc}
 6339              	.LVL898:
 6340              	.L896:
 6341              	.LBB651:
 6342              	.LBB652:
 6343              	.LBB653:
 6344              		.loc 1 596 0
 6345 00da 2368     		ldr	r3, [r4]
 6346 00dc D868     		ldr	r0, [r3, #12]
 6347              	.LVL899:
 6348 00de FFF7FEFF 		bl	ff_rel_grant
 6349              	.LVL900:
 6350              	.LBE653:
ARM GAS  /tmp/ccICsm2b.s 			page 113


 6351              	.LBE652:
 6352              	.LBE651:
 6353              		.loc 1 2815 0
 6354 00e2 0220     		movs	r0, #2
 6355 00e4 70BD     		pop	{r4, r5, r6, pc}
 6356              	.LVL901:
 6357              	.L894:
 6358              	.LBB654:
 6359              		.loc 1 2940 0
 6360 00e6 A279     		ldrb	r2, [r4, #6]	@ zero_extendqisi2
 6361              	.LBB625:
 6362              	.LBB626:
 6363              	.LBB627:
 6364              		.loc 1 596 0
 6365 00e8 2368     		ldr	r3, [r4]
 6366              	.LBE627:
 6367              	.LBE626:
 6368              	.LBE625:
 6369              		.loc 1 2940 0
 6370 00ea 62F07F02 		orn	r2, r2, #127
 6371 00ee A271     		strb	r2, [r4, #6]
 6372              	.LVL902:
 6373              	.LBB630:
 6374              	.LBB629:
 6375              	.LBB628:
 6376              		.loc 1 596 0
 6377 00f0 D868     		ldr	r0, [r3, #12]
 6378 00f2 FFF7FEFF 		bl	ff_rel_grant
 6379              	.LVL903:
 6380              	.LBE628:
 6381              	.LBE629:
 6382              	.LBE630:
 6383              		.loc 1 2940 0
 6384 00f6 0120     		movs	r0, #1
 6385 00f8 70BD     		pop	{r4, r5, r6, pc}
 6386              	.LVL904:
 6387              	.L864:
 6388              		.loc 1 2906 0 discriminator 1
 6389 00fa B542     		cmp	r5, r6
 6390 00fc 68D9     		bls	.L899
 6391              	.L875:
 6392              	.LVL905:
 6393              		.loc 1 2908 0
 6394 00fe A379     		ldrb	r3, [r4, #6]	@ zero_extendqisi2
 6395 0100 9907     		lsls	r1, r3, #30
 6396              		.loc 1 2920 0
 6397 0102 C6EB0505 		rsb	r5, r6, r5
 6398              	.LVL906:
 6399              		.loc 1 2908 0
 6400 0106 0CD4     		bmi	.L900
 6401              	.LBB631:
 6402              	.LBB632:
 6403              		.loc 1 828 0
 6404 0108 012A     		cmp	r2, #1
 6405 010a 02D9     		bls	.L895
 6406 010c C169     		ldr	r1, [r0, #28]
 6407 010e 9142     		cmp	r1, r2
ARM GAS  /tmp/ccICsm2b.s 			page 114


 6408 0110 28D8     		bhi	.L901
 6409              	.LVL907:
 6410              	.L895:
 6411              	.LBE632:
 6412              	.LBE631:
 6413              		.loc 1 2925 0 discriminator 1
 6414 0112 63F07F03 		orn	r3, r3, #127
 6415 0116 A371     		strb	r3, [r4, #6]
 6416              	.LVL908:
 6417              	.LBB634:
 6418              	.LBB635:
 6419              	.LBB636:
 6420              		.loc 1 596 0 discriminator 1
 6421 0118 C068     		ldr	r0, [r0, #12]
 6422              	.LVL909:
 6423 011a FFF7FEFF 		bl	ff_rel_grant
 6424              	.LVL910:
 6425              	.LBE636:
 6426              	.LBE635:
 6427              	.LBE634:
 6428              		.loc 1 2925 0 discriminator 1
 6429 011e 0220     		movs	r0, #2
 6430 0120 70BD     		pop	{r4, r5, r6, pc}
 6431              	.LVL911:
 6432              	.L900:
 6433              		.loc 1 2909 0
 6434 0122 1146     		mov	r1, r2
 6435 0124 FFF7FEFF 		bl	create_chain
 6436              	.LVL912:
 6437              		.loc 1 2910 0
 6438 0128 0246     		mov	r2, r0
 6439 012a 0028     		cmp	r0, #0
 6440 012c 4CD0     		beq	.L902
 6441              	.LVL913:
 6442              	.L869:
 6443              		.loc 1 2916 0
 6444 012e 511C     		adds	r1, r2, #1
 6445 0130 D9D0     		beq	.L894
 6446              		.loc 1 2917 0
 6447 0132 012A     		cmp	r2, #1
 6448 0134 2ED9     		bls	.L903
 6449              		.loc 1 2917 0 is_stmt 0 discriminator 2
 6450 0136 2068     		ldr	r0, [r4]
 6451 0138 C369     		ldr	r3, [r0, #28]
 6452 013a 9A42     		cmp	r2, r3
 6453 013c 0146     		mov	r1, r0
 6454 013e 2AD2     		bcs	.L873
 6455              		.loc 1 2919 0 is_stmt 1
 6456 0140 A368     		ldr	r3, [r4, #8]
 6457              		.loc 1 2918 0
 6458 0142 6261     		str	r2, [r4, #20]
 6459              		.loc 1 2919 0
 6460 0144 3344     		add	r3, r3, r6
 6461              		.loc 1 2906 0
 6462 0146 AE42     		cmp	r6, r5
 6463              		.loc 1 2919 0
 6464 0148 A360     		str	r3, [r4, #8]
ARM GAS  /tmp/ccICsm2b.s 			page 115


 6465              		.loc 1 2906 0
 6466 014a D8D3     		bcc	.L875
 6467              	.LVL914:
 6468              	.L867:
 6469              		.loc 1 2922 0
 6470 014c 2B44     		add	r3, r3, r5
 6471              		.loc 1 2923 0
 6472 014e C5F30801 		ubfx	r1, r5, #0, #9
 6473              		.loc 1 2922 0
 6474 0152 A360     		str	r3, [r4, #8]
 6475              		.loc 1 2923 0
 6476 0154 11B3     		cbz	r1, .L888
 6477              	.LVL915:
 6478              	.LBB637:
 6479              	.LBB638:
 6480              		.loc 1 807 0
 6481 0156 C169     		ldr	r1, [r0, #28]
 6482              		.loc 1 806 0
 6483 0158 023A     		subs	r2, r2, #2
 6484              	.LVL916:
 6485              		.loc 1 807 0
 6486 015a 0239     		subs	r1, r1, #2
 6487 015c 8A42     		cmp	r2, r1
 6488 015e 29D3     		bcc	.L904
 6489              	.LVL917:
 6490              	.L876:
 6491              	.LBE638:
 6492              	.LBE637:
 6493              		.loc 1 2925 0 discriminator 1
 6494 0160 A379     		ldrb	r3, [r4, #6]	@ zero_extendqisi2
 6495 0162 D6E7     		b	.L895
 6496              	.LVL918:
 6497              	.L901:
 6498              	.LBB640:
 6499              	.LBB633:
 6500 0164 1146     		mov	r1, r2
 6501 0166 FFF7FEFF 		bl	get_fat.part.6
 6502              	.LVL919:
 6503 016a 0246     		mov	r2, r0
 6504 016c DFE7     		b	.L869
 6505              	.LVL920:
 6506              	.L897:
 6507              	.LBE633:
 6508              	.LBE640:
 6509              		.loc 1 2890 0
 6510 016e 7342     		negs	r3, r6
 6511 0170 1A40     		ands	r2, r2, r3
 6512              	.LVL921:
 6513 0172 A260     		str	r2, [r4, #8]
 6514              		.loc 1 2891 0
 6515 0174 AD1A     		subs	r5, r5, r2
 6516              	.LVL922:
 6517              		.loc 1 2892 0
 6518 0176 6269     		ldr	r2, [r4, #20]
 6519              	.LVL923:
 6520 0178 7AE7     		b	.L860
 6521              	.LVL924:
ARM GAS  /tmp/ccICsm2b.s 			page 116


 6522              	.L893:
 6523 017a E268     		ldr	r2, [r4, #12]
 6524 017c 9EE7     		b	.L879
 6525              	.LVL925:
 6526              	.L898:
 6527              		.loc 1 2897 0
 6528 017e 1146     		mov	r1, r2
 6529 0180 FFF7FEFF 		bl	create_chain
 6530              	.LVL926:
 6531              		.loc 1 2898 0
 6532 0184 0128     		cmp	r0, #1
 6533              		.loc 1 2897 0
 6534 0186 0246     		mov	r2, r0
 6535              	.LVL927:
 6536              		.loc 1 2898 0
 6537 0188 0AD0     		beq	.L905
 6538              		.loc 1 2899 0
 6539 018a 0130     		adds	r0, r0, #1
 6540              	.LVL928:
 6541 018c ABD0     		beq	.L894
 6542 018e 2068     		ldr	r0, [r4]
 6543              		.loc 1 2900 0
 6544 0190 2261     		str	r2, [r4, #16]
 6545 0192 6CE7     		b	.L861
 6546              	.L903:
 6547 0194 2168     		ldr	r1, [r4]
 6548              	.L873:
 6549 0196 0846     		mov	r0, r1
 6550 0198 A379     		ldrb	r3, [r4, #6]	@ zero_extendqisi2
 6551 019a BAE7     		b	.L895
 6552              	.L888:
 6553              		.loc 1 2885 0
 6554 019c 0D46     		mov	r5, r1
 6555              	.LVL929:
 6556 019e 6BE7     		b	.L865
 6557              	.LVL930:
 6558              	.L905:
 6559              		.loc 1 2898 0 discriminator 1
 6560 01a0 A279     		ldrb	r2, [r4, #6]	@ zero_extendqisi2
 6561              	.LBB641:
 6562              	.LBB642:
 6563              	.LBB643:
 6564              		.loc 1 596 0 discriminator 1
 6565 01a2 2368     		ldr	r3, [r4]
 6566              	.LBE643:
 6567              	.LBE642:
 6568              	.LBE641:
 6569              		.loc 1 2898 0 discriminator 1
 6570 01a4 62F07F02 		orn	r2, r2, #127
 6571 01a8 A271     		strb	r2, [r4, #6]
 6572              	.LVL931:
 6573              	.LBB646:
 6574              	.LBB645:
 6575              	.LBB644:
 6576              		.loc 1 596 0 discriminator 1
 6577 01aa D868     		ldr	r0, [r3, #12]
 6578              	.LVL932:
ARM GAS  /tmp/ccICsm2b.s 			page 117


 6579 01ac FFF7FEFF 		bl	ff_rel_grant
 6580              	.LVL933:
 6581              	.LBE644:
 6582              	.LBE645:
 6583              	.LBE646:
 6584              		.loc 1 2898 0 discriminator 1
 6585 01b0 0220     		movs	r0, #2
 6586 01b2 70BD     		pop	{r4, r5, r6, pc}
 6587              	.LVL934:
 6588              	.L904:
 6589              	.LBB647:
 6590              	.LBB639:
 6591              		.loc 1 808 0
 6592 01b4 8678     		ldrb	r6, [r0, #2]	@ zero_extendqisi2
 6593              	.LVL935:
 6594 01b6 C16A     		ldr	r1, [r0, #44]
 6595 01b8 06FB0212 		mla	r2, r6, r2, r1
 6596              	.LVL936:
 6597              	.LBE639:
 6598              	.LBE647:
 6599              		.loc 1 2926 0
 6600 01bc 02EB5525 		add	r5, r2, r5, lsr #9
 6601              	.LVL937:
 6602              		.loc 1 2925 0
 6603 01c0 002A     		cmp	r2, #0
 6604 01c2 7FF459AF 		bne	.L865
 6605 01c6 CBE7     		b	.L876
 6606              	.LVL938:
 6607              	.L902:
 6608              		.loc 1 2910 0
 6609 01c8 3546     		mov	r5, r6
 6610 01ca A368     		ldr	r3, [r4, #8]
 6611 01cc 2068     		ldr	r0, [r4]
 6612              	.LVL939:
 6613 01ce BDE7     		b	.L867
 6614              	.LVL940:
 6615              	.L899:
 6616 01d0 A368     		ldr	r3, [r4, #8]
 6617 01d2 BBE7     		b	.L867
 6618              	.LBE654:
 6619              		.cfi_endproc
 6620              	.LFE43:
 6621              		.size	f_lseek, .-f_lseek
 6622 01d4 AFF30080 		.section	.text.f_opendir,"ax",%progbits
 6622      AFF30080 
 6622      AFF30080 
 6623              		.align	2
 6624              		.p2align 4,,15
 6625              		.global	f_opendir
 6626              		.thumb
 6627              		.thumb_func
 6628              		.type	f_opendir, %function
 6629              	f_opendir:
 6630              	.LFB44:
 6631              		.loc 1 2966 0
 6632              		.cfi_startproc
 6633              		@ args = 0, pretend = 0, frame = 24
ARM GAS  /tmp/ccICsm2b.s 			page 118


 6634              		@ frame_needed = 0, uses_anonymous_args = 0
 6635              	.LVL941:
 6636 0000 70B5     		push	{r4, r5, r6, lr}
 6637              		.cfi_def_cfa_offset 16
 6638              		.cfi_offset 4, -16
 6639              		.cfi_offset 5, -12
 6640              		.cfi_offset 6, -8
 6641              		.cfi_offset 14, -4
 6642 0002 86B0     		sub	sp, sp, #24
 6643              		.cfi_def_cfa_offset 40
 6644              		.loc 1 2966 0
 6645 0004 06AB     		add	r3, sp, #24
 6646 0006 0546     		mov	r5, r0
 6647 0008 43F8141D 		str	r1, [r3, #-20]!
 6648              		.loc 1 2971 0
 6649 000c 0022     		movs	r2, #0
 6650 000e 1846     		mov	r0, r3
 6651              	.LVL942:
 6652 0010 2946     		mov	r1, r5
 6653              	.LVL943:
 6654 0012 FFF7FEFF 		bl	chk_mounted
 6655              	.LVL944:
 6656              		.loc 1 2972 0
 6657 0016 0446     		mov	r4, r0
 6658 0018 50B1     		cbz	r0, .L907
 6659              	.LVL945:
 6660              	.L923:
 6661 001a A4F10B03 		sub	r3, r4, #11
 6662 001e DBB2     		uxtb	r3, r3
 6663              	.LVL946:
 6664              	.LBB661:
 6665              	.LBB662:
 6666              		.loc 1 592 0
 6667 0020 012B     		cmp	r3, #1
 6668              	.LBE662:
 6669              	.LBE661:
 6670              		.loc 1 2992 0
 6671 0022 2868     		ldr	r0, [r5]
 6672              	.LVL947:
 6673              	.LBB665:
 6674              	.LBB663:
 6675              		.loc 1 592 0
 6676 0024 01D9     		bls	.L918
 6677              		.loc 1 593 0
 6678 0026 092C     		cmp	r4, #9
 6679 0028 1CD1     		bne	.L916
 6680              	.L918:
 6681 002a 2046     		mov	r0, r4
 6682              	.LVL948:
 6683              	.L922:
 6684              	.LBE663:
 6685              	.LBE665:
 6686              		.loc 1 2993 0
 6687 002c 06B0     		add	sp, sp, #24
 6688              	.LVL949:
 6689              		@ sp needed
 6690 002e 70BD     		pop	{r4, r5, r6, pc}
ARM GAS  /tmp/ccICsm2b.s 			page 119


 6691              	.LVL950:
 6692              	.L907:
 6693              		.loc 1 2973 0
 6694 0030 4FF40070 		mov	r0, #512
 6695              	.LVL951:
 6696 0034 FFF7FEFF 		bl	ff_memalloc
 6697              	.LVL952:
 6698 0038 0646     		mov	r6, r0
 6699 003a 0028     		cmp	r0, #0
 6700 003c 32D0     		beq	.L924
 6701              		.loc 1 2973 0 is_stmt 0 discriminator 2
 6702 003e 03AB     		add	r3, sp, #12
 6703 0040 E861     		str	r0, [r5, #28]
 6704 0042 AB61     		str	r3, [r5, #24]
 6705              		.loc 1 2974 0 is_stmt 1 discriminator 2
 6706 0044 2846     		mov	r0, r5
 6707              	.LVL953:
 6708 0046 0199     		ldr	r1, [sp, #4]
 6709 0048 FFF7FEFF 		bl	follow_path
 6710              	.LVL954:
 6711 004c 0446     		mov	r4, r0
 6712              	.LVL955:
 6713              		.loc 1 2975 0 discriminator 2
 6714 004e 3046     		mov	r0, r6
 6715              	.LVL956:
 6716 0050 FFF7FEFF 		bl	ff_memfree
 6717              	.LVL957:
 6718              		.loc 1 2976 0 discriminator 2
 6719 0054 04BB     		cbnz	r4, .L911
 6720              		.loc 1 2977 0
 6721 0056 6B69     		ldr	r3, [r5, #20]
 6722 0058 B3B1     		cbz	r3, .L912
 6723              		.loc 1 2978 0
 6724 005a DA7A     		ldrb	r2, [r3, #11]	@ zero_extendqisi2
 6725 005c D206     		lsls	r2, r2, #27
 6726 005e 08D4     		bmi	.L925
 6727              	.LVL958:
 6728              		.loc 1 2992 0
 6729 0060 2868     		ldr	r0, [r5]
 6730              	.LVL959:
 6731              		.loc 1 2981 0
 6732 0062 0524     		movs	r4, #5
 6733              	.LVL960:
 6734              	.L916:
 6735 0064 0C30     		adds	r0, r0, #12
 6736              	.LVL961:
 6737              	.L915:
 6738              	.LBB666:
 6739              	.LBB664:
 6740 0066 2146     		mov	r1, r4
 6741 0068 FFF7FEFF 		bl	unlock_fs.isra.4.part.5
 6742              	.LVL962:
 6743 006c 2046     		mov	r0, r4
 6744              	.LBE664:
 6745              	.LBE666:
 6746              		.loc 1 2993 0
 6747 006e 06B0     		add	sp, sp, #24
ARM GAS  /tmp/ccICsm2b.s 			page 120


 6748              	.LVL963:
 6749              		@ sp needed
 6750 0070 70BD     		pop	{r4, r5, r6, pc}
 6751              	.LVL964:
 6752              	.L925:
 6753              		.loc 1 2979 0
 6754 0072 5C7D     		ldrb	r4, [r3, #21]	@ zero_extendqisi2
 6755              	.LVL965:
 6756 0074 1A7D     		ldrb	r2, [r3, #20]	@ zero_extendqisi2
 6757 0076 D87E     		ldrb	r0, [r3, #27]	@ zero_extendqisi2
 6758 0078 997E     		ldrb	r1, [r3, #26]	@ zero_extendqisi2
 6759 007a 42EA0422 		orr	r2, r2, r4, lsl #8
 6760 007e 41EA0023 		orr	r3, r1, r0, lsl #8
 6761 0082 43EA0243 		orr	r3, r3, r2, lsl #16
 6762 0086 AB60     		str	r3, [r5, #8]
 6763              	.L912:
 6764              	.LVL966:
 6765              		.loc 1 2985 0
 6766 0088 2B68     		ldr	r3, [r5]
 6767 008a DB88     		ldrh	r3, [r3, #6]
 6768 008c AB80     		strh	r3, [r5, #4]	@ movhi
 6769              		.loc 1 2986 0
 6770 008e 2846     		mov	r0, r5
 6771 0090 0021     		movs	r1, #0
 6772 0092 FFF7FEFF 		bl	dir_sdi
 6773              	.LVL967:
 6774 0096 0446     		mov	r4, r0
 6775              	.LVL968:
 6776              	.L911:
 6777              		.loc 1 2989 0
 6778 0098 042C     		cmp	r4, #4
 6779 009a BED1     		bne	.L923
 6780              	.LVL969:
 6781 009c 2868     		ldr	r0, [r5]
 6782 009e 0524     		movs	r4, #5
 6783 00a0 0C30     		adds	r0, r0, #12
 6784              	.LVL970:
 6785 00a2 E0E7     		b	.L915
 6786              	.LVL971:
 6787              	.L924:
 6788              	.LBB667:
 6789              	.LBB668:
 6790              	.LBB669:
 6791              		.loc 1 596 0 discriminator 1
 6792 00a4 2B68     		ldr	r3, [r5]
 6793 00a6 D868     		ldr	r0, [r3, #12]
 6794              	.LVL972:
 6795 00a8 FFF7FEFF 		bl	ff_rel_grant
 6796              	.LVL973:
 6797              	.LBE669:
 6798              	.LBE668:
 6799              	.LBE667:
 6800              		.loc 1 2973 0 discriminator 1
 6801 00ac 1120     		movs	r0, #17
 6802 00ae BDE7     		b	.L922
 6803              		.cfi_endproc
 6804              	.LFE44:
ARM GAS  /tmp/ccICsm2b.s 			page 121


 6805              		.size	f_opendir, .-f_opendir
 6806              		.section	.text.f_readdir,"ax",%progbits
 6807              		.align	2
 6808              		.p2align 4,,15
 6809              		.global	f_readdir
 6810              		.thumb
 6811              		.thumb_func
 6812              		.type	f_readdir, %function
 6813              	f_readdir:
 6814              	.LFB45:
 6815              		.loc 1 3006 0
 6816              		.cfi_startproc
 6817              		@ args = 0, pretend = 0, frame = 16
 6818              		@ frame_needed = 0, uses_anonymous_args = 0
 6819              	.LVL974:
 6820 0000 F0B5     		push	{r4, r5, r6, r7, lr}
 6821              		.cfi_def_cfa_offset 20
 6822              		.cfi_offset 4, -20
 6823              		.cfi_offset 5, -16
 6824              		.cfi_offset 6, -12
 6825              		.cfi_offset 7, -8
 6826              		.cfi_offset 14, -4
 6827 0002 0446     		mov	r4, r0
 6828 0004 85B0     		sub	sp, sp, #20
 6829              		.cfi_def_cfa_offset 40
 6830              		.loc 1 3006 0
 6831 0006 0E46     		mov	r6, r1
 6832              		.loc 1 3011 0
 6833 0008 0068     		ldr	r0, [r0]
 6834              	.LVL975:
 6835 000a A188     		ldrh	r1, [r4, #4]
 6836              	.LVL976:
 6837 000c FFF7FEFF 		bl	validate
 6838              	.LVL977:
 6839              		.loc 1 3012 0
 6840 0010 0546     		mov	r5, r0
 6841 0012 08BB     		cbnz	r0, .L942
 6842              		.loc 1 3013 0
 6843 0014 DEB1     		cbz	r6, .L943
 6844              		.loc 1 3016 0
 6845 0016 4FF40070 		mov	r0, #512
 6846              	.LVL978:
 6847 001a FFF7FEFF 		bl	ff_memalloc
 6848              	.LVL979:
 6849 001e 0746     		mov	r7, r0
 6850 0020 48B3     		cbz	r0, .L944
 6851              		.loc 1 3016 0 is_stmt 0 discriminator 2
 6852 0022 01AB     		add	r3, sp, #4
 6853 0024 E061     		str	r0, [r4, #28]
 6854 0026 A361     		str	r3, [r4, #24]
 6855              		.loc 1 3017 0 is_stmt 1 discriminator 2
 6856 0028 2046     		mov	r0, r4
 6857              	.LVL980:
 6858 002a FFF7FEFF 		bl	dir_read
 6859              	.LVL981:
 6860              		.loc 1 3018 0 discriminator 2
 6861 002e 0428     		cmp	r0, #4
ARM GAS  /tmp/ccICsm2b.s 			page 122


 6862 0030 28D0     		beq	.L945
 6863              		.loc 1 3022 0
 6864 0032 40B3     		cbz	r0, .L933
 6865              	.LVL982:
 6866              	.L941:
 6867 0034 A0F10B06 		sub	r6, r0, #11
 6868              	.LVL983:
 6869 0038 F6B2     		uxtb	r6, r6
 6870              		.loc 1 3025 0
 6871 003a 0546     		mov	r5, r0
 6872              	.L934:
 6873              	.LVL984:
 6874              		.loc 1 3030 0
 6875 003c 3846     		mov	r0, r7
 6876 003e FFF7FEFF 		bl	ff_memfree
 6877              	.LVL985:
 6878              	.LBB676:
 6879              	.LBB677:
 6880              		.loc 1 592 0
 6881 0042 012E     		cmp	r6, #1
 6882              	.LBE677:
 6883              	.LBE676:
 6884              		.loc 1 3034 0
 6885 0044 2068     		ldr	r0, [r4]
 6886              	.LVL986:
 6887              	.LBB681:
 6888              	.LBB678:
 6889              		.loc 1 592 0
 6890 0046 0DD8     		bhi	.L946
 6891              	.LVL987:
 6892              	.L937:
 6893              		.loc 1 593 0
 6894 0048 2846     		mov	r0, r5
 6895              	.LVL988:
 6896              	.LBE678:
 6897              	.LBE681:
 6898              		.loc 1 3035 0
 6899 004a 05B0     		add	sp, sp, #20
 6900              		@ sp needed
 6901 004c F0BD     		pop	{r4, r5, r6, r7, pc}
 6902              	.LVL989:
 6903              	.L943:
 6904              		.loc 1 3014 0
 6905 004e 0146     		mov	r1, r0
 6906 0050 2046     		mov	r0, r4
 6907              	.LVL990:
