ARM GAS  /tmp/ccyYSQYU.s 			page 1


   1              		.syntax unified
   2              		.cpu cortex-m4
   3              		.eabi_attribute 27, 3
   4              		.fpu fpv4-sp-d16
   5              		.eabi_attribute 20, 1
   6              		.eabi_attribute 21, 1
   7              		.eabi_attribute 23, 3
   8              		.eabi_attribute 24, 1
   9              		.eabi_attribute 25, 1
  10              		.eabi_attribute 26, 1
  11              		.eabi_attribute 30, 2
  12              		.eabi_attribute 34, 1
  13              		.eabi_attribute 18, 4
  14              		.thumb
  15              		.file	"flash_if.c"
  16              		.text
  17              	.Ltext0:
  18              		.cfi_sections	.debug_frame
  19              		.section	.text.FLASH_If_Init,"ax",%progbits
  20              		.align	2
  21              		.p2align 4,,15
  22              		.global	FLASH_If_Init
  23              		.thumb
  24              		.thumb_func
  25              		.type	FLASH_If_Init, %function
  26              	FLASH_If_Init:
  27              	.LFB111:
  28              		.file 1 "../AithonLibrary/flash_if.c"
  29              		.loc 1 42 0
  30              		.cfi_startproc
  31              		@ args = 0, pretend = 0, frame = 0
  32              		@ frame_needed = 0, uses_anonymous_args = 0
  33 0000 08B5     		push	{r3, lr}
  34              		.cfi_def_cfa_offset 8
  35              		.cfi_offset 3, -8
  36              		.cfi_offset 14, -4
  37              		.loc 1 43 0
  38 0002 FFF7FEFF 		bl	FLASH_Unlock
  39              	.LVL0:
  40              		.loc 1 46 0
  41 0006 F320     		movs	r0, #243
  42              		.loc 1 48 0
  43 0008 BDE80840 		pop	{r3, lr}
  44              		.loc 1 46 0
  45 000c FFF7FEBF 		b	FLASH_ClearFlag
  46              	.LVL1:
  47              		.cfi_endproc
  48              	.LFE111:
  49              		.size	FLASH_If_Init, .-FLASH_If_Init
  50              		.section	.text.FLASH_If_Erase,"ax",%progbits
  51              		.align	2
  52              		.p2align 4,,15
  53              		.global	FLASH_If_Erase
  54              		.thumb
  55              		.thumb_func
  56              		.type	FLASH_If_Erase, %function
  57              	FLASH_If_Erase:
ARM GAS  /tmp/ccyYSQYU.s 			page 2


  58              	.LFB112:
  59              		.loc 1 57 0
  60              		.cfi_startproc
  61              		@ args = 0, pretend = 0, frame = 0
  62              		@ frame_needed = 0, uses_anonymous_args = 0
  63              	.LVL2:
  64 0000 10B5     		push	{r4, lr}
  65              		.cfi_def_cfa_offset 8
  66              		.cfi_offset 4, -8
  67              		.cfi_offset 14, -4
  68              		.loc 1 59 0
  69 0002 2024     		movs	r4, #32
  70              	.LVL3:
  71              	.L4:
  72              		.loc 1 63 0
  73 0004 2046     		mov	r0, r4
  74 0006 0221     		movs	r1, #2
  75 0008 FFF7FEFF 		bl	FLASH_EraseSector
  76              	.LVL4:
  77 000c 0828     		cmp	r0, #8
  78              		.loc 1 59 0
  79 000e 04F10804 		add	r4, r4, #8
  80              	.LVL5:
  81              		.loc 1 63 0
  82 0012 03D1     		bne	.L5
  83              		.loc 1 59 0
  84 0014 402C     		cmp	r4, #64
  85 0016 F5D1     		bne	.L4
  86              		.loc 1 70 0
  87 0018 0020     		movs	r0, #0
  88              		.loc 1 71 0
  89 001a 10BD     		pop	{r4, pc}
  90              	.LVL6:
  91              	.L5:
  92              		.loc 1 66 0
  93 001c 0120     		movs	r0, #1
  94 001e 10BD     		pop	{r4, pc}
  95              		.cfi_endproc
  96              	.LFE112:
  97              		.size	FLASH_If_Erase, .-FLASH_If_Erase
  98              		.section	.text.FLASH_If_Write,"ax",%progbits
  99              		.align	2
 100              		.p2align 4,,15
 101              		.global	FLASH_If_Write
 102              		.thumb
 103              		.thumb_func
 104              		.type	FLASH_If_Write, %function
 105              	FLASH_If_Write:
 106              	.LFB113:
 107              		.loc 1 84 0
 108              		.cfi_startproc
 109              		@ args = 0, pretend = 0, frame = 0
 110              		@ frame_needed = 0, uses_anonymous_args = 0
 111              	.LVL7:
 112 0000 2DE9F041 		push	{r4, r5, r6, r7, r8, lr}
 113              		.cfi_def_cfa_offset 24
 114              		.cfi_offset 4, -24
ARM GAS  /tmp/ccyYSQYU.s 			page 3


 115              		.cfi_offset 5, -20
 116              		.cfi_offset 6, -16
 117              		.cfi_offset 7, -12
 118              		.cfi_offset 8, -8
 119              		.cfi_offset 14, -4
 120              		.loc 1 87 0
 121 0004 1746     		mov	r7, r2
 122              		.loc 1 84 0
 123 0006 0446     		mov	r4, r0
 124              		.loc 1 87 0
 125 0008 12B3     		cbz	r2, .L11
 126 000a 0268     		ldr	r2, [r0]
 127              	.LVL8:
 128 000c 134B     		ldr	r3, .L16
 129 000e 9A42     		cmp	r2, r3
 130 0010 1ED8     		bhi	.L11
 131 0012 0D46     		mov	r5, r1
 132 0014 9846     		mov	r8, r3
 133 0016 0026     		movs	r6, #0
 134 0018 0EE0     		b	.L12
 135              	.LVL9:
 136              	.L15:
 137              		.loc 1 94 0
 138 001a 2268     		ldr	r2, [r4]
 139 001c 55F8043C 		ldr	r3, [r5, #-4]
 140 0020 1168     		ldr	r1, [r2]
 141 0022 9942     		cmp	r1, r3
 142 0024 17D1     		bne	.L14
 143              		.loc 1 100 0
 144 0026 2368     		ldr	r3, [r4]
 145              		.loc 1 87 0
 146 0028 BE42     		cmp	r6, r7
 147              		.loc 1 100 0
 148 002a 03F10403 		add	r3, r3, #4
 149 002e 2360     		str	r3, [r4]
 150              		.loc 1 87 0
 151 0030 0ED0     		beq	.L11
 152              		.loc 1 87 0 is_stmt 0 discriminator 2
 153 0032 2368     		ldr	r3, [r4]
 154 0034 4345     		cmp	r3, r8
 155 0036 0BD8     		bhi	.L11
 156              	.LVL10:
 157              	.L12:
 158              		.loc 1 91 0 is_stmt 1
 159 0038 2068     		ldr	r0, [r4]
 160 003a 55F8041B 		ldr	r1, [r5], #4
 161 003e FFF7FEFF 		bl	FLASH_ProgramWord
 162              	.LVL11:
 163 0042 0828     		cmp	r0, #8
 164              		.loc 1 87 0
 165 0044 06F10106 		add	r6, r6, #1
 166              	.LVL12:
 167              		.loc 1 91 0
 168 0048 E7D0     		beq	.L15
 169              		.loc 1 105 0
 170 004a 0120     		movs	r0, #1
 171 004c BDE8F081 		pop	{r4, r5, r6, r7, r8, pc}
ARM GAS  /tmp/ccyYSQYU.s 			page 4


 172              	.LVL13:
 173              	.L11:
 174              		.loc 1 109 0
 175 0050 0020     		movs	r0, #0
 176 0052 BDE8F081 		pop	{r4, r5, r6, r7, r8, pc}
 177              	.LVL14:
 178              	.L14:
 179              		.loc 1 97 0
 180 0056 0220     		movs	r0, #2
 181              		.loc 1 110 0
 182 0058 BDE8F081 		pop	{r4, r5, r6, r7, r8, pc}
 183              	.LVL15:
 184              	.L17:
 185              		.align	2
 186              	.L16:
 187 005c FBFF0708 		.word	134742011
 188              		.cfi_endproc
 189              	.LFE113:
 190              		.size	FLASH_If_Write, .-FLASH_If_Write
 191              		.text
 192              	.Letext0:
 193              		.file 2 "/usr/arm-none-eabi/include/stdint.h"
 194              		.file 3 "../AithonLibrary/stm_flash.h"
 195              		.file 4 "../AithonLibrary/ChibiOS/os/ports/common/ARMCMx/CMSIS/include/core_cm4.h"
 196              		.section	.debug_info,"",%progbits
 197              	.Ldebug_info0:
 198 0000 15020000 		.4byte	0x215
 199 0004 0400     		.2byte	0x4
 200 0006 00000000 		.4byte	.Ldebug_abbrev0
 201 000a 04       		.byte	0x4
 202 000b 01       		.uleb128 0x1
 203 000c 23010000 		.4byte	.LASF30
 204 0010 01       		.byte	0x1
 205 0011 4B020000 		.4byte	.LASF31
 206 0015 C0000000 		.4byte	.LASF32
 207 0019 00000000 		.4byte	.Ldebug_ranges0+0
 208 001d 00000000 		.4byte	0
 209 0021 00000000 		.4byte	.Ldebug_line0
 210 0025 02       		.uleb128 0x2
 211 0026 01       		.byte	0x1
 212 0027 06       		.byte	0x6
 213 0028 62000000 		.4byte	.LASF0
 214 002c 03       		.uleb128 0x3
 215 002d 7E020000 		.4byte	.LASF3
 216 0031 02       		.byte	0x2
 217 0032 2A       		.byte	0x2a
 218 0033 37000000 		.4byte	0x37
 219 0037 02       		.uleb128 0x2
 220 0038 01       		.byte	0x1
 221 0039 08       		.byte	0x8
 222 003a 8D000000 		.4byte	.LASF1
 223 003e 02       		.uleb128 0x2
 224 003f 02       		.byte	0x2
 225 0040 05       		.byte	0x5
 226 0041 D8020000 		.4byte	.LASF2
 227 0045 03       		.uleb128 0x3
 228 0046 E2020000 		.4byte	.LASF4
ARM GAS  /tmp/ccyYSQYU.s 			page 5


 229 004a 02       		.byte	0x2
 230 004b 36       		.byte	0x36
 231 004c 50000000 		.4byte	0x50
 232 0050 02       		.uleb128 0x2
 233 0051 02       		.byte	0x2
 234 0052 07       		.byte	0x7
 235 0053 AD000000 		.4byte	.LASF5
 236 0057 03       		.uleb128 0x3
 237 0058 96020000 		.4byte	.LASF6
 238 005c 02       		.byte	0x2
 239 005d 4F       		.byte	0x4f
 240 005e 62000000 		.4byte	0x62
 241 0062 02       		.uleb128 0x2
 242 0063 04       		.byte	0x4
 243 0064 05       		.byte	0x5
 244 0065 F4020000 		.4byte	.LASF7
 245 0069 03       		.uleb128 0x3
 246 006a EB020000 		.4byte	.LASF8
 247 006e 02       		.byte	0x2
 248 006f 50       		.byte	0x50
 249 0070 74000000 		.4byte	0x74
 250 0074 02       		.uleb128 0x2
 251 0075 04       		.byte	0x4
 252 0076 07       		.byte	0x7
 253 0077 9B000000 		.4byte	.LASF9
 254 007b 02       		.uleb128 0x2
 255 007c 08       		.byte	0x8
 256 007d 05       		.byte	0x5
 257 007e A7020000 		.4byte	.LASF10
 258 0082 02       		.uleb128 0x2
 259 0083 08       		.byte	0x8
 260 0084 07       		.byte	0x7
 261 0085 67020000 		.4byte	.LASF11
 262 0089 04       		.uleb128 0x4
 263 008a 04       		.byte	0x4
 264 008b 05       		.byte	0x5
 265 008c 696E7400 		.ascii	"int\000"
 266 0090 02       		.uleb128 0x2
 267 0091 04       		.byte	0x4
 268 0092 07       		.byte	0x7
 269 0093 3E020000 		.4byte	.LASF12
 270 0097 02       		.uleb128 0x2
 271 0098 04       		.byte	0x4
 272 0099 07       		.byte	0x7
 273 009a 9E020000 		.4byte	.LASF13
 274 009e 05       		.uleb128 0x5
 275 009f 69000000 		.4byte	0x69
 276 00a3 05       		.uleb128 0x5
 277 00a4 57000000 		.4byte	0x57
 278 00a8 06       		.uleb128 0x6
 279 00a9 01       		.byte	0x1
 280 00aa 03       		.byte	0x3
 281 00ab 2F       		.byte	0x2f
 282 00ac E1000000 		.4byte	0xe1
 283 00b0 07       		.uleb128 0x7
 284 00b1 0A030000 		.4byte	.LASF14
 285 00b5 01       		.sleb128 1
ARM GAS  /tmp/ccyYSQYU.s 			page 6


 286 00b6 07       		.uleb128 0x7
 287 00b7 00010000 		.4byte	.LASF15
 288 00bb 02       		.sleb128 2
 289 00bc 07       		.uleb128 0x7
 290 00bd F0000000 		.4byte	.LASF16
 291 00c1 03       		.sleb128 3
 292 00c2 07       		.uleb128 0x7
 293 00c3 7D000000 		.4byte	.LASF17
 294 00c7 04       		.sleb128 4
 295 00c8 07       		.uleb128 0x7
 296 00c9 86020000 		.4byte	.LASF18
 297 00cd 05       		.sleb128 5
 298 00ce 07       		.uleb128 0x7
 299 00cf 2A000000 		.4byte	.LASF19
 300 00d3 06       		.sleb128 6
 301 00d4 07       		.uleb128 0x7
 302 00d5 C2020000 		.4byte	.LASF20
 303 00d9 07       		.sleb128 7
 304 00da 07       		.uleb128 0x7
 305 00db 0B000000 		.4byte	.LASF21
 306 00df 08       		.sleb128 8
 307 00e0 00       		.byte	0
 308 00e1 03       		.uleb128 0x3
 309 00e2 B5020000 		.4byte	.LASF22
 310 00e6 03       		.byte	0x3
 311 00e7 38       		.byte	0x38
 312 00e8 A8000000 		.4byte	0xa8
 313 00ec 08       		.uleb128 0x8
 314 00ed 15010000 		.4byte	.LASF33
 315 00f1 01       		.byte	0x1
 316 00f2 29       		.byte	0x29
 317 00f3 00000000 		.4byte	.LFB111
 318 00f7 10000000 		.4byte	.LFE111-.LFB111
 319 00fb 01       		.uleb128 0x1
 320 00fc 9C       		.byte	0x9c
 321 00fd 1B010000 		.4byte	0x11b
 322 0101 09       		.uleb128 0x9
 323 0102 06000000 		.4byte	.LVL0
 324 0106 CC010000 		.4byte	0x1cc
 325 010a 0A       		.uleb128 0xa
 326 010b 10000000 		.4byte	.LVL1
 327 010f D4010000 		.4byte	0x1d4
 328 0113 0B       		.uleb128 0xb
 329 0114 01       		.uleb128 0x1
 330 0115 50       		.byte	0x50
 331 0116 02       		.uleb128 0x2
 332 0117 08       		.byte	0x8
 333 0118 F3       		.byte	0xf3
 334 0119 00       		.byte	0
 335 011a 00       		.byte	0
 336 011b 0C       		.uleb128 0xc
 337 011c 6E000000 		.4byte	.LASF23
 338 0120 01       		.byte	0x1
 339 0121 38       		.byte	0x38
 340 0122 69000000 		.4byte	0x69
 341 0126 00000000 		.4byte	.LFB112
 342 012a 20000000 		.4byte	.LFE112-.LFB112
ARM GAS  /tmp/ccyYSQYU.s 			page 7


 343 012e 01       		.uleb128 0x1
 344 012f 9C       		.byte	0x9c
 345 0130 57010000 		.4byte	0x157
 346 0134 0D       		.uleb128 0xd
 347 0135 6900     		.ascii	"i\000"
 348 0137 01       		.byte	0x1
 349 0138 3A       		.byte	0x3a
 350 0139 89000000 		.4byte	0x89
 351 013d 00000000 		.4byte	.LLST0
 352 0141 0E       		.uleb128 0xe
 353 0142 0C000000 		.4byte	.LVL4
 354 0146 E6010000 		.4byte	0x1e6
 355 014a 0B       		.uleb128 0xb
 356 014b 01       		.uleb128 0x1
 357 014c 51       		.byte	0x51
 358 014d 01       		.uleb128 0x1
 359 014e 32       		.byte	0x32
 360 014f 0B       		.uleb128 0xb
 361 0150 01       		.uleb128 0x1
 362 0151 50       		.byte	0x50
 363 0152 02       		.uleb128 0x2
 364 0153 74       		.byte	0x74
 365 0154 00       		.sleb128 0
 366 0155 00       		.byte	0
 367 0156 00       		.byte	0
 368 0157 0C       		.uleb128 0xc
 369 0158 22030000 		.4byte	.LASF24
 370 015c 01       		.byte	0x1
 371 015d 53       		.byte	0x53
 372 015e 69000000 		.4byte	0x69
 373 0162 00000000 		.4byte	.LFB113
 374 0166 60000000 		.4byte	.LFE113-.LFB113
 375 016a 01       		.uleb128 0x1
 376 016b 9C       		.byte	0x9c
 377 016c B4010000 		.4byte	0x1b4
 378 0170 0F       		.uleb128 0xf
 379 0171 15030000 		.4byte	.LASF25
 380 0175 01       		.byte	0x1
 381 0176 53       		.byte	0x53
 382 0177 B4010000 		.4byte	0x1b4
 383 017b 20000000 		.4byte	.LLST1
 384 017f 0F       		.uleb128 0xf
 385 0180 10010000 		.4byte	.LASF26
 386 0184 01       		.byte	0x1
 387 0185 53       		.byte	0x53
 388 0186 BA010000 		.4byte	0x1ba
 389 018a 4C000000 		.4byte	.LLST2
 390 018e 0F       		.uleb128 0xf
 391 018f 00000000 		.4byte	.LASF27
 392 0193 01       		.byte	0x1
 393 0194 53       		.byte	0x53
 394 0195 69000000 		.4byte	0x69
 395 0199 6D000000 		.4byte	.LLST3
 396 019d 0D       		.uleb128 0xd
 397 019e 6900     		.ascii	"i\000"
 398 01a0 01       		.byte	0x1
 399 01a1 55       		.byte	0x55
ARM GAS  /tmp/ccyYSQYU.s 			page 8


 400 01a2 69000000 		.4byte	0x69
 401 01a6 99000000 		.4byte	.LLST4
 402 01aa 09       		.uleb128 0x9
 403 01ab 42000000 		.4byte	.LVL11
 404 01af 01020000 		.4byte	0x201
 405 01b3 00       		.byte	0
 406 01b4 10       		.uleb128 0x10
 407 01b5 04       		.byte	0x4
 408 01b6 9E000000 		.4byte	0x9e
 409 01ba 10       		.uleb128 0x10
 410 01bb 04       		.byte	0x4
 411 01bc 69000000 		.4byte	0x69
 412 01c0 11       		.uleb128 0x11
 413 01c1 E3000000 		.4byte	.LASF34
 414 01c5 04       		.byte	0x4
 415 01c6 9806     		.2byte	0x698
 416 01c8 A3000000 		.4byte	0xa3
 417 01cc 12       		.uleb128 0x12
 418 01cd FD020000 		.4byte	.LASF35
 419 01d1 03       		.byte	0x3
 420 01d2 2301     		.2byte	0x123
 421 01d4 13       		.uleb128 0x13
 422 01d5 1A000000 		.4byte	.LASF28
 423 01d9 03       		.byte	0x3
 424 01da 3C01     		.2byte	0x13c
 425 01dc E6010000 		.4byte	0x1e6
 426 01e0 14       		.uleb128 0x14
 427 01e1 69000000 		.4byte	0x69
 428 01e5 00       		.byte	0
 429 01e6 15       		.uleb128 0x15
 430 01e7 50000000 		.4byte	.LASF36
 431 01eb 03       		.byte	0x3
 432 01ec 2501     		.2byte	0x125
 433 01ee E1000000 		.4byte	0xe1
 434 01f2 01020000 		.4byte	0x201
 435 01f6 14       		.uleb128 0x14
 436 01f7 69000000 		.4byte	0x69
 437 01fb 14       		.uleb128 0x14
 438 01fc 2C000000 		.4byte	0x2c
 439 0200 00       		.byte	0
 440 0201 16       		.uleb128 0x16
 441 0202 3E000000 		.4byte	.LASF29
 442 0206 03       		.byte	0x3
 443 0207 2801     		.2byte	0x128
 444 0209 E1000000 		.4byte	0xe1
 445 020d 14       		.uleb128 0x14
 446 020e 69000000 		.4byte	0x69
 447 0212 14       		.uleb128 0x14
 448 0213 69000000 		.4byte	0x69
 449 0217 00       		.byte	0
 450 0218 00       		.byte	0
 451              		.section	.debug_abbrev,"",%progbits
 452              	.Ldebug_abbrev0:
 453 0000 01       		.uleb128 0x1
 454 0001 11       		.uleb128 0x11
 455 0002 01       		.byte	0x1
 456 0003 25       		.uleb128 0x25
ARM GAS  /tmp/ccyYSQYU.s 			page 9


 457 0004 0E       		.uleb128 0xe
 458 0005 13       		.uleb128 0x13
 459 0006 0B       		.uleb128 0xb
 460 0007 03       		.uleb128 0x3
 461 0008 0E       		.uleb128 0xe
 462 0009 1B       		.uleb128 0x1b
 463 000a 0E       		.uleb128 0xe
 464 000b 55       		.uleb128 0x55
 465 000c 17       		.uleb128 0x17
 466 000d 11       		.uleb128 0x11
 467 000e 01       		.uleb128 0x1
 468 000f 10       		.uleb128 0x10
 469 0010 17       		.uleb128 0x17
 470 0011 00       		.byte	0
 471 0012 00       		.byte	0
 472 0013 02       		.uleb128 0x2
 473 0014 24       		.uleb128 0x24
 474 0015 00       		.byte	0
 475 0016 0B       		.uleb128 0xb
 476 0017 0B       		.uleb128 0xb
 477 0018 3E       		.uleb128 0x3e
 478 0019 0B       		.uleb128 0xb
 479 001a 03       		.uleb128 0x3
 480 001b 0E       		.uleb128 0xe
 481 001c 00       		.byte	0
 482 001d 00       		.byte	0
 483 001e 03       		.uleb128 0x3
 484 001f 16       		.uleb128 0x16
 485 0020 00       		.byte	0
 486 0021 03       		.uleb128 0x3
 487 0022 0E       		.uleb128 0xe
 488 0023 3A       		.uleb128 0x3a
 489 0024 0B       		.uleb128 0xb
 490 0025 3B       		.uleb128 0x3b
 491 0026 0B       		.uleb128 0xb
 492 0027 49       		.uleb128 0x49
 493 0028 13       		.uleb128 0x13
 494 0029 00       		.byte	0
 495 002a 00       		.byte	0
 496 002b 04       		.uleb128 0x4
 497 002c 24       		.uleb128 0x24
 498 002d 00       		.byte	0
 499 002e 0B       		.uleb128 0xb
 500 002f 0B       		.uleb128 0xb
 501 0030 3E       		.uleb128 0x3e
 502 0031 0B       		.uleb128 0xb
 503 0032 03       		.uleb128 0x3
 504 0033 08       		.uleb128 0x8
 505 0034 00       		.byte	0
 506 0035 00       		.byte	0
 507 0036 05       		.uleb128 0x5
 508 0037 35       		.uleb128 0x35
 509 0038 00       		.byte	0
 510 0039 49       		.uleb128 0x49
 511 003a 13       		.uleb128 0x13
 512 003b 00       		.byte	0
 513 003c 00       		.byte	0
ARM GAS  /tmp/ccyYSQYU.s 			page 10


 514 003d 06       		.uleb128 0x6
 515 003e 04       		.uleb128 0x4
 516 003f 01       		.byte	0x1
 517 0040 0B       		.uleb128 0xb
 518 0041 0B       		.uleb128 0xb
 519 0042 3A       		.uleb128 0x3a
 520 0043 0B       		.uleb128 0xb
 521 0044 3B       		.uleb128 0x3b
 522 0045 0B       		.uleb128 0xb
 523 0046 01       		.uleb128 0x1
 524 0047 13       		.uleb128 0x13
 525 0048 00       		.byte	0
 526 0049 00       		.byte	0
 527 004a 07       		.uleb128 0x7
 528 004b 28       		.uleb128 0x28
 529 004c 00       		.byte	0
 530 004d 03       		.uleb128 0x3
 531 004e 0E       		.uleb128 0xe
 532 004f 1C       		.uleb128 0x1c
 533 0050 0D       		.uleb128 0xd
 534 0051 00       		.byte	0
 535 0052 00       		.byte	0
 536 0053 08       		.uleb128 0x8
 537 0054 2E       		.uleb128 0x2e
 538 0055 01       		.byte	0x1
 539 0056 3F       		.uleb128 0x3f
 540 0057 19       		.uleb128 0x19
 541 0058 03       		.uleb128 0x3
 542 0059 0E       		.uleb128 0xe
 543 005a 3A       		.uleb128 0x3a
 544 005b 0B       		.uleb128 0xb
 545 005c 3B       		.uleb128 0x3b
 546 005d 0B       		.uleb128 0xb
 547 005e 27       		.uleb128 0x27
 548 005f 19       		.uleb128 0x19
 549 0060 11       		.uleb128 0x11
 550 0061 01       		.uleb128 0x1
 551 0062 12       		.uleb128 0x12
 552 0063 06       		.uleb128 0x6
 553 0064 40       		.uleb128 0x40
 554 0065 18       		.uleb128 0x18
 555 0066 9742     		.uleb128 0x2117
 556 0068 19       		.uleb128 0x19
 557 0069 01       		.uleb128 0x1
 558 006a 13       		.uleb128 0x13
 559 006b 00       		.byte	0
 560 006c 00       		.byte	0
 561 006d 09       		.uleb128 0x9
 562 006e 898201   		.uleb128 0x4109
 563 0071 00       		.byte	0
 564 0072 11       		.uleb128 0x11
 565 0073 01       		.uleb128 0x1
 566 0074 31       		.uleb128 0x31
 567 0075 13       		.uleb128 0x13
 568 0076 00       		.byte	0
 569 0077 00       		.byte	0
 570 0078 0A       		.uleb128 0xa
ARM GAS  /tmp/ccyYSQYU.s 			page 11


 571 0079 898201   		.uleb128 0x4109
 572 007c 01       		.byte	0x1
 573 007d 11       		.uleb128 0x11
 574 007e 01       		.uleb128 0x1
 575 007f 9542     		.uleb128 0x2115
 576 0081 19       		.uleb128 0x19
 577 0082 31       		.uleb128 0x31
 578 0083 13       		.uleb128 0x13
 579 0084 00       		.byte	0
 580 0085 00       		.byte	0
 581 0086 0B       		.uleb128 0xb
 582 0087 8A8201   		.uleb128 0x410a
 583 008a 00       		.byte	0
 584 008b 02       		.uleb128 0x2
 585 008c 18       		.uleb128 0x18
 586 008d 9142     		.uleb128 0x2111
 587 008f 18       		.uleb128 0x18
 588 0090 00       		.byte	0
 589 0091 00       		.byte	0
 590 0092 0C       		.uleb128 0xc
 591 0093 2E       		.uleb128 0x2e
 592 0094 01       		.byte	0x1
 593 0095 3F       		.uleb128 0x3f
 594 0096 19       		.uleb128 0x19
 595 0097 03       		.uleb128 0x3
 596 0098 0E       		.uleb128 0xe
 597 0099 3A       		.uleb128 0x3a
 598 009a 0B       		.uleb128 0xb
 599 009b 3B       		.uleb128 0x3b
 600 009c 0B       		.uleb128 0xb
 601 009d 27       		.uleb128 0x27
 602 009e 19       		.uleb128 0x19
 603 009f 49       		.uleb128 0x49
 604 00a0 13       		.uleb128 0x13
 605 00a1 11       		.uleb128 0x11
 606 00a2 01       		.uleb128 0x1
 607 00a3 12       		.uleb128 0x12
 608 00a4 06       		.uleb128 0x6
 609 00a5 40       		.uleb128 0x40
 610 00a6 18       		.uleb128 0x18
 611 00a7 9742     		.uleb128 0x2117
 612 00a9 19       		.uleb128 0x19
 613 00aa 01       		.uleb128 0x1
 614 00ab 13       		.uleb128 0x13
 615 00ac 00       		.byte	0
 616 00ad 00       		.byte	0
 617 00ae 0D       		.uleb128 0xd
 618 00af 34       		.uleb128 0x34
 619 00b0 00       		.byte	0
 620 00b1 03       		.uleb128 0x3
 621 00b2 08       		.uleb128 0x8
 622 00b3 3A       		.uleb128 0x3a
 623 00b4 0B       		.uleb128 0xb
 624 00b5 3B       		.uleb128 0x3b
 625 00b6 0B       		.uleb128 0xb
 626 00b7 49       		.uleb128 0x49
 627 00b8 13       		.uleb128 0x13
ARM GAS  /tmp/ccyYSQYU.s 			page 12


 628 00b9 02       		.uleb128 0x2
 629 00ba 17       		.uleb128 0x17
 630 00bb 00       		.byte	0
 631 00bc 00       		.byte	0
 632 00bd 0E       		.uleb128 0xe
 633 00be 898201   		.uleb128 0x4109
 634 00c1 01       		.byte	0x1
 635 00c2 11       		.uleb128 0x11
 636 00c3 01       		.uleb128 0x1
 637 00c4 31       		.uleb128 0x31
 638 00c5 13       		.uleb128 0x13
 639 00c6 00       		.byte	0
 640 00c7 00       		.byte	0
 641 00c8 0F       		.uleb128 0xf
 642 00c9 05       		.uleb128 0x5
 643 00ca 00       		.byte	0
 644 00cb 03       		.uleb128 0x3
 645 00cc 0E       		.uleb128 0xe
 646 00cd 3A       		.uleb128 0x3a
 647 00ce 0B       		.uleb128 0xb
 648 00cf 3B       		.uleb128 0x3b
 649 00d0 0B       		.uleb128 0xb
 650 00d1 49       		.uleb128 0x49
 651 00d2 13       		.uleb128 0x13
 652 00d3 02       		.uleb128 0x2
 653 00d4 17       		.uleb128 0x17
 654 00d5 00       		.byte	0
 655 00d6 00       		.byte	0
 656 00d7 10       		.uleb128 0x10
 657 00d8 0F       		.uleb128 0xf
 658 00d9 00       		.byte	0
 659 00da 0B       		.uleb128 0xb
 660 00db 0B       		.uleb128 0xb
 661 00dc 49       		.uleb128 0x49
 662 00dd 13       		.uleb128 0x13
 663 00de 00       		.byte	0
 664 00df 00       		.byte	0
 665 00e0 11       		.uleb128 0x11
 666 00e1 34       		.uleb128 0x34
 667 00e2 00       		.byte	0
 668 00e3 03       		.uleb128 0x3
 669 00e4 0E       		.uleb128 0xe
 670 00e5 3A       		.uleb128 0x3a
 671 00e6 0B       		.uleb128 0xb
 672 00e7 3B       		.uleb128 0x3b
 673 00e8 05       		.uleb128 0x5
 674 00e9 49       		.uleb128 0x49
 675 00ea 13       		.uleb128 0x13
 676 00eb 3F       		.uleb128 0x3f
 677 00ec 19       		.uleb128 0x19
 678 00ed 3C       		.uleb128 0x3c
 679 00ee 19       		.uleb128 0x19
 680 00ef 00       		.byte	0
 681 00f0 00       		.byte	0
 682 00f1 12       		.uleb128 0x12
 683 00f2 2E       		.uleb128 0x2e
 684 00f3 00       		.byte	0
ARM GAS  /tmp/ccyYSQYU.s 			page 13


 685 00f4 3F       		.uleb128 0x3f
 686 00f5 19       		.uleb128 0x19
 687 00f6 03       		.uleb128 0x3
 688 00f7 0E       		.uleb128 0xe
 689 00f8 3A       		.uleb128 0x3a
 690 00f9 0B       		.uleb128 0xb
 691 00fa 3B       		.uleb128 0x3b
 692 00fb 05       		.uleb128 0x5
 693 00fc 27       		.uleb128 0x27
 694 00fd 19       		.uleb128 0x19
 695 00fe 3C       		.uleb128 0x3c
 696 00ff 19       		.uleb128 0x19
 697 0100 00       		.byte	0
 698 0101 00       		.byte	0
 699 0102 13       		.uleb128 0x13
 700 0103 2E       		.uleb128 0x2e
 701 0104 01       		.byte	0x1
 702 0105 3F       		.uleb128 0x3f
 703 0106 19       		.uleb128 0x19
 704 0107 03       		.uleb128 0x3
 705 0108 0E       		.uleb128 0xe
 706 0109 3A       		.uleb128 0x3a
 707 010a 0B       		.uleb128 0xb
 708 010b 3B       		.uleb128 0x3b
 709 010c 05       		.uleb128 0x5
 710 010d 27       		.uleb128 0x27
 711 010e 19       		.uleb128 0x19
 712 010f 3C       		.uleb128 0x3c
 713 0110 19       		.uleb128 0x19
 714 0111 01       		.uleb128 0x1
 715 0112 13       		.uleb128 0x13
 716 0113 00       		.byte	0
 717 0114 00       		.byte	0
 718 0115 14       		.uleb128 0x14
 719 0116 05       		.uleb128 0x5
 720 0117 00       		.byte	0
 721 0118 49       		.uleb128 0x49
 722 0119 13       		.uleb128 0x13
 723 011a 00       		.byte	0
 724 011b 00       		.byte	0
 725 011c 15       		.uleb128 0x15
 726 011d 2E       		.uleb128 0x2e
 727 011e 01       		.byte	0x1
 728 011f 3F       		.uleb128 0x3f
 729 0120 19       		.uleb128 0x19
 730 0121 03       		.uleb128 0x3
 731 0122 0E       		.uleb128 0xe
 732 0123 3A       		.uleb128 0x3a
 733 0124 0B       		.uleb128 0xb
 734 0125 3B       		.uleb128 0x3b
 735 0126 05       		.uleb128 0x5
 736 0127 27       		.uleb128 0x27
 737 0128 19       		.uleb128 0x19
 738 0129 49       		.uleb128 0x49
 739 012a 13       		.uleb128 0x13
 740 012b 3C       		.uleb128 0x3c
 741 012c 19       		.uleb128 0x19
ARM GAS  /tmp/ccyYSQYU.s 			page 14


 742 012d 01       		.uleb128 0x1
 743 012e 13       		.uleb128 0x13
 744 012f 00       		.byte	0
 745 0130 00       		.byte	0
 746 0131 16       		.uleb128 0x16
 747 0132 2E       		.uleb128 0x2e
 748 0133 01       		.byte	0x1
 749 0134 3F       		.uleb128 0x3f
 750 0135 19       		.uleb128 0x19
 751 0136 03       		.uleb128 0x3
 752 0137 0E       		.uleb128 0xe
 753 0138 3A       		.uleb128 0x3a
 754 0139 0B       		.uleb128 0xb
 755 013a 3B       		.uleb128 0x3b
 756 013b 05       		.uleb128 0x5
 757 013c 27       		.uleb128 0x27
 758 013d 19       		.uleb128 0x19
 759 013e 49       		.uleb128 0x49
 760 013f 13       		.uleb128 0x13
 761 0140 3C       		.uleb128 0x3c
 762 0141 19       		.uleb128 0x19
 763 0142 00       		.byte	0
 764 0143 00       		.byte	0
 765 0144 00       		.byte	0
 766              		.section	.debug_loc,"",%progbits
 767              	.Ldebug_loc0:
 768              	.LLST0:
 769 0000 00000000 		.4byte	.LVL2
 770 0004 04000000 		.4byte	.LVL3
 771 0008 0300     		.2byte	0x3
 772 000a 08       		.byte	0x8
 773 000b 20       		.byte	0x20
 774 000c 9F       		.byte	0x9f
 775 000d 04000000 		.4byte	.LVL3
 776 0011 20000000 		.4byte	.LFE112
 777 0015 0100     		.2byte	0x1
 778 0017 54       		.byte	0x54
 779 0018 00000000 		.4byte	0
 780 001c 00000000 		.4byte	0
 781              	.LLST1:
 782 0020 00000000 		.4byte	.LVL7
 783 0024 1A000000 		.4byte	.LVL9
 784 0028 0100     		.2byte	0x1
 785 002a 50       		.byte	0x50
 786 002b 1A000000 		.4byte	.LVL9
 787 002f 5C000000 		.4byte	.LVL15
 788 0033 0100     		.2byte	0x1
 789 0035 54       		.byte	0x54
 790 0036 5C000000 		.4byte	.LVL15
 791 003a 60000000 		.4byte	.LFE113
 792 003e 0400     		.2byte	0x4
 793 0040 F3       		.byte	0xf3
 794 0041 01       		.uleb128 0x1
 795 0042 50       		.byte	0x50
 796 0043 9F       		.byte	0x9f
 797 0044 00000000 		.4byte	0
 798 0048 00000000 		.4byte	0
ARM GAS  /tmp/ccyYSQYU.s 			page 15


 799              	.LLST2:
 800 004c 00000000 		.4byte	.LVL7
 801 0050 1A000000 		.4byte	.LVL9
 802 0054 0100     		.2byte	0x1
 803 0056 51       		.byte	0x51
 804 0057 1A000000 		.4byte	.LVL9
 805 005b 60000000 		.4byte	.LFE113
 806 005f 0400     		.2byte	0x4
 807 0061 F3       		.byte	0xf3
 808 0062 01       		.uleb128 0x1
 809 0063 51       		.byte	0x51
 810 0064 9F       		.byte	0x9f
 811 0065 00000000 		.4byte	0
 812 0069 00000000 		.4byte	0
 813              	.LLST3:
 814 006d 00000000 		.4byte	.LVL7
 815 0071 0C000000 		.4byte	.LVL8
 816 0075 0100     		.2byte	0x1
 817 0077 52       		.byte	0x52
 818 0078 0C000000 		.4byte	.LVL8
 819 007c 5C000000 		.4byte	.LVL15
 820 0080 0100     		.2byte	0x1
 821 0082 57       		.byte	0x57
 822 0083 5C000000 		.4byte	.LVL15
 823 0087 60000000 		.4byte	.LFE113
 824 008b 0400     		.2byte	0x4
 825 008d F3       		.byte	0xf3
 826 008e 01       		.uleb128 0x1
 827 008f 52       		.byte	0x52
 828 0090 9F       		.byte	0x9f
 829 0091 00000000 		.4byte	0
 830 0095 00000000 		.4byte	0
 831              	.LLST4:
 832 0099 00000000 		.4byte	.LVL7
 833 009d 1A000000 		.4byte	.LVL9
 834 00a1 0200     		.2byte	0x2
 835 00a3 30       		.byte	0x30
 836 00a4 9F       		.byte	0x9f
 837 00a5 1A000000 		.4byte	.LVL9
 838 00a9 50000000 		.4byte	.LVL13
 839 00ad 0100     		.2byte	0x1
 840 00af 56       		.byte	0x56
 841 00b0 56000000 		.4byte	.LVL14
 842 00b4 5C000000 		.4byte	.LVL15
 843 00b8 0100     		.2byte	0x1
 844 00ba 56       		.byte	0x56
 845 00bb 00000000 		.4byte	0
 846 00bf 00000000 		.4byte	0
 847              		.section	.debug_aranges,"",%progbits
 848 0000 2C000000 		.4byte	0x2c
 849 0004 0200     		.2byte	0x2
 850 0006 00000000 		.4byte	.Ldebug_info0
 851 000a 04       		.byte	0x4
 852 000b 00       		.byte	0
 853 000c 0000     		.2byte	0
 854 000e 0000     		.2byte	0
 855 0010 00000000 		.4byte	.LFB111
ARM GAS  /tmp/ccyYSQYU.s 			page 16


 856 0014 10000000 		.4byte	.LFE111-.LFB111
 857 0018 00000000 		.4byte	.LFB112
 858 001c 20000000 		.4byte	.LFE112-.LFB112
 859 0020 00000000 		.4byte	.LFB113
 860 0024 60000000 		.4byte	.LFE113-.LFB113
 861 0028 00000000 		.4byte	0
 862 002c 00000000 		.4byte	0
 863              		.section	.debug_ranges,"",%progbits
 864              	.Ldebug_ranges0:
 865 0000 00000000 		.4byte	.LFB111
 866 0004 10000000 		.4byte	.LFE111
 867 0008 00000000 		.4byte	.LFB112
 868 000c 20000000 		.4byte	.LFE112
 869 0010 00000000 		.4byte	.LFB113
 870 0014 60000000 		.4byte	.LFE113
 871 0018 00000000 		.4byte	0
 872 001c 00000000 		.4byte	0
 873              		.section	.debug_line,"",%progbits
 874              	.Ldebug_line0:
 875 0000 18010000 		.section	.debug_str,"MS",%progbits,1
 875      0200B400 
 875      00000201 
 875      FB0E0D00 
 875      01010101 
 876              	.LASF27:
 877 0000 44617461 		.ascii	"DataLength\000"
 877      4C656E67 
 877      746800
 878              	.LASF21:
 879 000b 464C4153 		.ascii	"FLASH_COMPLETE\000"
 879      485F434F 
 879      4D504C45 
 879      544500
 880              	.LASF28:
 881 001a 464C4153 		.ascii	"FLASH_ClearFlag\000"
 881      485F436C 
 881      65617246 
 881      6C616700 
 882              	.LASF19:
 883 002a 464C4153 		.ascii	"FLASH_ERROR_PROGRAM\000"
 883      485F4552 
 883      524F525F 
 883      50524F47 
 883      52414D00 
 884              	.LASF29:
 885 003e 464C4153 		.ascii	"FLASH_ProgramWord\000"
 885      485F5072 
 885      6F677261 
 885      6D576F72 
 885      6400
 886              	.LASF36:
 887 0050 464C4153 		.ascii	"FLASH_EraseSector\000"
 887      485F4572 
 887      61736553 
 887      6563746F 
 887      7200
 888              	.LASF0:
ARM GAS  /tmp/ccyYSQYU.s 			page 17


 889 0062 7369676E 		.ascii	"signed char\000"
 889      65642063 
 889      68617200 
 890              	.LASF23:
 891 006e 464C4153 		.ascii	"FLASH_If_Erase\000"
 891      485F4966 
 891      5F457261 
 891      736500
 892              	.LASF17:
 893 007d 464C4153 		.ascii	"FLASH_ERROR_PGA\000"
 893      485F4552 
 893      524F525F 
 893      50474100 
 894              	.LASF1:
 895 008d 756E7369 		.ascii	"unsigned char\000"
 895      676E6564 
 895      20636861 
 895      7200
 896              	.LASF9:
 897 009b 6C6F6E67 		.ascii	"long unsigned int\000"
 897      20756E73 
 897      69676E65 
 897      6420696E 
 897      7400
 898              	.LASF5:
 899 00ad 73686F72 		.ascii	"short unsigned int\000"
 899      7420756E 
 899      7369676E 
 899      65642069 
 899      6E7400
 900              	.LASF32:
 901 00c0 2F686F6D 		.ascii	"/home/brian/aithon/ProjectTemplate\000"
 901      652F6272 
 901      69616E2F 
 901      61697468 
 901      6F6E2F50 
 902              	.LASF34:
 903 00e3 49544D5F 		.ascii	"ITM_RxBuffer\000"
 903      52784275 
 903      66666572 
 903      00
 904              	.LASF16:
 905 00f0 464C4153 		.ascii	"FLASH_ERROR_PGP\000"
 905      485F4552 
 905      524F525F 
 905      50475000 
 906              	.LASF15:
 907 0100 464C4153 		.ascii	"FLASH_ERROR_PGS\000"
 907      485F4552 
 907      524F525F 
 907      50475300 
 908              	.LASF26:
 909 0110 44617461 		.ascii	"Data\000"
 909      00
 910              	.LASF33:
 911 0115 464C4153 		.ascii	"FLASH_If_Init\000"
 911      485F4966 
ARM GAS  /tmp/ccyYSQYU.s 			page 18


 911      5F496E69 
 911      7400
 912              	.LASF30:
 913 0123 474E5520 		.ascii	"GNU C 4.8.3 20131129 (release) [ARM/embedded-4_8-br"
 913      4320342E 
 913      382E3320 
 913      32303133 
 913      31313239 
 914 0156 616E6368 		.ascii	"anch revision 205641] -mcpu=cortex-m4 -mfloat-abi=s"
 914      20726576 
 914      6973696F 
 914      6E203230 
 914      35363431 
 915 0189 6F667466 		.ascii	"oftfp -mfpu=fpv4-sp-d16 -mno-thumb-interwork -mthum"
 915      70202D6D 
 915      6670753D 
 915      66707634 
 915      2D73702D 
 916 01bc 62202D67 		.ascii	"b -ggdb -O2 -fomit-frame-pointer -falign-functions="
 916      67646220 
 916      2D4F3220 
 916      2D666F6D 
 916      69742D66 
 917 01ef 3136202D 		.ascii	"16 -fsingle-precision-constant -ffunction-sections "
 917      6673696E 
 917      676C652D 
 917      70726563 
 917      6973696F 
 918 0222 2D666461 		.ascii	"-fdata-sections -fno-common\000"
 918      74612D73 
 918      65637469 
 918      6F6E7320 
 918      2D666E6F 
 919              	.LASF12:
 920 023e 756E7369 		.ascii	"unsigned int\000"
 920      676E6564 
 920      20696E74 
 920      00
 921              	.LASF31:
 922 024b 2E2E2F41 		.ascii	"../AithonLibrary/flash_if.c\000"
 922      6974686F 
 922      6E4C6962 
 922      72617279 
 922      2F666C61 
 923              	.LASF11:
 924 0267 6C6F6E67 		.ascii	"long long unsigned int\000"
 924      206C6F6E 
 924      6720756E 
 924      7369676E 
 924      65642069 
 925              	.LASF3:
 926 027e 75696E74 		.ascii	"uint8_t\000"
 926      385F7400 
 927              	.LASF18:
 928 0286 464C4153 		.ascii	"FLASH_ERROR_WRP\000"
 928      485F4552 
 928      524F525F 
ARM GAS  /tmp/ccyYSQYU.s 			page 19


 928      57525000 
 929              	.LASF6:
 930 0296 696E7433 		.ascii	"int32_t\000"
 930      325F7400 
 931              	.LASF13:
 932 029e 73697A65 		.ascii	"sizetype\000"
 932      74797065 
 932      00
 933              	.LASF10:
 934 02a7 6C6F6E67 		.ascii	"long long int\000"
 934      206C6F6E 
 934      6720696E 
 934      7400
 935              	.LASF22:
 936 02b5 464C4153 		.ascii	"FLASH_Status\000"
 936      485F5374 
 936      61747573 
 936      00
 937              	.LASF20:
 938 02c2 464C4153 		.ascii	"FLASH_ERROR_OPERATION\000"
 938      485F4552 
 938      524F525F 
 938      4F504552 
 938      4154494F 
 939              	.LASF2:
 940 02d8 73686F72 		.ascii	"short int\000"
 940      7420696E 
 940      7400
 941              	.LASF4:
 942 02e2 75696E74 		.ascii	"uint16_t\000"
 942      31365F74 
 942      00
 943              	.LASF8:
 944 02eb 75696E74 		.ascii	"uint32_t\000"
 944      33325F74 
 944      00
 945              	.LASF7:
 946 02f4 6C6F6E67 		.ascii	"long int\000"
 946      20696E74 
 946      00
 947              	.LASF35:
 948 02fd 464C4153 		.ascii	"FLASH_Unlock\000"
 948      485F556E 
 948      6C6F636B 
 948      00
 949              	.LASF14:
 950 030a 464C4153 		.ascii	"FLASH_BUSY\000"
 950      485F4255 
 950      535900
 951              	.LASF25:
 952 0315 466C6173 		.ascii	"FlashAddress\000"
 952      68416464 
 952      72657373 
 952      00
 953              	.LASF24:
 954 0322 464C4153 		.ascii	"FLASH_If_Write\000"
 954      485F4966 
ARM GAS  /tmp/ccyYSQYU.s 			page 20


 954      5F577269 
 954      746500
 955              		.ident	"GCC: (GNU Tools for ARM Embedded Processors) 4.8.3 20131129 (release) [ARM/embedded-4_8-br
ARM GAS  /tmp/ccyYSQYU.s 			page 21


DEFINED SYMBOLS
                            *ABS*:0000000000000000 flash_if.c
     /tmp/ccyYSQYU.s:20     .text.FLASH_If_Init:0000000000000000 $t
     /tmp/ccyYSQYU.s:26     .text.FLASH_If_Init:0000000000000000 FLASH_If_Init
     /tmp/ccyYSQYU.s:51     .text.FLASH_If_Erase:0000000000000000 $t
     /tmp/ccyYSQYU.s:57     .text.FLASH_If_Erase:0000000000000000 FLASH_If_Erase
     /tmp/ccyYSQYU.s:99     .text.FLASH_If_Write:0000000000000000 $t
     /tmp/ccyYSQYU.s:105    .text.FLASH_If_Write:0000000000000000 FLASH_If_Write
     /tmp/ccyYSQYU.s:187    .text.FLASH_If_Write:000000000000005c $d
                     .debug_frame:0000000000000010 $d

UNDEFINED SYMBOLS
FLASH_Unlock
FLASH_ClearFlag
FLASH_EraseSector
FLASH_ProgramWord
