ARM GAS  /tmp/ccyYSQYU.s 			page 1


   1              		.syntax unified
   2              		.cpu cortex-m4
   3              		.eabi_attribute 27, 3
   4              		.fpu fpv4-sp-d16
   5              		.eabi_attribute 20, 1
   6              		.eabi_attribute 21, 1
   7              		.eabi_attribute 23, 3
   8              		.eabi_attribute 24, 1
   9              		.eabi_attribute 25, 1
  10              		.eabi_attribute 26, 1
  11              		.eabi_attribute 30, 2
  12              		.eabi_attribute 34, 1
  13              		.eabi_attribute 18, 4
  14              		.thumb
  15              		.file	"flash_if.c"
  16              		.text
  17              	.Ltext0:
  18              		.cfi_sections	.debug_frame
  19              		.section	.text.FLASH_If_Init,"ax",%progbits
  20              		.align	2
  21              		.p2align 4,,15
  22              		.global	FLASH_If_Init
  23              		.thumb
  24              		.thumb_func
  25              		.type	FLASH_If_Init, %function
  26              	FLASH_If_Init:
  27              	.LFB111:
  28              		.file 1 "../AithonLibrary/flash_if.c"
  29              		.loc 1 42 0
  30              		.cfi_startproc
  31              		@ args = 0, pretend = 0, frame = 0
  32              		@ frame_needed = 0, uses_anonymous_args = 0
  33 0000 08B5     		push	{r3, lr}
  34              		.cfi_def_cfa_offset 8
  35              		.cfi_offset 3, -8
  36              		.cfi_offset 14, -4
  37              		.loc 1 43 0
  38 0002 FFF7FEFF 		bl	FLASH_Unlock
  39              	.LVL0:
  40              		.loc 1 46 0
  41 0006 F320     		movs	r0, #243
  42              		.loc 1 48 0
  43 0008 BDE80840 		pop	{r3, lr}
  44              		.loc 1 46 0
  45 000c FFF7FEBF 		b	FLASH_ClearFlag
  46              	.LVL1:
  47              		.cfi_endproc
  48              	.LFE111:
  49              		.size	FLASH_If_Init, .-FLASH_If_Init
  50              		.section	.text.FLASH_If_Erase,"ax",%progbits
  51              		.align	2
  52              		.p2align 4,,15
  53              		.global	FLASH_If_Erase
  54              		.thumb
  55              		.thumb_func
  56              		.type	FLASH_If_Erase, %function
  57              	FLASH_If_Erase:
ARM GAS  /tmp/ccyYSQYU.s 			page 2


  58              	.LFB112:
  59              		.loc 1 57 0
  60              		.cfi_startproc
  61              		@ args = 0, pretend = 0, frame = 0
  62              		@ frame_needed = 0, uses_anonymous_args = 0
  63              	.LVL2:
  64 0000 10B5     		push	{r4, lr}
  65              		.cfi_def_cfa_offset 8
  66              		.cfi_offset 4, -8
  67              		.cfi_offset 14, -4
  68              		.loc 1 59 0
  69 0002 2024     		movs	r4, #32
  70              	.LVL3:
  71              	.L4:
  72              		.loc 1 63 0
  73 0004 2046     		mov	r0, r4
  74 0006 0221     		movs	r1, #2
  75 0008 FFF7FEFF 		bl	FLASH_EraseSector
  76              	.LVL4:
  77 000c 0828     		cmp	r0, #8
  78              		.loc 1 59 0
  79 000e 04F10804 		add	r4, r4, #8
  80              	.LVL5:
  81              		.loc 1 63 0
  82 0012 03D1     		bne	.L5
  83              		.loc 1 59 0
  84 0014 402C     		cmp	r4, #64
  85 0016 F5D1     		bne	.L4
  86              		.loc 1 70 0
  87 0018 0020     		movs	r0, #0
  88              		.loc 1 71 0
  89 001a 10BD     		pop	{r4, pc}
  90              	.LVL6:
  91              	.L5:
  92              		.loc 1 66 0
  93 001c 0120     		movs	r0, #1
  94 001e 10BD     		pop	{r4, pc}
  95              		.cfi_endproc
  96              	.LFE112:
  97              		.size	FLASH_If_Erase, .-FLASH_If_Erase
  98              		.section	.text.FLASH_If_Write,"ax",%progbits
  99              		.align	2
 100              		.p2align 4,,15
 101              		.global	FLASH_If_Write
 102              		.thumb
 103              		.thumb_func
 104              		.type	FLASH_If_Write, %function
 105              	FLASH_If_Write:
 106              	.LFB113:
 107              		.loc 1 84 0
 108              		.cfi_startproc
 109              		@ args = 0, pretend = 0, frame = 0
 110              		@ frame_needed = 0, uses_anonymous_args = 0
 111              	.LVL7:
 112 0000 2DE9F041 		push	{r4, r5, r6, r7, r8, lr}
 113              		.cfi_def_cfa_offset 24
 114              		.cfi_offset 4, -24
ARM GAS  /tmp/ccyYSQYU.s 			page 3


 115              		.cfi_offset 5, -20
 116              		.cfi_offset 6, -16
 117              		.cfi_offset 7, -12
 118              		.cfi_offset 8, -8
 119              		.cfi_offset 14, -4
 120              		.loc 1 87 0
 121 0004 1746     		mov	r7, r2
 122              		.loc 1 84 0
 123 0006 0446     		mov	r4, r0
 124              		.loc 1 87 0
 125 0008 12B3     		cbz	r2, .L11
 126 000a 0268     		ldr	r2, [r0]
 127              	.LVL8:
 128 000c 134B     		ldr	r3, .L16
 129 000e 9A42     		cmp	r2, r3
 130 0010 1ED8     		bhi	.L11
 131 0012 0D46     		mov	r5, r1
 132 0014 9846     		mov	r8, r3
 133 0016 0026     		movs	r6, #0
 134 0018 0EE0     		b	.L12
 135              	.LVL9:
 136              	.L15:
 137              		.loc 1 94 0
 138 001a 2268     		ldr	r2, [r4]
 139 001c 55F8043C 		ldr	r3, [r5, #-4]
 140 0020 1168     		ldr	r1, [r2]
 141 0022 9942     		cmp	r1, r3
 142 0024 17D1     		bne	.L14
 143              		.loc 1 100 0
 144 0026 2368     		ldr	r3, [r4]
 145              		.loc 1 87 0
 146 0028 BE42     		cmp	r6, r7
 147              		.loc 1 100 0
 148 002a 03F10403 		add	r3, r3, #4
 149 002e 2360     		str	r3, [r4]
 150              		.loc 1 87 0
 151 0030 0ED0     		beq	.L11
 152              		.loc 1 87 0 is_stmt 0 discriminator 2
 153 0032 2368     		ldr	r3, [r4]
 154 0034 4345     		cmp	r3, r8
 155 0036 0BD8     		bhi	.L11
 156              	.LVL10:
 157              	.L12:
 158              		.loc 1 91 0 is_stmt 1
 159 0038 2068     		ldr	r0, [r4]
 160 003a 55F8041B 		ldr	r1, [r5], #4
 161 003e FFF7FEFF 		bl	FLASH_ProgramWord
 162              	.LVL11:
 163 0042 0828     		cmp	r0, #8
 164              		.loc 1 87 0
 165 0044 06F10106 		add	r6, r6, #1
 166              	.LVL12:
 167              		.loc 1 91 0
 168 0048 E7D0     		beq	.L15
 169              		.loc 1 105 0
 170 004a 0120     		movs	r0, #1
 171 004c BDE8F081 		pop	{r4, r5, r6, r7, r8, pc}
ARM GAS  /tmp/ccyYSQYU.s 			page 4


 172              	.LVL13:
 173              	.L11:
 174              		.loc 1 109 0
 175 0050 0020     		movs	r0, #0
 176 0052 BDE8F081 		pop	{r4, r5, r6, r7, r8, pc}
 177              	.LVL14:
 178              	.L14:
 179              		.loc 1 97 0
 180 0056 0220     		movs	r0, #2
 181              		.loc 1 110 0
 182 0058 BDE8F081 		pop	{r4, r5, r6, r7, r8, pc}
 183              	.LVL15:
 184              	.L17:
 185              		.align	2
 186              	.L16:
 187 005c FBFF0708 		.word	134742011
 188              		.cfi_endproc
 189              	.LFE113:
 190              		.size	FLASH_If_Write, .-FLASH_If_Write
 191              		.text
 192              	.Letext0:
 193              		.file 2 "/usr/arm-none-eabi/include/stdint.h"
 194              		.file 3 "../AithonLibrary/stm_flash.h"
 195              		.file 4 "../AithonLibrary/ChibiOS/os/ports/common/ARMCMx/CMSIS/include/core_cm4.h"