ARM GAS  /tmp/ccXLvB58.s 			page 1


   1              		.syntax unified
   2              		.cpu cortex-m4
   3              		.eabi_attribute 27, 3
   4              		.fpu fpv4-sp-d16
   5              		.eabi_attribute 20, 1
   6              		.eabi_attribute 21, 1
   7              		.eabi_attribute 23, 3
   8              		.eabi_attribute 24, 1
   9              		.eabi_attribute 25, 1
  10              		.eabi_attribute 26, 1
  11              		.eabi_attribute 30, 2
  12              		.eabi_attribute 34, 1
  13              		.eabi_attribute 18, 4
  14              		.thumb
  15              		.file	"hal.c"
  16              		.text
  17              	.Ltext0:
  18              		.cfi_sections	.debug_frame
  19              		.section	.text.halInit,"ax",%progbits
  20              		.align	2
  21              		.p2align 4,,15
  22              		.global	halInit
  23              		.thumb
  24              		.thumb_func
  25              		.type	halInit, %function
  26              	halInit:
  27              	.LFB118:
  28              		.file 1 "../AithonLibrary/ChibiOS/os/hal/src/hal.c"
  29              		.loc 1 68 0
  30              		.cfi_startproc
  31              		@ args = 0, pretend = 0, frame = 0
  32              		@ frame_needed = 0, uses_anonymous_args = 0
  33 0000 08B5     		push	{r3, lr}
  34              		.cfi_def_cfa_offset 8
  35              		.cfi_offset 3, -8
  36              		.cfi_offset 14, -4
  37              		.loc 1 70 0
  38 0002 FFF7FEFF 		bl	hal_lld_init
  39              	.LVL0:
  40              		.loc 1 73 0
  41 0006 FFF7FEFF 		bl	tmInit
  42              	.LVL1:
  43              		.loc 1 76 0
  44 000a 0B48     		ldr	r0, .L2
  45 000c FFF7FEFF 		bl	_pal_lld_init
  46              	.LVL2:
  47              		.loc 1 79 0
  48 0010 FFF7FEFF 		bl	adcInit
  49              	.LVL3:
  50              		.loc 1 94 0
  51 0014 FFF7FEFF 		bl	i2cInit
  52              	.LVL4:
  53              		.loc 1 103 0
  54 0018 FFF7FEFF 		bl	pwmInit
  55              	.LVL5:
  56              		.loc 1 106 0
  57 001c FFF7FEFF 		bl	sdInit
ARM GAS  /tmp/ccXLvB58.s 			page 2


  58              	.LVL6:
  59              		.loc 1 112 0
  60 0020 FFF7FEFF 		bl	spiInit
  61              	.LVL7:
  62              		.loc 1 118 0
  63 0024 FFF7FEFF 		bl	usbInit
  64              	.LVL8:
  65              		.loc 1 121 0
  66 0028 FFF7FEFF 		bl	mmcInit
  67              	.LVL9:
  68              		.loc 1 124 0
  69 002c FFF7FEFF 		bl	sduInit
  70              	.LVL10:
  71              		.loc 1 131 0
  72 0030 BDE80840 		pop	{r3, lr}
  73              		.loc 1 130 0
  74 0034 FFF7FEBF 		b	boardInit
  75              	.LVL11:
  76              	.L3:
  77              		.align	2
  78              	.L2:
  79 0038 00000000 		.word	pal_default_config
  80              		.cfi_endproc
  81              	.LFE118:
  82              		.size	halInit, .-halInit
  83 003c AFF30080 		.section	.text.halIsCounterWithin,"ax",%progbits
  84              		.align	2
  85              		.p2align 4,,15
  86              		.global	halIsCounterWithin
  87              		.thumb
  88              		.thumb_func
  89              		.type	halIsCounterWithin, %function
  90              	halIsCounterWithin:
  91              	.LFB119:
  92              		.loc 1 177 0
  93              		.cfi_startproc
  94              		@ args = 0, pretend = 0, frame = 0
  95              		@ frame_needed = 0, uses_anonymous_args = 0
  96              		@ link register save eliminated.
  97              	.LVL12:
  98              		.loc 1 178 0
  99 0000 084B     		ldr	r3, .L13
 100              		.loc 1 180 0
 101 0002 8142     		cmp	r1, r0
 102              		.loc 1 178 0
 103 0004 5B68     		ldr	r3, [r3, #4]
 104              	.LVL13:
 105              		.loc 1 180 0
 106 0006 06D9     		bls	.L5
 107              		.loc 1 180 0 is_stmt 0 discriminator 1
 108 0008 8342     		cmp	r3, r0
 109 000a 08D3     		bcc	.L9
 110              	.L11:
 111 000c 8B42     		cmp	r3, r1
 112 000e 2CBF     		ite	cs
 113 0010 0020     		movcs	r0, #0
 114              	.LVL14:
ARM GAS  /tmp/ccXLvB58.s 			page 3


 115 0012 0120     		movcc	r0, #1
 116 0014 7047     		bx	lr
 117              	.LVL15:
 118              	.L5:
 119              		.loc 1 181 0 is_stmt 1
 120 0016 8342     		cmp	r3, r0
 121 0018 F8D3     		bcc	.L11
 122 001a 0120     		movs	r0, #1
 123              	.LVL16:
 124              		.loc 1 182 0
 125 001c 7047     		bx	lr
 126              	.LVL17:
 127              	.L9:
 128 001e 0020     		movs	r0, #0
 129              	.LVL18:
 130 0020 7047     		bx	lr
 131              	.L14:
 132 0022 00BF     		.align	2
 133              	.L13:
 134 0024 001000E0 		.word	-536866816
 135              		.cfi_endproc
 136              	.LFE119:
 137              		.size	halIsCounterWithin, .-halIsCounterWithin
 138 0028 AFF30080 		.section	.text.halPolledDelay,"ax",%progbits
 138      AFF30080 
 139              		.align	2
 140              		.p2align 4,,15
 141              		.global	halPolledDelay
 142              		.thumb
 143              		.thumb_func
 144              		.type	halPolledDelay, %function
 145              	halPolledDelay:
 146              	.LFB120:
 147              		.loc 1 196 0
 148              		.cfi_startproc
 149              		@ args = 0, pretend = 0, frame = 0
 150              		@ frame_needed = 0, uses_anonymous_args = 0
 151              		@ link register save eliminated.
 152              	.LVL19:
 153              		.loc 1 197 0
 154 0000 0C49     		ldr	r1, .L26
 155 0002 4A68     		ldr	r2, [r1, #4]
 156              	.LVL20:
 157              		.loc 1 198 0
 158 0004 1044     		add	r0, r0, r2
 159              	.LVL21:
 160              	.L21:
 161              	.LBB4:
 162              	.LBB5:
 163              		.loc 1 180 0 discriminator 1
 164 0006 8242     		cmp	r2, r0
 165              		.loc 1 178 0 discriminator 1
 166 0008 4B68     		ldr	r3, [r1, #4]
 167              	.LVL22:
 168              		.loc 1 180 0 discriminator 1
 169 000a 0CD2     		bcs	.L16
 170              		.loc 1 180 0 is_stmt 0
ARM GAS  /tmp/ccXLvB58.s 			page 4


 171 000c 9A42     		cmp	r2, r3
 172 000e 03D9     		bls	.L24
 173 0010 0023     		movs	r3, #0
 174              	.LVL23:
 175              	.LBE5:
 176              	.LBE4:
 177              		.loc 1 199 0 is_stmt 1
 178 0012 002B     		cmp	r3, #0
 179 0014 F7D1     		bne	.L21
 180              	.L25:
 181              		.loc 1 201 0
 182 0016 7047     		bx	lr
 183              	.LVL24:
 184              	.L24:
 185 0018 9842     		cmp	r0, r3
 186 001a 94BF     		ite	ls
 187 001c 0023     		movls	r3, #0
 188              	.LVL25:
 189 001e 0123     		movhi	r3, #1
 190              		.loc 1 199 0
 191 0020 002B     		cmp	r3, #0
 192 0022 F0D1     		bne	.L21
 193 0024 F7E7     		b	.L25
 194              	.LVL26:
 195              	.L16:
 196              	.LBB7:
 197              	.LBB6:
 198              		.loc 1 181 0
 199 0026 9A42     		cmp	r2, r3
 200 0028 F6D8     		bhi	.L24
 201 002a 0123     		movs	r3, #1
 202              	.LVL27:
 203              	.LBE6:
 204              	.LBE7:
 205              		.loc 1 199 0
 206 002c 002B     		cmp	r3, #0
 207 002e EAD1     		bne	.L21
 208 0030 F1E7     		b	.L25
 209              	.L27:
 210 0032 00BF     		.align	2
 211              	.L26:
 212 0034 001000E0 		.word	-536866816
 213              		.cfi_endproc
 214              	.LFE120:
 215              		.size	halPolledDelay, .-halPolledDelay
 216 0038 AFF30080 		.text
 216      AFF30080 
 217              	.Letext0:
 218              		.file 2 "/usr/arm-none-eabi/include/stdint.h"
 219              		.file 3 "../AithonLibrary/ChibiOS/os/ports/GCC/ARMCMx/chtypes.h"
 220              		.file 4 "../AithonLibrary/ChibiOS/os/ports/common/ARMCMx/nvic.h"
 221              		.file 5 "../AithonLibrary/ChibiOS/os/hal/platforms/STM32F4xx/hal_lld.h"
 222              		.file 6 "../AithonLibrary/ChibiOS/os/hal/platforms/STM32/GPIOv2/pal_lld.h"
 223              		.file 7 "../AithonLibrary/ChibiOS/os/ports/common/ARMCMx/CMSIS/include/core_cm4.h"
 224              		.file 8 "../AithonLibrary/ChibiOS/os/hal/include/tm.h"
 225              		.file 9 "../AithonLibrary/ChibiOS/os/hal/include/adc.h"
 226              		.file 10 "../AithonLibrary/ChibiOS/os/hal/include/i2c.h"
ARM GAS  /tmp/ccXLvB58.s 			page 5


 227              		.file 11 "../AithonLibrary/ChibiOS/os/hal/include/pwm.h"
 228              		.file 12 "../AithonLibrary/ChibiOS/os/hal/include/serial.h"
 229              		.file 13 "../AithonLibrary/ChibiOS/os/hal/include/spi.h"
 230              		.file 14 "../AithonLibrary/ChibiOS/os/hal/include/usb.h"
 231              		.file 15 "../AithonLibrary/ChibiOS/os/hal/include/mmc_spi.h"
 232              		.file 16 "../AithonLibrary/ChibiOS/os/hal/include/serial_usb.h"
 233              		.file 17 "../AithonLibrary/Board_v01/board.h"