ARM GAS  /tmp/ccUBwQTI.s 			page 1


   1              		.syntax unified
   2              		.cpu cortex-m4
   3              		.eabi_attribute 27, 3
   4              		.fpu fpv4-sp-d16
   5              		.eabi_attribute 20, 1
   6              		.eabi_attribute 21, 1
   7              		.eabi_attribute 23, 3
   8              		.eabi_attribute 24, 1
   9              		.eabi_attribute 25, 1
  10              		.eabi_attribute 26, 1
  11              		.eabi_attribute 30, 2
  12              		.eabi_attribute 34, 1
  13              		.eabi_attribute 18, 4
  14              		.thumb
  15              		.file	"hal_lld.c"
  16              		.text
  17              	.Ltext0:
  18              		.cfi_sections	.debug_frame
  19              		.section	.text.hal_lld_init,"ax",%progbits
  20              		.align	2
  21              		.p2align 4,,15
  22              		.global	hal_lld_init
  23              		.thumb
  24              		.thumb_func
  25              		.type	hal_lld_init, %function
  26              	hal_lld_init:
  27              	.LFB119:
  28              		.file 1 "../AithonLibrary/ChibiOS/os/hal/platforms/STM32F4xx/hal_lld.c"
  29              		.loc 1 111 0
  30              		.cfi_startproc
  31              		@ args = 0, pretend = 0, frame = 0
  32              		@ frame_needed = 0, uses_anonymous_args = 0
  33              		@ link register save eliminated.
  34              		.loc 1 115 0
  35 0000 214B     		ldr	r3, .L7
  36              		.loc 1 121 0
  37 0002 2249     		ldr	r1, .L7+4
  38              		.loc 1 115 0
  39 0004 1A69     		ldr	r2, [r3, #16]
  40              		.loc 1 121 0
  41 0006 DFF894C0 		ldr	ip, .L7+20
  42              		.loc 1 115 0
  43 000a 0022     		movs	r2, #0
  44 000c 4FF0FF30 		mov	r0, #-1
  45              		.loc 1 111 0
  46 0010 2DE9F001 		push	{r4, r5, r6, r7, r8}
  47              		.cfi_def_cfa_offset 20
  48              		.cfi_offset 4, -20
  49              		.cfi_offset 5, -16
  50              		.cfi_offset 6, -12
  51              		.cfi_offset 7, -8
  52              		.cfi_offset 8, -4
  53              		.loc 1 115 0
  54 0014 1861     		str	r0, [r3, #16]
  55 0016 1A61     		str	r2, [r3, #16]
  56              		.loc 1 116 0
  57 0018 5F69     		ldr	r7, [r3, #20]
ARM GAS  /tmp/ccUBwQTI.s 			page 2


  58 001a 5861     		str	r0, [r3, #20]
  59 001c 5A61     		str	r2, [r3, #20]
  60              		.loc 1 117 0
  61 001e 1F6A     		ldr	r7, [r3, #32]
  62              		.loc 1 128 0
  63 0020 1B4E     		ldr	r6, .L7+8
  64              		.loc 1 129 0
  65 0022 1C4D     		ldr	r5, .L7+12
  66              	.LBB4:
  67              	.LBB5:
  68              		.loc 1 54 0
  69 0024 1C4C     		ldr	r4, .L7+16
  70              	.LBE5:
  71              	.LBE4:
  72              		.loc 1 117 0
  73 0026 67F08057 		orn	r7, r7, #268435456
  74 002a 1F62     		str	r7, [r3, #32]
  75 002c 1A62     		str	r2, [r3, #32]
  76              		.loc 1 123 0
  77 002e 0727     		movs	r7, #7
  78              		.loc 1 118 0
  79 0030 D3F82480 		ldr	r8, [r3, #36]
  80 0034 5862     		str	r0, [r3, #36]
  81 0036 5A62     		str	r2, [r3, #36]
  82              		.loc 1 121 0
  83 0038 C1F804C0 		str	ip, [r1, #4]
  84              		.loc 1 122 0
  85 003c 8A60     		str	r2, [r1, #8]
  86              		.loc 1 123 0
  87 003e 0F60     		str	r7, [r1]
  88              		.loc 1 128 0
  89 0040 F168     		ldr	r1, [r6, #12]
  90 0042 41F08071 		orr	r1, r1, #16777216
  91 0046 F160     		str	r1, [r6, #12]
  92              		.loc 1 129 0
  93 0048 2968     		ldr	r1, [r5]
  94 004a 41F00101 		orr	r1, r1, #1
  95 004e 2960     		str	r1, [r5]
  96              		.loc 1 132 0
  97 0050 196C     		ldr	r1, [r3, #64]
  98 0052 41F08051 		orr	r1, r1, #268435456
  99 0056 1964     		str	r1, [r3, #64]
 100              	.LBB7:
 101              	.LBB6:
 102              		.loc 1 54 0
 103 0058 2168     		ldr	r1, [r4]
 104 005a 41F48071 		orr	r1, r1, #256
 105 005e 2160     		str	r1, [r4]
 106              		.loc 1 57 0
 107 0060 196F     		ldr	r1, [r3, #112]
 108 0062 01F44071 		and	r1, r1, #768
 109 0066 B1F5007F 		cmp	r1, #512
 110 006a 03D0     		beq	.L2
 111              		.loc 1 59 0
 112 006c 4FF48031 		mov	r1, #65536
 113 0070 1967     		str	r1, [r3, #112]
 114              		.loc 1 60 0
ARM GAS  /tmp/ccUBwQTI.s 			page 3


 115 0072 1A67     		str	r2, [r3, #112]
 116              	.L2:
 117              		.loc 1 94 0
 118 0074 084B     		ldr	r3, .L7+16
 119 0076 5A68     		ldr	r2, [r3, #4]
 120 0078 22F40072 		bic	r2, r2, #512
 121 007c 5A60     		str	r2, [r3, #4]
 122              	.LBE6:
 123              	.LBE7:
 124              		.loc 1 145 0
 125 007e BDE8F001 		pop	{r4, r5, r6, r7, r8}
 126              		.loc 1 138 0
 127 0082 FFF7FEBF 		b	dmaInit
 128              	.LVL0:
 129              	.L8:
 130 0086 00BF     		.align	2
 131              	.L7:
 132 0088 00380240 		.word	1073887232
 133 008c 10E000E0 		.word	-536813552
 134 0090 F0ED00E0 		.word	-536810000
 135 0094 001000E0 		.word	-536866816
 136 0098 00700040 		.word	1073770496
 137 009c 3F900200 		.word	167999
 138              		.cfi_endproc
 139              	.LFE119:
 140              		.size	hal_lld_init, .-hal_lld_init
 141              		.section	.text.stm32_clock_init,"ax",%progbits
 142              		.align	2
 143              		.p2align 4,,15
 144              		.global	stm32_clock_init
 145              		.thumb
 146              		.thumb_func
 147              		.type	stm32_clock_init, %function
 148              	stm32_clock_init:
 149              	.LFB120:
 150              		.loc 1 154 0
 151              		.cfi_startproc
 152              		@ args = 0, pretend = 0, frame = 0
 153              		@ frame_needed = 0, uses_anonymous_args = 0
 154              		@ link register save eliminated.
 155              		.loc 1 158 0
 156 0000 2B49     		ldr	r1, .L24
 157              		.loc 1 162 0
 158 0002 2C4B     		ldr	r3, .L24+4
 159              		.loc 1 158 0
 160 0004 4FF08050 		mov	r0, #268435456
 161              		.loc 1 162 0
 162 0008 4FF44042 		mov	r2, #49152
 163              		.loc 1 158 0
 164 000c 0864     		str	r0, [r1, #64]
 165              		.loc 1 162 0
 166 000e 1A60     		str	r2, [r3]
 167              		.loc 1 169 0
 168 0010 0B68     		ldr	r3, [r1]
 169 0012 43F00103 		orr	r3, r3, #1
 170 0016 0B60     		str	r3, [r1]
 171              	.L11:
ARM GAS  /tmp/ccUBwQTI.s 			page 4


 172              		.loc 1 170 0 discriminator 1
 173 0018 0B68     		ldr	r3, [r1]
 174 001a 254A     		ldr	r2, .L24
 175 001c 9807     		lsls	r0, r3, #30
 176 001e FBD5     		bpl	.L11
 177              		.loc 1 172 0
 178 0020 1168     		ldr	r1, [r2]
 179              		.loc 1 173 0
 180 0022 0023     		movs	r3, #0
 181              		.loc 1 172 0
 182 0024 01F0F901 		and	r1, r1, #249
 183 0028 1160     		str	r1, [r2]
 184              		.loc 1 174 0
 185 002a 1146     		mov	r1, r2
 186              		.loc 1 173 0
 187 002c 9360     		str	r3, [r2, #8]
 188              	.L13:
 189              		.loc 1 174 0 discriminator 1
 190 002e 8B68     		ldr	r3, [r1, #8]
 191 0030 1F4A     		ldr	r2, .L24
 192 0032 13F00C0F 		tst	r3, #12
 193 0036 FAD1     		bne	.L13
 194              		.loc 1 184 0
 195 0038 1368     		ldr	r3, [r2]
 196 003a 43F48033 		orr	r3, r3, #65536
 197 003e 1360     		str	r3, [r2]
 198              		.loc 1 186 0
 199 0040 1146     		mov	r1, r2
 200              	.L15:
 201              		.loc 1 186 0 is_stmt 0 discriminator 1
 202 0042 0B68     		ldr	r3, [r1]
 203 0044 1A4A     		ldr	r2, .L24
 204 0046 9B03     		lsls	r3, r3, #14
 205 0048 FBD5     		bpl	.L15
 206              		.loc 1 192 0 is_stmt 1
 207 004a 536F     		ldr	r3, [r2, #116]
 208 004c 43F00103 		orr	r3, r3, #1
 209 0050 5367     		str	r3, [r2, #116]
 210              		.loc 1 193 0
 211 0052 1146     		mov	r1, r2
 212              	.L17:
 213              		.loc 1 193 0 is_stmt 0 discriminator 1
 214 0054 4B6F     		ldr	r3, [r1, #116]
 215 0056 164A     		ldr	r2, .L24
 216 0058 9807     		lsls	r0, r3, #30
 217 005a FBD5     		bpl	.L17
 218              		.loc 1 199 0 is_stmt 1
 219 005c 164B     		ldr	r3, .L24+8
 220 005e 5360     		str	r3, [r2, #4]
 221              		.loc 1 201 0
 222 0060 1368     		ldr	r3, [r2]
 223              		.loc 1 205 0
 224 0062 1449     		ldr	r1, .L24+4
 225              		.loc 1 201 0
 226 0064 43F08073 		orr	r3, r3, #16777216
 227 0068 1360     		str	r3, [r2]
 228              	.L19:
ARM GAS  /tmp/ccUBwQTI.s 			page 5


 229              		.loc 1 205 0 discriminator 1
 230 006a 4B68     		ldr	r3, [r1, #4]
 231 006c 5A04     		lsls	r2, r3, #17
 232 006e FCD5     		bpl	.L19
 233              		.loc 1 221 0
 234 0070 0F49     		ldr	r1, .L24
 235              	.L21:
 236 0072 0B68     		ldr	r3, [r1]
 237 0074 0E4A     		ldr	r2, .L24
 238 0076 9B01     		lsls	r3, r3, #6
 239 0078 FBD5     		bpl	.L21
 240              		.loc 1 249 0
 241 007a 104B     		ldr	r3, .L24+12
 242              		.loc 1 236 0
 243 007c 1049     		ldr	r1, .L24+16
 244 007e 9160     		str	r1, [r2, #8]
 245              		.loc 1 249 0
 246 0080 40F20571 		movw	r1, #1797
 247 0084 1960     		str	r1, [r3]
 248              		.loc 1 255 0
 249 0086 9368     		ldr	r3, [r2, #8]
 250 0088 43F00203 		orr	r3, r3, #2
 251 008c 9360     		str	r3, [r2, #8]
 252              		.loc 1 256 0
 253 008e 1146     		mov	r1, r2
 254              	.L23:
 255              		.loc 1 256 0 is_stmt 0 discriminator 1
 256 0090 8B68     		ldr	r3, [r1, #8]
 257 0092 074A     		ldr	r2, .L24
 258 0094 03F00C03 		and	r3, r3, #12
 259 0098 082B     		cmp	r3, #8
 260 009a F9D1     		bne	.L23
 261              		.loc 1 263 0 is_stmt 1
 262 009c 536C     		ldr	r3, [r2, #68]
 263 009e 43F48043 		orr	r3, r3, #16384
 264 00a2 5364     		str	r3, [r2, #68]
 265 00a4 536E     		ldr	r3, [r2, #100]
 266 00a6 43F48043 		orr	r3, r3, #16384
 267 00aa 5366     		str	r3, [r2, #100]
 268 00ac 7047     		bx	lr
 269              	.L25:
 270 00ae 00BF     		.align	2
 271              	.L24:
 272 00b0 00380240 		.word	1073887232
 273 00b4 00700040 		.word	1073770496
 274 00b8 08544007 		.word	121656328
 275 00bc 003C0240 		.word	1073888256
 276 00c0 00940838 		.word	940086272
 277              		.cfi_endproc
 278              	.LFE120:
 279              		.size	stm32_clock_init, .-stm32_clock_init
 280 00c4 AFF30080 		.text
 280      AFF30080 
 280      AFF30080 
 281              	.Letext0:
 282              		.file 2 "/usr/arm-none-eabi/include/stdint.h"
 283              		.file 3 "../AithonLibrary/ChibiOS/os/ports/common/ARMCMx/nvic.h"
ARM GAS  /tmp/ccUBwQTI.s 			page 6


 284              		.file 4 "../AithonLibrary/ChibiOS/os/ports/common/ARMCMx/CMSIS/include/core_cm4.h"
 285              		.file 5 "../AithonLibrary/ChibiOS/os/hal/platforms/STM32F4xx/stm32f4xx.h"
 286              		.file 6 "../AithonLibrary/ChibiOS/os/hal/platforms/STM32F4xx/stm32_dma.h"