ARM GAS  /tmp/ccUBwQTI.s 			page 1


   1              		.syntax unified
   2              		.cpu cortex-m4
   3              		.eabi_attribute 27, 3
   4              		.fpu fpv4-sp-d16
   5              		.eabi_attribute 20, 1
   6              		.eabi_attribute 21, 1
   7              		.eabi_attribute 23, 3
   8              		.eabi_attribute 24, 1
   9              		.eabi_attribute 25, 1
  10              		.eabi_attribute 26, 1
  11              		.eabi_attribute 30, 2
  12              		.eabi_attribute 34, 1
  13              		.eabi_attribute 18, 4
  14              		.thumb
  15              		.file	"hal_lld.c"
  16              		.text
  17              	.Ltext0:
  18              		.cfi_sections	.debug_frame
  19              		.section	.text.hal_lld_init,"ax",%progbits
  20              		.align	2
  21              		.p2align 4,,15
  22              		.global	hal_lld_init
  23              		.thumb
  24              		.thumb_func
  25              		.type	hal_lld_init, %function
  26              	hal_lld_init:
  27              	.LFB119:
  28              		.file 1 "../AithonLibrary/ChibiOS/os/hal/platforms/STM32F4xx/hal_lld.c"
  29              		.loc 1 111 0
  30              		.cfi_startproc
  31              		@ args = 0, pretend = 0, frame = 0
  32              		@ frame_needed = 0, uses_anonymous_args = 0
  33              		@ link register save eliminated.
  34              		.loc 1 115 0
  35 0000 214B     		ldr	r3, .L7
  36              		.loc 1 121 0
  37 0002 2249     		ldr	r1, .L7+4
  38              		.loc 1 115 0
  39 0004 1A69     		ldr	r2, [r3, #16]
  40              		.loc 1 121 0
  41 0006 DFF894C0 		ldr	ip, .L7+20
  42              		.loc 1 115 0
  43 000a 0022     		movs	r2, #0
  44 000c 4FF0FF30 		mov	r0, #-1
  45              		.loc 1 111 0
  46 0010 2DE9F001 		push	{r4, r5, r6, r7, r8}
  47              		.cfi_def_cfa_offset 20
  48              		.cfi_offset 4, -20
  49              		.cfi_offset 5, -16
  50              		.cfi_offset 6, -12
  51              		.cfi_offset 7, -8
  52              		.cfi_offset 8, -4
  53              		.loc 1 115 0
  54 0014 1861     		str	r0, [r3, #16]
  55 0016 1A61     		str	r2, [r3, #16]
  56              		.loc 1 116 0
  57 0018 5F69     		ldr	r7, [r3, #20]
ARM GAS  /tmp/ccUBwQTI.s 			page 2


  58 001a 5861     		str	r0, [r3, #20]
  59 001c 5A61     		str	r2, [r3, #20]
  60              		.loc 1 117 0
  61 001e 1F6A     		ldr	r7, [r3, #32]
  62              		.loc 1 128 0
  63 0020 1B4E     		ldr	r6, .L7+8
  64              		.loc 1 129 0
  65 0022 1C4D     		ldr	r5, .L7+12
  66              	.LBB4:
  67              	.LBB5:
  68              		.loc 1 54 0
  69 0024 1C4C     		ldr	r4, .L7+16
  70              	.LBE5:
  71              	.LBE4:
  72              		.loc 1 117 0
  73 0026 67F08057 		orn	r7, r7, #268435456
  74 002a 1F62     		str	r7, [r3, #32]
  75 002c 1A62     		str	r2, [r3, #32]
  76              		.loc 1 123 0
  77 002e 0727     		movs	r7, #7
  78              		.loc 1 118 0
  79 0030 D3F82480 		ldr	r8, [r3, #36]
  80 0034 5862     		str	r0, [r3, #36]
  81 0036 5A62     		str	r2, [r3, #36]
  82              		.loc 1 121 0
  83 0038 C1F804C0 		str	ip, [r1, #4]
  84              		.loc 1 122 0
  85 003c 8A60     		str	r2, [r1, #8]
  86              		.loc 1 123 0
  87 003e 0F60     		str	r7, [r1]
  88              		.loc 1 128 0
  89 0040 F168     		ldr	r1, [r6, #12]
  90 0042 41F08071 		orr	r1, r1, #16777216
  91 0046 F160     		str	r1, [r6, #12]
  92              		.loc 1 129 0
  93 0048 2968     		ldr	r1, [r5]
  94 004a 41F00101 		orr	r1, r1, #1
  95 004e 2960     		str	r1, [r5]
  96              		.loc 1 132 0
  97 0050 196C     		ldr	r1, [r3, #64]
  98 0052 41F08051 		orr	r1, r1, #268435456
  99 0056 1964     		str	r1, [r3, #64]
 100              	.LBB7:
 101              	.LBB6:
 102              		.loc 1 54 0
 103 0058 2168     		ldr	r1, [r4]
 104 005a 41F48071 		orr	r1, r1, #256
 105 005e 2160     		str	r1, [r4]
 106              		.loc 1 57 0
 107 0060 196F     		ldr	r1, [r3, #112]
 108 0062 01F44071 		and	r1, r1, #768
 109 0066 B1F5007F 		cmp	r1, #512
 110 006a 03D0     		beq	.L2
 111              		.loc 1 59 0
 112 006c 4FF48031 		mov	r1, #65536
 113 0070 1967     		str	r1, [r3, #112]
 114              		.loc 1 60 0
ARM GAS  /tmp/ccUBwQTI.s 			page 3


 115 0072 1A67     		str	r2, [r3, #112]
 116              	.L2:
 117              		.loc 1 94 0
 118 0074 084B     		ldr	r3, .L7+16
 119 0076 5A68     		ldr	r2, [r3, #4]
 120 0078 22F40072 		bic	r2, r2, #512
 121 007c 5A60     		str	r2, [r3, #4]
 122              	.LBE6:
 123              	.LBE7:
 124              		.loc 1 145 0
 125 007e BDE8F001 		pop	{r4, r5, r6, r7, r8}
 126              		.loc 1 138 0
 127 0082 FFF7FEBF 		b	dmaInit
 128              	.LVL0:
 129              	.L8:
 130 0086 00BF     		.align	2
 131              	.L7:
 132 0088 00380240 		.word	1073887232
 133 008c 10E000E0 		.word	-536813552
 134 0090 F0ED00E0 		.word	-536810000
 135 0094 001000E0 		.word	-536866816
 136 0098 00700040 		.word	1073770496
 137 009c 3F900200 		.word	167999
 138              		.cfi_endproc
 139              	.LFE119:
 140              		.size	hal_lld_init, .-hal_lld_init
 141              		.section	.text.stm32_clock_init,"ax",%progbits
 142              		.align	2
 143              		.p2align 4,,15
 144              		.global	stm32_clock_init
 145              		.thumb
 146              		.thumb_func
 147              		.type	stm32_clock_init, %function
 148              	stm32_clock_init:
 149              	.LFB120:
 150              		.loc 1 154 0
 151              		.cfi_startproc
 152              		@ args = 0, pretend = 0, frame = 0
 153              		@ frame_needed = 0, uses_anonymous_args = 0
 154              		@ link register save eliminated.
 155              		.loc 1 158 0
 156 0000 2B49     		ldr	r1, .L24
 157              		.loc 1 162 0
 158 0002 2C4B     		ldr	r3, .L24+4
 159              		.loc 1 158 0
 160 0004 4FF08050 		mov	r0, #268435456
 161              		.loc 1 162 0
 162 0008 4FF44042 		mov	r2, #49152
 163              		.loc 1 158 0
 164 000c 0864     		str	r0, [r1, #64]
 165              		.loc 1 162 0
 166 000e 1A60     		str	r2, [r3]
 167              		.loc 1 169 0
 168 0010 0B68     		ldr	r3, [r1]
 169 0012 43F00103 		orr	r3, r3, #1
 170 0016 0B60     		str	r3, [r1]
 171              	.L11:
ARM GAS  /tmp/ccUBwQTI.s 			page 4


 172              		.loc 1 170 0 discriminator 1
 173 0018 0B68     		ldr	r3, [r1]
 174 001a 254A     		ldr	r2, .L24
 175 001c 9807     		lsls	r0, r3, #30
 176 001e FBD5     		bpl	.L11
 177              		.loc 1 172 0
 178 0020 1168     		ldr	r1, [r2]
 179              		.loc 1 173 0
 180 0022 0023     		movs	r3, #0
 181              		.loc 1 172 0
 182 0024 01F0F901 		and	r1, r1, #249
 183 0028 1160     		str	r1, [r2]
 184              		.loc 1 174 0
 185 002a 1146     		mov	r1, r2
 186              		.loc 1 173 0
 187 002c 9360     		str	r3, [r2, #8]
 188              	.L13:
 189              		.loc 1 174 0 discriminator 1
 190 002e 8B68     		ldr	r3, [r1, #8]
 191 0030 1F4A     		ldr	r2, .L24
 192 0032 13F00C0F 		tst	r3, #12
 193 0036 FAD1     		bne	.L13
 194              		.loc 1 184 0
 195 0038 1368     		ldr	r3, [r2]
 196 003a 43F48033 		orr	r3, r3, #65536
 197 003e 1360     		str	r3, [r2]
 198              		.loc 1 186 0
 199 0040 1146     		mov	r1, r2
 200              	.L15:
 201              		.loc 1 186 0 is_stmt 0 discriminator 1
 202 0042 0B68     		ldr	r3, [r1]
 203 0044 1A4A     		ldr	r2, .L24
 204 0046 9B03     		lsls	r3, r3, #14
 205 0048 FBD5     		bpl	.L15
 206              		.loc 1 192 0 is_stmt 1
 207 004a 536F     		ldr	r3, [r2, #116]
 208 004c 43F00103 		orr	r3, r3, #1
 209 0050 5367     		str	r3, [r2, #116]
 210              		.loc 1 193 0
 211 0052 1146     		mov	r1, r2
 212              	.L17:
 213              		.loc 1 193 0 is_stmt 0 discriminator 1
 214 0054 4B6F     		ldr	r3, [r1, #116]
 215 0056 164A     		ldr	r2, .L24
 216 0058 9807     		lsls	r0, r3, #30
 217 005a FBD5     		bpl	.L17
 218              		.loc 1 199 0 is_stmt 1
 219 005c 164B     		ldr	r3, .L24+8
 220 005e 5360     		str	r3, [r2, #4]
 221              		.loc 1 201 0
 222 0060 1368     		ldr	r3, [r2]
 223              		.loc 1 205 0
 224 0062 1449     		ldr	r1, .L24+4
 225              		.loc 1 201 0
 226 0064 43F08073 		orr	r3, r3, #16777216
 227 0068 1360     		str	r3, [r2]
 228              	.L19:
ARM GAS  /tmp/ccUBwQTI.s 			page 5


 229              		.loc 1 205 0 discriminator 1
 230 006a 4B68     		ldr	r3, [r1, #4]
 231 006c 5A04     		lsls	r2, r3, #17
 232 006e FCD5     		bpl	.L19
 233              		.loc 1 221 0
 234 0070 0F49     		ldr	r1, .L24
 235              	.L21:
 236 0072 0B68     		ldr	r3, [r1]
 237 0074 0E4A     		ldr	r2, .L24
 238 0076 9B01     		lsls	r3, r3, #6
 239 0078 FBD5     		bpl	.L21
 240              		.loc 1 249 0
 241 007a 104B     		ldr	r3, .L24+12
 242              		.loc 1 236 0
 243 007c 1049     		ldr	r1, .L24+16
 244 007e 9160     		str	r1, [r2, #8]
 245              		.loc 1 249 0
 246 0080 40F20571 		movw	r1, #1797
 247 0084 1960     		str	r1, [r3]
 248              		.loc 1 255 0
 249 0086 9368     		ldr	r3, [r2, #8]
 250 0088 43F00203 		orr	r3, r3, #2
 251 008c 9360     		str	r3, [r2, #8]
 252              		.loc 1 256 0
 253 008e 1146     		mov	r1, r2
 254              	.L23:
 255              		.loc 1 256 0 is_stmt 0 discriminator 1
 256 0090 8B68     		ldr	r3, [r1, #8]
 257 0092 074A     		ldr	r2, .L24
 258 0094 03F00C03 		and	r3, r3, #12
 259 0098 082B     		cmp	r3, #8
 260 009a F9D1     		bne	.L23
 261              		.loc 1 263 0 is_stmt 1
 262 009c 536C     		ldr	r3, [r2, #68]
 263 009e 43F48043 		orr	r3, r3, #16384
 264 00a2 5364     		str	r3, [r2, #68]
 265 00a4 536E     		ldr	r3, [r2, #100]
 266 00a6 43F48043 		orr	r3, r3, #16384
 267 00aa 5366     		str	r3, [r2, #100]
 268 00ac 7047     		bx	lr
 269              	.L25:
 270 00ae 00BF     		.align	2
 271              	.L24:
 272 00b0 00380240 		.word	1073887232
 273 00b4 00700040 		.word	1073770496
 274 00b8 08544007 		.word	121656328
 275 00bc 003C0240 		.word	1073888256
 276 00c0 00940838 		.word	940086272
 277              		.cfi_endproc
 278              	.LFE120:
 279              		.size	stm32_clock_init, .-stm32_clock_init
 280 00c4 AFF30080 		.text
 280      AFF30080 
 280      AFF30080 
 281              	.Letext0:
 282              		.file 2 "/usr/arm-none-eabi/include/stdint.h"
 283              		.file 3 "../AithonLibrary/ChibiOS/os/ports/common/ARMCMx/nvic.h"
ARM GAS  /tmp/ccUBwQTI.s 			page 6


 284              		.file 4 "../AithonLibrary/ChibiOS/os/ports/common/ARMCMx/CMSIS/include/core_cm4.h"
 285              		.file 5 "../AithonLibrary/ChibiOS/os/hal/platforms/STM32F4xx/stm32f4xx.h"
 286              		.file 6 "../AithonLibrary/ChibiOS/os/hal/platforms/STM32F4xx/stm32_dma.h"
 287              		.section	.debug_info,"",%progbits
 288              	.Ldebug_info0:
 289 0000 77040000 		.4byte	0x477
 290 0004 0400     		.2byte	0x4
 291 0006 00000000 		.4byte	.Ldebug_abbrev0
 292 000a 04       		.byte	0x4
 293 000b 01       		.uleb128 0x1
 294 000c 09020000 		.4byte	.LASF68
 295 0010 01       		.byte	0x1
 296 0011 F7030000 		.4byte	.LASF69
 297 0015 1D010000 		.4byte	.LASF70
 298 0019 18000000 		.4byte	.Ldebug_ranges0+0x18
 299 001d 00000000 		.4byte	0
 300 0021 00000000 		.4byte	.Ldebug_line0
 301 0025 02       		.uleb128 0x2
 302 0026 04       		.byte	0x4
 303 0027 05       		.byte	0x5
 304 0028 696E7400 		.ascii	"int\000"
 305 002c 03       		.uleb128 0x3
 306 002d 04       		.byte	0x4
 307 002e 07       		.byte	0x7
 308 002f 9D010000 		.4byte	.LASF0
 309 0033 03       		.uleb128 0x3
 310 0034 01       		.byte	0x1
 311 0035 06       		.byte	0x6
 312 0036 71010000 		.4byte	.LASF1
 313 003a 03       		.uleb128 0x3
 314 003b 01       		.byte	0x1
 315 003c 08       		.byte	0x8
 316 003d 5B010000 		.4byte	.LASF2
 317 0041 03       		.uleb128 0x3
 318 0042 02       		.byte	0x2
 319 0043 05       		.byte	0x5
 320 0044 21000000 		.4byte	.LASF3
 321 0048 03       		.uleb128 0x3
 322 0049 02       		.byte	0x2
 323 004a 07       		.byte	0x7
 324 004b E7010000 		.4byte	.LASF4
 325 004f 04       		.uleb128 0x4
 326 0050 2C030000 		.4byte	.LASF6
 327 0054 02       		.byte	0x2
 328 0055 4F       		.byte	0x4f
 329 0056 5A000000 		.4byte	0x5a
 330 005a 03       		.uleb128 0x3
 331 005b 04       		.byte	0x4
 332 005c 05       		.byte	0x5
 333 005d EE000000 		.4byte	.LASF5
 334 0061 04       		.uleb128 0x4
 335 0062 94010000 		.4byte	.LASF7
 336 0066 02       		.byte	0x2
 337 0067 50       		.byte	0x50
 338 0068 6C000000 		.4byte	0x6c
 339 006c 03       		.uleb128 0x3
 340 006d 04       		.byte	0x4
ARM GAS  /tmp/ccUBwQTI.s 			page 7


 341 006e 07       		.byte	0x7
 342 006f B3010000 		.4byte	.LASF8
 343 0073 03       		.uleb128 0x3
 344 0074 08       		.byte	0x8
 345 0075 05       		.byte	0x5
 346 0076 CD000000 		.4byte	.LASF9
 347 007a 03       		.uleb128 0x3
 348 007b 08       		.byte	0x8
 349 007c 07       		.byte	0x7
 350 007d 7D010000 		.4byte	.LASF10
 351 0081 03       		.uleb128 0x3
 352 0082 01       		.byte	0x1
 353 0083 02       		.byte	0x2
 354 0084 34030000 		.4byte	.LASF11
 355 0088 04       		.uleb128 0x4
 356 0089 BD000000 		.4byte	.LASF12
 357 008d 03       		.byte	0x3
 358 008e 3A       		.byte	0x3a
 359 008f 93000000 		.4byte	0x93
 360 0093 05       		.uleb128 0x5
 361 0094 61000000 		.4byte	0x61
 362 0098 03       		.uleb128 0x3
 363 0099 04       		.byte	0x4
 364 009a 07       		.byte	0x7
 365 009b 2B000000 		.4byte	.LASF13
 366 009f 06       		.uleb128 0x6
 367 00a0 10       		.byte	0x10
 368 00a1 03       		.byte	0x3
 369 00a2 F1       		.byte	0xf1
 370 00a3 D8000000 		.4byte	0xd8
 371 00a7 07       		.uleb128 0x7
 372 00a8 E8000000 		.4byte	.LASF14
 373 00ac 03       		.byte	0x3
 374 00ad F2       		.byte	0xf2
 375 00ae 88000000 		.4byte	0x88
 376 00b2 00       		.byte	0
 377 00b3 07       		.uleb128 0x7
 378 00b4 8E000000 		.4byte	.LASF15
 379 00b8 03       		.byte	0x3
 380 00b9 F3       		.byte	0xf3
 381 00ba 88000000 		.4byte	0x88
 382 00be 04       		.byte	0x4
 383 00bf 07       		.uleb128 0x7
 384 00c0 AF000000 		.4byte	.LASF16
 385 00c4 03       		.byte	0x3
 386 00c5 F4       		.byte	0xf4
 387 00c6 88000000 		.4byte	0x88
 388 00ca 08       		.byte	0x8
 389 00cb 07       		.uleb128 0x7
 390 00cc 1B000000 		.4byte	.LASF17
 391 00d0 03       		.byte	0x3
 392 00d1 F5       		.byte	0xf5
 393 00d2 88000000 		.4byte	0x88
 394 00d6 0C       		.byte	0xc
 395 00d7 00       		.byte	0
 396 00d8 04       		.uleb128 0x4
 397 00d9 24030000 		.4byte	.LASF18
ARM GAS  /tmp/ccUBwQTI.s 			page 8


 398 00dd 03       		.byte	0x3
 399 00de F6       		.byte	0xf6
 400 00df 9F000000 		.4byte	0x9f
 401 00e3 08       		.uleb128 0x8
 402 00e4 20       		.byte	0x20
 403 00e5 03       		.byte	0x3
 404 00e6 0601     		.2byte	0x106
 405 00e8 55010000 		.4byte	0x155
 406 00ec 09       		.uleb128 0x9
 407 00ed 6B000000 		.4byte	.LASF19
 408 00f1 03       		.byte	0x3
 409 00f2 0701     		.2byte	0x107
 410 00f4 88000000 		.4byte	0x88
 411 00f8 00       		.byte	0
 412 00f9 09       		.uleb128 0x9
 413 00fa DB000000 		.4byte	.LASF20
 414 00fe 03       		.byte	0x3
 415 00ff 0801     		.2byte	0x108
 416 0101 88000000 		.4byte	0x88
 417 0105 04       		.byte	0x4
 418 0106 09       		.uleb128 0x9
 419 0107 7F000000 		.4byte	.LASF21
 420 010b 03       		.byte	0x3
 421 010c 0901     		.2byte	0x109
 422 010e 88000000 		.4byte	0x88
 423 0112 08       		.byte	0x8
 424 0113 09       		.uleb128 0x9
 425 0114 54010000 		.4byte	.LASF22
 426 0118 03       		.byte	0x3
 427 0119 0A01     		.2byte	0x10a
 428 011b 88000000 		.4byte	0x88
 429 011f 0C       		.byte	0xc
 430 0120 09       		.uleb128 0x9
 431 0121 92030000 		.4byte	.LASF23
 432 0125 03       		.byte	0x3
 433 0126 0B01     		.2byte	0x10b
 434 0128 88000000 		.4byte	0x88
 435 012c 10       		.byte	0x10
 436 012d 09       		.uleb128 0x9
 437 012e 9B030000 		.4byte	.LASF24
 438 0132 03       		.byte	0x3
 439 0133 0C01     		.2byte	0x10c
 440 0135 88000000 		.4byte	0x88
 441 0139 14       		.byte	0x14
 442 013a 09       		.uleb128 0x9
 443 013b 3E000000 		.4byte	.LASF25
 444 013f 03       		.byte	0x3
 445 0140 0D01     		.2byte	0x10d
 446 0142 88000000 		.4byte	0x88
 447 0146 18       		.byte	0x18
 448 0147 09       		.uleb128 0x9
 449 0148 39000000 		.4byte	.LASF26
 450 014c 03       		.byte	0x3
 451 014d 0E01     		.2byte	0x10e
 452 014f 88000000 		.4byte	0x88
 453 0153 1C       		.byte	0x1c
 454 0154 00       		.byte	0
ARM GAS  /tmp/ccUBwQTI.s 			page 9


 455 0155 0A       		.uleb128 0xa
 456 0156 5D000000 		.4byte	.LASF27
 457 015a 03       		.byte	0x3
 458 015b 0F01     		.2byte	0x10f
 459 015d E3000000 		.4byte	0xe3
 460 0161 03       		.uleb128 0x3
 461 0162 01       		.byte	0x1
 462 0163 08       		.byte	0x8
 463 0164 04020000 		.4byte	.LASF28
 464 0168 0B       		.uleb128 0xb
 465 0169 93000000 		.4byte	0x93
 466 016d 0C       		.uleb128 0xc
 467 016e 61000000 		.4byte	0x61
 468 0172 7D010000 		.4byte	0x17d
 469 0176 0D       		.uleb128 0xd
 470 0177 98000000 		.4byte	0x98
 471 017b 01       		.byte	0x1
 472 017c 00       		.byte	0
 473 017d 08       		.uleb128 0x8
 474 017e 10       		.byte	0x10
 475 017f 04       		.byte	0x4
 476 0180 6002     		.2byte	0x260
 477 0182 BB010000 		.4byte	0x1bb
 478 0186 09       		.uleb128 0x9
 479 0187 6B000000 		.4byte	.LASF19
 480 018b 04       		.byte	0x4
 481 018c 6202     		.2byte	0x262
 482 018e 93000000 		.4byte	0x93
 483 0192 00       		.byte	0
 484 0193 09       		.uleb128 0x9
 485 0194 A2030000 		.4byte	.LASF29
 486 0198 04       		.byte	0x4
 487 0199 6302     		.2byte	0x263
 488 019b 93000000 		.4byte	0x93
 489 019f 04       		.byte	0x4
 490 01a0 0E       		.uleb128 0xe
 491 01a1 56414C00 		.ascii	"VAL\000"
 492 01a5 04       		.byte	0x4
 493 01a6 6402     		.2byte	0x264
 494 01a8 93000000 		.4byte	0x93
 495 01ac 08       		.byte	0x8
 496 01ad 09       		.uleb128 0x9
 497 01ae E2000000 		.4byte	.LASF30
 498 01b2 04       		.byte	0x4
 499 01b3 6502     		.2byte	0x265
 500 01b5 68010000 		.4byte	0x168
 501 01b9 0C       		.byte	0xc
 502 01ba 00       		.byte	0
 503 01bb 0A       		.uleb128 0xa
 504 01bc DA010000 		.4byte	.LASF31
 505 01c0 04       		.byte	0x4
 506 01c1 6602     		.2byte	0x266
 507 01c3 7D010000 		.4byte	0x17d
 508 01c7 05       		.uleb128 0x5
 509 01c8 4F000000 		.4byte	0x4f
 510 01cc 08       		.uleb128 0x8
 511 01cd 1C       		.byte	0x1c
ARM GAS  /tmp/ccUBwQTI.s 			page 10


 512 01ce 05       		.byte	0x5
 513 01cf 3E03     		.2byte	0x33e
 514 01d1 2F020000 		.4byte	0x22f
 515 01d5 0E       		.uleb128 0xe
 516 01d6 41435200 		.ascii	"ACR\000"
 517 01da 05       		.byte	0x5
 518 01db 4003     		.2byte	0x340
 519 01dd 93000000 		.4byte	0x93
 520 01e1 00       		.byte	0
 521 01e2 09       		.uleb128 0x9
 522 01e3 4F010000 		.4byte	.LASF32
 523 01e7 05       		.byte	0x5
 524 01e8 4103     		.2byte	0x341
 525 01ea 93000000 		.4byte	0x93
 526 01ee 04       		.byte	0x4
 527 01ef 09       		.uleb128 0x9
 528 01f0 C5000000 		.4byte	.LASF33
 529 01f4 05       		.byte	0x5
 530 01f5 4203     		.2byte	0x342
 531 01f7 93000000 		.4byte	0x93
 532 01fb 08       		.byte	0x8
 533 01fc 0E       		.uleb128 0xe
 534 01fd 535200   		.ascii	"SR\000"
 535 0200 05       		.byte	0x5
 536 0201 4303     		.2byte	0x343
 537 0203 93000000 		.4byte	0x93
 538 0207 0C       		.byte	0xc
 539 0208 0E       		.uleb128 0xe
 540 0209 435200   		.ascii	"CR\000"
 541 020c 05       		.byte	0x5
 542 020d 4403     		.2byte	0x344
 543 020f 93000000 		.4byte	0x93
 544 0213 10       		.byte	0x10
 545 0214 09       		.uleb128 0x9
 546 0215 F1030000 		.4byte	.LASF34
 547 0219 05       		.byte	0x5
 548 021a 4503     		.2byte	0x345
 549 021c 93000000 		.4byte	0x93
 550 0220 14       		.byte	0x14
 551 0221 09       		.uleb128 0x9
 552 0222 40010000 		.4byte	.LASF35
 553 0226 05       		.byte	0x5
 554 0227 4603     		.2byte	0x346
 555 0229 93000000 		.4byte	0x93
 556 022d 18       		.byte	0x18
 557 022e 00       		.byte	0
 558 022f 0A       		.uleb128 0xa
 559 0230 C1030000 		.4byte	.LASF36
 560 0234 05       		.byte	0x5
 561 0235 4703     		.2byte	0x347
 562 0237 CC010000 		.4byte	0x1cc
 563 023b 08       		.uleb128 0x8
 564 023c 08       		.byte	0x8
 565 023d 05       		.byte	0x5
 566 023e 4E04     		.2byte	0x44e
 567 0240 5E020000 		.4byte	0x25e
 568 0244 0E       		.uleb128 0xe
ARM GAS  /tmp/ccUBwQTI.s 			page 11


 569 0245 435200   		.ascii	"CR\000"
 570 0248 05       		.byte	0x5
 571 0249 5004     		.2byte	0x450
 572 024b 93000000 		.4byte	0x93
 573 024f 00       		.byte	0
 574 0250 0E       		.uleb128 0xe
 575 0251 43535200 		.ascii	"CSR\000"
 576 0255 05       		.byte	0x5
 577 0256 5104     		.2byte	0x451
 578 0258 93000000 		.4byte	0x93
 579 025c 04       		.byte	0x4
 580 025d 00       		.byte	0
 581 025e 0A       		.uleb128 0xa
 582 025f 51000000 		.4byte	.LASF37
 583 0263 05       		.byte	0x5
 584 0264 5204     		.2byte	0x452
 585 0266 3B020000 		.4byte	0x23b
 586 026a 08       		.uleb128 0x8
 587 026b 90       		.byte	0x90
 588 026c 05       		.byte	0x5
 589 026d 5804     		.2byte	0x458
 590 026f 13040000 		.4byte	0x413
 591 0273 0E       		.uleb128 0xe
 592 0274 435200   		.ascii	"CR\000"
 593 0277 05       		.byte	0x5
 594 0278 5A04     		.2byte	0x45a
 595 027a 93000000 		.4byte	0x93
 596 027e 00       		.byte	0
 597 027f 09       		.uleb128 0x9
 598 0280 D2010000 		.4byte	.LASF38
 599 0284 05       		.byte	0x5
 600 0285 5B04     		.2byte	0x45b
 601 0287 93000000 		.4byte	0x93
 602 028b 04       		.byte	0x4
 603 028c 09       		.uleb128 0x9
 604 028d 7A000000 		.4byte	.LASF39
 605 0291 05       		.byte	0x5
 606 0292 5C04     		.2byte	0x45c
 607 0294 93000000 		.4byte	0x93
 608 0298 08       		.byte	0x8
 609 0299 0E       		.uleb128 0xe
 610 029a 43495200 		.ascii	"CIR\000"
 611 029e 05       		.byte	0x5
 612 029f 5D04     		.2byte	0x45d
 613 02a1 93000000 		.4byte	0x93
 614 02a5 0C       		.byte	0xc
 615 02a6 09       		.uleb128 0x9
 616 02a7 A7030000 		.4byte	.LASF40
 617 02ab 05       		.byte	0x5
 618 02ac 5E04     		.2byte	0x45e
 619 02ae 93000000 		.4byte	0x93
 620 02b2 10       		.byte	0x10
 621 02b3 09       		.uleb128 0x9
 622 02b4 AA010000 		.4byte	.LASF41
 623 02b8 05       		.byte	0x5
 624 02b9 5F04     		.2byte	0x45f
 625 02bb 93000000 		.4byte	0x93
ARM GAS  /tmp/ccUBwQTI.s 			page 12


 626 02bf 14       		.byte	0x14
 627 02c0 09       		.uleb128 0x9
 628 02c1 B8030000 		.4byte	.LASF42
 629 02c5 05       		.byte	0x5
 630 02c6 6004     		.2byte	0x460
 631 02c8 93000000 		.4byte	0x93
 632 02cc 18       		.byte	0x18
 633 02cd 09       		.uleb128 0x9
 634 02ce 4C030000 		.4byte	.LASF43
 635 02d2 05       		.byte	0x5
 636 02d3 6104     		.2byte	0x461
 637 02d5 61000000 		.4byte	0x61
 638 02d9 1C       		.byte	0x1c
 639 02da 09       		.uleb128 0x9
 640 02db 0A000000 		.4byte	.LASF44
 641 02df 05       		.byte	0x5
 642 02e0 6204     		.2byte	0x462
 643 02e2 93000000 		.4byte	0x93
 644 02e6 20       		.byte	0x20
 645 02e7 09       		.uleb128 0x9
 646 02e8 03010000 		.4byte	.LASF45
 647 02ec 05       		.byte	0x5
 648 02ed 6304     		.2byte	0x463
 649 02ef 93000000 		.4byte	0x93
 650 02f3 24       		.byte	0x24
 651 02f4 09       		.uleb128 0x9
 652 02f5 56030000 		.4byte	.LASF46
 653 02f9 05       		.byte	0x5
 654 02fa 6404     		.2byte	0x464
 655 02fc 6D010000 		.4byte	0x16d
 656 0300 28       		.byte	0x28
 657 0301 09       		.uleb128 0x9
 658 0302 B0030000 		.4byte	.LASF47
 659 0306 05       		.byte	0x5
 660 0307 6504     		.2byte	0x465
 661 0309 93000000 		.4byte	0x93
 662 030d 30       		.byte	0x30
 663 030e 09       		.uleb128 0x9
 664 030f 13000000 		.4byte	.LASF48
 665 0313 05       		.byte	0x5
 666 0314 6604     		.2byte	0x466
 667 0316 93000000 		.4byte	0x93
 668 031a 34       		.byte	0x34
 669 031b 09       		.uleb128 0x9
 670 031c 47010000 		.4byte	.LASF49
 671 0320 05       		.byte	0x5
 672 0321 6704     		.2byte	0x467
 673 0323 93000000 		.4byte	0x93
 674 0327 38       		.byte	0x38
 675 0328 09       		.uleb128 0x9
 676 0329 60030000 		.4byte	.LASF50
 677 032d 05       		.byte	0x5
 678 032e 6804     		.2byte	0x468
 679 0330 61000000 		.4byte	0x61
 680 0334 3C       		.byte	0x3c
 681 0335 09       		.uleb128 0x9
 682 0336 86000000 		.4byte	.LASF51
ARM GAS  /tmp/ccUBwQTI.s 			page 13


 683 033a 05       		.byte	0x5
 684 033b 6904     		.2byte	0x469
 685 033d 93000000 		.4byte	0x93
 686 0341 40       		.byte	0x40
 687 0342 09       		.uleb128 0x9
 688 0343 69010000 		.4byte	.LASF52
 689 0347 05       		.byte	0x5
 690 0348 6A04     		.2byte	0x46a
 691 034a 93000000 		.4byte	0x93
 692 034e 44       		.byte	0x44
 693 034f 09       		.uleb128 0x9
 694 0350 6A030000 		.4byte	.LASF53
 695 0354 05       		.byte	0x5
 696 0355 6B04     		.2byte	0x46b
 697 0357 6D010000 		.4byte	0x16d
 698 035b 48       		.byte	0x48
 699 035c 09       		.uleb128 0x9
 700 035d 00000000 		.4byte	.LASF54
 701 0361 05       		.byte	0x5
 702 0362 6C04     		.2byte	0x46c
 703 0364 93000000 		.4byte	0x93
 704 0368 50       		.byte	0x50
 705 0369 09       		.uleb128 0x9
 706 036a 3A030000 		.4byte	.LASF55
 707 036e 05       		.byte	0x5
 708 036f 6D04     		.2byte	0x46d
 709 0371 93000000 		.4byte	0x93
 710 0375 54       		.byte	0x54
 711 0376 09       		.uleb128 0x9
 712 0377 70000000 		.4byte	.LASF56
 713 037b 05       		.byte	0x5
 714 037c 6E04     		.2byte	0x46e
 715 037e 93000000 		.4byte	0x93
 716 0382 58       		.byte	0x58
 717 0383 09       		.uleb128 0x9
 718 0384 74030000 		.4byte	.LASF57
 719 0388 05       		.byte	0x5
 720 0389 6F04     		.2byte	0x46f
 721 038b 61000000 		.4byte	0x61
 722 038f 5C       		.byte	0x5c
 723 0390 09       		.uleb128 0x9
 724 0391 FA010000 		.4byte	.LASF58
 725 0395 05       		.byte	0x5
 726 0396 7004     		.2byte	0x470
 727 0398 93000000 		.4byte	0x93
 728 039c 60       		.byte	0x60
 729 039d 09       		.uleb128 0x9
 730 039e E7030000 		.4byte	.LASF59
 731 03a2 05       		.byte	0x5
 732 03a3 7104     		.2byte	0x471
 733 03a5 93000000 		.4byte	0x93
 734 03a9 64       		.byte	0x64
 735 03aa 09       		.uleb128 0x9
 736 03ab 7E030000 		.4byte	.LASF60
 737 03af 05       		.byte	0x5
 738 03b0 7204     		.2byte	0x472
 739 03b2 6D010000 		.4byte	0x16d
ARM GAS  /tmp/ccUBwQTI.s 			page 14


 740 03b6 68       		.byte	0x68
 741 03b7 09       		.uleb128 0x9
 742 03b8 34000000 		.4byte	.LASF61
 743 03bc 05       		.byte	0x5
 744 03bd 7304     		.2byte	0x473
 745 03bf 93000000 		.4byte	0x93
 746 03c3 70       		.byte	0x70
 747 03c4 0E       		.uleb128 0xe
 748 03c5 43535200 		.ascii	"CSR\000"
 749 03c9 05       		.byte	0x5
 750 03ca 7404     		.2byte	0x474
 751 03cc 93000000 		.4byte	0x93
 752 03d0 74       		.byte	0x74
 753 03d1 09       		.uleb128 0x9
 754 03d2 88030000 		.4byte	.LASF62
 755 03d6 05       		.byte	0x5
 756 03d7 7504     		.2byte	0x475
 757 03d9 6D010000 		.4byte	0x16d
 758 03dd 78       		.byte	0x78
 759 03de 09       		.uleb128 0x9
 760 03df 65000000 		.4byte	.LASF63
 761 03e3 05       		.byte	0x5
 762 03e4 7604     		.2byte	0x476
 763 03e6 93000000 		.4byte	0x93
 764 03ea 80       		.byte	0x80
 765 03eb 09       		.uleb128 0x9
 766 03ec 46000000 		.4byte	.LASF64
 767 03f0 05       		.byte	0x5
 768 03f1 7704     		.2byte	0x477
 769 03f3 93000000 		.4byte	0x93
 770 03f7 84       		.byte	0x84
 771 03f8 09       		.uleb128 0x9
 772 03f9 DC030000 		.4byte	.LASF65
 773 03fd 05       		.byte	0x5
 774 03fe 7804     		.2byte	0x478
 775 0400 93000000 		.4byte	0x93
 776 0404 88       		.byte	0x88
 777 0405 09       		.uleb128 0x9
 778 0406 B5000000 		.4byte	.LASF66
 779 040a 05       		.byte	0x5
 780 040b 7904     		.2byte	0x479
 781 040d 93000000 		.4byte	0x93
 782 0411 8C       		.byte	0x8c
 783 0412 00       		.byte	0
 784 0413 0A       		.uleb128 0xa
 785 0414 F7000000 		.4byte	.LASF67
 786 0418 05       		.byte	0x5
 787 0419 7B04     		.2byte	0x47b
 788 041b 6A020000 		.4byte	0x26a
 789 041f 0F       		.uleb128 0xf
 790 0420 94000000 		.4byte	.LASF71
 791 0424 01       		.byte	0x1
 792 0425 33       		.byte	0x33
 793 0426 01       		.byte	0x1
 794 0427 10       		.uleb128 0x10
 795 0428 C5010000 		.4byte	.LASF72
 796 042c 01       		.byte	0x1
ARM GAS  /tmp/ccUBwQTI.s 			page 15


 797 042d 6F       		.byte	0x6f
 798 042e 00000000 		.4byte	.LFB119
 799 0432 A0000000 		.4byte	.LFE119-.LFB119
 800 0436 01       		.uleb128 0x1
 801 0437 9C       		.byte	0x9c
 802 0438 55040000 		.4byte	0x455
 803 043c 11       		.uleb128 0x11
 804 043d 1F040000 		.4byte	0x41f
 805 0441 24000000 		.4byte	.LBB4
 806 0445 00000000 		.4byte	.Ldebug_ranges0+0
 807 0449 01       		.byte	0x1
 808 044a 87       		.byte	0x87
 809 044b 12       		.uleb128 0x12
 810 044c 86000000 		.4byte	.LVL0
 811 0450 72040000 		.4byte	0x472
 812 0454 00       		.byte	0
 813 0455 13       		.uleb128 0x13
 814 0456 0C010000 		.4byte	.LASF73
 815 045a 01       		.byte	0x1
 816 045b 9A       		.byte	0x9a
 817 045c 00000000 		.4byte	.LFB120
 818 0460 C4000000 		.4byte	.LFE120-.LFB120
 819 0464 01       		.uleb128 0x1
 820 0465 9C       		.byte	0x9c
 821 0466 14       		.uleb128 0x14
 822 0467 CF030000 		.4byte	.LASF74
 823 046b 04       		.byte	0x4
 824 046c 9806     		.2byte	0x698
 825 046e C7010000 		.4byte	0x1c7
 826 0472 15       		.uleb128 0x15
 827 0473 44030000 		.4byte	.LASF75
 828 0477 06       		.byte	0x6
 829 0478 C101     		.2byte	0x1c1
 830 047a 00       		.byte	0
 831              		.section	.debug_abbrev,"",%progbits
 832              	.Ldebug_abbrev0:
 833 0000 01       		.uleb128 0x1
 834 0001 11       		.uleb128 0x11
 835 0002 01       		.byte	0x1
 836 0003 25       		.uleb128 0x25
 837 0004 0E       		.uleb128 0xe
 838 0005 13       		.uleb128 0x13
 839 0006 0B       		.uleb128 0xb
 840 0007 03       		.uleb128 0x3
 841 0008 0E       		.uleb128 0xe
 842 0009 1B       		.uleb128 0x1b
 843 000a 0E       		.uleb128 0xe
 844 000b 55       		.uleb128 0x55
 845 000c 17       		.uleb128 0x17
 846 000d 11       		.uleb128 0x11
 847 000e 01       		.uleb128 0x1
 848 000f 10       		.uleb128 0x10
 849 0010 17       		.uleb128 0x17
 850 0011 00       		.byte	0
 851 0012 00       		.byte	0
 852 0013 02       		.uleb128 0x2
 853 0014 24       		.uleb128 0x24
ARM GAS  /tmp/ccUBwQTI.s 			page 16


 854 0015 00       		.byte	0
 855 0016 0B       		.uleb128 0xb
 856 0017 0B       		.uleb128 0xb
 857 0018 3E       		.uleb128 0x3e
 858 0019 0B       		.uleb128 0xb
 859 001a 03       		.uleb128 0x3
 860 001b 08       		.uleb128 0x8
 861 001c 00       		.byte	0
 862 001d 00       		.byte	0
 863 001e 03       		.uleb128 0x3
 864 001f 24       		.uleb128 0x24
 865 0020 00       		.byte	0
 866 0021 0B       		.uleb128 0xb
 867 0022 0B       		.uleb128 0xb
 868 0023 3E       		.uleb128 0x3e
 869 0024 0B       		.uleb128 0xb
 870 0025 03       		.uleb128 0x3
 871 0026 0E       		.uleb128 0xe
 872 0027 00       		.byte	0
 873 0028 00       		.byte	0
 874 0029 04       		.uleb128 0x4
 875 002a 16       		.uleb128 0x16
 876 002b 00       		.byte	0
 877 002c 03       		.uleb128 0x3
 878 002d 0E       		.uleb128 0xe
 879 002e 3A       		.uleb128 0x3a
 880 002f 0B       		.uleb128 0xb
 881 0030 3B       		.uleb128 0x3b
 882 0031 0B       		.uleb128 0xb
 883 0032 49       		.uleb128 0x49
 884 0033 13       		.uleb128 0x13
 885 0034 00       		.byte	0
 886 0035 00       		.byte	0
 887 0036 05       		.uleb128 0x5
 888 0037 35       		.uleb128 0x35
 889 0038 00       		.byte	0
 890 0039 49       		.uleb128 0x49
 891 003a 13       		.uleb128 0x13
 892 003b 00       		.byte	0
 893 003c 00       		.byte	0
 894 003d 06       		.uleb128 0x6
 895 003e 13       		.uleb128 0x13
 896 003f 01       		.byte	0x1
 897 0040 0B       		.uleb128 0xb
 898 0041 0B       		.uleb128 0xb
 899 0042 3A       		.uleb128 0x3a
 900 0043 0B       		.uleb128 0xb
 901 0044 3B       		.uleb128 0x3b
 902 0045 0B       		.uleb128 0xb
 903 0046 01       		.uleb128 0x1
 904 0047 13       		.uleb128 0x13
 905 0048 00       		.byte	0
 906 0049 00       		.byte	0
 907 004a 07       		.uleb128 0x7
 908 004b 0D       		.uleb128 0xd
 909 004c 00       		.byte	0
 910 004d 03       		.uleb128 0x3
ARM GAS  /tmp/ccUBwQTI.s 			page 17


 911 004e 0E       		.uleb128 0xe
 912 004f 3A       		.uleb128 0x3a
 913 0050 0B       		.uleb128 0xb
 914 0051 3B       		.uleb128 0x3b
 915 0052 0B       		.uleb128 0xb
 916 0053 49       		.uleb128 0x49
 917 0054 13       		.uleb128 0x13
 918 0055 38       		.uleb128 0x38
 919 0056 0B       		.uleb128 0xb
 920 0057 00       		.byte	0
 921 0058 00       		.byte	0
 922 0059 08       		.uleb128 0x8
 923 005a 13       		.uleb128 0x13
 924 005b 01       		.byte	0x1
 925 005c 0B       		.uleb128 0xb
 926 005d 0B       		.uleb128 0xb
 927 005e 3A       		.uleb128 0x3a
 928 005f 0B       		.uleb128 0xb
 929 0060 3B       		.uleb128 0x3b
 930 0061 05       		.uleb128 0x5
 931 0062 01       		.uleb128 0x1
 932 0063 13       		.uleb128 0x13
 933 0064 00       		.byte	0
 934 0065 00       		.byte	0
 935 0066 09       		.uleb128 0x9
 936 0067 0D       		.uleb128 0xd
 937 0068 00       		.byte	0
 938 0069 03       		.uleb128 0x3
 939 006a 0E       		.uleb128 0xe
 940 006b 3A       		.uleb128 0x3a
 941 006c 0B       		.uleb128 0xb
 942 006d 3B       		.uleb128 0x3b
 943 006e 05       		.uleb128 0x5
 944 006f 49       		.uleb128 0x49
 945 0070 13       		.uleb128 0x13
 946 0071 38       		.uleb128 0x38
 947 0072 0B       		.uleb128 0xb
 948 0073 00       		.byte	0
 949 0074 00       		.byte	0
 950 0075 0A       		.uleb128 0xa
 951 0076 16       		.uleb128 0x16
 952 0077 00       		.byte	0
 953 0078 03       		.uleb128 0x3
 954 0079 0E       		.uleb128 0xe
 955 007a 3A       		.uleb128 0x3a
 956 007b 0B       		.uleb128 0xb
 957 007c 3B       		.uleb128 0x3b
 958 007d 05       		.uleb128 0x5
 959 007e 49       		.uleb128 0x49
 960 007f 13       		.uleb128 0x13
 961 0080 00       		.byte	0
 962 0081 00       		.byte	0
 963 0082 0B       		.uleb128 0xb
 964 0083 26       		.uleb128 0x26
 965 0084 00       		.byte	0
 966 0085 49       		.uleb128 0x49
 967 0086 13       		.uleb128 0x13
ARM GAS  /tmp/ccUBwQTI.s 			page 18


 968 0087 00       		.byte	0
 969 0088 00       		.byte	0
 970 0089 0C       		.uleb128 0xc
 971 008a 01       		.uleb128 0x1
 972 008b 01       		.byte	0x1
 973 008c 49       		.uleb128 0x49
 974 008d 13       		.uleb128 0x13
 975 008e 01       		.uleb128 0x1
 976 008f 13       		.uleb128 0x13
 977 0090 00       		.byte	0
 978 0091 00       		.byte	0
 979 0092 0D       		.uleb128 0xd
 980 0093 21       		.uleb128 0x21
 981 0094 00       		.byte	0
 982 0095 49       		.uleb128 0x49
 983 0096 13       		.uleb128 0x13
 984 0097 2F       		.uleb128 0x2f
 985 0098 0B       		.uleb128 0xb
 986 0099 00       		.byte	0
 987 009a 00       		.byte	0
 988 009b 0E       		.uleb128 0xe
 989 009c 0D       		.uleb128 0xd
 990 009d 00       		.byte	0
 991 009e 03       		.uleb128 0x3
 992 009f 08       		.uleb128 0x8
 993 00a0 3A       		.uleb128 0x3a
 994 00a1 0B       		.uleb128 0xb
 995 00a2 3B       		.uleb128 0x3b
 996 00a3 05       		.uleb128 0x5
 997 00a4 49       		.uleb128 0x49
 998 00a5 13       		.uleb128 0x13
 999 00a6 38       		.uleb128 0x38
 1000 00a7 0B       		.uleb128 0xb
 1001 00a8 00       		.byte	0
 1002 00a9 00       		.byte	0
 1003 00aa 0F       		.uleb128 0xf
 1004 00ab 2E       		.uleb128 0x2e
 1005 00ac 00       		.byte	0
 1006 00ad 03       		.uleb128 0x3
 1007 00ae 0E       		.uleb128 0xe
 1008 00af 3A       		.uleb128 0x3a
 1009 00b0 0B       		.uleb128 0xb
 1010 00b1 3B       		.uleb128 0x3b
 1011 00b2 0B       		.uleb128 0xb
 1012 00b3 27       		.uleb128 0x27
 1013 00b4 19       		.uleb128 0x19
 1014 00b5 20       		.uleb128 0x20
 1015 00b6 0B       		.uleb128 0xb
 1016 00b7 00       		.byte	0
 1017 00b8 00       		.byte	0
 1018 00b9 10       		.uleb128 0x10
 1019 00ba 2E       		.uleb128 0x2e
 1020 00bb 01       		.byte	0x1
 1021 00bc 3F       		.uleb128 0x3f
 1022 00bd 19       		.uleb128 0x19
 1023 00be 03       		.uleb128 0x3
 1024 00bf 0E       		.uleb128 0xe
ARM GAS  /tmp/ccUBwQTI.s 			page 19


 1025 00c0 3A       		.uleb128 0x3a
 1026 00c1 0B       		.uleb128 0xb
 1027 00c2 3B       		.uleb128 0x3b
 1028 00c3 0B       		.uleb128 0xb
 1029 00c4 27       		.uleb128 0x27
 1030 00c5 19       		.uleb128 0x19
 1031 00c6 11       		.uleb128 0x11
 1032 00c7 01       		.uleb128 0x1
 1033 00c8 12       		.uleb128 0x12
 1034 00c9 06       		.uleb128 0x6
 1035 00ca 40       		.uleb128 0x40
 1036 00cb 18       		.uleb128 0x18
 1037 00cc 9742     		.uleb128 0x2117
 1038 00ce 19       		.uleb128 0x19
 1039 00cf 01       		.uleb128 0x1
 1040 00d0 13       		.uleb128 0x13
 1041 00d1 00       		.byte	0
 1042 00d2 00       		.byte	0
 1043 00d3 11       		.uleb128 0x11
 1044 00d4 1D       		.uleb128 0x1d
 1045 00d5 00       		.byte	0
 1046 00d6 31       		.uleb128 0x31
 1047 00d7 13       		.uleb128 0x13
 1048 00d8 52       		.uleb128 0x52
 1049 00d9 01       		.uleb128 0x1
 1050 00da 55       		.uleb128 0x55
 1051 00db 17       		.uleb128 0x17
 1052 00dc 58       		.uleb128 0x58
 1053 00dd 0B       		.uleb128 0xb
 1054 00de 59       		.uleb128 0x59
 1055 00df 0B       		.uleb128 0xb
 1056 00e0 00       		.byte	0
 1057 00e1 00       		.byte	0
 1058 00e2 12       		.uleb128 0x12
 1059 00e3 898201   		.uleb128 0x4109
 1060 00e6 00       		.byte	0
 1061 00e7 11       		.uleb128 0x11
 1062 00e8 01       		.uleb128 0x1
 1063 00e9 9542     		.uleb128 0x2115
 1064 00eb 19       		.uleb128 0x19
 1065 00ec 31       		.uleb128 0x31
 1066 00ed 13       		.uleb128 0x13
 1067 00ee 00       		.byte	0
 1068 00ef 00       		.byte	0
 1069 00f0 13       		.uleb128 0x13
 1070 00f1 2E       		.uleb128 0x2e
 1071 00f2 00       		.byte	0
 1072 00f3 3F       		.uleb128 0x3f
 1073 00f4 19       		.uleb128 0x19
 1074 00f5 03       		.uleb128 0x3
 1075 00f6 0E       		.uleb128 0xe
 1076 00f7 3A       		.uleb128 0x3a
 1077 00f8 0B       		.uleb128 0xb
 1078 00f9 3B       		.uleb128 0x3b
 1079 00fa 0B       		.uleb128 0xb
 1080 00fb 27       		.uleb128 0x27
 1081 00fc 19       		.uleb128 0x19
ARM GAS  /tmp/ccUBwQTI.s 			page 20


 1082 00fd 11       		.uleb128 0x11
 1083 00fe 01       		.uleb128 0x1
 1084 00ff 12       		.uleb128 0x12
 1085 0100 06       		.uleb128 0x6
 1086 0101 40       		.uleb128 0x40
 1087 0102 18       		.uleb128 0x18
 1088 0103 9742     		.uleb128 0x2117
 1089 0105 19       		.uleb128 0x19
 1090 0106 00       		.byte	0
 1091 0107 00       		.byte	0
 1092 0108 14       		.uleb128 0x14
 1093 0109 34       		.uleb128 0x34
 1094 010a 00       		.byte	0
 1095 010b 03       		.uleb128 0x3
 1096 010c 0E       		.uleb128 0xe
 1097 010d 3A       		.uleb128 0x3a
 1098 010e 0B       		.uleb128 0xb
 1099 010f 3B       		.uleb128 0x3b
 1100 0110 05       		.uleb128 0x5
 1101 0111 49       		.uleb128 0x49
 1102 0112 13       		.uleb128 0x13
 1103 0113 3F       		.uleb128 0x3f
 1104 0114 19       		.uleb128 0x19
 1105 0115 3C       		.uleb128 0x3c
 1106 0116 19       		.uleb128 0x19
 1107 0117 00       		.byte	0
 1108 0118 00       		.byte	0
 1109 0119 15       		.uleb128 0x15
 1110 011a 2E       		.uleb128 0x2e
 1111 011b 00       		.byte	0
 1112 011c 3F       		.uleb128 0x3f
 1113 011d 19       		.uleb128 0x19
 1114 011e 03       		.uleb128 0x3
 1115 011f 0E       		.uleb128 0xe
 1116 0120 3A       		.uleb128 0x3a
 1117 0121 0B       		.uleb128 0xb
 1118 0122 3B       		.uleb128 0x3b
 1119 0123 05       		.uleb128 0x5
 1120 0124 27       		.uleb128 0x27
 1121 0125 19       		.uleb128 0x19
 1122 0126 3C       		.uleb128 0x3c
 1123 0127 19       		.uleb128 0x19
 1124 0128 00       		.byte	0
 1125 0129 00       		.byte	0
 1126 012a 00       		.byte	0
 1127              		.section	.debug_aranges,"",%progbits
 1128 0000 24000000 		.4byte	0x24
 1129 0004 0200     		.2byte	0x2
 1130 0006 00000000 		.4byte	.Ldebug_info0
 1131 000a 04       		.byte	0x4
 1132 000b 00       		.byte	0
 1133 000c 0000     		.2byte	0
 1134 000e 0000     		.2byte	0
 1135 0010 00000000 		.4byte	.LFB119
 1136 0014 A0000000 		.4byte	.LFE119-.LFB119
 1137 0018 00000000 		.4byte	.LFB120
 1138 001c C4000000 		.4byte	.LFE120-.LFB120
ARM GAS  /tmp/ccUBwQTI.s 			page 21


 1139 0020 00000000 		.4byte	0
 1140 0024 00000000 		.4byte	0
 1141              		.section	.debug_ranges,"",%progbits
 1142              	.Ldebug_ranges0:
 1143 0000 24000000 		.4byte	.LBB4
 1144 0004 26000000 		.4byte	.LBE4
 1145 0008 58000000 		.4byte	.LBB7
 1146 000c 7E000000 		.4byte	.LBE7
 1147 0010 00000000 		.4byte	0
 1148 0014 00000000 		.4byte	0
 1149 0018 00000000 		.4byte	.LFB119
 1150 001c A0000000 		.4byte	.LFE119
 1151 0020 00000000 		.4byte	.LFB120
 1152 0024 C4000000 		.4byte	.LFE120
 1153 0028 00000000 		.4byte	0
 1154 002c 00000000 		.4byte	0
 1155              		.section	.debug_line,"",%progbits
 1156              	.Ldebug_line0:
 1157 0000 BE010000 		.section	.debug_str,"MS",%progbits,1
 1157      02001F01 
 1157      00000201 
 1157      FB0E0D00 
 1157      01010101 
 1158              	.LASF54:
 1159 0000 41484231 		.ascii	"AHB1LPENR\000"
 1159      4C50454E 
 1159      5200
 1160              	.LASF44:
 1161 000a 41504231 		.ascii	"APB1RSTR\000"
 1161      52535452 
 1161      00
 1162              	.LASF48:
 1163 0013 41484232 		.ascii	"AHB2ENR\000"
 1163      454E5200 
 1164              	.LASF17:
 1165 001b 44454D43 		.ascii	"DEMCR\000"
 1165      5200
 1166              	.LASF3:
 1167 0021 73686F72 		.ascii	"short int\000"
 1167      7420696E 
 1167      7400
 1168              	.LASF13:
 1169 002b 73697A65 		.ascii	"sizetype\000"
 1169      74797065 
 1169      00
 1170              	.LASF61:
 1171 0034 42444352 		.ascii	"BDCR\000"
 1171      00
 1172              	.LASF26:
 1173 0039 50435352 		.ascii	"PCSR\000"
 1173      00
 1174              	.LASF25:
 1175 003e 464F4C44 		.ascii	"FOLDCNT\000"
 1175      434E5400 
 1176              	.LASF64:
 1177 0046 504C4C49 		.ascii	"PLLI2SCFGR\000"
 1177      32534346 
ARM GAS  /tmp/ccUBwQTI.s 			page 22


 1177      475200
 1178              	.LASF37:
 1179 0051 5057525F 		.ascii	"PWR_TypeDef\000"
 1179      54797065 
 1179      44656600 
 1180              	.LASF27:
 1181 005d 434D785F 		.ascii	"CMx_DWT\000"
 1181      44575400 
 1182              	.LASF63:
 1183 0065 53534347 		.ascii	"SSCGR\000"
 1183      5200
 1184              	.LASF19:
 1185 006b 4354524C 		.ascii	"CTRL\000"
 1185      00
 1186              	.LASF56:
 1187 0070 41484233 		.ascii	"AHB3LPENR\000"
 1187      4C50454E 
 1187      5200
 1188              	.LASF39:
 1189 007a 43464752 		.ascii	"CFGR\000"
 1189      00
 1190              	.LASF21:
 1191 007f 43504943 		.ascii	"CPICNT\000"
 1191      4E5400
 1192              	.LASF51:
 1193 0086 41504231 		.ascii	"APB1ENR\000"
 1193      454E5200 
 1194              	.LASF15:
 1195 008e 44435253 		.ascii	"DCRSR\000"
 1195      5200
 1196              	.LASF71:
 1197 0094 68616C5F 		.ascii	"hal_lld_backup_domain_init\000"
 1197      6C6C645F 
 1197      6261636B 
 1197      75705F64 
 1197      6F6D6169 
 1198              	.LASF16:
 1199 00af 44435244 		.ascii	"DCRDR\000"
 1199      5200
 1200              	.LASF66:
 1201 00b5 44434B43 		.ascii	"DCKCFGR\000"
 1201      46475200 
 1202              	.LASF12:
 1203 00bd 494F5245 		.ascii	"IOREG32\000"
 1203      47333200 
 1204              	.LASF33:
 1205 00c5 4F50544B 		.ascii	"OPTKEYR\000"
 1205      45595200 
 1206              	.LASF9:
 1207 00cd 6C6F6E67 		.ascii	"long long int\000"
 1207      206C6F6E 
 1207      6720696E 
 1207      7400
 1208              	.LASF20:
 1209 00db 43594343 		.ascii	"CYCCNT\000"
 1209      4E5400
 1210              	.LASF30:
ARM GAS  /tmp/ccUBwQTI.s 			page 23


 1211 00e2 43414C49 		.ascii	"CALIB\000"
 1211      4200
 1212              	.LASF14:
 1213 00e8 44484353 		.ascii	"DHCSR\000"
 1213      5200
 1214              	.LASF5:
 1215 00ee 6C6F6E67 		.ascii	"long int\000"
 1215      20696E74 
 1215      00
 1216              	.LASF67:
 1217 00f7 5243435F 		.ascii	"RCC_TypeDef\000"
 1217      54797065 
 1217      44656600 
 1218              	.LASF45:
 1219 0103 41504232 		.ascii	"APB2RSTR\000"
 1219      52535452 
 1219      00
 1220              	.LASF73:
 1221 010c 73746D33 		.ascii	"stm32_clock_init\000"
 1221      325F636C 
 1221      6F636B5F 
 1221      696E6974 
 1221      00
 1222              	.LASF70:
 1223 011d 2F686F6D 		.ascii	"/home/brian/aithon/ProjectTemplate\000"
 1223      652F6272 
 1223      69616E2F 
 1223      61697468 
 1223      6F6E2F50 
 1224              	.LASF35:
 1225 0140 4F505443 		.ascii	"OPTCR1\000"
 1225      523100
 1226              	.LASF49:
 1227 0147 41484233 		.ascii	"AHB3ENR\000"
 1227      454E5200 
 1228              	.LASF32:
 1229 014f 4B455952 		.ascii	"KEYR\000"
 1229      00
 1230              	.LASF22:
 1231 0154 45584343 		.ascii	"EXCCNT\000"
 1231      4E5400
 1232              	.LASF2:
 1233 015b 756E7369 		.ascii	"unsigned char\000"
 1233      676E6564 
 1233      20636861 
 1233      7200
 1234              	.LASF52:
 1235 0169 41504232 		.ascii	"APB2ENR\000"
 1235      454E5200 
 1236              	.LASF1:
 1237 0171 7369676E 		.ascii	"signed char\000"
 1237      65642063 
 1237      68617200 
 1238              	.LASF10:
 1239 017d 6C6F6E67 		.ascii	"long long unsigned int\000"
 1239      206C6F6E 
 1239      6720756E 
ARM GAS  /tmp/ccUBwQTI.s 			page 24


 1239      7369676E 
 1239      65642069 
 1240              	.LASF7:
 1241 0194 75696E74 		.ascii	"uint32_t\000"
 1241      33325F74 
 1241      00
 1242              	.LASF0:
 1243 019d 756E7369 		.ascii	"unsigned int\000"
 1243      676E6564 
 1243      20696E74 
 1243      00
 1244              	.LASF41:
 1245 01aa 41484232 		.ascii	"AHB2RSTR\000"
 1245      52535452 
 1245      00
 1246              	.LASF8:
 1247 01b3 6C6F6E67 		.ascii	"long unsigned int\000"
 1247      20756E73 
 1247      69676E65 
 1247      6420696E 
 1247      7400
 1248              	.LASF72:
 1249 01c5 68616C5F 		.ascii	"hal_lld_init\000"
 1249      6C6C645F 
 1249      696E6974 
 1249      00
 1250              	.LASF38:
 1251 01d2 504C4C43 		.ascii	"PLLCFGR\000"
 1251      46475200 
 1252              	.LASF31:
 1253 01da 53797354 		.ascii	"SysTick_Type\000"
 1253      69636B5F 
 1253      54797065 
 1253      00
 1254              	.LASF4:
 1255 01e7 73686F72 		.ascii	"short unsigned int\000"
 1255      7420756E 
 1255      7369676E 
 1255      65642069 
 1255      6E7400
 1256              	.LASF58:
 1257 01fa 41504231 		.ascii	"APB1LPENR\000"
 1257      4C50454E 
 1257      5200
 1258              	.LASF28:
 1259 0204 63686172 		.ascii	"char\000"
 1259      00
 1260              	.LASF68:
 1261 0209 474E5520 		.ascii	"GNU C 4.8.3 20131129 (release) [ARM/embedded-4_8-br"
 1261      4320342E 
 1261      382E3320 
 1261      32303133 
 1261      31313239 
 1262 023c 616E6368 		.ascii	"anch revision 205641] -mcpu=cortex-m4 -mfloat-abi=s"
 1262      20726576 
 1262      6973696F 
 1262      6E203230 
ARM GAS  /tmp/ccUBwQTI.s 			page 25


 1262      35363431 
 1263 026f 6F667466 		.ascii	"oftfp -mfpu=fpv4-sp-d16 -mno-thumb-interwork -mthum"
 1263      70202D6D 
 1263      6670753D 
 1263      66707634 
 1263      2D73702D 
 1264 02a2 62202D67 		.ascii	"b -ggdb -O2 -fomit-frame-pointer -falign-functions="
 1264      67646220 
 1264      2D4F3220 
 1264      2D666F6D 
 1264      69742D66 
 1265 02d5 3136202D 		.ascii	"16 -fsingle-precision-constant -ffunction-sections "
 1265      6673696E 
 1265      676C652D 
 1265      70726563 
 1265      6973696F 
 1266 0308 2D666461 		.ascii	"-fdata-sections -fno-common\000"
 1266      74612D73 
 1266      65637469 
 1266      6F6E7320 
 1266      2D666E6F 
 1267              	.LASF18:
 1268 0324 434D785F 		.ascii	"CMx_SCS\000"
 1268      53435300 
 1269              	.LASF6:
 1270 032c 696E7433 		.ascii	"int32_t\000"
 1270      325F7400 
 1271              	.LASF11:
 1272 0334 5F426F6F 		.ascii	"_Bool\000"
 1272      6C00
 1273              	.LASF55:
 1274 033a 41484232 		.ascii	"AHB2LPENR\000"
 1274      4C50454E 
 1274      5200
 1275              	.LASF75:
 1276 0344 646D6149 		.ascii	"dmaInit\000"
 1276      6E697400 
 1277              	.LASF43:
 1278 034c 52455345 		.ascii	"RESERVED0\000"
 1278      52564544 
 1278      3000
 1279              	.LASF46:
 1280 0356 52455345 		.ascii	"RESERVED1\000"
 1280      52564544 
 1280      3100
 1281              	.LASF50:
 1282 0360 52455345 		.ascii	"RESERVED2\000"
 1282      52564544 
 1282      3200
 1283              	.LASF53:
 1284 036a 52455345 		.ascii	"RESERVED3\000"
 1284      52564544 
 1284      3300
 1285              	.LASF57:
 1286 0374 52455345 		.ascii	"RESERVED4\000"
 1286      52564544 
 1286      3400
ARM GAS  /tmp/ccUBwQTI.s 			page 26


 1287              	.LASF60:
 1288 037e 52455345 		.ascii	"RESERVED5\000"
 1288      52564544 
 1288      3500
 1289              	.LASF62:
 1290 0388 52455345 		.ascii	"RESERVED6\000"
 1290      52564544 
 1290      3600
 1291              	.LASF23:
 1292 0392 534C4545 		.ascii	"SLEEPCNT\000"
 1292      50434E54 
 1292      00
 1293              	.LASF24:
 1294 039b 4C535543 		.ascii	"LSUCNT\000"
 1294      4E5400
 1295              	.LASF29:
 1296 03a2 4C4F4144 		.ascii	"LOAD\000"
 1296      00
 1297              	.LASF40:
 1298 03a7 41484231 		.ascii	"AHB1RSTR\000"
 1298      52535452 
 1298      00
 1299              	.LASF47:
 1300 03b0 41484231 		.ascii	"AHB1ENR\000"
 1300      454E5200 
 1301              	.LASF42:
 1302 03b8 41484233 		.ascii	"AHB3RSTR\000"
 1302      52535452 
 1302      00
 1303              	.LASF36:
 1304 03c1 464C4153 		.ascii	"FLASH_TypeDef\000"
 1304      485F5479 
 1304      70654465 
 1304      6600
 1305              	.LASF74:
 1306 03cf 49544D5F 		.ascii	"ITM_RxBuffer\000"
 1306      52784275 
 1306      66666572 
 1306      00
 1307              	.LASF65:
 1308 03dc 504C4C53 		.ascii	"PLLSAICFGR\000"
 1308      41494346 
 1308      475200
 1309              	.LASF59:
 1310 03e7 41504232 		.ascii	"APB2LPENR\000"
 1310      4C50454E 
 1310      5200
 1311              	.LASF34:
 1312 03f1 4F505443 		.ascii	"OPTCR\000"
 1312      5200
 1313              	.LASF69:
 1314 03f7 2E2E2F41 		.ascii	"../AithonLibrary/ChibiOS/os/hal/platforms/STM32F4xx"
 1314      6974686F 
 1314      6E4C6962 
 1314      72617279 
 1314      2F436869 
 1315 042a 2F68616C 		.ascii	"/hal_lld.c\000"
ARM GAS  /tmp/ccUBwQTI.s 			page 27


 1315      5F6C6C64 
 1315      2E6300
 1316              		.ident	"GCC: (GNU Tools for ARM Embedded Processors) 4.8.3 20131129 (release) [ARM/embedded-4_8-br
ARM GAS  /tmp/ccUBwQTI.s 			page 28


DEFINED SYMBOLS
                            *ABS*:0000000000000000 hal_lld.c
     /tmp/ccUBwQTI.s:20     .text.hal_lld_init:0000000000000000 $t
     /tmp/ccUBwQTI.s:26     .text.hal_lld_init:0000000000000000 hal_lld_init
     /tmp/ccUBwQTI.s:132    .text.hal_lld_init:0000000000000088 $d
     /tmp/ccUBwQTI.s:142    .text.stm32_clock_init:0000000000000000 $t
     /tmp/ccUBwQTI.s:148    .text.stm32_clock_init:0000000000000000 stm32_clock_init
     /tmp/ccUBwQTI.s:272    .text.stm32_clock_init:00000000000000b0 $d
                     .debug_frame:0000000000000010 $d
     /tmp/ccUBwQTI.s:280    .text.stm32_clock_init:00000000000000c4 $t

UNDEFINED SYMBOLS
dmaInit
