ARM GAS  /tmp/cckHNjns.s 			page 1


   1              		.syntax unified
   2              		.cpu cortex-m4
   3              		.eabi_attribute 27, 3
   4              		.fpu fpv4-sp-d16
   5              		.eabi_attribute 20, 1
   6              		.eabi_attribute 21, 1
   7              		.eabi_attribute 23, 3
   8              		.eabi_attribute 24, 1
   9              		.eabi_attribute 25, 1
  10              		.eabi_attribute 26, 1
  11              		.eabi_attribute 30, 2
  12              		.eabi_attribute 34, 1
  13              		.eabi_attribute 18, 4
  14              		.thumb
  15              		.file	"i2c_lld.c"
  16              		.text
  17              	.Ltext0:
  18              		.cfi_sections	.debug_frame
  19              		.section	.text.i2c_lld_abort_operation,"ax",%progbits
  20              		.align	2
  21              		.p2align 4,,15
  22              		.thumb
  23              		.thumb_func
  24              		.type	i2c_lld_abort_operation, %function
  25              	i2c_lld_abort_operation:
  26              	.LFB118:
  27              		.file 1 "../AithonLibrary/ChibiOS/os/hal/platforms/STM32/I2Cv1/i2c_lld.c"
  28              		.loc 1 142 0
  29              		.cfi_startproc
  30              		@ args = 0, pretend = 0, frame = 0
  31              		@ frame_needed = 0, uses_anonymous_args = 0
  32              		@ link register save eliminated.
  33              	.LVL0:
  34 0000 10B4     		push	{r4}
  35              		.cfi_def_cfa_offset 4
  36              		.cfi_offset 4, -4
  37              		.loc 1 143 0
  38 0002 436B     		ldr	r3, [r0, #52]
  39              	.LVL1:
  40              		.loc 1 152 0
  41 0004 046B     		ldr	r4, [r0, #48]
  42              		.loc 1 146 0
  43 0006 4FF40041 		mov	r1, #32768
  44              		.loc 1 152 0
  45 000a 2268     		ldr	r2, [r4]
  46              		.loc 1 146 0
  47 000c 1980     		strh	r1, [r3]	@ movhi
  48              		.loc 1 147 0
  49 000e 0021     		movs	r1, #0
  50 0010 1980     		strh	r1, [r3]	@ movhi
  51              		.loc 1 148 0
  52 0012 9980     		strh	r1, [r3, #4]	@ movhi
  53              		.loc 1 149 0
  54 0014 9982     		strh	r1, [r3, #20]	@ movhi
  55              		.loc 1 152 0
  56 0016 1368     		ldr	r3, [r2]
  57              	.LVL2:
ARM GAS  /tmp/cckHNjns.s 			page 2


  58 0018 23F01F03 		bic	r3, r3, #31
  59 001c 1360     		str	r3, [r2]
  60              	.L3:
  61              		.loc 1 152 0 is_stmt 0 discriminator 1
  62 001e 1368     		ldr	r3, [r2]
  63 0020 D907     		lsls	r1, r3, #31
  64 0022 FCD4     		bmi	.L3
  65              		.loc 1 153 0 is_stmt 1 discriminator 2
  66 0024 C16A     		ldr	r1, [r0, #44]
  67              		.loc 1 152 0 discriminator 2
  68 0026 207A     		ldrb	r0, [r4, #8]	@ zero_extendqisi2
  69              	.LVL3:
  70 0028 6368     		ldr	r3, [r4, #4]
  71              		.loc 1 153 0 discriminator 2
  72 002a 0A68     		ldr	r2, [r1]
  73              		.loc 1 152 0 discriminator 2
  74 002c 3D24     		movs	r4, #61
  75 002e 04FA00F0 		lsl	r0, r4, r0
  76 0032 1860     		str	r0, [r3]
  77              		.loc 1 153 0 discriminator 2
  78 0034 1368     		ldr	r3, [r2]
  79 0036 23F01F03 		bic	r3, r3, #31
  80 003a 1360     		str	r3, [r2]
  81              	.L5:
  82              		.loc 1 153 0 is_stmt 0 discriminator 1
  83 003c 1368     		ldr	r3, [r2]
  84 003e DB07     		lsls	r3, r3, #31
  85 0040 FCD4     		bmi	.L5
  86              		.loc 1 153 0 discriminator 2
  87 0042 0A7A     		ldrb	r2, [r1, #8]	@ zero_extendqisi2
  88 0044 4B68     		ldr	r3, [r1, #4]
  89              		.loc 1 154 0 is_stmt 1 discriminator 2
  90 0046 5DF8044B 		ldr	r4, [sp], #4
  91              		.loc 1 153 0 discriminator 2
  92 004a 3D21     		movs	r1, #61
  93 004c 01FA02F2 		lsl	r2, r1, r2
  94 0050 1A60     		str	r2, [r3]
  95              		.loc 1 154 0 discriminator 2
  96 0052 7047     		bx	lr
  97              		.cfi_endproc
  98              	.LFE118:
  99              		.size	i2c_lld_abort_operation, .-i2c_lld_abort_operation
 100 0054 AFF30080 		.section	.text.i2c_lld_safety_timeout,"ax",%progbits
 100      AFF30080 
 100      AFF30080 
 101              		.align	2
 102              		.p2align 4,,15
 103              		.thumb
 104              		.thumb_func
 105              		.type	i2c_lld_safety_timeout, %function
 106              	i2c_lld_safety_timeout:
 107              	.LFB119:
 108              		.loc 1 163 0
 109              		.cfi_startproc
 110              		@ args = 0, pretend = 0, frame = 0
 111              		@ frame_needed = 0, uses_anonymous_args = 0
 112              	.LVL4:
ARM GAS  /tmp/cckHNjns.s 			page 3


 113 0000 38B5     		push	{r3, r4, r5, lr}
 114              		.cfi_def_cfa_offset 16
 115              		.cfi_offset 3, -16
 116              		.cfi_offset 4, -12
 117              		.cfi_offset 5, -8
 118              		.cfi_offset 14, -4
 119              		.loc 1 163 0
 120 0002 0446     		mov	r4, r0
 121              	.LVL5:
 122              	.LBB11:
 123              		.loc 1 166 0
 124 0004 2023     		movs	r3, #32
 125              	@ 166 "../AithonLibrary/ChibiOS/os/hal/platforms/STM32/I2Cv1/i2c_lld.c" 1
 126 0006 83F31188 		msr     BASEPRI, r3
 127              	@ 0 "" 2
 128              		.thumb
 129              	.LBE11:
 130              		.loc 1 167 0
 131 000a C569     		ldr	r5, [r0, #28]
 132 000c 4DB1     		cbz	r5, .L8
 133              	.LVL6:
 134              	.LBB12:
 135              		.loc 1 169 0
 136 000e FFF7FEFF 		bl	i2c_lld_abort_operation
 137              	.LVL7:
 138              		.loc 1 170 0
 139 0012 0022     		movs	r2, #0
 140              		.loc 1 171 0
 141 0014 4FF0FF33 		mov	r3, #-1
 142              		.loc 1 170 0
 143 0018 E261     		str	r2, [r4, #28]
 144              		.loc 1 172 0
 145 001a 2846     		mov	r0, r5
 146              		.loc 1 171 0
 147 001c 6B62     		str	r3, [r5, #36]
 148              		.loc 1 172 0
 149 001e FFF7FEFF 		bl	chSchReadyI
 150              	.LVL8:
 151              	.L8:
 152              	.LBE12:
 153              	.LBB13:
 154              		.loc 1 174 0
 155 0022 0023     		movs	r3, #0
 156              	@ 174 "../AithonLibrary/ChibiOS/os/hal/platforms/STM32/I2Cv1/i2c_lld.c" 1
 157 0024 83F31188 		msr     BASEPRI, r3
 158              	@ 0 "" 2
 159              		.thumb
 160 0028 38BD     		pop	{r3, r4, r5, pc}
 161              	.LBE13:
 162              		.cfi_endproc
 163              	.LFE119:
 164              		.size	i2c_lld_safety_timeout, .-i2c_lld_safety_timeout
 165 002a 00BFAFF3 		.section	.text.i2c_lld_serve_tx_end_irq,"ax",%progbits
 165      0080
 166              		.align	2
 167              		.p2align 4,,15
 168              		.thumb
ARM GAS  /tmp/cckHNjns.s 			page 4


 169              		.thumb_func
 170              		.type	i2c_lld_serve_tx_end_irq, %function
 171              	i2c_lld_serve_tx_end_irq:
 172              	.LFB124:
 173              		.loc 1 380 0
 174              		.cfi_startproc
 175              		@ args = 0, pretend = 0, frame = 0
 176              		@ frame_needed = 0, uses_anonymous_args = 0
 177              	.LVL9:
 178              		.loc 1 385 0
 179 0000 11F00C0F 		tst	r1, #12
 180              		.loc 1 380 0
 181 0004 38B5     		push	{r3, r4, r5, lr}
 182              		.cfi_def_cfa_offset 16
 183              		.cfi_offset 3, -16
 184              		.cfi_offset 4, -12
 185              		.cfi_offset 5, -8
 186              		.cfi_offset 14, -4
 187              		.loc 1 380 0
 188 0006 0546     		mov	r5, r0
 189              		.loc 1 381 0
 190 0008 446B     		ldr	r4, [r0, #52]
 191              	.LVL10:
 192              		.loc 1 385 0
 193 000a 14D1     		bne	.L19
 194              	.LVL11:
 195              	.L13:
 196              		.loc 1 392 0
 197 000c 296B     		ldr	r1, [r5, #48]
 198 000e 0A68     		ldr	r2, [r1]
 199 0010 1368     		ldr	r3, [r2]
 200 0012 23F01F03 		bic	r3, r3, #31
 201 0016 1360     		str	r3, [r2]
 202              	.L15:
 203              		.loc 1 392 0 is_stmt 0 discriminator 1
 204 0018 1368     		ldr	r3, [r2]
 205 001a DB07     		lsls	r3, r3, #31
 206 001c FCD4     		bmi	.L15
 207              		.loc 1 392 0 discriminator 2
 208 001e 0A7A     		ldrb	r2, [r1, #8]	@ zero_extendqisi2
 209 0020 4B68     		ldr	r3, [r1, #4]
 210 0022 3D21     		movs	r1, #61
 211 0024 01FA02F2 		lsl	r2, r1, r2
 212 0028 1A60     		str	r2, [r3]
 213              		.loc 1 396 0 is_stmt 1 discriminator 2
 214 002a A388     		ldrh	r3, [r4, #4]
 215 002c 9BB2     		uxth	r3, r3
 216 002e 43F40073 		orr	r3, r3, #512
 217 0032 A380     		strh	r3, [r4, #4]	@ movhi
 218 0034 38BD     		pop	{r3, r4, r5, pc}
 219              	.LVL12:
 220              	.L19:
 221              		.loc 1 386 0
 222 0036 FFF7FEFF 		bl	port_halt
 223              	.LVL13:
 224 003a E7E7     		b	.L13
 225              		.cfi_endproc
ARM GAS  /tmp/cckHNjns.s 			page 5


 226              	.LFE124:
 227              		.size	i2c_lld_serve_tx_end_irq, .-i2c_lld_serve_tx_end_irq
 228 003c AFF30080 		.section	.text.i2c_lld_serve_rx_end_irq,"ax",%progbits
 229              		.align	2
 230              		.p2align 4,,15
 231              		.thumb
 232              		.thumb_func
 233              		.type	i2c_lld_serve_rx_end_irq, %function
 234              	i2c_lld_serve_rx_end_irq:
 235              	.LFB123:
 236              		.loc 1 353 0
 237              		.cfi_startproc
 238              		@ args = 0, pretend = 0, frame = 0
 239              		@ frame_needed = 0, uses_anonymous_args = 0
 240              	.LVL14:
 241              		.loc 1 358 0
 242 0000 11F00C0F 		tst	r1, #12
 243              		.loc 1 353 0
 244 0004 38B5     		push	{r3, r4, r5, lr}
 245              		.cfi_def_cfa_offset 16
 246              		.cfi_offset 3, -16
 247              		.cfi_offset 4, -12
 248              		.cfi_offset 5, -8
 249              		.cfi_offset 14, -4
 250              		.loc 1 353 0
 251 0006 0546     		mov	r5, r0
 252              		.loc 1 354 0
 253 0008 446B     		ldr	r4, [r0, #52]
 254              	.LVL15:
 255              		.loc 1 358 0
 256 000a 2ED1     		bne	.L31
 257              	.LVL16:
 258              	.L21:
 259              		.loc 1 365 0
 260 000c E96A     		ldr	r1, [r5, #44]
 261 000e 0A68     		ldr	r2, [r1]
 262 0010 1368     		ldr	r3, [r2]
 263 0012 23F01F03 		bic	r3, r3, #31
 264 0016 1360     		str	r3, [r2]
 265              	.L23:
 266              		.loc 1 365 0 is_stmt 0 discriminator 1
 267 0018 1368     		ldr	r3, [r2]
 268 001a DB07     		lsls	r3, r3, #31
 269 001c FCD4     		bmi	.L23
 270              		.loc 1 365 0 discriminator 2
 271 001e 0A7A     		ldrb	r2, [r1, #8]	@ zero_extendqisi2
 272 0020 4B68     		ldr	r3, [r1, #4]
 273 0022 3D21     		movs	r1, #61
 274 0024 01FA02F2 		lsl	r2, r1, r2
 275 0028 1A60     		str	r2, [r3]
 276              		.loc 1 367 0 is_stmt 1 discriminator 2
 277 002a A388     		ldrh	r3, [r4, #4]
 278 002c 23F48053 		bic	r3, r3, #4096
 279 0030 1B04     		lsls	r3, r3, #16
 280 0032 1B0C     		lsrs	r3, r3, #16
 281 0034 A380     		strh	r3, [r4, #4]	@ movhi
 282              		.loc 1 368 0 discriminator 2
ARM GAS  /tmp/cckHNjns.s 			page 6


 283 0036 2388     		ldrh	r3, [r4]
 284 0038 23F48063 		bic	r3, r3, #1024
 285 003c 1B04     		lsls	r3, r3, #16
 286 003e 1B0C     		lsrs	r3, r3, #16
 287 0040 2380     		strh	r3, [r4]	@ movhi
 288              		.loc 1 369 0 discriminator 2
 289 0042 2388     		ldrh	r3, [r4]
 290 0044 9BB2     		uxth	r3, r3
 291 0046 43F40073 		orr	r3, r3, #512
 292 004a 2380     		strh	r3, [r4]	@ movhi
 293              	.LBB14:
 294              		.loc 1 370 0 discriminator 2
 295 004c 2023     		movs	r3, #32
 296              	@ 370 "../AithonLibrary/ChibiOS/os/hal/platforms/STM32/I2Cv1/i2c_lld.c" 1
 297 004e 83F31188 		msr     BASEPRI, r3
 298              	@ 0 "" 2
 299              		.thumb
 300              	.LBE14:
 301 0052 EB69     		ldr	r3, [r5, #28]
 302 0054 2BB1     		cbz	r3, .L24
 303              	.LVL17:
 304              	.LBB15:
 305              		.loc 1 370 0 is_stmt 0 discriminator 1
 306 0056 0022     		movs	r2, #0
 307 0058 EA61     		str	r2, [r5, #28]
 308 005a 1846     		mov	r0, r3
 309 005c 5A62     		str	r2, [r3, #36]
 310 005e FFF7FEFF 		bl	chSchReadyI
 311              	.LVL18:
 312              	.L24:
 313              	.LBE15:
 314              	.LBB16:
 315              		.loc 1 370 0 discriminator 2
 316 0062 0023     		movs	r3, #0
 317              	@ 370 "../AithonLibrary/ChibiOS/os/hal/platforms/STM32/I2Cv1/i2c_lld.c" 1
 318 0064 83F31188 		msr     BASEPRI, r3
 319              	@ 0 "" 2
 320              		.thumb
 321 0068 38BD     		pop	{r3, r4, r5, pc}
 322              	.LVL19:
 323              	.L31:
 324              	.LBE16:
 325              		.loc 1 359 0 is_stmt 1
 326 006a FFF7FEFF 		bl	port_halt
 327              	.LVL20:
 328 006e CDE7     		b	.L21
 329              		.cfi_endproc
 330              	.LFE123:
 331              		.size	i2c_lld_serve_rx_end_irq, .-i2c_lld_serve_rx_end_irq
 332              		.section	.text.VectorBC,"ax",%progbits
 333              		.align	2
 334              		.p2align 4,,15
 335              		.global	VectorBC
 336              		.thumb
 337              		.thumb_func
 338              		.type	VectorBC, %function
 339              	VectorBC:
ARM GAS  /tmp/cckHNjns.s 			page 7


 340              	.LFB126:
 341              		.loc 1 454 0
 342              		.cfi_startproc
 343              		@ args = 0, pretend = 0, frame = 0
 344              		@ frame_needed = 0, uses_anonymous_args = 0
 345              	.LVL21:
 346              	.LBB22:
 347              	.LBB23:
 348              		.loc 1 294 0
 349 0000 414A     		ldr	r2, .L53
 350              		.loc 1 301 0
 351 0002 4249     		ldr	r1, .L53+4
 352              	.LBE23:
 353              	.LBE22:
 354              		.loc 1 454 0
 355 0004 38B5     		push	{r3, r4, r5, lr}
 356              		.cfi_def_cfa_offset 16
 357              		.cfi_offset 3, -16
 358              		.cfi_offset 4, -12
 359              		.cfi_offset 5, -8
 360              		.cfi_offset 14, -4
 361              	.LBB29:
 362              	.LBB27:
 363              		.loc 1 294 0
 364 0006 546B     		ldr	r4, [r2, #52]
 365              	.LVL22:
 366              		.loc 1 295 0
 367 0008 238B     		ldrh	r3, [r4, #24]
 368              	.LVL23:
 369              		.loc 1 296 0
 370 000a A58A     		ldrh	r5, [r4, #20]
 371 000c ADB2     		uxth	r5, r5
 372              	.LVL24:
 373              		.loc 1 301 0
 374 000e 45EA0343 		orr	r3, r5, r3, lsl #16
 375              	.LVL25:
 376 0012 23F07F43 		bic	r3, r3, #-16777216
 377 0016 8B42     		cmp	r3, r1
 378 0018 60D0     		beq	.L34
 379 001a 21D8     		bhi	.L35
 380 001c 0739     		subs	r1, r1, #7
 381 001e 8B42     		cmp	r3, r1
 382 0020 50D0     		beq	.L36
 383 0022 0131     		adds	r1, r1, #1
 384 0024 8B42     		cmp	r3, r1
 385 0026 13D1     		bne	.L33
 386              		.loc 1 315 0
 387 0028 A388     		ldrh	r3, [r4, #4]
 388              		.loc 1 316 0
 389 002a D26A     		ldr	r2, [r2, #44]
 390              		.loc 1 315 0
 391 002c 23F40073 		bic	r3, r3, #512
 392 0030 1B04     		lsls	r3, r3, #16
 393              		.loc 1 316 0
 394 0032 1268     		ldr	r2, [r2]
 395              		.loc 1 315 0
 396 0034 1B0C     		lsrs	r3, r3, #16
ARM GAS  /tmp/cckHNjns.s 			page 8


 397 0036 A380     		strh	r3, [r4, #4]	@ movhi
 398              		.loc 1 316 0
 399 0038 1368     		ldr	r3, [r2]
 400 003a 43F00103 		orr	r3, r3, #1
 401 003e 1360     		str	r3, [r2]
 402              		.loc 1 317 0
 403 0040 A388     		ldrh	r3, [r4, #4]
 404 0042 9BB2     		uxth	r3, r3
 405 0044 43F48053 		orr	r3, r3, #4096
 406 0048 A380     		strh	r3, [r4, #4]	@ movhi
 407              		.loc 1 318 0
 408 004a 5368     		ldr	r3, [r2, #4]
 409 004c 012B     		cmp	r3, #1
 410 004e 54D9     		bls	.L51
 411              	.L33:
 412              		.loc 1 341 0
 413 0050 15F00A0F 		tst	r5, #10
 414              		.loc 1 342 0
 415 0054 18BF     		it	ne
 416 0056 238B     		ldrhne	r3, [r4, #24]
 417              	.L42:
 418              	.LBE27:
 419              	.LBE29:
 420              		.loc 1 461 0
 421 0058 BDE83840 		pop	{r3, r4, r5, lr}
 422              	.LVL26:
 423              		.loc 1 460 0
 424 005c FFF7FEBF 		b	_port_irq_epilogue
 425              	.LVL27:
 426              	.L35:
 427              	.LBB30:
 428              	.LBB28:
 429              		.loc 1 301 0
 430 0060 2B49     		ldr	r1, .L53+8
 431 0062 8B42     		cmp	r3, r1
 432 0064 21D0     		beq	.L38
 433 0066 0231     		adds	r1, r1, #2
 434 0068 8B42     		cmp	r3, r1
 435 006a F1D1     		bne	.L33
 436              		.loc 1 327 0
 437 006c D36A     		ldr	r3, [r2, #44]
 438 006e 1B68     		ldr	r3, [r3]
 439 0070 5B68     		ldr	r3, [r3, #4]
 440 0072 002B     		cmp	r3, #0
 441 0074 37D1     		bne	.L52
 442              		.loc 1 333 0
 443 0076 A388     		ldrh	r3, [r4, #4]
 444 0078 23F40073 		bic	r3, r3, #512
 445 007c 1B04     		lsls	r3, r3, #16
 446 007e 1B0C     		lsrs	r3, r3, #16
 447 0080 A380     		strh	r3, [r4, #4]	@ movhi
 448              		.loc 1 334 0
 449 0082 2388     		ldrh	r3, [r4]
 450 0084 9BB2     		uxth	r3, r3
 451 0086 43F40073 		orr	r3, r3, #512
 452 008a 2380     		strh	r3, [r4]	@ movhi
 453              	.LBB24:
ARM GAS  /tmp/cckHNjns.s 			page 9


 454              		.loc 1 335 0
 455 008c 2023     		movs	r3, #32
 456              	@ 335 "../AithonLibrary/ChibiOS/os/hal/platforms/STM32/I2Cv1/i2c_lld.c" 1
 457 008e 83F31188 		msr     BASEPRI, r3
 458              	@ 0 "" 2
 459              		.thumb
 460              	.LBE24:
 461 0092 D069     		ldr	r0, [r2, #28]
 462 0094 1C4A     		ldr	r2, .L53
 463 0096 20B1     		cbz	r0, .L43
 464              	.LVL28:
 465              	.LBB25:
 466 0098 0023     		movs	r3, #0
 467 009a 4362     		str	r3, [r0, #36]
 468 009c D361     		str	r3, [r2, #28]
 469 009e FFF7FEFF 		bl	chSchReadyI
 470              	.LVL29:
 471              	.L43:
 472              	.LBE25:
 473              	.LBB26:
 474 00a2 0023     		movs	r3, #0
 475              	@ 335 "../AithonLibrary/ChibiOS/os/hal/platforms/STM32/I2Cv1/i2c_lld.c" 1
 476 00a4 83F31188 		msr     BASEPRI, r3
 477              	@ 0 "" 2
 478              		.thumb
 479 00a8 D2E7     		b	.L33
 480              	.L38:
 481              	.LBE26:
 482              		.loc 1 322 0
 483 00aa A388     		ldrh	r3, [r4, #4]
 484              		.loc 1 323 0
 485 00ac 126B     		ldr	r2, [r2, #48]
 486              		.loc 1 322 0
 487 00ae 23F40073 		bic	r3, r3, #512
 488 00b2 1B04     		lsls	r3, r3, #16
 489              		.loc 1 323 0
 490 00b4 1268     		ldr	r2, [r2]
 491              		.loc 1 322 0
 492 00b6 1B0C     		lsrs	r3, r3, #16
 493 00b8 A380     		strh	r3, [r4, #4]	@ movhi
 494              		.loc 1 323 0
 495 00ba 1368     		ldr	r3, [r2]
 496 00bc 43F00103 		orr	r3, r3, #1
 497 00c0 1360     		str	r3, [r2]
 498 00c2 C5E7     		b	.L33
 499              	.L36:
 500              		.loc 1 303 0
 501 00c4 138C     		ldrh	r3, [r2, #32]
 502 00c6 1A0A     		lsrs	r2, r3, #8
 503 00c8 0BD0     		beq	.L50
 504              		.loc 1 305 0
 505 00ca 03F00103 		and	r3, r3, #1
 506 00ce 43F0F003 		orr	r3, r3, #240
 507 00d2 02F00602 		and	r2, r2, #6
 508 00d6 1A43     		orrs	r2, r2, r3
 509 00d8 2282     		strh	r2, [r4, #16]	@ movhi
 510 00da B9E7     		b	.L33
ARM GAS  /tmp/cckHNjns.s 			page 10


 511              	.L34:
 512              		.loc 1 312 0
 513 00dc 138C     		ldrh	r3, [r2, #32]
 514 00de C3F34703 		ubfx	r3, r3, #1, #8
 515              	.L50:
 516 00e2 2382     		strh	r3, [r4, #16]	@ movhi
 517 00e4 B4E7     		b	.L33
 518              	.L52:
 519              		.loc 1 330 0
 520 00e6 2388     		ldrh	r3, [r4]
 521              		.loc 1 329 0
 522 00e8 118C     		ldrh	r1, [r2, #32]
 523              		.loc 1 330 0
 524 00ea 9BB2     		uxth	r3, r3
 525 00ec 43F4A063 		orr	r3, r3, #1280
 526              		.loc 1 329 0
 527 00f0 41F00101 		orr	r1, r1, #1
 528 00f4 1184     		strh	r1, [r2, #32]	@ movhi
 529              		.loc 1 330 0
 530 00f6 2380     		strh	r3, [r4]	@ movhi
 531 00f8 AEE7     		b	.L42
 532              	.L51:
 533              		.loc 1 319 0
 534 00fa 2388     		ldrh	r3, [r4]
 535 00fc 23F48063 		bic	r3, r3, #1024
 536 0100 1B04     		lsls	r3, r3, #16
 537 0102 1B0C     		lsrs	r3, r3, #16
 538 0104 2380     		strh	r3, [r4]	@ movhi
 539 0106 A3E7     		b	.L33
 540              	.L54:
 541              		.align	2
 542              	.L53:
 543 0108 00000000 		.word	.LANCHOR0
 544 010c 08000300 		.word	196616
 545 0110 82000700 		.word	458882
 546              	.LBE28:
 547              	.LBE30:
 548              		.cfi_endproc
 549              	.LFE126:
 550              		.size	VectorBC, .-VectorBC
 551 0114 AFF30080 		.section	.text.VectorC0,"ax",%progbits
 551      AFF30080 
 551      AFF30080 
 552              		.align	2
 553              		.p2align 4,,15
 554              		.global	VectorC0
 555              		.thumb
 556              		.thumb_func
 557              		.type	VectorC0, %function
 558              	VectorC0:
 559              	.LFB127:
 560              		.loc 1 466 0
 561              		.cfi_startproc
 562              		@ args = 0, pretend = 0, frame = 0
 563              		@ frame_needed = 0, uses_anonymous_args = 0
 564              		.loc 1 467 0
 565 0000 3748     		ldr	r0, .L94
ARM GAS  /tmp/cckHNjns.s 			page 11


 566              		.loc 1 466 0
 567 0002 F8B5     		push	{r3, r4, r5, r6, r7, lr}
 568              		.cfi_def_cfa_offset 24
 569              		.cfi_offset 3, -24
 570              		.cfi_offset 4, -20
 571              		.cfi_offset 5, -16
 572              		.cfi_offset 6, -12
 573              		.cfi_offset 7, -8
 574              		.cfi_offset 14, -4
 575              		.loc 1 467 0
 576 0004 446B     		ldr	r4, [r0, #52]
 577              	.LBB36:
 578              	.LBB37:
 579              		.loc 1 410 0
 580 0006 066B     		ldr	r6, [r0, #48]
 581              	.LBE37:
 582              	.LBE36:
 583              		.loc 1 467 0
 584 0008 A18A     		ldrh	r1, [r4, #20]
 585              	.LBB44:
 586              	.LBB41:
 587              		.loc 1 410 0
 588 000a 3268     		ldr	r2, [r6]
 589              	.LBE41:
 590              	.LBE44:
 591              		.loc 1 467 0
 592 000c 89B2     		uxth	r1, r1
 593              	.LVL30:
 594              		.loc 1 471 0
 595 000e 01F45F43 		and	r3, r1, #57088
 596 0012 83F47F43 		eor	r3, r3, #65280
 597 0016 83F0FF03 		eor	r3, r3, #255
 598 001a A382     		strh	r3, [r4, #20]	@ movhi
 599              	.LVL31:
 600              	.LBB45:
 601              	.LBB42:
 602              		.loc 1 410 0
 603 001c 1368     		ldr	r3, [r2]
 604 001e 23F01F03 		bic	r3, r3, #31
 605 0022 1360     		str	r3, [r2]
 606              	.L57:
 607 0024 1368     		ldr	r3, [r2]
 608 0026 DF07     		lsls	r7, r3, #31
 609 0028 FCD4     		bmi	.L57
 610 002a 377A     		ldrb	r7, [r6, #8]	@ zero_extendqisi2
 611              		.loc 1 411 0
 612 002c C56A     		ldr	r5, [r0, #44]
 613              		.loc 1 410 0
 614 002e 7368     		ldr	r3, [r6, #4]
 615              		.loc 1 411 0
 616 0030 2A68     		ldr	r2, [r5]
 617              		.loc 1 410 0
 618 0032 3D26     		movs	r6, #61
 619 0034 BE40     		lsls	r6, r6, r7
 620 0036 1E60     		str	r6, [r3]
 621              		.loc 1 411 0
 622 0038 1368     		ldr	r3, [r2]
ARM GAS  /tmp/cckHNjns.s 			page 12


 623 003a 23F01F03 		bic	r3, r3, #31
 624 003e 1360     		str	r3, [r2]
 625              	.L59:
 626 0040 1368     		ldr	r3, [r2]
 627 0042 13F00103 		ands	r3, r3, #1
 628 0046 FBD1     		bne	.L59
 629 0048 2E7A     		ldrb	r6, [r5, #8]	@ zero_extendqisi2
 630 004a 6A68     		ldr	r2, [r5, #4]
 631 004c 3D25     		movs	r5, #61
 632 004e B540     		lsls	r5, r5, r6
 633 0050 1560     		str	r5, [r2]
 634              		.loc 1 415 0
 635 0052 CD05     		lsls	r5, r1, #23
 636              		.loc 1 416 0
 637 0054 48BF     		it	mi
 638 0056 0123     		movmi	r3, #1
 639              		.loc 1 418 0
 640 0058 8A05     		lsls	r2, r1, #22
 641              		.loc 1 416 0
 642 005a 8360     		str	r3, [r0, #8]
 643              		.loc 1 419 0
 644 005c 44BF     		itt	mi
 645 005e 43F00203 		orrmi	r3, r3, #2
 646 0062 8360     		strmi	r3, [r0, #8]
 647              		.loc 1 421 0
 648 0064 4F05     		lsls	r7, r1, #21
 649 0066 0DD5     		bpl	.L63
 650              		.loc 1 422 0
 651 0068 A288     		ldrh	r2, [r4, #4]
 652 006a 22F40072 		bic	r2, r2, #512
 653 006e 1204     		lsls	r2, r2, #16
 654 0070 120C     		lsrs	r2, r2, #16
 655 0072 A280     		strh	r2, [r4, #4]	@ movhi
 656              		.loc 1 423 0
 657 0074 2288     		ldrh	r2, [r4]
 658 0076 92B2     		uxth	r2, r2
 659              		.loc 1 424 0
 660 0078 43F00403 		orr	r3, r3, #4
 661              		.loc 1 423 0
 662 007c 42F40072 		orr	r2, r2, #512
 663 0080 2280     		strh	r2, [r4]	@ movhi
 664              		.loc 1 424 0
 665 0082 8360     		str	r3, [r0, #8]
 666              	.L63:
 667              		.loc 1 427 0
 668 0084 0E05     		lsls	r6, r1, #20
 669              		.loc 1 428 0
 670 0086 44BF     		itt	mi
 671 0088 43F00803 		orrmi	r3, r3, #8
 672 008c 8360     		strmi	r3, [r0, #8]
 673              		.loc 1 430 0
 674 008e 4D04     		lsls	r5, r1, #17
 675              		.loc 1 431 0
 676 0090 44BF     		itt	mi
 677 0092 43F02003 		orrmi	r3, r3, #32
 678 0096 8360     		strmi	r3, [r0, #8]
 679              		.loc 1 433 0
ARM GAS  /tmp/cckHNjns.s 			page 13


 680 0098 CC04     		lsls	r4, r1, #19
 681              		.loc 1 434 0
 682 009a 44BF     		itt	mi
 683 009c 43F01003 		orrmi	r3, r3, #16
 684 00a0 8360     		strmi	r3, [r0, #8]
 685              		.loc 1 436 0
 686 00a2 0A04     		lsls	r2, r1, #16
 687 00a4 04D4     		bmi	.L93
 688              		.loc 1 440 0
 689 00a6 33B9     		cbnz	r3, .L68
 690              	.LBE42:
 691              	.LBE45:
 692              		.loc 1 475 0
 693 00a8 BDE8F840 		pop	{r3, r4, r5, r6, r7, lr}
 694              		.loc 1 474 0
 695 00ac FFF7FEBF 		b	_port_irq_epilogue
 696              	.LVL32:
 697              	.L93:
 698              	.LBB46:
 699              	.LBB43:
 700              		.loc 1 437 0
 701 00b0 43F04003 		orr	r3, r3, #64
 702 00b4 8360     		str	r3, [r0, #8]
 703              	.L68:
 704              	.LBB38:
 705              		.loc 1 441 0
 706 00b6 2023     		movs	r3, #32
 707              	@ 441 "../AithonLibrary/ChibiOS/os/hal/platforms/STM32/I2Cv1/i2c_lld.c" 1
 708 00b8 83F31188 		msr     BASEPRI, r3
 709              	@ 0 "" 2
 710              		.thumb
 711              	.LBE38:
 712 00bc C069     		ldr	r0, [r0, #28]
 713 00be 084B     		ldr	r3, .L94
 714 00c0 30B1     		cbz	r0, .L70
 715              	.LVL33:
 716              	.LBB39:
 717 00c2 6FF00102 		mvn	r2, #1
 718 00c6 4262     		str	r2, [r0, #36]
 719 00c8 0022     		movs	r2, #0
 720 00ca DA61     		str	r2, [r3, #28]
 721 00cc FFF7FEFF 		bl	chSchReadyI
 722              	.LVL34:
 723              	.L70:
 724              	.LBE39:
 725              	.LBB40:
 726 00d0 0023     		movs	r3, #0
 727              	@ 441 "../AithonLibrary/ChibiOS/os/hal/platforms/STM32/I2Cv1/i2c_lld.c" 1
 728 00d2 83F31188 		msr     BASEPRI, r3
 729              	@ 0 "" 2
 730              		.thumb
 731              	.LBE40:
 732              	.LBE43:
 733              	.LBE46:
 734              		.loc 1 475 0
 735 00d6 BDE8F840 		pop	{r3, r4, r5, r6, r7, lr}
 736              		.loc 1 474 0
ARM GAS  /tmp/cckHNjns.s 			page 14


 737 00da FFF7FEBF 		b	_port_irq_epilogue
 738              	.LVL35:
 739              	.L95:
 740 00de 00BF     		.align	2
 741              	.L94:
 742 00e0 00000000 		.word	.LANCHOR0
 743              		.cfi_endproc
 744              	.LFE127:
 745              		.size	VectorC0, .-VectorC0
 746 00e4 AFF30080 		.section	.text.i2c_lld_init,"ax",%progbits
 746      AFF30080 
 746      AFF30080 
 747              		.align	2
 748              		.p2align 4,,15
 749              		.global	i2c_lld_init
 750              		.thumb
 751              		.thumb_func
 752              		.type	i2c_lld_init, %function
 753              	i2c_lld_init:
 754              	.LFB128:
 755              		.loc 1 551 0
 756              		.cfi_startproc
 757              		@ args = 0, pretend = 0, frame = 0
 758              		@ frame_needed = 0, uses_anonymous_args = 0
 759 0000 10B5     		push	{r4, lr}
 760              		.cfi_def_cfa_offset 8
 761              		.cfi_offset 4, -8
 762              		.cfi_offset 14, -4
 763              		.loc 1 554 0
 764 0002 074C     		ldr	r4, .L97
 765 0004 2046     		mov	r0, r4
 766 0006 FFF7FEFF 		bl	i2cObjectInit
 767              	.LVL36:
 768              		.loc 1 557 0
 769 000a 064B     		ldr	r3, .L97+4
 770              		.loc 1 556 0
 771 000c 064A     		ldr	r2, .L97+8
 772 000e 6263     		str	r2, [r4, #52]
 773              		.loc 1 555 0
 774 0010 0021     		movs	r1, #0
 775              		.loc 1 558 0
 776 0012 03F14802 		add	r2, r3, #72
 777              		.loc 1 555 0
 778 0016 E161     		str	r1, [r4, #28]
 779              		.loc 1 557 0
 780 0018 E362     		str	r3, [r4, #44]
 781              		.loc 1 558 0
 782 001a 2263     		str	r2, [r4, #48]
 783 001c 10BD     		pop	{r4, pc}
 784              	.L98:
 785 001e 00BF     		.align	2
 786              	.L97:
 787 0020 00000000 		.word	.LANCHOR0
 788 0024 00000000 		.word	_stm32_dma_streams
 789 0028 00540040 		.word	1073763328
 790              		.cfi_endproc
 791              	.LFE128:
ARM GAS  /tmp/cckHNjns.s 			page 15


 792              		.size	i2c_lld_init, .-i2c_lld_init
 793 002c AFF30080 		.section	.text.i2c_lld_start,"ax",%progbits
 794              		.align	2
 795              		.p2align 4,,15
 796              		.global	i2c_lld_start
 797              		.thumb
 798              		.thumb_func
 799              		.type	i2c_lld_start, %function
 800              	i2c_lld_start:
 801              	.LFB129:
 802              		.loc 1 585 0
 803              		.cfi_startproc
 804              		@ args = 0, pretend = 0, frame = 0
 805              		@ frame_needed = 0, uses_anonymous_args = 0
 806              	.LVL37:
 807              		.loc 1 598 0
 808 0000 0378     		ldrb	r3, [r0]	@ zero_extendqisi2
 809              		.loc 1 588 0
 810 0002 40F25642 		movw	r2, #1110
 811              		.loc 1 585 0
 812 0006 2DE9F047 		push	{r4, r5, r6, r7, r8, r9, r10, lr}
 813              		.cfi_def_cfa_offset 32
 814              		.cfi_offset 4, -32
 815              		.cfi_offset 5, -28
 816              		.cfi_offset 6, -24
 817              		.cfi_offset 7, -20
 818              		.cfi_offset 8, -16
 819              		.cfi_offset 9, -12
 820              		.cfi_offset 10, -8
 821              		.cfi_offset 14, -4
 822              		.loc 1 598 0
 823 000a 012B     		cmp	r3, #1
 824              		.loc 1 588 0
 825 000c 8262     		str	r2, [r0, #40]
 826              		.loc 1 592 0
 827 000e 40F21642 		movw	r2, #1046
 828              		.loc 1 585 0
 829 0012 0446     		mov	r4, r0
 830              		.loc 1 592 0
 831 0014 4262     		str	r2, [r0, #36]
 832              		.loc 1 586 0
 833 0016 456B     		ldr	r5, [r0, #52]
 834              	.LVL38:
 835              		.loc 1 598 0
 836 0018 51D0     		beq	.L113
 837              	.L110:
 838              		.loc 1 586 0
 839 001a 2A46     		mov	r2, r5
 840              	.LVL39:
 841              	.L100:
 842              		.loc 1 686 0
 843 001c E16A     		ldr	r1, [r4, #44]
 844              		.loc 1 687 0
 845 001e 236B     		ldr	r3, [r4, #48]
 846              		.loc 1 686 0
 847 0020 D1F80090 		ldr	r9, [r1]
 848              		.loc 1 687 0
ARM GAS  /tmp/cckHNjns.s 			page 16


 849 0024 D3F800A0 		ldr	r10, [r3]
 850              		.loc 1 585 0
 851 0028 6168     		ldr	r1, [r4, #4]
 852              	.LVL40:
 853              	.LBB52:
 854              	.LBB53:
 855              		.loc 1 201 0
 856 002a 4D4E     		ldr	r6, .L118
 857              		.loc 1 187 0
 858 002c 4868     		ldr	r0, [r1, #4]
 859              	.LVL41:
 860              		.loc 1 188 0
 861 002e 0F7A     		ldrb	r7, [r1, #8]	@ zero_extendqisi2
 862              	.LVL42:
 863              	.LBE53:
 864              	.LBE52:
 865              		.loc 1 686 0
 866 0030 05F11003 		add	r3, r5, #16
 867              		.loc 1 690 0
 868 0034 4FF40048 		mov	r8, #32768
 869              		.loc 1 691 0
 870 0038 0024     		movs	r4, #0
 871              	.LVL43:
 872              		.loc 1 692 0
 873 003a 4FF4106C 		mov	ip, #2304
 874              		.loc 1 686 0
 875 003e C9F80830 		str	r3, [r9, #8]
 876              		.loc 1 687 0
 877 0042 CAF80830 		str	r3, [r10, #8]
 878              		.loc 1 690 0
 879 0046 A5F80080 		strh	r8, [r5]	@ movhi
 880              		.loc 1 691 0
 881 004a 2C80     		strh	r4, [r5]	@ movhi
 882              		.loc 1 692 0
 883 004c A5F804C0 		strh	ip, [r5, #4]	@ movhi
 884              	.LBB57:
 885              	.LBB54:
 886              		.loc 1 194 0
 887 0050 9388     		ldrh	r3, [r2, #4]
 888 0052 23F03F03 		bic	r3, r3, #63
 889 0056 1B04     		lsls	r3, r3, #16
 890 0058 1B0C     		lsrs	r3, r3, #16
 891 005a 9380     		strh	r3, [r2, #4]	@ movhi
 892              		.loc 1 195 0
 893 005c 9388     		ldrh	r3, [r2, #4]
 894 005e 9BB2     		uxth	r3, r3
 895 0060 43F02A03 		orr	r3, r3, #42
 896              		.loc 1 201 0
 897 0064 B042     		cmp	r0, r6
 898              		.loc 1 195 0
 899 0066 9380     		strh	r3, [r2, #4]	@ movhi
 900              	.LVL44:
 901              		.loc 1 201 0
 902 0068 20DD     		ble	.L114
 903              		.loc 1 221 0
 904 006a 3E4B     		ldr	r3, .L118+4
 905 006c 9842     		cmp	r0, r3
ARM GAS  /tmp/cckHNjns.s 			page 17


 906 006e 07DC     		bgt	.L102
 907              		.loc 1 227 0
 908 0070 022F     		cmp	r7, #2
 909 0072 6AD0     		beq	.L115
 910              		.loc 1 234 0
 911 0074 032F     		cmp	r7, #3
 912 0076 5BD0     		beq	.L116
 913 0078 48F6FF74 		movw	r4, #36863
 914              	.LVL45:
 915              	.L104:
 916              		.loc 1 249 0
 917 007c 0D23     		movs	r3, #13
 918 007e 1384     		strh	r3, [r2, #32]	@ movhi
 919              	.LVL46:
 920              	.L102:
 921              		.loc 1 255 0
 922 0080 9483     		strh	r4, [r2, #28]	@ movhi
 923              	.LVL47:
 924              	.LBE54:
 925              	.LBE57:
 926              	.LBB58:
 927              	.LBB59:
 928              		.loc 1 271 0
 929 0082 0978     		ldrb	r1, [r1]	@ zero_extendqisi2
 930              	.LVL48:
 931              		.loc 1 270 0
 932 0084 1388     		ldrh	r3, [r2]
 933              		.loc 1 271 0
 934 0086 0229     		cmp	r1, #2
 935              		.loc 1 270 0
 936 0088 9BB2     		uxth	r3, r3
 937              	.LVL49:
 938              		.loc 1 271 0
 939 008a 4BD0     		beq	.L106
 940 008c 0329     		cmp	r1, #3
 941 008e 46D0     		beq	.L107
 942 0090 0129     		cmp	r1, #1
 943 0092 07D0     		beq	.L117
 944              	.LVL50:
 945              	.L105:
 946              		.loc 1 283 0
 947 0094 1380     		strh	r3, [r2]	@ movhi
 948              	.LBE59:
 949              	.LBE58:
 950              		.loc 1 699 0
 951 0096 2B88     		ldrh	r3, [r5]
 952              	.LVL51:
 953 0098 9BB2     		uxth	r3, r3
 954 009a 43F00103 		orr	r3, r3, #1
 955 009e 2B80     		strh	r3, [r5]	@ movhi
 956 00a0 BDE8F087 		pop	{r4, r5, r6, r7, r8, r9, r10, pc}
 957              	.LVL52:
 958              	.L117:
 959              	.LBB62:
 960              	.LBB60:
 961              		.loc 1 273 0
 962 00a4 23F00A03 		bic	r3, r3, #10
ARM GAS  /tmp/cckHNjns.s 			page 18


 963              	.LVL53:
 964 00a8 9BB2     		uxth	r3, r3
 965              	.LVL54:
 966 00aa F3E7     		b	.L105
 967              	.LVL55:
 968              	.L114:
 969              	.LBE60:
 970              	.LBE62:
 971              	.LBB63:
 972              	.LBB55:
 973              		.loc 1 211 0
 974 00ac 2E4C     		ldr	r4, .L118+8
 975 00ae 4000     		lsls	r0, r0, #1
 976              	.LVL56:
 977 00b0 94FBF0F4 		sdiv	r4, r4, r0
 978              		.loc 1 219 0
 979 00b4 2B23     		movs	r3, #43
 980              		.loc 1 216 0
 981 00b6 C4F30B04 		ubfx	r4, r4, #0, #12
 982              	.LVL57:
 983              		.loc 1 219 0
 984 00ba 1384     		strh	r3, [r2, #32]	@ movhi
 985 00bc E0E7     		b	.L102
 986              	.LVL58:
 987              	.L113:
 988              	.LBE55:
 989              	.LBE63:
 990              		.loc 1 601 0
 991 00be 2B4B     		ldr	r3, .L118+12
 992 00c0 9842     		cmp	r0, r3
 993 00c2 AAD1     		bne	.L110
 994              	.LBB64:
 995              		.loc 1 604 0
 996 00c4 2A4E     		ldr	r6, .L118+16
 997              		.loc 1 605 0
 998 00c6 C06A     		ldr	r0, [r0, #44]
 999              	.LVL59:
 1000              		.loc 1 604 0
 1001 00c8 316A     		ldr	r1, [r6, #32]
 1002              		.loc 1 605 0
 1003 00ca 2A4A     		ldr	r2, .L118+20
 1004              		.loc 1 604 0
 1005 00cc 41F40011 		orr	r1, r1, #2097152
 1006 00d0 0023     		movs	r3, #0
 1007 00d2 3162     		str	r1, [r6, #32]
 1008              		.loc 1 605 0
 1009 00d4 0521     		movs	r1, #5
 1010              		.loc 1 604 0
 1011 00d6 3362     		str	r3, [r6, #32]
 1012              		.loc 1 605 0
 1013 00d8 2346     		mov	r3, r4
 1014 00da FFF7FEFF 		bl	dmaStreamAllocate
 1015              	.LVL60:
 1016              		.loc 1 610 0
 1017 00de 264A     		ldr	r2, .L118+24
 1018 00e0 206B     		ldr	r0, [r4, #48]
 1019 00e2 0521     		movs	r1, #5
ARM GAS  /tmp/cckHNjns.s 			page 19


 1020 00e4 2346     		mov	r3, r4
 1021 00e6 FFF7FEFF 		bl	dmaStreamAllocate
 1022              	.LVL61:
 1023              		.loc 1 615 0
 1024 00ea 336C     		ldr	r3, [r6, #64]
 1025 00ec 43F40013 		orr	r3, r3, #2097152
 1026 00f0 3364     		str	r3, [r6, #64]
 1027              		.loc 1 616 0
 1028 00f2 1F20     		movs	r0, #31
 1029 00f4 5021     		movs	r1, #80
 1030 00f6 FFF7FEFF 		bl	nvicEnableVector
 1031              	.LVL62:
 1032              		.loc 1 618 0
 1033 00fa 5021     		movs	r1, #80
 1034 00fc 2020     		movs	r0, #32
 1035 00fe FFF7FEFF 		bl	nvicEnableVector
 1036              	.LVL63:
 1037              		.loc 1 621 0
 1038 0102 616A     		ldr	r1, [r4, #36]
 1039              		.loc 1 623 0
 1040 0104 A36A     		ldr	r3, [r4, #40]
 1041 0106 626B     		ldr	r2, [r4, #52]
 1042              		.loc 1 621 0
 1043 0108 41F00071 		orr	r1, r1, #33554432
 1044              		.loc 1 623 0
 1045 010c 43F00073 		orr	r3, r3, #33554432
 1046              		.loc 1 621 0
 1047 0110 41F44031 		orr	r1, r1, #196608
 1048              		.loc 1 623 0
 1049 0114 43F44033 		orr	r3, r3, #196608
 1050              		.loc 1 621 0
 1051 0118 6162     		str	r1, [r4, #36]
 1052              		.loc 1 623 0
 1053 011a A362     		str	r3, [r4, #40]
 1054 011c 7EE7     		b	.L100
 1055              	.LVL64:
 1056              	.L107:
 1057              	.LBE64:
 1058              	.LBB65:
 1059              	.LBB61:
 1060              		.loc 1 280 0
 1061 011e 43F00A03 		orr	r3, r3, #10
 1062              	.LVL65:
 1063 0122 B7E7     		b	.L105
 1064              	.L106:
 1065              	.LVL66:
 1066              		.loc 1 277 0
 1067 0124 23F00803 		bic	r3, r3, #8
 1068              	.LVL67:
 1069 0128 9BB2     		uxth	r3, r3
 1070 012a 43F00203 		orr	r3, r3, #2
 1071              	.LVL68:
 1072 012e B1E7     		b	.L105
 1073              	.LVL69:
 1074              	.L116:
 1075              	.LBE61:
 1076              	.LBE65:
ARM GAS  /tmp/cckHNjns.s 			page 20


 1077              	.LBB66:
 1078              	.LBB56:
 1079              		.loc 1 239 0
 1080 0130 00EB8000 		add	r0, r0, r0, lsl #2
 1081              	.LVL70:
 1082 0134 0C4C     		ldr	r4, .L118+8
 1083 0136 00EB8000 		add	r0, r0, r0, lsl #2
 1084 013a 94FBF0F4 		sdiv	r4, r4, r0
 1085 013e 6FEA8444 		mvn	r4, r4, lsl #18
 1086 0142 6FEA9444 		mvn	r4, r4, lsr #18
 1087 0146 A4B2     		uxth	r4, r4
 1088 0148 98E7     		b	.L104
 1089              	.LVL71:
 1090              	.L115:
 1091              		.loc 1 232 0
 1092 014a 074C     		ldr	r4, .L118+8
 1093 014c 00EB4000 		add	r0, r0, r0, lsl #1
 1094              	.LVL72:
 1095 0150 94FBF0F4 		sdiv	r4, r4, r0
 1096 0154 6FEA4444 		mvn	r4, r4, lsl #17
 1097 0158 6FEA5444 		mvn	r4, r4, lsr #17
 1098 015c A4B2     		uxth	r4, r4
 1099 015e 8DE7     		b	.L104
 1100              	.L119:
 1101              		.align	2
 1102              	.L118:
 1103 0160 A0860100 		.word	100000
 1104 0164 801A0600 		.word	400000
 1105 0168 80DE8002 		.word	42000000
 1106 016c 00000000 		.word	.LANCHOR0
 1107 0170 00380240 		.word	1073887232
 1108 0174 00000000 		.word	i2c_lld_serve_rx_end_irq
 1109 0178 00000000 		.word	i2c_lld_serve_tx_end_irq
 1110              	.LBE56:
 1111              	.LBE66:
 1112              		.cfi_endproc
 1113              	.LFE129:
 1114              		.size	i2c_lld_start, .-i2c_lld_start
 1115 017c AFF30080 		.section	.text.i2c_lld_stop,"ax",%progbits
 1116              		.align	2
 1117              		.p2align 4,,15
 1118              		.global	i2c_lld_stop
 1119              		.thumb
 1120              		.thumb_func
 1121              		.type	i2c_lld_stop, %function
 1122              	i2c_lld_stop:
 1123              	.LFB130:
 1124              		.loc 1 709 0
 1125              		.cfi_startproc
 1126              		@ args = 0, pretend = 0, frame = 0
 1127              		@ frame_needed = 0, uses_anonymous_args = 0
 1128              	.LVL73:
 1129              		.loc 1 712 0
 1130 0000 0378     		ldrb	r3, [r0]	@ zero_extendqisi2
 1131 0002 012B     		cmp	r3, #1
 1132              		.loc 1 709 0
 1133 0004 10B5     		push	{r4, lr}
ARM GAS  /tmp/cckHNjns.s 			page 21


 1134              		.cfi_def_cfa_offset 8
 1135              		.cfi_offset 4, -8
 1136              		.cfi_offset 14, -4
 1137              		.loc 1 709 0
 1138 0006 0446     		mov	r4, r0
 1139              		.loc 1 712 0
 1140 0008 0AD0     		beq	.L120
 1141              		.loc 1 715 0
 1142 000a FFF7FEFF 		bl	i2c_lld_abort_operation
 1143              	.LVL74:
 1144              		.loc 1 716 0
 1145 000e 206B     		ldr	r0, [r4, #48]
 1146 0010 FFF7FEFF 		bl	dmaStreamRelease
 1147              	.LVL75:
 1148              		.loc 1 717 0
 1149 0014 E06A     		ldr	r0, [r4, #44]
 1150 0016 FFF7FEFF 		bl	dmaStreamRelease
 1151              	.LVL76:
 1152              		.loc 1 720 0
 1153 001a 084B     		ldr	r3, .L125
 1154 001c 9C42     		cmp	r4, r3
 1155 001e 00D0     		beq	.L124
 1156              	.L120:
 1157 0020 10BD     		pop	{r4, pc}
 1158              	.LVL77:
 1159              	.L124:
 1160              		.loc 1 721 0
 1161 0022 1F20     		movs	r0, #31
 1162 0024 FFF7FEFF 		bl	nvicDisableVector
 1163              	.LVL78:
 1164              		.loc 1 722 0
 1165 0028 2020     		movs	r0, #32
 1166 002a FFF7FEFF 		bl	nvicDisableVector
 1167              	.LVL79:
 1168              		.loc 1 723 0
 1169 002e 044B     		ldr	r3, .L125+4
 1170 0030 1A6C     		ldr	r2, [r3, #64]
 1171 0032 22F40012 		bic	r2, r2, #2097152
 1172 0036 1A64     		str	r2, [r3, #64]
 1173 0038 F2E7     		b	.L120
 1174              	.L126:
 1175 003a 00BF     		.align	2
 1176              	.L125:
 1177 003c 00000000 		.word	.LANCHOR0
 1178 0040 00380240 		.word	1073887232
 1179              		.cfi_endproc
 1180              	.LFE130:
 1181              		.size	i2c_lld_stop, .-i2c_lld_stop
 1182 0044 AFF30080 		.section	.text.i2c_lld_master_receive_timeout,"ax",%progbits
 1182      AFF30080 
 1182      AFF30080 
 1183              		.align	2
 1184              		.p2align 4,,15
 1185              		.global	i2c_lld_master_receive_timeout
 1186              		.thumb
 1187              		.thumb_func
 1188              		.type	i2c_lld_master_receive_timeout, %function
ARM GAS  /tmp/cckHNjns.s 			page 22


 1189              	i2c_lld_master_receive_timeout:
 1190              	.LFB131:
 1191              		.loc 1 770 0
 1192              		.cfi_startproc
 1193              		@ args = 4, pretend = 0, frame = 24
 1194              		@ frame_needed = 0, uses_anonymous_args = 0
 1195              	.LVL80:
 1196 0000 2DE9F046 		push	{r4, r5, r6, r7, r9, r10, lr}
 1197              		.cfi_def_cfa_offset 28
 1198              		.cfi_offset 4, -28
 1199              		.cfi_offset 5, -24
 1200              		.cfi_offset 6, -20
 1201              		.cfi_offset 7, -16
 1202              		.cfi_offset 9, -12
 1203              		.cfi_offset 10, -8
 1204              		.cfi_offset 14, -4
 1205 0004 87B0     		sub	sp, sp, #28
 1206              		.cfi_def_cfa_offset 56
 1207              		.loc 1 770 0
 1208 0006 0646     		mov	r6, r0
 1209 0008 0E9D     		ldr	r5, [sp, #56]
 1210              		.loc 1 771 0
 1211 000a 446B     		ldr	r4, [r0, #52]
 1212              	.LVL81:
 1213              		.loc 1 779 0
 1214 000c 681C     		adds	r0, r5, #1
 1215              	.LVL82:
 1216              		.loc 1 770 0
 1217 000e 8A46     		mov	r10, r1
 1218 0010 9146     		mov	r9, r2
 1219 0012 1F46     		mov	r7, r3
 1220              		.loc 1 779 0
 1221 0014 05D0     		beq	.L128
 1222              		.loc 1 780 0
 1223 0016 01A8     		add	r0, sp, #4
 1224 0018 2946     		mov	r1, r5
 1225              	.LVL83:
 1226 001a 304A     		ldr	r2, .L150
 1227              	.LVL84:
 1228 001c 3346     		mov	r3, r6
 1229              	.LVL85:
 1230 001e FFF7FEFF 		bl	chVTSetI
 1231              	.LVL86:
 1232              	.L128:
 1233              	.LBB67:
 1234              		.loc 1 783 0
 1235 0022 0023     		movs	r3, #0
 1236              	@ 783 "../AithonLibrary/ChibiOS/os/hal/platforms/STM32/I2Cv1/i2c_lld.c" 1
 1237 0024 83F31188 		msr     BASEPRI, r3
 1238              	@ 0 "" 2
 1239              		.thumb
 1240              	.LBE67:
 1241              		.loc 1 790 0
 1242 0028 F06A     		ldr	r0, [r6, #44]
 1243 002a 726A     		ldr	r2, [r6, #36]
 1244 002c 0068     		ldr	r0, [r0]
 1245              		.loc 1 787 0
ARM GAS  /tmp/cckHNjns.s 			page 23


 1246 002e B360     		str	r3, [r6, #8]
 1247              		.loc 1 786 0
 1248 0030 4FEA4A0A 		lsl	r10, r10, #1
 1249 0034 4AF0010A 		orr	r10, r10, #1
 1250 0038 A6F820A0 		strh	r10, [r6, #32]	@ movhi
 1251              		.loc 1 790 0
 1252 003c 0260     		str	r2, [r0]
 1253              		.loc 1 791 0
 1254 003e C0F80C90 		str	r9, [r0, #12]
 1255              		.loc 1 792 0
 1256 0042 4760     		str	r7, [r0, #4]
 1257              		.loc 1 796 0
 1258 0044 02E0     		b	.L129
 1259              	.L130:
 1260              	.LBB68:
 1261              		.loc 1 800 0
 1262 0046 0023     		movs	r3, #0
 1263              	@ 800 "../AithonLibrary/ChibiOS/os/hal/platforms/STM32/I2Cv1/i2c_lld.c" 1
 1264 0048 83F31188 		msr     BASEPRI, r3
 1265              	@ 0 "" 2
 1266              		.thumb
 1267              	.L129:
 1268              	.LBE68:
 1269              		.loc 1 796 0 discriminator 1
 1270 004c 228B     		ldrh	r2, [r4, #24]
 1271 004e 12F0020F 		tst	r2, #2
 1272              	.LBB69:
 1273              		.loc 1 797 0 discriminator 1
 1274 0052 4FF02003 		mov	r3, #32
 1275              	.LBE69:
 1276              		.loc 1 796 0 discriminator 1
 1277 0056 02D1     		bne	.L132
 1278              		.loc 1 796 0 is_stmt 0 discriminator 2
 1279 0058 2288     		ldrh	r2, [r4]
 1280 005a 9205     		lsls	r2, r2, #22
 1281 005c 0BD5     		bpl	.L149
 1282              	.L132:
 1283              	.LBB70:
 1284              		.loc 1 797 0 is_stmt 1
 1285              	@ 797 "../AithonLibrary/ChibiOS/os/hal/platforms/STM32/I2Cv1/i2c_lld.c" 1
 1286 005e 83F31188 		msr     BASEPRI, r3
 1287              	@ 0 "" 2
 1288              		.thumb
 1289              	.LBE70:
 1290              		.loc 1 798 0
 1291 0062 691C     		adds	r1, r5, #1
 1292 0064 EFD0     		beq	.L130
 1293              		.loc 1 798 0 is_stmt 0 discriminator 1
 1294 0066 049A     		ldr	r2, [sp, #16]
 1295 0068 002A     		cmp	r2, #0
 1296 006a ECD1     		bne	.L130
 1297              	.L134:
 1298              		.loc 1 799 0 is_stmt 1
 1299 006c 4FF0FF30 		mov	r0, #-1
 1300              		.loc 1 822 0
 1301 0070 07B0     		add	sp, sp, #28
 1302              		@ sp needed
ARM GAS  /tmp/cckHNjns.s 			page 24


 1303 0072 BDE8F086 		pop	{r4, r5, r6, r7, r9, r10, pc}
 1304              	.LVL87:
 1305              	.L149:
 1306              	.LBB71:
 1307              		.loc 1 804 0
 1308              	@ 804 "../AithonLibrary/ChibiOS/os/hal/platforms/STM32/I2Cv1/i2c_lld.c" 1
 1309 0076 83F31188 		msr     BASEPRI, r3
 1310              	@ 0 "" 2
 1311              		.thumb
 1312              	.LBE71:
 1313              		.loc 1 808 0
 1314 007a 0135     		adds	r5, r5, #1
 1315 007c 1CD0     		beq	.L133
 1316              		.loc 1 808 0 is_stmt 0 discriminator 1
 1317 007e 049B     		ldr	r3, [sp, #16]
 1318 0080 002B     		cmp	r3, #0
 1319 0082 F3D0     		beq	.L134
 1320              		.loc 1 812 0 is_stmt 1
 1321 0084 A388     		ldrh	r3, [r4, #4]
 1322              		.loc 1 816 0
 1323 0086 164D     		ldr	r5, .L150+4
 1324              		.loc 1 812 0
 1325 0088 9BB2     		uxth	r3, r3
 1326 008a 43F40073 		orr	r3, r3, #512
 1327 008e A380     		strh	r3, [r4, #4]	@ movhi
 1328              		.loc 1 813 0
 1329 0090 2288     		ldrh	r2, [r4]
 1330              		.loc 1 816 0
 1331 0092 AB69     		ldr	r3, [r5, #24]
 1332              		.loc 1 813 0
 1333 0094 92B2     		uxth	r2, r2
 1334 0096 42F4A062 		orr	r2, r2, #1280
 1335 009a 2280     		strh	r2, [r4]	@ movhi
 1336              		.loc 1 817 0
 1337 009c 0220     		movs	r0, #2
 1338              		.loc 1 816 0
 1339 009e F361     		str	r3, [r6, #28]
 1340              		.loc 1 817 0
 1341 00a0 FFF7FEFF 		bl	chSchGoSleepS
 1342              	.LVL88:
 1343              		.loc 1 818 0
 1344 00a4 049B     		ldr	r3, [sp, #16]
 1345 00a6 13B1     		cbz	r3, .L136
 1346              		.loc 1 819 0
 1347 00a8 01A8     		add	r0, sp, #4
 1348 00aa FFF7FEFF 		bl	chVTResetI
 1349              	.LVL89:
 1350              	.L136:
 1351              		.loc 1 821 0
 1352 00ae AB69     		ldr	r3, [r5, #24]
 1353 00b0 586A     		ldr	r0, [r3, #36]
 1354              		.loc 1 822 0
 1355 00b2 07B0     		add	sp, sp, #28
 1356              		@ sp needed
 1357 00b4 BDE8F086 		pop	{r4, r5, r6, r7, r9, r10, pc}
 1358              	.LVL90:
 1359              	.L133:
ARM GAS  /tmp/cckHNjns.s 			page 25


 1360              		.loc 1 812 0
 1361 00b8 A388     		ldrh	r3, [r4, #4]
 1362              		.loc 1 816 0
 1363 00ba 094D     		ldr	r5, .L150+4
 1364              		.loc 1 812 0
 1365 00bc 9BB2     		uxth	r3, r3
 1366 00be 43F40073 		orr	r3, r3, #512
 1367 00c2 A380     		strh	r3, [r4, #4]	@ movhi
 1368              		.loc 1 813 0
 1369 00c4 2288     		ldrh	r2, [r4]
 1370              		.loc 1 816 0
 1371 00c6 AB69     		ldr	r3, [r5, #24]
 1372              		.loc 1 813 0
 1373 00c8 92B2     		uxth	r2, r2
 1374 00ca 42F4A062 		orr	r2, r2, #1280
 1375 00ce 2280     		strh	r2, [r4]	@ movhi
 1376              		.loc 1 817 0
 1377 00d0 0220     		movs	r0, #2
 1378              		.loc 1 816 0
 1379 00d2 F361     		str	r3, [r6, #28]
 1380              		.loc 1 817 0
 1381 00d4 FFF7FEFF 		bl	chSchGoSleepS
 1382              	.LVL91:
 1383 00d8 E9E7     		b	.L136
 1384              	.L151:
 1385 00da 00BF     		.align	2
 1386              	.L150:
 1387 00dc 00000000 		.word	i2c_lld_safety_timeout
 1388 00e0 00000000 		.word	rlist
 1389              		.cfi_endproc
 1390              	.LFE131:
 1391              		.size	i2c_lld_master_receive_timeout, .-i2c_lld_master_receive_timeout
 1392 00e4 AFF30080 		.section	.text.i2c_lld_master_transmit_timeout,"ax",%progbits
 1392      AFF30080 
 1392      AFF30080 
 1393              		.align	2
 1394              		.p2align 4,,15
 1395              		.global	i2c_lld_master_transmit_timeout
 1396              		.thumb
 1397              		.thumb_func
 1398              		.type	i2c_lld_master_transmit_timeout, %function
 1399              	i2c_lld_master_transmit_timeout:
 1400              	.LFB132:
 1401              		.loc 1 852 0
 1402              		.cfi_startproc
 1403              		@ args = 12, pretend = 0, frame = 24
 1404              		@ frame_needed = 0, uses_anonymous_args = 0
 1405              	.LVL92:
 1406 0000 2DE9F049 		push	{r4, r5, r6, r7, r8, fp, lr}
 1407              		.cfi_def_cfa_offset 28
 1408              		.cfi_offset 4, -28
 1409              		.cfi_offset 5, -24
 1410              		.cfi_offset 6, -20
 1411              		.cfi_offset 7, -16
 1412              		.cfi_offset 8, -12
 1413              		.cfi_offset 11, -8
 1414              		.cfi_offset 14, -4
ARM GAS  /tmp/cckHNjns.s 			page 26


 1415 0004 87B0     		sub	sp, sp, #28
 1416              		.cfi_def_cfa_offset 56
 1417              		.loc 1 852 0
 1418 0006 8046     		mov	r8, r0
 1419 0008 109D     		ldr	r5, [sp, #64]
 1420              		.loc 1 853 0
 1421 000a 446B     		ldr	r4, [r0, #52]
 1422              	.LVL93:
 1423              		.loc 1 862 0
 1424 000c 681C     		adds	r0, r5, #1
 1425              	.LVL94:
 1426              		.loc 1 852 0
 1427 000e 8B46     		mov	fp, r1
 1428 0010 1746     		mov	r7, r2
 1429 0012 1E46     		mov	r6, r3
 1430              		.loc 1 862 0
 1431 0014 05D0     		beq	.L153
 1432              		.loc 1 863 0
 1433 0016 01A8     		add	r0, sp, #4
 1434 0018 2946     		mov	r1, r5
 1435              	.LVL95:
 1436 001a 364A     		ldr	r2, .L175
 1437              	.LVL96:
 1438 001c 4346     		mov	r3, r8
 1439              	.LVL97:
 1440 001e FFF7FEFF 		bl	chVTSetI
 1441              	.LVL98:
 1442              	.L153:
 1443              	.LBB72:
 1444              		.loc 1 866 0
 1445 0022 0023     		movs	r3, #0
 1446              	@ 866 "../AithonLibrary/ChibiOS/os/hal/platforms/STM32/I2Cv1/i2c_lld.c" 1
 1447 0024 83F31188 		msr     BASEPRI, r3
 1448              	@ 0 "" 2
 1449              		.thumb
 1450              	.LBE72:
 1451              		.loc 1 878 0
 1452 0028 D8F82C20 		ldr	r2, [r8, #44]
 1453              		.loc 1 873 0
 1454 002c D8F83030 		ldr	r3, [r8, #48]
 1455              		.loc 1 878 0
 1456 0030 1068     		ldr	r0, [r2]
 1457              		.loc 1 873 0
 1458 0032 1B68     		ldr	r3, [r3]
 1459              		.loc 1 878 0
 1460 0034 D8F82410 		ldr	r1, [r8, #36]
 1461              		.loc 1 870 0
 1462 0038 0022     		movs	r2, #0
 1463 003a C8F80820 		str	r2, [r8, #8]
 1464              		.loc 1 869 0
 1465 003e 4FEA4B0B 		lsl	fp, fp, #1
 1466              		.loc 1 873 0
 1467 0042 D8F82820 		ldr	r2, [r8, #40]
 1468              		.loc 1 869 0
 1469 0046 A8F820B0 		strh	fp, [r8, #32]	@ movhi
 1470              		.loc 1 873 0
 1471 004a 1A60     		str	r2, [r3]
ARM GAS  /tmp/cckHNjns.s 			page 27


 1472              		.loc 1 874 0
 1473 004c DF60     		str	r7, [r3, #12]
 1474              		.loc 1 880 0
 1475 004e 0F9A     		ldr	r2, [sp, #60]
 1476              		.loc 1 875 0
 1477 0050 5E60     		str	r6, [r3, #4]
 1478              		.loc 1 879 0
 1479 0052 0E9B     		ldr	r3, [sp, #56]
 1480              		.loc 1 878 0
 1481 0054 0160     		str	r1, [r0]
 1482              		.loc 1 879 0
 1483 0056 C360     		str	r3, [r0, #12]
 1484              		.loc 1 880 0
 1485 0058 4260     		str	r2, [r0, #4]
 1486              		.loc 1 884 0
 1487 005a 02E0     		b	.L154
 1488              	.L155:
 1489              	.LBB73:
 1490              		.loc 1 888 0
 1491 005c 0023     		movs	r3, #0
 1492              	@ 888 "../AithonLibrary/ChibiOS/os/hal/platforms/STM32/I2Cv1/i2c_lld.c" 1
 1493 005e 83F31188 		msr     BASEPRI, r3
 1494              	@ 0 "" 2
 1495              		.thumb
 1496              	.L154:
 1497              	.LBE73:
 1498              		.loc 1 884 0 discriminator 1
 1499 0062 228B     		ldrh	r2, [r4, #24]
 1500 0064 12F0020F 		tst	r2, #2
 1501              	.LBB74:
 1502              		.loc 1 885 0 discriminator 1
 1503 0068 4FF02003 		mov	r3, #32
 1504              	.LBE74:
 1505              		.loc 1 884 0 discriminator 1
 1506 006c 02D1     		bne	.L157
 1507              		.loc 1 884 0 is_stmt 0 discriminator 2
 1508 006e 2288     		ldrh	r2, [r4]
 1509 0070 9205     		lsls	r2, r2, #22
 1510 0072 0BD5     		bpl	.L174
 1511              	.L157:
 1512              	.LBB75:
 1513              		.loc 1 885 0 is_stmt 1
 1514              	@ 885 "../AithonLibrary/ChibiOS/os/hal/platforms/STM32/I2Cv1/i2c_lld.c" 1
 1515 0074 83F31188 		msr     BASEPRI, r3
 1516              	@ 0 "" 2
 1517              		.thumb
 1518              	.LBE75:
 1519              		.loc 1 886 0
 1520 0078 691C     		adds	r1, r5, #1
 1521 007a EFD0     		beq	.L155
 1522              		.loc 1 886 0 is_stmt 0 discriminator 1
 1523 007c 049A     		ldr	r2, [sp, #16]
 1524 007e 002A     		cmp	r2, #0
 1525 0080 ECD1     		bne	.L155
 1526              	.L159:
 1527              		.loc 1 887 0 is_stmt 1
 1528 0082 4FF0FF30 		mov	r0, #-1
ARM GAS  /tmp/cckHNjns.s 			page 28


 1529              		.loc 1 910 0
 1530 0086 07B0     		add	sp, sp, #28
 1531              		@ sp needed
 1532 0088 BDE8F089 		pop	{r4, r5, r6, r7, r8, fp, pc}
 1533              	.LVL99:
 1534              	.L174:
 1535              	.LBB76:
 1536              		.loc 1 892 0
 1537              	@ 892 "../AithonLibrary/ChibiOS/os/hal/platforms/STM32/I2Cv1/i2c_lld.c" 1
 1538 008c 83F31188 		msr     BASEPRI, r3
 1539              	@ 0 "" 2
 1540              		.thumb
 1541              	.LBE76:
 1542              		.loc 1 896 0
 1543 0090 0135     		adds	r5, r5, #1
 1544 0092 1DD0     		beq	.L158
 1545              		.loc 1 896 0 is_stmt 0 discriminator 1
 1546 0094 049B     		ldr	r3, [sp, #16]
 1547 0096 002B     		cmp	r3, #0
 1548 0098 F3D0     		beq	.L159
 1549              		.loc 1 900 0 is_stmt 1
 1550 009a A388     		ldrh	r3, [r4, #4]
 1551              		.loc 1 904 0
 1552 009c 164D     		ldr	r5, .L175+4
 1553              		.loc 1 900 0
 1554 009e 9BB2     		uxth	r3, r3
 1555 00a0 43F40073 		orr	r3, r3, #512
 1556 00a4 A380     		strh	r3, [r4, #4]	@ movhi
 1557              		.loc 1 901 0
 1558 00a6 2288     		ldrh	r2, [r4]
 1559              		.loc 1 904 0
 1560 00a8 AB69     		ldr	r3, [r5, #24]
 1561              		.loc 1 901 0
 1562 00aa 92B2     		uxth	r2, r2
 1563 00ac 42F48072 		orr	r2, r2, #256
 1564 00b0 2280     		strh	r2, [r4]	@ movhi
 1565              		.loc 1 905 0
 1566 00b2 0220     		movs	r0, #2
 1567              		.loc 1 904 0
 1568 00b4 C8F81C30 		str	r3, [r8, #28]
 1569              		.loc 1 905 0
 1570 00b8 FFF7FEFF 		bl	chSchGoSleepS
 1571              	.LVL100:
 1572              		.loc 1 906 0
 1573 00bc 049B     		ldr	r3, [sp, #16]
 1574 00be 13B1     		cbz	r3, .L161
 1575              		.loc 1 907 0
 1576 00c0 01A8     		add	r0, sp, #4
 1577 00c2 FFF7FEFF 		bl	chVTResetI
 1578              	.LVL101:
 1579              	.L161:
 1580              		.loc 1 909 0
 1581 00c6 AB69     		ldr	r3, [r5, #24]
 1582 00c8 586A     		ldr	r0, [r3, #36]
 1583              		.loc 1 910 0
 1584 00ca 07B0     		add	sp, sp, #28
 1585              		@ sp needed
ARM GAS  /tmp/cckHNjns.s 			page 29


 1586 00cc BDE8F089 		pop	{r4, r5, r6, r7, r8, fp, pc}
 1587              	.LVL102:
 1588              	.L158:
 1589              		.loc 1 900 0
 1590 00d0 A388     		ldrh	r3, [r4, #4]
 1591              		.loc 1 904 0
 1592 00d2 094D     		ldr	r5, .L175+4
 1593              		.loc 1 900 0
 1594 00d4 9BB2     		uxth	r3, r3
 1595 00d6 43F40073 		orr	r3, r3, #512
 1596 00da A380     		strh	r3, [r4, #4]	@ movhi
 1597              		.loc 1 901 0
 1598 00dc 2288     		ldrh	r2, [r4]
 1599              		.loc 1 904 0
 1600 00de AB69     		ldr	r3, [r5, #24]
 1601              		.loc 1 901 0
 1602 00e0 92B2     		uxth	r2, r2
 1603 00e2 42F48072 		orr	r2, r2, #256
 1604 00e6 2280     		strh	r2, [r4]	@ movhi
 1605              		.loc 1 905 0
 1606 00e8 0220     		movs	r0, #2
 1607              		.loc 1 904 0
 1608 00ea C8F81C30 		str	r3, [r8, #28]
 1609              		.loc 1 905 0
 1610 00ee FFF7FEFF 		bl	chSchGoSleepS
 1611              	.LVL103:
 1612 00f2 E8E7     		b	.L161
 1613              	.L176:
 1614              		.align	2
 1615              	.L175:
 1616 00f4 00000000 		.word	i2c_lld_safety_timeout
 1617 00f8 00000000 		.word	rlist
 1618              		.cfi_endproc
 1619              	.LFE132:
 1620              		.size	i2c_lld_master_transmit_timeout, .-i2c_lld_master_transmit_timeout
 1621              		.global	I2CD1
 1622 00fc AFF30080 		.section	.bss.I2CD1,"aw",%nobits
 1623              		.align	2
 1624              		.set	.LANCHOR0,. + 0
 1625              		.type	I2CD1, %object
 1626              		.size	I2CD1, 56
 1627              	I2CD1:
 1628 0000 00000000 		.space	56
 1628      00000000 
 1628      00000000 
 1628      00000000 
 1628      00000000 
 1629              		.text
 1630              	.Letext0:
 1631              		.file 2 "/usr/lib/gcc/arm-none-eabi/4.8.3/include/stddef.h"
 1632              		.file 3 "/usr/arm-none-eabi/include/stdint.h"
 1633              		.file 4 "../AithonLibrary/ChibiOS/os/ports/GCC/ARMCMx/chtypes.h"
 1634              		.file 5 "../AithonLibrary/ChibiOS/os/kernel/include/chlists.h"
 1635              		.file 6 "../AithonLibrary/ChibiOS/os/kernel/include/chthreads.h"
 1636              		.file 7 "../AithonLibrary/ChibiOS/os/ports/GCC/ARMCMx/chcore_v7m.h"
 1637              		.file 8 "../AithonLibrary/ChibiOS/os/kernel/include/chvt.h"
 1638              		.file 9 "../AithonLibrary/ChibiOS/os/kernel/include/chschd.h"
ARM GAS  /tmp/cckHNjns.s 			page 30


 1639              		.file 10 "../AithonLibrary/ChibiOS/os/kernel/include/chmtx.h"
 1640              		.file 11 "../AithonLibrary/ChibiOS/os/hal/platforms/STM32F4xx/stm32f4xx.h"
 1641              		.file 12 "../AithonLibrary/ChibiOS/os/hal/platforms/STM32F4xx/stm32_dma.h"
 1642              		.file 13 "../AithonLibrary/ChibiOS/os/hal/include/i2c.h"
 1643              		.file 14 "../AithonLibrary/ChibiOS/os/hal/platforms/STM32/I2Cv1/i2c_lld.h"
 1644              		.file 15 "../AithonLibrary/ChibiOS/os/ports/common/ARMCMx/CMSIS/include/core_cm4.h"
 1645              		.file 16 "../AithonLibrary/ChibiOS/os/ports/common/ARMCMx/nvic.h"