ARM GAS  /tmp/ccHXrbU2.s 			page 1


   1              		.syntax unified
   2              		.cpu cortex-m4
   3              		.eabi_attribute 27, 3
   4              		.fpu fpv4-sp-d16
   5              		.eabi_attribute 20, 1
   6              		.eabi_attribute 21, 1
   7              		.eabi_attribute 23, 3
   8              		.eabi_attribute 24, 1
   9              		.eabi_attribute 25, 1
  10              		.eabi_attribute 26, 1
  11              		.eabi_attribute 30, 2
  12              		.eabi_attribute 34, 1
  13              		.eabi_attribute 18, 4
  14              		.thumb
  15              		.file	"imu.c"
  16              		.text
  17              	.Ltext0:
  18              		.cfi_sections	.debug_frame
  19              		.section	.text._imu_write,"ax",%progbits
  20              		.align	2
  21              		.p2align 4,,15
  22              		.global	_imu_write
  23              		.thumb
  24              		.thumb_func
  25              		.type	_imu_write, %function
  26              	_imu_write:
  27              	.LFB119:
  28              		.file 1 "../AithonLibrary/imu.c"
  29              		.loc 1 23 0
  30              		.cfi_startproc
  31              		@ args = 0, pretend = 0, frame = 8
  32              		@ frame_needed = 0, uses_anonymous_args = 0
  33              	.LVL0:
  34 0000 10B5     		push	{r4, lr}
  35              		.cfi_def_cfa_offset 8
  36              		.cfi_offset 4, -8
  37              		.cfi_offset 14, -4
  38 0002 86B0     		sub	sp, sp, #24
  39              		.cfi_def_cfa_offset 32
  40              		.loc 1 25 0
  41 0004 0023     		movs	r3, #0
  42 0006 4FF0FF34 		mov	r4, #-1
  43              		.loc 1 24 0
  44 000a 8DF81410 		strb	r1, [sp, #20]
  45 000e 8DF81520 		strb	r2, [sp, #21]
  46              		.loc 1 25 0
  47 0012 0146     		mov	r1, r0
  48              	.LVL1:
  49 0014 0093     		str	r3, [sp]
  50 0016 0193     		str	r3, [sp, #4]
  51 0018 0294     		str	r4, [sp, #8]
  52 001a 05AA     		add	r2, sp, #20
  53              	.LVL2:
  54 001c 0223     		movs	r3, #2
  55 001e 0248     		ldr	r0, .L2
  56              	.LVL3:
  57 0020 FFF7FEFF 		bl	i2cMasterTransmitTimeout
ARM GAS  /tmp/ccHXrbU2.s 			page 2


  58              	.LVL4:
  59              		.loc 1 26 0
  60 0024 06B0     		add	sp, sp, #24
  61              		@ sp needed
  62 0026 10BD     		pop	{r4, pc}
  63              	.L3:
  64              		.align	2
  65              	.L2:
  66 0028 00000000 		.word	I2CD1
  67              		.cfi_endproc
  68              	.LFE119:
  69              		.size	_imu_write, .-_imu_write
  70 002c AFF30080 		.section	.text._imu_read,"ax",%progbits
  71              		.align	2
  72              		.p2align 4,,15
  73              		.global	_imu_read
  74              		.thumb
  75              		.thumb_func
  76              		.type	_imu_read, %function
  77              	_imu_read:
  78              	.LFB120:
  79              		.loc 1 29 0
  80              		.cfi_startproc
  81              		@ args = 0, pretend = 0, frame = 16
  82              		@ frame_needed = 0, uses_anonymous_args = 0
  83              	.LVL5:
  84 0000 10B5     		push	{r4, lr}
  85              		.cfi_def_cfa_offset 8
  86              		.cfi_offset 4, -8
  87              		.cfi_offset 14, -4
  88 0002 88B0     		sub	sp, sp, #32
  89              		.cfi_def_cfa_offset 40
  90              		.loc 1 31 0
  91 0004 4FF0FF32 		mov	r2, #-1
  92 0008 0123     		movs	r3, #1
  93 000a 0292     		str	r2, [sp, #8]
  94 000c 0DF11F04 		add	r4, sp, #31
  95              		.loc 1 30 0
  96 0010 0022     		movs	r2, #0
  97              		.loc 1 29 0
  98 0012 8DF81710 		strb	r1, [sp, #23]
  99              		.loc 1 30 0
 100 0016 8DF81F20 		strb	r2, [sp, #31]
 101              		.loc 1 31 0
 102 001a 0146     		mov	r1, r0
 103              	.LVL6:
 104 001c 0094     		str	r4, [sp]
 105 001e 0193     		str	r3, [sp, #4]
 106 0020 0DF11702 		add	r2, sp, #23
 107              	.LVL7:
 108 0024 0348     		ldr	r0, .L5
 109              	.LVL8:
 110 0026 FFF7FEFF 		bl	i2cMasterTransmitTimeout
 111              	.LVL9:
 112              		.loc 1 33 0
 113 002a 9DF81F00 		ldrb	r0, [sp, #31]	@ zero_extendqisi2
 114 002e 08B0     		add	sp, sp, #32
ARM GAS  /tmp/ccHXrbU2.s 			page 3


 115              		@ sp needed
 116 0030 10BD     		pop	{r4, pc}
 117              	.LVL10:
 118              	.L6:
 119 0032 00BF     		.align	2
 120              	.L5:
 121 0034 00000000 		.word	I2CD1
 122              		.cfi_endproc
 123              	.LFE120:
 124              		.size	_imu_read, .-_imu_read
 125 0038 AFF30080 		.section	.text._imu_init,"ax",%progbits
 125      AFF30080 
 126              		.align	2
 127              		.p2align 4,,15
 128              		.global	_imu_init
 129              		.thumb
 130              		.thumb_func
 131              		.type	_imu_init, %function
 132              	_imu_init:
 133              	.LFB121:
 134              		.loc 1 43 0
 135              		.cfi_startproc
 136              		@ args = 0, pretend = 0, frame = 0
 137              		@ frame_needed = 0, uses_anonymous_args = 0
 138 0000 08B5     		push	{r3, lr}
 139              		.cfi_def_cfa_offset 8
 140              		.cfi_offset 3, -8
 141              		.cfi_offset 14, -4
 142              		.loc 1 44 0
 143 0002 FFF7FEFF 		bl	i2cInit
 144              	.LVL11:
 145              		.loc 1 45 0
 146 0006 0A48     		ldr	r0, .L8
 147 0008 0A49     		ldr	r1, .L8+4
 148 000a FFF7FEFF 		bl	i2cStart
 149              	.LVL12:
 150              		.loc 1 46 0
 151 000e 0020     		movs	r0, #0
 152 0010 2021     		movs	r1, #32
 153 0012 7722     		movs	r2, #119
 154 0014 FFF7FEFF 		bl	_imu_write
 155              	.LVL13:
 156              		.loc 1 47 0
 157 0018 0020     		movs	r0, #0
 158 001a 2321     		movs	r1, #35
 159 001c 0822     		movs	r2, #8
 160 001e FFF7FEFF 		bl	_imu_write
 161              	.LVL14:
 162              		.loc 1 48 0
 163 0022 0120     		movs	r0, #1
 164 0024 2021     		movs	r1, #32
 165 0026 8F22     		movs	r2, #143
 166              		.loc 1 49 0
 167 0028 BDE80840 		pop	{r3, lr}
 168              		.loc 1 48 0
 169 002c FFF7FEBF 		b	_imu_write
 170              	.LVL15:
ARM GAS  /tmp/ccHXrbU2.s 			page 4


 171              	.L9:
 172              		.align	2
 173              	.L8:
 174 0030 00000000 		.word	I2CD1
 175 0034 00000000 		.word	.LANCHOR0
 176              		.cfi_endproc
 177              	.LFE121:
 178              		.size	_imu_init, .-_imu_init
 179 0038 AFF30080 		.section	.text.imu_getReading,"ax",%progbits
 179      AFF30080 
 180              		.align	2
 181              		.p2align 4,,15
 182              		.global	imu_getReading
 183              		.thumb
 184              		.thumb_func
 185              		.type	imu_getReading, %function
 186              	imu_getReading:
 187              	.LFB122:
 188              		.loc 1 52 0
 189              		.cfi_startproc
 190              		@ args = 0, pretend = 0, frame = 0
 191              		@ frame_needed = 0, uses_anonymous_args = 0
 192              	.LVL16:
 193 0000 2DE9F041 		push	{r4, r5, r6, r7, r8, lr}
 194              		.cfi_def_cfa_offset 24
 195              		.cfi_offset 4, -24
 196              		.cfi_offset 5, -20
 197              		.cfi_offset 6, -16
 198              		.cfi_offset 7, -12
 199              		.cfi_offset 8, -8
 200              		.cfi_offset 14, -4
 201              		.loc 1 52 0
 202 0004 0446     		mov	r4, r0
 203              		.loc 1 55 0
 204 0006 0029     		cmp	r1, #0
 205 0008 32D0     		beq	.L13
 206              		.loc 1 57 0
 207 000a 0129     		cmp	r1, #1
 208 000c 06D0     		beq	.L14
 209              		.loc 1 60 0
 210 000e 0023     		movs	r3, #0
 211 0010 0380     		strh	r3, [r0]	@ movhi
 212 0012 4380     		strh	r3, [r0, #2]	@ movhi
 213 0014 8380     		strh	r3, [r0, #4]	@ movhi
 214              		.loc 1 66 0
 215 0016 2046     		mov	r0, r4
 216 0018 BDE8F081 		pop	{r4, r5, r6, r7, r8, pc}
 217              	.L14:
 218              		.loc 1 58 0
 219 001c 6A25     		movs	r5, #106
 220              	.L11:
 221              	.LVL17:
 222              		.loc 1 62 0
 223 001e 2846     		mov	r0, r5
 224              	.LVL18:
 225 0020 2921     		movs	r1, #41
 226              	.LVL19:
ARM GAS  /tmp/ccHXrbU2.s 			page 5


 227 0022 FFF7FEFF 		bl	_imu_read
 228              	.LVL20:
 229 0026 2821     		movs	r1, #40
 230 0028 0746     		mov	r7, r0
 231 002a 2846     		mov	r0, r5
 232 002c FFF7FEFF 		bl	_imu_read
 233              	.LVL21:
 234              		.loc 1 63 0
 235 0030 2B21     		movs	r1, #43
 236              		.loc 1 62 0
 237 0032 40EA0727 		orr	r7, r0, r7, lsl #8
 238              		.loc 1 63 0
 239 0036 2846     		mov	r0, r5
 240 0038 FFF7FEFF 		bl	_imu_read
 241              	.LVL22:
 242 003c 2A21     		movs	r1, #42
 243 003e 0646     		mov	r6, r0
 244 0040 2846     		mov	r0, r5
 245 0042 FFF7FEFF 		bl	_imu_read
 246              	.LVL23:
 247              		.loc 1 64 0
 248 0046 2D21     		movs	r1, #45
 249              		.loc 1 63 0
 250 0048 40EA0626 		orr	r6, r0, r6, lsl #8
 251              		.loc 1 64 0
 252 004c 2846     		mov	r0, r5
 253 004e FFF7FEFF 		bl	_imu_read
 254              	.LVL24:
 255 0052 2C21     		movs	r1, #44
 256 0054 8046     		mov	r8, r0
 257 0056 2846     		mov	r0, r5
 258 0058 FFF7FEFF 		bl	_imu_read
 259              	.LVL25:
 260              		.loc 1 62 0
 261 005c BFB2     		uxth	r7, r7
 262              	.LVL26:
 263              		.loc 1 64 0
 264 005e 40EA0820 		orr	r0, r0, r8, lsl #8
 265              		.loc 1 63 0
 266 0062 B6B2     		uxth	r6, r6
 267              	.LVL27:
 268              		.loc 1 65 0
 269 0064 A080     		strh	r0, [r4, #4]	@ movhi
 270 0066 2780     		strh	r7, [r4]	@ movhi
 271 0068 6680     		strh	r6, [r4, #2]	@ movhi
 272              		.loc 1 66 0
 273 006a 2046     		mov	r0, r4
 274 006c BDE8F081 		pop	{r4, r5, r6, r7, r8, pc}
 275              	.LVL28:
 276              	.L13:
 277              		.loc 1 56 0
 278 0070 1925     		movs	r5, #25
 279 0072 D4E7     		b	.L11
 280              		.cfi_endproc
 281              	.LFE122:
 282              		.size	imu_getReading, .-imu_getReading
 283 0074 AFF30080 		.section	.text.imu_getTemp,"ax",%progbits
ARM GAS  /tmp/ccHXrbU2.s 			page 6


 283      AFF30080 
 283      AFF30080 
 284              		.align	2
 285              		.p2align 4,,15
 286              		.global	imu_getTemp
 287              		.thumb
 288              		.thumb_func
 289              		.type	imu_getTemp, %function
 290              	imu_getTemp:
 291              	.LFB123:
 292              		.loc 1 69 0
 293              		.cfi_startproc
 294              		@ args = 0, pretend = 0, frame = 0
 295              		@ frame_needed = 0, uses_anonymous_args = 0
 296 0000 08B5     		push	{r3, lr}
 297              		.cfi_def_cfa_offset 8
 298              		.cfi_offset 3, -8
 299              		.cfi_offset 14, -4
 300              		.loc 1 70 0
 301 0002 2621     		movs	r1, #38
 302 0004 6A20     		movs	r0, #106
 303 0006 FFF7FEFF 		bl	_imu_read
 304              	.LVL29:
 305              		.loc 1 71 0
 306 000a 40B2     		sxtb	r0, r0
 307 000c 08BD     		pop	{r3, pc}
 308              		.cfi_endproc
 309              	.LFE123:
 310              		.size	imu_getTemp, .-imu_getTemp
 311 000e 00BF     		.section	.rodata.imu_config,"a",%progbits
 312              		.align	2
 313              		.set	.LANCHOR0,. + 0
 314              		.type	imu_config, %object
 315              		.size	imu_config, 12
 316              	imu_config:
 317 0000 01       		.byte	1
 318 0001 000000   		.space	3
 319 0004 A0860100 		.word	100000
 320 0008 01       		.byte	1
 321 0009 000000   		.space	3
 322              		.text
 323              	.Letext0:
 324              		.file 2 "/usr/lib/gcc/arm-none-eabi/4.8.3/include/stddef.h"
 325              		.file 3 "/usr/arm-none-eabi/include/stdint.h"
 326              		.file 4 "../AithonLibrary/ChibiOS/os/ports/GCC/ARMCMx/chtypes.h"
 327              		.file 5 "../AithonLibrary/ChibiOS/os/kernel/include/chlists.h"
 328              		.file 6 "../AithonLibrary/ChibiOS/os/kernel/include/chthreads.h"
 329              		.file 7 "../AithonLibrary/ChibiOS/os/ports/GCC/ARMCMx/chcore_v7m.h"
 330              		.file 8 "../AithonLibrary/ChibiOS/os/kernel/include/chmtx.h"
 331              		.file 9 "../AithonLibrary/ChibiOS/os/hal/platforms/STM32F4xx/stm32f4xx.h"
 332              		.file 10 "../AithonLibrary/ChibiOS/os/hal/platforms/STM32F4xx/stm32_dma.h"
 333              		.file 11 "../AithonLibrary/ChibiOS/os/hal/include/i2c.h"
 334              		.file 12 "../AithonLibrary/ChibiOS/os/hal/platforms/STM32/I2Cv1/i2c_lld.h"
 335              		.file 13 "../AithonLibrary/Aithon.h"
 336              		.file 14 "../AithonLibrary/ChibiOS/os/ports/common/ARMCMx/CMSIS/include/core_cm4.h"