ARM GAS  /tmp/ccSY1si9.s 			page 1


   1              		.syntax unified
   2              		.cpu cortex-m4
   3              		.eabi_attribute 27, 3
   4              		.fpu fpv4-sp-d16
   5              		.eabi_attribute 20, 1
   6              		.eabi_attribute 21, 1
   7              		.eabi_attribute 23, 3
   8              		.eabi_attribute 24, 1
   9              		.eabi_attribute 25, 1
  10              		.eabi_attribute 26, 1
  11              		.eabi_attribute 30, 2
  12              		.eabi_attribute 34, 1
  13              		.eabi_attribute 18, 4
  14              		.thumb
  15              		.file	"lcd.c"
  16              		.text
  17              	.Ltext0:
  18              		.cfi_sections	.debug_frame
  19              		.section	.text._write_byte,"ax",%progbits
  20              		.align	2
  21              		.p2align 4,,15
  22              		.global	_write_byte
  23              		.thumb
  24              		.thumb_func
  25              		.type	_write_byte, %function
  26              	_write_byte:
  27              	.LFB120:
  28              		.file 1 "../AithonLibrary/lcd.c"
  29              		.loc 1 37 0
  30              		.cfi_startproc
  31              		@ args = 0, pretend = 0, frame = 0
  32              		@ frame_needed = 0, uses_anonymous_args = 0
  33              	.LVL0:
  34              		.loc 1 39 0
  35 0000 104B     		ldr	r3, .L7
  36              		.loc 1 37 0
  37 0002 2DE9F041 		push	{r4, r5, r6, r7, r8, lr}
  38              		.cfi_def_cfa_offset 24
  39              		.cfi_offset 4, -24
  40              		.cfi_offset 5, -20
  41              		.cfi_offset 6, -16
  42              		.cfi_offset 7, -12
  43              		.cfi_offset 8, -8
  44              		.cfi_offset 14, -4
  45              		.loc 1 39 0
  46 0006 0122     		movs	r2, #1
  47              		.loc 1 44 0
  48 0008 0F4D     		ldr	r5, .L7+4
  49              		.loc 1 39 0
  50 000a 1A83     		strh	r2, [r3, #24]	@ movhi
  51              	.LVL1:
  52              		.loc 1 37 0
  53 000c 8046     		mov	r8, r0
  54              		.loc 1 42 0
  55 000e 0024     		movs	r4, #0
  56              		.loc 1 44 0
  57 0010 4FF48066 		mov	r6, #1024	@ movhi
ARM GAS  /tmp/ccSY1si9.s 			page 2


  58              		.loc 1 45 0
  59 0014 8027     		movs	r7, #128
  60              	.LVL2:
  61              	.L5:
  62 0016 47FA04F3 		asr	r3, r7, r4
  63 001a 13EA080F 		tst	r3, r8
  64              		.loc 1 46 0
  65 001e 4FF48073 		mov	r3, #256
  66              		.loc 1 44 0
  67 0022 6E83     		strh	r6, [r5, #26]	@ movhi
  68              		.loc 1 42 0
  69 0024 04F10104 		add	r4, r4, #1
  70              	.LVL3:
  71              		.loc 1 46 0
  72 0028 14BF     		ite	ne
  73 002a 2B83     		strhne	r3, [r5, #24]	@ movhi
  74              		.loc 1 48 0
  75 002c 6B83     		strheq	r3, [r5, #26]	@ movhi
  76              		.loc 1 50 0
  77 002e A820     		movs	r0, #168
  78              		.loc 1 49 0
  79 0030 2E83     		strh	r6, [r5, #24]	@ movhi
  80              		.loc 1 50 0
  81 0032 FFF7FEFF 		bl	halPolledDelay
  82              	.LVL4:
  83              		.loc 1 42 0
  84 0036 082C     		cmp	r4, #8
  85 0038 EDD1     		bne	.L5
  86              		.loc 1 53 0
  87 003a 024B     		ldr	r3, .L7
  88 003c 0122     		movs	r2, #1
  89 003e 5A83     		strh	r2, [r3, #26]	@ movhi
  90 0040 BDE8F081 		pop	{r4, r5, r6, r7, r8, pc}
  91              	.LVL5:
  92              	.L8:
  93              		.align	2
  94              	.L7:
  95 0044 000C0240 		.word	1073875968
  96 0048 00000240 		.word	1073872896
  97              		.cfi_endproc
  98              	.LFE120:
  99              		.size	_write_byte, .-_write_byte
 100 004c AFF30080 		.section	.text._write_data,"ax",%progbits
 101              		.align	2
 102              		.p2align 4,,15
 103              		.global	_write_data
 104              		.thumb
 105              		.thumb_func
 106              		.type	_write_data, %function
 107              	_write_data:
 108              	.LFB121:
 109              		.loc 1 57 0
 110              		.cfi_startproc
 111              		@ args = 0, pretend = 0, frame = 0
 112              		@ frame_needed = 0, uses_anonymous_args = 0
 113              	.LVL6:
 114 0000 08B5     		push	{r3, lr}
ARM GAS  /tmp/ccSY1si9.s 			page 3


 115              		.cfi_def_cfa_offset 8
 116              		.cfi_offset 3, -8
 117              		.cfi_offset 14, -4
 118              		.loc 1 59 0
 119 0002 054B     		ldr	r3, .L10
 120 0004 0222     		movs	r2, #2
 121 0006 1A83     		strh	r2, [r3, #24]	@ movhi
 122              		.loc 1 60 0
 123 0008 FFF7FEFF 		bl	_write_byte
 124              	.LVL7:
 125              		.loc 1 61 0
 126 000c 42F2D000 		movw	r0, #8400
 127              		.loc 1 62 0
 128 0010 BDE80840 		pop	{r3, lr}
 129              		.loc 1 61 0
 130 0014 FFF7FEBF 		b	halPolledDelay
 131              	.LVL8:
 132              	.L11:
 133              		.align	2
 134              	.L10:
 135 0018 000C0240 		.word	1073875968
 136              		.cfi_endproc
 137              	.LFE121:
 138              		.size	_write_data, .-_write_data
 139 001c AFF30080 		.section	.text._write_control,"ax",%progbits
 140              		.align	2
 141              		.p2align 4,,15
 142              		.global	_write_control
 143              		.thumb
 144              		.thumb_func
 145              		.type	_write_control, %function
 146              	_write_control:
 147              	.LFB122:
 148              		.loc 1 66 0
 149              		.cfi_startproc
 150              		@ args = 0, pretend = 0, frame = 0
 151              		@ frame_needed = 0, uses_anonymous_args = 0
 152              	.LVL9:
 153 0000 08B5     		push	{r3, lr}
 154              		.cfi_def_cfa_offset 8
 155              		.cfi_offset 3, -8
 156              		.cfi_offset 14, -4
 157              		.loc 1 68 0
 158 0002 054B     		ldr	r3, .L13
 159 0004 0222     		movs	r2, #2
 160 0006 5A83     		strh	r2, [r3, #26]	@ movhi
 161              		.loc 1 69 0
 162 0008 FFF7FEFF 		bl	_write_byte
 163              	.LVL10:
 164              		.loc 1 71 0
 165 000c 44F2A010 		movw	r0, #16800
 166              		.loc 1 72 0
 167 0010 BDE80840 		pop	{r3, lr}
 168              		.loc 1 71 0
 169 0014 FFF7FEBF 		b	halPolledDelay
 170              	.LVL11:
 171              	.L14:
ARM GAS  /tmp/ccSY1si9.s 			page 4


 172              		.align	2
 173              	.L13:
 174 0018 000C0240 		.word	1073875968
 175              		.cfi_endproc
 176              	.LFE122:
 177              		.size	_write_control, .-_write_control
 178 001c AFF30080 		.section	.text.lcd_clear,"ax",%progbits
 179              		.align	2
 180              		.p2align 4,,15
 181              		.global	lcd_clear
 182              		.thumb
 183              		.thumb_func
 184              		.type	lcd_clear, %function
 185              	lcd_clear:
 186              	.LFB124:
 187              		.loc 1 111 0
 188              		.cfi_startproc
 189              		@ args = 0, pretend = 0, frame = 0
 190              		@ frame_needed = 0, uses_anonymous_args = 0
 191              	.LVL12:
 192 0000 08B5     		push	{r3, lr}
 193              		.cfi_def_cfa_offset 8
 194              		.cfi_offset 3, -8
 195              		.cfi_offset 14, -4
 196              	.LBB22:
 197              	.LBB23:
 198              		.loc 1 68 0
 199 0002 074B     		ldr	r3, .L16
 200 0004 0222     		movs	r2, #2
 201 0006 5A83     		strh	r2, [r3, #26]	@ movhi
 202              		.loc 1 69 0
 203 0008 0120     		movs	r0, #1
 204 000a FFF7FEFF 		bl	_write_byte
 205              	.LVL13:
 206              		.loc 1 71 0
 207 000e 44F2A010 		movw	r0, #16800
 208 0012 FFF7FEFF 		bl	halPolledDelay
 209              	.LVL14:
 210              	.LBE23:
 211              	.LBE22:
 212              		.loc 1 113 0
 213 0016 0348     		ldr	r0, .L16+4
 214              		.loc 1 114 0
 215 0018 BDE80840 		pop	{r3, lr}
 216              		.loc 1 113 0
 217 001c FFF7FEBF 		b	halPolledDelay
 218              	.LVL15:
 219              	.L17:
 220              		.align	2
 221              	.L16:
 222 0020 000C0240 		.word	1073875968
 223 0024 A0750800 		.word	554400
 224              		.cfi_endproc
 225              	.LFE124:
 226              		.size	lcd_clear, .-lcd_clear
 227 0028 AFF30080 		.section	.text.lcd_on,"ax",%progbits
 227      AFF30080 
ARM GAS  /tmp/ccSY1si9.s 			page 5


 228              		.align	2
 229              		.p2align 4,,15
 230              		.global	lcd_on
 231              		.thumb
 232              		.thumb_func
 233              		.type	lcd_on, %function
 234              	lcd_on:
 235              	.LFB125:
 236              		.loc 1 118 0
 237              		.cfi_startproc
 238              		@ args = 0, pretend = 0, frame = 0
 239              		@ frame_needed = 0, uses_anonymous_args = 0
 240              	.LVL16:
 241 0000 08B5     		push	{r3, lr}
 242              		.cfi_def_cfa_offset 8
 243              		.cfi_offset 3, -8
 244              		.cfi_offset 14, -4
 245              	.LBB24:
 246              	.LBB25:
 247              		.loc 1 68 0
 248 0002 064B     		ldr	r3, .L19
 249 0004 0222     		movs	r2, #2
 250 0006 5A83     		strh	r2, [r3, #26]	@ movhi
 251              		.loc 1 69 0
 252 0008 0C20     		movs	r0, #12
 253 000a FFF7FEFF 		bl	_write_byte
 254              	.LVL17:
 255              		.loc 1 71 0
 256 000e 44F2A010 		movw	r0, #16800
 257              	.LBE25:
 258              	.LBE24:
 259              		.loc 1 120 0
 260 0012 BDE80840 		pop	{r3, lr}
 261              	.LBB27:
 262              	.LBB26:
 263              		.loc 1 71 0
 264 0016 FFF7FEBF 		b	halPolledDelay
 265              	.LVL18:
 266              	.L20:
 267 001a 00BF     		.align	2
 268              	.L19:
 269 001c 000C0240 		.word	1073875968
 270              	.LBE26:
 271              	.LBE27:
 272              		.cfi_endproc
 273              	.LFE125:
 274              		.size	lcd_on, .-lcd_on
 275              		.section	.text.lcd_off,"ax",%progbits
 276              		.align	2
 277              		.p2align 4,,15
 278              		.global	lcd_off
 279              		.thumb
 280              		.thumb_func
 281              		.type	lcd_off, %function
 282              	lcd_off:
 283              	.LFB126:
 284              		.loc 1 124 0
ARM GAS  /tmp/ccSY1si9.s 			page 6


 285              		.cfi_startproc
 286              		@ args = 0, pretend = 0, frame = 0
 287              		@ frame_needed = 0, uses_anonymous_args = 0
 288              	.LVL19:
 289 0000 08B5     		push	{r3, lr}
 290              		.cfi_def_cfa_offset 8
 291              		.cfi_offset 3, -8
 292              		.cfi_offset 14, -4
 293              	.LBB28:
 294              	.LBB29:
 295              		.loc 1 68 0
 296 0002 064B     		ldr	r3, .L22
 297 0004 0222     		movs	r2, #2
 298 0006 5A83     		strh	r2, [r3, #26]	@ movhi
 299              		.loc 1 69 0
 300 0008 0820     		movs	r0, #8
 301 000a FFF7FEFF 		bl	_write_byte
 302              	.LVL20:
 303              		.loc 1 71 0
 304 000e 44F2A010 		movw	r0, #16800
 305              	.LBE29:
 306              	.LBE28:
 307              		.loc 1 126 0
 308 0012 BDE80840 		pop	{r3, lr}
 309              	.LBB31:
 310              	.LBB30:
 311              		.loc 1 71 0
 312 0016 FFF7FEBF 		b	halPolledDelay
 313              	.LVL21:
 314              	.L23:
 315 001a 00BF     		.align	2
 316              	.L22:
 317 001c 000C0240 		.word	1073875968
 318              	.LBE30:
 319              	.LBE31:
 320              		.cfi_endproc
 321              	.LFE126:
 322              		.size	lcd_off, .-lcd_off
 323              		.section	.text._lcd_init,"ax",%progbits
 324              		.align	2
 325              		.p2align 4,,15
 326              		.global	_lcd_init
 327              		.thumb
 328              		.thumb_func
 329              		.type	_lcd_init, %function
 330              	_lcd_init:
 331              	.LFB123:
 332              		.loc 1 76 0
 333              		.cfi_startproc
 334              		@ args = 0, pretend = 0, frame = 0
 335              		@ frame_needed = 0, uses_anonymous_args = 0
 336 0000 38B5     		push	{r3, r4, r5, lr}
 337              		.cfi_def_cfa_offset 16
 338              		.cfi_offset 3, -16
 339              		.cfi_offset 4, -12
 340              		.cfi_offset 5, -8
 341              		.cfi_offset 14, -4
ARM GAS  /tmp/ccSY1si9.s 			page 7


 342              		.loc 1 77 0
 343 0002 204B     		ldr	r3, .L25
 344 0004 204A     		ldr	r2, .L25+4
 345              		.loc 1 80 0
 346 0006 214C     		ldr	r4, .L25+8
 347              		.loc 1 77 0
 348 0008 1A60     		str	r2, [r3]
 349              		.loc 1 80 0
 350 000a 0123     		movs	r3, #1
 351 000c 6383     		strh	r3, [r4, #26]	@ movhi
 352              	.LBB32:
 353              	.LBB33:
 354              		.loc 1 68 0
 355 000e 0225     		movs	r5, #2
 356              	.LBE33:
 357              	.LBE32:
 358              		.loc 1 83 0
 359 0010 0F20     		movs	r0, #15
 360 0012 FFF7FEFF 		bl	chThdSleep
 361              	.LVL22:
 362              	.LBB35:
 363              	.LBB34:
 364              		.loc 1 68 0
 365 0016 6583     		strh	r5, [r4, #26]	@ movhi
 366              		.loc 1 69 0
 367 0018 3820     		movs	r0, #56
 368 001a FFF7FEFF 		bl	_write_byte
 369              	.LVL23:
 370              		.loc 1 71 0
 371 001e 44F2A010 		movw	r0, #16800
 372 0022 FFF7FEFF 		bl	halPolledDelay
 373              	.LVL24:
 374              	.LBE34:
 375              	.LBE35:
 376              		.loc 1 87 0
 377 0026 1A48     		ldr	r0, .L25+12
 378 0028 FFF7FEFF 		bl	halPolledDelay
 379              	.LVL25:
 380              	.LBB36:
 381              	.LBB37:
 382              		.loc 1 68 0
 383 002c 6583     		strh	r5, [r4, #26]	@ movhi
 384              		.loc 1 69 0
 385 002e 3820     		movs	r0, #56
 386 0030 FFF7FEFF 		bl	_write_byte
 387              	.LVL26:
 388              		.loc 1 71 0
 389 0034 44F2A010 		movw	r0, #16800
 390 0038 FFF7FEFF 		bl	halPolledDelay
 391              	.LVL27:
 392              	.LBE37:
 393              	.LBE36:
 394              		.loc 1 89 0
 395 003c 42F2D000 		movw	r0, #8400
 396 0040 FFF7FEFF 		bl	halPolledDelay
 397              	.LVL28:
 398              	.LBB38:
ARM GAS  /tmp/ccSY1si9.s 			page 8


 399              	.LBB39:
 400              		.loc 1 68 0
 401 0044 6583     		strh	r5, [r4, #26]	@ movhi
 402              		.loc 1 69 0
 403 0046 3820     		movs	r0, #56
 404 0048 FFF7FEFF 		bl	_write_byte
 405              	.LVL29:
 406              		.loc 1 71 0
 407 004c 44F2A010 		movw	r0, #16800
 408 0050 FFF7FEFF 		bl	halPolledDelay
 409              	.LVL30:
 410              	.LBE39:
 411              	.LBE38:
 412              	.LBB40:
 413              	.LBB41:
 414              		.loc 1 68 0
 415 0054 6583     		strh	r5, [r4, #26]	@ movhi
 416              		.loc 1 69 0
 417 0056 3820     		movs	r0, #56
 418 0058 FFF7FEFF 		bl	_write_byte
 419              	.LVL31:
 420              		.loc 1 71 0
 421 005c 44F2A010 		movw	r0, #16800
 422 0060 FFF7FEFF 		bl	halPolledDelay
 423              	.LVL32:
 424              	.LBE41:
 425              	.LBE40:
 426              		.loc 1 96 0
 427 0064 FFF7FEFF 		bl	lcd_off
 428              	.LVL33:
 429              		.loc 1 99 0
 430 0068 FFF7FEFF 		bl	lcd_clear
 431              	.LVL34:
 432              	.LBB42:
 433              	.LBB43:
 434              		.loc 1 68 0
 435 006c 6583     		strh	r5, [r4, #26]	@ movhi
 436              		.loc 1 69 0
 437 006e 0620     		movs	r0, #6
 438 0070 FFF7FEFF 		bl	_write_byte
 439              	.LVL35:
 440              		.loc 1 71 0
 441 0074 44F2A010 		movw	r0, #16800
 442 0078 FFF7FEFF 		bl	halPolledDelay
 443              	.LVL36:
 444              	.LBE43:
 445              	.LBE42:
 446              		.loc 1 106 0
 447 007c BDE83840 		pop	{r3, r4, r5, lr}
 448              		.loc 1 105 0
 449 0080 FFF7FEBF 		b	lcd_on
 450              	.LVL37:
 451              	.L26:
 452              		.align	2
 453              	.L25:
 454 0084 00000000 		.word	.LANCHOR0
 455 0088 00000000 		.word	.LANCHOR1
ARM GAS  /tmp/ccSY1si9.s 			page 9


 456 008c 000C0240 		.word	1073875968
 457 0090 A08F0C00 		.word	823200
 458              		.cfi_endproc
 459              	.LFE123:
 460              		.size	_lcd_init, .-_lcd_init
 461 0094 AFF30080 		.section	.text.lcd_cursor,"ax",%progbits
 461      AFF30080 
 461      AFF30080 
 462              		.align	2
 463              		.p2align 4,,15
 464              		.global	lcd_cursor
 465              		.thumb
 466              		.thumb_func
 467              		.type	lcd_cursor, %function
 468              	lcd_cursor:
 469              	.LFB127:
 470              		.loc 1 130 0
 471              		.cfi_startproc
 472              		@ args = 0, pretend = 0, frame = 0
 473              		@ frame_needed = 0, uses_anonymous_args = 0
 474              	.LVL38:
 475              		.loc 1 131 0
 476 0000 0F28     		cmp	r0, #15
 477              		.loc 1 130 0
 478 0002 08B5     		push	{r3, lr}
 479              		.cfi_def_cfa_offset 8
 480              		.cfi_offset 3, -8
 481              		.cfi_offset 14, -4
 482              		.loc 1 131 0
 483 0004 01D8     		bhi	.L27
 484              		.loc 1 131 0 is_stmt 0 discriminator 1
 485 0006 0129     		cmp	r1, #1
 486 0008 00D9     		bls	.L29
 487              	.L27:
 488 000a 08BD     		pop	{r3, pc}
 489              	.L29:
 490              	.LVL39:
 491              	.LBB44:
 492              	.LBB45:
 493              		.loc 1 68 0 is_stmt 1
 494 000c 074B     		ldr	r3, .L30
 495              	.LBE45:
 496              	.LBE44:
 497              		.loc 1 136 0
 498 000e 0231     		adds	r1, r1, #2
 499              	.LVL40:
 500 0010 00EB8110 		add	r0, r0, r1, lsl #6
 501              	.LVL41:
 502              	.LBB48:
 503              	.LBB46:
 504              		.loc 1 68 0
 505 0014 0222     		movs	r2, #2
 506              		.loc 1 69 0
 507 0016 C0B2     		uxtb	r0, r0
 508              		.loc 1 68 0
 509 0018 5A83     		strh	r2, [r3, #26]	@ movhi
 510              		.loc 1 69 0
ARM GAS  /tmp/ccSY1si9.s 			page 10


 511 001a FFF7FEFF 		bl	_write_byte
 512              	.LVL42:
 513              		.loc 1 71 0
 514 001e 44F2A010 		movw	r0, #16800
 515              	.LBE46:
 516              	.LBE48:
 517              		.loc 1 138 0
 518 0022 BDE80840 		pop	{r3, lr}
 519              	.LBB49:
 520              	.LBB47:
 521              		.loc 1 71 0
 522 0026 FFF7FEBF 		b	halPolledDelay
 523              	.LVL43:
 524              	.L31:
 525 002a 00BF     		.align	2
 526              	.L30:
 527 002c 000C0240 		.word	1073875968
 528              	.LBE47:
 529              	.LBE49:
 530              		.cfi_endproc
 531              	.LFE127:
 532              		.size	lcd_cursor, .-lcd_cursor
 533              		.section	.text.lcd_printChar,"ax",%progbits
 534              		.align	2
 535              		.p2align 4,,15
 536              		.global	lcd_printChar
 537              		.thumb
 538              		.thumb_func
 539              		.type	lcd_printChar, %function
 540              	lcd_printChar:
 541              	.LFB128:
 542              		.loc 1 142 0
 543              		.cfi_startproc
 544              		@ args = 0, pretend = 0, frame = 0
 545              		@ frame_needed = 0, uses_anonymous_args = 0
 546              	.LVL44:
 547              		.loc 1 143 0
 548 0000 0A28     		cmp	r0, #10
 549              		.loc 1 142 0
 550 0002 08B5     		push	{r3, lr}
 551              		.cfi_def_cfa_offset 8
 552              		.cfi_offset 3, -8
 553              		.cfi_offset 14, -4
 554              		.loc 1 143 0
 555 0004 0AD0     		beq	.L34
 556              	.LBB50:
 557              	.LBB51:
 558              		.loc 1 59 0
 559 0006 084B     		ldr	r3, .L35
 560 0008 0222     		movs	r2, #2
 561 000a 1A83     		strh	r2, [r3, #24]	@ movhi
 562              		.loc 1 60 0
 563 000c FFF7FEFF 		bl	_write_byte
 564              	.LVL45:
 565              		.loc 1 61 0
 566 0010 42F2D000 		movw	r0, #8400
 567              	.LBE51:
ARM GAS  /tmp/ccSY1si9.s 			page 11


 568              	.LBE50:
 569              		.loc 1 149 0
 570 0014 BDE80840 		pop	{r3, lr}
 571              	.LBB53:
 572              	.LBB52:
 573              		.loc 1 61 0
 574 0018 FFF7FEBF 		b	halPolledDelay
 575              	.LVL46:
 576              	.L34:
 577              	.LBE52:
 578              	.LBE53:
 579              		.loc 1 145 0
 580 001c 0020     		movs	r0, #0
 581              	.LVL47:
 582 001e 0121     		movs	r1, #1
 583              		.loc 1 149 0
 584 0020 BDE80840 		pop	{r3, lr}
 585              		.loc 1 145 0
 586 0024 FFF7FEBF 		b	lcd_cursor
 587              	.LVL48:
 588              	.L36:
 589              		.align	2
 590              	.L35:
 591 0028 000C0240 		.word	1073875968
 592              		.cfi_endproc
 593              	.LFE128:
 594              		.size	lcd_printChar, .-lcd_printChar
 595 002c AFF30080 		.section	.text._put,"ax",%progbits
 596              		.align	2
 597              		.p2align 4,,15
 598              		.thumb
 599              		.thumb_func
 600              		.type	_put, %function
 601              	_put:
 602              	.LFB119:
 603              		.loc 1 27 0
 604              		.cfi_startproc
 605              		@ args = 0, pretend = 0, frame = 0
 606              		@ frame_needed = 0, uses_anonymous_args = 0
 607              	.LVL49:
 608 0000 08B5     		push	{r3, lr}
 609              		.cfi_def_cfa_offset 8
 610              		.cfi_offset 3, -8
 611              		.cfi_offset 14, -4
 612              		.loc 1 29 0
 613 0002 0846     		mov	r0, r1
 614              	.LVL50:
 615 0004 FFF7FEFF 		bl	lcd_printChar
 616              	.LVL51:
 617              		.loc 1 31 0
 618 0008 0020     		movs	r0, #0
 619 000a 08BD     		pop	{r3, pc}
 620              		.cfi_endproc
 621              	.LFE119:
 622              		.size	_put, .-_put
 623              		.global	LCD
 624 000c AFF30080 		.section	.data._vmt,"aw",%progbits
ARM GAS  /tmp/ccSY1si9.s 			page 12


 625              		.align	2
 626              		.set	.LANCHOR1,. + 0
 627              		.type	_vmt, %object
 628              		.size	_vmt, 16
 629              	_vmt:
 630 0000 00000000 		.word	0
 631 0004 00000000 		.word	0
 632 0008 00000000 		.word	_put
 633 000c 00000000 		.word	0
 634              		.section	.bss.LCD,"aw",%nobits
 635              		.align	2
 636              		.set	.LANCHOR0,. + 0
 637              		.type	LCD, %object
 638              		.size	LCD, 4
 639              	LCD:
 640 0000 00000000 		.space	4
 641              		.text
 642              	.Letext0:
 643              		.file 2 "/usr/lib/gcc/arm-none-eabi/4.8.3/include/stddef.h"
 644              		.file 3 "/usr/arm-none-eabi/include/stdint.h"
 645              		.file 4 "../AithonLibrary/ChibiOS/os/ports/GCC/ARMCMx/chtypes.h"
 646              		.file 5 "../AithonLibrary/ChibiOS/os/kernel/include/chstreams.h"
 647              		.file 6 "../AithonLibrary/ChibiOS/os/hal/platforms/STM32F4xx/hal_lld.h"
 648              		.file 7 "../AithonLibrary/ChibiOS/os/hal/platforms/STM32/GPIOv2/pal_lld.h"
 649              		.file 8 "../AithonLibrary/ChibiOS/os/hal/include/hal.h"
 650              		.file 9 "../AithonLibrary/ChibiOS/os/ports/common/ARMCMx/CMSIS/include/core_cm4.h"
 651              		.file 10 "../AithonLibrary/ChibiOS/os/kernel/include/chthreads.h"