ARM GAS  /tmp/ccSY1si9.s 			page 1


   1              		.syntax unified
   2              		.cpu cortex-m4
   3              		.eabi_attribute 27, 3
   4              		.fpu fpv4-sp-d16
   5              		.eabi_attribute 20, 1
   6              		.eabi_attribute 21, 1
   7              		.eabi_attribute 23, 3
   8              		.eabi_attribute 24, 1
   9              		.eabi_attribute 25, 1
  10              		.eabi_attribute 26, 1
  11              		.eabi_attribute 30, 2
  12              		.eabi_attribute 34, 1
  13              		.eabi_attribute 18, 4
  14              		.thumb
  15              		.file	"lcd.c"
  16              		.text
  17              	.Ltext0:
  18              		.cfi_sections	.debug_frame
  19              		.section	.text._write_byte,"ax",%progbits
  20              		.align	2
  21              		.p2align 4,,15
  22              		.global	_write_byte
  23              		.thumb
  24              		.thumb_func
  25              		.type	_write_byte, %function
  26              	_write_byte:
  27              	.LFB120:
  28              		.file 1 "../AithonLibrary/lcd.c"
  29              		.loc 1 37 0
  30              		.cfi_startproc
  31              		@ args = 0, pretend = 0, frame = 0
  32              		@ frame_needed = 0, uses_anonymous_args = 0
  33              	.LVL0:
  34              		.loc 1 39 0
  35 0000 104B     		ldr	r3, .L7
  36              		.loc 1 37 0
  37 0002 2DE9F041 		push	{r4, r5, r6, r7, r8, lr}
  38              		.cfi_def_cfa_offset 24
  39              		.cfi_offset 4, -24
  40              		.cfi_offset 5, -20
  41              		.cfi_offset 6, -16
  42              		.cfi_offset 7, -12
  43              		.cfi_offset 8, -8
  44              		.cfi_offset 14, -4
  45              		.loc 1 39 0
  46 0006 0122     		movs	r2, #1
  47              		.loc 1 44 0
  48 0008 0F4D     		ldr	r5, .L7+4
  49              		.loc 1 39 0
  50 000a 1A83     		strh	r2, [r3, #24]	@ movhi
  51              	.LVL1:
  52              		.loc 1 37 0
  53 000c 8046     		mov	r8, r0
  54              		.loc 1 42 0
  55 000e 0024     		movs	r4, #0
  56              		.loc 1 44 0
  57 0010 4FF48066 		mov	r6, #1024	@ movhi
ARM GAS  /tmp/ccSY1si9.s 			page 2


  58              		.loc 1 45 0
  59 0014 8027     		movs	r7, #128
  60              	.LVL2:
  61              	.L5:
  62 0016 47FA04F3 		asr	r3, r7, r4
  63 001a 13EA080F 		tst	r3, r8
  64              		.loc 1 46 0
  65 001e 4FF48073 		mov	r3, #256
  66              		.loc 1 44 0
  67 0022 6E83     		strh	r6, [r5, #26]	@ movhi
  68              		.loc 1 42 0
  69 0024 04F10104 		add	r4, r4, #1
  70              	.LVL3:
  71              		.loc 1 46 0
  72 0028 14BF     		ite	ne
  73 002a 2B83     		strhne	r3, [r5, #24]	@ movhi
  74              		.loc 1 48 0
  75 002c 6B83     		strheq	r3, [r5, #26]	@ movhi
  76              		.loc 1 50 0
  77 002e A820     		movs	r0, #168
  78              		.loc 1 49 0
  79 0030 2E83     		strh	r6, [r5, #24]	@ movhi
  80              		.loc 1 50 0
  81 0032 FFF7FEFF 		bl	halPolledDelay
  82              	.LVL4:
  83              		.loc 1 42 0
  84 0036 082C     		cmp	r4, #8
  85 0038 EDD1     		bne	.L5
  86              		.loc 1 53 0
  87 003a 024B     		ldr	r3, .L7
  88 003c 0122     		movs	r2, #1
  89 003e 5A83     		strh	r2, [r3, #26]	@ movhi
  90 0040 BDE8F081 		pop	{r4, r5, r6, r7, r8, pc}
  91              	.LVL5:
  92              	.L8:
  93              		.align	2
  94              	.L7:
  95 0044 000C0240 		.word	1073875968
  96 0048 00000240 		.word	1073872896
  97              		.cfi_endproc
  98              	.LFE120:
  99              		.size	_write_byte, .-_write_byte
 100 004c AFF30080 		.section	.text._write_data,"ax",%progbits
 101              		.align	2
 102              		.p2align 4,,15
 103              		.global	_write_data
 104              		.thumb
 105              		.thumb_func
 106              		.type	_write_data, %function
 107              	_write_data:
 108              	.LFB121:
 109              		.loc 1 57 0
 110              		.cfi_startproc
 111              		@ args = 0, pretend = 0, frame = 0
 112              		@ frame_needed = 0, uses_anonymous_args = 0
 113              	.LVL6:
 114 0000 08B5     		push	{r3, lr}
ARM GAS  /tmp/ccSY1si9.s 			page 3


 115              		.cfi_def_cfa_offset 8
 116              		.cfi_offset 3, -8
 117              		.cfi_offset 14, -4
 118              		.loc 1 59 0
 119 0002 054B     		ldr	r3, .L10
 120 0004 0222     		movs	r2, #2
 121 0006 1A83     		strh	r2, [r3, #24]	@ movhi
 122              		.loc 1 60 0
 123 0008 FFF7FEFF 		bl	_write_byte
 124              	.LVL7:
 125              		.loc 1 61 0
 126 000c 42F2D000 		movw	r0, #8400
 127              		.loc 1 62 0
 128 0010 BDE80840 		pop	{r3, lr}
 129              		.loc 1 61 0
 130 0014 FFF7FEBF 		b	halPolledDelay
 131              	.LVL8:
 132              	.L11:
 133              		.align	2
 134              	.L10:
 135 0018 000C0240 		.word	1073875968
 136              		.cfi_endproc
 137              	.LFE121:
 138              		.size	_write_data, .-_write_data
 139 001c AFF30080 		.section	.text._write_control,"ax",%progbits
 140              		.align	2
 141              		.p2align 4,,15
 142              		.global	_write_control
 143              		.thumb
 144              		.thumb_func
 145              		.type	_write_control, %function
 146              	_write_control:
 147              	.LFB122:
 148              		.loc 1 66 0
 149              		.cfi_startproc
 150              		@ args = 0, pretend = 0, frame = 0
 151              		@ frame_needed = 0, uses_anonymous_args = 0
 152              	.LVL9:
 153 0000 08B5     		push	{r3, lr}
 154              		.cfi_def_cfa_offset 8
 155              		.cfi_offset 3, -8
 156              		.cfi_offset 14, -4
 157              		.loc 1 68 0
 158 0002 054B     		ldr	r3, .L13
 159 0004 0222     		movs	r2, #2
 160 0006 5A83     		strh	r2, [r3, #26]	@ movhi
 161              		.loc 1 69 0
 162 0008 FFF7FEFF 		bl	_write_byte
 163              	.LVL10:
 164              		.loc 1 71 0
 165 000c 44F2A010 		movw	r0, #16800
 166              		.loc 1 72 0
 167 0010 BDE80840 		pop	{r3, lr}
 168              		.loc 1 71 0
 169 0014 FFF7FEBF 		b	halPolledDelay
 170              	.LVL11:
 171              	.L14:
ARM GAS  /tmp/ccSY1si9.s 			page 4


 172              		.align	2
 173              	.L13:
 174 0018 000C0240 		.word	1073875968
 175              		.cfi_endproc
 176              	.LFE122:
 177              		.size	_write_control, .-_write_control
 178 001c AFF30080 		.section	.text.lcd_clear,"ax",%progbits
 179              		.align	2
 180              		.p2align 4,,15
 181              		.global	lcd_clear
 182              		.thumb
 183              		.thumb_func
 184              		.type	lcd_clear, %function
 185              	lcd_clear:
 186              	.LFB124:
 187              		.loc 1 111 0
 188              		.cfi_startproc
 189              		@ args = 0, pretend = 0, frame = 0
 190              		@ frame_needed = 0, uses_anonymous_args = 0
 191              	.LVL12:
 192 0000 08B5     		push	{r3, lr}
 193              		.cfi_def_cfa_offset 8
 194              		.cfi_offset 3, -8
 195              		.cfi_offset 14, -4
 196              	.LBB22:
 197              	.LBB23:
 198              		.loc 1 68 0
 199 0002 074B     		ldr	r3, .L16
 200 0004 0222     		movs	r2, #2
 201 0006 5A83     		strh	r2, [r3, #26]	@ movhi
 202              		.loc 1 69 0
 203 0008 0120     		movs	r0, #1
 204 000a FFF7FEFF 		bl	_write_byte
 205              	.LVL13:
 206              		.loc 1 71 0
 207 000e 44F2A010 		movw	r0, #16800
 208 0012 FFF7FEFF 		bl	halPolledDelay
 209              	.LVL14:
 210              	.LBE23:
 211              	.LBE22:
 212              		.loc 1 113 0
 213 0016 0348     		ldr	r0, .L16+4
 214              		.loc 1 114 0
 215 0018 BDE80840 		pop	{r3, lr}
 216              		.loc 1 113 0
 217 001c FFF7FEBF 		b	halPolledDelay
 218              	.LVL15:
 219              	.L17:
 220              		.align	2
 221              	.L16:
 222 0020 000C0240 		.word	1073875968
 223 0024 A0750800 		.word	554400
 224              		.cfi_endproc
 225              	.LFE124:
 226              		.size	lcd_clear, .-lcd_clear
 227 0028 AFF30080 		.section	.text.lcd_on,"ax",%progbits
 227      AFF30080 
ARM GAS  /tmp/ccSY1si9.s 			page 5


 228              		.align	2
 229              		.p2align 4,,15
 230              		.global	lcd_on
 231              		.thumb
 232              		.thumb_func
 233              		.type	lcd_on, %function
 234              	lcd_on:
 235              	.LFB125:
 236              		.loc 1 118 0
 237              		.cfi_startproc
 238              		@ args = 0, pretend = 0, frame = 0
 239              		@ frame_needed = 0, uses_anonymous_args = 0
 240              	.LVL16:
 241 0000 08B5     		push	{r3, lr}
 242              		.cfi_def_cfa_offset 8
 243              		.cfi_offset 3, -8
 244              		.cfi_offset 14, -4
 245              	.LBB24:
 246              	.LBB25:
 247              		.loc 1 68 0
 248 0002 064B     		ldr	r3, .L19
 249 0004 0222     		movs	r2, #2
 250 0006 5A83     		strh	r2, [r3, #26]	@ movhi
 251              		.loc 1 69 0
 252 0008 0C20     		movs	r0, #12
 253 000a FFF7FEFF 		bl	_write_byte
 254              	.LVL17:
 255              		.loc 1 71 0
 256 000e 44F2A010 		movw	r0, #16800
 257              	.LBE25:
 258              	.LBE24:
 259              		.loc 1 120 0
 260 0012 BDE80840 		pop	{r3, lr}
 261              	.LBB27:
 262              	.LBB26:
 263              		.loc 1 71 0
 264 0016 FFF7FEBF 		b	halPolledDelay
 265              	.LVL18:
 266              	.L20:
 267 001a 00BF     		.align	2
 268              	.L19:
 269 001c 000C0240 		.word	1073875968
 270              	.LBE26:
 271              	.LBE27:
 272              		.cfi_endproc
 273              	.LFE125:
 274              		.size	lcd_on, .-lcd_on
 275              		.section	.text.lcd_off,"ax",%progbits
 276              		.align	2
 277              		.p2align 4,,15
 278              		.global	lcd_off
 279              		.thumb
 280              		.thumb_func
 281              		.type	lcd_off, %function
 282              	lcd_off:
 283              	.LFB126:
 284              		.loc 1 124 0
ARM GAS  /tmp/ccSY1si9.s 			page 6


 285              		.cfi_startproc
 286              		@ args = 0, pretend = 0, frame = 0
 287              		@ frame_needed = 0, uses_anonymous_args = 0
 288              	.LVL19:
 289 0000 08B5     		push	{r3, lr}
 290              		.cfi_def_cfa_offset 8
 291              		.cfi_offset 3, -8
 292              		.cfi_offset 14, -4
 293              	.LBB28:
 294              	.LBB29:
 295              		.loc 1 68 0
 296 0002 064B     		ldr	r3, .L22
 297 0004 0222     		movs	r2, #2
 298 0006 5A83     		strh	r2, [r3, #26]	@ movhi
 299              		.loc 1 69 0
 300 0008 0820     		movs	r0, #8
 301 000a FFF7FEFF 		bl	_write_byte
 302              	.LVL20:
 303              		.loc 1 71 0
 304 000e 44F2A010 		movw	r0, #16800
 305              	.LBE29:
 306              	.LBE28:
 307              		.loc 1 126 0
 308 0012 BDE80840 		pop	{r3, lr}
 309              	.LBB31:
 310              	.LBB30:
 311              		.loc 1 71 0
 312 0016 FFF7FEBF 		b	halPolledDelay
 313              	.LVL21:
 314              	.L23:
 315 001a 00BF     		.align	2
 316              	.L22:
 317 001c 000C0240 		.word	1073875968
 318              	.LBE30:
 319              	.LBE31:
 320              		.cfi_endproc
 321              	.LFE126:
 322              		.size	lcd_off, .-lcd_off
 323              		.section	.text._lcd_init,"ax",%progbits
 324              		.align	2
 325              		.p2align 4,,15
 326              		.global	_lcd_init
 327              		.thumb
 328              		.thumb_func
 329              		.type	_lcd_init, %function
 330              	_lcd_init:
 331              	.LFB123:
 332              		.loc 1 76 0
 333              		.cfi_startproc
 334              		@ args = 0, pretend = 0, frame = 0
 335              		@ frame_needed = 0, uses_anonymous_args = 0
 336 0000 38B5     		push	{r3, r4, r5, lr}
 337              		.cfi_def_cfa_offset 16
 338              		.cfi_offset 3, -16
 339              		.cfi_offset 4, -12
 340              		.cfi_offset 5, -8
 341              		.cfi_offset 14, -4
ARM GAS  /tmp/ccSY1si9.s 			page 7


 342              		.loc 1 77 0
 343 0002 204B     		ldr	r3, .L25
 344 0004 204A     		ldr	r2, .L25+4
 345              		.loc 1 80 0
 346 0006 214C     		ldr	r4, .L25+8
 347              		.loc 1 77 0
 348 0008 1A60     		str	r2, [r3]
 349              		.loc 1 80 0
 350 000a 0123     		movs	r3, #1
 351 000c 6383     		strh	r3, [r4, #26]	@ movhi
 352              	.LBB32:
 353              	.LBB33:
 354              		.loc 1 68 0
 355 000e 0225     		movs	r5, #2
 356              	.LBE33:
 357              	.LBE32:
 358              		.loc 1 83 0
 359 0010 0F20     		movs	r0, #15
 360 0012 FFF7FEFF 		bl	chThdSleep
 361              	.LVL22:
 362              	.LBB35:
 363              	.LBB34:
 364              		.loc 1 68 0
 365 0016 6583     		strh	r5, [r4, #26]	@ movhi
 366              		.loc 1 69 0
 367 0018 3820     		movs	r0, #56
 368 001a FFF7FEFF 		bl	_write_byte
 369              	.LVL23:
 370              		.loc 1 71 0
 371 001e 44F2A010 		movw	r0, #16800
 372 0022 FFF7FEFF 		bl	halPolledDelay
 373              	.LVL24:
 374              	.LBE34:
 375              	.LBE35:
 376              		.loc 1 87 0
 377 0026 1A48     		ldr	r0, .L25+12
 378 0028 FFF7FEFF 		bl	halPolledDelay
 379              	.LVL25:
 380              	.LBB36:
 381              	.LBB37:
 382              		.loc 1 68 0
 383 002c 6583     		strh	r5, [r4, #26]	@ movhi
 384              		.loc 1 69 0
 385 002e 3820     		movs	r0, #56
 386 0030 FFF7FEFF 		bl	_write_byte
 387              	.LVL26:
 388              		.loc 1 71 0
 389 0034 44F2A010 		movw	r0, #16800
 390 0038 FFF7FEFF 		bl	halPolledDelay
 391              	.LVL27:
 392              	.LBE37:
 393              	.LBE36:
 394              		.loc 1 89 0
 395 003c 42F2D000 		movw	r0, #8400
 396 0040 FFF7FEFF 		bl	halPolledDelay
 397              	.LVL28:
 398              	.LBB38:
ARM GAS  /tmp/ccSY1si9.s 			page 8


 399              	.LBB39:
 400              		.loc 1 68 0
 401 0044 6583     		strh	r5, [r4, #26]	@ movhi
 402              		.loc 1 69 0
 403 0046 3820     		movs	r0, #56
 404 0048 FFF7FEFF 		bl	_write_byte
 405              	.LVL29:
 406              		.loc 1 71 0
 407 004c 44F2A010 		movw	r0, #16800
 408 0050 FFF7FEFF 		bl	halPolledDelay
 409              	.LVL30:
 410              	.LBE39:
 411              	.LBE38:
 412              	.LBB40:
 413              	.LBB41:
 414              		.loc 1 68 0
 415 0054 6583     		strh	r5, [r4, #26]	@ movhi
 416              		.loc 1 69 0
 417 0056 3820     		movs	r0, #56
 418 0058 FFF7FEFF 		bl	_write_byte
 419              	.LVL31:
 420              		.loc 1 71 0
 421 005c 44F2A010 		movw	r0, #16800
 422 0060 FFF7FEFF 		bl	halPolledDelay
 423              	.LVL32:
 424              	.LBE41:
 425              	.LBE40:
 426              		.loc 1 96 0
 427 0064 FFF7FEFF 		bl	lcd_off
 428              	.LVL33:
 429              		.loc 1 99 0
 430 0068 FFF7FEFF 		bl	lcd_clear
 431              	.LVL34:
 432              	.LBB42:
 433              	.LBB43:
 434              		.loc 1 68 0
 435 006c 6583     		strh	r5, [r4, #26]	@ movhi
 436              		.loc 1 69 0
 437 006e 0620     		movs	r0, #6
 438 0070 FFF7FEFF 		bl	_write_byte
 439              	.LVL35:
 440              		.loc 1 71 0
 441 0074 44F2A010 		movw	r0, #16800
 442 0078 FFF7FEFF 		bl	halPolledDelay
 443              	.LVL36:
 444              	.LBE43:
 445              	.LBE42:
 446              		.loc 1 106 0
 447 007c BDE83840 		pop	{r3, r4, r5, lr}
 448              		.loc 1 105 0
 449 0080 FFF7FEBF 		b	lcd_on
 450              	.LVL37:
 451              	.L26:
 452              		.align	2
 453              	.L25:
 454 0084 00000000 		.word	.LANCHOR0
 455 0088 00000000 		.word	.LANCHOR1
ARM GAS  /tmp/ccSY1si9.s 			page 9


 456 008c 000C0240 		.word	1073875968
 457 0090 A08F0C00 		.word	823200
 458              		.cfi_endproc
 459              	.LFE123:
 460              		.size	_lcd_init, .-_lcd_init
 461 0094 AFF30080 		.section	.text.lcd_cursor,"ax",%progbits
 461      AFF30080 
 461      AFF30080 
 462              		.align	2
 463              		.p2align 4,,15
 464              		.global	lcd_cursor
 465              		.thumb
 466              		.thumb_func
 467              		.type	lcd_cursor, %function
 468              	lcd_cursor:
 469              	.LFB127:
 470              		.loc 1 130 0
 471              		.cfi_startproc
 472              		@ args = 0, pretend = 0, frame = 0
 473              		@ frame_needed = 0, uses_anonymous_args = 0
 474              	.LVL38:
 475              		.loc 1 131 0
 476 0000 0F28     		cmp	r0, #15
 477              		.loc 1 130 0
 478 0002 08B5     		push	{r3, lr}
 479              		.cfi_def_cfa_offset 8
 480              		.cfi_offset 3, -8
 481              		.cfi_offset 14, -4
 482              		.loc 1 131 0
 483 0004 01D8     		bhi	.L27
 484              		.loc 1 131 0 is_stmt 0 discriminator 1
 485 0006 0129     		cmp	r1, #1
 486 0008 00D9     		bls	.L29
 487              	.L27:
 488 000a 08BD     		pop	{r3, pc}
 489              	.L29:
 490              	.LVL39:
 491              	.LBB44:
 492              	.LBB45:
 493              		.loc 1 68 0 is_stmt 1
 494 000c 074B     		ldr	r3, .L30
 495              	.LBE45:
 496              	.LBE44:
 497              		.loc 1 136 0
 498 000e 0231     		adds	r1, r1, #2
 499              	.LVL40:
 500 0010 00EB8110 		add	r0, r0, r1, lsl #6
 501              	.LVL41:
 502              	.LBB48:
 503              	.LBB46:
 504              		.loc 1 68 0
 505 0014 0222     		movs	r2, #2
 506              		.loc 1 69 0
 507 0016 C0B2     		uxtb	r0, r0
 508              		.loc 1 68 0
 509 0018 5A83     		strh	r2, [r3, #26]	@ movhi
 510              		.loc 1 69 0
ARM GAS  /tmp/ccSY1si9.s 			page 10


 511 001a FFF7FEFF 		bl	_write_byte
 512              	.LVL42:
 513              		.loc 1 71 0
 514 001e 44F2A010 		movw	r0, #16800
 515              	.LBE46:
 516              	.LBE48:
 517              		.loc 1 138 0
 518 0022 BDE80840 		pop	{r3, lr}
 519              	.LBB49:
 520              	.LBB47:
 521              		.loc 1 71 0
 522 0026 FFF7FEBF 		b	halPolledDelay
 523              	.LVL43:
 524              	.L31:
 525 002a 00BF     		.align	2
 526              	.L30:
 527 002c 000C0240 		.word	1073875968
 528              	.LBE47:
 529              	.LBE49:
 530              		.cfi_endproc
 531              	.LFE127:
 532              		.size	lcd_cursor, .-lcd_cursor
 533              		.section	.text.lcd_printChar,"ax",%progbits
 534              		.align	2
 535              		.p2align 4,,15
 536              		.global	lcd_printChar
 537              		.thumb
 538              		.thumb_func
 539              		.type	lcd_printChar, %function
 540              	lcd_printChar:
 541              	.LFB128:
 542              		.loc 1 142 0
 543              		.cfi_startproc
 544              		@ args = 0, pretend = 0, frame = 0
 545              		@ frame_needed = 0, uses_anonymous_args = 0
 546              	.LVL44:
 547              		.loc 1 143 0
 548 0000 0A28     		cmp	r0, #10
 549              		.loc 1 142 0
 550 0002 08B5     		push	{r3, lr}
 551              		.cfi_def_cfa_offset 8
 552              		.cfi_offset 3, -8
 553              		.cfi_offset 14, -4
 554              		.loc 1 143 0
 555 0004 0AD0     		beq	.L34
 556              	.LBB50:
 557              	.LBB51:
 558              		.loc 1 59 0
 559 0006 084B     		ldr	r3, .L35
 560 0008 0222     		movs	r2, #2
 561 000a 1A83     		strh	r2, [r3, #24]	@ movhi
 562              		.loc 1 60 0
 563 000c FFF7FEFF 		bl	_write_byte
 564              	.LVL45:
 565              		.loc 1 61 0
 566 0010 42F2D000 		movw	r0, #8400
 567              	.LBE51:
ARM GAS  /tmp/ccSY1si9.s 			page 11


 568              	.LBE50:
 569              		.loc 1 149 0
 570 0014 BDE80840 		pop	{r3, lr}
 571              	.LBB53:
 572              	.LBB52:
 573              		.loc 1 61 0
 574 0018 FFF7FEBF 		b	halPolledDelay
 575              	.LVL46:
 576              	.L34:
 577              	.LBE52:
 578              	.LBE53:
 579              		.loc 1 145 0
 580 001c 0020     		movs	r0, #0
 581              	.LVL47:
 582 001e 0121     		movs	r1, #1
 583              		.loc 1 149 0
 584 0020 BDE80840 		pop	{r3, lr}
 585              		.loc 1 145 0
 586 0024 FFF7FEBF 		b	lcd_cursor
 587              	.LVL48:
 588              	.L36:
 589              		.align	2
 590              	.L35:
 591 0028 000C0240 		.word	1073875968
 592              		.cfi_endproc
 593              	.LFE128:
 594              		.size	lcd_printChar, .-lcd_printChar
 595 002c AFF30080 		.section	.text._put,"ax",%progbits
 596              		.align	2
 597              		.p2align 4,,15
 598              		.thumb
 599              		.thumb_func
 600              		.type	_put, %function
 601              	_put:
 602              	.LFB119:
 603              		.loc 1 27 0
 604              		.cfi_startproc
 605              		@ args = 0, pretend = 0, frame = 0
 606              		@ frame_needed = 0, uses_anonymous_args = 0
 607              	.LVL49:
 608 0000 08B5     		push	{r3, lr}
 609              		.cfi_def_cfa_offset 8
 610              		.cfi_offset 3, -8
 611              		.cfi_offset 14, -4
 612              		.loc 1 29 0
 613 0002 0846     		mov	r0, r1
 614              	.LVL50:
 615 0004 FFF7FEFF 		bl	lcd_printChar
 616              	.LVL51:
 617              		.loc 1 31 0
 618 0008 0020     		movs	r0, #0
 619 000a 08BD     		pop	{r3, pc}
 620              		.cfi_endproc
 621              	.LFE119:
 622              		.size	_put, .-_put
 623              		.global	LCD
 624 000c AFF30080 		.section	.data._vmt,"aw",%progbits
ARM GAS  /tmp/ccSY1si9.s 			page 12


 625              		.align	2
 626              		.set	.LANCHOR1,. + 0
 627              		.type	_vmt, %object
 628              		.size	_vmt, 16
 629              	_vmt:
 630 0000 00000000 		.word	0
 631 0004 00000000 		.word	0
 632 0008 00000000 		.word	_put
 633 000c 00000000 		.word	0
 634              		.section	.bss.LCD,"aw",%nobits
 635              		.align	2
 636              		.set	.LANCHOR0,. + 0
 637              		.type	LCD, %object
 638              		.size	LCD, 4
 639              	LCD:
 640 0000 00000000 		.space	4
 641              		.text
 642              	.Letext0:
 643              		.file 2 "/usr/lib/gcc/arm-none-eabi/4.8.3/include/stddef.h"
 644              		.file 3 "/usr/arm-none-eabi/include/stdint.h"
 645              		.file 4 "../AithonLibrary/ChibiOS/os/ports/GCC/ARMCMx/chtypes.h"
 646              		.file 5 "../AithonLibrary/ChibiOS/os/kernel/include/chstreams.h"
 647              		.file 6 "../AithonLibrary/ChibiOS/os/hal/platforms/STM32F4xx/hal_lld.h"
 648              		.file 7 "../AithonLibrary/ChibiOS/os/hal/platforms/STM32/GPIOv2/pal_lld.h"
 649              		.file 8 "../AithonLibrary/ChibiOS/os/hal/include/hal.h"
 650              		.file 9 "../AithonLibrary/ChibiOS/os/ports/common/ARMCMx/CMSIS/include/core_cm4.h"
 651              		.file 10 "../AithonLibrary/ChibiOS/os/kernel/include/chthreads.h"
 652              		.section	.debug_info,"",%progbits
 653              	.Ldebug_info0:
 654 0000 9F070000 		.4byte	0x79f
 655 0004 0400     		.2byte	0x4
 656 0006 00000000 		.4byte	.Ldebug_abbrev0
 657 000a 04       		.byte	0x4
 658 000b 01       		.uleb128 0x1
 659 000c B7010000 		.4byte	.LASF49
 660 0010 01       		.byte	0x1
 661 0011 F9000000 		.4byte	.LASF50
 662 0015 D6000000 		.4byte	.LASF51
 663 0019 80000000 		.4byte	.Ldebug_ranges0+0x80
 664 001d 00000000 		.4byte	0
 665 0021 00000000 		.4byte	.Ldebug_line0
 666 0025 02       		.uleb128 0x2
 667 0026 04       		.byte	0x4
 668 0027 05       		.byte	0x5
 669 0028 696E7400 		.ascii	"int\000"
 670 002c 03       		.uleb128 0x3
 671 002d 22000000 		.4byte	.LASF2
 672 0031 02       		.byte	0x2
 673 0032 D4       		.byte	0xd4
 674 0033 37000000 		.4byte	0x37
 675 0037 04       		.uleb128 0x4
 676 0038 04       		.byte	0x4
 677 0039 07       		.byte	0x7
 678 003a 2F030000 		.4byte	.LASF0
 679 003e 04       		.uleb128 0x4
 680 003f 01       		.byte	0x1
 681 0040 06       		.byte	0x6
ARM GAS  /tmp/ccSY1si9.s 			page 13


 682 0041 28010000 		.4byte	.LASF1
 683 0045 03       		.uleb128 0x3
 684 0046 75000000 		.4byte	.LASF3
 685 004a 03       		.byte	0x3
 686 004b 2A       		.byte	0x2a
 687 004c 50000000 		.4byte	0x50
 688 0050 04       		.uleb128 0x4
 689 0051 01       		.byte	0x1
 690 0052 08       		.byte	0x8
 691 0053 10010000 		.4byte	.LASF4
 692 0057 04       		.uleb128 0x4
 693 0058 02       		.byte	0x2
 694 0059 05       		.byte	0x5
 695 005a 18000000 		.4byte	.LASF5
 696 005e 03       		.uleb128 0x3
 697 005f 6A010000 		.4byte	.LASF6
 698 0063 03       		.byte	0x3
 699 0064 36       		.byte	0x36
 700 0065 69000000 		.4byte	0x69
 701 0069 04       		.uleb128 0x4
 702 006a 02       		.byte	0x2
 703 006b 07       		.byte	0x7
 704 006c 95010000 		.4byte	.LASF7
 705 0070 03       		.uleb128 0x3
 706 0071 DB020000 		.4byte	.LASF8
 707 0075 03       		.byte	0x3
 708 0076 4F       		.byte	0x4f
 709 0077 7B000000 		.4byte	0x7b
 710 007b 04       		.uleb128 0x4
 711 007c 04       		.byte	0x4
 712 007d 05       		.byte	0x5
 713 007e D2020000 		.4byte	.LASF9
 714 0082 03       		.uleb128 0x3
 715 0083 4B010000 		.4byte	.LASF10
 716 0087 03       		.byte	0x3
 717 0088 50       		.byte	0x50
 718 0089 8D000000 		.4byte	0x8d
 719 008d 04       		.uleb128 0x4
 720 008e 04       		.byte	0x4
 721 008f 07       		.byte	0x7
 722 0090 01030000 		.4byte	.LASF11
 723 0094 04       		.uleb128 0x4
 724 0095 08       		.byte	0x8
 725 0096 05       		.byte	0x5
 726 0097 A2000000 		.4byte	.LASF12
 727 009b 04       		.uleb128 0x4
 728 009c 08       		.byte	0x8
 729 009d 07       		.byte	0x7
 730 009e 34010000 		.4byte	.LASF13
 731 00a2 04       		.uleb128 0x4
 732 00a3 01       		.byte	0x1
 733 00a4 02       		.byte	0x2
 734 00a5 E3020000 		.4byte	.LASF14
 735 00a9 03       		.uleb128 0x3
 736 00aa 41030000 		.4byte	.LASF15
 737 00ae 04       		.byte	0x4
 738 00af 31       		.byte	0x31
ARM GAS  /tmp/ccSY1si9.s 			page 14


 739 00b0 70000000 		.4byte	0x70
 740 00b4 03       		.uleb128 0x3
 741 00b5 A8010000 		.4byte	.LASF16
 742 00b9 04       		.byte	0x4
 743 00ba 35       		.byte	0x35
 744 00bb 82000000 		.4byte	0x82
 745 00bf 05       		.uleb128 0x5
 746 00c0 04       		.byte	0x4
 747 00c1 06       		.uleb128 0x6
 748 00c2 82000000 		.4byte	0x82
 749 00c6 04       		.uleb128 0x4
 750 00c7 04       		.byte	0x4
 751 00c8 07       		.byte	0x7
 752 00c9 29000000 		.4byte	.LASF17
 753 00cd 04       		.uleb128 0x4
 754 00ce 01       		.byte	0x1
 755 00cf 08       		.byte	0x8
 756 00d0 B2010000 		.4byte	.LASF18
 757 00d4 07       		.uleb128 0x7
 758 00d5 04       		.byte	0x4
 759 00d6 DA000000 		.4byte	0xda
 760 00da 08       		.uleb128 0x8
 761 00db A9000000 		.4byte	0xa9
 762 00df E9000000 		.4byte	0xe9
 763 00e3 09       		.uleb128 0x9
 764 00e4 BF000000 		.4byte	0xbf
 765 00e8 00       		.byte	0
 766 00e9 07       		.uleb128 0x7
 767 00ea 04       		.byte	0x4
 768 00eb 45000000 		.4byte	0x45
 769 00ef 0A       		.uleb128 0xa
 770 00f0 47030000 		.4byte	.LASF52
 771 00f4 10       		.byte	0x10
 772 00f5 05       		.byte	0x5
 773 00f6 48       		.byte	0x48
 774 00f7 2C010000 		.4byte	0x12c
 775 00fb 0B       		.uleb128 0xb
 776 00fc 12000000 		.4byte	.LASF19
 777 0100 05       		.byte	0x5
 778 0101 49       		.byte	0x49
 779 0102 50010000 		.4byte	0x150
 780 0106 00       		.byte	0
 781 0107 0B       		.uleb128 0xb
 782 0108 9D000000 		.4byte	.LASF20
 783 010c 05       		.byte	0x5
 784 010d 49       		.byte	0x49
 785 010e 6F010000 		.4byte	0x16f
 786 0112 04       		.byte	0x4
 787 0113 0C       		.uleb128 0xc
 788 0114 70757400 		.ascii	"put\000"
 789 0118 05       		.byte	0x5
 790 0119 49       		.byte	0x49
 791 011a 89010000 		.4byte	0x189
 792 011e 08       		.byte	0x8
 793 011f 0C       		.uleb128 0xc
 794 0120 67657400 		.ascii	"get\000"
 795 0124 05       		.byte	0x5
ARM GAS  /tmp/ccSY1si9.s 			page 15


 796 0125 49       		.byte	0x49
 797 0126 D4000000 		.4byte	0xd4
 798 012a 0C       		.byte	0xc
 799 012b 00       		.byte	0
 800 012c 08       		.uleb128 0x8
 801 012d 2C000000 		.4byte	0x2c
 802 0131 45010000 		.4byte	0x145
 803 0135 09       		.uleb128 0x9
 804 0136 BF000000 		.4byte	0xbf
 805 013a 09       		.uleb128 0x9
 806 013b 45010000 		.4byte	0x145
 807 013f 09       		.uleb128 0x9
 808 0140 2C000000 		.4byte	0x2c
 809 0144 00       		.byte	0
 810 0145 07       		.uleb128 0x7
 811 0146 04       		.byte	0x4
 812 0147 4B010000 		.4byte	0x14b
 813 014b 0D       		.uleb128 0xd
 814 014c 45000000 		.4byte	0x45
 815 0150 07       		.uleb128 0x7
 816 0151 04       		.byte	0x4
 817 0152 2C010000 		.4byte	0x12c
 818 0156 08       		.uleb128 0x8
 819 0157 2C000000 		.4byte	0x2c
 820 015b 6F010000 		.4byte	0x16f
 821 015f 09       		.uleb128 0x9
 822 0160 BF000000 		.4byte	0xbf
 823 0164 09       		.uleb128 0x9
 824 0165 E9000000 		.4byte	0xe9
 825 0169 09       		.uleb128 0x9
 826 016a 2C000000 		.4byte	0x2c
 827 016e 00       		.byte	0
 828 016f 07       		.uleb128 0x7
 829 0170 04       		.byte	0x4
 830 0171 56010000 		.4byte	0x156
 831 0175 08       		.uleb128 0x8
 832 0176 A9000000 		.4byte	0xa9
 833 017a 89010000 		.4byte	0x189
 834 017e 09       		.uleb128 0x9
 835 017f BF000000 		.4byte	0xbf
 836 0183 09       		.uleb128 0x9
 837 0184 45000000 		.4byte	0x45
 838 0188 00       		.byte	0
 839 0189 07       		.uleb128 0x7
 840 018a 04       		.byte	0x4
 841 018b 75010000 		.4byte	0x175
 842 018f 0E       		.uleb128 0xe
 843 0190 04       		.byte	0x4
 844 0191 05       		.byte	0x5
 845 0192 51       		.byte	0x51
 846 0193 A4010000 		.4byte	0x1a4
 847 0197 0C       		.uleb128 0xc
 848 0198 766D7400 		.ascii	"vmt\000"
 849 019c 05       		.byte	0x5
 850 019d 53       		.byte	0x53
 851 019e A4010000 		.4byte	0x1a4
 852 01a2 00       		.byte	0
ARM GAS  /tmp/ccSY1si9.s 			page 16


 853 01a3 00       		.byte	0
 854 01a4 07       		.uleb128 0x7
 855 01a5 04       		.byte	0x4
 856 01a6 AA010000 		.4byte	0x1aa
 857 01aa 0D       		.uleb128 0xd
 858 01ab EF000000 		.4byte	0xef
 859 01af 03       		.uleb128 0x3
 860 01b0 40000000 		.4byte	.LASF21
 861 01b4 05       		.byte	0x5
 862 01b5 55       		.byte	0x55
 863 01b6 8F010000 		.4byte	0x18f
 864 01ba 06       		.uleb128 0x6
 865 01bb 70000000 		.4byte	0x70
 866 01bf 0F       		.uleb128 0xf
 867 01c0 6A000000 		.4byte	.LASF22
 868 01c4 06       		.byte	0x6
 869 01c5 A406     		.2byte	0x6a4
 870 01c7 82000000 		.4byte	0x82
 871 01cb 0E       		.uleb128 0xe
 872 01cc 04       		.byte	0x4
 873 01cd 07       		.byte	0x7
 874 01ce 96       		.byte	0x96
 875 01cf EC010000 		.4byte	0x1ec
 876 01d3 0C       		.uleb128 0xc
 877 01d4 73657400 		.ascii	"set\000"
 878 01d8 07       		.byte	0x7
 879 01d9 97       		.byte	0x97
 880 01da 5E000000 		.4byte	0x5e
 881 01de 00       		.byte	0
 882 01df 0B       		.uleb128 0xb
 883 01e0 D0000000 		.4byte	.LASF23
 884 01e4 07       		.byte	0x7
 885 01e5 98       		.byte	0x98
 886 01e6 5E000000 		.4byte	0x5e
 887 01ea 02       		.byte	0x2
 888 01eb 00       		.byte	0
 889 01ec 10       		.uleb128 0x10
 890 01ed 04       		.byte	0x4
 891 01ee 07       		.byte	0x7
 892 01ef 94       		.byte	0x94
 893 01f0 07020000 		.4byte	0x207
 894 01f4 11       		.uleb128 0x11
 895 01f5 5700     		.ascii	"W\000"
 896 01f7 07       		.byte	0x7
 897 01f8 95       		.byte	0x95
 898 01f9 82000000 		.4byte	0x82
 899 01fd 11       		.uleb128 0x11
 900 01fe 4800     		.ascii	"H\000"
 901 0200 07       		.byte	0x7
 902 0201 99       		.byte	0x99
 903 0202 CB010000 		.4byte	0x1cb
 904 0206 00       		.byte	0
 905 0207 0E       		.uleb128 0xe
 906 0208 28       		.byte	0x28
 907 0209 07       		.byte	0x7
 908 020a 8C       		.byte	0x8c
 909 020b 88020000 		.4byte	0x288
ARM GAS  /tmp/ccSY1si9.s 			page 17


 910 020f 0B       		.uleb128 0xb
 911 0210 CA000000 		.4byte	.LASF24
 912 0214 07       		.byte	0x7
 913 0215 8E       		.byte	0x8e
 914 0216 C1000000 		.4byte	0xc1
 915 021a 00       		.byte	0
 916 021b 0B       		.uleb128 0xb
 917 021c 96000000 		.4byte	.LASF25
 918 0220 07       		.byte	0x7
 919 0221 8F       		.byte	0x8f
 920 0222 C1000000 		.4byte	0xc1
 921 0226 04       		.byte	0x4
 922 0227 0B       		.uleb128 0xb
 923 0228 EE020000 		.4byte	.LASF26
 924 022c 07       		.byte	0x7
 925 022d 90       		.byte	0x90
 926 022e C1000000 		.4byte	0xc1
 927 0232 08       		.byte	0x8
 928 0233 0B       		.uleb128 0xb
 929 0234 B0000000 		.4byte	.LASF27
 930 0238 07       		.byte	0x7
 931 0239 91       		.byte	0x91
 932 023a C1000000 		.4byte	0xc1
 933 023e 0C       		.byte	0xc
 934 023f 0C       		.uleb128 0xc
 935 0240 49445200 		.ascii	"IDR\000"
 936 0244 07       		.byte	0x7
 937 0245 92       		.byte	0x92
 938 0246 C1000000 		.4byte	0xc1
 939 024a 10       		.byte	0x10
 940 024b 0C       		.uleb128 0xc
 941 024c 4F445200 		.ascii	"ODR\000"
 942 0250 07       		.byte	0x7
 943 0251 93       		.byte	0x93
 944 0252 C1000000 		.4byte	0xc1
 945 0256 14       		.byte	0x14
 946 0257 0B       		.uleb128 0xb
 947 0258 60000000 		.4byte	.LASF28
 948 025c 07       		.byte	0x7
 949 025d 9A       		.byte	0x9a
 950 025e 88020000 		.4byte	0x288
 951 0262 18       		.byte	0x18
 952 0263 0B       		.uleb128 0xb
 953 0264 3C030000 		.4byte	.LASF29
 954 0268 07       		.byte	0x7
 955 0269 9B       		.byte	0x9b
 956 026a C1000000 		.4byte	0xc1
 957 026e 1C       		.byte	0x1c
 958 026f 0B       		.uleb128 0xb
 959 0270 90010000 		.4byte	.LASF30
 960 0274 07       		.byte	0x7
 961 0275 9C       		.byte	0x9c
 962 0276 C1000000 		.4byte	0xc1
 963 027a 20       		.byte	0x20
 964 027b 0B       		.uleb128 0xb
 965 027c 8B010000 		.4byte	.LASF31
 966 0280 07       		.byte	0x7
ARM GAS  /tmp/ccSY1si9.s 			page 18


 967 0281 9D       		.byte	0x9d
 968 0282 C1000000 		.4byte	0xc1
 969 0286 24       		.byte	0x24
 970 0287 00       		.byte	0
 971 0288 06       		.uleb128 0x6
 972 0289 EC010000 		.4byte	0x1ec
 973 028d 03       		.uleb128 0x3
 974 028e 00000000 		.4byte	.LASF32
 975 0292 07       		.byte	0x7
 976 0293 9E       		.byte	0x9e
 977 0294 07020000 		.4byte	0x207
 978 0298 03       		.uleb128 0x3
 979 0299 7D000000 		.4byte	.LASF33
 980 029d 07       		.byte	0x7
 981 029e F0       		.byte	0xf0
 982 029f 82000000 		.4byte	0x82
 983 02a3 12       		.uleb128 0x12
 984 02a4 7C010000 		.4byte	.LASF34
 985 02a8 01       		.byte	0x1
 986 02a9 41       		.byte	0x41
 987 02aa 01       		.byte	0x1
 988 02ab BB020000 		.4byte	0x2bb
 989 02af 13       		.uleb128 0x13
 990 02b0 E9020000 		.4byte	.LASF36
 991 02b4 01       		.byte	0x1
 992 02b5 41       		.byte	0x41
 993 02b6 45000000 		.4byte	0x45
 994 02ba 00       		.byte	0
 995 02bb 12       		.uleb128 0x12
 996 02bc 54010000 		.4byte	.LASF35
 997 02c0 01       		.byte	0x1
 998 02c1 38       		.byte	0x38
 999 02c2 01       		.byte	0x1
 1000 02c3 D3020000 		.4byte	0x2d3
 1001 02c7 13       		.uleb128 0x13
 1002 02c8 E9020000 		.4byte	.LASF36
 1003 02cc 01       		.byte	0x1
 1004 02cd 38       		.byte	0x38
 1005 02ce 45000000 		.4byte	0x45
 1006 02d2 00       		.byte	0
 1007 02d3 14       		.uleb128 0x14
 1008 02d4 8A000000 		.4byte	.LASF37
 1009 02d8 01       		.byte	0x1
 1010 02d9 24       		.byte	0x24
 1011 02da 00000000 		.4byte	.LFB120
 1012 02de 4C000000 		.4byte	.LFE120-.LFB120
 1013 02e2 01       		.uleb128 0x1
 1014 02e3 9C       		.byte	0x9c
 1015 02e4 15030000 		.4byte	0x315
 1016 02e8 15       		.uleb128 0x15
 1017 02e9 E9020000 		.4byte	.LASF36
 1018 02ed 01       		.byte	0x1
 1019 02ee 24       		.byte	0x24
 1020 02ef 45000000 		.4byte	0x45
 1021 02f3 00000000 		.4byte	.LLST0
 1022 02f7 16       		.uleb128 0x16
 1023 02f8 6900     		.ascii	"i\000"
ARM GAS  /tmp/ccSY1si9.s 			page 19


 1024 02fa 01       		.byte	0x1
 1025 02fb 29       		.byte	0x29
 1026 02fc 25000000 		.4byte	0x25
 1027 0300 21000000 		.4byte	.LLST1
 1028 0304 17       		.uleb128 0x17
 1029 0305 36000000 		.4byte	.LVL4
 1030 0309 83070000 		.4byte	0x783
 1031 030d 18       		.uleb128 0x18
 1032 030e 01       		.uleb128 0x1
 1033 030f 50       		.byte	0x50
 1034 0310 02       		.uleb128 0x2
 1035 0311 08       		.byte	0x8
 1036 0312 A8       		.byte	0xa8
 1037 0313 00       		.byte	0
 1038 0314 00       		.byte	0
 1039 0315 19       		.uleb128 0x19
 1040 0316 BB020000 		.4byte	0x2bb
 1041 031a 00000000 		.4byte	.LFB121
 1042 031e 1C000000 		.4byte	.LFE121-.LFB121
 1043 0322 01       		.uleb128 0x1
 1044 0323 9C       		.byte	0x9c
 1045 0324 4C030000 		.4byte	0x34c
 1046 0328 1A       		.uleb128 0x1a
 1047 0329 C7020000 		.4byte	0x2c7
 1048 032d 58000000 		.4byte	.LLST2
 1049 0331 1B       		.uleb128 0x1b
 1050 0332 0C000000 		.4byte	.LVL7
 1051 0336 D3020000 		.4byte	0x2d3
 1052 033a 1C       		.uleb128 0x1c
 1053 033b 18000000 		.4byte	.LVL8
 1054 033f 83070000 		.4byte	0x783
 1055 0343 18       		.uleb128 0x18
 1056 0344 01       		.uleb128 0x1
 1057 0345 50       		.byte	0x50
 1058 0346 03       		.uleb128 0x3
 1059 0347 0A       		.byte	0xa
 1060 0348 D020     		.2byte	0x20d0
 1061 034a 00       		.byte	0
 1062 034b 00       		.byte	0
 1063 034c 19       		.uleb128 0x19
 1064 034d A3020000 		.4byte	0x2a3
 1065 0351 00000000 		.4byte	.LFB122
 1066 0355 1C000000 		.4byte	.LFE122-.LFB122
 1067 0359 01       		.uleb128 0x1
 1068 035a 9C       		.byte	0x9c
 1069 035b 83030000 		.4byte	0x383
 1070 035f 1A       		.uleb128 0x1a
 1071 0360 AF020000 		.4byte	0x2af
 1072 0364 79000000 		.4byte	.LLST3
 1073 0368 1B       		.uleb128 0x1b
 1074 0369 0C000000 		.4byte	.LVL10
 1075 036d D3020000 		.4byte	0x2d3
 1076 0371 1C       		.uleb128 0x1c
 1077 0372 18000000 		.4byte	.LVL11
 1078 0376 83070000 		.4byte	0x783
 1079 037a 18       		.uleb128 0x18
 1080 037b 01       		.uleb128 0x1
ARM GAS  /tmp/ccSY1si9.s 			page 20


 1081 037c 50       		.byte	0x50
 1082 037d 03       		.uleb128 0x3
 1083 037e 0A       		.byte	0xa
 1084 037f A041     		.2byte	0x41a0
 1085 0381 00       		.byte	0
 1086 0382 00       		.byte	0
 1087 0383 14       		.uleb128 0x14
 1088 0384 1E010000 		.4byte	.LASF38
 1089 0388 01       		.byte	0x1
 1090 0389 6E       		.byte	0x6e
 1091 038a 00000000 		.4byte	.LFB124
 1092 038e 28000000 		.4byte	.LFE124-.LFB124
 1093 0392 01       		.uleb128 0x1
 1094 0393 9C       		.byte	0x9c
 1095 0394 EA030000 		.4byte	0x3ea
 1096 0398 1D       		.uleb128 0x1d
 1097 0399 A3020000 		.4byte	0x2a3
 1098 039d 02000000 		.4byte	.LBB22
 1099 03a1 14000000 		.4byte	.LBE22-.LBB22
 1100 03a5 01       		.byte	0x1
 1101 03a6 70       		.byte	0x70
 1102 03a7 D6030000 		.4byte	0x3d6
 1103 03ab 1E       		.uleb128 0x1e
 1104 03ac AF020000 		.4byte	0x2af
 1105 03b0 01       		.byte	0x1
 1106 03b1 1F       		.uleb128 0x1f
 1107 03b2 0E000000 		.4byte	.LVL13
 1108 03b6 D3020000 		.4byte	0x2d3
 1109 03ba C4030000 		.4byte	0x3c4
 1110 03be 18       		.uleb128 0x18
 1111 03bf 01       		.uleb128 0x1
 1112 03c0 50       		.byte	0x50
 1113 03c1 01       		.uleb128 0x1
 1114 03c2 31       		.byte	0x31
 1115 03c3 00       		.byte	0
 1116 03c4 17       		.uleb128 0x17
 1117 03c5 16000000 		.4byte	.LVL14
 1118 03c9 83070000 		.4byte	0x783
 1119 03cd 18       		.uleb128 0x18
 1120 03ce 01       		.uleb128 0x1
 1121 03cf 50       		.byte	0x50
 1122 03d0 03       		.uleb128 0x3
 1123 03d1 0A       		.byte	0xa
 1124 03d2 A041     		.2byte	0x41a0
 1125 03d4 00       		.byte	0
 1126 03d5 00       		.byte	0
 1127 03d6 1C       		.uleb128 0x1c
 1128 03d7 20000000 		.4byte	.LVL15
 1129 03db 83070000 		.4byte	0x783
 1130 03df 18       		.uleb128 0x18
 1131 03e0 01       		.uleb128 0x1
 1132 03e1 50       		.byte	0x50
 1133 03e2 05       		.uleb128 0x5
 1134 03e3 0C       		.byte	0xc
 1135 03e4 A0750800 		.4byte	0x875a0
 1136 03e8 00       		.byte	0
 1137 03e9 00       		.byte	0
ARM GAS  /tmp/ccSY1si9.s 			page 21


 1138 03ea 14       		.uleb128 0x14
 1139 03eb 13030000 		.4byte	.LASF39
 1140 03ef 01       		.byte	0x1
 1141 03f0 75       		.byte	0x75
 1142 03f1 00000000 		.4byte	.LFB125
 1143 03f5 20000000 		.4byte	.LFE125-.LFB125
 1144 03f9 01       		.uleb128 0x1
 1145 03fa 9C       		.byte	0x9c
 1146 03fb 3A040000 		.4byte	0x43a
 1147 03ff 20       		.uleb128 0x20
 1148 0400 A3020000 		.4byte	0x2a3
 1149 0404 02000000 		.4byte	.LBB24
 1150 0408 00000000 		.4byte	.Ldebug_ranges0+0
 1151 040c 01       		.byte	0x1
 1152 040d 77       		.byte	0x77
 1153 040e 1E       		.uleb128 0x1e
 1154 040f AF020000 		.4byte	0x2af
 1155 0413 0C       		.byte	0xc
 1156 0414 1F       		.uleb128 0x1f
 1157 0415 0E000000 		.4byte	.LVL17
 1158 0419 D3020000 		.4byte	0x2d3
 1159 041d 27040000 		.4byte	0x427
 1160 0421 18       		.uleb128 0x18
 1161 0422 01       		.uleb128 0x1
 1162 0423 50       		.byte	0x50
 1163 0424 01       		.uleb128 0x1
 1164 0425 3C       		.byte	0x3c
 1165 0426 00       		.byte	0
 1166 0427 1C       		.uleb128 0x1c
 1167 0428 1A000000 		.4byte	.LVL18
 1168 042c 83070000 		.4byte	0x783
 1169 0430 18       		.uleb128 0x18
 1170 0431 01       		.uleb128 0x1
 1171 0432 50       		.byte	0x50
 1172 0433 03       		.uleb128 0x3
 1173 0434 0A       		.byte	0xa
 1174 0435 A041     		.2byte	0x41a0
 1175 0437 00       		.byte	0
 1176 0438 00       		.byte	0
 1177 0439 00       		.byte	0
 1178 043a 14       		.uleb128 0x14
 1179 043b 1A030000 		.4byte	.LASF40
 1180 043f 01       		.byte	0x1
 1181 0440 7B       		.byte	0x7b
 1182 0441 00000000 		.4byte	.LFB126
 1183 0445 20000000 		.4byte	.LFE126-.LFB126
 1184 0449 01       		.uleb128 0x1
 1185 044a 9C       		.byte	0x9c
 1186 044b 8A040000 		.4byte	0x48a
 1187 044f 20       		.uleb128 0x20
 1188 0450 A3020000 		.4byte	0x2a3
 1189 0454 02000000 		.4byte	.LBB28
 1190 0458 18000000 		.4byte	.Ldebug_ranges0+0x18
 1191 045c 01       		.byte	0x1
 1192 045d 7D       		.byte	0x7d
 1193 045e 1E       		.uleb128 0x1e
 1194 045f AF020000 		.4byte	0x2af
ARM GAS  /tmp/ccSY1si9.s 			page 22


 1195 0463 08       		.byte	0x8
 1196 0464 1F       		.uleb128 0x1f
 1197 0465 0E000000 		.4byte	.LVL20
 1198 0469 D3020000 		.4byte	0x2d3
 1199 046d 77040000 		.4byte	0x477
 1200 0471 18       		.uleb128 0x18
 1201 0472 01       		.uleb128 0x1
 1202 0473 50       		.byte	0x50
 1203 0474 01       		.uleb128 0x1
 1204 0475 38       		.byte	0x38
 1205 0476 00       		.byte	0
 1206 0477 1C       		.uleb128 0x1c
 1207 0478 1A000000 		.4byte	.LVL21
 1208 047c 83070000 		.4byte	0x783
 1209 0480 18       		.uleb128 0x18
 1210 0481 01       		.uleb128 0x1
 1211 0482 50       		.byte	0x50
 1212 0483 03       		.uleb128 0x3
 1213 0484 0A       		.byte	0xa
 1214 0485 A041     		.2byte	0x41a0
 1215 0487 00       		.byte	0
 1216 0488 00       		.byte	0
 1217 0489 00       		.byte	0
 1218 048a 14       		.uleb128 0x14
 1219 048b 60010000 		.4byte	.LASF41
 1220 048f 01       		.byte	0x1
 1221 0490 4B       		.byte	0x4b
 1222 0491 00000000 		.4byte	.LFB123
 1223 0495 94000000 		.4byte	.LFE123-.LFB123
 1224 0499 01       		.uleb128 0x1
 1225 049a 9C       		.byte	0x9c
 1226 049b 34060000 		.4byte	0x634
 1227 049f 21       		.uleb128 0x21
 1228 04a0 A3020000 		.4byte	0x2a3
 1229 04a4 0E000000 		.4byte	.LBB32
 1230 04a8 30000000 		.4byte	.Ldebug_ranges0+0x30
 1231 04ac 01       		.byte	0x1
 1232 04ad 56       		.byte	0x56
 1233 04ae DE040000 		.4byte	0x4de
 1234 04b2 1E       		.uleb128 0x1e
 1235 04b3 AF020000 		.4byte	0x2af
 1236 04b7 38       		.byte	0x38
 1237 04b8 1F       		.uleb128 0x1f
 1238 04b9 1E000000 		.4byte	.LVL23
 1239 04bd D3020000 		.4byte	0x2d3
 1240 04c1 CC040000 		.4byte	0x4cc
 1241 04c5 18       		.uleb128 0x18
 1242 04c6 01       		.uleb128 0x1
 1243 04c7 50       		.byte	0x50
 1244 04c8 02       		.uleb128 0x2
 1245 04c9 08       		.byte	0x8
 1246 04ca 38       		.byte	0x38
 1247 04cb 00       		.byte	0
 1248 04cc 17       		.uleb128 0x17
 1249 04cd 26000000 		.4byte	.LVL24
 1250 04d1 83070000 		.4byte	0x783
 1251 04d5 18       		.uleb128 0x18
ARM GAS  /tmp/ccSY1si9.s 			page 23


 1252 04d6 01       		.uleb128 0x1
 1253 04d7 50       		.byte	0x50
 1254 04d8 03       		.uleb128 0x3
 1255 04d9 0A       		.byte	0xa
 1256 04da A041     		.2byte	0x41a0
 1257 04dc 00       		.byte	0
 1258 04dd 00       		.byte	0
 1259 04de 1D       		.uleb128 0x1d
 1260 04df A3020000 		.4byte	0x2a3
 1261 04e3 2C000000 		.4byte	.LBB36
 1262 04e7 10000000 		.4byte	.LBE36-.LBB36
 1263 04eb 01       		.byte	0x1
 1264 04ec 58       		.byte	0x58
 1265 04ed 1D050000 		.4byte	0x51d
 1266 04f1 1E       		.uleb128 0x1e
 1267 04f2 AF020000 		.4byte	0x2af
 1268 04f6 38       		.byte	0x38
 1269 04f7 1F       		.uleb128 0x1f
 1270 04f8 34000000 		.4byte	.LVL26
 1271 04fc D3020000 		.4byte	0x2d3
 1272 0500 0B050000 		.4byte	0x50b
 1273 0504 18       		.uleb128 0x18
 1274 0505 01       		.uleb128 0x1
 1275 0506 50       		.byte	0x50
 1276 0507 02       		.uleb128 0x2
 1277 0508 08       		.byte	0x8
 1278 0509 38       		.byte	0x38
 1279 050a 00       		.byte	0
 1280 050b 17       		.uleb128 0x17
 1281 050c 3C000000 		.4byte	.LVL27
 1282 0510 83070000 		.4byte	0x783
 1283 0514 18       		.uleb128 0x18
 1284 0515 01       		.uleb128 0x1
 1285 0516 50       		.byte	0x50
 1286 0517 03       		.uleb128 0x3
 1287 0518 0A       		.byte	0xa
 1288 0519 A041     		.2byte	0x41a0
 1289 051b 00       		.byte	0
 1290 051c 00       		.byte	0
 1291 051d 1D       		.uleb128 0x1d
 1292 051e A3020000 		.4byte	0x2a3
 1293 0522 44000000 		.4byte	.LBB38
 1294 0526 10000000 		.4byte	.LBE38-.LBB38
 1295 052a 01       		.byte	0x1
 1296 052b 5A       		.byte	0x5a
 1297 052c 5C050000 		.4byte	0x55c
 1298 0530 1E       		.uleb128 0x1e
 1299 0531 AF020000 		.4byte	0x2af
 1300 0535 38       		.byte	0x38
 1301 0536 1F       		.uleb128 0x1f
 1302 0537 4C000000 		.4byte	.LVL29
 1303 053b D3020000 		.4byte	0x2d3
 1304 053f 4A050000 		.4byte	0x54a
 1305 0543 18       		.uleb128 0x18
 1306 0544 01       		.uleb128 0x1
 1307 0545 50       		.byte	0x50
 1308 0546 02       		.uleb128 0x2
ARM GAS  /tmp/ccSY1si9.s 			page 24


 1309 0547 08       		.byte	0x8
 1310 0548 38       		.byte	0x38
 1311 0549 00       		.byte	0
 1312 054a 17       		.uleb128 0x17
 1313 054b 54000000 		.4byte	.LVL30
 1314 054f 83070000 		.4byte	0x783
 1315 0553 18       		.uleb128 0x18
 1316 0554 01       		.uleb128 0x1
 1317 0555 50       		.byte	0x50
 1318 0556 03       		.uleb128 0x3
 1319 0557 0A       		.byte	0xa
 1320 0558 A041     		.2byte	0x41a0
 1321 055a 00       		.byte	0
 1322 055b 00       		.byte	0
 1323 055c 1D       		.uleb128 0x1d
 1324 055d A3020000 		.4byte	0x2a3
 1325 0561 54000000 		.4byte	.LBB40
 1326 0565 10000000 		.4byte	.LBE40-.LBB40
 1327 0569 01       		.byte	0x1
 1328 056a 5D       		.byte	0x5d
 1329 056b 9B050000 		.4byte	0x59b
 1330 056f 1E       		.uleb128 0x1e
 1331 0570 AF020000 		.4byte	0x2af
 1332 0574 38       		.byte	0x38
 1333 0575 1F       		.uleb128 0x1f
 1334 0576 5C000000 		.4byte	.LVL31
 1335 057a D3020000 		.4byte	0x2d3
 1336 057e 89050000 		.4byte	0x589
 1337 0582 18       		.uleb128 0x18
 1338 0583 01       		.uleb128 0x1
 1339 0584 50       		.byte	0x50
 1340 0585 02       		.uleb128 0x2
 1341 0586 08       		.byte	0x8
 1342 0587 38       		.byte	0x38
 1343 0588 00       		.byte	0
 1344 0589 17       		.uleb128 0x17
 1345 058a 64000000 		.4byte	.LVL32
 1346 058e 83070000 		.4byte	0x783
 1347 0592 18       		.uleb128 0x18
 1348 0593 01       		.uleb128 0x1
 1349 0594 50       		.byte	0x50
 1350 0595 03       		.uleb128 0x3
 1351 0596 0A       		.byte	0xa
 1352 0597 A041     		.2byte	0x41a0
 1353 0599 00       		.byte	0
 1354 059a 00       		.byte	0
 1355 059b 1D       		.uleb128 0x1d
 1356 059c A3020000 		.4byte	0x2a3
 1357 05a0 6C000000 		.4byte	.LBB42
 1358 05a4 10000000 		.4byte	.LBE42-.LBB42
 1359 05a8 01       		.byte	0x1
 1360 05a9 66       		.byte	0x66
 1361 05aa D9050000 		.4byte	0x5d9
 1362 05ae 1E       		.uleb128 0x1e
 1363 05af AF020000 		.4byte	0x2af
 1364 05b3 06       		.byte	0x6
 1365 05b4 1F       		.uleb128 0x1f
ARM GAS  /tmp/ccSY1si9.s 			page 25


 1366 05b5 74000000 		.4byte	.LVL35
 1367 05b9 D3020000 		.4byte	0x2d3
 1368 05bd C7050000 		.4byte	0x5c7
 1369 05c1 18       		.uleb128 0x18
 1370 05c2 01       		.uleb128 0x1
 1371 05c3 50       		.byte	0x50
 1372 05c4 01       		.uleb128 0x1
 1373 05c5 36       		.byte	0x36
 1374 05c6 00       		.byte	0
 1375 05c7 17       		.uleb128 0x17
 1376 05c8 7C000000 		.4byte	.LVL36
 1377 05cc 83070000 		.4byte	0x783
 1378 05d0 18       		.uleb128 0x18
 1379 05d1 01       		.uleb128 0x1
 1380 05d2 50       		.byte	0x50
 1381 05d3 03       		.uleb128 0x3
 1382 05d4 0A       		.byte	0xa
 1383 05d5 A041     		.2byte	0x41a0
 1384 05d7 00       		.byte	0
 1385 05d8 00       		.byte	0
 1386 05d9 1F       		.uleb128 0x1f
 1387 05da 16000000 		.4byte	.LVL22
 1388 05de 94070000 		.4byte	0x794
 1389 05e2 EC050000 		.4byte	0x5ec
 1390 05e6 18       		.uleb128 0x18
 1391 05e7 01       		.uleb128 0x1
 1392 05e8 50       		.byte	0x50
 1393 05e9 01       		.uleb128 0x1
 1394 05ea 3F       		.byte	0x3f
 1395 05eb 00       		.byte	0
 1396 05ec 1F       		.uleb128 0x1f
 1397 05ed 2C000000 		.4byte	.LVL25
 1398 05f1 83070000 		.4byte	0x783
 1399 05f5 03060000 		.4byte	0x603
 1400 05f9 18       		.uleb128 0x18
 1401 05fa 01       		.uleb128 0x1
 1402 05fb 50       		.byte	0x50
 1403 05fc 05       		.uleb128 0x5
 1404 05fd 0C       		.byte	0xc
 1405 05fe A08F0C00 		.4byte	0xc8fa0
 1406 0602 00       		.byte	0
 1407 0603 1F       		.uleb128 0x1f
 1408 0604 44000000 		.4byte	.LVL28
 1409 0608 83070000 		.4byte	0x783
 1410 060c 18060000 		.4byte	0x618
 1411 0610 18       		.uleb128 0x18
 1412 0611 01       		.uleb128 0x1
 1413 0612 50       		.byte	0x50
 1414 0613 03       		.uleb128 0x3
 1415 0614 0A       		.byte	0xa
 1416 0615 D020     		.2byte	0x20d0
 1417 0617 00       		.byte	0
 1418 0618 1B       		.uleb128 0x1b
 1419 0619 68000000 		.4byte	.LVL33
 1420 061d 3A040000 		.4byte	0x43a
 1421 0621 1B       		.uleb128 0x1b
 1422 0622 6C000000 		.4byte	.LVL34
ARM GAS  /tmp/ccSY1si9.s 			page 26


 1423 0626 83030000 		.4byte	0x383
 1424 062a 22       		.uleb128 0x22
 1425 062b 84000000 		.4byte	.LVL37
 1426 062f EA030000 		.4byte	0x3ea
 1427 0633 00       		.byte	0
 1428 0634 14       		.uleb128 0x14
 1429 0635 F6020000 		.4byte	.LASF42
 1430 0639 01       		.byte	0x1
 1431 063a 81       		.byte	0x81
 1432 063b 00000000 		.4byte	.LFB127
 1433 063f 30000000 		.4byte	.LFE127-.LFB127
 1434 0643 01       		.uleb128 0x1
 1435 0644 9C       		.byte	0x9c
 1436 0645 AA060000 		.4byte	0x6aa
 1437 0649 23       		.uleb128 0x23
 1438 064a 636F6C00 		.ascii	"col\000"
 1439 064e 01       		.byte	0x1
 1440 064f 81       		.byte	0x81
 1441 0650 45000000 		.4byte	0x45
 1442 0654 9A000000 		.4byte	.LLST4
 1443 0658 23       		.uleb128 0x23
 1444 0659 726F7700 		.ascii	"row\000"
 1445 065d 01       		.byte	0x1
 1446 065e 81       		.byte	0x81
 1447 065f 45000000 		.4byte	0x45
 1448 0663 BB000000 		.4byte	.LLST5
 1449 0667 24       		.uleb128 0x24
 1450 0668 B6000000 		.4byte	.LASF43
 1451 066c 01       		.byte	0x1
 1452 066d 88       		.byte	0x88
 1453 066e 45000000 		.4byte	0x45
 1454 0672 DC000000 		.4byte	.LLST6
 1455 0676 20       		.uleb128 0x20
 1456 0677 A3020000 		.4byte	0x2a3
 1457 067b 0C000000 		.4byte	.LBB44
 1458 067f 48000000 		.4byte	.Ldebug_ranges0+0x48
 1459 0683 01       		.byte	0x1
 1460 0684 89       		.byte	0x89
 1461 0685 1A       		.uleb128 0x1a
 1462 0686 AF020000 		.4byte	0x2af
 1463 068a DC000000 		.4byte	.LLST6
 1464 068e 1B       		.uleb128 0x1b
 1465 068f 1E000000 		.4byte	.LVL42
 1466 0693 D3020000 		.4byte	0x2d3
 1467 0697 1C       		.uleb128 0x1c
 1468 0698 2A000000 		.4byte	.LVL43
 1469 069c 83070000 		.4byte	0x783
 1470 06a0 18       		.uleb128 0x18
 1471 06a1 01       		.uleb128 0x1
 1472 06a2 50       		.byte	0x50
 1473 06a3 03       		.uleb128 0x3
 1474 06a4 0A       		.byte	0xa
 1475 06a5 A041     		.2byte	0x41a0
 1476 06a7 00       		.byte	0
 1477 06a8 00       		.byte	0
 1478 06a9 00       		.byte	0
 1479 06aa 14       		.uleb128 0x14
ARM GAS  /tmp/ccSY1si9.s 			page 27


 1480 06ab 32000000 		.4byte	.LASF44
 1481 06af 01       		.byte	0x1
 1482 06b0 8D       		.byte	0x8d
 1483 06b1 00000000 		.4byte	.LFB128
 1484 06b5 2C000000 		.4byte	.LFE128-.LFB128
 1485 06b9 01       		.uleb128 0x1
 1486 06ba 9C       		.byte	0x9c
 1487 06bb 16070000 		.4byte	0x716
 1488 06bf 15       		.uleb128 0x15
 1489 06c0 E9020000 		.4byte	.LASF36
 1490 06c4 01       		.byte	0x1
 1491 06c5 8D       		.byte	0x8d
 1492 06c6 CD000000 		.4byte	0xcd
 1493 06ca 08010000 		.4byte	.LLST8
 1494 06ce 21       		.uleb128 0x21
 1495 06cf BB020000 		.4byte	0x2bb
 1496 06d3 06000000 		.4byte	.LBB50
 1497 06d7 68000000 		.4byte	.Ldebug_ranges0+0x68
 1498 06db 01       		.byte	0x1
 1499 06dc 94       		.byte	0x94
 1500 06dd 01070000 		.4byte	0x701
 1501 06e1 25       		.uleb128 0x25
 1502 06e2 C7020000 		.4byte	0x2c7
 1503 06e6 1B       		.uleb128 0x1b
 1504 06e7 10000000 		.4byte	.LVL45
 1505 06eb D3020000 		.4byte	0x2d3
 1506 06ef 1C       		.uleb128 0x1c
 1507 06f0 1C000000 		.4byte	.LVL46
 1508 06f4 83070000 		.4byte	0x783
 1509 06f8 18       		.uleb128 0x18
 1510 06f9 01       		.uleb128 0x1
 1511 06fa 50       		.byte	0x50
 1512 06fb 03       		.uleb128 0x3
 1513 06fc 0A       		.byte	0xa
 1514 06fd D020     		.2byte	0x20d0
 1515 06ff 00       		.byte	0
 1516 0700 00       		.byte	0
 1517 0701 1C       		.uleb128 0x1c
 1518 0702 28000000 		.4byte	.LVL48
 1519 0706 34060000 		.4byte	0x634
 1520 070a 18       		.uleb128 0x18
 1521 070b 01       		.uleb128 0x1
 1522 070c 51       		.byte	0x51
 1523 070d 01       		.uleb128 0x1
 1524 070e 31       		.byte	0x31
 1525 070f 18       		.uleb128 0x18
 1526 0710 01       		.uleb128 0x1
 1527 0711 50       		.byte	0x50
 1528 0712 01       		.uleb128 0x1
 1529 0713 30       		.byte	0x30
 1530 0714 00       		.byte	0
 1531 0715 00       		.byte	0
 1532 0716 26       		.uleb128 0x26
 1533 0717 0D000000 		.4byte	.LASF53
 1534 071b 01       		.byte	0x1
 1535 071c 1A       		.byte	0x1a
 1536 071d A9000000 		.4byte	0xa9
ARM GAS  /tmp/ccSY1si9.s 			page 28


 1537 0721 00000000 		.4byte	.LFB119
 1538 0725 0C000000 		.4byte	.LFE119-.LFB119
 1539 0729 01       		.uleb128 0x1
 1540 072a 9C       		.byte	0x9c
 1541 072b 55070000 		.4byte	0x755
 1542 072f 15       		.uleb128 0x15
 1543 0730 73010000 		.4byte	.LASF45
 1544 0734 01       		.byte	0x1
 1545 0735 1A       		.byte	0x1a
 1546 0736 BF000000 		.4byte	0xbf
 1547 073a 42010000 		.4byte	.LLST9
 1548 073e 23       		.uleb128 0x23
 1549 073f 6200     		.ascii	"b\000"
 1550 0741 01       		.byte	0x1
 1551 0742 1A       		.byte	0x1a
 1552 0743 45000000 		.4byte	0x45
 1553 0747 63010000 		.4byte	.LLST10
 1554 074b 1B       		.uleb128 0x1b
 1555 074c 08000000 		.4byte	.LVL51
 1556 0750 AA060000 		.4byte	0x6aa
 1557 0754 00       		.byte	0
 1558 0755 27       		.uleb128 0x27
 1559 0756 65000000 		.4byte	.LASF46
 1560 075a 01       		.byte	0x1
 1561 075b 20       		.byte	0x20
 1562 075c EF000000 		.4byte	0xef
 1563 0760 05       		.uleb128 0x5
 1564 0761 03       		.byte	0x3
 1565 0762 00000000 		.4byte	_vmt
 1566 0766 28       		.uleb128 0x28
 1567 0767 22030000 		.4byte	.LASF47
 1568 076b 09       		.byte	0x9
 1569 076c 9806     		.2byte	0x698
 1570 076e BA010000 		.4byte	0x1ba
 1571 0772 29       		.uleb128 0x29
 1572 0773 4C434400 		.ascii	"LCD\000"
 1573 0777 01       		.byte	0x1
 1574 0778 19       		.byte	0x19
 1575 0779 AF010000 		.4byte	0x1af
 1576 077d 05       		.uleb128 0x5
 1577 077e 03       		.byte	0x3
 1578 077f 00000000 		.4byte	LCD
 1579 0783 2A       		.uleb128 0x2a
 1580 0784 BB000000 		.4byte	.LASF48
 1581 0788 08       		.byte	0x8
 1582 0789 D4       		.byte	0xd4
 1583 078a 94070000 		.4byte	0x794
 1584 078e 09       		.uleb128 0x9
 1585 078f BF010000 		.4byte	0x1bf
 1586 0793 00       		.byte	0
 1587 0794 2B       		.uleb128 0x2b
 1588 0795 55000000 		.4byte	.LASF54
 1589 0799 0A       		.byte	0xa
 1590 079a 7501     		.2byte	0x175
 1591 079c 09       		.uleb128 0x9
 1592 079d B4000000 		.4byte	0xb4
 1593 07a1 00       		.byte	0
ARM GAS  /tmp/ccSY1si9.s 			page 29


 1594 07a2 00       		.byte	0
 1595              		.section	.debug_abbrev,"",%progbits
 1596              	.Ldebug_abbrev0:
 1597 0000 01       		.uleb128 0x1
 1598 0001 11       		.uleb128 0x11
 1599 0002 01       		.byte	0x1
 1600 0003 25       		.uleb128 0x25
 1601 0004 0E       		.uleb128 0xe
 1602 0005 13       		.uleb128 0x13
 1603 0006 0B       		.uleb128 0xb
 1604 0007 03       		.uleb128 0x3
 1605 0008 0E       		.uleb128 0xe
 1606 0009 1B       		.uleb128 0x1b
 1607 000a 0E       		.uleb128 0xe
 1608 000b 55       		.uleb128 0x55
 1609 000c 17       		.uleb128 0x17
 1610 000d 11       		.uleb128 0x11
 1611 000e 01       		.uleb128 0x1
 1612 000f 10       		.uleb128 0x10
 1613 0010 17       		.uleb128 0x17
 1614 0011 00       		.byte	0
 1615 0012 00       		.byte	0
 1616 0013 02       		.uleb128 0x2
 1617 0014 24       		.uleb128 0x24
 1618 0015 00       		.byte	0
 1619 0016 0B       		.uleb128 0xb
 1620 0017 0B       		.uleb128 0xb
 1621 0018 3E       		.uleb128 0x3e
 1622 0019 0B       		.uleb128 0xb
 1623 001a 03       		.uleb128 0x3
 1624 001b 08       		.uleb128 0x8
 1625 001c 00       		.byte	0
 1626 001d 00       		.byte	0
 1627 001e 03       		.uleb128 0x3
 1628 001f 16       		.uleb128 0x16
 1629 0020 00       		.byte	0
 1630 0021 03       		.uleb128 0x3
 1631 0022 0E       		.uleb128 0xe
 1632 0023 3A       		.uleb128 0x3a
 1633 0024 0B       		.uleb128 0xb
 1634 0025 3B       		.uleb128 0x3b
 1635 0026 0B       		.uleb128 0xb
 1636 0027 49       		.uleb128 0x49
 1637 0028 13       		.uleb128 0x13
 1638 0029 00       		.byte	0
 1639 002a 00       		.byte	0
 1640 002b 04       		.uleb128 0x4
 1641 002c 24       		.uleb128 0x24
 1642 002d 00       		.byte	0
 1643 002e 0B       		.uleb128 0xb
 1644 002f 0B       		.uleb128 0xb
 1645 0030 3E       		.uleb128 0x3e
 1646 0031 0B       		.uleb128 0xb
 1647 0032 03       		.uleb128 0x3
 1648 0033 0E       		.uleb128 0xe
 1649 0034 00       		.byte	0
 1650 0035 00       		.byte	0
ARM GAS  /tmp/ccSY1si9.s 			page 30


 1651 0036 05       		.uleb128 0x5
 1652 0037 0F       		.uleb128 0xf
 1653 0038 00       		.byte	0
 1654 0039 0B       		.uleb128 0xb
 1655 003a 0B       		.uleb128 0xb
 1656 003b 00       		.byte	0
 1657 003c 00       		.byte	0
 1658 003d 06       		.uleb128 0x6
 1659 003e 35       		.uleb128 0x35
 1660 003f 00       		.byte	0
 1661 0040 49       		.uleb128 0x49
 1662 0041 13       		.uleb128 0x13
 1663 0042 00       		.byte	0
 1664 0043 00       		.byte	0
 1665 0044 07       		.uleb128 0x7
 1666 0045 0F       		.uleb128 0xf
 1667 0046 00       		.byte	0
 1668 0047 0B       		.uleb128 0xb
 1669 0048 0B       		.uleb128 0xb
 1670 0049 49       		.uleb128 0x49
 1671 004a 13       		.uleb128 0x13
 1672 004b 00       		.byte	0
 1673 004c 00       		.byte	0
 1674 004d 08       		.uleb128 0x8
 1675 004e 15       		.uleb128 0x15
 1676 004f 01       		.byte	0x1
 1677 0050 27       		.uleb128 0x27
 1678 0051 19       		.uleb128 0x19
 1679 0052 49       		.uleb128 0x49
 1680 0053 13       		.uleb128 0x13
 1681 0054 01       		.uleb128 0x1
 1682 0055 13       		.uleb128 0x13
 1683 0056 00       		.byte	0
 1684 0057 00       		.byte	0
 1685 0058 09       		.uleb128 0x9
 1686 0059 05       		.uleb128 0x5
 1687 005a 00       		.byte	0
 1688 005b 49       		.uleb128 0x49
 1689 005c 13       		.uleb128 0x13
 1690 005d 00       		.byte	0
 1691 005e 00       		.byte	0
 1692 005f 0A       		.uleb128 0xa
 1693 0060 13       		.uleb128 0x13
 1694 0061 01       		.byte	0x1
 1695 0062 03       		.uleb128 0x3
 1696 0063 0E       		.uleb128 0xe
 1697 0064 0B       		.uleb128 0xb
 1698 0065 0B       		.uleb128 0xb
 1699 0066 3A       		.uleb128 0x3a
 1700 0067 0B       		.uleb128 0xb
 1701 0068 3B       		.uleb128 0x3b
 1702 0069 0B       		.uleb128 0xb
 1703 006a 01       		.uleb128 0x1
 1704 006b 13       		.uleb128 0x13
 1705 006c 00       		.byte	0
 1706 006d 00       		.byte	0
 1707 006e 0B       		.uleb128 0xb
ARM GAS  /tmp/ccSY1si9.s 			page 31


 1708 006f 0D       		.uleb128 0xd
 1709 0070 00       		.byte	0
 1710 0071 03       		.uleb128 0x3
 1711 0072 0E       		.uleb128 0xe
 1712 0073 3A       		.uleb128 0x3a
 1713 0074 0B       		.uleb128 0xb
 1714 0075 3B       		.uleb128 0x3b
 1715 0076 0B       		.uleb128 0xb
 1716 0077 49       		.uleb128 0x49
 1717 0078 13       		.uleb128 0x13
 1718 0079 38       		.uleb128 0x38
 1719 007a 0B       		.uleb128 0xb
 1720 007b 00       		.byte	0
 1721 007c 00       		.byte	0
 1722 007d 0C       		.uleb128 0xc
 1723 007e 0D       		.uleb128 0xd
 1724 007f 00       		.byte	0
 1725 0080 03       		.uleb128 0x3
 1726 0081 08       		.uleb128 0x8
 1727 0082 3A       		.uleb128 0x3a
 1728 0083 0B       		.uleb128 0xb
 1729 0084 3B       		.uleb128 0x3b
 1730 0085 0B       		.uleb128 0xb
 1731 0086 49       		.uleb128 0x49
 1732 0087 13       		.uleb128 0x13
 1733 0088 38       		.uleb128 0x38
 1734 0089 0B       		.uleb128 0xb
 1735 008a 00       		.byte	0
 1736 008b 00       		.byte	0
 1737 008c 0D       		.uleb128 0xd
 1738 008d 26       		.uleb128 0x26
 1739 008e 00       		.byte	0
 1740 008f 49       		.uleb128 0x49
 1741 0090 13       		.uleb128 0x13
 1742 0091 00       		.byte	0
 1743 0092 00       		.byte	0
 1744 0093 0E       		.uleb128 0xe
 1745 0094 13       		.uleb128 0x13
 1746 0095 01       		.byte	0x1
 1747 0096 0B       		.uleb128 0xb
 1748 0097 0B       		.uleb128 0xb
 1749 0098 3A       		.uleb128 0x3a
 1750 0099 0B       		.uleb128 0xb
 1751 009a 3B       		.uleb128 0x3b
 1752 009b 0B       		.uleb128 0xb
 1753 009c 01       		.uleb128 0x1
 1754 009d 13       		.uleb128 0x13
 1755 009e 00       		.byte	0
 1756 009f 00       		.byte	0
 1757 00a0 0F       		.uleb128 0xf
 1758 00a1 16       		.uleb128 0x16
 1759 00a2 00       		.byte	0
 1760 00a3 03       		.uleb128 0x3
 1761 00a4 0E       		.uleb128 0xe
 1762 00a5 3A       		.uleb128 0x3a
 1763 00a6 0B       		.uleb128 0xb
 1764 00a7 3B       		.uleb128 0x3b
ARM GAS  /tmp/ccSY1si9.s 			page 32


 1765 00a8 05       		.uleb128 0x5
 1766 00a9 49       		.uleb128 0x49
 1767 00aa 13       		.uleb128 0x13
 1768 00ab 00       		.byte	0
 1769 00ac 00       		.byte	0
 1770 00ad 10       		.uleb128 0x10
 1771 00ae 17       		.uleb128 0x17
 1772 00af 01       		.byte	0x1
 1773 00b0 0B       		.uleb128 0xb
 1774 00b1 0B       		.uleb128 0xb
 1775 00b2 3A       		.uleb128 0x3a
 1776 00b3 0B       		.uleb128 0xb
 1777 00b4 3B       		.uleb128 0x3b
 1778 00b5 0B       		.uleb128 0xb
 1779 00b6 01       		.uleb128 0x1
 1780 00b7 13       		.uleb128 0x13
 1781 00b8 00       		.byte	0
 1782 00b9 00       		.byte	0
 1783 00ba 11       		.uleb128 0x11
 1784 00bb 0D       		.uleb128 0xd
 1785 00bc 00       		.byte	0
 1786 00bd 03       		.uleb128 0x3
 1787 00be 08       		.uleb128 0x8
 1788 00bf 3A       		.uleb128 0x3a
 1789 00c0 0B       		.uleb128 0xb
 1790 00c1 3B       		.uleb128 0x3b
 1791 00c2 0B       		.uleb128 0xb
 1792 00c3 49       		.uleb128 0x49
 1793 00c4 13       		.uleb128 0x13
 1794 00c5 00       		.byte	0
 1795 00c6 00       		.byte	0
 1796 00c7 12       		.uleb128 0x12
 1797 00c8 2E       		.uleb128 0x2e
 1798 00c9 01       		.byte	0x1
 1799 00ca 3F       		.uleb128 0x3f
 1800 00cb 19       		.uleb128 0x19
 1801 00cc 03       		.uleb128 0x3
 1802 00cd 0E       		.uleb128 0xe
 1803 00ce 3A       		.uleb128 0x3a
 1804 00cf 0B       		.uleb128 0xb
 1805 00d0 3B       		.uleb128 0x3b
 1806 00d1 0B       		.uleb128 0xb
 1807 00d2 27       		.uleb128 0x27
 1808 00d3 19       		.uleb128 0x19
 1809 00d4 20       		.uleb128 0x20
 1810 00d5 0B       		.uleb128 0xb
 1811 00d6 01       		.uleb128 0x1
 1812 00d7 13       		.uleb128 0x13
 1813 00d8 00       		.byte	0
 1814 00d9 00       		.byte	0
 1815 00da 13       		.uleb128 0x13
 1816 00db 05       		.uleb128 0x5
 1817 00dc 00       		.byte	0
 1818 00dd 03       		.uleb128 0x3
 1819 00de 0E       		.uleb128 0xe
 1820 00df 3A       		.uleb128 0x3a
 1821 00e0 0B       		.uleb128 0xb
ARM GAS  /tmp/ccSY1si9.s 			page 33


 1822 00e1 3B       		.uleb128 0x3b
 1823 00e2 0B       		.uleb128 0xb
 1824 00e3 49       		.uleb128 0x49
 1825 00e4 13       		.uleb128 0x13
 1826 00e5 00       		.byte	0
 1827 00e6 00       		.byte	0
 1828 00e7 14       		.uleb128 0x14
 1829 00e8 2E       		.uleb128 0x2e
 1830 00e9 01       		.byte	0x1
 1831 00ea 3F       		.uleb128 0x3f
 1832 00eb 19       		.uleb128 0x19
 1833 00ec 03       		.uleb128 0x3
 1834 00ed 0E       		.uleb128 0xe
 1835 00ee 3A       		.uleb128 0x3a
 1836 00ef 0B       		.uleb128 0xb
 1837 00f0 3B       		.uleb128 0x3b
 1838 00f1 0B       		.uleb128 0xb
 1839 00f2 27       		.uleb128 0x27
 1840 00f3 19       		.uleb128 0x19
 1841 00f4 11       		.uleb128 0x11
 1842 00f5 01       		.uleb128 0x1
 1843 00f6 12       		.uleb128 0x12
 1844 00f7 06       		.uleb128 0x6
 1845 00f8 40       		.uleb128 0x40
 1846 00f9 18       		.uleb128 0x18
 1847 00fa 9742     		.uleb128 0x2117
 1848 00fc 19       		.uleb128 0x19
 1849 00fd 01       		.uleb128 0x1
 1850 00fe 13       		.uleb128 0x13
 1851 00ff 00       		.byte	0
 1852 0100 00       		.byte	0
 1853 0101 15       		.uleb128 0x15
 1854 0102 05       		.uleb128 0x5
 1855 0103 00       		.byte	0
 1856 0104 03       		.uleb128 0x3
 1857 0105 0E       		.uleb128 0xe
 1858 0106 3A       		.uleb128 0x3a
 1859 0107 0B       		.uleb128 0xb
 1860 0108 3B       		.uleb128 0x3b
 1861 0109 0B       		.uleb128 0xb
 1862 010a 49       		.uleb128 0x49
 1863 010b 13       		.uleb128 0x13
 1864 010c 02       		.uleb128 0x2
 1865 010d 17       		.uleb128 0x17
 1866 010e 00       		.byte	0
 1867 010f 00       		.byte	0
 1868 0110 16       		.uleb128 0x16
 1869 0111 34       		.uleb128 0x34
 1870 0112 00       		.byte	0
 1871 0113 03       		.uleb128 0x3
 1872 0114 08       		.uleb128 0x8
 1873 0115 3A       		.uleb128 0x3a
 1874 0116 0B       		.uleb128 0xb
 1875 0117 3B       		.uleb128 0x3b
 1876 0118 0B       		.uleb128 0xb
 1877 0119 49       		.uleb128 0x49
 1878 011a 13       		.uleb128 0x13
ARM GAS  /tmp/ccSY1si9.s 			page 34


 1879 011b 02       		.uleb128 0x2
 1880 011c 17       		.uleb128 0x17
 1881 011d 00       		.byte	0
 1882 011e 00       		.byte	0
 1883 011f 17       		.uleb128 0x17
 1884 0120 898201   		.uleb128 0x4109
 1885 0123 01       		.byte	0x1
 1886 0124 11       		.uleb128 0x11
 1887 0125 01       		.uleb128 0x1
 1888 0126 31       		.uleb128 0x31
 1889 0127 13       		.uleb128 0x13
 1890 0128 00       		.byte	0
 1891 0129 00       		.byte	0
 1892 012a 18       		.uleb128 0x18
 1893 012b 8A8201   		.uleb128 0x410a
 1894 012e 00       		.byte	0
 1895 012f 02       		.uleb128 0x2
 1896 0130 18       		.uleb128 0x18
 1897 0131 9142     		.uleb128 0x2111
 1898 0133 18       		.uleb128 0x18
 1899 0134 00       		.byte	0
 1900 0135 00       		.byte	0
 1901 0136 19       		.uleb128 0x19
 1902 0137 2E       		.uleb128 0x2e
 1903 0138 01       		.byte	0x1
 1904 0139 31       		.uleb128 0x31
 1905 013a 13       		.uleb128 0x13
 1906 013b 11       		.uleb128 0x11
 1907 013c 01       		.uleb128 0x1
 1908 013d 12       		.uleb128 0x12
 1909 013e 06       		.uleb128 0x6
 1910 013f 40       		.uleb128 0x40
 1911 0140 18       		.uleb128 0x18
 1912 0141 9742     		.uleb128 0x2117
 1913 0143 19       		.uleb128 0x19
 1914 0144 01       		.uleb128 0x1
 1915 0145 13       		.uleb128 0x13
 1916 0146 00       		.byte	0
 1917 0147 00       		.byte	0
 1918 0148 1A       		.uleb128 0x1a
 1919 0149 05       		.uleb128 0x5
 1920 014a 00       		.byte	0
 1921 014b 31       		.uleb128 0x31
 1922 014c 13       		.uleb128 0x13
 1923 014d 02       		.uleb128 0x2
 1924 014e 17       		.uleb128 0x17
 1925 014f 00       		.byte	0
 1926 0150 00       		.byte	0
 1927 0151 1B       		.uleb128 0x1b
 1928 0152 898201   		.uleb128 0x4109
 1929 0155 00       		.byte	0
 1930 0156 11       		.uleb128 0x11
 1931 0157 01       		.uleb128 0x1
 1932 0158 31       		.uleb128 0x31
 1933 0159 13       		.uleb128 0x13
 1934 015a 00       		.byte	0
 1935 015b 00       		.byte	0
ARM GAS  /tmp/ccSY1si9.s 			page 35


 1936 015c 1C       		.uleb128 0x1c
 1937 015d 898201   		.uleb128 0x4109
 1938 0160 01       		.byte	0x1
 1939 0161 11       		.uleb128 0x11
 1940 0162 01       		.uleb128 0x1
 1941 0163 9542     		.uleb128 0x2115
 1942 0165 19       		.uleb128 0x19
 1943 0166 31       		.uleb128 0x31
 1944 0167 13       		.uleb128 0x13
 1945 0168 00       		.byte	0
 1946 0169 00       		.byte	0
 1947 016a 1D       		.uleb128 0x1d
 1948 016b 1D       		.uleb128 0x1d
 1949 016c 01       		.byte	0x1
 1950 016d 31       		.uleb128 0x31
 1951 016e 13       		.uleb128 0x13
 1952 016f 11       		.uleb128 0x11
 1953 0170 01       		.uleb128 0x1
 1954 0171 12       		.uleb128 0x12
 1955 0172 06       		.uleb128 0x6
 1956 0173 58       		.uleb128 0x58
 1957 0174 0B       		.uleb128 0xb
 1958 0175 59       		.uleb128 0x59
 1959 0176 0B       		.uleb128 0xb
 1960 0177 01       		.uleb128 0x1
 1961 0178 13       		.uleb128 0x13
 1962 0179 00       		.byte	0
 1963 017a 00       		.byte	0
 1964 017b 1E       		.uleb128 0x1e
 1965 017c 05       		.uleb128 0x5
 1966 017d 00       		.byte	0
 1967 017e 31       		.uleb128 0x31
 1968 017f 13       		.uleb128 0x13
 1969 0180 1C       		.uleb128 0x1c
 1970 0181 0B       		.uleb128 0xb
 1971 0182 00       		.byte	0
 1972 0183 00       		.byte	0
 1973 0184 1F       		.uleb128 0x1f
 1974 0185 898201   		.uleb128 0x4109
 1975 0188 01       		.byte	0x1
 1976 0189 11       		.uleb128 0x11
 1977 018a 01       		.uleb128 0x1
 1978 018b 31       		.uleb128 0x31
 1979 018c 13       		.uleb128 0x13
 1980 018d 01       		.uleb128 0x1
 1981 018e 13       		.uleb128 0x13
 1982 018f 00       		.byte	0
 1983 0190 00       		.byte	0
 1984 0191 20       		.uleb128 0x20
 1985 0192 1D       		.uleb128 0x1d
 1986 0193 01       		.byte	0x1
 1987 0194 31       		.uleb128 0x31
 1988 0195 13       		.uleb128 0x13
 1989 0196 52       		.uleb128 0x52
 1990 0197 01       		.uleb128 0x1
 1991 0198 55       		.uleb128 0x55
 1992 0199 17       		.uleb128 0x17
ARM GAS  /tmp/ccSY1si9.s 			page 36


 1993 019a 58       		.uleb128 0x58
 1994 019b 0B       		.uleb128 0xb
 1995 019c 59       		.uleb128 0x59
 1996 019d 0B       		.uleb128 0xb
 1997 019e 00       		.byte	0
 1998 019f 00       		.byte	0
 1999 01a0 21       		.uleb128 0x21
 2000 01a1 1D       		.uleb128 0x1d
 2001 01a2 01       		.byte	0x1
 2002 01a3 31       		.uleb128 0x31
 2003 01a4 13       		.uleb128 0x13
 2004 01a5 52       		.uleb128 0x52
 2005 01a6 01       		.uleb128 0x1
 2006 01a7 55       		.uleb128 0x55
 2007 01a8 17       		.uleb128 0x17
 2008 01a9 58       		.uleb128 0x58
 2009 01aa 0B       		.uleb128 0xb
 2010 01ab 59       		.uleb128 0x59
 2011 01ac 0B       		.uleb128 0xb
 2012 01ad 01       		.uleb128 0x1
 2013 01ae 13       		.uleb128 0x13
 2014 01af 00       		.byte	0
 2015 01b0 00       		.byte	0
 2016 01b1 22       		.uleb128 0x22
 2017 01b2 898201   		.uleb128 0x4109
 2018 01b5 00       		.byte	0
 2019 01b6 11       		.uleb128 0x11
 2020 01b7 01       		.uleb128 0x1
 2021 01b8 9542     		.uleb128 0x2115
 2022 01ba 19       		.uleb128 0x19
 2023 01bb 31       		.uleb128 0x31
 2024 01bc 13       		.uleb128 0x13
 2025 01bd 00       		.byte	0
 2026 01be 00       		.byte	0
 2027 01bf 23       		.uleb128 0x23
 2028 01c0 05       		.uleb128 0x5
 2029 01c1 00       		.byte	0
 2030 01c2 03       		.uleb128 0x3
 2031 01c3 08       		.uleb128 0x8
 2032 01c4 3A       		.uleb128 0x3a
 2033 01c5 0B       		.uleb128 0xb
 2034 01c6 3B       		.uleb128 0x3b
 2035 01c7 0B       		.uleb128 0xb
 2036 01c8 49       		.uleb128 0x49
 2037 01c9 13       		.uleb128 0x13
 2038 01ca 02       		.uleb128 0x2
 2039 01cb 17       		.uleb128 0x17
 2040 01cc 00       		.byte	0
 2041 01cd 00       		.byte	0
 2042 01ce 24       		.uleb128 0x24
 2043 01cf 34       		.uleb128 0x34
 2044 01d0 00       		.byte	0
 2045 01d1 03       		.uleb128 0x3
 2046 01d2 0E       		.uleb128 0xe
 2047 01d3 3A       		.uleb128 0x3a
 2048 01d4 0B       		.uleb128 0xb
 2049 01d5 3B       		.uleb128 0x3b
ARM GAS  /tmp/ccSY1si9.s 			page 37


 2050 01d6 0B       		.uleb128 0xb
 2051 01d7 49       		.uleb128 0x49
 2052 01d8 13       		.uleb128 0x13
 2053 01d9 02       		.uleb128 0x2
 2054 01da 17       		.uleb128 0x17
 2055 01db 00       		.byte	0
 2056 01dc 00       		.byte	0
 2057 01dd 25       		.uleb128 0x25
 2058 01de 05       		.uleb128 0x5
 2059 01df 00       		.byte	0
 2060 01e0 31       		.uleb128 0x31
 2061 01e1 13       		.uleb128 0x13
 2062 01e2 00       		.byte	0
 2063 01e3 00       		.byte	0
 2064 01e4 26       		.uleb128 0x26
 2065 01e5 2E       		.uleb128 0x2e
 2066 01e6 01       		.byte	0x1
 2067 01e7 03       		.uleb128 0x3
 2068 01e8 0E       		.uleb128 0xe
 2069 01e9 3A       		.uleb128 0x3a
 2070 01ea 0B       		.uleb128 0xb
 2071 01eb 3B       		.uleb128 0x3b
 2072 01ec 0B       		.uleb128 0xb
 2073 01ed 27       		.uleb128 0x27
 2074 01ee 19       		.uleb128 0x19
 2075 01ef 49       		.uleb128 0x49
 2076 01f0 13       		.uleb128 0x13
 2077 01f1 11       		.uleb128 0x11
 2078 01f2 01       		.uleb128 0x1
 2079 01f3 12       		.uleb128 0x12
 2080 01f4 06       		.uleb128 0x6
 2081 01f5 40       		.uleb128 0x40
 2082 01f6 18       		.uleb128 0x18
 2083 01f7 9742     		.uleb128 0x2117
 2084 01f9 19       		.uleb128 0x19
 2085 01fa 01       		.uleb128 0x1
 2086 01fb 13       		.uleb128 0x13
 2087 01fc 00       		.byte	0
 2088 01fd 00       		.byte	0
 2089 01fe 27       		.uleb128 0x27
 2090 01ff 34       		.uleb128 0x34
 2091 0200 00       		.byte	0
 2092 0201 03       		.uleb128 0x3
 2093 0202 0E       		.uleb128 0xe
 2094 0203 3A       		.uleb128 0x3a
 2095 0204 0B       		.uleb128 0xb
 2096 0205 3B       		.uleb128 0x3b
 2097 0206 0B       		.uleb128 0xb
 2098 0207 49       		.uleb128 0x49
 2099 0208 13       		.uleb128 0x13
 2100 0209 02       		.uleb128 0x2
 2101 020a 18       		.uleb128 0x18
 2102 020b 00       		.byte	0
 2103 020c 00       		.byte	0
 2104 020d 28       		.uleb128 0x28
 2105 020e 34       		.uleb128 0x34
 2106 020f 00       		.byte	0
ARM GAS  /tmp/ccSY1si9.s 			page 38


 2107 0210 03       		.uleb128 0x3
 2108 0211 0E       		.uleb128 0xe
 2109 0212 3A       		.uleb128 0x3a
 2110 0213 0B       		.uleb128 0xb
 2111 0214 3B       		.uleb128 0x3b
 2112 0215 05       		.uleb128 0x5
 2113 0216 49       		.uleb128 0x49
 2114 0217 13       		.uleb128 0x13
 2115 0218 3F       		.uleb128 0x3f
 2116 0219 19       		.uleb128 0x19
 2117 021a 3C       		.uleb128 0x3c
 2118 021b 19       		.uleb128 0x19
 2119 021c 00       		.byte	0
 2120 021d 00       		.byte	0
 2121 021e 29       		.uleb128 0x29
 2122 021f 34       		.uleb128 0x34
 2123 0220 00       		.byte	0
 2124 0221 03       		.uleb128 0x3
 2125 0222 08       		.uleb128 0x8
 2126 0223 3A       		.uleb128 0x3a
 2127 0224 0B       		.uleb128 0xb
 2128 0225 3B       		.uleb128 0x3b
 2129 0226 0B       		.uleb128 0xb
 2130 0227 49       		.uleb128 0x49
 2131 0228 13       		.uleb128 0x13
 2132 0229 3F       		.uleb128 0x3f
 2133 022a 19       		.uleb128 0x19
 2134 022b 02       		.uleb128 0x2
 2135 022c 18       		.uleb128 0x18
 2136 022d 00       		.byte	0
 2137 022e 00       		.byte	0
 2138 022f 2A       		.uleb128 0x2a
 2139 0230 2E       		.uleb128 0x2e
 2140 0231 01       		.byte	0x1
 2141 0232 3F       		.uleb128 0x3f
 2142 0233 19       		.uleb128 0x19
 2143 0234 03       		.uleb128 0x3
 2144 0235 0E       		.uleb128 0xe
 2145 0236 3A       		.uleb128 0x3a
 2146 0237 0B       		.uleb128 0xb
 2147 0238 3B       		.uleb128 0x3b
 2148 0239 0B       		.uleb128 0xb
 2149 023a 27       		.uleb128 0x27
 2150 023b 19       		.uleb128 0x19
 2151 023c 3C       		.uleb128 0x3c
 2152 023d 19       		.uleb128 0x19
 2153 023e 01       		.uleb128 0x1
 2154 023f 13       		.uleb128 0x13
 2155 0240 00       		.byte	0
 2156 0241 00       		.byte	0
 2157 0242 2B       		.uleb128 0x2b
 2158 0243 2E       		.uleb128 0x2e
 2159 0244 01       		.byte	0x1
 2160 0245 3F       		.uleb128 0x3f
 2161 0246 19       		.uleb128 0x19
 2162 0247 03       		.uleb128 0x3
 2163 0248 0E       		.uleb128 0xe
ARM GAS  /tmp/ccSY1si9.s 			page 39


 2164 0249 3A       		.uleb128 0x3a
 2165 024a 0B       		.uleb128 0xb
 2166 024b 3B       		.uleb128 0x3b
 2167 024c 05       		.uleb128 0x5
 2168 024d 27       		.uleb128 0x27
 2169 024e 19       		.uleb128 0x19
 2170 024f 3C       		.uleb128 0x3c
 2171 0250 19       		.uleb128 0x19
 2172 0251 00       		.byte	0
 2173 0252 00       		.byte	0
 2174 0253 00       		.byte	0
 2175              		.section	.debug_loc,"",%progbits
 2176              	.Ldebug_loc0:
 2177              	.LLST0:
 2178 0000 00000000 		.4byte	.LVL0
 2179 0004 16000000 		.4byte	.LVL2
 2180 0008 0100     		.2byte	0x1
 2181 000a 50       		.byte	0x50
 2182 000b 16000000 		.4byte	.LVL2
 2183 000f 4C000000 		.4byte	.LFE120
 2184 0013 0400     		.2byte	0x4
 2185 0015 F3       		.byte	0xf3
 2186 0016 01       		.uleb128 0x1
 2187 0017 50       		.byte	0x50
 2188 0018 9F       		.byte	0x9f
 2189 0019 00000000 		.4byte	0
 2190 001d 00000000 		.4byte	0
 2191              	.LLST1:
 2192 0021 0C000000 		.4byte	.LVL1
 2193 0025 16000000 		.4byte	.LVL2
 2194 0029 0200     		.2byte	0x2
 2195 002b 30       		.byte	0x30
 2196 002c 9F       		.byte	0x9f
 2197 002d 16000000 		.4byte	.LVL2
 2198 0031 28000000 		.4byte	.LVL3
 2199 0035 0100     		.2byte	0x1
 2200 0037 54       		.byte	0x54
 2201 0038 28000000 		.4byte	.LVL3
 2202 003c 36000000 		.4byte	.LVL4
 2203 0040 0300     		.2byte	0x3
 2204 0042 74       		.byte	0x74
 2205 0043 7F       		.sleb128 -1
 2206 0044 9F       		.byte	0x9f
 2207 0045 36000000 		.4byte	.LVL4
 2208 0049 44000000 		.4byte	.LVL5
 2209 004d 0100     		.2byte	0x1
 2210 004f 54       		.byte	0x54
 2211 0050 00000000 		.4byte	0
 2212 0054 00000000 		.4byte	0
 2213              	.LLST2:
 2214 0058 00000000 		.4byte	.LVL6
 2215 005c 0B000000 		.4byte	.LVL7-1
 2216 0060 0100     		.2byte	0x1
 2217 0062 50       		.byte	0x50
 2218 0063 0B000000 		.4byte	.LVL7-1
 2219 0067 1C000000 		.4byte	.LFE121
 2220 006b 0400     		.2byte	0x4
ARM GAS  /tmp/ccSY1si9.s 			page 40


 2221 006d F3       		.byte	0xf3
 2222 006e 01       		.uleb128 0x1
 2223 006f 50       		.byte	0x50
 2224 0070 9F       		.byte	0x9f
 2225 0071 00000000 		.4byte	0
 2226 0075 00000000 		.4byte	0
 2227              	.LLST3:
 2228 0079 00000000 		.4byte	.LVL9
 2229 007d 0B000000 		.4byte	.LVL10-1
 2230 0081 0100     		.2byte	0x1
 2231 0083 50       		.byte	0x50
 2232 0084 0B000000 		.4byte	.LVL10-1
 2233 0088 1C000000 		.4byte	.LFE122
 2234 008c 0400     		.2byte	0x4
 2235 008e F3       		.byte	0xf3
 2236 008f 01       		.uleb128 0x1
 2237 0090 50       		.byte	0x50
 2238 0091 9F       		.byte	0x9f
 2239 0092 00000000 		.4byte	0
 2240 0096 00000000 		.4byte	0
 2241              	.LLST4:
 2242 009a 00000000 		.4byte	.LVL38
 2243 009e 14000000 		.4byte	.LVL41
 2244 00a2 0100     		.2byte	0x1
 2245 00a4 50       		.byte	0x50
 2246 00a5 14000000 		.4byte	.LVL41
 2247 00a9 30000000 		.4byte	.LFE127
 2248 00ad 0400     		.2byte	0x4
 2249 00af F3       		.byte	0xf3
 2250 00b0 01       		.uleb128 0x1
 2251 00b1 50       		.byte	0x50
 2252 00b2 9F       		.byte	0x9f
 2253 00b3 00000000 		.4byte	0
 2254 00b7 00000000 		.4byte	0
 2255              	.LLST5:
 2256 00bb 00000000 		.4byte	.LVL38
 2257 00bf 10000000 		.4byte	.LVL40
 2258 00c3 0100     		.2byte	0x1
 2259 00c5 51       		.byte	0x51
 2260 00c6 10000000 		.4byte	.LVL40
 2261 00ca 30000000 		.4byte	.LFE127
 2262 00ce 0400     		.2byte	0x4
 2263 00d0 F3       		.byte	0xf3
 2264 00d1 01       		.uleb128 0x1
 2265 00d2 51       		.byte	0x51
 2266 00d3 9F       		.byte	0x9f
 2267 00d4 00000000 		.4byte	0
 2268 00d8 00000000 		.4byte	0
 2269              	.LLST6:
 2270 00dc 0C000000 		.4byte	.LVL39
 2271 00e0 10000000 		.4byte	.LVL40
 2272 00e4 0800     		.2byte	0x8
 2273 00e6 71       		.byte	0x71
 2274 00e7 02       		.sleb128 2
 2275 00e8 36       		.byte	0x36
 2276 00e9 24       		.byte	0x24
 2277 00ea 70       		.byte	0x70
ARM GAS  /tmp/ccSY1si9.s 			page 41


 2278 00eb 00       		.sleb128 0
 2279 00ec 22       		.byte	0x22
 2280 00ed 9F       		.byte	0x9f
 2281 00ee 10000000 		.4byte	.LVL40
 2282 00f2 14000000 		.4byte	.LVL41
 2283 00f6 0800     		.2byte	0x8
 2284 00f8 71       		.byte	0x71
 2285 00f9 00       		.sleb128 0
 2286 00fa 36       		.byte	0x36
 2287 00fb 24       		.byte	0x24
 2288 00fc 70       		.byte	0x70
 2289 00fd 00       		.sleb128 0
 2290 00fe 22       		.byte	0x22
 2291 00ff 9F       		.byte	0x9f
 2292 0100 00000000 		.4byte	0
 2293 0104 00000000 		.4byte	0
 2294              	.LLST8:
 2295 0108 00000000 		.4byte	.LVL44
 2296 010c 0F000000 		.4byte	.LVL45-1
 2297 0110 0100     		.2byte	0x1
 2298 0112 50       		.byte	0x50
 2299 0113 0F000000 		.4byte	.LVL45-1
 2300 0117 1C000000 		.4byte	.LVL46
 2301 011b 0400     		.2byte	0x4
 2302 011d F3       		.byte	0xf3
 2303 011e 01       		.uleb128 0x1
 2304 011f 50       		.byte	0x50
 2305 0120 9F       		.byte	0x9f
 2306 0121 1C000000 		.4byte	.LVL46
 2307 0125 1E000000 		.4byte	.LVL47
 2308 0129 0100     		.2byte	0x1
 2309 012b 50       		.byte	0x50
 2310 012c 1E000000 		.4byte	.LVL47
 2311 0130 2C000000 		.4byte	.LFE128
 2312 0134 0400     		.2byte	0x4
 2313 0136 F3       		.byte	0xf3
 2314 0137 01       		.uleb128 0x1
 2315 0138 50       		.byte	0x50
 2316 0139 9F       		.byte	0x9f
 2317 013a 00000000 		.4byte	0
 2318 013e 00000000 		.4byte	0
 2319              	.LLST9:
 2320 0142 00000000 		.4byte	.LVL49
 2321 0146 04000000 		.4byte	.LVL50
 2322 014a 0100     		.2byte	0x1
 2323 014c 50       		.byte	0x50
 2324 014d 04000000 		.4byte	.LVL50
 2325 0151 0C000000 		.4byte	.LFE119
 2326 0155 0400     		.2byte	0x4
 2327 0157 F3       		.byte	0xf3
 2328 0158 01       		.uleb128 0x1
 2329 0159 50       		.byte	0x50
 2330 015a 9F       		.byte	0x9f
 2331 015b 00000000 		.4byte	0
 2332 015f 00000000 		.4byte	0
 2333              	.LLST10:
 2334 0163 00000000 		.4byte	.LVL49
ARM GAS  /tmp/ccSY1si9.s 			page 42


 2335 0167 07000000 		.4byte	.LVL51-1
 2336 016b 0100     		.2byte	0x1
 2337 016d 51       		.byte	0x51
 2338 016e 07000000 		.4byte	.LVL51-1
 2339 0172 0C000000 		.4byte	.LFE119
 2340 0176 0400     		.2byte	0x4
 2341 0178 F3       		.byte	0xf3
 2342 0179 01       		.uleb128 0x1
 2343 017a 51       		.byte	0x51
 2344 017b 9F       		.byte	0x9f
 2345 017c 00000000 		.4byte	0
 2346 0180 00000000 		.4byte	0
 2347              		.section	.debug_aranges,"",%progbits
 2348 0000 64000000 		.4byte	0x64
 2349 0004 0200     		.2byte	0x2
 2350 0006 00000000 		.4byte	.Ldebug_info0
 2351 000a 04       		.byte	0x4
 2352 000b 00       		.byte	0
 2353 000c 0000     		.2byte	0
 2354 000e 0000     		.2byte	0
 2355 0010 00000000 		.4byte	.LFB120
 2356 0014 4C000000 		.4byte	.LFE120-.LFB120
 2357 0018 00000000 		.4byte	.LFB121
 2358 001c 1C000000 		.4byte	.LFE121-.LFB121
 2359 0020 00000000 		.4byte	.LFB122
 2360 0024 1C000000 		.4byte	.LFE122-.LFB122
 2361 0028 00000000 		.4byte	.LFB124
 2362 002c 28000000 		.4byte	.LFE124-.LFB124
 2363 0030 00000000 		.4byte	.LFB125
 2364 0034 20000000 		.4byte	.LFE125-.LFB125
 2365 0038 00000000 		.4byte	.LFB126
 2366 003c 20000000 		.4byte	.LFE126-.LFB126
 2367 0040 00000000 		.4byte	.LFB123
 2368 0044 94000000 		.4byte	.LFE123-.LFB123
 2369 0048 00000000 		.4byte	.LFB127
 2370 004c 30000000 		.4byte	.LFE127-.LFB127
 2371 0050 00000000 		.4byte	.LFB128
 2372 0054 2C000000 		.4byte	.LFE128-.LFB128
 2373 0058 00000000 		.4byte	.LFB119
 2374 005c 0C000000 		.4byte	.LFE119-.LFB119
 2375 0060 00000000 		.4byte	0
 2376 0064 00000000 		.4byte	0
 2377              		.section	.debug_ranges,"",%progbits
 2378              	.Ldebug_ranges0:
 2379 0000 02000000 		.4byte	.LBB24
 2380 0004 12000000 		.4byte	.LBE24
 2381 0008 16000000 		.4byte	.LBB27
 2382 000c 20000000 		.4byte	.LBE27
 2383 0010 00000000 		.4byte	0
 2384 0014 00000000 		.4byte	0
 2385 0018 02000000 		.4byte	.LBB28
 2386 001c 12000000 		.4byte	.LBE28
 2387 0020 16000000 		.4byte	.LBB31
 2388 0024 20000000 		.4byte	.LBE31
 2389 0028 00000000 		.4byte	0
 2390 002c 00000000 		.4byte	0
 2391 0030 0E000000 		.4byte	.LBB32
ARM GAS  /tmp/ccSY1si9.s 			page 43


 2392 0034 10000000 		.4byte	.LBE32
 2393 0038 16000000 		.4byte	.LBB35
 2394 003c 26000000 		.4byte	.LBE35
 2395 0040 00000000 		.4byte	0
 2396 0044 00000000 		.4byte	0
 2397 0048 0C000000 		.4byte	.LBB44
 2398 004c 0E000000 		.4byte	.LBE44
 2399 0050 14000000 		.4byte	.LBB48
 2400 0054 22000000 		.4byte	.LBE48
 2401 0058 26000000 		.4byte	.LBB49
 2402 005c 30000000 		.4byte	.LBE49
 2403 0060 00000000 		.4byte	0
 2404 0064 00000000 		.4byte	0
 2405 0068 06000000 		.4byte	.LBB50
 2406 006c 14000000 		.4byte	.LBE50
 2407 0070 18000000 		.4byte	.LBB53
 2408 0074 1C000000 		.4byte	.LBE53
 2409 0078 00000000 		.4byte	0
 2410 007c 00000000 		.4byte	0
 2411 0080 00000000 		.4byte	.LFB120
 2412 0084 4C000000 		.4byte	.LFE120
 2413 0088 00000000 		.4byte	.LFB121
 2414 008c 1C000000 		.4byte	.LFE121
 2415 0090 00000000 		.4byte	.LFB122
 2416 0094 1C000000 		.4byte	.LFE122
 2417 0098 00000000 		.4byte	.LFB124
 2418 009c 28000000 		.4byte	.LFE124
 2419 00a0 00000000 		.4byte	.LFB125
 2420 00a4 20000000 		.4byte	.LFE125
 2421 00a8 00000000 		.4byte	.LFB126
 2422 00ac 20000000 		.4byte	.LFE126
 2423 00b0 00000000 		.4byte	.LFB123
 2424 00b4 94000000 		.4byte	.LFE123
 2425 00b8 00000000 		.4byte	.LFB127
 2426 00bc 30000000 		.4byte	.LFE127
 2427 00c0 00000000 		.4byte	.LFB128
 2428 00c4 2C000000 		.4byte	.LFE128
 2429 00c8 00000000 		.4byte	.LFB119
 2430 00cc 0C000000 		.4byte	.LFE119
 2431 00d0 00000000 		.4byte	0
 2432 00d4 00000000 		.4byte	0
 2433              		.section	.debug_line,"",%progbits
 2434              	.Ldebug_line0:
 2435 0000 5B030000 		.section	.debug_str,"MS",%progbits,1
 2435      02000E02 
 2435      00000201 
 2435      FB0E0D00 
 2435      01010101 
 2436              	.LASF32:
 2437 0000 4750494F 		.ascii	"GPIO_TypeDef\000"
 2437      5F547970 
 2437      65446566 
 2437      00
 2438              	.LASF53:
 2439 000d 5F707574 		.ascii	"_put\000"
 2439      00
 2440              	.LASF19:
ARM GAS  /tmp/ccSY1si9.s 			page 44


 2441 0012 77726974 		.ascii	"write\000"
 2441      6500
 2442              	.LASF5:
 2443 0018 73686F72 		.ascii	"short int\000"
 2443      7420696E 
 2443      7400
 2444              	.LASF2:
 2445 0022 73697A65 		.ascii	"size_t\000"
 2445      5F7400
 2446              	.LASF17:
 2447 0029 73697A65 		.ascii	"sizetype\000"
 2447      74797065 
 2447      00
 2448              	.LASF44:
 2449 0032 6C63645F 		.ascii	"lcd_printChar\000"
 2449      7072696E 
 2449      74436861 
 2449      7200
 2450              	.LASF21:
 2451 0040 42617365 		.ascii	"BaseSequentialStream\000"
 2451      53657175 
 2451      656E7469 
 2451      616C5374 
 2451      7265616D 
 2452              	.LASF54:
 2453 0055 63685468 		.ascii	"chThdSleep\000"
 2453      64536C65 
 2453      657000
 2454              	.LASF28:
 2455 0060 42535252 		.ascii	"BSRR\000"
 2455      00
 2456              	.LASF46:
 2457 0065 5F766D74 		.ascii	"_vmt\000"
 2457      00
 2458              	.LASF22:
 2459 006a 68616C72 		.ascii	"halrtcnt_t\000"
 2459      74636E74 
 2459      5F7400
 2460              	.LASF3:
 2461 0075 75696E74 		.ascii	"uint8_t\000"
 2461      385F7400 
 2462              	.LASF33:
 2463 007d 696F706F 		.ascii	"ioportmask_t\000"
 2463      72746D61 
 2463      736B5F74 
 2463      00
 2464              	.LASF37:
 2465 008a 5F777269 		.ascii	"_write_byte\000"
 2465      74655F62 
 2465      79746500 
 2466              	.LASF25:
 2467 0096 4F545950 		.ascii	"OTYPER\000"
 2467      455200
 2468              	.LASF20:
 2469 009d 72656164 		.ascii	"read\000"
 2469      00
 2470              	.LASF12:
ARM GAS  /tmp/ccSY1si9.s 			page 45


 2471 00a2 6C6F6E67 		.ascii	"long long int\000"
 2471      206C6F6E 
 2471      6720696E 
 2471      7400
 2472              	.LASF27:
 2473 00b0 50555044 		.ascii	"PUPDR\000"
 2473      5200
 2474              	.LASF43:
 2475 00b6 61646472 		.ascii	"addr\000"
 2475      00
 2476              	.LASF48:
 2477 00bb 68616C50 		.ascii	"halPolledDelay\000"
 2477      6F6C6C65 
 2477      6444656C 
 2477      617900
 2478              	.LASF24:
 2479 00ca 4D4F4445 		.ascii	"MODER\000"
 2479      5200
 2480              	.LASF23:
 2481 00d0 636C6561 		.ascii	"clear\000"
 2481      7200
 2482              	.LASF51:
 2483 00d6 2F686F6D 		.ascii	"/home/brian/aithon/ProjectTemplate\000"
 2483      652F6272 
 2483      69616E2F 
 2483      61697468 
 2483      6F6E2F50 
 2484              	.LASF50:
 2485 00f9 2E2E2F41 		.ascii	"../AithonLibrary/lcd.c\000"
 2485      6974686F 
 2485      6E4C6962 
 2485      72617279 
 2485      2F6C6364 
 2486              	.LASF4:
 2487 0110 756E7369 		.ascii	"unsigned char\000"
 2487      676E6564 
 2487      20636861 
 2487      7200
 2488              	.LASF38:
 2489 011e 6C63645F 		.ascii	"lcd_clear\000"
 2489      636C6561 
 2489      7200
 2490              	.LASF1:
 2491 0128 7369676E 		.ascii	"signed char\000"
 2491      65642063 
 2491      68617200 
 2492              	.LASF13:
 2493 0134 6C6F6E67 		.ascii	"long long unsigned int\000"
 2493      206C6F6E 
 2493      6720756E 
 2493      7369676E 
 2493      65642069 
 2494              	.LASF10:
 2495 014b 75696E74 		.ascii	"uint32_t\000"
 2495      33325F74 
 2495      00
 2496              	.LASF35:
ARM GAS  /tmp/ccSY1si9.s 			page 46


 2497 0154 5F777269 		.ascii	"_write_data\000"
 2497      74655F64 
 2497      61746100 
 2498              	.LASF41:
 2499 0160 5F6C6364 		.ascii	"_lcd_init\000"
 2499      5F696E69 
 2499      7400
 2500              	.LASF6:
 2501 016a 75696E74 		.ascii	"uint16_t\000"
 2501      31365F74 
 2501      00
 2502              	.LASF45:
 2503 0173 696E7374 		.ascii	"instance\000"
 2503      616E6365 
 2503      00
 2504              	.LASF34:
 2505 017c 5F777269 		.ascii	"_write_control\000"
 2505      74655F63 
 2505      6F6E7472 
 2505      6F6C00
 2506              	.LASF31:
 2507 018b 41465248 		.ascii	"AFRH\000"
 2507      00
 2508              	.LASF30:
 2509 0190 4146524C 		.ascii	"AFRL\000"
 2509      00
 2510              	.LASF7:
 2511 0195 73686F72 		.ascii	"short unsigned int\000"
 2511      7420756E 
 2511      7369676E 
 2511      65642069 
 2511      6E7400
 2512              	.LASF16:
 2513 01a8 73797374 		.ascii	"systime_t\000"
 2513      696D655F 
 2513      7400
 2514              	.LASF18:
 2515 01b2 63686172 		.ascii	"char\000"
 2515      00
 2516              	.LASF49:
 2517 01b7 474E5520 		.ascii	"GNU C 4.8.3 20131129 (release) [ARM/embedded-4_8-br"
 2517      4320342E 
 2517      382E3320 
 2517      32303133 
 2517      31313239 
 2518 01ea 616E6368 		.ascii	"anch revision 205641] -mcpu=cortex-m4 -mfloat-abi=s"
 2518      20726576 
 2518      6973696F 
 2518      6E203230 
 2518      35363431 
 2519 021d 6F667466 		.ascii	"oftfp -mfpu=fpv4-sp-d16 -mno-thumb-interwork -mthum"
 2519      70202D6D 
 2519      6670753D 
 2519      66707634 
 2519      2D73702D 
 2520 0250 62202D67 		.ascii	"b -ggdb -O2 -fomit-frame-pointer -falign-functions="
 2520      67646220 
ARM GAS  /tmp/ccSY1si9.s 			page 47


 2520      2D4F3220 
 2520      2D666F6D 
 2520      69742D66 
 2521 0283 3136202D 		.ascii	"16 -fsingle-precision-constant -ffunction-sections "
 2521      6673696E 
 2521      676C652D 
 2521      70726563 
 2521      6973696F 
 2522 02b6 2D666461 		.ascii	"-fdata-sections -fno-common\000"
 2522      74612D73 
 2522      65637469 
 2522      6F6E7320 
 2522      2D666E6F 
 2523              	.LASF9:
 2524 02d2 6C6F6E67 		.ascii	"long int\000"
 2524      20696E74 
 2524      00
 2525              	.LASF8:
 2526 02db 696E7433 		.ascii	"int32_t\000"
 2526      325F7400 
 2527              	.LASF14:
 2528 02e3 5F426F6F 		.ascii	"_Bool\000"
 2528      6C00
 2529              	.LASF36:
 2530 02e9 64617461 		.ascii	"data\000"
 2530      00
 2531              	.LASF26:
 2532 02ee 4F535045 		.ascii	"OSPEEDR\000"
 2532      45445200 
 2533              	.LASF42:
 2534 02f6 6C63645F 		.ascii	"lcd_cursor\000"
 2534      63757273 
 2534      6F7200
 2535              	.LASF11:
 2536 0301 6C6F6E67 		.ascii	"long unsigned int\000"
 2536      20756E73 
 2536      69676E65 
 2536      6420696E 
 2536      7400
 2537              	.LASF39:
 2538 0313 6C63645F 		.ascii	"lcd_on\000"
 2538      6F6E00
 2539              	.LASF40:
 2540 031a 6C63645F 		.ascii	"lcd_off\000"
 2540      6F666600 
 2541              	.LASF47:
 2542 0322 49544D5F 		.ascii	"ITM_RxBuffer\000"
 2542      52784275 
 2542      66666572 
 2542      00
 2543              	.LASF0:
 2544 032f 756E7369 		.ascii	"unsigned int\000"
 2544      676E6564 
 2544      20696E74 
 2544      00
 2545              	.LASF29:
 2546 033c 4C434B52 		.ascii	"LCKR\000"
ARM GAS  /tmp/ccSY1si9.s 			page 48


 2546      00
 2547              	.LASF15:
 2548 0341 6D73675F 		.ascii	"msg_t\000"
 2548      7400
 2549              	.LASF52:
 2550 0347 42617365 		.ascii	"BaseSequentialStreamVMT\000"
 2550      53657175 
 2550      656E7469 
 2550      616C5374 
 2550      7265616D 
 2551              		.ident	"GCC: (GNU Tools for ARM Embedded Processors) 4.8.3 20131129 (release) [ARM/embedded-4_8-br
ARM GAS  /tmp/ccSY1si9.s 			page 49


DEFINED SYMBOLS
                            *ABS*:0000000000000000 lcd.c
     /tmp/ccSY1si9.s:20     .text._write_byte:0000000000000000 $t
     /tmp/ccSY1si9.s:26     .text._write_byte:0000000000000000 _write_byte
     /tmp/ccSY1si9.s:95     .text._write_byte:0000000000000044 $d
     /tmp/ccSY1si9.s:101    .text._write_data:0000000000000000 $t
     /tmp/ccSY1si9.s:107    .text._write_data:0000000000000000 _write_data
     /tmp/ccSY1si9.s:135    .text._write_data:0000000000000018 $d
     /tmp/ccSY1si9.s:140    .text._write_control:0000000000000000 $t
     /tmp/ccSY1si9.s:146    .text._write_control:0000000000000000 _write_control
     /tmp/ccSY1si9.s:174    .text._write_control:0000000000000018 $d
     /tmp/ccSY1si9.s:179    .text.lcd_clear:0000000000000000 $t
     /tmp/ccSY1si9.s:185    .text.lcd_clear:0000000000000000 lcd_clear
     /tmp/ccSY1si9.s:222    .text.lcd_clear:0000000000000020 $d
     /tmp/ccSY1si9.s:228    .text.lcd_on:0000000000000000 $t
     /tmp/ccSY1si9.s:234    .text.lcd_on:0000000000000000 lcd_on
     /tmp/ccSY1si9.s:269    .text.lcd_on:000000000000001c $d
     /tmp/ccSY1si9.s:276    .text.lcd_off:0000000000000000 $t
     /tmp/ccSY1si9.s:282    .text.lcd_off:0000000000000000 lcd_off
     /tmp/ccSY1si9.s:317    .text.lcd_off:000000000000001c $d
     /tmp/ccSY1si9.s:324    .text._lcd_init:0000000000000000 $t
     /tmp/ccSY1si9.s:330    .text._lcd_init:0000000000000000 _lcd_init
     /tmp/ccSY1si9.s:454    .text._lcd_init:0000000000000084 $d
     /tmp/ccSY1si9.s:462    .text.lcd_cursor:0000000000000000 $t
     /tmp/ccSY1si9.s:468    .text.lcd_cursor:0000000000000000 lcd_cursor
     /tmp/ccSY1si9.s:527    .text.lcd_cursor:000000000000002c $d
     /tmp/ccSY1si9.s:534    .text.lcd_printChar:0000000000000000 $t
     /tmp/ccSY1si9.s:540    .text.lcd_printChar:0000000000000000 lcd_printChar
     /tmp/ccSY1si9.s:591    .text.lcd_printChar:0000000000000028 $d
     /tmp/ccSY1si9.s:596    .text._put:0000000000000000 $t
     /tmp/ccSY1si9.s:601    .text._put:0000000000000000 _put
     /tmp/ccSY1si9.s:639    .bss.LCD:0000000000000000 LCD
     /tmp/ccSY1si9.s:625    .data._vmt:0000000000000000 $d
     /tmp/ccSY1si9.s:629    .data._vmt:0000000000000000 _vmt
     /tmp/ccSY1si9.s:635    .bss.LCD:0000000000000000 $d
                     .debug_frame:0000000000000010 $d
     /tmp/ccSY1si9.s:100    .text._write_byte:000000000000004c $t
     /tmp/ccSY1si9.s:139    .text._write_data:000000000000001c $t
     /tmp/ccSY1si9.s:178    .text._write_control:000000000000001c $t
     /tmp/ccSY1si9.s:227    .text.lcd_clear:0000000000000028 $t
     /tmp/ccSY1si9.s:461    .text._lcd_init:0000000000000094 $t
     /tmp/ccSY1si9.s:595    .text.lcd_printChar:000000000000002c $t

UNDEFINED SYMBOLS
halPolledDelay
chThdSleep
