ARM GAS  /tmp/ccgRD1x0.s 			page 1


   1              		.syntax unified
   2              		.cpu cortex-m4
   3              		.eabi_attribute 27, 3
   4              		.fpu fpv4-sp-d16
   5              		.eabi_attribute 20, 1
   6              		.eabi_attribute 21, 1
   7              		.eabi_attribute 23, 3
   8              		.eabi_attribute 24, 1
   9              		.eabi_attribute 25, 1
  10              		.eabi_attribute 26, 1
  11              		.eabi_attribute 30, 2
  12              		.eabi_attribute 34, 1
  13              		.eabi_attribute 18, 4
  14              		.thumb
  15              		.file	"main.c"
  16              		.text
  17              	.Ltext0:
  18              		.cfi_sections	.debug_frame
  19              		.section	.text.chprintf.constprop.0,"ax",%progbits
  20              		.align	2
  21              		.p2align 4,,15
  22              		.thumb
  23              		.thumb_func
  24              		.type	chprintf.constprop.0, %function
  25              	chprintf.constprop.0:
  26              	.LFB120:
  27              		.file 1 "../AithonLibrary/ChibiOS/os/various/chprintf.h"
  28              		.loc 1 69 0
  29              		.cfi_startproc
  30              		@ args = 4, pretend = 12, frame = 8
  31              		@ frame_needed = 0, uses_anonymous_args = 1
  32              	.LVL0:
  33 0000 0EB4     		push	{r1, r2, r3}
  34              		.cfi_def_cfa_offset 12
  35              		.cfi_offset 1, -12
  36              		.cfi_offset 2, -8
  37              		.cfi_offset 3, -4
  38 0002 00B5     		push	{lr}
  39              		.cfi_def_cfa_offset 16
  40              		.cfi_offset 14, -16
  41 0004 82B0     		sub	sp, sp, #8
  42              		.cfi_def_cfa_offset 24
  43              		.loc 1 72 0
  44 0006 04AB     		add	r3, sp, #16
  45              		.loc 1 73 0
  46 0008 1A46     		mov	r2, r3
  47 000a 0548     		ldr	r0, .L2
  48              	.LVL1:
  49 000c 0549     		ldr	r1, .L2+4
  50              		.loc 1 72 0
  51 000e 0193     		str	r3, [sp, #4]
  52              		.loc 1 73 0
  53 0010 FFF7FEFF 		bl	chvprintf
  54              	.LVL2:
  55              		.loc 1 75 0
  56 0014 02B0     		add	sp, sp, #8
  57              		@ sp needed
ARM GAS  /tmp/ccgRD1x0.s 			page 2


  58 0016 5DF804EB 		ldr	lr, [sp], #4
  59 001a 03B0     		add	sp, sp, #12
  60 001c 7047     		bx	lr
  61              	.L3:
  62 001e 00BF     		.align	2
  63              	.L2:
  64 0020 00000000 		.word	LCD
  65 0024 00000000 		.word	.LC0
  66              		.cfi_endproc
  67              	.LFE120:
  68              		.size	chprintf.constprop.0, .-chprintf.constprop.0
  69 0028 AFF30080 		.section	.text.startup.main,"ax",%progbits
  69      AFF30080 
  70              		.align	2
  71              		.p2align 4,,15
  72              		.global	main
  73              		.thumb
  74              		.thumb_func
  75              		.type	main, %function
  76              	main:
  77              	.LFB119:
  78              		.file 2 "main.c"
  79              		.loc 2 4 0
  80              		.cfi_startproc
  81              		@ Volatile: function does not return.
  82              		@ args = 0, pretend = 0, frame = 0
  83              		@ frame_needed = 0, uses_anonymous_args = 0
  84              		.loc 2 6 0
  85 0000 0948     		ldr	r0, .L7
  86 0002 0A49     		ldr	r1, .L7+4
  87              		.loc 2 4 0
  88 0004 08B5     		push	{r3, lr}
  89              		.cfi_def_cfa_offset 8
  90              		.cfi_offset 3, -8
  91              		.cfi_offset 14, -4
  92              		.loc 2 6 0
  93 0006 FFF7FEFF 		bl	chprintf.constprop.0
  94              	.LVL3:
  95              		.loc 2 9 0
  96 000a 0020     		movs	r0, #0
  97 000c FFF7FEFF 		bl	led_on
  98              	.LVL4:
  99              	.L5:
 100              		.loc 2 15 0 discriminator 1
 101 0010 0020     		movs	r0, #0
 102 0012 FFF7FEFF 		bl	led_toggle
 103              	.LVL5:
 104              		.loc 2 16 0 discriminator 1
 105 0016 0120     		movs	r0, #1
 106 0018 FFF7FEFF 		bl	led_toggle
 107              	.LVL6:
 108              		.loc 2 18 0 discriminator 1
 109 001c 4FF47A70 		mov	r0, #1000
 110 0020 FFF7FEFF 		bl	chThdSleep
 111              	.LVL7:
 112 0024 F4E7     		b	.L5
 113              	.L8:
ARM GAS  /tmp/ccgRD1x0.s 			page 3


 114 0026 00BF     		.align	2
 115              	.L7:
 116 0028 00000000 		.word	LCD
 117 002c 00000000 		.word	.LC0
 118              		.cfi_endproc
 119              	.LFE119:
 120              		.size	main, .-main
 121              		.section	.rodata.str1.4,"aMS",%progbits,1
 122              		.align	2
 123              	.LC0:
 124 0000 48656C6C 		.ascii	"Hello Aithon!\000"
 124      6F204169 
 124      74686F6E 
 124      2100
 125 000e 0000     		.text
 126              	.Letext0:
 127              		.file 3 "/usr/lib/gcc/arm-none-eabi/4.8.3/include/stddef.h"
 128              		.file 4 "/usr/arm-none-eabi/include/stdint.h"
 129              		.file 5 "../AithonLibrary/ChibiOS/os/ports/GCC/ARMCMx/chtypes.h"
 130              		.file 6 "../AithonLibrary/ChibiOS/os/kernel/include/chstreams.h"
 131              		.file 7 "/usr/lib/gcc/arm-none-eabi/4.8.3/include/stdarg.h"
 132              		.file 8 "<built-in>"
 133              		.file 9 "../AithonLibrary/Aithon.h"
 134              		.file 10 "../AithonLibrary/ChibiOS/os/ports/common/ARMCMx/CMSIS/include/core_cm4.h"
 135              		.file 11 "../AithonLibrary/aithon_private.h"
 136              		.file 12 "../AithonLibrary/ChibiOS/os/kernel/include/chthreads.h"