ARM GAS  /tmp/ccow2b6j.s 			page 1


   1              		.syntax unified
   2              		.cpu cortex-m4
   3              		.eabi_attribute 27, 3
   4              		.fpu fpv4-sp-d16
   5              		.eabi_attribute 20, 1
   6              		.eabi_attribute 21, 1
   7              		.eabi_attribute 23, 3
   8              		.eabi_attribute 24, 1
   9              		.eabi_attribute 25, 1
  10              		.eabi_attribute 26, 1
  11              		.eabi_attribute 30, 2
  12              		.eabi_attribute 34, 1
  13              		.eabi_attribute 18, 4
  14              		.thumb
  15              		.file	"motor.c"
  16              		.text
  17              	.Ltext0:
  18              		.cfi_sections	.debug_frame
  19              		.section	.text._motor_init,"ax",%progbits
  20              		.align	2
  21              		.p2align 4,,15
  22              		.global	_motor_init
  23              		.thumb
  24              		.thumb_func
  25              		.type	_motor_init, %function
  26              	_motor_init:
  27              	.LFB119:
  28              		.file 1 "../AithonLibrary/motor.c"
  29              		.loc 1 24 0
  30              		.cfi_startproc
  31              		@ args = 0, pretend = 0, frame = 0
  32              		@ frame_needed = 0, uses_anonymous_args = 0
  33              		@ link register save eliminated.
  34              		.loc 1 25 0
  35 0000 0148     		ldr	r0, .L2
  36 0002 0249     		ldr	r1, .L2+4
  37 0004 FFF7FEBF 		b	pwmStart
  38              	.LVL0:
  39              	.L3:
  40              		.align	2
  41              	.L2:
  42 0008 00000000 		.word	PWMD1
  43 000c 00000000 		.word	.LANCHOR0
  44              		.cfi_endproc
  45              	.LFE119:
  46              		.size	_motor_init, .-_motor_init
  47              		.section	.text.motor_set,"ax",%progbits
  48              		.align	2
  49              		.p2align 4,,15
  50              		.global	motor_set
  51              		.thumb
  52              		.thumb_func
  53              		.type	motor_set, %function
  54              	motor_set:
  55              	.LFB120:
  56              		.loc 1 29 0
  57              		.cfi_startproc
ARM GAS  /tmp/ccow2b6j.s 			page 2


  58              		@ args = 0, pretend = 0, frame = 0
  59              		@ frame_needed = 0, uses_anonymous_args = 0
  60              		@ link register save eliminated.
  61              	.LVL1:
  62              		.loc 1 30 0
  63 0000 0A1E     		subs	r2, r1, #0
  64              		.loc 1 29 0
  65 0002 30B4     		push	{r4, r5}
  66              		.cfi_def_cfa_offset 8
  67              		.cfi_offset 4, -8
  68              		.cfi_offset 5, -4
  69              		.loc 1 30 0
  70 0004 13DD     		ble	.L5
  71              		.loc 1 32 0
  72 0006 174C     		ldr	r4, .L11
  73 0008 174B     		ldr	r3, .L11+4
  74 000a 54F83050 		ldr	r5, [r4, r0, lsl #3]
  75              		.loc 1 33 0
  76 000e 04EBC004 		add	r4, r4, r0, lsl #3
  77              		.loc 1 32 0
  78 0012 0121     		movs	r1, #1
  79              	.LVL2:
  80              		.loc 1 33 0
  81 0014 6468     		ldr	r4, [r4, #4]
  82              	.L8:
  83              		.loc 1 43 0
  84 0016 1034     		adds	r4, r4, #16
  85 0018 01FA04F4 		lsl	r4, r1, r4
  86              		.loc 1 42 0
  87 001c A940     		lsls	r1, r1, r5
  88 001e 9961     		str	r1, [r3, #24]
  89              		.loc 1 43 0
  90 0020 9C61     		str	r4, [r3, #24]
  91              	.L6:
  92              		.loc 1 45 0
  93 0022 C1B2     		uxtb	r1, r0
  94 0024 92B2     		uxth	r2, r2
  95              	.LVL3:
  96 0026 1148     		ldr	r0, .L11+8
  97              	.LVL4:
  98              		.loc 1 46 0
  99 0028 30BC     		pop	{r4, r5}
 100              		.loc 1 45 0
 101 002a FFF7FEBF 		b	pwmEnableChannel
 102              	.LVL5:
 103              	.L5:
 104              		.loc 1 35 0
 105 002e 09D1     		bne	.L10
 106              		.loc 1 42 0
 107 0030 0C4C     		ldr	r4, .L11
 108 0032 0D4B     		ldr	r3, .L11+4
 109 0034 54F83050 		ldr	r5, [r4, r0, lsl #3]
 110              		.loc 1 43 0
 111 0038 04EBC004 		add	r4, r4, r0, lsl #3
 112              		.loc 1 42 0
 113 003c 1035     		adds	r5, r5, #16
 114              		.loc 1 43 0
ARM GAS  /tmp/ccow2b6j.s 			page 3


 115 003e 6468     		ldr	r4, [r4, #4]
 116              		.loc 1 42 0
 117 0040 0121     		movs	r1, #1
 118              	.LVL6:
 119 0042 E8E7     		b	.L8
 120              	.LVL7:
 121              	.L10:
 122              		.loc 1 37 0
 123 0044 0749     		ldr	r1, .L11
 124              	.LVL8:
 125 0046 084B     		ldr	r3, .L11+4
 126 0048 51F83040 		ldr	r4, [r1, r0, lsl #3]
 127              		.loc 1 38 0
 128 004c 01EBC001 		add	r1, r1, r0, lsl #3
 129              		.loc 1 37 0
 130 0050 1034     		adds	r4, r4, #16
 131              		.loc 1 38 0
 132 0052 4D68     		ldr	r5, [r1, #4]
 133              		.loc 1 37 0
 134 0054 0121     		movs	r1, #1
 135 0056 01FA04F4 		lsl	r4, r1, r4
 136              		.loc 1 38 0
 137 005a A940     		lsls	r1, r1, r5
 138              		.loc 1 37 0
 139 005c 9C61     		str	r4, [r3, #24]
 140              		.loc 1 38 0
 141 005e 9961     		str	r1, [r3, #24]
 142 0060 DFE7     		b	.L6
 143              	.L12:
 144 0062 00BF     		.align	2
 145              	.L11:
 146 0064 00000000 		.word	.LANCHOR1
 147 0068 00100240 		.word	1073876992
 148 006c 00000000 		.word	PWMD1
 149              		.cfi_endproc
 150              	.LFE120:
 151              		.size	motor_set, .-motor_set
 152              		.section	.text.motor_brake,"ax",%progbits
 153              		.align	2
 154              		.p2align 4,,15
 155              		.global	motor_brake
 156              		.thumb
 157              		.thumb_func
 158              		.type	motor_brake, %function
 159              	motor_brake:
 160              	.LFB121:
 161              		.loc 1 49 0
 162              		.cfi_startproc
 163              		@ args = 0, pretend = 0, frame = 0
 164              		@ frame_needed = 0, uses_anonymous_args = 0
 165              		@ link register save eliminated.
 166              	.LVL9:
 167              		.loc 1 50 0
 168 0000 0B4A     		ldr	r2, .L14
 169              		.loc 1 49 0
 170 0002 0346     		mov	r3, r0
 171              		.loc 1 51 0
ARM GAS  /tmp/ccow2b6j.s 			page 4


 172 0004 02EBC000 		add	r0, r2, r0, lsl #3
 173              	.LVL10:
 174              		.loc 1 49 0
 175 0008 F0B4     		push	{r4, r5, r6, r7}
 176              		.cfi_def_cfa_offset 16
 177              		.cfi_offset 4, -16
 178              		.cfi_offset 5, -12
 179              		.cfi_offset 6, -8
 180              		.cfi_offset 7, -4
 181              		.loc 1 50 0
 182 000a 52F83370 		ldr	r7, [r2, r3, lsl #3]
 183              		.loc 1 51 0
 184 000e 4668     		ldr	r6, [r0, #4]
 185              		.loc 1 50 0
 186 0010 084C     		ldr	r4, .L14+4
 187              		.loc 1 52 0
 188 0012 0948     		ldr	r0, .L14+8
 189              		.loc 1 50 0
 190 0014 1037     		adds	r7, r7, #16
 191 0016 0125     		movs	r5, #1
 192              		.loc 1 51 0
 193 0018 1036     		adds	r6, r6, #16
 194 001a 05FA06F6 		lsl	r6, r5, r6
 195              		.loc 1 50 0
 196 001e BD40     		lsls	r5, r5, r7
 197 0020 A561     		str	r5, [r4, #24]
 198              		.loc 1 51 0
 199 0022 A661     		str	r6, [r4, #24]
 200              		.loc 1 52 0
 201 0024 8AB2     		uxth	r2, r1
 202              		.loc 1 53 0
 203 0026 F0BC     		pop	{r4, r5, r6, r7}
 204              		.loc 1 52 0
 205 0028 D9B2     		uxtb	r1, r3
 206              	.LVL11:
 207 002a FFF7FEBF 		b	pwmEnableChannel
 208              	.LVL12:
 209              	.L15:
 210 002e 00BF     		.align	2
 211              	.L14:
 212 0030 00000000 		.word	.LANCHOR1
 213 0034 00100240 		.word	1073876992
 214 0038 00000000 		.word	PWMD1
 215              		.cfi_endproc
 216              	.LFE121:
 217              		.size	motor_brake, .-motor_brake
 218 003c AFF30080 		.section	.rodata.pwmcfg1,"a",%progbits
 219              		.align	2
 220              		.set	.LANCHOR0,. + 0
 221              		.type	pwmcfg1, %object
 222              		.size	pwmcfg1, 56
 223              	pwmcfg1:
 224 0000 10270000 		.word	10000
 225 0004 0100     		.short	1
 226 0006 0000     		.space	2
 227 0008 00000000 		.word	0
 228 000c 01000000 		.word	1
ARM GAS  /tmp/ccow2b6j.s 			page 5


 229 0010 00000000 		.word	0
 230 0014 01000000 		.word	1
 231 0018 00000000 		.word	0
 232 001c 00000000 		.word	0
 233 0020 00000000 		.word	0
 234 0024 00000000 		.word	0
 235 0028 00000000 		.word	0
 236 002c 00000000 		.word	0
 237 0030 00000000 		.word	0
 238 0034 00000000 		.word	0
 239              		.section	.rodata.motorPins,"a",%progbits
 240              		.align	2
 241              		.set	.LANCHOR1,. + 0
 242              		.type	motorPins, %object
 243              		.size	motorPins, 16
 244              	motorPins:
 245 0000 08000000 		.word	8
 246 0004 07000000 		.word	7
 247 0008 0A000000 		.word	10
 248 000c 0C000000 		.word	12
 249              		.text
 250              	.Letext0:
 251              		.file 2 "/usr/arm-none-eabi/include/stdint.h"
 252              		.file 3 "../AithonLibrary/ChibiOS/os/hal/platforms/STM32/GPIOv2/pal_lld.h"
 253              		.file 4 "../AithonLibrary/ChibiOS/os/hal/include/pwm.h"
 254              		.file 5 "../AithonLibrary/ChibiOS/os/hal/platforms/STM32/TIMv1/pwm_lld.h"
 255              		.file 6 "../AithonLibrary/ChibiOS/os/hal/platforms/STM32/TIMv1/stm32_tim.h"
 256              		.file 7 "../AithonLibrary/ChibiOS/os/ports/common/ARMCMx/CMSIS/include/core_cm4.h"