ARM GAS  /tmp/ccf0DB4f.s 			page 1


   1              		.syntax unified
   2              		.cpu cortex-m4
   3              		.eabi_attribute 27, 3
   4              		.fpu fpv4-sp-d16
   5              		.eabi_attribute 20, 1
   6              		.eabi_attribute 21, 1
   7              		.eabi_attribute 23, 3
   8              		.eabi_attribute 24, 1
   9              		.eabi_attribute 25, 1
  10              		.eabi_attribute 26, 1
  11              		.eabi_attribute 30, 2
  12              		.eabi_attribute 34, 1
  13              		.eabi_attribute 18, 4
  14              		.thumb
  15              		.file	"music.c"
  16              		.text
  17              	.Ltext0:
  18              		.cfi_sections	.debug_frame
  19              		.section	.text._play_note.part.0,"ax",%progbits
  20              		.align	2
  21              		.p2align 4,,15
  22              		.thumb
  23              		.thumb_func
  24              		.type	_play_note.part.0, %function
  25              	_play_note.part.0:
  26              	.LFB125:
  27              		.file 1 "../AithonLibrary/music.c"
  28              		.loc 1 25 0
  29              		.cfi_startproc
  30              		@ args = 0, pretend = 0, frame = 0
  31              		@ frame_needed = 0, uses_anonymous_args = 0
  32              	.LVL0:
  33 0000 70B5     		push	{r4, r5, r6, lr}
  34              		.cfi_def_cfa_offset 16
  35              		.cfi_offset 4, -16
  36              		.cfi_offset 5, -12
  37              		.cfi_offset 6, -8
  38              		.cfi_offset 14, -4
  39              		.loc 1 29 0
  40 0002 1A4C     		ldr	r4, .L2
  41              		.loc 1 25 0
  42 0004 0646     		mov	r6, r0
  43 0006 0D46     		mov	r5, r1
  44              	.LVL1:
  45              		.loc 1 29 0
  46 0008 2046     		mov	r0, r4
  47              	.LVL2:
  48 000a 0121     		movs	r1, #1
  49              	.LVL3:
  50 000c FFF7FEFF 		bl	pwmDisableChannel
  51              	.LVL4:
  52              		.loc 1 30 0
  53 0010 174B     		ldr	r3, .L2+4
  54 0012 184A     		ldr	r2, .L2+8
  55              		.loc 1 31 0
  56 0014 1946     		mov	r1, r3
  57              		.loc 1 30 0
ARM GAS  /tmp/ccf0DB4f.s 			page 2


  58 0016 92FBF6F6 		sdiv	r6, r2, r6
  59              		.loc 1 31 0
  60 001a 2046     		mov	r0, r4
  61              		.loc 1 30 0
  62 001c 9E80     		strh	r6, [r3, #4]	@ movhi
  63              		.loc 1 31 0
  64 001e FFF7FEFF 		bl	pwmStart
  65              	.LVL5:
  66              		.loc 1 32 0
  67 0022 2389     		ldrh	r3, [r4, #8]
  68 0024 144A     		ldr	r2, .L2+12
  69 0026 03EB8303 		add	r3, r3, r3, lsl #2
  70 002a 03EB8303 		add	r3, r3, r3, lsl #2
  71 002e A2FB0312 		umull	r1, r2, r2, r3
  72 0032 C2F34F12 		ubfx	r2, r2, #5, #16
  73 0036 2046     		mov	r0, r4
  74 0038 0121     		movs	r1, #1
  75              		.loc 1 28 0
  76 003a 143D     		subs	r5, r5, #20
  77              	.LVL6:
  78              		.loc 1 32 0
  79 003c FFF7FEFF 		bl	pwmEnableChannel
  80              	.LVL7:
  81              		.loc 1 33 0
  82 0040 ADB2     		uxth	r5, r5
  83              	.LVL8:
  84 0042 4FF47A70 		mov	r0, #1000
  85 0046 0D4B     		ldr	r3, .L2+16
  86 0048 00FB05F0 		mul	r0, r0, r5
  87 004c 0138     		subs	r0, r0, #1
  88 004e A3FB0020 		umull	r2, r0, r3, r0
  89 0052 8009     		lsrs	r0, r0, #6
  90 0054 0130     		adds	r0, r0, #1
  91 0056 FFF7FEFF 		bl	chThdSleep
  92              	.LVL9:
  93              		.loc 1 34 0
  94 005a 2046     		mov	r0, r4
  95 005c FFF7FEFF 		bl	pwmStop
  96              	.LVL10:
  97              		.loc 1 35 0
  98 0060 1420     		movs	r0, #20
  99              		.loc 1 36 0
 100 0062 BDE87040 		pop	{r4, r5, r6, lr}
 101              		.loc 1 35 0
 102 0066 FFF7FEBF 		b	chThdSleep
 103              	.LVL11:
 104              	.L3:
 105 006a 00BF     		.align	2
 106              	.L2:
 107 006c 00000000 		.word	PWMD2
 108 0070 00000000 		.word	.LANCHOR0
 109 0074 40420F00 		.word	1000000
 110 0078 1F85EB51 		.word	1374389535
 111 007c D34D6210 		.word	274877907
 112              		.cfi_endproc
 113              	.LFE125:
 114              		.size	_play_note.part.0, .-_play_note.part.0
ARM GAS  /tmp/ccf0DB4f.s 			page 3


 115              		.section	.text.MusicThread,"ax",%progbits
 116              		.align	2
 117              		.p2align 4,,15
 118              		.thumb
 119              		.thumb_func
 120              		.type	MusicThread, %function
 121              	MusicThread:
 122              	.LFB120:
 123              		.loc 1 40 0
 124              		.cfi_startproc
 125              		@ args = 0, pretend = 0, frame = 0
 126              		@ frame_needed = 0, uses_anonymous_args = 0
 127              	.LVL12:
 128 0000 70B5     		push	{r4, r5, r6, lr}
 129              		.cfi_def_cfa_offset 16
 130              		.cfi_offset 4, -16
 131              		.cfi_offset 5, -12
 132              		.cfi_offset 6, -8
 133              		.cfi_offset 14, -4
 134 0002 134D     		ldr	r5, .L12
 135 0004 134E     		ldr	r6, .L12+4
 136              	.LVL13:
 137              	.L10:
 138              	.LBB9:
 139              		.loc 1 44 0
 140 0006 FFF7FEFF 		bl	chMsgWait
 141              	.LVL14:
 142 000a 0121     		movs	r1, #1
 143 000c FFF7FEFF 		bl	chMsgRelease
 144              	.LVL15:
 145              		.loc 1 45 0
 146 0010 1148     		ldr	r0, .L12+8
 147 0012 FFF7FEFF 		bl	chMtxLock
 148              	.LVL16:
 149              		.loc 1 47 0
 150 0016 2B68     		ldr	r3, [r5]
 151 0018 002B     		cmp	r3, #0
 152 001a 15DD     		ble	.L6
 153 001c 0024     		movs	r4, #0
 154 001e 02E0     		b	.L9
 155              	.LVL17:
 156              	.L7:
 157              		.loc 1 47 0 is_stmt 0 discriminator 2
 158 0020 2B68     		ldr	r3, [r5]
 159 0022 A342     		cmp	r3, r4
 160 0024 10DD     		ble	.L6
 161              	.LVL18:
 162              	.L9:
 163              		.loc 1 49 0 is_stmt 1 discriminator 2
 164 0026 3368     		ldr	r3, [r6]
 165 0028 03EB8402 		add	r2, r3, r4, lsl #2
 166 002c 33F82400 		ldrh	r0, [r3, r4, lsl #2]
 167 0030 5188     		ldrh	r1, [r2, #2]
 168 0032 89B2     		uxth	r1, r1
 169              	.LBB10:
 170              	.LBB11:
 171              		.loc 1 27 0 discriminator 2
ARM GAS  /tmp/ccf0DB4f.s 			page 4


 172 0034 1429     		cmp	r1, #20
 173              	.LBE11:
 174              	.LBE10:
 175              		.loc 1 47 0 discriminator 2
 176 0036 04F10104 		add	r4, r4, #1
 177              	.LVL19:
 178              		.loc 1 49 0 discriminator 2
 179 003a 80B2     		uxth	r0, r0
 180              	.LVL20:
 181              	.LBB13:
 182              	.LBB12:
 183              		.loc 1 27 0 discriminator 2
 184 003c F0D9     		bls	.L7
 185 003e FFF7FEFF 		bl	_play_note.part.0
 186              	.LVL21:
 187              	.LBE12:
 188              	.LBE13:
 189              		.loc 1 47 0
 190 0042 2B68     		ldr	r3, [r5]
 191 0044 A342     		cmp	r3, r4
 192 0046 EEDC     		bgt	.L9
 193              	.LVL22:
 194              	.L6:
 195              		.loc 1 51 0
 196 0048 FFF7FEFF 		bl	chMtxUnlock
 197              	.LVL23:
 198              	.LBE9:
 199              		.loc 1 52 0
 200 004c DBE7     		b	.L10
 201              	.L13:
 202 004e 00BF     		.align	2
 203              	.L12:
 204 0050 00000000 		.word	.LANCHOR2
 205 0054 00000000 		.word	.LANCHOR3
 206 0058 00000000 		.word	.LANCHOR1
 207              		.cfi_endproc
 208              	.LFE120:
 209              		.size	MusicThread, .-MusicThread
 210 005c AFF30080 		.section	.text._play_note,"ax",%progbits
 211              		.align	2
 212              		.p2align 4,,15
 213              		.global	_play_note
 214              		.thumb
 215              		.thumb_func
 216              		.type	_play_note, %function
 217              	_play_note:
 218              	.LFB119:
 219              		.loc 1 26 0
 220              		.cfi_startproc
 221              		@ args = 0, pretend = 0, frame = 0
 222              		@ frame_needed = 0, uses_anonymous_args = 0
 223              		@ link register save eliminated.
 224              	.LVL24:
 225              		.loc 1 27 0
 226 0000 1429     		cmp	r1, #20
 227 0002 00D8     		bhi	.L16
 228 0004 7047     		bx	lr
ARM GAS  /tmp/ccf0DB4f.s 			page 5


 229              	.L16:
 230 0006 FFF7FEBF 		b	_play_note.part.0
 231              	.LVL25:
 232              		.cfi_endproc
 233              	.LFE119:
 234              		.size	_play_note, .-_play_note
 235 000a 00BFAFF3 		.section	.text._music_init,"ax",%progbits
 235      0080
 236              		.align	2
 237              		.p2align 4,,15
 238              		.global	_music_init
 239              		.thumb
 240              		.thumb_func
 241              		.type	_music_init, %function
 242              	_music_init:
 243              	.LFB121:
 244              		.loc 1 57 0
 245              		.cfi_startproc
 246              		@ args = 0, pretend = 0, frame = 0
 247              		@ frame_needed = 0, uses_anonymous_args = 0
 248 0000 00B5     		push	{lr}
 249              		.cfi_def_cfa_offset 4
 250              		.cfi_offset 14, -4
 251              		.loc 1 58 0
 252 0002 0948     		ldr	r0, .L18
 253              		.loc 1 57 0
 254 0004 83B0     		sub	sp, sp, #12
 255              		.cfi_def_cfa_offset 16
 256              		.loc 1 58 0
 257 0006 FFF7FEFF 		bl	chMtxInit
 258              	.LVL26:
 259              		.loc 1 59 0
 260 000a 0023     		movs	r3, #0
 261 000c 0093     		str	r3, [sp]
 262 000e 4FF4DC71 		mov	r1, #440
 263 0012 064B     		ldr	r3, .L18+4
 264 0014 0648     		ldr	r0, .L18+8
 265 0016 7F22     		movs	r2, #127
 266 0018 FFF7FEFF 		bl	chThdCreateStatic
 267              	.LVL27:
 268 001c 054B     		ldr	r3, .L18+12
 269 001e 1860     		str	r0, [r3]
 270              		.loc 1 60 0
 271 0020 03B0     		add	sp, sp, #12
 272              		@ sp needed
 273 0022 5DF804FB 		ldr	pc, [sp], #4
 274              	.L19:
 275 0026 00BF     		.align	2
 276              	.L18:
 277 0028 00000000 		.word	.LANCHOR1
 278 002c 00000000 		.word	MusicThread
 279 0030 00000000 		.word	.LANCHOR4
 280 0034 00000000 		.word	.LANCHOR5
 281              		.cfi_endproc
 282              	.LFE121:
 283              		.size	_music_init, .-_music_init
 284 0038 AFF30080 		.section	.text.music_playNote,"ax",%progbits
ARM GAS  /tmp/ccf0DB4f.s 			page 6


 284      AFF30080 
 285              		.align	2
 286              		.p2align 4,,15
 287              		.global	music_playNote
 288              		.thumb
 289              		.thumb_func
 290              		.type	music_playNote, %function
 291              	music_playNote:
 292              	.LFB122:
 293              		.loc 1 63 0
 294              		.cfi_startproc
 295              		@ args = 0, pretend = 0, frame = 8
 296              		@ frame_needed = 0, uses_anonymous_args = 0
 297 0000 00B5     		push	{lr}
 298              		.cfi_def_cfa_offset 4
 299              		.cfi_offset 14, -4
 300 0002 83B0     		sub	sp, sp, #12
 301              		.cfi_def_cfa_offset 16
 302              		.loc 1 63 0
 303 0004 0190     		str	r0, [sp, #4]
 304              		.loc 1 64 0
 305 0006 0848     		ldr	r0, .L22
 306 0008 FFF7FEFF 		bl	chMtxLock
 307              	.LVL28:
 308              		.loc 1 65 0
 309 000c BDF80610 		ldrh	r1, [sp, #6]
 310 0010 BDF80400 		ldrh	r0, [sp, #4]
 311              	.LVL29:
 312              	.LBB14:
 313              	.LBB15:
 314              		.loc 1 27 0
 315 0014 1429     		cmp	r1, #20
 316 0016 01D9     		bls	.L21
 317 0018 FFF7FEFF 		bl	_play_note.part.0
 318              	.LVL30:
 319              	.L21:
 320              	.LBE15:
 321              	.LBE14:
 322              		.loc 1 67 0
 323 001c 03B0     		add	sp, sp, #12
 324              		@ sp needed
 325 001e 5DF804EB 		ldr	lr, [sp], #4
 326              		.loc 1 66 0
 327 0022 FFF7FEBF 		b	chMtxUnlock
 328              	.LVL31:
 329              	.L23:
 330 0026 00BF     		.align	2
 331              	.L22:
 332 0028 00000000 		.word	.LANCHOR1
 333              		.cfi_endproc
 334              	.LFE122:
 335              		.size	music_playNote, .-music_playNote
 336 002c AFF30080 		.section	.text.music_playNotes,"ax",%progbits
 337              		.align	2
 338              		.p2align 4,,15
 339              		.global	music_playNotes
 340              		.thumb
ARM GAS  /tmp/ccf0DB4f.s 			page 7


 341              		.thumb_func
 342              		.type	music_playNotes, %function
 343              	music_playNotes:
 344              	.LFB123:
 345              		.loc 1 70 0
 346              		.cfi_startproc
 347              		@ args = 0, pretend = 0, frame = 0
 348              		@ frame_needed = 0, uses_anonymous_args = 0
 349              	.LVL32:
 350 0000 F8B5     		push	{r3, r4, r5, r6, r7, lr}
 351              		.cfi_def_cfa_offset 24
 352              		.cfi_offset 3, -24
 353              		.cfi_offset 4, -20
 354              		.cfi_offset 5, -16
 355              		.cfi_offset 6, -12
 356              		.cfi_offset 7, -8
 357              		.cfi_offset 14, -4
 358              		.loc 1 70 0
 359 0002 0F46     		mov	r7, r1
 360 0004 0646     		mov	r6, r0
 361              		.loc 1 71 0
 362 0006 0D48     		ldr	r0, .L29
 363              	.LVL33:
 364 0008 FFF7FEFF 		bl	chMtxLock
 365              	.LVL34:
 366              		.loc 1 73 0
 367 000c 002F     		cmp	r7, #0
 368 000e 11DD     		ble	.L27
 369 0010 0024     		movs	r4, #0
 370 0012 2546     		mov	r5, r4
 371 0014 01E0     		b	.L28
 372              	.LVL35:
 373              	.L26:
 374              		.loc 1 73 0 is_stmt 0 discriminator 2
 375 0016 BD42     		cmp	r5, r7
 376 0018 0CD0     		beq	.L27
 377              	.LVL36:
 378              	.L28:
 379 001a 3319     		adds	r3, r6, r4
 380              		.loc 1 75 0 is_stmt 1 discriminator 2
 381 001c 305B     		ldrh	r0, [r6, r4]
 382              	.LVL37:
 383 001e 5988     		ldrh	r1, [r3, #2]
 384              	.LVL38:
 385              	.LBB16:
 386              	.LBB17:
 387              		.loc 1 27 0 discriminator 2
 388 0020 1429     		cmp	r1, #20
 389              	.LBE17:
 390              	.LBE16:
 391              		.loc 1 73 0 discriminator 2
 392 0022 05F10105 		add	r5, r5, #1
 393              	.LVL39:
 394 0026 04F10404 		add	r4, r4, #4
 395              	.LBB19:
 396              	.LBB18:
 397              		.loc 1 27 0 discriminator 2
ARM GAS  /tmp/ccf0DB4f.s 			page 8


 398 002a F4D9     		bls	.L26
 399 002c FFF7FEFF 		bl	_play_note.part.0
 400              	.LVL40:
 401              	.LBE18:
 402              	.LBE19:
 403              		.loc 1 73 0
 404 0030 BD42     		cmp	r5, r7
 405 0032 F2D1     		bne	.L28
 406              	.LVL41:
 407              	.L27:
 408              		.loc 1 78 0
 409 0034 BDE8F840 		pop	{r3, r4, r5, r6, r7, lr}
 410              	.LVL42:
 411              		.loc 1 77 0
 412 0038 FFF7FEBF 		b	chMtxUnlock
 413              	.LVL43:
 414              	.L30:
 415              		.align	2
 416              	.L29:
 417 003c 00000000 		.word	.LANCHOR1
 418              		.cfi_endproc
 419              	.LFE123:
 420              		.size	music_playNotes, .-music_playNotes
 421              		.section	.text.music_playNotesAsync,"ax",%progbits
 422              		.align	2
 423              		.p2align 4,,15
 424              		.global	music_playNotesAsync
 425              		.thumb
 426              		.thumb_func
 427              		.type	music_playNotesAsync, %function
 428              	music_playNotesAsync:
 429              	.LFB124:
 430              		.loc 1 81 0
 431              		.cfi_startproc
 432              		@ args = 0, pretend = 0, frame = 0
 433              		@ frame_needed = 0, uses_anonymous_args = 0
 434              	.LVL44:
 435 0000 38B5     		push	{r3, r4, r5, lr}
 436              		.cfi_def_cfa_offset 16
 437              		.cfi_offset 3, -16
 438              		.cfi_offset 4, -12
 439              		.cfi_offset 5, -8
 440              		.cfi_offset 14, -4
 441              		.loc 1 81 0
 442 0002 0546     		mov	r5, r0
 443              		.loc 1 83 0
 444 0004 0948     		ldr	r0, .L34
 445              	.LVL45:
 446              		.loc 1 81 0
 447 0006 0C46     		mov	r4, r1
 448              		.loc 1 83 0
 449 0008 FFF7FEFF 		bl	chMtxTryLock
 450              	.LVL46:
 451 000c 00B9     		cbnz	r0, .L33
 452 000e 38BD     		pop	{r3, r4, r5, pc}
 453              	.LVL47:
 454              	.L33:
ARM GAS  /tmp/ccf0DB4f.s 			page 9


 455              		.loc 1 88 0
 456 0010 0749     		ldr	r1, .L34+4
 457              		.loc 1 87 0
 458 0012 084B     		ldr	r3, .L34+8
 459              		.loc 1 86 0
 460 0014 084A     		ldr	r2, .L34+12
 461              		.loc 1 88 0
 462 0016 0868     		ldr	r0, [r1]
 463              		.loc 1 86 0
 464 0018 1560     		str	r5, [r2]
 465              		.loc 1 88 0
 466 001a 0121     		movs	r1, #1
 467              		.loc 1 87 0
 468 001c 1C60     		str	r4, [r3]
 469              		.loc 1 88 0
 470 001e FFF7FEFF 		bl	chMsgSend
 471              	.LVL48:
 472              		.loc 1 90 0
 473 0022 BDE83840 		pop	{r3, r4, r5, lr}
 474              	.LVL49:
 475              		.loc 1 89 0
 476 0026 FFF7FEBF 		b	chMtxUnlock
 477              	.LVL50:
 478              	.L35:
 479 002a 00BF     		.align	2
 480              	.L34:
 481 002c 00000000 		.word	.LANCHOR1
 482 0030 00000000 		.word	.LANCHOR5
 483 0034 00000000 		.word	.LANCHOR2
 484 0038 00000000 		.word	.LANCHOR3
 485              		.cfi_endproc
 486              	.LFE124:
 487              		.size	music_playNotesAsync, .-music_playNotesAsync
 488              		.global	_asyncNumNotes
 489              		.global	_asyncNotes
 490              		.global	_asyncMusicThread
 491              		.global	_buzzerMtx
 492 003c AFF30080 		.section	.bss._asyncNumNotes,"aw",%nobits
 493              		.align	2
 494              		.set	.LANCHOR2,. + 0
 495              		.type	_asyncNumNotes, %object
 496              		.size	_asyncNumNotes, 4
 497              	_asyncNumNotes:
 498 0000 00000000 		.space	4
 499              		.section	.bss._buzzerMtx,"aw",%nobits
 500              		.align	2
 501              		.set	.LANCHOR1,. + 0
 502              		.type	_buzzerMtx, %object
 503              		.size	_buzzerMtx, 16
 504              	_buzzerMtx:
 505 0000 00000000 		.space	16
 505      00000000 
 505      00000000 
 505      00000000 
 506              		.section	.bss.waMusicThread,"aw",%nobits
 507              		.align	3
 508              		.set	.LANCHOR4,. + 0
ARM GAS  /tmp/ccf0DB4f.s 			page 10


 509              		.type	waMusicThread, %object
 510              		.size	waMusicThread, 440
 511              	waMusicThread:
 512 0000 00000000 		.space	440
 512      00000000 
 512      00000000 
 512      00000000 
 512      00000000 
 513              		.section	.bss._asyncNotes,"aw",%nobits
 514              		.align	2
 515              		.set	.LANCHOR3,. + 0
 516              		.type	_asyncNotes, %object
 517              		.size	_asyncNotes, 4
 518              	_asyncNotes:
 519 0000 00000000 		.space	4
 520              		.section	.data._pwmcfg2,"aw",%progbits
 521              		.align	2
 522              		.set	.LANCHOR0,. + 0
 523              		.type	_pwmcfg2, %object
 524              		.size	_pwmcfg2, 56
 525              	_pwmcfg2:
 526 0000 40420F00 		.word	1000000
 527 0004 0100     		.short	1
 528 0006 0000     		.space	2
 529 0008 00000000 		.word	0
 530 000c 00000000 		.word	0
 531 0010 00000000 		.word	0
 532 0014 01000000 		.word	1
 533 0018 00000000 		.word	0
 534 001c 00000000 		.word	0
 535 0020 00000000 		.word	0
 536 0024 00000000 		.word	0
 537 0028 00000000 		.word	0
 538 002c 00000000 		.word	0
 539 0030 00000000 		.word	0
 540 0034 00000000 		.word	0
 541              		.section	.bss._asyncMusicThread,"aw",%nobits
 542              		.align	2
 543              		.set	.LANCHOR5,. + 0
 544              		.type	_asyncMusicThread, %object
 545              		.size	_asyncMusicThread, 4
 546              	_asyncMusicThread:
 547 0000 00000000 		.space	4
 548              		.text
 549              	.Letext0:
 550              		.file 2 "/usr/lib/gcc/arm-none-eabi/4.8.3/include/stddef.h"
 551              		.file 3 "/usr/arm-none-eabi/include/stdint.h"
 552              		.file 4 "../AithonLibrary/ChibiOS/os/ports/GCC/ARMCMx/chtypes.h"
 553              		.file 5 "../AithonLibrary/ChibiOS/os/kernel/include/chlists.h"
 554              		.file 6 "../AithonLibrary/ChibiOS/os/kernel/include/chthreads.h"
 555              		.file 7 "../AithonLibrary/ChibiOS/os/ports/GCC/ARMCMx/chcore_v7m.h"
 556              		.file 8 "../AithonLibrary/ChibiOS/os/kernel/include/chmtx.h"
 557              		.file 9 "../AithonLibrary/ChibiOS/os/hal/include/pwm.h"
 558              		.file 10 "../AithonLibrary/ChibiOS/os/hal/platforms/STM32/TIMv1/pwm_lld.h"
 559              		.file 11 "../AithonLibrary/ChibiOS/os/hal/platforms/STM32/TIMv1/stm32_tim.h"
 560              		.file 12 "../AithonLibrary/music.h"
 561              		.file 13 "../AithonLibrary/ChibiOS/os/ports/common/ARMCMx/CMSIS/include/core_cm4.h"
ARM GAS  /tmp/ccf0DB4f.s 			page 11


 562              		.file 14 "../AithonLibrary/ChibiOS/os/kernel/include/chmsg.h"
 563              		.section	.debug_info,"",%progbits
 564              	.Ldebug_info0:
 565 0000 F20C0000 		.4byte	0xcf2
 566 0004 0400     		.2byte	0x4
 567 0006 00000000 		.4byte	.Ldebug_abbrev0
 568 000a 04       		.byte	0x4
 569 000b 01       		.uleb128 0x1
 570 000c AE010000 		.4byte	.LASF125
 571 0010 01       		.byte	0x1
 572 0011 A8000000 		.4byte	.LASF126
 573 0015 1A000000 		.4byte	.LASF127
 574 0019 30000000 		.4byte	.Ldebug_ranges0+0x30
 575 001d 00000000 		.4byte	0
 576 0021 00000000 		.4byte	.Ldebug_line0
 577 0025 02       		.uleb128 0x2
 578 0026 08       		.byte	0x8
 579 0027 07       		.byte	0x7
 580 0028 7C010000 		.4byte	.LASF0
 581 002c 02       		.uleb128 0x2
 582 002d 04       		.byte	0x4
 583 002e 07       		.byte	0x7
 584 002f 93010000 		.4byte	.LASF1
 585 0033 03       		.uleb128 0x3
 586 0034 04       		.byte	0x4
 587 0035 05       		.byte	0x5
 588 0036 696E7400 		.ascii	"int\000"
 589 003a 04       		.uleb128 0x4
 590 003b 3D000000 		.4byte	.LASF3
 591 003f 02       		.byte	0x2
 592 0040 D4       		.byte	0xd4
 593 0041 2C000000 		.4byte	0x2c
 594 0045 02       		.uleb128 0x2
 595 0046 01       		.byte	0x1
 596 0047 06       		.byte	0x6
 597 0048 E2000000 		.4byte	.LASF2
 598 004c 04       		.uleb128 0x4
 599 004d 70050000 		.4byte	.LASF4
 600 0051 03       		.byte	0x3
 601 0052 2A       		.byte	0x2a
 602 0053 57000000 		.4byte	0x57
 603 0057 02       		.uleb128 0x2
 604 0058 01       		.byte	0x1
 605 0059 08       		.byte	0x8
 606 005a 01040000 		.4byte	.LASF5
 607 005e 02       		.uleb128 0x2
 608 005f 02       		.byte	0x2
 609 0060 05       		.byte	0x5
 610 0061 28040000 		.4byte	.LASF6
 611 0065 04       		.uleb128 0x4
 612 0066 4A010000 		.4byte	.LASF7
 613 006a 03       		.byte	0x3
 614 006b 36       		.byte	0x36
 615 006c 70000000 		.4byte	0x70
 616 0070 02       		.uleb128 0x2
 617 0071 02       		.byte	0x2
 618 0072 07       		.byte	0x7
ARM GAS  /tmp/ccf0DB4f.s 			page 12


 619 0073 EE020000 		.4byte	.LASF8
 620 0077 04       		.uleb128 0x4
 621 0078 F9030000 		.4byte	.LASF9
 622 007c 03       		.byte	0x3
 623 007d 4F       		.byte	0x4f
 624 007e 82000000 		.4byte	0x82
 625 0082 02       		.uleb128 0x2
 626 0083 04       		.byte	0x4
 627 0084 05       		.byte	0x5
 628 0085 2E010000 		.4byte	.LASF10
 629 0089 04       		.uleb128 0x4
 630 008a 84040000 		.4byte	.LASF11
 631 008e 03       		.byte	0x3
 632 008f 50       		.byte	0x50
 633 0090 94000000 		.4byte	0x94
 634 0094 02       		.uleb128 0x2
 635 0095 04       		.byte	0x4
 636 0096 07       		.byte	0x7
 637 0097 A1040000 		.4byte	.LASF12
 638 009b 02       		.uleb128 0x2
 639 009c 08       		.byte	0x8
 640 009d 05       		.byte	0x5
 641 009e 01030000 		.4byte	.LASF13
 642 00a2 04       		.uleb128 0x4
 643 00a3 4B000000 		.4byte	.LASF14
 644 00a7 03       		.byte	0x3
 645 00a8 78       		.byte	0x78
 646 00a9 25000000 		.4byte	0x25
 647 00ad 04       		.uleb128 0x4
 648 00ae 02010000 		.4byte	.LASF15
 649 00b2 04       		.byte	0x4
 650 00b3 2B       		.byte	0x2b
 651 00b4 B8000000 		.4byte	0xb8
 652 00b8 02       		.uleb128 0x2
 653 00b9 01       		.byte	0x1
 654 00ba 02       		.byte	0x2
 655 00bb F3030000 		.4byte	.LASF16
 656 00bf 04       		.uleb128 0x4
 657 00c0 30030000 		.4byte	.LASF17
 658 00c4 04       		.byte	0x4
 659 00c5 2C       		.byte	0x2c
 660 00c6 4C000000 		.4byte	0x4c
 661 00ca 04       		.uleb128 0x4
 662 00cb 41010000 		.4byte	.LASF18
 663 00cf 04       		.byte	0x4
 664 00d0 2D       		.byte	0x2d
 665 00d1 4C000000 		.4byte	0x4c
 666 00d5 04       		.uleb128 0x4
 667 00d6 DC030000 		.4byte	.LASF19
 668 00da 04       		.byte	0x4
 669 00db 2E       		.byte	0x2e
 670 00dc 4C000000 		.4byte	0x4c
 671 00e0 04       		.uleb128 0x4
 672 00e1 97040000 		.4byte	.LASF20
 673 00e5 04       		.byte	0x4
 674 00e6 2F       		.byte	0x2f
 675 00e7 4C000000 		.4byte	0x4c
ARM GAS  /tmp/ccf0DB4f.s 			page 13


 676 00eb 04       		.uleb128 0x4
 677 00ec EB030000 		.4byte	.LASF21
 678 00f0 04       		.byte	0x4
 679 00f1 30       		.byte	0x30
 680 00f2 89000000 		.4byte	0x89
 681 00f6 04       		.uleb128 0x4
 682 00f7 0F030000 		.4byte	.LASF22
 683 00fb 04       		.byte	0x4
 684 00fc 31       		.byte	0x31
 685 00fd 77000000 		.4byte	0x77
 686 0101 04       		.uleb128 0x4
 687 0102 44030000 		.4byte	.LASF23
 688 0106 04       		.byte	0x4
 689 0107 33       		.byte	0x33
 690 0108 89000000 		.4byte	0x89
 691 010c 04       		.uleb128 0x4
 692 010d E3040000 		.4byte	.LASF24
 693 0111 04       		.byte	0x4
 694 0112 35       		.byte	0x35
 695 0113 89000000 		.4byte	0x89
 696 0117 04       		.uleb128 0x4
 697 0118 5A040000 		.4byte	.LASF25
 698 011c 05       		.byte	0x5
 699 011d 2A       		.byte	0x2a
 700 011e 22010000 		.4byte	0x122
 701 0122 05       		.uleb128 0x5
 702 0123 5A040000 		.4byte	.LASF25
 703 0127 48       		.byte	0x48
 704 0128 06       		.byte	0x6
 705 0129 5E       		.byte	0x5e
 706 012a 1F020000 		.4byte	0x21f
 707 012e 06       		.uleb128 0x6
 708 012f 4B040000 		.4byte	.LASF26
 709 0133 06       		.byte	0x6
 710 0134 5F       		.byte	0x5f
 711 0135 40020000 		.4byte	0x240
 712 0139 00       		.byte	0
 713 013a 06       		.uleb128 0x6
 714 013b E4030000 		.4byte	.LASF27
 715 013f 06       		.byte	0x6
 716 0140 61       		.byte	0x61
 717 0141 40020000 		.4byte	0x240
 718 0145 04       		.byte	0x4
 719 0146 06       		.uleb128 0x6
 720 0147 97000000 		.4byte	.LASF28
 721 014b 06       		.byte	0x6
 722 014c 63       		.byte	0x63
 723 014d EB000000 		.4byte	0xeb
 724 0151 08       		.byte	0x8
 725 0152 06       		.uleb128 0x6
 726 0153 FE050000 		.4byte	.LASF29
 727 0157 06       		.byte	0x6
 728 0158 64       		.byte	0x64
 729 0159 D5030000 		.4byte	0x3d5
 730 015d 0C       		.byte	0xc
 731 015e 06       		.uleb128 0x6
 732 015f 53010000 		.4byte	.LASF30
ARM GAS  /tmp/ccf0DB4f.s 			page 14


 733 0163 06       		.byte	0x6
 734 0164 66       		.byte	0x66
 735 0165 40020000 		.4byte	0x240
 736 0169 10       		.byte	0x10
 737 016a 06       		.uleb128 0x6
 738 016b B6030000 		.4byte	.LASF31
 739 016f 06       		.byte	0x6
 740 0170 67       		.byte	0x67
 741 0171 40020000 		.4byte	0x240
 742 0175 14       		.byte	0x14
 743 0176 06       		.uleb128 0x6
 744 0177 A4050000 		.4byte	.LASF32
 745 017b 06       		.byte	0x6
 746 017c 6E       		.byte	0x6e
 747 017d 7E040000 		.4byte	0x47e
 748 0181 18       		.byte	0x18
 749 0182 06       		.uleb128 0x6
 750 0183 32040000 		.4byte	.LASF33
 751 0187 06       		.byte	0x6
 752 0188 79       		.byte	0x79
 753 0189 CA000000 		.4byte	0xca
 754 018d 1C       		.byte	0x1c
 755 018e 06       		.uleb128 0x6
 756 018f 52040000 		.4byte	.LASF34
 757 0193 06       		.byte	0x6
 758 0194 7D       		.byte	0x7d
 759 0195 BF000000 		.4byte	0xbf
 760 0199 1D       		.byte	0x1d
 761 019a 06       		.uleb128 0x6
 762 019b C7030000 		.4byte	.LASF35
 763 019f 06       		.byte	0x6
 764 01a0 82       		.byte	0x82
 765 01a1 D5000000 		.4byte	0xd5
 766 01a5 1E       		.byte	0x1e
 767 01a6 06       		.uleb128 0x6
 768 01a7 3A040000 		.4byte	.LASF36
 769 01ab 06       		.byte	0x6
 770 01ac 88       		.byte	0x88
 771 01ad E0000000 		.4byte	0xe0
 772 01b1 1F       		.byte	0x1f
 773 01b2 06       		.uleb128 0x6
 774 01b3 F8040000 		.4byte	.LASF37
 775 01b7 06       		.byte	0x6
 776 01b8 8F       		.byte	0x8f
 777 01b9 02040000 		.4byte	0x402
 778 01bd 20       		.byte	0x20
 779 01be 07       		.uleb128 0x7
 780 01bf 705F7500 		.ascii	"p_u\000"
 781 01c3 06       		.byte	0x6
 782 01c4 B4       		.byte	0xb4
 783 01c5 49040000 		.4byte	0x449
 784 01c9 24       		.byte	0x24
 785 01ca 06       		.uleb128 0x6
 786 01cb 04060000 		.4byte	.LASF38
 787 01cf 06       		.byte	0x6
 788 01d0 B9       		.byte	0xb9
 789 01d1 66020000 		.4byte	0x266
ARM GAS  /tmp/ccf0DB4f.s 			page 15


 790 01d5 28       		.byte	0x28
 791 01d6 06       		.uleb128 0x6
 792 01d7 17050000 		.4byte	.LASF39
 793 01db 06       		.byte	0x6
 794 01dc BF       		.byte	0xbf
 795 01dd 46020000 		.4byte	0x246
 796 01e1 2C       		.byte	0x2c
 797 01e2 06       		.uleb128 0x6
 798 01e3 D1050000 		.4byte	.LASF40
 799 01e7 06       		.byte	0x6
 800 01e8 C3       		.byte	0xc3
 801 01e9 F6000000 		.4byte	0xf6
 802 01ed 34       		.byte	0x34
 803 01ee 06       		.uleb128 0x6
 804 01ef 6E040000 		.4byte	.LASF41
 805 01f3 06       		.byte	0x6
 806 01f4 C9       		.byte	0xc9
 807 01f5 01010000 		.4byte	0x101
 808 01f9 38       		.byte	0x38
 809 01fa 06       		.uleb128 0x6
 810 01fb 1E040000 		.4byte	.LASF42
 811 01ff 06       		.byte	0x6
 812 0200 D0       		.byte	0xd0
 813 0201 90040000 		.4byte	0x490
 814 0205 3C       		.byte	0x3c
 815 0206 06       		.uleb128 0x6
 816 0207 ED040000 		.4byte	.LASF43
 817 020b 06       		.byte	0x6
 818 020c D4       		.byte	0xd4
 819 020d EB000000 		.4byte	0xeb
 820 0211 40       		.byte	0x40
 821 0212 06       		.uleb128 0x6
 822 0213 FA000000 		.4byte	.LASF44
 823 0217 06       		.byte	0x6
 824 0218 DA       		.byte	0xda
 825 0219 7C020000 		.4byte	0x27c
 826 021d 44       		.byte	0x44
 827 021e 00       		.byte	0
 828 021f 08       		.uleb128 0x8
 829 0220 08       		.byte	0x8
 830 0221 05       		.byte	0x5
 831 0222 61       		.byte	0x61
 832 0223 40020000 		.4byte	0x240
 833 0227 06       		.uleb128 0x6
 834 0228 4B040000 		.4byte	.LASF26
 835 022c 05       		.byte	0x5
 836 022d 62       		.byte	0x62
 837 022e 40020000 		.4byte	0x240
 838 0232 00       		.byte	0
 839 0233 06       		.uleb128 0x6
 840 0234 E4030000 		.4byte	.LASF27
 841 0238 05       		.byte	0x5
 842 0239 64       		.byte	0x64
 843 023a 40020000 		.4byte	0x240
 844 023e 04       		.byte	0x4
 845 023f 00       		.byte	0
 846 0240 09       		.uleb128 0x9
ARM GAS  /tmp/ccf0DB4f.s 			page 16


 847 0241 04       		.byte	0x4
 848 0242 17010000 		.4byte	0x117
 849 0246 04       		.uleb128 0x4
 850 0247 61000000 		.4byte	.LASF45
 851 024b 05       		.byte	0x5
 852 024c 66       		.byte	0x66
 853 024d 1F020000 		.4byte	0x21f
 854 0251 08       		.uleb128 0x8
 855 0252 04       		.byte	0x4
 856 0253 05       		.byte	0x5
 857 0254 6B       		.byte	0x6b
 858 0255 66020000 		.4byte	0x266
 859 0259 06       		.uleb128 0x6
 860 025a 4B040000 		.4byte	.LASF26
 861 025e 05       		.byte	0x5
 862 025f 6D       		.byte	0x6d
 863 0260 40020000 		.4byte	0x240
 864 0264 00       		.byte	0
 865 0265 00       		.byte	0
 866 0266 04       		.uleb128 0x4
 867 0267 38030000 		.4byte	.LASF46
 868 026b 05       		.byte	0x5
 869 026c 70       		.byte	0x70
 870 026d 51020000 		.4byte	0x251
 871 0271 04       		.uleb128 0x4
 872 0272 6A010000 		.4byte	.LASF47
 873 0276 07       		.byte	0x7
 874 0277 E5       		.byte	0xe5
 875 0278 7C020000 		.4byte	0x27c
 876 027c 0A       		.uleb128 0xa
 877 027d 04       		.byte	0x4
 878 027e 04       		.uleb128 0x4
 879 027f 72030000 		.4byte	.LASF48
 880 0283 07       		.byte	0x7
 881 0284 EB       		.byte	0xeb
 882 0285 A2000000 		.4byte	0xa2
 883 0289 0B       		.uleb128 0xb
 884 028a 10050000 		.4byte	.LASF49
 885 028e 64       		.byte	0x64
 886 028f 07       		.byte	0x7
 887 0290 0C01     		.2byte	0x10c
 888 0292 D5030000 		.4byte	0x3d5
 889 0296 0C       		.uleb128 0xc
 890 0297 73313600 		.ascii	"s16\000"
 891 029b 07       		.byte	0x7
 892 029c 0E01     		.2byte	0x10e
 893 029e 71020000 		.4byte	0x271
 894 02a2 00       		.byte	0
 895 02a3 0C       		.uleb128 0xc
 896 02a4 73313700 		.ascii	"s17\000"
 897 02a8 07       		.byte	0x7
 898 02a9 0F01     		.2byte	0x10f
 899 02ab 71020000 		.4byte	0x271
 900 02af 04       		.byte	0x4
 901 02b0 0C       		.uleb128 0xc
 902 02b1 73313800 		.ascii	"s18\000"
 903 02b5 07       		.byte	0x7
ARM GAS  /tmp/ccf0DB4f.s 			page 17


 904 02b6 1001     		.2byte	0x110
 905 02b8 71020000 		.4byte	0x271
 906 02bc 08       		.byte	0x8
 907 02bd 0C       		.uleb128 0xc
 908 02be 73313900 		.ascii	"s19\000"
 909 02c2 07       		.byte	0x7
 910 02c3 1101     		.2byte	0x111
 911 02c5 71020000 		.4byte	0x271
 912 02c9 0C       		.byte	0xc
 913 02ca 0C       		.uleb128 0xc
 914 02cb 73323000 		.ascii	"s20\000"
 915 02cf 07       		.byte	0x7
 916 02d0 1201     		.2byte	0x112
 917 02d2 71020000 		.4byte	0x271
 918 02d6 10       		.byte	0x10
 919 02d7 0C       		.uleb128 0xc
 920 02d8 73323100 		.ascii	"s21\000"
 921 02dc 07       		.byte	0x7
 922 02dd 1301     		.2byte	0x113
 923 02df 71020000 		.4byte	0x271
 924 02e3 14       		.byte	0x14
 925 02e4 0C       		.uleb128 0xc
 926 02e5 73323200 		.ascii	"s22\000"
 927 02e9 07       		.byte	0x7
 928 02ea 1401     		.2byte	0x114
 929 02ec 71020000 		.4byte	0x271
 930 02f0 18       		.byte	0x18
 931 02f1 0C       		.uleb128 0xc
 932 02f2 73323300 		.ascii	"s23\000"
 933 02f6 07       		.byte	0x7
 934 02f7 1501     		.2byte	0x115
 935 02f9 71020000 		.4byte	0x271
 936 02fd 1C       		.byte	0x1c
 937 02fe 0C       		.uleb128 0xc
 938 02ff 73323400 		.ascii	"s24\000"
 939 0303 07       		.byte	0x7
 940 0304 1601     		.2byte	0x116
 941 0306 71020000 		.4byte	0x271
 942 030a 20       		.byte	0x20
 943 030b 0C       		.uleb128 0xc
 944 030c 73323500 		.ascii	"s25\000"
 945 0310 07       		.byte	0x7
 946 0311 1701     		.2byte	0x117
 947 0313 71020000 		.4byte	0x271
 948 0317 24       		.byte	0x24
 949 0318 0C       		.uleb128 0xc
 950 0319 73323600 		.ascii	"s26\000"
 951 031d 07       		.byte	0x7
 952 031e 1801     		.2byte	0x118
 953 0320 71020000 		.4byte	0x271
 954 0324 28       		.byte	0x28
 955 0325 0C       		.uleb128 0xc
 956 0326 73323700 		.ascii	"s27\000"
 957 032a 07       		.byte	0x7
 958 032b 1901     		.2byte	0x119
 959 032d 71020000 		.4byte	0x271
 960 0331 2C       		.byte	0x2c
ARM GAS  /tmp/ccf0DB4f.s 			page 18


 961 0332 0C       		.uleb128 0xc
 962 0333 73323800 		.ascii	"s28\000"
 963 0337 07       		.byte	0x7
 964 0338 1A01     		.2byte	0x11a
 965 033a 71020000 		.4byte	0x271
 966 033e 30       		.byte	0x30
 967 033f 0C       		.uleb128 0xc
 968 0340 73323900 		.ascii	"s29\000"
 969 0344 07       		.byte	0x7
 970 0345 1B01     		.2byte	0x11b
 971 0347 71020000 		.4byte	0x271
 972 034b 34       		.byte	0x34
 973 034c 0C       		.uleb128 0xc
 974 034d 73333000 		.ascii	"s30\000"
 975 0351 07       		.byte	0x7
 976 0352 1C01     		.2byte	0x11c
 977 0354 71020000 		.4byte	0x271
 978 0358 38       		.byte	0x38
 979 0359 0C       		.uleb128 0xc
 980 035a 73333100 		.ascii	"s31\000"
 981 035e 07       		.byte	0x7
 982 035f 1D01     		.2byte	0x11d
 983 0361 71020000 		.4byte	0x271
 984 0365 3C       		.byte	0x3c
 985 0366 0C       		.uleb128 0xc
 986 0367 723400   		.ascii	"r4\000"
 987 036a 07       		.byte	0x7
 988 036b 1F01     		.2byte	0x11f
 989 036d 71020000 		.4byte	0x271
 990 0371 40       		.byte	0x40
 991 0372 0C       		.uleb128 0xc
 992 0373 723500   		.ascii	"r5\000"
 993 0376 07       		.byte	0x7
 994 0377 2001     		.2byte	0x120
 995 0379 71020000 		.4byte	0x271
 996 037d 44       		.byte	0x44
 997 037e 0C       		.uleb128 0xc
 998 037f 723600   		.ascii	"r6\000"
 999 0382 07       		.byte	0x7
 1000 0383 2101     		.2byte	0x121
 1001 0385 71020000 		.4byte	0x271
 1002 0389 48       		.byte	0x48
 1003 038a 0C       		.uleb128 0xc
 1004 038b 723700   		.ascii	"r7\000"
 1005 038e 07       		.byte	0x7
 1006 038f 2201     		.2byte	0x122
 1007 0391 71020000 		.4byte	0x271
 1008 0395 4C       		.byte	0x4c
 1009 0396 0C       		.uleb128 0xc
 1010 0397 723800   		.ascii	"r8\000"
 1011 039a 07       		.byte	0x7
 1012 039b 2301     		.2byte	0x123
 1013 039d 71020000 		.4byte	0x271
 1014 03a1 50       		.byte	0x50
 1015 03a2 0C       		.uleb128 0xc
 1016 03a3 723900   		.ascii	"r9\000"
 1017 03a6 07       		.byte	0x7
ARM GAS  /tmp/ccf0DB4f.s 			page 19


 1018 03a7 2401     		.2byte	0x124
 1019 03a9 71020000 		.4byte	0x271
 1020 03ad 54       		.byte	0x54
 1021 03ae 0C       		.uleb128 0xc
 1022 03af 72313000 		.ascii	"r10\000"
 1023 03b3 07       		.byte	0x7
 1024 03b4 2501     		.2byte	0x125
 1025 03b6 71020000 		.4byte	0x271
 1026 03ba 58       		.byte	0x58
 1027 03bb 0C       		.uleb128 0xc
 1028 03bc 72313100 		.ascii	"r11\000"
 1029 03c0 07       		.byte	0x7
 1030 03c1 2601     		.2byte	0x126
 1031 03c3 71020000 		.4byte	0x271
 1032 03c7 5C       		.byte	0x5c
 1033 03c8 0C       		.uleb128 0xc
 1034 03c9 6C7200   		.ascii	"lr\000"
 1035 03cc 07       		.byte	0x7
 1036 03cd 2701     		.2byte	0x127
 1037 03cf 71020000 		.4byte	0x271
 1038 03d3 60       		.byte	0x60
 1039 03d4 00       		.byte	0
 1040 03d5 0B       		.uleb128 0xb
 1041 03d6 E6020000 		.4byte	.LASF50
 1042 03da 04       		.byte	0x4
 1043 03db 07       		.byte	0x7
 1044 03dc 3101     		.2byte	0x131
 1045 03de F0030000 		.4byte	0x3f0
 1046 03e2 0C       		.uleb128 0xc
 1047 03e3 72313300 		.ascii	"r13\000"
 1048 03e7 07       		.byte	0x7
 1049 03e8 3201     		.2byte	0x132
 1050 03ea F0030000 		.4byte	0x3f0
 1051 03ee 00       		.byte	0
 1052 03ef 00       		.byte	0
 1053 03f0 09       		.uleb128 0x9
 1054 03f1 04       		.byte	0x4
 1055 03f2 89020000 		.4byte	0x289
 1056 03f6 0D       		.uleb128 0xd
 1057 03f7 89000000 		.4byte	0x89
 1058 03fb 02       		.uleb128 0x2
 1059 03fc 04       		.byte	0x4
 1060 03fd 07       		.byte	0x7
 1061 03fe A3030000 		.4byte	.LASF51
 1062 0402 0D       		.uleb128 0xd
 1063 0403 0C010000 		.4byte	0x10c
 1064 0407 05       		.uleb128 0x5
 1065 0408 5D030000 		.4byte	.LASF52
 1066 040c 10       		.byte	0x10
 1067 040d 08       		.byte	0x8
 1068 040e 2C       		.byte	0x2c
 1069 040f 38040000 		.4byte	0x438
 1070 0413 06       		.uleb128 0x6
 1071 0414 8F000000 		.4byte	.LASF53
 1072 0418 08       		.byte	0x8
 1073 0419 2D       		.byte	0x2d
 1074 041a 46020000 		.4byte	0x246
ARM GAS  /tmp/ccf0DB4f.s 			page 20


 1075 041e 00       		.byte	0
 1076 041f 06       		.uleb128 0x6
 1077 0420 EB050000 		.4byte	.LASF54
 1078 0424 08       		.byte	0x8
 1079 0425 2F       		.byte	0x2f
 1080 0426 40020000 		.4byte	0x240
 1081 042a 08       		.byte	0x8
 1082 042b 06       		.uleb128 0x6
 1083 042c DC040000 		.4byte	.LASF55
 1084 0430 08       		.byte	0x8
 1085 0431 31       		.byte	0x31
 1086 0432 38040000 		.4byte	0x438
 1087 0436 0C       		.byte	0xc
 1088 0437 00       		.byte	0
 1089 0438 09       		.uleb128 0x9
 1090 0439 04       		.byte	0x4
 1091 043a 07040000 		.4byte	0x407
 1092 043e 04       		.uleb128 0x4
 1093 043f 5D030000 		.4byte	.LASF52
 1094 0443 08       		.byte	0x8
 1095 0444 33       		.byte	0x33
 1096 0445 07040000 		.4byte	0x407
 1097 0449 0E       		.uleb128 0xe
 1098 044a 04       		.byte	0x4
 1099 044b 06       		.byte	0x6
 1100 044c 96       		.byte	0x96
 1101 044d 7E040000 		.4byte	0x47e
 1102 0451 0F       		.uleb128 0xf
 1103 0452 44000000 		.4byte	.LASF56
 1104 0456 06       		.byte	0x6
 1105 0457 9D       		.byte	0x9d
 1106 0458 F6000000 		.4byte	0xf6
 1107 045c 0F       		.uleb128 0xf
 1108 045d 5B010000 		.4byte	.LASF57
 1109 0461 06       		.byte	0x6
 1110 0462 A4       		.byte	0xa4
 1111 0463 F6000000 		.4byte	0xf6
 1112 0467 0F       		.uleb128 0xf
 1113 0468 9D050000 		.4byte	.LASF58
 1114 046c 06       		.byte	0x6
 1115 046d AB       		.byte	0xab
 1116 046e 7C020000 		.4byte	0x27c
 1117 0472 0F       		.uleb128 0xf
 1118 0473 44040000 		.4byte	.LASF59
 1119 0477 06       		.byte	0x6
 1120 0478 B2       		.byte	0xb2
 1121 0479 01010000 		.4byte	0x101
 1122 047d 00       		.byte	0
 1123 047e 09       		.uleb128 0x9
 1124 047f 04       		.byte	0x4
 1125 0480 84040000 		.4byte	0x484
 1126 0484 10       		.uleb128 0x10
 1127 0485 89040000 		.4byte	0x489
 1128 0489 02       		.uleb128 0x2
 1129 048a 01       		.byte	0x1
 1130 048b 08       		.byte	0x8
 1131 048c BC040000 		.4byte	.LASF60
ARM GAS  /tmp/ccf0DB4f.s 			page 21


 1132 0490 09       		.uleb128 0x9
 1133 0491 04       		.byte	0x4
 1134 0492 3E040000 		.4byte	0x43e
 1135 0496 04       		.uleb128 0x4
 1136 0497 00000000 		.4byte	.LASF61
 1137 049b 06       		.byte	0x6
 1138 049c E5       		.byte	0xe5
 1139 049d A1040000 		.4byte	0x4a1
 1140 04a1 09       		.uleb128 0x9
 1141 04a2 04       		.byte	0x4
 1142 04a3 A7040000 		.4byte	0x4a7
 1143 04a7 11       		.uleb128 0x11
 1144 04a8 F6000000 		.4byte	0xf6
 1145 04ac B6040000 		.4byte	0x4b6
 1146 04b0 12       		.uleb128 0x12
 1147 04b1 7C020000 		.4byte	0x27c
 1148 04b5 00       		.byte	0
 1149 04b6 13       		.uleb128 0x13
 1150 04b7 89000000 		.4byte	0x89
 1151 04bb C6040000 		.4byte	0x4c6
 1152 04bf 14       		.uleb128 0x14
 1153 04c0 FB030000 		.4byte	0x3fb
 1154 04c4 03       		.byte	0x3
 1155 04c5 00       		.byte	0
 1156 04c6 0D       		.uleb128 0xd
 1157 04c7 77000000 		.4byte	0x77
 1158 04cb 15       		.uleb128 0x15
 1159 04cc 01       		.byte	0x1
 1160 04cd 09       		.byte	0x9
 1161 04ce 55       		.byte	0x55
 1162 04cf E6040000 		.4byte	0x4e6
 1163 04d3 16       		.uleb128 0x16
 1164 04d4 E0050000 		.4byte	.LASF62
 1165 04d8 00       		.sleb128 0
 1166 04d9 16       		.uleb128 0x16
 1167 04da B3040000 		.4byte	.LASF63
 1168 04de 01       		.sleb128 1
 1169 04df 16       		.uleb128 0x16
 1170 04e0 9E000000 		.4byte	.LASF64
 1171 04e4 02       		.sleb128 2
 1172 04e5 00       		.byte	0
 1173 04e6 04       		.uleb128 0x4
 1174 04e7 82050000 		.4byte	.LASF65
 1175 04eb 09       		.byte	0x9
 1176 04ec 59       		.byte	0x59
 1177 04ed CB040000 		.4byte	0x4cb
 1178 04f1 04       		.uleb128 0x4
 1179 04f2 78050000 		.4byte	.LASF66
 1180 04f6 09       		.byte	0x9
 1181 04f7 5E       		.byte	0x5e
 1182 04f8 FC040000 		.4byte	0x4fc
 1183 04fc 0B       		.uleb128 0xb
 1184 04fd 78050000 		.4byte	.LASF66
 1185 0501 14       		.byte	0x14
 1186 0502 0A       		.byte	0xa
 1187 0503 6F01     		.2byte	0x16f
 1188 0505 4B050000 		.4byte	0x54b
ARM GAS  /tmp/ccf0DB4f.s 			page 22


 1189 0509 17       		.uleb128 0x17
 1190 050a 1F010000 		.4byte	.LASF67
 1191 050e 0A       		.byte	0xa
 1192 050f 7301     		.2byte	0x173
 1193 0511 E6040000 		.4byte	0x4e6
 1194 0515 00       		.byte	0
 1195 0516 17       		.uleb128 0x17
 1196 0517 CB040000 		.4byte	.LASF68
 1197 051b 0A       		.byte	0xa
 1198 051c 7701     		.2byte	0x177
 1199 051e 6C070000 		.4byte	0x76c
 1200 0522 04       		.byte	0x4
 1201 0523 17       		.uleb128 0x17
 1202 0524 5A000000 		.4byte	.LASF69
 1203 0528 0A       		.byte	0xa
 1204 0529 7B01     		.2byte	0x17b
 1205 052b AF060000 		.4byte	0x6af
 1206 052f 08       		.byte	0x8
 1207 0530 17       		.uleb128 0x17
 1208 0531 CB050000 		.4byte	.LASF70
 1209 0535 0A       		.byte	0xa
 1210 0536 8301     		.2byte	0x183
 1211 0538 89000000 		.4byte	0x89
 1212 053c 0C       		.byte	0xc
 1213 053d 0C       		.uleb128 0xc
 1214 053e 74696D00 		.ascii	"tim\000"
 1215 0542 0A       		.byte	0xa
 1216 0543 8701     		.2byte	0x187
 1217 0545 77070000 		.4byte	0x777
 1218 0549 10       		.byte	0x10
 1219 054a 00       		.byte	0
 1220 054b 04       		.uleb128 0x4
 1221 054c CE030000 		.4byte	.LASF71
 1222 0550 09       		.byte	0x9
 1223 0551 65       		.byte	0x65
 1224 0552 56050000 		.4byte	0x556
 1225 0556 09       		.uleb128 0x9
 1226 0557 04       		.byte	0x4
 1227 0558 5C050000 		.4byte	0x55c
 1228 055c 18       		.uleb128 0x18
 1229 055d 67050000 		.4byte	0x567
 1230 0561 12       		.uleb128 0x12
 1231 0562 67050000 		.4byte	0x567
 1232 0566 00       		.byte	0
 1233 0567 09       		.uleb128 0x9
 1234 0568 04       		.byte	0x4
 1235 0569 F1040000 		.4byte	0x4f1
 1236 056d 19       		.uleb128 0x19
 1237 056e 60       		.byte	0x60
 1238 056f 0B       		.byte	0xb
 1239 0570 9E01     		.2byte	0x19e
 1240 0572 86060000 		.4byte	0x686
 1241 0576 0C       		.uleb128 0xc
 1242 0577 43523100 		.ascii	"CR1\000"
 1243 057b 0B       		.byte	0xb
 1244 057c 9F01     		.2byte	0x19f
 1245 057e F6030000 		.4byte	0x3f6
ARM GAS  /tmp/ccf0DB4f.s 			page 23


 1246 0582 00       		.byte	0
 1247 0583 0C       		.uleb128 0xc
 1248 0584 43523200 		.ascii	"CR2\000"
 1249 0588 0B       		.byte	0xb
 1250 0589 A001     		.2byte	0x1a0
 1251 058b F6030000 		.4byte	0x3f6
 1252 058f 04       		.byte	0x4
 1253 0590 17       		.uleb128 0x17
 1254 0591 C6040000 		.4byte	.LASF72
 1255 0595 0B       		.byte	0xb
 1256 0596 A101     		.2byte	0x1a1
 1257 0598 F6030000 		.4byte	0x3f6
 1258 059c 08       		.byte	0x8
 1259 059d 17       		.uleb128 0x17
 1260 059e 15000000 		.4byte	.LASF73
 1261 05a2 0B       		.byte	0xb
 1262 05a3 A201     		.2byte	0x1a2
 1263 05a5 F6030000 		.4byte	0x3f6
 1264 05a9 0C       		.byte	0xc
 1265 05aa 0C       		.uleb128 0xc
 1266 05ab 535200   		.ascii	"SR\000"
 1267 05ae 0B       		.byte	0xb
 1268 05af A301     		.2byte	0x1a3
 1269 05b1 F6030000 		.4byte	0x3f6
 1270 05b5 10       		.byte	0x10
 1271 05b6 0C       		.uleb128 0xc
 1272 05b7 45475200 		.ascii	"EGR\000"
 1273 05bb 0B       		.byte	0xb
 1274 05bc A401     		.2byte	0x1a4
 1275 05be F6030000 		.4byte	0x3f6
 1276 05c2 14       		.byte	0x14
 1277 05c3 17       		.uleb128 0x17
 1278 05c4 CA000000 		.4byte	.LASF74
 1279 05c8 0B       		.byte	0xb
 1280 05c9 A501     		.2byte	0x1a5
 1281 05cb F6030000 		.4byte	0x3f6
 1282 05cf 18       		.byte	0x18
 1283 05d0 17       		.uleb128 0x17
 1284 05d1 D0000000 		.4byte	.LASF75
 1285 05d5 0B       		.byte	0xb
 1286 05d6 A601     		.2byte	0x1a6
 1287 05d8 F6030000 		.4byte	0x3f6
 1288 05dc 1C       		.byte	0x1c
 1289 05dd 17       		.uleb128 0x17
 1290 05de D7040000 		.4byte	.LASF76
 1291 05e2 0B       		.byte	0xb
 1292 05e3 A701     		.2byte	0x1a7
 1293 05e5 F6030000 		.4byte	0x3f6
 1294 05e9 20       		.byte	0x20
 1295 05ea 0C       		.uleb128 0xc
 1296 05eb 434E5400 		.ascii	"CNT\000"
 1297 05ef 0B       		.byte	0xb
 1298 05f0 A801     		.2byte	0x1a8
 1299 05f2 F6030000 		.4byte	0x3f6
 1300 05f6 24       		.byte	0x24
 1301 05f7 0C       		.uleb128 0xc
 1302 05f8 50534300 		.ascii	"PSC\000"
ARM GAS  /tmp/ccf0DB4f.s 			page 24


 1303 05fc 0B       		.byte	0xb
 1304 05fd A901     		.2byte	0x1a9
 1305 05ff F6030000 		.4byte	0x3f6
 1306 0603 28       		.byte	0x28
 1307 0604 0C       		.uleb128 0xc
 1308 0605 41525200 		.ascii	"ARR\000"
 1309 0609 0B       		.byte	0xb
 1310 060a AA01     		.2byte	0x1aa
 1311 060c F6030000 		.4byte	0x3f6
 1312 0610 2C       		.byte	0x2c
 1313 0611 0C       		.uleb128 0xc
 1314 0612 52435200 		.ascii	"RCR\000"
 1315 0616 0B       		.byte	0xb
 1316 0617 AB01     		.2byte	0x1ab
 1317 0619 F6030000 		.4byte	0x3f6
 1318 061d 30       		.byte	0x30
 1319 061e 0C       		.uleb128 0xc
 1320 061f 43435200 		.ascii	"CCR\000"
 1321 0623 0B       		.byte	0xb
 1322 0624 AC01     		.2byte	0x1ac
 1323 0626 86060000 		.4byte	0x686
 1324 062a 34       		.byte	0x34
 1325 062b 17       		.uleb128 0x17
 1326 062c 80000000 		.4byte	.LASF77
 1327 0630 0B       		.byte	0xb
 1328 0631 AD01     		.2byte	0x1ad
 1329 0633 F6030000 		.4byte	0x3f6
 1330 0637 44       		.byte	0x44
 1331 0638 0C       		.uleb128 0xc
 1332 0639 44435200 		.ascii	"DCR\000"
 1333 063d 0B       		.byte	0xb
 1334 063e AE01     		.2byte	0x1ae
 1335 0640 F6030000 		.4byte	0x3f6
 1336 0644 48       		.byte	0x48
 1337 0645 17       		.uleb128 0x17
 1338 0646 D2040000 		.4byte	.LASF78
 1339 064a 0B       		.byte	0xb
 1340 064b AF01     		.2byte	0x1af
 1341 064d F6030000 		.4byte	0x3f6
 1342 0651 4C       		.byte	0x4c
 1343 0652 0C       		.uleb128 0xc
 1344 0653 4F5200   		.ascii	"OR\000"
 1345 0656 0B       		.byte	0xb
 1346 0657 B001     		.2byte	0x1b0
 1347 0659 F6030000 		.4byte	0x3f6
 1348 065d 50       		.byte	0x50
 1349 065e 17       		.uleb128 0x17
 1350 065f 54000000 		.4byte	.LASF79
 1351 0663 0B       		.byte	0xb
 1352 0664 B101     		.2byte	0x1b1
 1353 0666 F6030000 		.4byte	0x3f6
 1354 066a 54       		.byte	0x54
 1355 066b 17       		.uleb128 0x17
 1356 066c 41050000 		.4byte	.LASF80
 1357 0670 0B       		.byte	0xb
 1358 0671 B201     		.2byte	0x1b2
 1359 0673 F6030000 		.4byte	0x3f6
ARM GAS  /tmp/ccf0DB4f.s 			page 25


 1360 0677 58       		.byte	0x58
 1361 0678 17       		.uleb128 0x17
 1362 0679 46050000 		.4byte	.LASF81
 1363 067d 0B       		.byte	0xb
 1364 067e B301     		.2byte	0x1b3
 1365 0680 F6030000 		.4byte	0x3f6
 1366 0684 5C       		.byte	0x5c
 1367 0685 00       		.byte	0
 1368 0686 0D       		.uleb128 0xd
 1369 0687 B6040000 		.4byte	0x4b6
 1370 068b 1A       		.uleb128 0x1a
 1371 068c EE000000 		.4byte	.LASF82
 1372 0690 0B       		.byte	0xb
 1373 0691 B401     		.2byte	0x1b4
 1374 0693 6D050000 		.4byte	0x56d
 1375 0697 1A       		.uleb128 0x1a
 1376 0698 09010000 		.4byte	.LASF83
 1377 069c 0A       		.byte	0xa
 1378 069d 2001     		.2byte	0x120
 1379 069f 89000000 		.4byte	0x89
 1380 06a3 1A       		.uleb128 0x1a
 1381 06a4 08000000 		.4byte	.LASF84
 1382 06a8 0A       		.byte	0xa
 1383 06a9 2501     		.2byte	0x125
 1384 06ab 4C000000 		.4byte	0x4c
 1385 06af 1A       		.uleb128 0x1a
 1386 06b0 BE030000 		.4byte	.LASF85
 1387 06b4 0A       		.byte	0xa
 1388 06b5 2A01     		.2byte	0x12a
 1389 06b7 65000000 		.4byte	0x65
 1390 06bb 19       		.uleb128 0x19
 1391 06bc 08       		.byte	0x8
 1392 06bd 0A       		.byte	0xa
 1393 06be 2F01     		.2byte	0x12f
 1394 06c0 DF060000 		.4byte	0x6df
 1395 06c4 17       		.uleb128 0x17
 1396 06c5 C1040000 		.4byte	.LASF86
 1397 06c9 0A       		.byte	0xa
 1398 06ca 3301     		.2byte	0x133
 1399 06cc 97060000 		.4byte	0x697
 1400 06d0 00       		.byte	0
 1401 06d1 17       		.uleb128 0x17
 1402 06d2 27030000 		.4byte	.LASF87
 1403 06d6 0A       		.byte	0xa
 1404 06d7 3901     		.2byte	0x139
 1405 06d9 4B050000 		.4byte	0x54b
 1406 06dd 04       		.byte	0x4
 1407 06de 00       		.byte	0
 1408 06df 1A       		.uleb128 0x1a
 1409 06e0 FF040000 		.4byte	.LASF88
 1410 06e4 0A       		.byte	0xa
 1411 06e5 3B01     		.2byte	0x13b
 1412 06e7 BB060000 		.4byte	0x6bb
 1413 06eb 19       		.uleb128 0x19
 1414 06ec 38       		.byte	0x38
 1415 06ed 0A       		.byte	0xa
 1416 06ee 4001     		.2byte	0x140
ARM GAS  /tmp/ccf0DB4f.s 			page 26


 1417 06f0 50070000 		.4byte	0x750
 1418 06f4 17       		.uleb128 0x17
 1419 06f5 85000000 		.4byte	.LASF89
 1420 06f9 0A       		.byte	0xa
 1421 06fa 4601     		.2byte	0x146
 1422 06fc 89000000 		.4byte	0x89
 1423 0700 00       		.byte	0
 1424 0701 17       		.uleb128 0x17
 1425 0702 5A000000 		.4byte	.LASF69
 1426 0706 0A       		.byte	0xa
 1427 0707 4C01     		.2byte	0x14c
 1428 0709 AF060000 		.4byte	0x6af
 1429 070d 04       		.byte	0x4
 1430 070e 17       		.uleb128 0x17
 1431 070f 27030000 		.4byte	.LASF87
 1432 0713 0A       		.byte	0xa
 1433 0714 5201     		.2byte	0x152
 1434 0716 4B050000 		.4byte	0x54b
 1435 071a 08       		.byte	0x8
 1436 071b 17       		.uleb128 0x17
 1437 071c 25010000 		.4byte	.LASF90
 1438 0720 0A       		.byte	0xa
 1439 0721 5601     		.2byte	0x156
 1440 0723 50070000 		.4byte	0x750
 1441 0727 0C       		.byte	0xc
 1442 0728 0C       		.uleb128 0xc
 1443 0729 63723200 		.ascii	"cr2\000"
 1444 072d 0A       		.byte	0xa
 1445 072e 5C01     		.2byte	0x15c
 1446 0730 89000000 		.4byte	0x89
 1447 0734 2C       		.byte	0x2c
 1448 0735 17       		.uleb128 0x17
 1449 0736 6E000000 		.4byte	.LASF91
 1450 073a 0A       		.byte	0xa
 1451 073b 6201     		.2byte	0x162
 1452 073d 89000000 		.4byte	0x89
 1453 0741 30       		.byte	0x30
 1454 0742 17       		.uleb128 0x17
 1455 0743 0E060000 		.4byte	.LASF92
 1456 0747 0A       		.byte	0xa
 1457 0748 6901     		.2byte	0x169
 1458 074a 89000000 		.4byte	0x89
 1459 074e 34       		.byte	0x34
 1460 074f 00       		.byte	0
 1461 0750 13       		.uleb128 0x13
 1462 0751 DF060000 		.4byte	0x6df
 1463 0755 60070000 		.4byte	0x760
 1464 0759 14       		.uleb128 0x14
 1465 075a FB030000 		.4byte	0x3fb
 1466 075e 03       		.byte	0x3
 1467 075f 00       		.byte	0
 1468 0760 1A       		.uleb128 0x1a
 1469 0761 8D040000 		.4byte	.LASF93
 1470 0765 0A       		.byte	0xa
 1471 0766 6A01     		.2byte	0x16a
 1472 0768 EB060000 		.4byte	0x6eb
 1473 076c 09       		.uleb128 0x9
ARM GAS  /tmp/ccf0DB4f.s 			page 27


 1474 076d 04       		.byte	0x4
 1475 076e 72070000 		.4byte	0x772
 1476 0772 10       		.uleb128 0x10
 1477 0773 60070000 		.4byte	0x760
 1478 0777 09       		.uleb128 0x9
 1479 0778 04       		.byte	0x4
 1480 0779 8B060000 		.4byte	0x68b
 1481 077d 13       		.uleb128 0x13
 1482 077e 7E020000 		.4byte	0x27e
 1483 0782 8D070000 		.4byte	0x78d
 1484 0786 14       		.uleb128 0x14
 1485 0787 FB030000 		.4byte	0x3fb
 1486 078b 36       		.byte	0x36
 1487 078c 00       		.byte	0
 1488 078d 08       		.uleb128 0x8
 1489 078e 04       		.byte	0x4
 1490 078f 0C       		.byte	0xc
 1491 0790 04       		.byte	0x4
 1492 0791 AE070000 		.4byte	0x7ae
 1493 0795 06       		.uleb128 0x6
 1494 0796 85000000 		.4byte	.LASF89
 1495 079a 0C       		.byte	0xc
 1496 079b 06       		.byte	0x6
 1497 079c 65000000 		.4byte	0x65
 1498 07a0 00       		.byte	0
 1499 07a1 06       		.uleb128 0x6
 1500 07a2 73010000 		.4byte	.LASF94
 1501 07a6 0C       		.byte	0xc
 1502 07a7 07       		.byte	0x7
 1503 07a8 65000000 		.4byte	0x65
 1504 07ac 02       		.byte	0x2
 1505 07ad 00       		.byte	0
 1506 07ae 04       		.uleb128 0x4
 1507 07af 0F040000 		.4byte	.LASF95
 1508 07b3 0C       		.byte	0xc
 1509 07b4 08       		.byte	0x8
 1510 07b5 8D070000 		.4byte	0x78d
 1511 07b9 1B       		.uleb128 0x1b
 1512 07ba DB020000 		.4byte	.LASF111
 1513 07be 01       		.byte	0x1
 1514 07bf 19       		.byte	0x19
 1515 07c0 01       		.byte	0x1
 1516 07c1 DC070000 		.4byte	0x7dc
 1517 07c5 1C       		.uleb128 0x1c
 1518 07c6 85000000 		.4byte	.LASF89
 1519 07ca 01       		.byte	0x1
 1520 07cb 19       		.byte	0x19
 1521 07cc 65000000 		.4byte	0x65
 1522 07d0 1C       		.uleb128 0x1c
 1523 07d1 73010000 		.4byte	.LASF94
 1524 07d5 01       		.byte	0x1
 1525 07d6 19       		.byte	0x19
 1526 07d7 65000000 		.4byte	0x65
 1527 07db 00       		.byte	0
 1528 07dc 1D       		.uleb128 0x1d
 1529 07dd B9070000 		.4byte	0x7b9
 1530 07e1 00000000 		.4byte	.LFB125
ARM GAS  /tmp/ccf0DB4f.s 			page 28


 1531 07e5 80000000 		.4byte	.LFE125-.LFB125
 1532 07e9 01       		.uleb128 0x1
 1533 07ea 9C       		.byte	0x9c
 1534 07eb A5080000 		.4byte	0x8a5
 1535 07ef 1E       		.uleb128 0x1e
 1536 07f0 C5070000 		.4byte	0x7c5
 1537 07f4 00000000 		.4byte	.LLST0
 1538 07f8 1E       		.uleb128 0x1e
 1539 07f9 D0070000 		.4byte	0x7d0
 1540 07fd 21000000 		.4byte	.LLST1
 1541 0801 1F       		.uleb128 0x1f
 1542 0802 10000000 		.4byte	.LVL4
 1543 0806 E80B0000 		.4byte	0xbe8
 1544 080a 1A080000 		.4byte	0x81a
 1545 080e 20       		.uleb128 0x20
 1546 080f 01       		.uleb128 0x1
 1547 0810 51       		.byte	0x51
 1548 0811 01       		.uleb128 0x1
 1549 0812 31       		.byte	0x31
 1550 0813 20       		.uleb128 0x20
 1551 0814 01       		.uleb128 0x1
 1552 0815 50       		.byte	0x50
 1553 0816 02       		.uleb128 0x2
 1554 0817 74       		.byte	0x74
 1555 0818 00       		.sleb128 0
 1556 0819 00       		.byte	0
 1557 081a 1F       		.uleb128 0x1f
 1558 081b 22000000 		.4byte	.LVL5
 1559 081f FE0B0000 		.4byte	0xbfe
 1560 0823 37080000 		.4byte	0x837
 1561 0827 20       		.uleb128 0x20
 1562 0828 01       		.uleb128 0x1
 1563 0829 51       		.byte	0x51
 1564 082a 05       		.uleb128 0x5
 1565 082b 03       		.byte	0x3
 1566 082c 00000000 		.4byte	.LANCHOR0
 1567 0830 20       		.uleb128 0x20
 1568 0831 01       		.uleb128 0x1
 1569 0832 50       		.byte	0x50
 1570 0833 02       		.uleb128 0x2
 1571 0834 74       		.byte	0x74
 1572 0835 00       		.sleb128 0
 1573 0836 00       		.byte	0
 1574 0837 1F       		.uleb128 0x1f
 1575 0838 40000000 		.4byte	.LVL7
 1576 083c 140C0000 		.4byte	0xc14
 1577 0840 50080000 		.4byte	0x850
 1578 0844 20       		.uleb128 0x20
 1579 0845 01       		.uleb128 0x1
 1580 0846 51       		.byte	0x51
 1581 0847 01       		.uleb128 0x1
 1582 0848 31       		.byte	0x31
 1583 0849 20       		.uleb128 0x20
 1584 084a 01       		.uleb128 0x1
 1585 084b 50       		.byte	0x50
 1586 084c 02       		.uleb128 0x2
 1587 084d 74       		.byte	0x74
ARM GAS  /tmp/ccf0DB4f.s 			page 29


 1588 084e 00       		.sleb128 0
 1589 084f 00       		.byte	0
 1590 0850 1F       		.uleb128 0x1f
 1591 0851 5A000000 		.4byte	.LVL9
 1592 0855 2F0C0000 		.4byte	0xc2f
 1593 0859 81080000 		.4byte	0x881
 1594 085d 20       		.uleb128 0x20
 1595 085e 01       		.uleb128 0x1
 1596 085f 50       		.byte	0x50
 1597 0860 1F       		.uleb128 0x1f
 1598 0861 75       		.byte	0x75
 1599 0862 00       		.sleb128 0
 1600 0863 0A       		.byte	0xa
 1601 0864 E803     		.2byte	0x3e8
 1602 0866 1E       		.byte	0x1e
 1603 0867 31       		.byte	0x31
 1604 0868 1C       		.byte	0x1c
 1605 0869 F7       		.byte	0xf7
 1606 086a 2C       		.uleb128 0x2c
 1607 086b F7       		.byte	0xf7
 1608 086c 25       		.uleb128 0x25
 1609 086d 0C       		.byte	0xc
 1610 086e D34D6210 		.4byte	0x10624dd3
 1611 0872 F7       		.byte	0xf7
 1612 0873 25       		.uleb128 0x25
 1613 0874 1E       		.byte	0x1e
 1614 0875 08       		.byte	0x8
 1615 0876 20       		.byte	0x20
 1616 0877 F7       		.byte	0xf7
 1617 0878 25       		.uleb128 0x25
 1618 0879 25       		.byte	0x25
 1619 087a F7       		.byte	0xf7
 1620 087b 2C       		.uleb128 0x2c
 1621 087c 36       		.byte	0x36
 1622 087d 25       		.byte	0x25
 1623 087e 23       		.byte	0x23
 1624 087f 01       		.uleb128 0x1
 1625 0880 00       		.byte	0
 1626 0881 1F       		.uleb128 0x1f
 1627 0882 60000000 		.4byte	.LVL10
 1628 0886 410C0000 		.4byte	0xc41
 1629 088a 95080000 		.4byte	0x895
 1630 088e 20       		.uleb128 0x20
 1631 088f 01       		.uleb128 0x1
 1632 0890 50       		.byte	0x50
 1633 0891 02       		.uleb128 0x2
 1634 0892 74       		.byte	0x74
 1635 0893 00       		.sleb128 0
 1636 0894 00       		.byte	0
 1637 0895 21       		.uleb128 0x21
 1638 0896 6A000000 		.4byte	.LVL11
 1639 089a 2F0C0000 		.4byte	0xc2f
 1640 089e 20       		.uleb128 0x20
 1641 089f 01       		.uleb128 0x1
 1642 08a0 50       		.byte	0x50
 1643 08a1 01       		.uleb128 0x1
 1644 08a2 44       		.byte	0x44
ARM GAS  /tmp/ccf0DB4f.s 			page 30


 1645 08a3 00       		.byte	0
 1646 08a4 00       		.byte	0
 1647 08a5 22       		.uleb128 0x22
 1648 08a6 13010000 		.4byte	.LASF128
 1649 08aa 01       		.byte	0x1
 1650 08ab 27       		.byte	0x27
 1651 08ac F6000000 		.4byte	0xf6
 1652 08b0 00000000 		.4byte	.LFB120
 1653 08b4 5C000000 		.4byte	.LFE120-.LFB120
 1654 08b8 01       		.uleb128 0x1
 1655 08b9 9C       		.byte	0x9c
 1656 08ba 50090000 		.4byte	0x950
 1657 08be 23       		.uleb128 0x23
 1658 08bf 61726700 		.ascii	"arg\000"
 1659 08c3 01       		.byte	0x1
 1660 08c4 27       		.byte	0x27
 1661 08c5 7C020000 		.4byte	0x27c
 1662 08c9 59000000 		.4byte	.LLST2
 1663 08cd 24       		.uleb128 0x24
 1664 08ce 06000000 		.4byte	.LBB9
 1665 08d2 46000000 		.4byte	.LBE9-.LBB9
 1666 08d6 25       		.uleb128 0x25
 1667 08d7 6900     		.ascii	"i\000"
 1668 08d9 01       		.byte	0x1
 1669 08da 2E       		.byte	0x2e
 1670 08db 33000000 		.4byte	0x33
 1671 08df 7A000000 		.4byte	.LLST3
 1672 08e3 26       		.uleb128 0x26
 1673 08e4 B9070000 		.4byte	0x7b9
 1674 08e8 34000000 		.4byte	.LBB10
 1675 08ec 00000000 		.4byte	.Ldebug_ranges0+0
 1676 08f0 01       		.byte	0x1
 1677 08f1 31       		.byte	0x31
 1678 08f2 12090000 		.4byte	0x912
 1679 08f6 1E       		.uleb128 0x1e
 1680 08f7 D0070000 		.4byte	0x7d0
 1681 08fb B1000000 		.4byte	.LLST4
 1682 08ff 1E       		.uleb128 0x1e
 1683 0900 C5070000 		.4byte	0x7c5
 1684 0904 CF000000 		.4byte	.LLST5
 1685 0908 27       		.uleb128 0x27
 1686 0909 42000000 		.4byte	.LVL21
 1687 090d DC070000 		.4byte	0x7dc
 1688 0911 00       		.byte	0
 1689 0912 27       		.uleb128 0x27
 1690 0913 0A000000 		.4byte	.LVL14
 1691 0917 520C0000 		.4byte	0xc52
 1692 091b 1F       		.uleb128 0x1f
 1693 091c 10000000 		.4byte	.LVL15
 1694 0920 5D0C0000 		.4byte	0xc5d
 1695 0924 2E090000 		.4byte	0x92e
 1696 0928 20       		.uleb128 0x20
 1697 0929 01       		.uleb128 0x1
 1698 092a 51       		.byte	0x51
 1699 092b 01       		.uleb128 0x1
 1700 092c 31       		.byte	0x31
 1701 092d 00       		.byte	0
ARM GAS  /tmp/ccf0DB4f.s 			page 31


 1702 092e 1F       		.uleb128 0x1f
 1703 092f 16000000 		.4byte	.LVL16
 1704 0933 730C0000 		.4byte	0xc73
 1705 0937 45090000 		.4byte	0x945
 1706 093b 20       		.uleb128 0x20
 1707 093c 01       		.uleb128 0x1
 1708 093d 50       		.byte	0x50
 1709 093e 05       		.uleb128 0x5
 1710 093f 03       		.byte	0x3
 1711 0940 00000000 		.4byte	.LANCHOR1
 1712 0944 00       		.byte	0
 1713 0945 27       		.uleb128 0x27
 1714 0946 4C000000 		.4byte	.LVL23
 1715 094a 840C0000 		.4byte	0xc84
 1716 094e 00       		.byte	0
 1717 094f 00       		.byte	0
 1718 0950 1D       		.uleb128 0x1d
 1719 0951 B9070000 		.4byte	0x7b9
 1720 0955 00000000 		.4byte	.LFB119
 1721 0959 0A000000 		.4byte	.LFE119-.LFB119
 1722 095d 01       		.uleb128 0x1
 1723 095e 9C       		.byte	0x9c
 1724 095f 7F090000 		.4byte	0x97f
 1725 0963 1E       		.uleb128 0x1e
 1726 0964 C5070000 		.4byte	0x7c5
 1727 0968 ED000000 		.4byte	.LLST6
 1728 096c 1E       		.uleb128 0x1e
 1729 096d D0070000 		.4byte	0x7d0
 1730 0971 0E010000 		.4byte	.LLST7
 1731 0975 28       		.uleb128 0x28
 1732 0976 0A000000 		.4byte	.LVL25
 1733 097a DC070000 		.4byte	0x7dc
 1734 097e 00       		.byte	0
 1735 097f 29       		.uleb128 0x29
 1736 0980 8F030000 		.4byte	.LASF96
 1737 0984 01       		.byte	0x1
 1738 0985 38       		.byte	0x38
 1739 0986 00000000 		.4byte	.LFB121
 1740 098a 38000000 		.4byte	.LFE121-.LFB121
 1741 098e 01       		.uleb128 0x1
 1742 098f 9C       		.byte	0x9c
 1743 0990 DB090000 		.4byte	0x9db
 1744 0994 1F       		.uleb128 0x1f
 1745 0995 0A000000 		.4byte	.LVL26
 1746 0999 8F0C0000 		.4byte	0xc8f
 1747 099d AB090000 		.4byte	0x9ab
 1748 09a1 20       		.uleb128 0x20
 1749 09a2 01       		.uleb128 0x1
 1750 09a3 50       		.byte	0x50
 1751 09a4 05       		.uleb128 0x5
 1752 09a5 03       		.byte	0x3
 1753 09a6 00000000 		.4byte	.LANCHOR1
 1754 09aa 00       		.byte	0
 1755 09ab 2A       		.uleb128 0x2a
 1756 09ac 1C000000 		.4byte	.LVL27
 1757 09b0 A00C0000 		.4byte	0xca0
 1758 09b4 20       		.uleb128 0x20
ARM GAS  /tmp/ccf0DB4f.s 			page 32


 1759 09b5 01       		.uleb128 0x1
 1760 09b6 53       		.byte	0x53
 1761 09b7 05       		.uleb128 0x5
 1762 09b8 03       		.byte	0x3
 1763 09b9 00000000 		.4byte	MusicThread
 1764 09bd 20       		.uleb128 0x20
 1765 09be 01       		.uleb128 0x1
 1766 09bf 52       		.byte	0x52
 1767 09c0 02       		.uleb128 0x2
 1768 09c1 08       		.byte	0x8
 1769 09c2 7F       		.byte	0x7f
 1770 09c3 20       		.uleb128 0x20
 1771 09c4 01       		.uleb128 0x1
 1772 09c5 51       		.byte	0x51
 1773 09c6 03       		.uleb128 0x3
 1774 09c7 0A       		.byte	0xa
 1775 09c8 B801     		.2byte	0x1b8
 1776 09ca 20       		.uleb128 0x20
 1777 09cb 01       		.uleb128 0x1
 1778 09cc 50       		.byte	0x50
 1779 09cd 05       		.uleb128 0x5
 1780 09ce 03       		.byte	0x3
 1781 09cf 00000000 		.4byte	.LANCHOR4
 1782 09d3 20       		.uleb128 0x20
 1783 09d4 02       		.uleb128 0x2
 1784 09d5 7D       		.byte	0x7d
 1785 09d6 00       		.sleb128 0
 1786 09d7 01       		.uleb128 0x1
 1787 09d8 30       		.byte	0x30
 1788 09d9 00       		.byte	0
 1789 09da 00       		.byte	0
 1790 09db 29       		.uleb128 0x29
 1791 09dc 61050000 		.4byte	.LASF97
 1792 09e0 01       		.byte	0x1
 1793 09e1 3E       		.byte	0x3e
 1794 09e2 00000000 		.4byte	.LFB122
 1795 09e6 2C000000 		.4byte	.LFE122-.LFB122
 1796 09ea 01       		.uleb128 0x1
 1797 09eb 9C       		.byte	0x9c
 1798 09ec 5D0A0000 		.4byte	0xa5d
 1799 09f0 2B       		.uleb128 0x2b
 1800 09f1 19040000 		.4byte	.LASF98
 1801 09f5 01       		.byte	0x1
 1802 09f6 3E       		.byte	0x3e
 1803 09f7 AE070000 		.4byte	0x7ae
 1804 09fb 02       		.uleb128 0x2
 1805 09fc 91       		.byte	0x91
 1806 09fd 74       		.sleb128 -12
 1807 09fe 2C       		.uleb128 0x2c
 1808 09ff B9070000 		.4byte	0x7b9
 1809 0a03 14000000 		.4byte	.LBB14
 1810 0a07 08000000 		.4byte	.LBE14-.LBB14
 1811 0a0b 01       		.byte	0x1
 1812 0a0c 41       		.byte	0x41
 1813 0a0d 3C0A0000 		.4byte	0xa3c
 1814 0a11 2D       		.uleb128 0x2d
 1815 0a12 D0070000 		.4byte	0x7d0
ARM GAS  /tmp/ccf0DB4f.s 			page 33


 1816 0a16 02       		.uleb128 0x2
 1817 0a17 91       		.byte	0x91
 1818 0a18 76       		.sleb128 -10
 1819 0a19 2D       		.uleb128 0x2d
 1820 0a1a C5070000 		.4byte	0x7c5
 1821 0a1e 02       		.uleb128 0x2
 1822 0a1f 91       		.byte	0x91
 1823 0a20 74       		.sleb128 -12
 1824 0a21 2A       		.uleb128 0x2a
 1825 0a22 1C000000 		.4byte	.LVL30
 1826 0a26 DC070000 		.4byte	0x7dc
 1827 0a2a 20       		.uleb128 0x20
 1828 0a2b 01       		.uleb128 0x1
 1829 0a2c 51       		.byte	0x51
 1830 0a2d 04       		.uleb128 0x4
 1831 0a2e 91       		.byte	0x91
 1832 0a2f 76       		.sleb128 -10
 1833 0a30 94       		.byte	0x94
 1834 0a31 02       		.byte	0x2
 1835 0a32 20       		.uleb128 0x20
 1836 0a33 01       		.uleb128 0x1
 1837 0a34 50       		.byte	0x50
 1838 0a35 04       		.uleb128 0x4
 1839 0a36 91       		.byte	0x91
 1840 0a37 74       		.sleb128 -12
 1841 0a38 94       		.byte	0x94
 1842 0a39 02       		.byte	0x2
 1843 0a3a 00       		.byte	0
 1844 0a3b 00       		.byte	0
 1845 0a3c 1F       		.uleb128 0x1f
 1846 0a3d 0C000000 		.4byte	.LVL28
 1847 0a41 730C0000 		.4byte	0xc73
 1848 0a45 530A0000 		.4byte	0xa53
 1849 0a49 20       		.uleb128 0x20
 1850 0a4a 01       		.uleb128 0x1
 1851 0a4b 50       		.byte	0x50
 1852 0a4c 05       		.uleb128 0x5
 1853 0a4d 03       		.byte	0x3
 1854 0a4e 00000000 		.4byte	.LANCHOR1
 1855 0a52 00       		.byte	0
 1856 0a53 28       		.uleb128 0x28
 1857 0a54 26000000 		.4byte	.LVL31
 1858 0a58 840C0000 		.4byte	0xc84
 1859 0a5c 00       		.byte	0
 1860 0a5d 29       		.uleb128 0x29
 1861 0a5e 8D050000 		.4byte	.LASF99
 1862 0a62 01       		.byte	0x1
 1863 0a63 45       		.byte	0x45
 1864 0a64 00000000 		.4byte	.LFB123
 1865 0a68 40000000 		.4byte	.LFE123-.LFB123
 1866 0a6c 01       		.uleb128 0x1
 1867 0a6d 9C       		.byte	0x9c
 1868 0a6e ED0A0000 		.4byte	0xaed
 1869 0a72 2E       		.uleb128 0x2e
 1870 0a73 C5050000 		.4byte	.LASF100
 1871 0a77 01       		.byte	0x1
 1872 0a78 45       		.byte	0x45
ARM GAS  /tmp/ccf0DB4f.s 			page 34


 1873 0a79 ED0A0000 		.4byte	0xaed
 1874 0a7d 2F010000 		.4byte	.LLST8
 1875 0a81 2E       		.uleb128 0x2e
 1876 0a82 D7050000 		.4byte	.LASF101
 1877 0a86 01       		.byte	0x1
 1878 0a87 45       		.byte	0x45
 1879 0a88 33000000 		.4byte	0x33
 1880 0a8c 5B010000 		.4byte	.LLST9
 1881 0a90 25       		.uleb128 0x25
 1882 0a91 6900     		.ascii	"i\000"
 1883 0a93 01       		.byte	0x1
 1884 0a94 48       		.byte	0x48
 1885 0a95 33000000 		.4byte	0x33
 1886 0a99 87010000 		.4byte	.LLST10
 1887 0a9d 26       		.uleb128 0x26
 1888 0a9e B9070000 		.4byte	0x7b9
 1889 0aa2 20000000 		.4byte	.LBB16
 1890 0aa6 18000000 		.4byte	.Ldebug_ranges0+0x18
 1891 0aaa 01       		.byte	0x1
 1892 0aab 4B       		.byte	0x4b
 1893 0aac CC0A0000 		.4byte	0xacc
 1894 0ab0 1E       		.uleb128 0x1e
 1895 0ab1 D0070000 		.4byte	0x7d0
 1896 0ab5 BE010000 		.4byte	.LLST11
 1897 0ab9 1E       		.uleb128 0x1e
 1898 0aba C5070000 		.4byte	0x7c5
 1899 0abe DE010000 		.4byte	.LLST12
 1900 0ac2 27       		.uleb128 0x27
 1901 0ac3 30000000 		.4byte	.LVL40
 1902 0ac7 DC070000 		.4byte	0x7dc
 1903 0acb 00       		.byte	0
 1904 0acc 1F       		.uleb128 0x1f
 1905 0acd 0C000000 		.4byte	.LVL34
 1906 0ad1 730C0000 		.4byte	0xc73
 1907 0ad5 E30A0000 		.4byte	0xae3
 1908 0ad9 20       		.uleb128 0x20
 1909 0ada 01       		.uleb128 0x1
 1910 0adb 50       		.byte	0x50
 1911 0adc 05       		.uleb128 0x5
 1912 0add 03       		.byte	0x3
 1913 0ade 00000000 		.4byte	.LANCHOR1
 1914 0ae2 00       		.byte	0
 1915 0ae3 28       		.uleb128 0x28
 1916 0ae4 3C000000 		.4byte	.LVL43
 1917 0ae8 840C0000 		.4byte	0xc84
 1918 0aec 00       		.byte	0
 1919 0aed 09       		.uleb128 0x9
 1920 0aee 04       		.byte	0x4
 1921 0aef AE070000 		.4byte	0x7ae
 1922 0af3 29       		.uleb128 0x29
 1923 0af4 2C050000 		.4byte	.LASF102
 1924 0af8 01       		.byte	0x1
 1925 0af9 50       		.byte	0x50
 1926 0afa 00000000 		.4byte	.LFB124
 1927 0afe 3C000000 		.4byte	.LFE124-.LFB124
 1928 0b02 01       		.uleb128 0x1
 1929 0b03 9C       		.byte	0x9c
ARM GAS  /tmp/ccf0DB4f.s 			page 35


 1930 0b04 5A0B0000 		.4byte	0xb5a
 1931 0b08 2E       		.uleb128 0x2e
 1932 0b09 C5050000 		.4byte	.LASF100
 1933 0b0d 01       		.byte	0x1
 1934 0b0e 50       		.byte	0x50
 1935 0b0f ED0A0000 		.4byte	0xaed
 1936 0b13 FE010000 		.4byte	.LLST13
 1937 0b17 2E       		.uleb128 0x2e
 1938 0b18 D7050000 		.4byte	.LASF101
 1939 0b1c 01       		.byte	0x1
 1940 0b1d 50       		.byte	0x50
 1941 0b1e 33000000 		.4byte	0x33
 1942 0b22 2A020000 		.4byte	.LLST14
 1943 0b26 1F       		.uleb128 0x1f
 1944 0b27 0C000000 		.4byte	.LVL46
 1945 0b2b CA0C0000 		.4byte	0xcca
 1946 0b2f 3D0B0000 		.4byte	0xb3d
 1947 0b33 20       		.uleb128 0x20
 1948 0b34 01       		.uleb128 0x1
 1949 0b35 50       		.byte	0x50
 1950 0b36 05       		.uleb128 0x5
 1951 0b37 03       		.byte	0x3
 1952 0b38 00000000 		.4byte	.LANCHOR1
 1953 0b3c 00       		.byte	0
 1954 0b3d 1F       		.uleb128 0x1f
 1955 0b3e 22000000 		.4byte	.LVL48
 1956 0b42 DF0C0000 		.4byte	0xcdf
 1957 0b46 500B0000 		.4byte	0xb50
 1958 0b4a 20       		.uleb128 0x20
 1959 0b4b 01       		.uleb128 0x1
 1960 0b4c 51       		.byte	0x51
 1961 0b4d 01       		.uleb128 0x1
 1962 0b4e 31       		.byte	0x31
 1963 0b4f 00       		.byte	0
 1964 0b50 28       		.uleb128 0x28
 1965 0b51 2A000000 		.4byte	.LVL50
 1966 0b55 840C0000 		.4byte	0xc84
 1967 0b59 00       		.byte	0
 1968 0b5a 2F       		.uleb128 0x2f
 1969 0b5b AB050000 		.4byte	.LASF103
 1970 0b5f 01       		.byte	0x1
 1971 0b60 0A       		.byte	0xa
 1972 0b61 60070000 		.4byte	0x760
 1973 0b65 05       		.uleb128 0x5
 1974 0b66 03       		.byte	0x3
 1975 0b67 00000000 		.4byte	_pwmcfg2
 1976 0b6b 2F       		.uleb128 0x2f
 1977 0b6c A0010000 		.4byte	.LASF104
 1978 0b70 01       		.byte	0x1
 1979 0b71 26       		.byte	0x26
 1980 0b72 7D070000 		.4byte	0x77d
 1981 0b76 05       		.uleb128 0x5
 1982 0b77 03       		.byte	0x3
 1983 0b78 00000000 		.4byte	waMusicThread
 1984 0b7c 30       		.uleb128 0x30
 1985 0b7d 73000000 		.4byte	.LASF105
 1986 0b81 0D       		.byte	0xd
ARM GAS  /tmp/ccf0DB4f.s 			page 36


 1987 0b82 9806     		.2byte	0x698
 1988 0b84 C6040000 		.4byte	0x4c6
 1989 0b88 30       		.uleb128 0x30
 1990 0b89 64010000 		.4byte	.LASF106
 1991 0b8d 0A       		.byte	0xa
 1992 0b8e B701     		.2byte	0x1b7
 1993 0b90 F1040000 		.4byte	0x4f1
 1994 0b94 31       		.uleb128 0x31
 1995 0b95 F3050000 		.4byte	.LASF107
 1996 0b99 01       		.byte	0x1
 1997 0b9a 05       		.byte	0x5
 1998 0b9b 3E040000 		.4byte	0x43e
 1999 0b9f 05       		.uleb128 0x5
 2000 0ba0 03       		.byte	0x3
 2001 0ba1 00000000 		.4byte	_buzzerMtx
 2002 0ba5 31       		.uleb128 0x31
 2003 0ba6 C9020000 		.4byte	.LASF108
 2004 0baa 01       		.byte	0x1
 2005 0bab 06       		.byte	0x6
 2006 0bac 40020000 		.4byte	0x240
 2007 0bb0 05       		.uleb128 0x5
 2008 0bb1 03       		.byte	0x3
 2009 0bb2 00000000 		.4byte	_asyncMusicThread
 2010 0bb6 31       		.uleb128 0x31
 2011 0bb7 4B050000 		.4byte	.LASF109
 2012 0bbb 01       		.byte	0x1
 2013 0bbc 07       		.byte	0x7
 2014 0bbd C70B0000 		.4byte	0xbc7
 2015 0bc1 05       		.uleb128 0x5
 2016 0bc2 03       		.byte	0x3
 2017 0bc3 00000000 		.4byte	_asyncNotes
 2018 0bc7 09       		.uleb128 0x9
 2019 0bc8 04       		.byte	0x4
 2020 0bc9 CD0B0000 		.4byte	0xbcd
 2021 0bcd 0D       		.uleb128 0xd
 2022 0bce AE070000 		.4byte	0x7ae
 2023 0bd2 31       		.uleb128 0x31
 2024 0bd3 63030000 		.4byte	.LASF110
 2025 0bd7 01       		.byte	0x1
 2026 0bd8 08       		.byte	0x8
 2027 0bd9 E30B0000 		.4byte	0xbe3
 2028 0bdd 05       		.uleb128 0x5
 2029 0bde 03       		.byte	0x3
 2030 0bdf 00000000 		.4byte	_asyncNumNotes
 2031 0be3 0D       		.uleb128 0xd
 2032 0be4 33000000 		.4byte	0x33
 2033 0be8 32       		.uleb128 0x32
 2034 0be9 15030000 		.4byte	.LASF112
 2035 0bed 09       		.byte	0x9
 2036 0bee FA       		.byte	0xfa
 2037 0bef FE0B0000 		.4byte	0xbfe
 2038 0bf3 12       		.uleb128 0x12
 2039 0bf4 67050000 		.4byte	0x567
 2040 0bf8 12       		.uleb128 0x12
 2041 0bf9 A3060000 		.4byte	0x6a3
 2042 0bfd 00       		.byte	0
 2043 0bfe 32       		.uleb128 0x32
ARM GAS  /tmp/ccf0DB4f.s 			page 37


 2044 0bff C1000000 		.4byte	.LASF113
 2045 0c03 09       		.byte	0x9
 2046 0c04 F4       		.byte	0xf4
 2047 0c05 140C0000 		.4byte	0xc14
 2048 0c09 12       		.uleb128 0x12
 2049 0c0a 67050000 		.4byte	0x567
 2050 0c0e 12       		.uleb128 0x12
 2051 0c0f 6C070000 		.4byte	0x76c
 2052 0c13 00       		.byte	0
 2053 0c14 32       		.uleb128 0x32
 2054 0c15 B4050000 		.4byte	.LASF114
 2055 0c19 09       		.byte	0x9
 2056 0c1a F7       		.byte	0xf7
 2057 0c1b 2F0C0000 		.4byte	0xc2f
 2058 0c1f 12       		.uleb128 0x12
 2059 0c20 67050000 		.4byte	0x567
 2060 0c24 12       		.uleb128 0x12
 2061 0c25 A3060000 		.4byte	0x6a3
 2062 0c29 12       		.uleb128 0x12
 2063 0c2a AF060000 		.4byte	0x6af
 2064 0c2e 00       		.byte	0
 2065 0c2f 33       		.uleb128 0x33
 2066 0c30 79040000 		.4byte	.LASF115
 2067 0c34 06       		.byte	0x6
 2068 0c35 7501     		.2byte	0x175
 2069 0c37 410C0000 		.4byte	0xc41
 2070 0c3b 12       		.uleb128 0x12
 2071 0c3c 0C010000 		.4byte	0x10c
 2072 0c40 00       		.byte	0
 2073 0c41 32       		.uleb128 0x32
 2074 0c42 9B030000 		.4byte	.LASF116
 2075 0c46 09       		.byte	0x9
 2076 0c47 F5       		.byte	0xf5
 2077 0c48 520C0000 		.4byte	0xc52
 2078 0c4c 12       		.uleb128 0x12
 2079 0c4d 67050000 		.4byte	0x567
 2080 0c51 00       		.byte	0
 2081 0c52 34       		.uleb128 0x34
 2082 0c53 57050000 		.4byte	.LASF119
 2083 0c57 0E       		.byte	0xe
 2084 0c58 52       		.byte	0x52
 2085 0c59 40020000 		.4byte	0x240
 2086 0c5d 32       		.uleb128 0x32
 2087 0c5e 61040000 		.4byte	.LASF117
 2088 0c62 0E       		.byte	0xe
 2089 0c63 53       		.byte	0x53
 2090 0c64 730C0000 		.4byte	0xc73
 2091 0c68 12       		.uleb128 0x12
 2092 0c69 40020000 		.4byte	0x240
 2093 0c6d 12       		.uleb128 0x12
 2094 0c6e F6000000 		.4byte	0xf6
 2095 0c72 00       		.byte	0
 2096 0c73 32       		.uleb128 0x32
 2097 0c74 AC030000 		.4byte	.LASF118
 2098 0c78 08       		.byte	0x8
 2099 0c79 39       		.byte	0x39
 2100 0c7a 840C0000 		.4byte	0xc84
ARM GAS  /tmp/ccf0DB4f.s 			page 38


 2101 0c7e 12       		.uleb128 0x12
 2102 0c7f 90040000 		.4byte	0x490
 2103 0c83 00       		.byte	0
 2104 0c84 34       		.uleb128 0x34
 2105 0c85 D6000000 		.4byte	.LASF120
 2106 0c89 08       		.byte	0x8
 2107 0c8a 3D       		.byte	0x3d
 2108 0c8b 90040000 		.4byte	0x490
 2109 0c8f 32       		.uleb128 0x32
 2110 0c90 22050000 		.4byte	.LASF121
 2111 0c94 08       		.byte	0x8
 2112 0c95 38       		.byte	0x38
 2113 0c96 A00C0000 		.4byte	0xca0
 2114 0c9a 12       		.uleb128 0x12
 2115 0c9b 90040000 		.4byte	0x490
 2116 0c9f 00       		.byte	0
 2117 0ca0 35       		.uleb128 0x35
 2118 0ca1 7D030000 		.4byte	.LASF122
 2119 0ca5 06       		.byte	0x6
 2120 0ca6 7001     		.2byte	0x170
 2121 0ca8 40020000 		.4byte	0x240
 2122 0cac CA0C0000 		.4byte	0xcca
 2123 0cb0 12       		.uleb128 0x12
 2124 0cb1 7C020000 		.4byte	0x27c
 2125 0cb5 12       		.uleb128 0x12
 2126 0cb6 3A000000 		.4byte	0x3a
 2127 0cba 12       		.uleb128 0x12
 2128 0cbb EB000000 		.4byte	0xeb
 2129 0cbf 12       		.uleb128 0x12
 2130 0cc0 96040000 		.4byte	0x496
 2131 0cc4 12       		.uleb128 0x12
 2132 0cc5 7C020000 		.4byte	0x27c
 2133 0cc9 00       		.byte	0
 2134 0cca 36       		.uleb128 0x36
 2135 0ccb 50030000 		.4byte	.LASF123
 2136 0ccf 08       		.byte	0x8
 2137 0cd0 3B       		.byte	0x3b
 2138 0cd1 AD000000 		.4byte	0xad
 2139 0cd5 DF0C0000 		.4byte	0xcdf
 2140 0cd9 12       		.uleb128 0x12
 2141 0cda 90040000 		.4byte	0x490
 2142 0cde 00       		.byte	0
 2143 0cdf 37       		.uleb128 0x37
 2144 0ce0 37010000 		.4byte	.LASF124
 2145 0ce4 0E       		.byte	0xe
 2146 0ce5 51       		.byte	0x51
 2147 0ce6 F6000000 		.4byte	0xf6
 2148 0cea 12       		.uleb128 0x12
 2149 0ceb 40020000 		.4byte	0x240
 2150 0cef 12       		.uleb128 0x12
 2151 0cf0 F6000000 		.4byte	0xf6
 2152 0cf4 00       		.byte	0
 2153 0cf5 00       		.byte	0
 2154              		.section	.debug_abbrev,"",%progbits
 2155              	.Ldebug_abbrev0:
 2156 0000 01       		.uleb128 0x1
 2157 0001 11       		.uleb128 0x11
ARM GAS  /tmp/ccf0DB4f.s 			page 39


 2158 0002 01       		.byte	0x1
 2159 0003 25       		.uleb128 0x25
 2160 0004 0E       		.uleb128 0xe
 2161 0005 13       		.uleb128 0x13
 2162 0006 0B       		.uleb128 0xb
 2163 0007 03       		.uleb128 0x3
 2164 0008 0E       		.uleb128 0xe
 2165 0009 1B       		.uleb128 0x1b
 2166 000a 0E       		.uleb128 0xe
 2167 000b 55       		.uleb128 0x55
 2168 000c 17       		.uleb128 0x17
 2169 000d 11       		.uleb128 0x11
 2170 000e 01       		.uleb128 0x1
 2171 000f 10       		.uleb128 0x10
 2172 0010 17       		.uleb128 0x17
 2173 0011 00       		.byte	0
 2174 0012 00       		.byte	0
 2175 0013 02       		.uleb128 0x2
 2176 0014 24       		.uleb128 0x24
 2177 0015 00       		.byte	0
 2178 0016 0B       		.uleb128 0xb
 2179 0017 0B       		.uleb128 0xb
 2180 0018 3E       		.uleb128 0x3e
 2181 0019 0B       		.uleb128 0xb
 2182 001a 03       		.uleb128 0x3
 2183 001b 0E       		.uleb128 0xe
 2184 001c 00       		.byte	0
 2185 001d 00       		.byte	0
 2186 001e 03       		.uleb128 0x3
 2187 001f 24       		.uleb128 0x24
 2188 0020 00       		.byte	0
 2189 0021 0B       		.uleb128 0xb
 2190 0022 0B       		.uleb128 0xb
 2191 0023 3E       		.uleb128 0x3e
 2192 0024 0B       		.uleb128 0xb
 2193 0025 03       		.uleb128 0x3
 2194 0026 08       		.uleb128 0x8
 2195 0027 00       		.byte	0
 2196 0028 00       		.byte	0
 2197 0029 04       		.uleb128 0x4
 2198 002a 16       		.uleb128 0x16
 2199 002b 00       		.byte	0
 2200 002c 03       		.uleb128 0x3
 2201 002d 0E       		.uleb128 0xe
 2202 002e 3A       		.uleb128 0x3a
 2203 002f 0B       		.uleb128 0xb
 2204 0030 3B       		.uleb128 0x3b
 2205 0031 0B       		.uleb128 0xb
 2206 0032 49       		.uleb128 0x49
 2207 0033 13       		.uleb128 0x13
 2208 0034 00       		.byte	0
 2209 0035 00       		.byte	0
 2210 0036 05       		.uleb128 0x5
 2211 0037 13       		.uleb128 0x13
 2212 0038 01       		.byte	0x1
 2213 0039 03       		.uleb128 0x3
 2214 003a 0E       		.uleb128 0xe
ARM GAS  /tmp/ccf0DB4f.s 			page 40


 2215 003b 0B       		.uleb128 0xb
 2216 003c 0B       		.uleb128 0xb
 2217 003d 3A       		.uleb128 0x3a
 2218 003e 0B       		.uleb128 0xb
 2219 003f 3B       		.uleb128 0x3b
 2220 0040 0B       		.uleb128 0xb
 2221 0041 01       		.uleb128 0x1
 2222 0042 13       		.uleb128 0x13
 2223 0043 00       		.byte	0
 2224 0044 00       		.byte	0
 2225 0045 06       		.uleb128 0x6
 2226 0046 0D       		.uleb128 0xd
 2227 0047 00       		.byte	0
 2228 0048 03       		.uleb128 0x3
 2229 0049 0E       		.uleb128 0xe
 2230 004a 3A       		.uleb128 0x3a
 2231 004b 0B       		.uleb128 0xb
 2232 004c 3B       		.uleb128 0x3b
 2233 004d 0B       		.uleb128 0xb
 2234 004e 49       		.uleb128 0x49
 2235 004f 13       		.uleb128 0x13
 2236 0050 38       		.uleb128 0x38
 2237 0051 0B       		.uleb128 0xb
 2238 0052 00       		.byte	0
 2239 0053 00       		.byte	0
 2240 0054 07       		.uleb128 0x7
 2241 0055 0D       		.uleb128 0xd
 2242 0056 00       		.byte	0
 2243 0057 03       		.uleb128 0x3
 2244 0058 08       		.uleb128 0x8
 2245 0059 3A       		.uleb128 0x3a
 2246 005a 0B       		.uleb128 0xb
 2247 005b 3B       		.uleb128 0x3b
 2248 005c 0B       		.uleb128 0xb
 2249 005d 49       		.uleb128 0x49
 2250 005e 13       		.uleb128 0x13
 2251 005f 38       		.uleb128 0x38
 2252 0060 0B       		.uleb128 0xb
 2253 0061 00       		.byte	0
 2254 0062 00       		.byte	0
 2255 0063 08       		.uleb128 0x8
 2256 0064 13       		.uleb128 0x13
 2257 0065 01       		.byte	0x1
 2258 0066 0B       		.uleb128 0xb
 2259 0067 0B       		.uleb128 0xb
 2260 0068 3A       		.uleb128 0x3a
 2261 0069 0B       		.uleb128 0xb
 2262 006a 3B       		.uleb128 0x3b
 2263 006b 0B       		.uleb128 0xb
 2264 006c 01       		.uleb128 0x1
 2265 006d 13       		.uleb128 0x13
 2266 006e 00       		.byte	0
 2267 006f 00       		.byte	0
 2268 0070 09       		.uleb128 0x9
 2269 0071 0F       		.uleb128 0xf
 2270 0072 00       		.byte	0
 2271 0073 0B       		.uleb128 0xb
ARM GAS  /tmp/ccf0DB4f.s 			page 41


 2272 0074 0B       		.uleb128 0xb
 2273 0075 49       		.uleb128 0x49
 2274 0076 13       		.uleb128 0x13
 2275 0077 00       		.byte	0
 2276 0078 00       		.byte	0
 2277 0079 0A       		.uleb128 0xa
 2278 007a 0F       		.uleb128 0xf
 2279 007b 00       		.byte	0
 2280 007c 0B       		.uleb128 0xb
 2281 007d 0B       		.uleb128 0xb
 2282 007e 00       		.byte	0
 2283 007f 00       		.byte	0
 2284 0080 0B       		.uleb128 0xb
 2285 0081 13       		.uleb128 0x13
 2286 0082 01       		.byte	0x1
 2287 0083 03       		.uleb128 0x3
 2288 0084 0E       		.uleb128 0xe
 2289 0085 0B       		.uleb128 0xb
 2290 0086 0B       		.uleb128 0xb
 2291 0087 3A       		.uleb128 0x3a
 2292 0088 0B       		.uleb128 0xb
 2293 0089 3B       		.uleb128 0x3b
 2294 008a 05       		.uleb128 0x5
 2295 008b 01       		.uleb128 0x1
 2296 008c 13       		.uleb128 0x13
 2297 008d 00       		.byte	0
 2298 008e 00       		.byte	0
 2299 008f 0C       		.uleb128 0xc
 2300 0090 0D       		.uleb128 0xd
 2301 0091 00       		.byte	0
 2302 0092 03       		.uleb128 0x3
 2303 0093 08       		.uleb128 0x8
 2304 0094 3A       		.uleb128 0x3a
 2305 0095 0B       		.uleb128 0xb
 2306 0096 3B       		.uleb128 0x3b
 2307 0097 05       		.uleb128 0x5
 2308 0098 49       		.uleb128 0x49
 2309 0099 13       		.uleb128 0x13
 2310 009a 38       		.uleb128 0x38
 2311 009b 0B       		.uleb128 0xb
 2312 009c 00       		.byte	0
 2313 009d 00       		.byte	0
 2314 009e 0D       		.uleb128 0xd
 2315 009f 35       		.uleb128 0x35
 2316 00a0 00       		.byte	0
 2317 00a1 49       		.uleb128 0x49
 2318 00a2 13       		.uleb128 0x13
 2319 00a3 00       		.byte	0
 2320 00a4 00       		.byte	0
 2321 00a5 0E       		.uleb128 0xe
 2322 00a6 17       		.uleb128 0x17
 2323 00a7 01       		.byte	0x1
 2324 00a8 0B       		.uleb128 0xb
 2325 00a9 0B       		.uleb128 0xb
 2326 00aa 3A       		.uleb128 0x3a
 2327 00ab 0B       		.uleb128 0xb
 2328 00ac 3B       		.uleb128 0x3b
ARM GAS  /tmp/ccf0DB4f.s 			page 42


 2329 00ad 0B       		.uleb128 0xb
 2330 00ae 01       		.uleb128 0x1
 2331 00af 13       		.uleb128 0x13
 2332 00b0 00       		.byte	0
 2333 00b1 00       		.byte	0
 2334 00b2 0F       		.uleb128 0xf
 2335 00b3 0D       		.uleb128 0xd
 2336 00b4 00       		.byte	0
 2337 00b5 03       		.uleb128 0x3
 2338 00b6 0E       		.uleb128 0xe
 2339 00b7 3A       		.uleb128 0x3a
 2340 00b8 0B       		.uleb128 0xb
 2341 00b9 3B       		.uleb128 0x3b
 2342 00ba 0B       		.uleb128 0xb
 2343 00bb 49       		.uleb128 0x49
 2344 00bc 13       		.uleb128 0x13
 2345 00bd 00       		.byte	0
 2346 00be 00       		.byte	0
 2347 00bf 10       		.uleb128 0x10
 2348 00c0 26       		.uleb128 0x26
 2349 00c1 00       		.byte	0
 2350 00c2 49       		.uleb128 0x49
 2351 00c3 13       		.uleb128 0x13
 2352 00c4 00       		.byte	0
 2353 00c5 00       		.byte	0
 2354 00c6 11       		.uleb128 0x11
 2355 00c7 15       		.uleb128 0x15
 2356 00c8 01       		.byte	0x1
 2357 00c9 27       		.uleb128 0x27
 2358 00ca 19       		.uleb128 0x19
 2359 00cb 49       		.uleb128 0x49
 2360 00cc 13       		.uleb128 0x13
 2361 00cd 01       		.uleb128 0x1
 2362 00ce 13       		.uleb128 0x13
 2363 00cf 00       		.byte	0
 2364 00d0 00       		.byte	0
 2365 00d1 12       		.uleb128 0x12
 2366 00d2 05       		.uleb128 0x5
 2367 00d3 00       		.byte	0
 2368 00d4 49       		.uleb128 0x49
 2369 00d5 13       		.uleb128 0x13
 2370 00d6 00       		.byte	0
 2371 00d7 00       		.byte	0
 2372 00d8 13       		.uleb128 0x13
 2373 00d9 01       		.uleb128 0x1
 2374 00da 01       		.byte	0x1
 2375 00db 49       		.uleb128 0x49
 2376 00dc 13       		.uleb128 0x13
 2377 00dd 01       		.uleb128 0x1
 2378 00de 13       		.uleb128 0x13
 2379 00df 00       		.byte	0
 2380 00e0 00       		.byte	0
 2381 00e1 14       		.uleb128 0x14
 2382 00e2 21       		.uleb128 0x21
 2383 00e3 00       		.byte	0
 2384 00e4 49       		.uleb128 0x49
 2385 00e5 13       		.uleb128 0x13
ARM GAS  /tmp/ccf0DB4f.s 			page 43


 2386 00e6 2F       		.uleb128 0x2f
 2387 00e7 0B       		.uleb128 0xb
 2388 00e8 00       		.byte	0
 2389 00e9 00       		.byte	0
 2390 00ea 15       		.uleb128 0x15
 2391 00eb 04       		.uleb128 0x4
 2392 00ec 01       		.byte	0x1
 2393 00ed 0B       		.uleb128 0xb
 2394 00ee 0B       		.uleb128 0xb
 2395 00ef 3A       		.uleb128 0x3a
 2396 00f0 0B       		.uleb128 0xb
 2397 00f1 3B       		.uleb128 0x3b
 2398 00f2 0B       		.uleb128 0xb
 2399 00f3 01       		.uleb128 0x1
 2400 00f4 13       		.uleb128 0x13
 2401 00f5 00       		.byte	0
 2402 00f6 00       		.byte	0
 2403 00f7 16       		.uleb128 0x16
 2404 00f8 28       		.uleb128 0x28
 2405 00f9 00       		.byte	0
 2406 00fa 03       		.uleb128 0x3
 2407 00fb 0E       		.uleb128 0xe
 2408 00fc 1C       		.uleb128 0x1c
 2409 00fd 0D       		.uleb128 0xd
 2410 00fe 00       		.byte	0
 2411 00ff 00       		.byte	0
 2412 0100 17       		.uleb128 0x17
 2413 0101 0D       		.uleb128 0xd
 2414 0102 00       		.byte	0
 2415 0103 03       		.uleb128 0x3
 2416 0104 0E       		.uleb128 0xe
 2417 0105 3A       		.uleb128 0x3a
 2418 0106 0B       		.uleb128 0xb
 2419 0107 3B       		.uleb128 0x3b
 2420 0108 05       		.uleb128 0x5
 2421 0109 49       		.uleb128 0x49
 2422 010a 13       		.uleb128 0x13
 2423 010b 38       		.uleb128 0x38
 2424 010c 0B       		.uleb128 0xb
 2425 010d 00       		.byte	0
 2426 010e 00       		.byte	0
 2427 010f 18       		.uleb128 0x18
 2428 0110 15       		.uleb128 0x15
 2429 0111 01       		.byte	0x1
 2430 0112 27       		.uleb128 0x27
 2431 0113 19       		.uleb128 0x19
 2432 0114 01       		.uleb128 0x1
 2433 0115 13       		.uleb128 0x13
 2434 0116 00       		.byte	0
 2435 0117 00       		.byte	0
 2436 0118 19       		.uleb128 0x19
 2437 0119 13       		.uleb128 0x13
 2438 011a 01       		.byte	0x1
 2439 011b 0B       		.uleb128 0xb
 2440 011c 0B       		.uleb128 0xb
 2441 011d 3A       		.uleb128 0x3a
 2442 011e 0B       		.uleb128 0xb
ARM GAS  /tmp/ccf0DB4f.s 			page 44


 2443 011f 3B       		.uleb128 0x3b
 2444 0120 05       		.uleb128 0x5
 2445 0121 01       		.uleb128 0x1
 2446 0122 13       		.uleb128 0x13
 2447 0123 00       		.byte	0
 2448 0124 00       		.byte	0
 2449 0125 1A       		.uleb128 0x1a
 2450 0126 16       		.uleb128 0x16
 2451 0127 00       		.byte	0
 2452 0128 03       		.uleb128 0x3
 2453 0129 0E       		.uleb128 0xe
 2454 012a 3A       		.uleb128 0x3a
 2455 012b 0B       		.uleb128 0xb
 2456 012c 3B       		.uleb128 0x3b
 2457 012d 05       		.uleb128 0x5
 2458 012e 49       		.uleb128 0x49
 2459 012f 13       		.uleb128 0x13
 2460 0130 00       		.byte	0
 2461 0131 00       		.byte	0
 2462 0132 1B       		.uleb128 0x1b
 2463 0133 2E       		.uleb128 0x2e
 2464 0134 01       		.byte	0x1
 2465 0135 3F       		.uleb128 0x3f
 2466 0136 19       		.uleb128 0x19
 2467 0137 03       		.uleb128 0x3
 2468 0138 0E       		.uleb128 0xe
 2469 0139 3A       		.uleb128 0x3a
 2470 013a 0B       		.uleb128 0xb
 2471 013b 3B       		.uleb128 0x3b
 2472 013c 0B       		.uleb128 0xb
 2473 013d 27       		.uleb128 0x27
 2474 013e 19       		.uleb128 0x19
 2475 013f 20       		.uleb128 0x20
 2476 0140 0B       		.uleb128 0xb
 2477 0141 01       		.uleb128 0x1
 2478 0142 13       		.uleb128 0x13
 2479 0143 00       		.byte	0
 2480 0144 00       		.byte	0
 2481 0145 1C       		.uleb128 0x1c
 2482 0146 05       		.uleb128 0x5
 2483 0147 00       		.byte	0
 2484 0148 03       		.uleb128 0x3
 2485 0149 0E       		.uleb128 0xe
 2486 014a 3A       		.uleb128 0x3a
 2487 014b 0B       		.uleb128 0xb
 2488 014c 3B       		.uleb128 0x3b
 2489 014d 0B       		.uleb128 0xb
 2490 014e 49       		.uleb128 0x49
 2491 014f 13       		.uleb128 0x13
 2492 0150 00       		.byte	0
 2493 0151 00       		.byte	0
 2494 0152 1D       		.uleb128 0x1d
 2495 0153 2E       		.uleb128 0x2e
 2496 0154 01       		.byte	0x1
 2497 0155 31       		.uleb128 0x31
 2498 0156 13       		.uleb128 0x13
 2499 0157 11       		.uleb128 0x11
ARM GAS  /tmp/ccf0DB4f.s 			page 45


 2500 0158 01       		.uleb128 0x1
 2501 0159 12       		.uleb128 0x12
 2502 015a 06       		.uleb128 0x6
 2503 015b 40       		.uleb128 0x40
 2504 015c 18       		.uleb128 0x18
 2505 015d 9742     		.uleb128 0x2117
 2506 015f 19       		.uleb128 0x19
 2507 0160 01       		.uleb128 0x1
 2508 0161 13       		.uleb128 0x13
 2509 0162 00       		.byte	0
 2510 0163 00       		.byte	0
 2511 0164 1E       		.uleb128 0x1e
 2512 0165 05       		.uleb128 0x5
 2513 0166 00       		.byte	0
 2514 0167 31       		.uleb128 0x31
 2515 0168 13       		.uleb128 0x13
 2516 0169 02       		.uleb128 0x2
 2517 016a 17       		.uleb128 0x17
 2518 016b 00       		.byte	0
 2519 016c 00       		.byte	0
 2520 016d 1F       		.uleb128 0x1f
 2521 016e 898201   		.uleb128 0x4109
 2522 0171 01       		.byte	0x1
 2523 0172 11       		.uleb128 0x11
 2524 0173 01       		.uleb128 0x1
 2525 0174 31       		.uleb128 0x31
 2526 0175 13       		.uleb128 0x13
 2527 0176 01       		.uleb128 0x1
 2528 0177 13       		.uleb128 0x13
 2529 0178 00       		.byte	0
 2530 0179 00       		.byte	0
 2531 017a 20       		.uleb128 0x20
 2532 017b 8A8201   		.uleb128 0x410a
 2533 017e 00       		.byte	0
 2534 017f 02       		.uleb128 0x2
 2535 0180 18       		.uleb128 0x18
 2536 0181 9142     		.uleb128 0x2111
 2537 0183 18       		.uleb128 0x18
 2538 0184 00       		.byte	0
 2539 0185 00       		.byte	0
 2540 0186 21       		.uleb128 0x21
 2541 0187 898201   		.uleb128 0x4109
 2542 018a 01       		.byte	0x1
 2543 018b 11       		.uleb128 0x11
 2544 018c 01       		.uleb128 0x1
 2545 018d 9542     		.uleb128 0x2115
 2546 018f 19       		.uleb128 0x19
 2547 0190 31       		.uleb128 0x31
 2548 0191 13       		.uleb128 0x13
 2549 0192 00       		.byte	0
 2550 0193 00       		.byte	0
 2551 0194 22       		.uleb128 0x22
 2552 0195 2E       		.uleb128 0x2e
 2553 0196 01       		.byte	0x1
 2554 0197 03       		.uleb128 0x3
 2555 0198 0E       		.uleb128 0xe
 2556 0199 3A       		.uleb128 0x3a
ARM GAS  /tmp/ccf0DB4f.s 			page 46


 2557 019a 0B       		.uleb128 0xb
 2558 019b 3B       		.uleb128 0x3b
 2559 019c 0B       		.uleb128 0xb
 2560 019d 27       		.uleb128 0x27
 2561 019e 19       		.uleb128 0x19
 2562 019f 49       		.uleb128 0x49
 2563 01a0 13       		.uleb128 0x13
 2564 01a1 11       		.uleb128 0x11
 2565 01a2 01       		.uleb128 0x1
 2566 01a3 12       		.uleb128 0x12
 2567 01a4 06       		.uleb128 0x6
 2568 01a5 40       		.uleb128 0x40
 2569 01a6 18       		.uleb128 0x18
 2570 01a7 9742     		.uleb128 0x2117
 2571 01a9 19       		.uleb128 0x19
 2572 01aa 01       		.uleb128 0x1
 2573 01ab 13       		.uleb128 0x13
 2574 01ac 00       		.byte	0
 2575 01ad 00       		.byte	0
 2576 01ae 23       		.uleb128 0x23
 2577 01af 05       		.uleb128 0x5
 2578 01b0 00       		.byte	0
 2579 01b1 03       		.uleb128 0x3
 2580 01b2 08       		.uleb128 0x8
 2581 01b3 3A       		.uleb128 0x3a
 2582 01b4 0B       		.uleb128 0xb
 2583 01b5 3B       		.uleb128 0x3b
 2584 01b6 0B       		.uleb128 0xb
 2585 01b7 49       		.uleb128 0x49
 2586 01b8 13       		.uleb128 0x13
 2587 01b9 02       		.uleb128 0x2
 2588 01ba 17       		.uleb128 0x17
 2589 01bb 00       		.byte	0
 2590 01bc 00       		.byte	0
 2591 01bd 24       		.uleb128 0x24
 2592 01be 0B       		.uleb128 0xb
 2593 01bf 01       		.byte	0x1
 2594 01c0 11       		.uleb128 0x11
 2595 01c1 01       		.uleb128 0x1
 2596 01c2 12       		.uleb128 0x12
 2597 01c3 06       		.uleb128 0x6
 2598 01c4 00       		.byte	0
 2599 01c5 00       		.byte	0
 2600 01c6 25       		.uleb128 0x25
 2601 01c7 34       		.uleb128 0x34
 2602 01c8 00       		.byte	0
 2603 01c9 03       		.uleb128 0x3
 2604 01ca 08       		.uleb128 0x8
 2605 01cb 3A       		.uleb128 0x3a
 2606 01cc 0B       		.uleb128 0xb
 2607 01cd 3B       		.uleb128 0x3b
 2608 01ce 0B       		.uleb128 0xb
 2609 01cf 49       		.uleb128 0x49
 2610 01d0 13       		.uleb128 0x13
 2611 01d1 02       		.uleb128 0x2
 2612 01d2 17       		.uleb128 0x17
 2613 01d3 00       		.byte	0
ARM GAS  /tmp/ccf0DB4f.s 			page 47


 2614 01d4 00       		.byte	0
 2615 01d5 26       		.uleb128 0x26
 2616 01d6 1D       		.uleb128 0x1d
 2617 01d7 01       		.byte	0x1
 2618 01d8 31       		.uleb128 0x31
 2619 01d9 13       		.uleb128 0x13
 2620 01da 52       		.uleb128 0x52
 2621 01db 01       		.uleb128 0x1
 2622 01dc 55       		.uleb128 0x55
 2623 01dd 17       		.uleb128 0x17
 2624 01de 58       		.uleb128 0x58
 2625 01df 0B       		.uleb128 0xb
 2626 01e0 59       		.uleb128 0x59
 2627 01e1 0B       		.uleb128 0xb
 2628 01e2 01       		.uleb128 0x1
 2629 01e3 13       		.uleb128 0x13
 2630 01e4 00       		.byte	0
 2631 01e5 00       		.byte	0
 2632 01e6 27       		.uleb128 0x27
 2633 01e7 898201   		.uleb128 0x4109
 2634 01ea 00       		.byte	0
 2635 01eb 11       		.uleb128 0x11
 2636 01ec 01       		.uleb128 0x1
 2637 01ed 31       		.uleb128 0x31
 2638 01ee 13       		.uleb128 0x13
 2639 01ef 00       		.byte	0
 2640 01f0 00       		.byte	0
 2641 01f1 28       		.uleb128 0x28
 2642 01f2 898201   		.uleb128 0x4109
 2643 01f5 00       		.byte	0
 2644 01f6 11       		.uleb128 0x11
 2645 01f7 01       		.uleb128 0x1
 2646 01f8 9542     		.uleb128 0x2115
 2647 01fa 19       		.uleb128 0x19
 2648 01fb 31       		.uleb128 0x31
 2649 01fc 13       		.uleb128 0x13
 2650 01fd 00       		.byte	0
 2651 01fe 00       		.byte	0
 2652 01ff 29       		.uleb128 0x29
 2653 0200 2E       		.uleb128 0x2e
 2654 0201 01       		.byte	0x1
 2655 0202 3F       		.uleb128 0x3f
 2656 0203 19       		.uleb128 0x19
 2657 0204 03       		.uleb128 0x3
 2658 0205 0E       		.uleb128 0xe
 2659 0206 3A       		.uleb128 0x3a
 2660 0207 0B       		.uleb128 0xb
 2661 0208 3B       		.uleb128 0x3b
 2662 0209 0B       		.uleb128 0xb
 2663 020a 27       		.uleb128 0x27
 2664 020b 19       		.uleb128 0x19
 2665 020c 11       		.uleb128 0x11
 2666 020d 01       		.uleb128 0x1
 2667 020e 12       		.uleb128 0x12
 2668 020f 06       		.uleb128 0x6
 2669 0210 40       		.uleb128 0x40
 2670 0211 18       		.uleb128 0x18
ARM GAS  /tmp/ccf0DB4f.s 			page 48


 2671 0212 9742     		.uleb128 0x2117
 2672 0214 19       		.uleb128 0x19
 2673 0215 01       		.uleb128 0x1
 2674 0216 13       		.uleb128 0x13
 2675 0217 00       		.byte	0
 2676 0218 00       		.byte	0
 2677 0219 2A       		.uleb128 0x2a
 2678 021a 898201   		.uleb128 0x4109
 2679 021d 01       		.byte	0x1
 2680 021e 11       		.uleb128 0x11
 2681 021f 01       		.uleb128 0x1
 2682 0220 31       		.uleb128 0x31
 2683 0221 13       		.uleb128 0x13
 2684 0222 00       		.byte	0
 2685 0223 00       		.byte	0
 2686 0224 2B       		.uleb128 0x2b
 2687 0225 05       		.uleb128 0x5
 2688 0226 00       		.byte	0
 2689 0227 03       		.uleb128 0x3
 2690 0228 0E       		.uleb128 0xe
 2691 0229 3A       		.uleb128 0x3a
 2692 022a 0B       		.uleb128 0xb
 2693 022b 3B       		.uleb128 0x3b
 2694 022c 0B       		.uleb128 0xb
 2695 022d 49       		.uleb128 0x49
 2696 022e 13       		.uleb128 0x13
 2697 022f 02       		.uleb128 0x2
 2698 0230 18       		.uleb128 0x18
 2699 0231 00       		.byte	0
 2700 0232 00       		.byte	0
 2701 0233 2C       		.uleb128 0x2c
 2702 0234 1D       		.uleb128 0x1d
 2703 0235 01       		.byte	0x1
 2704 0236 31       		.uleb128 0x31
 2705 0237 13       		.uleb128 0x13
 2706 0238 11       		.uleb128 0x11
 2707 0239 01       		.uleb128 0x1
 2708 023a 12       		.uleb128 0x12
 2709 023b 06       		.uleb128 0x6
 2710 023c 58       		.uleb128 0x58
 2711 023d 0B       		.uleb128 0xb
 2712 023e 59       		.uleb128 0x59
 2713 023f 0B       		.uleb128 0xb
 2714 0240 01       		.uleb128 0x1
 2715 0241 13       		.uleb128 0x13
 2716 0242 00       		.byte	0
 2717 0243 00       		.byte	0
 2718 0244 2D       		.uleb128 0x2d
 2719 0245 05       		.uleb128 0x5
 2720 0246 00       		.byte	0
 2721 0247 31       		.uleb128 0x31
 2722 0248 13       		.uleb128 0x13
 2723 0249 02       		.uleb128 0x2
 2724 024a 18       		.uleb128 0x18
 2725 024b 00       		.byte	0
 2726 024c 00       		.byte	0
 2727 024d 2E       		.uleb128 0x2e
ARM GAS  /tmp/ccf0DB4f.s 			page 49


 2728 024e 05       		.uleb128 0x5
 2729 024f 00       		.byte	0
 2730 0250 03       		.uleb128 0x3
 2731 0251 0E       		.uleb128 0xe
 2732 0252 3A       		.uleb128 0x3a
 2733 0253 0B       		.uleb128 0xb
 2734 0254 3B       		.uleb128 0x3b
 2735 0255 0B       		.uleb128 0xb
 2736 0256 49       		.uleb128 0x49
 2737 0257 13       		.uleb128 0x13
 2738 0258 02       		.uleb128 0x2
 2739 0259 17       		.uleb128 0x17
 2740 025a 00       		.byte	0
 2741 025b 00       		.byte	0
 2742 025c 2F       		.uleb128 0x2f
 2743 025d 34       		.uleb128 0x34
 2744 025e 00       		.byte	0
 2745 025f 03       		.uleb128 0x3
 2746 0260 0E       		.uleb128 0xe
 2747 0261 3A       		.uleb128 0x3a
 2748 0262 0B       		.uleb128 0xb
 2749 0263 3B       		.uleb128 0x3b
 2750 0264 0B       		.uleb128 0xb
 2751 0265 49       		.uleb128 0x49
 2752 0266 13       		.uleb128 0x13
 2753 0267 02       		.uleb128 0x2
 2754 0268 18       		.uleb128 0x18
 2755 0269 00       		.byte	0
 2756 026a 00       		.byte	0
 2757 026b 30       		.uleb128 0x30
 2758 026c 34       		.uleb128 0x34
 2759 026d 00       		.byte	0
 2760 026e 03       		.uleb128 0x3
 2761 026f 0E       		.uleb128 0xe
 2762 0270 3A       		.uleb128 0x3a
 2763 0271 0B       		.uleb128 0xb
 2764 0272 3B       		.uleb128 0x3b
 2765 0273 05       		.uleb128 0x5
 2766 0274 49       		.uleb128 0x49
 2767 0275 13       		.uleb128 0x13
 2768 0276 3F       		.uleb128 0x3f
 2769 0277 19       		.uleb128 0x19
 2770 0278 3C       		.uleb128 0x3c
 2771 0279 19       		.uleb128 0x19
 2772 027a 00       		.byte	0
 2773 027b 00       		.byte	0
 2774 027c 31       		.uleb128 0x31
 2775 027d 34       		.uleb128 0x34
 2776 027e 00       		.byte	0
 2777 027f 03       		.uleb128 0x3
 2778 0280 0E       		.uleb128 0xe
 2779 0281 3A       		.uleb128 0x3a
 2780 0282 0B       		.uleb128 0xb
 2781 0283 3B       		.uleb128 0x3b
 2782 0284 0B       		.uleb128 0xb
 2783 0285 49       		.uleb128 0x49
 2784 0286 13       		.uleb128 0x13
ARM GAS  /tmp/ccf0DB4f.s 			page 50


 2785 0287 3F       		.uleb128 0x3f
 2786 0288 19       		.uleb128 0x19
 2787 0289 02       		.uleb128 0x2
 2788 028a 18       		.uleb128 0x18
 2789 028b 00       		.byte	0
 2790 028c 00       		.byte	0
 2791 028d 32       		.uleb128 0x32
 2792 028e 2E       		.uleb128 0x2e
 2793 028f 01       		.byte	0x1
 2794 0290 3F       		.uleb128 0x3f
 2795 0291 19       		.uleb128 0x19
 2796 0292 03       		.uleb128 0x3
 2797 0293 0E       		.uleb128 0xe
 2798 0294 3A       		.uleb128 0x3a
 2799 0295 0B       		.uleb128 0xb
 2800 0296 3B       		.uleb128 0x3b
 2801 0297 0B       		.uleb128 0xb
 2802 0298 27       		.uleb128 0x27
 2803 0299 19       		.uleb128 0x19
 2804 029a 3C       		.uleb128 0x3c
 2805 029b 19       		.uleb128 0x19
 2806 029c 01       		.uleb128 0x1
 2807 029d 13       		.uleb128 0x13
 2808 029e 00       		.byte	0
 2809 029f 00       		.byte	0
 2810 02a0 33       		.uleb128 0x33
 2811 02a1 2E       		.uleb128 0x2e
 2812 02a2 01       		.byte	0x1
 2813 02a3 3F       		.uleb128 0x3f
 2814 02a4 19       		.uleb128 0x19
 2815 02a5 03       		.uleb128 0x3
 2816 02a6 0E       		.uleb128 0xe
 2817 02a7 3A       		.uleb128 0x3a
 2818 02a8 0B       		.uleb128 0xb
 2819 02a9 3B       		.uleb128 0x3b
 2820 02aa 05       		.uleb128 0x5
 2821 02ab 27       		.uleb128 0x27
 2822 02ac 19       		.uleb128 0x19
 2823 02ad 3C       		.uleb128 0x3c
 2824 02ae 19       		.uleb128 0x19
 2825 02af 01       		.uleb128 0x1
 2826 02b0 13       		.uleb128 0x13
 2827 02b1 00       		.byte	0
 2828 02b2 00       		.byte	0
 2829 02b3 34       		.uleb128 0x34
 2830 02b4 2E       		.uleb128 0x2e
 2831 02b5 00       		.byte	0
 2832 02b6 3F       		.uleb128 0x3f
 2833 02b7 19       		.uleb128 0x19
 2834 02b8 03       		.uleb128 0x3
 2835 02b9 0E       		.uleb128 0xe
 2836 02ba 3A       		.uleb128 0x3a
 2837 02bb 0B       		.uleb128 0xb
 2838 02bc 3B       		.uleb128 0x3b
 2839 02bd 0B       		.uleb128 0xb
 2840 02be 27       		.uleb128 0x27
 2841 02bf 19       		.uleb128 0x19
ARM GAS  /tmp/ccf0DB4f.s 			page 51


 2842 02c0 49       		.uleb128 0x49
 2843 02c1 13       		.uleb128 0x13
 2844 02c2 3C       		.uleb128 0x3c
 2845 02c3 19       		.uleb128 0x19
 2846 02c4 00       		.byte	0
 2847 02c5 00       		.byte	0
 2848 02c6 35       		.uleb128 0x35
 2849 02c7 2E       		.uleb128 0x2e
 2850 02c8 01       		.byte	0x1
 2851 02c9 3F       		.uleb128 0x3f
 2852 02ca 19       		.uleb128 0x19
 2853 02cb 03       		.uleb128 0x3
 2854 02cc 0E       		.uleb128 0xe
 2855 02cd 3A       		.uleb128 0x3a
 2856 02ce 0B       		.uleb128 0xb
 2857 02cf 3B       		.uleb128 0x3b
 2858 02d0 05       		.uleb128 0x5
 2859 02d1 27       		.uleb128 0x27
 2860 02d2 19       		.uleb128 0x19
 2861 02d3 49       		.uleb128 0x49
 2862 02d4 13       		.uleb128 0x13
 2863 02d5 3C       		.uleb128 0x3c
 2864 02d6 19       		.uleb128 0x19
 2865 02d7 01       		.uleb128 0x1
 2866 02d8 13       		.uleb128 0x13
 2867 02d9 00       		.byte	0
 2868 02da 00       		.byte	0
 2869 02db 36       		.uleb128 0x36
 2870 02dc 2E       		.uleb128 0x2e
 2871 02dd 01       		.byte	0x1
 2872 02de 3F       		.uleb128 0x3f
 2873 02df 19       		.uleb128 0x19
 2874 02e0 03       		.uleb128 0x3
 2875 02e1 0E       		.uleb128 0xe
 2876 02e2 3A       		.uleb128 0x3a
 2877 02e3 0B       		.uleb128 0xb
 2878 02e4 3B       		.uleb128 0x3b
 2879 02e5 0B       		.uleb128 0xb
 2880 02e6 27       		.uleb128 0x27
 2881 02e7 19       		.uleb128 0x19
 2882 02e8 49       		.uleb128 0x49
 2883 02e9 13       		.uleb128 0x13
 2884 02ea 3C       		.uleb128 0x3c
 2885 02eb 19       		.uleb128 0x19
 2886 02ec 01       		.uleb128 0x1
 2887 02ed 13       		.uleb128 0x13
 2888 02ee 00       		.byte	0
 2889 02ef 00       		.byte	0
 2890 02f0 37       		.uleb128 0x37
 2891 02f1 2E       		.uleb128 0x2e
 2892 02f2 01       		.byte	0x1
 2893 02f3 3F       		.uleb128 0x3f
 2894 02f4 19       		.uleb128 0x19
 2895 02f5 03       		.uleb128 0x3
 2896 02f6 0E       		.uleb128 0xe
 2897 02f7 3A       		.uleb128 0x3a
 2898 02f8 0B       		.uleb128 0xb
ARM GAS  /tmp/ccf0DB4f.s 			page 52


 2899 02f9 3B       		.uleb128 0x3b
 2900 02fa 0B       		.uleb128 0xb
 2901 02fb 27       		.uleb128 0x27
 2902 02fc 19       		.uleb128 0x19
 2903 02fd 49       		.uleb128 0x49
 2904 02fe 13       		.uleb128 0x13
 2905 02ff 3C       		.uleb128 0x3c
 2906 0300 19       		.uleb128 0x19
 2907 0301 00       		.byte	0
 2908 0302 00       		.byte	0
 2909 0303 00       		.byte	0
 2910              		.section	.debug_loc,"",%progbits
 2911              	.Ldebug_loc0:
 2912              	.LLST0:
 2913 0000 00000000 		.4byte	.LVL0
 2914 0004 0A000000 		.4byte	.LVL2
 2915 0008 0100     		.2byte	0x1
 2916 000a 50       		.byte	0x50
 2917 000b 0A000000 		.4byte	.LVL2
 2918 000f 80000000 		.4byte	.LFE125
 2919 0013 0400     		.2byte	0x4
 2920 0015 F3       		.byte	0xf3
 2921 0016 01       		.uleb128 0x1
 2922 0017 50       		.byte	0x50
 2923 0018 9F       		.byte	0x9f
 2924 0019 00000000 		.4byte	0
 2925 001d 00000000 		.4byte	0
 2926              	.LLST1:
 2927 0021 00000000 		.4byte	.LVL0
 2928 0025 08000000 		.4byte	.LVL1
 2929 0029 0100     		.2byte	0x1
 2930 002b 51       		.byte	0x51
 2931 002c 08000000 		.4byte	.LVL1
 2932 0030 0C000000 		.4byte	.LVL3
 2933 0034 0300     		.2byte	0x3
 2934 0036 71       		.byte	0x71
 2935 0037 6C       		.sleb128 -20
 2936 0038 9F       		.byte	0x9f
 2937 0039 0C000000 		.4byte	.LVL3
 2938 003d 3C000000 		.4byte	.LVL6
 2939 0041 0300     		.2byte	0x3
 2940 0043 75       		.byte	0x75
 2941 0044 6C       		.sleb128 -20
 2942 0045 9F       		.byte	0x9f
 2943 0046 3C000000 		.4byte	.LVL6
 2944 004a 42000000 		.4byte	.LVL8
 2945 004e 0100     		.2byte	0x1
 2946 0050 55       		.byte	0x55
 2947 0051 00000000 		.4byte	0
 2948 0055 00000000 		.4byte	0
 2949              	.LLST2:
 2950 0059 00000000 		.4byte	.LVL12
 2951 005d 06000000 		.4byte	.LVL13
 2952 0061 0100     		.2byte	0x1
 2953 0063 50       		.byte	0x50
 2954 0064 06000000 		.4byte	.LVL13
 2955 0068 5C000000 		.4byte	.LFE120
ARM GAS  /tmp/ccf0DB4f.s 			page 53


 2956 006c 0400     		.2byte	0x4
 2957 006e F3       		.byte	0xf3
 2958 006f 01       		.uleb128 0x1
 2959 0070 50       		.byte	0x50
 2960 0071 9F       		.byte	0x9f
 2961 0072 00000000 		.4byte	0
 2962 0076 00000000 		.4byte	0
 2963              	.LLST3:
 2964 007a 16000000 		.4byte	.LVL16
 2965 007e 20000000 		.4byte	.LVL17
 2966 0082 0200     		.2byte	0x2
 2967 0084 30       		.byte	0x30
 2968 0085 9F       		.byte	0x9f
 2969 0086 20000000 		.4byte	.LVL17
 2970 008a 3A000000 		.4byte	.LVL19
 2971 008e 0100     		.2byte	0x1
 2972 0090 54       		.byte	0x54
 2973 0091 3A000000 		.4byte	.LVL19
 2974 0095 42000000 		.4byte	.LVL21
 2975 0099 0300     		.2byte	0x3
 2976 009b 74       		.byte	0x74
 2977 009c 7F       		.sleb128 -1
 2978 009d 9F       		.byte	0x9f
 2979 009e 42000000 		.4byte	.LVL21
 2980 00a2 48000000 		.4byte	.LVL22
 2981 00a6 0100     		.2byte	0x1
 2982 00a8 54       		.byte	0x54
 2983 00a9 00000000 		.4byte	0
 2984 00ad 00000000 		.4byte	0
 2985              	.LLST4:
 2986 00b1 20000000 		.4byte	.LVL17
 2987 00b5 26000000 		.4byte	.LVL18
 2988 00b9 0100     		.2byte	0x1
 2989 00bb 51       		.byte	0x51
 2990 00bc 3C000000 		.4byte	.LVL20
 2991 00c0 41000000 		.4byte	.LVL21-1
 2992 00c4 0100     		.2byte	0x1
 2993 00c6 51       		.byte	0x51
 2994 00c7 00000000 		.4byte	0
 2995 00cb 00000000 		.4byte	0
 2996              	.LLST5:
 2997 00cf 20000000 		.4byte	.LVL17
 2998 00d3 26000000 		.4byte	.LVL18
 2999 00d7 0100     		.2byte	0x1
 3000 00d9 50       		.byte	0x50
 3001 00da 3C000000 		.4byte	.LVL20
 3002 00de 41000000 		.4byte	.LVL21-1
 3003 00e2 0100     		.2byte	0x1
 3004 00e4 50       		.byte	0x50
 3005 00e5 00000000 		.4byte	0
 3006 00e9 00000000 		.4byte	0
 3007              	.LLST6:
 3008 00ed 00000000 		.4byte	.LVL24
 3009 00f1 09000000 		.4byte	.LVL25-1
 3010 00f5 0100     		.2byte	0x1
 3011 00f7 50       		.byte	0x50
 3012 00f8 09000000 		.4byte	.LVL25-1
ARM GAS  /tmp/ccf0DB4f.s 			page 54


 3013 00fc 0A000000 		.4byte	.LFE119
 3014 0100 0400     		.2byte	0x4
 3015 0102 F3       		.byte	0xf3
 3016 0103 01       		.uleb128 0x1
 3017 0104 50       		.byte	0x50
 3018 0105 9F       		.byte	0x9f
 3019 0106 00000000 		.4byte	0
 3020 010a 00000000 		.4byte	0
 3021              	.LLST7:
 3022 010e 00000000 		.4byte	.LVL24
 3023 0112 09000000 		.4byte	.LVL25-1
 3024 0116 0100     		.2byte	0x1
 3025 0118 51       		.byte	0x51
 3026 0119 09000000 		.4byte	.LVL25-1
 3027 011d 0A000000 		.4byte	.LFE119
 3028 0121 0400     		.2byte	0x4
 3029 0123 F3       		.byte	0xf3
 3030 0124 01       		.uleb128 0x1
 3031 0125 51       		.byte	0x51
 3032 0126 9F       		.byte	0x9f
 3033 0127 00000000 		.4byte	0
 3034 012b 00000000 		.4byte	0
 3035              	.LLST8:
 3036 012f 00000000 		.4byte	.LVL32
 3037 0133 08000000 		.4byte	.LVL33
 3038 0137 0100     		.2byte	0x1
 3039 0139 50       		.byte	0x50
 3040 013a 08000000 		.4byte	.LVL33
 3041 013e 38000000 		.4byte	.LVL42
 3042 0142 0100     		.2byte	0x1
 3043 0144 56       		.byte	0x56
 3044 0145 38000000 		.4byte	.LVL42
 3045 0149 40000000 		.4byte	.LFE123
 3046 014d 0400     		.2byte	0x4
 3047 014f F3       		.byte	0xf3
 3048 0150 01       		.uleb128 0x1
 3049 0151 50       		.byte	0x50
 3050 0152 9F       		.byte	0x9f
 3051 0153 00000000 		.4byte	0
 3052 0157 00000000 		.4byte	0
 3053              	.LLST9:
 3054 015b 00000000 		.4byte	.LVL32
 3055 015f 0B000000 		.4byte	.LVL34-1
 3056 0163 0100     		.2byte	0x1
 3057 0165 51       		.byte	0x51
 3058 0166 0B000000 		.4byte	.LVL34-1
 3059 016a 38000000 		.4byte	.LVL42
 3060 016e 0100     		.2byte	0x1
 3061 0170 57       		.byte	0x57
 3062 0171 38000000 		.4byte	.LVL42
 3063 0175 40000000 		.4byte	.LFE123
 3064 0179 0400     		.2byte	0x4
 3065 017b F3       		.byte	0xf3
 3066 017c 01       		.uleb128 0x1
 3067 017d 51       		.byte	0x51
 3068 017e 9F       		.byte	0x9f
 3069 017f 00000000 		.4byte	0
ARM GAS  /tmp/ccf0DB4f.s 			page 55


 3070 0183 00000000 		.4byte	0
 3071              	.LLST10:
 3072 0187 0C000000 		.4byte	.LVL34
 3073 018b 16000000 		.4byte	.LVL35
 3074 018f 0200     		.2byte	0x2
 3075 0191 30       		.byte	0x30
 3076 0192 9F       		.byte	0x9f
 3077 0193 16000000 		.4byte	.LVL35
 3078 0197 26000000 		.4byte	.LVL39
 3079 019b 0100     		.2byte	0x1
 3080 019d 55       		.byte	0x55
 3081 019e 26000000 		.4byte	.LVL39
 3082 01a2 30000000 		.4byte	.LVL40
 3083 01a6 0300     		.2byte	0x3
 3084 01a8 75       		.byte	0x75
 3085 01a9 7F       		.sleb128 -1
 3086 01aa 9F       		.byte	0x9f
 3087 01ab 30000000 		.4byte	.LVL40
 3088 01af 34000000 		.4byte	.LVL41
 3089 01b3 0100     		.2byte	0x1
 3090 01b5 55       		.byte	0x55
 3091 01b6 00000000 		.4byte	0
 3092 01ba 00000000 		.4byte	0
 3093              	.LLST11:
 3094 01be 16000000 		.4byte	.LVL35
 3095 01c2 1A000000 		.4byte	.LVL36
 3096 01c6 0200     		.2byte	0x2
 3097 01c8 73       		.byte	0x73
 3098 01c9 02       		.sleb128 2
 3099 01ca 20000000 		.4byte	.LVL38
 3100 01ce 2F000000 		.4byte	.LVL40-1
 3101 01d2 0200     		.2byte	0x2
 3102 01d4 73       		.byte	0x73
 3103 01d5 02       		.sleb128 2
 3104 01d6 00000000 		.4byte	0
 3105 01da 00000000 		.4byte	0
 3106              	.LLST12:
 3107 01de 16000000 		.4byte	.LVL35
 3108 01e2 1A000000 		.4byte	.LVL36
 3109 01e6 0200     		.2byte	0x2
 3110 01e8 73       		.byte	0x73
 3111 01e9 00       		.sleb128 0
 3112 01ea 1E000000 		.4byte	.LVL37
 3113 01ee 2F000000 		.4byte	.LVL40-1
 3114 01f2 0200     		.2byte	0x2
 3115 01f4 73       		.byte	0x73
 3116 01f5 00       		.sleb128 0
 3117 01f6 00000000 		.4byte	0
 3118 01fa 00000000 		.4byte	0
 3119              	.LLST13:
 3120 01fe 00000000 		.4byte	.LVL44
 3121 0202 06000000 		.4byte	.LVL45
 3122 0206 0100     		.2byte	0x1
 3123 0208 50       		.byte	0x50
 3124 0209 06000000 		.4byte	.LVL45
 3125 020d 26000000 		.4byte	.LVL49
 3126 0211 0100     		.2byte	0x1
ARM GAS  /tmp/ccf0DB4f.s 			page 56


 3127 0213 55       		.byte	0x55
 3128 0214 26000000 		.4byte	.LVL49
 3129 0218 3C000000 		.4byte	.LFE124
 3130 021c 0400     		.2byte	0x4
 3131 021e F3       		.byte	0xf3
 3132 021f 01       		.uleb128 0x1
 3133 0220 50       		.byte	0x50
 3134 0221 9F       		.byte	0x9f
 3135 0222 00000000 		.4byte	0
 3136 0226 00000000 		.4byte	0
 3137              	.LLST14:
 3138 022a 00000000 		.4byte	.LVL44
 3139 022e 0B000000 		.4byte	.LVL46-1
 3140 0232 0100     		.2byte	0x1
 3141 0234 51       		.byte	0x51
 3142 0235 0B000000 		.4byte	.LVL46-1
 3143 0239 26000000 		.4byte	.LVL49
 3144 023d 0100     		.2byte	0x1
 3145 023f 54       		.byte	0x54
 3146 0240 26000000 		.4byte	.LVL49
 3147 0244 3C000000 		.4byte	.LFE124
 3148 0248 0400     		.2byte	0x4
 3149 024a F3       		.byte	0xf3
 3150 024b 01       		.uleb128 0x1
 3151 024c 51       		.byte	0x51
 3152 024d 9F       		.byte	0x9f
 3153 024e 00000000 		.4byte	0
 3154 0252 00000000 		.4byte	0
 3155              		.section	.debug_aranges,"",%progbits
 3156 0000 4C000000 		.4byte	0x4c
 3157 0004 0200     		.2byte	0x2
 3158 0006 00000000 		.4byte	.Ldebug_info0
 3159 000a 04       		.byte	0x4
 3160 000b 00       		.byte	0
 3161 000c 0000     		.2byte	0
 3162 000e 0000     		.2byte	0
 3163 0010 00000000 		.4byte	.LFB125
 3164 0014 80000000 		.4byte	.LFE125-.LFB125
 3165 0018 00000000 		.4byte	.LFB120
 3166 001c 5C000000 		.4byte	.LFE120-.LFB120
 3167 0020 00000000 		.4byte	.LFB119
 3168 0024 0A000000 		.4byte	.LFE119-.LFB119
 3169 0028 00000000 		.4byte	.LFB121
 3170 002c 38000000 		.4byte	.LFE121-.LFB121
 3171 0030 00000000 		.4byte	.LFB122
 3172 0034 2C000000 		.4byte	.LFE122-.LFB122
 3173 0038 00000000 		.4byte	.LFB123
 3174 003c 40000000 		.4byte	.LFE123-.LFB123
 3175 0040 00000000 		.4byte	.LFB124
 3176 0044 3C000000 		.4byte	.LFE124-.LFB124
 3177 0048 00000000 		.4byte	0
 3178 004c 00000000 		.4byte	0
 3179              		.section	.debug_ranges,"",%progbits
 3180              	.Ldebug_ranges0:
 3181 0000 34000000 		.4byte	.LBB10
 3182 0004 36000000 		.4byte	.LBE10
 3183 0008 3C000000 		.4byte	.LBB13
ARM GAS  /tmp/ccf0DB4f.s 			page 57


 3184 000c 42000000 		.4byte	.LBE13
 3185 0010 00000000 		.4byte	0
 3186 0014 00000000 		.4byte	0
 3187 0018 20000000 		.4byte	.LBB16
 3188 001c 22000000 		.4byte	.LBE16
 3189 0020 2A000000 		.4byte	.LBB19
 3190 0024 30000000 		.4byte	.LBE19
 3191 0028 00000000 		.4byte	0
 3192 002c 00000000 		.4byte	0
 3193 0030 00000000 		.4byte	.LFB125
 3194 0034 80000000 		.4byte	.LFE125
 3195 0038 00000000 		.4byte	.LFB120
 3196 003c 5C000000 		.4byte	.LFE120
 3197 0040 00000000 		.4byte	.LFB119
 3198 0044 0A000000 		.4byte	.LFE119
 3199 0048 00000000 		.4byte	.LFB121
 3200 004c 38000000 		.4byte	.LFE121
 3201 0050 00000000 		.4byte	.LFB122
 3202 0054 2C000000 		.4byte	.LFE122
 3203 0058 00000000 		.4byte	.LFB123
 3204 005c 40000000 		.4byte	.LFE123
 3205 0060 00000000 		.4byte	.LFB124
 3206 0064 3C000000 		.4byte	.LFE124
 3207 0068 00000000 		.4byte	0
 3208 006c 00000000 		.4byte	0
 3209              		.section	.debug_line,"",%progbits
 3210              	.Ldebug_line0:
 3211 0000 03030000 		.section	.debug_str,"MS",%progbits,1
 3211      02000C02 
 3211      00000201 
 3211      FB0E0D00 
 3211      01010101 
 3212              	.LASF61:
 3213 0000 7466756E 		.ascii	"tfunc_t\000"
 3213      635F7400 
 3214              	.LASF84:
 3215 0008 70776D63 		.ascii	"pwmchannel_t\000"
 3215      68616E6E 
 3215      656C5F74 
 3215      00
 3216              	.LASF73:
 3217 0015 44494552 		.ascii	"DIER\000"
 3217      00
 3218              	.LASF127:
 3219 001a 2F686F6D 		.ascii	"/home/brian/aithon/ProjectTemplate\000"
 3219      652F6272 
 3219      69616E2F 
 3219      61697468 
 3219      6F6E2F50 
 3220              	.LASF3:
 3221 003d 73697A65 		.ascii	"size_t\000"
 3221      5F7400
 3222              	.LASF56:
 3223 0044 7264796D 		.ascii	"rdymsg\000"
 3223      736700
 3224              	.LASF14:
 3225 004b 75696E74 		.ascii	"uint64_t\000"
ARM GAS  /tmp/ccf0DB4f.s 			page 58


 3225      36345F74 
 3225      00
 3226              	.LASF79:
 3227 0054 43434D52 		.ascii	"CCMR3\000"
 3227      3300
 3228              	.LASF69:
 3229 005a 70657269 		.ascii	"period\000"
 3229      6F6400
 3230              	.LASF45:
 3231 0061 54687265 		.ascii	"ThreadsQueue\000"
 3231      61647351 
 3231      75657565 
 3231      00
 3232              	.LASF91:
 3233 006e 62647472 		.ascii	"bdtr\000"
 3233      00
 3234              	.LASF105:
 3235 0073 49544D5F 		.ascii	"ITM_RxBuffer\000"
 3235      52784275 
 3235      66666572 
 3235      00
 3236              	.LASF77:
 3237 0080 42445452 		.ascii	"BDTR\000"
 3237      00
 3238              	.LASF89:
 3239 0085 66726571 		.ascii	"frequency\000"
 3239      75656E63 
 3239      7900
 3240              	.LASF53:
 3241 008f 6D5F7175 		.ascii	"m_queue\000"
 3241      65756500 
 3242              	.LASF28:
 3243 0097 705F7072 		.ascii	"p_prio\000"
 3243      696F00
 3244              	.LASF64:
 3245 009e 50574D5F 		.ascii	"PWM_READY\000"
 3245      52454144 
 3245      5900
 3246              	.LASF126:
 3247 00a8 2E2E2F41 		.ascii	"../AithonLibrary/music.c\000"
 3247      6974686F 
 3247      6E4C6962 
 3247      72617279 
 3247      2F6D7573 
 3248              	.LASF113:
 3249 00c1 70776D53 		.ascii	"pwmStart\000"
 3249      74617274 
 3249      00
 3250              	.LASF74:
 3251 00ca 43434D52 		.ascii	"CCMR1\000"
 3251      3100
 3252              	.LASF75:
 3253 00d0 43434D52 		.ascii	"CCMR2\000"
 3253      3200
 3254              	.LASF120:
 3255 00d6 63684D74 		.ascii	"chMtxUnlock\000"
 3255      78556E6C 
ARM GAS  /tmp/ccf0DB4f.s 			page 59


 3255      6F636B00 
 3256              	.LASF2:
 3257 00e2 7369676E 		.ascii	"signed char\000"
 3257      65642063 
 3257      68617200 
 3258              	.LASF82:
 3259 00ee 73746D33 		.ascii	"stm32_tim_t\000"
 3259      325F7469 
 3259      6D5F7400 
 3260              	.LASF44:
 3261 00fa 705F6D70 		.ascii	"p_mpool\000"
 3261      6F6F6C00 
 3262              	.LASF15:
 3263 0102 626F6F6C 		.ascii	"bool_t\000"
 3263      5F7400
 3264              	.LASF83:
 3265 0109 70776D6D 		.ascii	"pwmmode_t\000"
 3265      6F64655F 
 3265      7400
 3266              	.LASF128:
 3267 0113 4D757369 		.ascii	"MusicThread\000"
 3267      63546872 
 3267      65616400 
 3268              	.LASF67:
 3269 011f 73746174 		.ascii	"state\000"
 3269      6500
 3270              	.LASF90:
 3271 0125 6368616E 		.ascii	"channels\000"
 3271      6E656C73 
 3271      00
 3272              	.LASF10:
 3273 012e 6C6F6E67 		.ascii	"long int\000"
 3273      20696E74 
 3273      00
 3274              	.LASF124:
 3275 0137 63684D73 		.ascii	"chMsgSend\000"
 3275      6753656E 
 3275      6400
 3276              	.LASF18:
 3277 0141 74737461 		.ascii	"tstate_t\000"
 3277      74655F74 
 3277      00
 3278              	.LASF7:
 3279 014a 75696E74 		.ascii	"uint16_t\000"
 3279      31365F74 
 3279      00
 3280              	.LASF30:
 3281 0153 705F6E65 		.ascii	"p_newer\000"
 3281      77657200 
 3282              	.LASF57:
 3283 015b 65786974 		.ascii	"exitcode\000"
 3283      636F6465 
 3283      00
 3284              	.LASF106:
 3285 0164 50574D44 		.ascii	"PWMD2\000"
 3285      3200
 3286              	.LASF47:
ARM GAS  /tmp/ccf0DB4f.s 			page 60


 3287 016a 72656761 		.ascii	"regarm_t\000"
 3287      726D5F74 
 3287      00
 3288              	.LASF94:
 3289 0173 64757261 		.ascii	"duration\000"
 3289      74696F6E 
 3289      00
 3290              	.LASF0:
 3291 017c 6C6F6E67 		.ascii	"long long unsigned int\000"
 3291      206C6F6E 
 3291      6720756E 
 3291      7369676E 
 3291      65642069 
 3292              	.LASF1:
 3293 0193 756E7369 		.ascii	"unsigned int\000"
 3293      676E6564 
 3293      20696E74 
 3293      00
 3294              	.LASF104:
 3295 01a0 77614D75 		.ascii	"waMusicThread\000"
 3295      73696354 
 3295      68726561 
 3295      6400
 3296              	.LASF125:
 3297 01ae 474E5520 		.ascii	"GNU C 4.8.3 20131129 (release) [ARM/embedded-4_8-br"
 3297      4320342E 
 3297      382E3320 
 3297      32303133 
 3297      31313239 
 3298 01e1 616E6368 		.ascii	"anch revision 205641] -mcpu=cortex-m4 -mfloat-abi=s"
 3298      20726576 
 3298      6973696F 
 3298      6E203230 
 3298      35363431 
 3299 0214 6F667466 		.ascii	"oftfp -mfpu=fpv4-sp-d16 -mno-thumb-interwork -mthum"
 3299      70202D6D 
 3299      6670753D 
 3299      66707634 
 3299      2D73702D 
 3300 0247 62202D67 		.ascii	"b -ggdb -O2 -fomit-frame-pointer -falign-functions="
 3300      67646220 
 3300      2D4F3220 
 3300      2D666F6D 
 3300      69742D66 
 3301 027a 3136202D 		.ascii	"16 -fsingle-precision-constant -ffunction-sections "
 3301      6673696E 
 3301      676C652D 
 3301      70726563 
 3301      6973696F 
 3302 02ad 2D666461 		.ascii	"-fdata-sections -fno-common\000"
 3302      74612D73 
 3302      65637469 
 3302      6F6E7320 
 3302      2D666E6F 
 3303              	.LASF108:
 3304 02c9 5F617379 		.ascii	"_asyncMusicThread\000"
 3304      6E634D75 
ARM GAS  /tmp/ccf0DB4f.s 			page 61


 3304      73696354 
 3304      68726561 
 3304      6400
 3305              	.LASF111:
 3306 02db 5F706C61 		.ascii	"_play_note\000"
 3306      795F6E6F 
 3306      746500
 3307              	.LASF50:
 3308 02e6 636F6E74 		.ascii	"context\000"
 3308      65787400 
 3309              	.LASF8:
 3310 02ee 73686F72 		.ascii	"short unsigned int\000"
 3310      7420756E 
 3310      7369676E 
 3310      65642069 
 3310      6E7400
 3311              	.LASF13:
 3312 0301 6C6F6E67 		.ascii	"long long int\000"
 3312      206C6F6E 
 3312      6720696E 
 3312      7400
 3313              	.LASF22:
 3314 030f 6D73675F 		.ascii	"msg_t\000"
 3314      7400
 3315              	.LASF112:
 3316 0315 70776D44 		.ascii	"pwmDisableChannel\000"
 3316      69736162 
 3316      6C654368 
 3316      616E6E65 
 3316      6C00
 3317              	.LASF87:
 3318 0327 63616C6C 		.ascii	"callback\000"
 3318      6261636B 
 3318      00
 3319              	.LASF17:
 3320 0330 746D6F64 		.ascii	"tmode_t\000"
 3320      655F7400 
 3321              	.LASF46:
 3322 0338 54687265 		.ascii	"ThreadsList\000"
 3322      6164734C 
 3322      69737400 
 3323              	.LASF23:
 3324 0344 6576656E 		.ascii	"eventmask_t\000"
 3324      746D6173 
 3324      6B5F7400 
 3325              	.LASF123:
 3326 0350 63684D74 		.ascii	"chMtxTryLock\000"
 3326      78547279 
 3326      4C6F636B 
 3326      00
 3327              	.LASF52:
 3328 035d 4D757465 		.ascii	"Mutex\000"
 3328      7800
 3329              	.LASF110:
 3330 0363 5F617379 		.ascii	"_asyncNumNotes\000"
 3330      6E634E75 
 3330      6D4E6F74 
ARM GAS  /tmp/ccf0DB4f.s 			page 62


 3330      657300
 3331              	.LASF48:
 3332 0372 73746B61 		.ascii	"stkalign_t\000"
 3332      6C69676E 
 3332      5F7400
 3333              	.LASF122:
 3334 037d 63685468 		.ascii	"chThdCreateStatic\000"
 3334      64437265 
 3334      61746553 
 3334      74617469 
 3334      6300
 3335              	.LASF96:
 3336 038f 5F6D7573 		.ascii	"_music_init\000"
 3336      69635F69 
 3336      6E697400 
 3337              	.LASF116:
 3338 039b 70776D53 		.ascii	"pwmStop\000"
 3338      746F7000 
 3339              	.LASF51:
 3340 03a3 73697A65 		.ascii	"sizetype\000"
 3340      74797065 
 3340      00
 3341              	.LASF118:
 3342 03ac 63684D74 		.ascii	"chMtxLock\000"
 3342      784C6F63 
 3342      6B00
 3343              	.LASF31:
 3344 03b6 705F6F6C 		.ascii	"p_older\000"
 3344      64657200 
 3345              	.LASF85:
 3346 03be 70776D63 		.ascii	"pwmcnt_t\000"
 3346      6E745F74 
 3346      00
 3347              	.LASF35:
 3348 03c7 705F7265 		.ascii	"p_refs\000"
 3348      667300
 3349              	.LASF71:
 3350 03ce 70776D63 		.ascii	"pwmcallback_t\000"
 3350      616C6C62 
 3350      61636B5F 
 3350      7400
 3351              	.LASF19:
 3352 03dc 74726566 		.ascii	"trefs_t\000"
 3352      735F7400 
 3353              	.LASF27:
 3354 03e4 705F7072 		.ascii	"p_prev\000"
 3354      657600
 3355              	.LASF21:
 3356 03eb 74707269 		.ascii	"tprio_t\000"
 3356      6F5F7400 
 3357              	.LASF16:
 3358 03f3 5F426F6F 		.ascii	"_Bool\000"
 3358      6C00
 3359              	.LASF9:
 3360 03f9 696E7433 		.ascii	"int32_t\000"
 3360      325F7400 
 3361              	.LASF5:
ARM GAS  /tmp/ccf0DB4f.s 			page 63


 3362 0401 756E7369 		.ascii	"unsigned char\000"
 3362      676E6564 
 3362      20636861 
 3362      7200
 3363              	.LASF95:
 3364 040f 4D757369 		.ascii	"MusicNote\000"
 3364      634E6F74 
 3364      6500
 3365              	.LASF98:
 3366 0419 6E6F7465 		.ascii	"note\000"
 3366      00
 3367              	.LASF42:
 3368 041e 705F6D74 		.ascii	"p_mtxlist\000"
 3368      786C6973 
 3368      7400
 3369              	.LASF6:
 3370 0428 73686F72 		.ascii	"short int\000"
 3370      7420696E 
 3370      7400
 3371              	.LASF33:
 3372 0432 705F7374 		.ascii	"p_state\000"
 3372      61746500 
 3373              	.LASF36:
 3374 043a 705F7072 		.ascii	"p_preempt\000"
 3374      65656D70 
 3374      7400
 3375              	.LASF59:
 3376 0444 65776D61 		.ascii	"ewmask\000"
 3376      736B00
 3377              	.LASF26:
 3378 044b 705F6E65 		.ascii	"p_next\000"
 3378      787400
 3379              	.LASF34:
 3380 0452 705F666C 		.ascii	"p_flags\000"
 3380      61677300 
 3381              	.LASF25:
 3382 045a 54687265 		.ascii	"Thread\000"
 3382      616400
 3383              	.LASF117:
 3384 0461 63684D73 		.ascii	"chMsgRelease\000"
 3384      6752656C 
 3384      65617365 
 3384      00
 3385              	.LASF41:
 3386 046e 705F6570 		.ascii	"p_epending\000"
 3386      656E6469 
 3386      6E6700
 3387              	.LASF115:
 3388 0479 63685468 		.ascii	"chThdSleep\000"
 3388      64536C65 
 3388      657000
 3389              	.LASF11:
 3390 0484 75696E74 		.ascii	"uint32_t\000"
 3390      33325F74 
 3390      00
 3391              	.LASF93:
 3392 048d 50574D43 		.ascii	"PWMConfig\000"
ARM GAS  /tmp/ccf0DB4f.s 			page 64


 3392      6F6E6669 
 3392      6700
 3393              	.LASF20:
 3394 0497 74736C69 		.ascii	"tslices_t\000"
 3394      6365735F 
 3394      7400
 3395              	.LASF12:
 3396 04a1 6C6F6E67 		.ascii	"long unsigned int\000"
 3396      20756E73 
 3396      69676E65 
 3396      6420696E 
 3396      7400
 3397              	.LASF63:
 3398 04b3 50574D5F 		.ascii	"PWM_STOP\000"
 3398      53544F50 
 3398      00
 3399              	.LASF60:
 3400 04bc 63686172 		.ascii	"char\000"
 3400      00
 3401              	.LASF86:
 3402 04c1 6D6F6465 		.ascii	"mode\000"
 3402      00
 3403              	.LASF72:
 3404 04c6 534D4352 		.ascii	"SMCR\000"
 3404      00
 3405              	.LASF68:
 3406 04cb 636F6E66 		.ascii	"config\000"
 3406      696700
 3407              	.LASF78:
 3408 04d2 444D4152 		.ascii	"DMAR\000"
 3408      00
 3409              	.LASF76:
 3410 04d7 43434552 		.ascii	"CCER\000"
 3410      00
 3411              	.LASF55:
 3412 04dc 6D5F6E65 		.ascii	"m_next\000"
 3412      787400
 3413              	.LASF24:
 3414 04e3 73797374 		.ascii	"systime_t\000"
 3414      696D655F 
 3414      7400
 3415              	.LASF43:
 3416 04ed 705F7265 		.ascii	"p_realprio\000"
 3416      616C7072 
 3416      696F00
 3417              	.LASF37:
 3418 04f8 705F7469 		.ascii	"p_time\000"
 3418      6D6500
 3419              	.LASF88:
 3420 04ff 50574D43 		.ascii	"PWMChannelConfig\000"
 3420      68616E6E 
 3420      656C436F 
 3420      6E666967 
 3420      00
 3421              	.LASF49:
 3422 0510 696E7463 		.ascii	"intctx\000"
 3422      747800
ARM GAS  /tmp/ccf0DB4f.s 			page 65


 3423              	.LASF39:
 3424 0517 705F6D73 		.ascii	"p_msgqueue\000"
 3424      67717565 
 3424      756500
 3425              	.LASF121:
 3426 0522 63684D74 		.ascii	"chMtxInit\000"
 3426      78496E69 
 3426      7400
 3427              	.LASF102:
 3428 052c 6D757369 		.ascii	"music_playNotesAsync\000"
 3428      635F706C 
 3428      61794E6F 
 3428      74657341 
 3428      73796E63 
 3429              	.LASF80:
 3430 0541 43435235 		.ascii	"CCR5\000"
 3430      00
 3431              	.LASF81:
 3432 0546 43435236 		.ascii	"CCR6\000"
 3432      00
 3433              	.LASF109:
 3434 054b 5F617379 		.ascii	"_asyncNotes\000"
 3434      6E634E6F 
 3434      74657300 
 3435              	.LASF119:
 3436 0557 63684D73 		.ascii	"chMsgWait\000"
 3436      67576169 
 3436      7400
 3437              	.LASF97:
 3438 0561 6D757369 		.ascii	"music_playNote\000"
 3438      635F706C 
 3438      61794E6F 
 3438      746500
 3439              	.LASF4:
 3440 0570 75696E74 		.ascii	"uint8_t\000"
 3440      385F7400 
 3441              	.LASF66:
 3442 0578 50574D44 		.ascii	"PWMDriver\000"
 3442      72697665 
 3442      7200
 3443              	.LASF65:
 3444 0582 70776D73 		.ascii	"pwmstate_t\000"
 3444      74617465 
 3444      5F7400
 3445              	.LASF99:
 3446 058d 6D757369 		.ascii	"music_playNotes\000"
 3446      635F706C 
 3446      61794E6F 
 3446      74657300 
 3447              	.LASF58:
 3448 059d 77746F62 		.ascii	"wtobjp\000"
 3448      6A7000
 3449              	.LASF32:
 3450 05a4 705F6E61 		.ascii	"p_name\000"
 3450      6D6500
 3451              	.LASF103:
 3452 05ab 5F70776D 		.ascii	"_pwmcfg2\000"
ARM GAS  /tmp/ccf0DB4f.s 			page 66


 3452      63666732 
 3452      00
 3453              	.LASF114:
 3454 05b4 70776D45 		.ascii	"pwmEnableChannel\000"
 3454      6E61626C 
 3454      65436861 
 3454      6E6E656C 
 3454      00
 3455              	.LASF100:
 3456 05c5 6E6F7465 		.ascii	"notes\000"
 3456      7300
 3457              	.LASF70:
 3458 05cb 636C6F63 		.ascii	"clock\000"
 3458      6B00
 3459              	.LASF40:
 3460 05d1 705F6D73 		.ascii	"p_msg\000"
 3460      6700
 3461              	.LASF101:
 3462 05d7 6E756D4E 		.ascii	"numNotes\000"
 3462      6F746573 
 3462      00
 3463              	.LASF62:
 3464 05e0 50574D5F 		.ascii	"PWM_UNINIT\000"
 3464      554E494E 
 3464      495400
 3465              	.LASF54:
 3466 05eb 6D5F6F77 		.ascii	"m_owner\000"
 3466      6E657200 
 3467              	.LASF107:
 3468 05f3 5F62757A 		.ascii	"_buzzerMtx\000"
 3468      7A65724D 
 3468      747800
 3469              	.LASF29:
 3470 05fe 705F6374 		.ascii	"p_ctx\000"
 3470      7800
 3471              	.LASF38:
 3472 0604 705F7761 		.ascii	"p_waiting\000"
 3472      6974696E 
 3472      6700
 3473              	.LASF92:
 3474 060e 64696572 		.ascii	"dier\000"
 3474      00
 3475              		.ident	"GCC: (GNU Tools for ARM Embedded Processors) 4.8.3 20131129 (release) [ARM/embedded-4_8-br
ARM GAS  /tmp/ccf0DB4f.s 			page 67


DEFINED SYMBOLS
                            *ABS*:0000000000000000 music.c
     /tmp/ccf0DB4f.s:20     .text._play_note.part.0:0000000000000000 $t
     /tmp/ccf0DB4f.s:25     .text._play_note.part.0:0000000000000000 _play_note.part.0
     /tmp/ccf0DB4f.s:107    .text._play_note.part.0:000000000000006c $d
     /tmp/ccf0DB4f.s:116    .text.MusicThread:0000000000000000 $t
     /tmp/ccf0DB4f.s:121    .text.MusicThread:0000000000000000 MusicThread
     /tmp/ccf0DB4f.s:204    .text.MusicThread:0000000000000050 $d
     /tmp/ccf0DB4f.s:211    .text._play_note:0000000000000000 $t
     /tmp/ccf0DB4f.s:217    .text._play_note:0000000000000000 _play_note
     /tmp/ccf0DB4f.s:236    .text._music_init:0000000000000000 $t
     /tmp/ccf0DB4f.s:242    .text._music_init:0000000000000000 _music_init
     /tmp/ccf0DB4f.s:277    .text._music_init:0000000000000028 $d
     /tmp/ccf0DB4f.s:285    .text.music_playNote:0000000000000000 $t
     /tmp/ccf0DB4f.s:291    .text.music_playNote:0000000000000000 music_playNote
     /tmp/ccf0DB4f.s:332    .text.music_playNote:0000000000000028 $d
     /tmp/ccf0DB4f.s:337    .text.music_playNotes:0000000000000000 $t
     /tmp/ccf0DB4f.s:343    .text.music_playNotes:0000000000000000 music_playNotes
     /tmp/ccf0DB4f.s:417    .text.music_playNotes:000000000000003c $d
     /tmp/ccf0DB4f.s:422    .text.music_playNotesAsync:0000000000000000 $t
     /tmp/ccf0DB4f.s:428    .text.music_playNotesAsync:0000000000000000 music_playNotesAsync
     /tmp/ccf0DB4f.s:481    .text.music_playNotesAsync:000000000000002c $d
     /tmp/ccf0DB4f.s:497    .bss._asyncNumNotes:0000000000000000 _asyncNumNotes
     /tmp/ccf0DB4f.s:518    .bss._asyncNotes:0000000000000000 _asyncNotes
     /tmp/ccf0DB4f.s:546    .bss._asyncMusicThread:0000000000000000 _asyncMusicThread
     /tmp/ccf0DB4f.s:504    .bss._buzzerMtx:0000000000000000 _buzzerMtx
     /tmp/ccf0DB4f.s:493    .bss._asyncNumNotes:0000000000000000 $d
     /tmp/ccf0DB4f.s:500    .bss._buzzerMtx:0000000000000000 $d
     /tmp/ccf0DB4f.s:507    .bss.waMusicThread:0000000000000000 $d
     /tmp/ccf0DB4f.s:511    .bss.waMusicThread:0000000000000000 waMusicThread
     /tmp/ccf0DB4f.s:514    .bss._asyncNotes:0000000000000000 $d
     /tmp/ccf0DB4f.s:521    .data._pwmcfg2:0000000000000000 $d
     /tmp/ccf0DB4f.s:525    .data._pwmcfg2:0000000000000000 _pwmcfg2
     /tmp/ccf0DB4f.s:542    .bss._asyncMusicThread:0000000000000000 $d
                     .debug_frame:0000000000000010 $d
     /tmp/ccf0DB4f.s:210    .text.MusicThread:000000000000005c $t
     /tmp/ccf0DB4f.s:284    .text._music_init:0000000000000038 $t
     /tmp/ccf0DB4f.s:336    .text.music_playNote:000000000000002c $t
     /tmp/ccf0DB4f.s:492    .text.music_playNotesAsync:000000000000003c $t

UNDEFINED SYMBOLS
pwmDisableChannel
pwmStart
pwmEnableChannel
chThdSleep
pwmStop
PWMD2
chMsgWait
chMsgRelease
chMtxLock
chMtxUnlock
chMtxInit
chThdCreateStatic
chMtxTryLock
chMsgSend
