ARM GAS  /tmp/ccf0DB4f.s 			page 1


   1              		.syntax unified
   2              		.cpu cortex-m4
   3              		.eabi_attribute 27, 3
   4              		.fpu fpv4-sp-d16
   5              		.eabi_attribute 20, 1
   6              		.eabi_attribute 21, 1
   7              		.eabi_attribute 23, 3
   8              		.eabi_attribute 24, 1
   9              		.eabi_attribute 25, 1
  10              		.eabi_attribute 26, 1
  11              		.eabi_attribute 30, 2
  12              		.eabi_attribute 34, 1
  13              		.eabi_attribute 18, 4
  14              		.thumb
  15              		.file	"music.c"
  16              		.text
  17              	.Ltext0:
  18              		.cfi_sections	.debug_frame
  19              		.section	.text._play_note.part.0,"ax",%progbits
  20              		.align	2
  21              		.p2align 4,,15
  22              		.thumb
  23              		.thumb_func
  24              		.type	_play_note.part.0, %function
  25              	_play_note.part.0:
  26              	.LFB125:
  27              		.file 1 "../AithonLibrary/music.c"
  28              		.loc 1 25 0
  29              		.cfi_startproc
  30              		@ args = 0, pretend = 0, frame = 0
  31              		@ frame_needed = 0, uses_anonymous_args = 0
  32              	.LVL0:
  33 0000 70B5     		push	{r4, r5, r6, lr}
  34              		.cfi_def_cfa_offset 16
  35              		.cfi_offset 4, -16
  36              		.cfi_offset 5, -12
  37              		.cfi_offset 6, -8
  38              		.cfi_offset 14, -4
  39              		.loc 1 29 0
  40 0002 1A4C     		ldr	r4, .L2
  41              		.loc 1 25 0
  42 0004 0646     		mov	r6, r0
  43 0006 0D46     		mov	r5, r1
  44              	.LVL1:
  45              		.loc 1 29 0
  46 0008 2046     		mov	r0, r4
  47              	.LVL2:
  48 000a 0121     		movs	r1, #1
  49              	.LVL3:
  50 000c FFF7FEFF 		bl	pwmDisableChannel
  51              	.LVL4:
  52              		.loc 1 30 0
  53 0010 174B     		ldr	r3, .L2+4
  54 0012 184A     		ldr	r2, .L2+8
  55              		.loc 1 31 0
  56 0014 1946     		mov	r1, r3
  57              		.loc 1 30 0
ARM GAS  /tmp/ccf0DB4f.s 			page 2


  58 0016 92FBF6F6 		sdiv	r6, r2, r6
  59              		.loc 1 31 0
  60 001a 2046     		mov	r0, r4
  61              		.loc 1 30 0
  62 001c 9E80     		strh	r6, [r3, #4]	@ movhi
  63              		.loc 1 31 0
  64 001e FFF7FEFF 		bl	pwmStart
  65              	.LVL5:
  66              		.loc 1 32 0
  67 0022 2389     		ldrh	r3, [r4, #8]
  68 0024 144A     		ldr	r2, .L2+12
  69 0026 03EB8303 		add	r3, r3, r3, lsl #2
  70 002a 03EB8303 		add	r3, r3, r3, lsl #2
  71 002e A2FB0312 		umull	r1, r2, r2, r3
  72 0032 C2F34F12 		ubfx	r2, r2, #5, #16
  73 0036 2046     		mov	r0, r4
  74 0038 0121     		movs	r1, #1
  75              		.loc 1 28 0
  76 003a 143D     		subs	r5, r5, #20
  77              	.LVL6:
  78              		.loc 1 32 0
  79 003c FFF7FEFF 		bl	pwmEnableChannel
  80              	.LVL7:
  81              		.loc 1 33 0
  82 0040 ADB2     		uxth	r5, r5
  83              	.LVL8:
  84 0042 4FF47A70 		mov	r0, #1000
  85 0046 0D4B     		ldr	r3, .L2+16
  86 0048 00FB05F0 		mul	r0, r0, r5
  87 004c 0138     		subs	r0, r0, #1
  88 004e A3FB0020 		umull	r2, r0, r3, r0
  89 0052 8009     		lsrs	r0, r0, #6
  90 0054 0130     		adds	r0, r0, #1
  91 0056 FFF7FEFF 		bl	chThdSleep
  92              	.LVL9:
  93              		.loc 1 34 0
  94 005a 2046     		mov	r0, r4
  95 005c FFF7FEFF 		bl	pwmStop
  96              	.LVL10:
  97              		.loc 1 35 0
  98 0060 1420     		movs	r0, #20
  99              		.loc 1 36 0
 100 0062 BDE87040 		pop	{r4, r5, r6, lr}
 101              		.loc 1 35 0
 102 0066 FFF7FEBF 		b	chThdSleep
 103              	.LVL11:
 104              	.L3:
 105 006a 00BF     		.align	2
 106              	.L2:
 107 006c 00000000 		.word	PWMD2
 108 0070 00000000 		.word	.LANCHOR0
 109 0074 40420F00 		.word	1000000
 110 0078 1F85EB51 		.word	1374389535
 111 007c D34D6210 		.word	274877907
 112              		.cfi_endproc
 113              	.LFE125:
 114              		.size	_play_note.part.0, .-_play_note.part.0
ARM GAS  /tmp/ccf0DB4f.s 			page 3


 115              		.section	.text.MusicThread,"ax",%progbits
 116              		.align	2
 117              		.p2align 4,,15
 118              		.thumb
 119              		.thumb_func
 120              		.type	MusicThread, %function
 121              	MusicThread:
 122              	.LFB120:
 123              		.loc 1 40 0
 124              		.cfi_startproc
 125              		@ args = 0, pretend = 0, frame = 0
 126              		@ frame_needed = 0, uses_anonymous_args = 0
 127              	.LVL12:
 128 0000 70B5     		push	{r4, r5, r6, lr}
 129              		.cfi_def_cfa_offset 16
 130              		.cfi_offset 4, -16
 131              		.cfi_offset 5, -12
 132              		.cfi_offset 6, -8
 133              		.cfi_offset 14, -4
 134 0002 134D     		ldr	r5, .L12
 135 0004 134E     		ldr	r6, .L12+4
 136              	.LVL13:
 137              	.L10:
 138              	.LBB9:
 139              		.loc 1 44 0
 140 0006 FFF7FEFF 		bl	chMsgWait
 141              	.LVL14:
 142 000a 0121     		movs	r1, #1
 143 000c FFF7FEFF 		bl	chMsgRelease
 144              	.LVL15:
 145              		.loc 1 45 0
 146 0010 1148     		ldr	r0, .L12+8
 147 0012 FFF7FEFF 		bl	chMtxLock
 148              	.LVL16:
 149              		.loc 1 47 0
 150 0016 2B68     		ldr	r3, [r5]
 151 0018 002B     		cmp	r3, #0
 152 001a 15DD     		ble	.L6
 153 001c 0024     		movs	r4, #0
 154 001e 02E0     		b	.L9
 155              	.LVL17:
 156              	.L7:
 157              		.loc 1 47 0 is_stmt 0 discriminator 2
 158 0020 2B68     		ldr	r3, [r5]
 159 0022 A342     		cmp	r3, r4
 160 0024 10DD     		ble	.L6
 161              	.LVL18:
 162              	.L9:
 163              		.loc 1 49 0 is_stmt 1 discriminator 2
 164 0026 3368     		ldr	r3, [r6]
 165 0028 03EB8402 		add	r2, r3, r4, lsl #2
 166 002c 33F82400 		ldrh	r0, [r3, r4, lsl #2]
 167 0030 5188     		ldrh	r1, [r2, #2]
 168 0032 89B2     		uxth	r1, r1
 169              	.LBB10:
 170              	.LBB11:
 171              		.loc 1 27 0 discriminator 2
ARM GAS  /tmp/ccf0DB4f.s 			page 4


 172 0034 1429     		cmp	r1, #20
 173              	.LBE11:
 174              	.LBE10:
 175              		.loc 1 47 0 discriminator 2
 176 0036 04F10104 		add	r4, r4, #1
 177              	.LVL19:
 178              		.loc 1 49 0 discriminator 2
 179 003a 80B2     		uxth	r0, r0
 180              	.LVL20:
 181              	.LBB13:
 182              	.LBB12:
 183              		.loc 1 27 0 discriminator 2
 184 003c F0D9     		bls	.L7
 185 003e FFF7FEFF 		bl	_play_note.part.0
 186              	.LVL21:
 187              	.LBE12:
 188              	.LBE13:
 189              		.loc 1 47 0
 190 0042 2B68     		ldr	r3, [r5]
 191 0044 A342     		cmp	r3, r4
 192 0046 EEDC     		bgt	.L9
 193              	.LVL22:
 194              	.L6:
 195              		.loc 1 51 0
 196 0048 FFF7FEFF 		bl	chMtxUnlock
 197              	.LVL23:
 198              	.LBE9:
 199              		.loc 1 52 0
 200 004c DBE7     		b	.L10
 201              	.L13:
 202 004e 00BF     		.align	2
 203              	.L12:
 204 0050 00000000 		.word	.LANCHOR2
 205 0054 00000000 		.word	.LANCHOR3
 206 0058 00000000 		.word	.LANCHOR1
 207              		.cfi_endproc
 208              	.LFE120:
 209              		.size	MusicThread, .-MusicThread
 210 005c AFF30080 		.section	.text._play_note,"ax",%progbits
 211              		.align	2
 212              		.p2align 4,,15
 213              		.global	_play_note
 214              		.thumb
 215              		.thumb_func
 216              		.type	_play_note, %function
 217              	_play_note:
 218              	.LFB119:
 219              		.loc 1 26 0
 220              		.cfi_startproc
 221              		@ args = 0, pretend = 0, frame = 0
 222              		@ frame_needed = 0, uses_anonymous_args = 0
 223              		@ link register save eliminated.
 224              	.LVL24:
 225              		.loc 1 27 0
 226 0000 1429     		cmp	r1, #20
 227 0002 00D8     		bhi	.L16
 228 0004 7047     		bx	lr
ARM GAS  /tmp/ccf0DB4f.s 			page 5


 229              	.L16:
 230 0006 FFF7FEBF 		b	_play_note.part.0
 231              	.LVL25:
 232              		.cfi_endproc
 233              	.LFE119:
 234              		.size	_play_note, .-_play_note
 235 000a 00BFAFF3 		.section	.text._music_init,"ax",%progbits
 235      0080
 236              		.align	2
 237              		.p2align 4,,15
 238              		.global	_music_init
 239              		.thumb
 240              		.thumb_func
 241              		.type	_music_init, %function
 242              	_music_init:
 243              	.LFB121:
 244              		.loc 1 57 0
 245              		.cfi_startproc
 246              		@ args = 0, pretend = 0, frame = 0
 247              		@ frame_needed = 0, uses_anonymous_args = 0
 248 0000 00B5     		push	{lr}
 249              		.cfi_def_cfa_offset 4
 250              		.cfi_offset 14, -4
 251              		.loc 1 58 0
 252 0002 0948     		ldr	r0, .L18
 253              		.loc 1 57 0
 254 0004 83B0     		sub	sp, sp, #12
 255              		.cfi_def_cfa_offset 16
 256              		.loc 1 58 0
 257 0006 FFF7FEFF 		bl	chMtxInit
 258              	.LVL26:
 259              		.loc 1 59 0
 260 000a 0023     		movs	r3, #0
 261 000c 0093     		str	r3, [sp]
 262 000e 4FF4DC71 		mov	r1, #440
 263 0012 064B     		ldr	r3, .L18+4
 264 0014 0648     		ldr	r0, .L18+8
 265 0016 7F22     		movs	r2, #127
 266 0018 FFF7FEFF 		bl	chThdCreateStatic
 267              	.LVL27:
 268 001c 054B     		ldr	r3, .L18+12
 269 001e 1860     		str	r0, [r3]
 270              		.loc 1 60 0
 271 0020 03B0     		add	sp, sp, #12
 272              		@ sp needed
 273 0022 5DF804FB 		ldr	pc, [sp], #4
 274              	.L19:
 275 0026 00BF     		.align	2
 276              	.L18:
 277 0028 00000000 		.word	.LANCHOR1
 278 002c 00000000 		.word	MusicThread
 279 0030 00000000 		.word	.LANCHOR4
 280 0034 00000000 		.word	.LANCHOR5
 281              		.cfi_endproc
 282              	.LFE121:
 283              		.size	_music_init, .-_music_init
 284 0038 AFF30080 		.section	.text.music_playNote,"ax",%progbits
ARM GAS  /tmp/ccf0DB4f.s 			page 6


 284      AFF30080 
 285              		.align	2
 286              		.p2align 4,,15
 287              		.global	music_playNote
 288              		.thumb
 289              		.thumb_func
 290              		.type	music_playNote, %function
 291              	music_playNote:
 292              	.LFB122:
 293              		.loc 1 63 0
 294              		.cfi_startproc
 295              		@ args = 0, pretend = 0, frame = 8
 296              		@ frame_needed = 0, uses_anonymous_args = 0
 297 0000 00B5     		push	{lr}
 298              		.cfi_def_cfa_offset 4
 299              		.cfi_offset 14, -4
 300 0002 83B0     		sub	sp, sp, #12
 301              		.cfi_def_cfa_offset 16
 302              		.loc 1 63 0
 303 0004 0190     		str	r0, [sp, #4]
 304              		.loc 1 64 0
 305 0006 0848     		ldr	r0, .L22
 306 0008 FFF7FEFF 		bl	chMtxLock
 307              	.LVL28:
 308              		.loc 1 65 0
 309 000c BDF80610 		ldrh	r1, [sp, #6]
 310 0010 BDF80400 		ldrh	r0, [sp, #4]
 311              	.LVL29:
 312              	.LBB14:
 313              	.LBB15:
 314              		.loc 1 27 0
 315 0014 1429     		cmp	r1, #20
 316 0016 01D9     		bls	.L21
 317 0018 FFF7FEFF 		bl	_play_note.part.0
 318              	.LVL30:
 319              	.L21:
 320              	.LBE15:
 321              	.LBE14:
 322              		.loc 1 67 0
 323 001c 03B0     		add	sp, sp, #12
 324              		@ sp needed
 325 001e 5DF804EB 		ldr	lr, [sp], #4
 326              		.loc 1 66 0
 327 0022 FFF7FEBF 		b	chMtxUnlock
 328              	.LVL31:
 329              	.L23:
 330 0026 00BF     		.align	2
 331              	.L22:
 332 0028 00000000 		.word	.LANCHOR1
 333              		.cfi_endproc
 334              	.LFE122:
 335              		.size	music_playNote, .-music_playNote
 336 002c AFF30080 		.section	.text.music_playNotes,"ax",%progbits
 337              		.align	2
 338              		.p2align 4,,15
 339              		.global	music_playNotes
 340              		.thumb
ARM GAS  /tmp/ccf0DB4f.s 			page 7


 341              		.thumb_func
 342              		.type	music_playNotes, %function
 343              	music_playNotes:
 344              	.LFB123:
 345              		.loc 1 70 0
 346              		.cfi_startproc
 347              		@ args = 0, pretend = 0, frame = 0
 348              		@ frame_needed = 0, uses_anonymous_args = 0
 349              	.LVL32:
 350 0000 F8B5     		push	{r3, r4, r5, r6, r7, lr}
 351              		.cfi_def_cfa_offset 24
 352              		.cfi_offset 3, -24
 353              		.cfi_offset 4, -20
 354              		.cfi_offset 5, -16
 355              		.cfi_offset 6, -12
 356              		.cfi_offset 7, -8
 357              		.cfi_offset 14, -4
 358              		.loc 1 70 0
 359 0002 0F46     		mov	r7, r1
 360 0004 0646     		mov	r6, r0
 361              		.loc 1 71 0
 362 0006 0D48     		ldr	r0, .L29
 363              	.LVL33:
 364 0008 FFF7FEFF 		bl	chMtxLock
 365              	.LVL34:
 366              		.loc 1 73 0
 367 000c 002F     		cmp	r7, #0
 368 000e 11DD     		ble	.L27
 369 0010 0024     		movs	r4, #0
 370 0012 2546     		mov	r5, r4
 371 0014 01E0     		b	.L28
 372              	.LVL35:
 373              	.L26:
 374              		.loc 1 73 0 is_stmt 0 discriminator 2
 375 0016 BD42     		cmp	r5, r7
 376 0018 0CD0     		beq	.L27
 377              	.LVL36:
 378              	.L28:
 379 001a 3319     		adds	r3, r6, r4
 380              		.loc 1 75 0 is_stmt 1 discriminator 2
 381 001c 305B     		ldrh	r0, [r6, r4]
 382              	.LVL37:
 383 001e 5988     		ldrh	r1, [r3, #2]
 384              	.LVL38:
 385              	.LBB16:
 386              	.LBB17:
 387              		.loc 1 27 0 discriminator 2
 388 0020 1429     		cmp	r1, #20
 389              	.LBE17:
 390              	.LBE16:
 391              		.loc 1 73 0 discriminator 2
 392 0022 05F10105 		add	r5, r5, #1
 393              	.LVL39:
 394 0026 04F10404 		add	r4, r4, #4
 395              	.LBB19:
 396              	.LBB18:
 397              		.loc 1 27 0 discriminator 2
ARM GAS  /tmp/ccf0DB4f.s 			page 8


 398 002a F4D9     		bls	.L26
 399 002c FFF7FEFF 		bl	_play_note.part.0
 400              	.LVL40:
 401              	.LBE18:
 402              	.LBE19:
 403              		.loc 1 73 0
 404 0030 BD42     		cmp	r5, r7
 405 0032 F2D1     		bne	.L28
 406              	.LVL41:
 407              	.L27:
 408              		.loc 1 78 0
 409 0034 BDE8F840 		pop	{r3, r4, r5, r6, r7, lr}
 410              	.LVL42:
 411              		.loc 1 77 0
 412 0038 FFF7FEBF 		b	chMtxUnlock
 413              	.LVL43:
 414              	.L30:
 415              		.align	2
 416              	.L29:
 417 003c 00000000 		.word	.LANCHOR1
 418              		.cfi_endproc
 419              	.LFE123:
 420              		.size	music_playNotes, .-music_playNotes
 421              		.section	.text.music_playNotesAsync,"ax",%progbits
 422              		.align	2
 423              		.p2align 4,,15
 424              		.global	music_playNotesAsync
 425              		.thumb
 426              		.thumb_func
 427              		.type	music_playNotesAsync, %function
 428              	music_playNotesAsync:
 429              	.LFB124:
 430              		.loc 1 81 0
 431              		.cfi_startproc
 432              		@ args = 0, pretend = 0, frame = 0
 433              		@ frame_needed = 0, uses_anonymous_args = 0
 434              	.LVL44:
 435 0000 38B5     		push	{r3, r4, r5, lr}
 436              		.cfi_def_cfa_offset 16
 437              		.cfi_offset 3, -16
 438              		.cfi_offset 4, -12
 439              		.cfi_offset 5, -8
 440              		.cfi_offset 14, -4
 441              		.loc 1 81 0
 442 0002 0546     		mov	r5, r0
 443              		.loc 1 83 0
 444 0004 0948     		ldr	r0, .L34
 445              	.LVL45:
 446              		.loc 1 81 0
 447 0006 0C46     		mov	r4, r1
 448              		.loc 1 83 0
 449 0008 FFF7FEFF 		bl	chMtxTryLock
 450              	.LVL46:
 451 000c 00B9     		cbnz	r0, .L33
 452 000e 38BD     		pop	{r3, r4, r5, pc}
 453              	.LVL47:
 454              	.L33:
ARM GAS  /tmp/ccf0DB4f.s 			page 9


 455              		.loc 1 88 0
 456 0010 0749     		ldr	r1, .L34+4
 457              		.loc 1 87 0
 458 0012 084B     		ldr	r3, .L34+8
 459              		.loc 1 86 0
 460 0014 084A     		ldr	r2, .L34+12
 461              		.loc 1 88 0
 462 0016 0868     		ldr	r0, [r1]
 463              		.loc 1 86 0
 464 0018 1560     		str	r5, [r2]
 465              		.loc 1 88 0
 466 001a 0121     		movs	r1, #1
 467              		.loc 1 87 0
 468 001c 1C60     		str	r4, [r3]
 469              		.loc 1 88 0
 470 001e FFF7FEFF 		bl	chMsgSend
 471              	.LVL48:
 472              		.loc 1 90 0
 473 0022 BDE83840 		pop	{r3, r4, r5, lr}
 474              	.LVL49:
 475              		.loc 1 89 0
 476 0026 FFF7FEBF 		b	chMtxUnlock
 477              	.LVL50:
 478              	.L35:
 479 002a 00BF     		.align	2
 480              	.L34:
 481 002c 00000000 		.word	.LANCHOR1
 482 0030 00000000 		.word	.LANCHOR5
 483 0034 00000000 		.word	.LANCHOR2
 484 0038 00000000 		.word	.LANCHOR3
 485              		.cfi_endproc
 486              	.LFE124:
 487              		.size	music_playNotesAsync, .-music_playNotesAsync
 488              		.global	_asyncNumNotes
 489              		.global	_asyncNotes
 490              		.global	_asyncMusicThread
 491              		.global	_buzzerMtx
 492 003c AFF30080 		.section	.bss._asyncNumNotes,"aw",%nobits
 493              		.align	2
 494              		.set	.LANCHOR2,. + 0
 495              		.type	_asyncNumNotes, %object
 496              		.size	_asyncNumNotes, 4
 497              	_asyncNumNotes:
 498 0000 00000000 		.space	4
 499              		.section	.bss._buzzerMtx,"aw",%nobits
 500              		.align	2
 501              		.set	.LANCHOR1,. + 0
 502              		.type	_buzzerMtx, %object
 503              		.size	_buzzerMtx, 16
 504              	_buzzerMtx:
 505 0000 00000000 		.space	16
 505      00000000 
 505      00000000 
 505      00000000 
 506              		.section	.bss.waMusicThread,"aw",%nobits
 507              		.align	3
 508              		.set	.LANCHOR4,. + 0
ARM GAS  /tmp/ccf0DB4f.s 			page 10


 509              		.type	waMusicThread, %object
 510              		.size	waMusicThread, 440
 511              	waMusicThread:
 512 0000 00000000 		.space	440
 512      00000000 
 512      00000000 
 512      00000000 
 512      00000000 
 513              		.section	.bss._asyncNotes,"aw",%nobits
 514              		.align	2
 515              		.set	.LANCHOR3,. + 0
 516              		.type	_asyncNotes, %object
 517              		.size	_asyncNotes, 4
 518              	_asyncNotes:
 519 0000 00000000 		.space	4
 520              		.section	.data._pwmcfg2,"aw",%progbits
 521              		.align	2
 522              		.set	.LANCHOR0,. + 0
 523              		.type	_pwmcfg2, %object
 524              		.size	_pwmcfg2, 56
 525              	_pwmcfg2:
 526 0000 40420F00 		.word	1000000
 527 0004 0100     		.short	1
 528 0006 0000     		.space	2
 529 0008 00000000 		.word	0
 530 000c 00000000 		.word	0
 531 0010 00000000 		.word	0
 532 0014 01000000 		.word	1
 533 0018 00000000 		.word	0
 534 001c 00000000 		.word	0
 535 0020 00000000 		.word	0
 536 0024 00000000 		.word	0
 537 0028 00000000 		.word	0
 538 002c 00000000 		.word	0
 539 0030 00000000 		.word	0
 540 0034 00000000 		.word	0
 541              		.section	.bss._asyncMusicThread,"aw",%nobits
 542              		.align	2
 543              		.set	.LANCHOR5,. + 0
 544              		.type	_asyncMusicThread, %object
 545              		.size	_asyncMusicThread, 4
 546              	_asyncMusicThread:
 547 0000 00000000 		.space	4
 548              		.text
 549              	.Letext0:
 550              		.file 2 "/usr/lib/gcc/arm-none-eabi/4.8.3/include/stddef.h"
 551              		.file 3 "/usr/arm-none-eabi/include/stdint.h"
 552              		.file 4 "../AithonLibrary/ChibiOS/os/ports/GCC/ARMCMx/chtypes.h"
 553              		.file 5 "../AithonLibrary/ChibiOS/os/kernel/include/chlists.h"
 554              		.file 6 "../AithonLibrary/ChibiOS/os/kernel/include/chthreads.h"
 555              		.file 7 "../AithonLibrary/ChibiOS/os/ports/GCC/ARMCMx/chcore_v7m.h"
 556              		.file 8 "../AithonLibrary/ChibiOS/os/kernel/include/chmtx.h"
 557              		.file 9 "../AithonLibrary/ChibiOS/os/hal/include/pwm.h"
 558              		.file 10 "../AithonLibrary/ChibiOS/os/hal/platforms/STM32/TIMv1/pwm_lld.h"
 559              		.file 11 "../AithonLibrary/ChibiOS/os/hal/platforms/STM32/TIMv1/stm32_tim.h"
 560              		.file 12 "../AithonLibrary/music.h"
 561              		.file 13 "../AithonLibrary/ChibiOS/os/ports/common/ARMCMx/CMSIS/include/core_cm4.h"
ARM GAS  /tmp/ccf0DB4f.s 			page 11


 562              		.file 14 "../AithonLibrary/ChibiOS/os/kernel/include/chmsg.h"