ARM GAS  /tmp/ccPmWK7i.s 			page 1


   1              		.syntax unified
   2              		.cpu cortex-m4
   3              		.eabi_attribute 27, 3
   4              		.fpu fpv4-sp-d16
   5              		.eabi_attribute 20, 1
   6              		.eabi_attribute 21, 1
   7              		.eabi_attribute 23, 3
   8              		.eabi_attribute 24, 1
   9              		.eabi_attribute 25, 1
  10              		.eabi_attribute 26, 1
  11              		.eabi_attribute 30, 2
  12              		.eabi_attribute 34, 1
  13              		.eabi_attribute 18, 4
  14              		.thumb
  15              		.file	"pal.c"
  16              		.text
  17              	.Ltext0:
  18              		.cfi_sections	.debug_frame
  19              		.section	.text.palReadBus,"ax",%progbits
  20              		.align	2
  21              		.p2align 4,,15
  22              		.global	palReadBus
  23              		.thumb
  24              		.thumb_func
  25              		.type	palReadBus, %function
  26              	palReadBus:
  27              	.LFB118:
  28              		.file 1 "../AithonLibrary/ChibiOS/os/hal/src/pal.c"
  29              		.loc 1 77 0
  30              		.cfi_startproc
  31              		@ args = 0, pretend = 0, frame = 0
  32              		@ frame_needed = 0, uses_anonymous_args = 0
  33              		@ link register save eliminated.
  34              	.LVL0:
  35              		.loc 1 82 0
  36 0000 0368     		ldr	r3, [r0]
  37 0002 8268     		ldr	r2, [r0, #8]
  38 0004 1969     		ldr	r1, [r3, #16]
  39 0006 4368     		ldr	r3, [r0, #4]
  40 0008 21FA02F0 		lsr	r0, r1, r2
  41              	.LVL1:
  42              		.loc 1 83 0
  43 000c 1840     		ands	r0, r0, r3
  44 000e 7047     		bx	lr
  45              		.cfi_endproc
  46              	.LFE118:
  47              		.size	palReadBus, .-palReadBus
  48              		.section	.text.palWriteBus,"ax",%progbits
  49              		.align	2
  50              		.p2align 4,,15
  51              		.global	palWriteBus
  52              		.thumb
  53              		.thumb_func
  54              		.type	palWriteBus, %function
  55              	palWriteBus:
  56              	.LFB119:
  57              		.loc 1 103 0
ARM GAS  /tmp/ccPmWK7i.s 			page 2


  58              		.cfi_startproc
  59              		@ args = 0, pretend = 0, frame = 0
  60              		@ frame_needed = 0, uses_anonymous_args = 0
  61              		@ link register save eliminated.
  62              	.LVL2:
  63              		.loc 1 108 0
  64 0000 0DC8     		ldmia	r0, {r0, r2, r3}
  65              	.LVL3:
  66              		.loc 1 103 0
  67 0002 30B4     		push	{r4, r5}
  68              		.cfi_def_cfa_offset 8
  69              		.cfi_offset 4, -8
  70              		.cfi_offset 5, -4
  71              		.loc 1 108 0
  72 0004 22EA0105 		bic	r5, r2, r1
  73 0008 03F11004 		add	r4, r3, #16
  74 000c 0A40     		ands	r2, r2, r1
  75 000e 02FA03F3 		lsl	r3, r2, r3
  76 0012 05FA04F2 		lsl	r2, r5, r4
  77 0016 1343     		orrs	r3, r3, r2
  78 0018 8361     		str	r3, [r0, #24]
  79              		.loc 1 109 0
  80 001a 30BC     		pop	{r4, r5}
  81 001c 7047     		bx	lr
  82              		.cfi_endproc
  83              	.LFE119:
  84              		.size	palWriteBus, .-palWriteBus
  85 001e 00BF     		.section	.text.palSetBusMode,"ax",%progbits
  86              		.align	2
  87              		.p2align 4,,15
  88              		.global	palSetBusMode
  89              		.thumb
  90              		.thumb_func
  91              		.type	palSetBusMode, %function
  92              	palSetBusMode:
  93              	.LFB120:
  94              		.loc 1 127 0
  95              		.cfi_startproc
  96              		@ args = 0, pretend = 0, frame = 0
  97              		@ frame_needed = 0, uses_anonymous_args = 0
  98              		@ link register save eliminated.
  99              	.LVL4:
 100 0000 10B4     		push	{r4}
 101              		.cfi_def_cfa_offset 4
 102              		.cfi_offset 4, -4
 103              		.loc 1 127 0
 104 0002 0A46     		mov	r2, r1
 105              		.loc 1 132 0
 106 0004 4468     		ldr	r4, [r0, #4]
 107 0006 8168     		ldr	r1, [r0, #8]
 108              	.LVL5:
 109 0008 0068     		ldr	r0, [r0]
 110              	.LVL6:
 111 000a 04FA01F1 		lsl	r1, r4, r1
 112              		.loc 1 133 0
 113 000e 5DF8044B 		ldr	r4, [sp], #4
 114              		.loc 1 132 0
ARM GAS  /tmp/ccPmWK7i.s 			page 3


 115 0012 FFF7FEBF 		b	_pal_lld_setgroupmode
 116              	.LVL7:
 117              		.cfi_endproc
 118              	.LFE120:
 119              		.size	palSetBusMode, .-palSetBusMode
 120 0016 00BFAFF3 		.text
 120      0080AFF3 
 120      0080
 121              	.Letext0:
 122              		.file 2 "/usr/arm-none-eabi/include/stdint.h"
 123              		.file 3 "../AithonLibrary/ChibiOS/os/hal/platforms/STM32/GPIOv2/pal_lld.h"
 124              		.file 4 "../AithonLibrary/ChibiOS/os/hal/include/pal.h"
 125              		.file 5 "../AithonLibrary/ChibiOS/os/ports/common/ARMCMx/CMSIS/include/core_cm4.h"