ARM GAS  /tmp/cc2qOxRh.s 			page 1


   1              		.syntax unified
   2              		.cpu cortex-m4
   3              		.eabi_attribute 27, 3
   4              		.fpu fpv4-sp-d16
   5              		.eabi_attribute 20, 1
   6              		.eabi_attribute 21, 1
   7              		.eabi_attribute 23, 3
   8              		.eabi_attribute 24, 1
   9              		.eabi_attribute 25, 1
  10              		.eabi_attribute 26, 1
  11              		.eabi_attribute 30, 2
  12              		.eabi_attribute 34, 1
  13              		.eabi_attribute 18, 4
  14              		.thumb
  15              		.file	"pal_lld.c"
  16              		.text
  17              	.Ltext0:
  18              		.cfi_sections	.debug_frame
  19              		.section	.text._pal_lld_init,"ax",%progbits
  20              		.align	2
  21              		.p2align 4,,15
  22              		.global	_pal_lld_init
  23              		.thumb
  24              		.thumb_func
  25              		.type	_pal_lld_init, %function
  26              	_pal_lld_init:
  27              	.LFB119:
  28              		.file 1 "../AithonLibrary/ChibiOS/os/hal/platforms/STM32/GPIOv2/pal_lld.c"
  29              		.loc 1 113 0
  30              		.cfi_startproc
  31              		@ args = 0, pretend = 0, frame = 0
  32              		@ frame_needed = 0, uses_anonymous_args = 0
  33              		@ link register save eliminated.
  34              	.LVL0:
  35 0000 2DE9F00F 		push	{r4, r5, r6, r7, r8, r9, r10, fp}
  36              		.cfi_def_cfa_offset 32
  37              		.cfi_offset 4, -32
  38              		.cfi_offset 5, -28
  39              		.cfi_offset 6, -24
  40              		.cfi_offset 7, -20
  41              		.cfi_offset 8, -16
  42              		.cfi_offset 9, -12
  43              		.cfi_offset 10, -8
  44              		.cfi_offset 11, -4
  45              		.loc 1 126 0
  46 0004 DFF8AC91 		ldr	r9, .L2+28
  47              	.LBB20:
  48              	.LBB21:
  49              		.loc 1 88 0
  50 0008 DFF8AC81 		ldr	r8, .L2+32
  51              	.LBE21:
  52              	.LBE20:
  53              		.loc 1 126 0
  54 000c D9F830B0 		ldr	fp, [r9, #48]
  55              	.LBB23:
  56              	.LBB24:
  57              		.loc 1 88 0
ARM GAS  /tmp/cc2qOxRh.s 			page 2


  58 0010 DFF8A8C1 		ldr	ip, .L2+36
  59              	.LBE24:
  60              	.LBE23:
  61              	.LBB26:
  62              	.LBB27:
  63 0014 604F     		ldr	r7, .L2
  64              	.LBE27:
  65              	.LBE26:
  66              	.LBB29:
  67              	.LBB30:
  68 0016 614E     		ldr	r6, .L2+4
  69              	.LBE30:
  70              	.LBE29:
  71              	.LBB32:
  72              	.LBB33:
  73 0018 614D     		ldr	r5, .L2+8
  74              	.LBE33:
  75              	.LBE32:
  76              	.LBB35:
  77              	.LBB36:
  78 001a 624C     		ldr	r4, .L2+12
  79              	.LBE36:
  80              	.LBE35:
  81              	.LBB38:
  82              	.LBB39:
  83 001c 6249     		ldr	r1, .L2+16
  84              	.LBE39:
  85              	.LBE38:
  86              	.LBB41:
  87              	.LBB42:
  88 001e 634A     		ldr	r2, .L2+20
  89              	.LBE42:
  90              	.LBE41:
  91              		.loc 1 126 0
  92 0020 40F2FF1A 		movw	r10, #511
  93 0024 4BEA0A0B 		orr	fp, fp, r10
  94 0028 C9F830B0 		str	fp, [r9, #48]
  95              		.loc 1 127 0
  96 002c D9F850B0 		ldr	fp, [r9, #80]
  97 0030 4BEA0A0A 		orr	r10, fp, r10
  98 0034 C9F850A0 		str	r10, [r9, #80]
  99              	.LVL1:
 100              	.LBB44:
 101              	.LBB22:
 102              		.loc 1 88 0
 103 0038 4368     		ldr	r3, [r0, #4]
 104 003a C8F80430 		str	r3, [r8, #4]
 105              		.loc 1 89 0
 106 003e 8368     		ldr	r3, [r0, #8]
 107 0040 C8F80830 		str	r3, [r8, #8]
 108              		.loc 1 90 0
 109 0044 C368     		ldr	r3, [r0, #12]
 110 0046 C8F80C30 		str	r3, [r8, #12]
 111              		.loc 1 91 0
 112 004a 0369     		ldr	r3, [r0, #16]
 113 004c C8F81430 		str	r3, [r8, #20]
 114              		.loc 1 92 0
ARM GAS  /tmp/cc2qOxRh.s 			page 3


 115 0050 4369     		ldr	r3, [r0, #20]
 116 0052 C8F82030 		str	r3, [r8, #32]
 117              		.loc 1 93 0
 118 0056 8369     		ldr	r3, [r0, #24]
 119 0058 C8F82430 		str	r3, [r8, #36]
 120              		.loc 1 94 0
 121 005c 0368     		ldr	r3, [r0]
 122 005e C8F80030 		str	r3, [r8]
 123              	.LVL2:
 124              	.LBE22:
 125              	.LBE44:
 126              	.LBB45:
 127              	.LBB25:
 128              		.loc 1 88 0
 129 0062 036A     		ldr	r3, [r0, #32]
 130 0064 CCF80430 		str	r3, [ip, #4]
 131              		.loc 1 89 0
 132 0068 436A     		ldr	r3, [r0, #36]
 133 006a CCF80830 		str	r3, [ip, #8]
 134              		.loc 1 90 0
 135 006e 836A     		ldr	r3, [r0, #40]
 136 0070 CCF80C30 		str	r3, [ip, #12]
 137              		.loc 1 91 0
 138 0074 C36A     		ldr	r3, [r0, #44]
 139 0076 CCF81430 		str	r3, [ip, #20]
 140              		.loc 1 92 0
 141 007a 036B     		ldr	r3, [r0, #48]
 142 007c CCF82030 		str	r3, [ip, #32]
 143              		.loc 1 93 0
 144 0080 436B     		ldr	r3, [r0, #52]
 145 0082 CCF82430 		str	r3, [ip, #36]
 146              		.loc 1 94 0
 147 0086 C369     		ldr	r3, [r0, #28]
 148 0088 CCF80030 		str	r3, [ip]
 149              	.LVL3:
 150              	.LBE25:
 151              	.LBE45:
 152              	.LBB46:
 153              	.LBB28:
 154              		.loc 1 88 0
 155 008c C36B     		ldr	r3, [r0, #60]
 156 008e 7B60     		str	r3, [r7, #4]
 157              		.loc 1 89 0
 158 0090 036C     		ldr	r3, [r0, #64]
 159 0092 BB60     		str	r3, [r7, #8]
 160              		.loc 1 90 0
 161 0094 436C     		ldr	r3, [r0, #68]
 162 0096 FB60     		str	r3, [r7, #12]
 163              		.loc 1 91 0
 164 0098 836C     		ldr	r3, [r0, #72]
 165 009a 7B61     		str	r3, [r7, #20]
 166              		.loc 1 92 0
 167 009c C36C     		ldr	r3, [r0, #76]
 168 009e 3B62     		str	r3, [r7, #32]
 169              		.loc 1 93 0
 170 00a0 036D     		ldr	r3, [r0, #80]
 171 00a2 7B62     		str	r3, [r7, #36]
ARM GAS  /tmp/cc2qOxRh.s 			page 4


 172              		.loc 1 94 0
 173 00a4 836B     		ldr	r3, [r0, #56]
 174 00a6 3B60     		str	r3, [r7]
 175              	.LVL4:
 176              	.LBE28:
 177              	.LBE46:
 178              	.LBB47:
 179              	.LBB31:
 180              		.loc 1 88 0
 181 00a8 876D     		ldr	r7, [r0, #88]
 182 00aa 7760     		str	r7, [r6, #4]
 183              		.loc 1 89 0
 184 00ac C76D     		ldr	r7, [r0, #92]
 185 00ae B760     		str	r7, [r6, #8]
 186              		.loc 1 90 0
 187 00b0 076E     		ldr	r7, [r0, #96]
 188 00b2 F760     		str	r7, [r6, #12]
 189              		.loc 1 91 0
 190 00b4 476E     		ldr	r7, [r0, #100]
 191 00b6 7761     		str	r7, [r6, #20]
 192              		.loc 1 92 0
 193 00b8 876E     		ldr	r7, [r0, #104]
 194 00ba 3762     		str	r7, [r6, #32]
 195              		.loc 1 93 0
 196 00bc C76E     		ldr	r7, [r0, #108]
 197 00be 7762     		str	r7, [r6, #36]
 198              		.loc 1 94 0
 199 00c0 476D     		ldr	r7, [r0, #84]
 200 00c2 3760     		str	r7, [r6]
 201              	.LVL5:
 202              	.LBE31:
 203              	.LBE47:
 204              	.LBB48:
 205              	.LBB34:
 206              		.loc 1 88 0
 207 00c4 466F     		ldr	r6, [r0, #116]
 208 00c6 6E60     		str	r6, [r5, #4]
 209              		.loc 1 89 0
 210 00c8 866F     		ldr	r6, [r0, #120]
 211 00ca AE60     		str	r6, [r5, #8]
 212              		.loc 1 90 0
 213 00cc C66F     		ldr	r6, [r0, #124]
 214 00ce EE60     		str	r6, [r5, #12]
 215              		.loc 1 91 0
 216 00d0 D0F88060 		ldr	r6, [r0, #128]
 217 00d4 6E61     		str	r6, [r5, #20]
 218              		.loc 1 92 0
 219 00d6 D0F88460 		ldr	r6, [r0, #132]
 220 00da 2E62     		str	r6, [r5, #32]
 221              		.loc 1 93 0
 222 00dc D0F88860 		ldr	r6, [r0, #136]
 223 00e0 6E62     		str	r6, [r5, #36]
 224              		.loc 1 94 0
 225 00e2 066F     		ldr	r6, [r0, #112]
 226 00e4 2E60     		str	r6, [r5]
 227              	.LVL6:
 228              	.LBE34:
ARM GAS  /tmp/cc2qOxRh.s 			page 5


 229              	.LBE48:
 230              	.LBB49:
 231              	.LBB37:
 232              		.loc 1 88 0
 233 00e6 D0F89050 		ldr	r5, [r0, #144]
 234 00ea 6560     		str	r5, [r4, #4]
 235              		.loc 1 89 0
 236 00ec D0F89450 		ldr	r5, [r0, #148]
 237 00f0 A560     		str	r5, [r4, #8]
 238              		.loc 1 90 0
 239 00f2 D0F89850 		ldr	r5, [r0, #152]
 240 00f6 E560     		str	r5, [r4, #12]
 241              		.loc 1 91 0
 242 00f8 D0F89C50 		ldr	r5, [r0, #156]
 243 00fc 6561     		str	r5, [r4, #20]
 244              		.loc 1 92 0
 245 00fe D0F8A050 		ldr	r5, [r0, #160]
 246 0102 2562     		str	r5, [r4, #32]
 247              		.loc 1 93 0
 248 0104 D0F8A450 		ldr	r5, [r0, #164]
 249 0108 6562     		str	r5, [r4, #36]
 250              		.loc 1 94 0
 251 010a D0F88C50 		ldr	r5, [r0, #140]
 252 010e 2560     		str	r5, [r4]
 253              	.LVL7:
 254              	.LBE37:
 255              	.LBE49:
 256              	.LBB50:
 257              	.LBB40:
 258              		.loc 1 88 0
 259 0110 D0F8AC40 		ldr	r4, [r0, #172]
 260 0114 4C60     		str	r4, [r1, #4]
 261              		.loc 1 89 0
 262 0116 D0F8B040 		ldr	r4, [r0, #176]
 263 011a 8C60     		str	r4, [r1, #8]
 264              		.loc 1 90 0
 265 011c D0F8B440 		ldr	r4, [r0, #180]
 266 0120 CC60     		str	r4, [r1, #12]
 267              		.loc 1 91 0
 268 0122 D0F8B840 		ldr	r4, [r0, #184]
 269 0126 4C61     		str	r4, [r1, #20]
 270              		.loc 1 92 0
 271 0128 D0F8BC40 		ldr	r4, [r0, #188]
 272 012c 0C62     		str	r4, [r1, #32]
 273              		.loc 1 93 0
 274 012e D0F8C040 		ldr	r4, [r0, #192]
 275 0132 4C62     		str	r4, [r1, #36]
 276              		.loc 1 94 0
 277 0134 D0F8A840 		ldr	r4, [r0, #168]
 278 0138 0C60     		str	r4, [r1]
 279              	.LVL8:
 280              	.LBE40:
 281              	.LBE50:
 282              	.LBB51:
 283              	.LBB43:
 284              		.loc 1 88 0
 285 013a D0F8C810 		ldr	r1, [r0, #200]
ARM GAS  /tmp/cc2qOxRh.s 			page 6


 286 013e 5160     		str	r1, [r2, #4]
 287              		.loc 1 89 0
 288 0140 D0F8CC10 		ldr	r1, [r0, #204]
 289 0144 9160     		str	r1, [r2, #8]
 290              		.loc 1 90 0
 291 0146 D0F8D010 		ldr	r1, [r0, #208]
 292 014a D160     		str	r1, [r2, #12]
 293              		.loc 1 91 0
 294 014c D0F8D410 		ldr	r1, [r0, #212]
 295 0150 5161     		str	r1, [r2, #20]
 296              		.loc 1 92 0
 297 0152 D0F8D810 		ldr	r1, [r0, #216]
 298 0156 1162     		str	r1, [r2, #32]
 299              		.loc 1 93 0
 300 0158 D0F8DC10 		ldr	r1, [r0, #220]
 301 015c 5162     		str	r1, [r2, #36]
 302              		.loc 1 94 0
 303 015e D0F8C410 		ldr	r1, [r0, #196]
 304 0162 1160     		str	r1, [r2]
 305              	.LVL9:
 306              	.LBE43:
 307              	.LBE51:
 308              	.LBB52:
 309              	.LBB53:
 310              		.loc 1 88 0
 311 0164 124B     		ldr	r3, .L2+24
 312 0166 D0F8E420 		ldr	r2, [r0, #228]
 313 016a 5A60     		str	r2, [r3, #4]
 314              		.loc 1 89 0
 315 016c D0F8E820 		ldr	r2, [r0, #232]
 316 0170 9A60     		str	r2, [r3, #8]
 317              		.loc 1 90 0
 318 0172 D0F8EC20 		ldr	r2, [r0, #236]
 319 0176 DA60     		str	r2, [r3, #12]
 320              		.loc 1 91 0
 321 0178 D0F8F020 		ldr	r2, [r0, #240]
 322 017c 5A61     		str	r2, [r3, #20]
 323              		.loc 1 92 0
 324 017e D0F8F420 		ldr	r2, [r0, #244]
 325 0182 1A62     		str	r2, [r3, #32]
 326              		.loc 1 93 0
 327 0184 D0F8F820 		ldr	r2, [r0, #248]
 328 0188 5A62     		str	r2, [r3, #36]
 329              		.loc 1 94 0
 330 018a D0F8E020 		ldr	r2, [r0, #224]
 331 018e 1A60     		str	r2, [r3]
 332              	.LBE53:
 333              	.LBE52:
 334              		.loc 1 160 0
 335 0190 BDE8F00F 		pop	{r4, r5, r6, r7, r8, r9, r10, fp}
 336 0194 7047     		bx	lr
 337              	.L3:
 338 0196 00BF     		.align	2
 339              	.L2:
 340 0198 00080240 		.word	1073874944
 341 019c 000C0240 		.word	1073875968
 342 01a0 00100240 		.word	1073876992
ARM GAS  /tmp/cc2qOxRh.s 			page 7


 343 01a4 00140240 		.word	1073878016
 344 01a8 00180240 		.word	1073879040
 345 01ac 001C0240 		.word	1073880064
 346 01b0 00200240 		.word	1073881088
 347 01b4 00380240 		.word	1073887232
 348 01b8 00000240 		.word	1073872896
 349 01bc 00040240 		.word	1073873920
 350              		.cfi_endproc
 351              	.LFE119:
 352              		.size	_pal_lld_init, .-_pal_lld_init
 353              		.section	.text._pal_lld_setgroupmode,"ax",%progbits
 354              		.align	2
 355              		.p2align 4,,15
 356              		.global	_pal_lld_setgroupmode
 357              		.thumb
 358              		.thumb_func
 359              		.type	_pal_lld_setgroupmode, %function
 360              	_pal_lld_setgroupmode:
 361              	.LFB120:
 362              		.loc 1 178 0
 363              		.cfi_startproc
 364              		@ args = 0, pretend = 0, frame = 0
 365              		@ frame_needed = 0, uses_anonymous_args = 0
 366              		@ link register save eliminated.
 367              	.LVL10:
 368 0000 2DE9F00F 		push	{r4, r5, r6, r7, r8, r9, r10, fp}
 369              		.cfi_def_cfa_offset 32
 370              		.cfi_offset 4, -32
 371              		.cfi_offset 5, -28
 372              		.cfi_offset 6, -24
 373              		.cfi_offset 7, -20
 374              		.cfi_offset 8, -16
 375              		.cfi_offset 9, -12
 376              		.cfi_offset 10, -8
 377              		.cfi_offset 11, -4
 378              		.loc 1 185 0
 379 0004 0023     		movs	r3, #0
 380              		.loc 1 180 0
 381 0006 02F00307 		and	r7, r2, #3
 382              	.LVL11:
 383              		.loc 1 181 0
 384 000a C2F38006 		ubfx	r6, r2, #2, #1
 385              	.LVL12:
 386              		.loc 1 182 0
 387 000e C2F3C105 		ubfx	r5, r2, #3, #2
 388              	.LVL13:
 389              		.loc 1 183 0
 390 0012 C2F34114 		ubfx	r4, r2, #5, #2
 391              	.LVL14:
 392              	.LBB54:
 393              		.loc 1 191 0
 394 0016 4FF00F09 		mov	r9, #15
 395              	.LBE54:
 396              		.loc 1 184 0
 397 001a C2F3C312 		ubfx	r2, r2, #7, #4
 398              	.LVL15:
 399              	.LBB55:
ARM GAS  /tmp/cc2qOxRh.s 			page 8


 400              		.loc 1 196 0
 401 001e 4FF0010A 		mov	r10, #1
 402 0022 38E0     		b	.L9
 403              	.LVL16:
 404              	.L14:
 405              		.loc 1 193 0
 406 0024 D0F820B0 		ldr	fp, [r0, #32]
 407 0028 2BEA0C0C 		bic	ip, fp, ip
 408              	.LVL17:
 409 002c 4CEA0808 		orr	r8, ip, r8
 410              	.LVL18:
 411 0030 C0F82080 		str	r8, [r0, #32]
 412              	.L7:
 413              	.LVL19:
 414              		.loc 1 197 0
 415 0034 D0F804C0 		ldr	ip, [r0, #4]
 416              		.loc 1 196 0
 417 0038 0AFA03F8 		lsl	r8, r10, r3
 418              		.loc 1 197 0
 419 003c 2CEA080C 		bic	ip, ip, r8
 420 0040 4CEA060C 		orr	ip, ip, r6
 421 0044 C0F804C0 		str	ip, [r0, #4]
 422              	.LVL20:
 423              		.loc 1 198 0
 424 0048 4FF0030B 		mov	fp, #3
 425 004c 4FEA430C 		lsl	ip, r3, #1
 426              		.loc 1 199 0
 427 0050 D0F80880 		ldr	r8, [r0, #8]
 428              		.loc 1 198 0
 429 0054 0BFA0CFC 		lsl	ip, fp, ip
 430              	.LVL21:
 431              		.loc 1 199 0
 432 0058 6FEA0C0C 		mvn	ip, ip
 433              	.LVL22:
 434 005c 0CEA0808 		and	r8, ip, r8
 435 0060 48EA0508 		orr	r8, r8, r5
 436 0064 C0F80880 		str	r8, [r0, #8]
 437              		.loc 1 200 0
 438 0068 D0F80C80 		ldr	r8, [r0, #12]
 439 006c 0CEA0808 		and	r8, ip, r8
 440 0070 48EA0408 		orr	r8, r8, r4
 441 0074 C0F80C80 		str	r8, [r0, #12]
 442              		.loc 1 201 0
 443 0078 D0F80080 		ldr	r8, [r0]
 444 007c 0CEA080C 		and	ip, ip, r8
 445              	.LVL23:
 446 0080 4CEA070C 		orr	ip, ip, r7
 447 0084 C0F800C0 		str	ip, [r0]
 448              	.LVL24:
 449              	.L5:
 450              	.LBE55:
 451              		.loc 1 204 0
 452 0088 4908     		lsrs	r1, r1, #1
 453              	.LVL25:
 454 008a 1AD0     		beq	.L4
 455              		.loc 1 206 0
 456 008c 7600     		lsls	r6, r6, #1
ARM GAS  /tmp/cc2qOxRh.s 			page 9


 457              	.LVL26:
 458              		.loc 1 207 0
 459 008e AD00     		lsls	r5, r5, #2
 460              	.LVL27:
 461              		.loc 1 208 0
 462 0090 A400     		lsls	r4, r4, #2
 463              	.LVL28:
 464              		.loc 1 209 0
 465 0092 BF00     		lsls	r7, r7, #2
 466              	.LVL29:
 467              		.loc 1 210 0
 468 0094 0133     		adds	r3, r3, #1
 469              	.LVL30:
 470              	.L9:
 471              	.LBB56:
 472              		.loc 1 190 0
 473 0096 03F0070C 		and	ip, r3, #7
 474 009a 4FEA8C0C 		lsl	ip, ip, #2
 475              	.LBE56:
 476              		.loc 1 187 0
 477 009e 11F0010F 		tst	r1, #1
 478              	.LBB57:
 479              		.loc 1 190 0
 480 00a2 02FA0CF8 		lsl	r8, r2, ip
 481              	.LVL31:
 482              		.loc 1 191 0
 483 00a6 09FA0CFC 		lsl	ip, r9, ip
 484              	.LVL32:
 485              	.LBE57:
 486              		.loc 1 187 0
 487 00aa EDD0     		beq	.L5
 488              	.LBB58:
 489              		.loc 1 192 0
 490 00ac 072B     		cmp	r3, #7
 491 00ae B9D9     		bls	.L14
 492              		.loc 1 195 0
 493 00b0 D0F824B0 		ldr	fp, [r0, #36]
 494 00b4 2BEA0C0C 		bic	ip, fp, ip
 495              	.LVL33:
 496 00b8 4CEA0808 		orr	r8, ip, r8
 497              	.LVL34:
 498 00bc C0F82480 		str	r8, [r0, #36]
 499 00c0 B8E7     		b	.L7
 500              	.L4:
 501              	.LBE58:
 502              		.loc 1 212 0
 503 00c2 BDE8F00F 		pop	{r4, r5, r6, r7, r8, r9, r10, fp}
 504              	.LVL35:
 505 00c6 7047     		bx	lr
 506              		.cfi_endproc
 507              	.LFE120:
 508              		.size	_pal_lld_setgroupmode, .-_pal_lld_setgroupmode
 509 00c8 AFF30080 		.text
 509      AFF30080 
 510              	.Letext0:
 511              		.file 2 "/usr/arm-none-eabi/include/stdint.h"
 512              		.file 3 "../AithonLibrary/ChibiOS/os/hal/platforms/STM32F4xx/stm32f4xx.h"
ARM GAS  /tmp/cc2qOxRh.s 			page 10


 513              		.file 4 "../AithonLibrary/ChibiOS/os/hal/platforms/STM32/GPIOv2/pal_lld.h"
 514              		.file 5 "../AithonLibrary/ChibiOS/os/ports/common/ARMCMx/CMSIS/include/core_cm4.h"
 515              		.section	.debug_info,"",%progbits
 516              	.Ldebug_info0:
 517 0000 DF060000 		.4byte	0x6df
 518 0004 0400     		.2byte	0x4
 519 0006 00000000 		.4byte	.Ldebug_abbrev0
 520 000a 04       		.byte	0x4
 521 000b 01       		.uleb128 0x1
 522 000c 5F020000 		.4byte	.LASF84
 523 0010 01       		.byte	0x1
 524 0011 19010000 		.4byte	.LASF85
 525 0015 82010000 		.4byte	.LASF86
 526 0019 F0000000 		.4byte	.Ldebug_ranges0+0xf0
 527 001d 00000000 		.4byte	0
 528 0021 00000000 		.4byte	.Ldebug_line0
 529 0025 02       		.uleb128 0x2
 530 0026 04       		.byte	0x4
 531 0027 05       		.byte	0x5
 532 0028 696E7400 		.ascii	"int\000"
 533 002c 03       		.uleb128 0x3
 534 002d 04       		.byte	0x4
 535 002e 07       		.byte	0x7
 536 002f 57040000 		.4byte	.LASF0
 537 0033 03       		.uleb128 0x3
 538 0034 01       		.byte	0x1
 539 0035 06       		.byte	0x6
 540 0036 D4010000 		.4byte	.LASF1
 541 003a 03       		.uleb128 0x3
 542 003b 01       		.byte	0x1
 543 003c 08       		.byte	0x8
 544 003d BE010000 		.4byte	.LASF2
 545 0041 03       		.uleb128 0x3
 546 0042 02       		.byte	0x2
 547 0043 05       		.byte	0x5
 548 0044 60000000 		.4byte	.LASF3
 549 0048 04       		.uleb128 0x4
 550 0049 10020000 		.4byte	.LASF5
 551 004d 02       		.byte	0x2
 552 004e 36       		.byte	0x36
 553 004f 53000000 		.4byte	0x53
 554 0053 03       		.uleb128 0x3
 555 0054 02       		.byte	0x2
 556 0055 07       		.byte	0x7
 557 0056 3D020000 		.4byte	.LASF4
 558 005a 04       		.uleb128 0x4
 559 005b 7A030000 		.4byte	.LASF6
 560 005f 02       		.byte	0x2
 561 0060 4F       		.byte	0x4f
 562 0061 65000000 		.4byte	0x65
 563 0065 03       		.uleb128 0x3
 564 0066 04       		.byte	0x4
 565 0067 05       		.byte	0x5
 566 0068 10010000 		.4byte	.LASF7
 567 006c 04       		.uleb128 0x4
 568 006d F7010000 		.4byte	.LASF8
 569 0071 02       		.byte	0x2
ARM GAS  /tmp/cc2qOxRh.s 			page 11


 570 0072 50       		.byte	0x50
 571 0073 77000000 		.4byte	0x77
 572 0077 03       		.uleb128 0x3
 573 0078 04       		.byte	0x4
 574 0079 07       		.byte	0x7
 575 007a 19020000 		.4byte	.LASF9
 576 007e 03       		.uleb128 0x3
 577 007f 08       		.byte	0x8
 578 0080 05       		.byte	0x5
 579 0081 F4000000 		.4byte	.LASF10
 580 0085 03       		.uleb128 0x3
 581 0086 08       		.byte	0x8
 582 0087 07       		.byte	0x7
 583 0088 E0010000 		.4byte	.LASF11
 584 008c 03       		.uleb128 0x3
 585 008d 01       		.byte	0x1
 586 008e 02       		.byte	0x2
 587 008f 8C030000 		.4byte	.LASF12
 588 0093 05       		.uleb128 0x5
 589 0094 6C000000 		.4byte	0x6c
 590 0098 03       		.uleb128 0x3
 591 0099 04       		.byte	0x4
 592 009a 07       		.byte	0x7
 593 009b 73000000 		.4byte	.LASF13
 594 009f 03       		.uleb128 0x3
 595 00a0 01       		.byte	0x1
 596 00a1 08       		.byte	0x8
 597 00a2 5A020000 		.4byte	.LASF14
 598 00a6 06       		.uleb128 0x6
 599 00a7 6C000000 		.4byte	0x6c
 600 00ab B6000000 		.4byte	0xb6
 601 00af 07       		.uleb128 0x7
 602 00b0 98000000 		.4byte	0x98
 603 00b4 01       		.byte	0x1
 604 00b5 00       		.byte	0
 605 00b6 05       		.uleb128 0x5
 606 00b7 5A000000 		.4byte	0x5a
 607 00bb 08       		.uleb128 0x8
 608 00bc 90       		.byte	0x90
 609 00bd 03       		.byte	0x3
 610 00be 5804     		.2byte	0x458
 611 00c0 64020000 		.4byte	0x264
 612 00c4 09       		.uleb128 0x9
 613 00c5 435200   		.ascii	"CR\000"
 614 00c8 03       		.byte	0x3
 615 00c9 5A04     		.2byte	0x45a
 616 00cb 93000000 		.4byte	0x93
 617 00cf 00       		.byte	0
 618 00d0 0A       		.uleb128 0xa
 619 00d1 30020000 		.4byte	.LASF15
 620 00d5 03       		.byte	0x3
 621 00d6 5B04     		.2byte	0x45b
 622 00d8 93000000 		.4byte	0x93
 623 00dc 04       		.byte	0x4
 624 00dd 0A       		.uleb128 0xa
 625 00de 64040000 		.4byte	.LASF16
 626 00e2 03       		.byte	0x3
ARM GAS  /tmp/cc2qOxRh.s 			page 12


 627 00e3 5C04     		.2byte	0x45c
 628 00e5 93000000 		.4byte	0x93
 629 00e9 08       		.byte	0x8
 630 00ea 09       		.uleb128 0x9
 631 00eb 43495200 		.ascii	"CIR\000"
 632 00ef 03       		.byte	0x3
 633 00f0 5D04     		.2byte	0x45d
 634 00f2 93000000 		.4byte	0x93
 635 00f6 0C       		.byte	0xc
 636 00f7 0A       		.uleb128 0xa
 637 00f8 1D040000 		.4byte	.LASF17
 638 00fc 03       		.byte	0x3
 639 00fd 5E04     		.2byte	0x45e
 640 00ff 93000000 		.4byte	0x93
 641 0103 10       		.byte	0x10
 642 0104 0A       		.uleb128 0xa
 643 0105 07020000 		.4byte	.LASF18
 644 0109 03       		.byte	0x3
 645 010a 5F04     		.2byte	0x45f
 646 010c 93000000 		.4byte	0x93
 647 0110 14       		.byte	0x14
 648 0111 0A       		.uleb128 0xa
 649 0112 33040000 		.4byte	.LASF19
 650 0116 03       		.byte	0x3
 651 0117 6004     		.2byte	0x460
 652 0119 93000000 		.4byte	0x93
 653 011d 18       		.byte	0x18
 654 011e 0A       		.uleb128 0xa
 655 011f AD030000 		.4byte	.LASF20
 656 0123 03       		.byte	0x3
 657 0124 6104     		.2byte	0x461
 658 0126 6C000000 		.4byte	0x6c
 659 012a 1C       		.byte	0x1c
 660 012b 0A       		.uleb128 0xa
 661 012c 27000000 		.4byte	.LASF21
 662 0130 03       		.byte	0x3
 663 0131 6204     		.2byte	0x462
 664 0133 93000000 		.4byte	0x93
 665 0137 20       		.byte	0x20
 666 0138 0A       		.uleb128 0xa
 667 0139 73010000 		.4byte	.LASF22
 668 013d 03       		.byte	0x3
 669 013e 6304     		.2byte	0x463
 670 0140 93000000 		.4byte	0x93
 671 0144 24       		.byte	0x24
 672 0145 0A       		.uleb128 0xa
 673 0146 B7030000 		.4byte	.LASF23
 674 014a 03       		.byte	0x3
 675 014b 6404     		.2byte	0x464
 676 014d A6000000 		.4byte	0xa6
 677 0151 28       		.byte	0x28
 678 0152 0A       		.uleb128 0xa
 679 0153 FA030000 		.4byte	.LASF24
 680 0157 03       		.byte	0x3
 681 0158 6504     		.2byte	0x465
 682 015a 93000000 		.4byte	0x93
 683 015e 30       		.byte	0x30
ARM GAS  /tmp/cc2qOxRh.s 			page 13


 684 015f 0A       		.uleb128 0xa
 685 0160 30000000 		.4byte	.LASF25
 686 0164 03       		.byte	0x3
 687 0165 6604     		.2byte	0x466
 688 0167 93000000 		.4byte	0x93
 689 016b 34       		.byte	0x34
 690 016c 0A       		.uleb128 0xa
 691 016d E4000000 		.4byte	.LASF26
 692 0171 03       		.byte	0x3
 693 0172 6704     		.2byte	0x467
 694 0174 93000000 		.4byte	0x93
 695 0178 38       		.byte	0x38
 696 0179 0A       		.uleb128 0xa
 697 017a C1030000 		.4byte	.LASF27
 698 017e 03       		.byte	0x3
 699 017f 6804     		.2byte	0x468
 700 0181 6C000000 		.4byte	0x6c
 701 0185 3C       		.byte	0x3c
 702 0186 0A       		.uleb128 0xa
 703 0187 C0000000 		.4byte	.LASF28
 704 018b 03       		.byte	0x3
 705 018c 6904     		.2byte	0x469
 706 018e 93000000 		.4byte	0x93
 707 0192 40       		.byte	0x40
 708 0193 0A       		.uleb128 0xa
 709 0194 CC010000 		.4byte	.LASF29
 710 0198 03       		.byte	0x3
 711 0199 6A04     		.2byte	0x46a
 712 019b 93000000 		.4byte	0x93
 713 019f 44       		.byte	0x44
 714 01a0 0A       		.uleb128 0xa
 715 01a1 CB030000 		.4byte	.LASF30
 716 01a5 03       		.byte	0x3
 717 01a6 6B04     		.2byte	0x46b
 718 01a8 A6000000 		.4byte	0xa6
 719 01ac 48       		.byte	0x48
 720 01ad 0A       		.uleb128 0xa
 721 01ae 00000000 		.4byte	.LASF31
 722 01b2 03       		.byte	0x3
 723 01b3 6C04     		.2byte	0x46c
 724 01b5 93000000 		.4byte	0x93
 725 01b9 50       		.byte	0x50
 726 01ba 0A       		.uleb128 0xa
 727 01bb 97030000 		.4byte	.LASF32
 728 01bf 03       		.byte	0x3
 729 01c0 6D04     		.2byte	0x46d
 730 01c2 93000000 		.4byte	0x93
 731 01c6 54       		.byte	0x54
 732 01c7 0A       		.uleb128 0xa
 733 01c8 A6000000 		.4byte	.LASF33
 734 01cc 03       		.byte	0x3
 735 01cd 6E04     		.2byte	0x46e
 736 01cf 93000000 		.4byte	0x93
 737 01d3 58       		.byte	0x58
 738 01d4 0A       		.uleb128 0xa
 739 01d5 D5030000 		.4byte	.LASF34
 740 01d9 03       		.byte	0x3
ARM GAS  /tmp/cc2qOxRh.s 			page 14


 741 01da 6F04     		.2byte	0x46f
 742 01dc 6C000000 		.4byte	0x6c
 743 01e0 5C       		.byte	0x5c
 744 01e1 0A       		.uleb128 0xa
 745 01e2 50020000 		.4byte	.LASF35
 746 01e6 03       		.byte	0x3
 747 01e7 7004     		.2byte	0x470
 748 01e9 93000000 		.4byte	0x93
 749 01ed 60       		.byte	0x60
 750 01ee 0A       		.uleb128 0xa
 751 01ef 79040000 		.4byte	.LASF36
 752 01f3 03       		.byte	0x3
 753 01f4 7104     		.2byte	0x471
 754 01f6 93000000 		.4byte	0x93
 755 01fa 64       		.byte	0x64
 756 01fb 0A       		.uleb128 0xa
 757 01fc DF030000 		.4byte	.LASF37
 758 0200 03       		.byte	0x3
 759 0201 7204     		.2byte	0x472
 760 0203 A6000000 		.4byte	0xa6
 761 0207 68       		.byte	0x68
 762 0208 0A       		.uleb128 0xa
 763 0209 7C000000 		.4byte	.LASF38
 764 020d 03       		.byte	0x3
 765 020e 7304     		.2byte	0x473
 766 0210 93000000 		.4byte	0x93
 767 0214 70       		.byte	0x70
 768 0215 09       		.uleb128 0x9
 769 0216 43535200 		.ascii	"CSR\000"
 770 021a 03       		.byte	0x3
 771 021b 7404     		.2byte	0x474
 772 021d 93000000 		.4byte	0x93
 773 0221 74       		.byte	0x74
 774 0222 0A       		.uleb128 0xa
 775 0223 E9030000 		.4byte	.LASF39
 776 0227 03       		.byte	0x3
 777 0228 7504     		.2byte	0x475
 778 022a A6000000 		.4byte	0xa6
 779 022e 78       		.byte	0x78
 780 022f 0A       		.uleb128 0xa
 781 0230 99000000 		.4byte	.LASF40
 782 0234 03       		.byte	0x3
 783 0235 7604     		.2byte	0x476
 784 0237 93000000 		.4byte	0x93
 785 023b 80       		.byte	0x80
 786 023c 0A       		.uleb128 0xa
 787 023d 88000000 		.4byte	.LASF41
 788 0241 03       		.byte	0x3
 789 0242 7704     		.2byte	0x477
 790 0244 93000000 		.4byte	0x93
 791 0248 84       		.byte	0x84
 792 0249 0A       		.uleb128 0xa
 793 024a 69040000 		.4byte	.LASF42
 794 024e 03       		.byte	0x3
 795 024f 7804     		.2byte	0x478
 796 0251 93000000 		.4byte	0x93
 797 0255 88       		.byte	0x88
ARM GAS  /tmp/cc2qOxRh.s 			page 15


 798 0256 0A       		.uleb128 0xa
 799 0257 DC000000 		.4byte	.LASF43
 800 025b 03       		.byte	0x3
 801 025c 7904     		.2byte	0x479
 802 025e 93000000 		.4byte	0x93
 803 0262 8C       		.byte	0x8c
 804 0263 00       		.byte	0
 805 0264 0B       		.uleb128 0xb
 806 0265 61010000 		.4byte	.LASF44
 807 0269 03       		.byte	0x3
 808 026a 7B04     		.2byte	0x47b
 809 026c BB000000 		.4byte	0xbb
 810 0270 0C       		.uleb128 0xc
 811 0271 04       		.byte	0x4
 812 0272 04       		.byte	0x4
 813 0273 96       		.byte	0x96
 814 0274 91020000 		.4byte	0x291
 815 0278 0D       		.uleb128 0xd
 816 0279 73657400 		.ascii	"set\000"
 817 027d 04       		.byte	0x4
 818 027e 97       		.byte	0x97
 819 027f 48000000 		.4byte	0x48
 820 0283 00       		.byte	0
 821 0284 0E       		.uleb128 0xe
 822 0285 7C010000 		.4byte	.LASF45
 823 0289 04       		.byte	0x4
 824 028a 98       		.byte	0x98
 825 028b 48000000 		.4byte	0x48
 826 028f 02       		.byte	0x2
 827 0290 00       		.byte	0
 828 0291 0F       		.uleb128 0xf
 829 0292 04       		.byte	0x4
 830 0293 04       		.byte	0x4
 831 0294 94       		.byte	0x94
 832 0295 AC020000 		.4byte	0x2ac
 833 0299 10       		.uleb128 0x10
 834 029a 5700     		.ascii	"W\000"
 835 029c 04       		.byte	0x4
 836 029d 95       		.byte	0x95
 837 029e 6C000000 		.4byte	0x6c
 838 02a2 10       		.uleb128 0x10
 839 02a3 4800     		.ascii	"H\000"
 840 02a5 04       		.byte	0x4
 841 02a6 99       		.byte	0x99
 842 02a7 70020000 		.4byte	0x270
 843 02ab 00       		.byte	0
 844 02ac 0C       		.uleb128 0xc
 845 02ad 28       		.byte	0x28
 846 02ae 04       		.byte	0x4
 847 02af 8C       		.byte	0x8c
 848 02b0 2D030000 		.4byte	0x32d
 849 02b4 0E       		.uleb128 0xe
 850 02b5 6D010000 		.4byte	.LASF46
 851 02b9 04       		.byte	0x4
 852 02ba 8E       		.byte	0x8e
 853 02bb 93000000 		.4byte	0x93
 854 02bf 00       		.byte	0
ARM GAS  /tmp/cc2qOxRh.s 			page 16


 855 02c0 0E       		.uleb128 0xe
 856 02c1 D5000000 		.4byte	.LASF47
 857 02c5 04       		.byte	0x4
 858 02c6 8F       		.byte	0x8f
 859 02c7 93000000 		.4byte	0x93
 860 02cb 04       		.byte	0x4
 861 02cc 0E       		.uleb128 0xe
 862 02cd EC000000 		.4byte	.LASF48
 863 02d1 04       		.byte	0x4
 864 02d2 90       		.byte	0x90
 865 02d3 93000000 		.4byte	0x93
 866 02d7 08       		.byte	0x8
 867 02d8 0E       		.uleb128 0xe
 868 02d9 02010000 		.4byte	.LASF49
 869 02dd 04       		.byte	0x4
 870 02de 91       		.byte	0x91
 871 02df 93000000 		.4byte	0x93
 872 02e3 0C       		.byte	0xc
 873 02e4 0D       		.uleb128 0xd
 874 02e5 49445200 		.ascii	"IDR\000"
 875 02e9 04       		.byte	0x4
 876 02ea 92       		.byte	0x92
 877 02eb 93000000 		.4byte	0x93
 878 02ef 10       		.byte	0x10
 879 02f0 0D       		.uleb128 0xd
 880 02f1 4F445200 		.ascii	"ODR\000"
 881 02f5 04       		.byte	0x4
 882 02f6 93       		.byte	0x93
 883 02f7 93000000 		.4byte	0x93
 884 02fb 14       		.byte	0x14
 885 02fc 0E       		.uleb128 0xe
 886 02fd 83040000 		.4byte	.LASF50
 887 0301 04       		.byte	0x4
 888 0302 9A       		.byte	0x9a
 889 0303 2D030000 		.4byte	0x32d
 890 0307 18       		.byte	0x18
 891 0308 0E       		.uleb128 0xe
 892 0309 74040000 		.4byte	.LASF51
 893 030d 04       		.byte	0x4
 894 030e 9B       		.byte	0x9b
 895 030f 93000000 		.4byte	0x93
 896 0313 1C       		.byte	0x1c
 897 0314 0E       		.uleb128 0xe
 898 0315 38020000 		.4byte	.LASF52
 899 0319 04       		.byte	0x4
 900 031a 9C       		.byte	0x9c
 901 031b 93000000 		.4byte	0x93
 902 031f 20       		.byte	0x20
 903 0320 0E       		.uleb128 0xe
 904 0321 2B020000 		.4byte	.LASF53
 905 0325 04       		.byte	0x4
 906 0326 9D       		.byte	0x9d
 907 0327 93000000 		.4byte	0x93
 908 032b 24       		.byte	0x24
 909 032c 00       		.byte	0
 910 032d 05       		.uleb128 0x5
 911 032e 91020000 		.4byte	0x291
ARM GAS  /tmp/cc2qOxRh.s 			page 17


 912 0332 04       		.uleb128 0x4
 913 0333 26040000 		.4byte	.LASF54
 914 0337 04       		.byte	0x4
 915 0338 9E       		.byte	0x9e
 916 0339 AC020000 		.4byte	0x2ac
 917 033d 0C       		.uleb128 0xc
 918 033e 1C       		.byte	0x1c
 919 033f 04       		.byte	0x4
 920 0340 A3       		.byte	0xa3
 921 0341 9A030000 		.4byte	0x39a
 922 0345 0E       		.uleb128 0xe
 923 0346 17040000 		.4byte	.LASF55
 924 034a 04       		.byte	0x4
 925 034b A5       		.byte	0xa5
 926 034c 6C000000 		.4byte	0x6c
 927 0350 00       		.byte	0
 928 0351 0E       		.uleb128 0xe
 929 0352 00020000 		.4byte	.LASF56
 930 0356 04       		.byte	0x4
 931 0357 A7       		.byte	0xa7
 932 0358 6C000000 		.4byte	0x6c
 933 035c 04       		.byte	0x4
 934 035d 0E       		.uleb128 0xe
 935 035e 08010000 		.4byte	.LASF57
 936 0362 04       		.byte	0x4
 937 0363 A9       		.byte	0xa9
 938 0364 6C000000 		.4byte	0x6c
 939 0368 08       		.byte	0x8
 940 0369 0E       		.uleb128 0xe
 941 036a 07040000 		.4byte	.LASF58
 942 036e 04       		.byte	0x4
 943 036f AB       		.byte	0xab
 944 0370 6C000000 		.4byte	0x6c
 945 0374 0C       		.byte	0xc
 946 0375 0D       		.uleb128 0xd
 947 0376 6F647200 		.ascii	"odr\000"
 948 037a 04       		.byte	0x4
 949 037b AD       		.byte	0xad
 950 037c 6C000000 		.4byte	0x6c
 951 0380 10       		.byte	0x10
 952 0381 0E       		.uleb128 0xe
 953 0382 12040000 		.4byte	.LASF59
 954 0386 04       		.byte	0x4
 955 0387 AF       		.byte	0xaf
 956 0388 6C000000 		.4byte	0x6c
 957 038c 14       		.byte	0x14
 958 038d 0E       		.uleb128 0xe
 959 038e 0D040000 		.4byte	.LASF60
 960 0392 04       		.byte	0x4
 961 0393 B1       		.byte	0xb1
 962 0394 6C000000 		.4byte	0x6c
 963 0398 18       		.byte	0x18
 964 0399 00       		.byte	0
 965 039a 04       		.uleb128 0x4
 966 039b 38000000 		.4byte	.LASF61
 967 039f 04       		.byte	0x4
 968 03a0 B2       		.byte	0xb2
ARM GAS  /tmp/cc2qOxRh.s 			page 18


 969 03a1 3D030000 		.4byte	0x33d
 970 03a5 0C       		.uleb128 0xc
 971 03a6 FC       		.byte	0xfc
 972 03a7 04       		.byte	0x4
 973 03a8 BB       		.byte	0xbb
 974 03a9 1A040000 		.4byte	0x41a
 975 03ad 0E       		.uleb128 0xe
 976 03ae AC010000 		.4byte	.LASF62
 977 03b2 04       		.byte	0x4
 978 03b3 BE       		.byte	0xbe
 979 03b4 9A030000 		.4byte	0x39a
 980 03b8 00       		.byte	0
 981 03b9 0E       		.uleb128 0xe
 982 03ba 9F000000 		.4byte	.LASF63
 983 03be 04       		.byte	0x4
 984 03bf C2       		.byte	0xc2
 985 03c0 9A030000 		.4byte	0x39a
 986 03c4 1C       		.byte	0x1c
 987 03c5 0E       		.uleb128 0xe
 988 03c6 0A000000 		.4byte	.LASF64
 989 03ca 04       		.byte	0x4
 990 03cb C6       		.byte	0xc6
 991 03cc 9A030000 		.4byte	0x39a
 992 03d0 38       		.byte	0x38
 993 03d1 0E       		.uleb128 0xe
 994 03d2 5A010000 		.4byte	.LASF65
 995 03d6 04       		.byte	0x4
 996 03d7 CA       		.byte	0xca
 997 03d8 9A030000 		.4byte	0x39a
 998 03dc 54       		.byte	0x54
 999 03dd 0E       		.uleb128 0xe
 1000 03de A6030000 		.4byte	.LASF66
 1001 03e2 04       		.byte	0x4
 1002 03e3 CE       		.byte	0xce
 1003 03e4 9A030000 		.4byte	0x39a
 1004 03e8 70       		.byte	0x70
 1005 03e9 0E       		.uleb128 0xe
 1006 03ea 4B000000 		.4byte	.LASF67
 1007 03ee 04       		.byte	0x4
 1008 03ef D2       		.byte	0xd2
 1009 03f0 9A030000 		.4byte	0x39a
 1010 03f4 8C       		.byte	0x8c
 1011 03f5 0E       		.uleb128 0xe
 1012 03f6 A5010000 		.4byte	.LASF68
 1013 03fa 04       		.byte	0x4
 1014 03fb D6       		.byte	0xd6
 1015 03fc 9A030000 		.4byte	0x39a
 1016 0400 A8       		.byte	0xa8
 1017 0401 0E       		.uleb128 0xe
 1018 0402 F3030000 		.4byte	.LASF69
 1019 0406 04       		.byte	0x4
 1020 0407 DA       		.byte	0xda
 1021 0408 9A030000 		.4byte	0x39a
 1022 040c C4       		.byte	0xc4
 1023 040d 0E       		.uleb128 0xe
 1024 040e 81000000 		.4byte	.LASF70
 1025 0412 04       		.byte	0x4
ARM GAS  /tmp/cc2qOxRh.s 			page 19


 1026 0413 DE       		.byte	0xde
 1027 0414 9A030000 		.4byte	0x39a
 1028 0418 E0       		.byte	0xe0
 1029 0419 00       		.byte	0
 1030 041a 04       		.uleb128 0x4
 1031 041b 82030000 		.4byte	.LASF71
 1032 041f 04       		.byte	0x4
 1033 0420 E0       		.byte	0xe0
 1034 0421 A5030000 		.4byte	0x3a5
 1035 0425 04       		.uleb128 0x4
 1036 0426 C8000000 		.4byte	.LASF72
 1037 042a 04       		.byte	0x4
 1038 042b F0       		.byte	0xf0
 1039 042c 6C000000 		.4byte	0x6c
 1040 0430 04       		.uleb128 0x4
 1041 0431 B7000000 		.4byte	.LASF73
 1042 0435 04       		.byte	0x4
 1043 0436 F5       		.byte	0xf5
 1044 0437 6C000000 		.4byte	0x6c
 1045 043b 04       		.uleb128 0x4
 1046 043c B3010000 		.4byte	.LASF74
 1047 0440 04       		.byte	0x4
 1048 0441 FD       		.byte	0xfd
 1049 0442 46040000 		.4byte	0x446
 1050 0446 11       		.uleb128 0x11
 1051 0447 04       		.byte	0x4
 1052 0448 32030000 		.4byte	0x332
 1053 044c 12       		.uleb128 0x12
 1054 044d 6A000000 		.4byte	.LASF87
 1055 0451 01       		.byte	0x1
 1056 0452 56       		.byte	0x56
 1057 0453 01       		.byte	0x1
 1058 0454 6F040000 		.4byte	0x46f
 1059 0458 13       		.uleb128 0x13
 1060 0459 93000000 		.4byte	.LASF75
 1061 045d 01       		.byte	0x1
 1062 045e 56       		.byte	0x56
 1063 045f 46040000 		.4byte	0x446
 1064 0463 13       		.uleb128 0x13
 1065 0464 B0000000 		.4byte	.LASF76
 1066 0468 01       		.byte	0x1
 1067 0469 56       		.byte	0x56
 1068 046a 6F040000 		.4byte	0x46f
 1069 046e 00       		.byte	0
 1070 046f 11       		.uleb128 0x11
 1071 0470 04       		.byte	0x4
 1072 0471 75040000 		.4byte	0x475
 1073 0475 14       		.uleb128 0x14
 1074 0476 9A030000 		.4byte	0x39a
 1075 047a 15       		.uleb128 0x15
 1076 047b 52000000 		.4byte	.LASF77
 1077 047f 01       		.byte	0x1
 1078 0480 71       		.byte	0x71
 1079 0481 00000000 		.4byte	.LFB119
 1080 0485 C0010000 		.4byte	.LFE119-.LFB119
 1081 0489 01       		.uleb128 0x1
 1082 048a 9C       		.byte	0x9c
ARM GAS  /tmp/cc2qOxRh.s 			page 20


 1083 048b F3050000 		.4byte	0x5f3
 1084 048f 16       		.uleb128 0x16
 1085 0490 B0000000 		.4byte	.LASF76
 1086 0494 01       		.byte	0x1
 1087 0495 71       		.byte	0x71
 1088 0496 F3050000 		.4byte	0x5f3
 1089 049a 01       		.uleb128 0x1
 1090 049b 50       		.byte	0x50
 1091 049c 17       		.uleb128 0x17
 1092 049d 4C040000 		.4byte	0x44c
 1093 04a1 08000000 		.4byte	.LBB20
 1094 04a5 00000000 		.4byte	.Ldebug_ranges0+0
 1095 04a9 01       		.byte	0x1
 1096 04aa 86       		.byte	0x86
 1097 04ab C0040000 		.4byte	0x4c0
 1098 04af 18       		.uleb128 0x18
 1099 04b0 63040000 		.4byte	0x463
 1100 04b4 01       		.uleb128 0x1
 1101 04b5 50       		.byte	0x50
 1102 04b6 19       		.uleb128 0x19
 1103 04b7 58040000 		.4byte	0x458
 1104 04bb 00000240 		.4byte	0x40020000
 1105 04bf 00       		.byte	0
 1106 04c0 17       		.uleb128 0x17
 1107 04c1 4C040000 		.4byte	0x44c
 1108 04c5 10000000 		.4byte	.LBB23
 1109 04c9 18000000 		.4byte	.Ldebug_ranges0+0x18
 1110 04cd 01       		.byte	0x1
 1111 04ce 89       		.byte	0x89
 1112 04cf E6040000 		.4byte	0x4e6
 1113 04d3 18       		.uleb128 0x18
 1114 04d4 63040000 		.4byte	0x463
 1115 04d8 03       		.uleb128 0x3
 1116 04d9 70       		.byte	0x70
 1117 04da 1C       		.sleb128 28
 1118 04db 9F       		.byte	0x9f
 1119 04dc 19       		.uleb128 0x19
 1120 04dd 58040000 		.4byte	0x458
 1121 04e1 00040240 		.4byte	0x40020400
 1122 04e5 00       		.byte	0
 1123 04e6 17       		.uleb128 0x17
 1124 04e7 4C040000 		.4byte	0x44c
 1125 04eb 14000000 		.4byte	.LBB26
 1126 04ef 30000000 		.4byte	.Ldebug_ranges0+0x30
 1127 04f3 01       		.byte	0x1
 1128 04f4 8C       		.byte	0x8c
 1129 04f5 0C050000 		.4byte	0x50c
 1130 04f9 18       		.uleb128 0x18
 1131 04fa 63040000 		.4byte	0x463
 1132 04fe 03       		.uleb128 0x3
 1133 04ff 70       		.byte	0x70
 1134 0500 38       		.sleb128 56
 1135 0501 9F       		.byte	0x9f
 1136 0502 19       		.uleb128 0x19
 1137 0503 58040000 		.4byte	0x458
 1138 0507 00080240 		.4byte	0x40020800
 1139 050b 00       		.byte	0
ARM GAS  /tmp/cc2qOxRh.s 			page 21


 1140 050c 17       		.uleb128 0x17
 1141 050d 4C040000 		.4byte	0x44c
 1142 0511 16000000 		.4byte	.LBB29
 1143 0515 48000000 		.4byte	.Ldebug_ranges0+0x48
 1144 0519 01       		.byte	0x1
 1145 051a 8F       		.byte	0x8f
 1146 051b 33050000 		.4byte	0x533
 1147 051f 18       		.uleb128 0x18
 1148 0520 63040000 		.4byte	0x463
 1149 0524 04       		.uleb128 0x4
 1150 0525 70       		.byte	0x70
 1151 0526 D400     		.sleb128 84
 1152 0528 9F       		.byte	0x9f
 1153 0529 19       		.uleb128 0x19
 1154 052a 58040000 		.4byte	0x458
 1155 052e 000C0240 		.4byte	0x40020c00
 1156 0532 00       		.byte	0
 1157 0533 17       		.uleb128 0x17
 1158 0534 4C040000 		.4byte	0x44c
 1159 0538 18000000 		.4byte	.LBB32
 1160 053c 60000000 		.4byte	.Ldebug_ranges0+0x60
 1161 0540 01       		.byte	0x1
 1162 0541 92       		.byte	0x92
 1163 0542 5A050000 		.4byte	0x55a
 1164 0546 18       		.uleb128 0x18
 1165 0547 63040000 		.4byte	0x463
 1166 054b 04       		.uleb128 0x4
 1167 054c 70       		.byte	0x70
 1168 054d F000     		.sleb128 112
 1169 054f 9F       		.byte	0x9f
 1170 0550 19       		.uleb128 0x19
 1171 0551 58040000 		.4byte	0x458
 1172 0555 00100240 		.4byte	0x40021000
 1173 0559 00       		.byte	0
 1174 055a 17       		.uleb128 0x17
 1175 055b 4C040000 		.4byte	0x44c
 1176 055f 1A000000 		.4byte	.LBB35
 1177 0563 78000000 		.4byte	.Ldebug_ranges0+0x78
 1178 0567 01       		.byte	0x1
 1179 0568 95       		.byte	0x95
 1180 0569 81050000 		.4byte	0x581
 1181 056d 18       		.uleb128 0x18
 1182 056e 63040000 		.4byte	0x463
 1183 0572 04       		.uleb128 0x4
 1184 0573 70       		.byte	0x70
 1185 0574 8C01     		.sleb128 140
 1186 0576 9F       		.byte	0x9f
 1187 0577 19       		.uleb128 0x19
 1188 0578 58040000 		.4byte	0x458
 1189 057c 00140240 		.4byte	0x40021400
 1190 0580 00       		.byte	0
 1191 0581 17       		.uleb128 0x17
 1192 0582 4C040000 		.4byte	0x44c
 1193 0586 1C000000 		.4byte	.LBB38
 1194 058a 90000000 		.4byte	.Ldebug_ranges0+0x90
 1195 058e 01       		.byte	0x1
 1196 058f 98       		.byte	0x98
ARM GAS  /tmp/cc2qOxRh.s 			page 22


 1197 0590 A8050000 		.4byte	0x5a8
 1198 0594 18       		.uleb128 0x18
 1199 0595 63040000 		.4byte	0x463
 1200 0599 04       		.uleb128 0x4
 1201 059a 70       		.byte	0x70
 1202 059b A801     		.sleb128 168
 1203 059d 9F       		.byte	0x9f
 1204 059e 19       		.uleb128 0x19
 1205 059f 58040000 		.4byte	0x458
 1206 05a3 00180240 		.4byte	0x40021800
 1207 05a7 00       		.byte	0
 1208 05a8 17       		.uleb128 0x17
 1209 05a9 4C040000 		.4byte	0x44c
 1210 05ad 1E000000 		.4byte	.LBB41
 1211 05b1 A8000000 		.4byte	.Ldebug_ranges0+0xa8
 1212 05b5 01       		.byte	0x1
 1213 05b6 9B       		.byte	0x9b
 1214 05b7 CF050000 		.4byte	0x5cf
 1215 05bb 18       		.uleb128 0x18
 1216 05bc 63040000 		.4byte	0x463
 1217 05c0 04       		.uleb128 0x4
 1218 05c1 70       		.byte	0x70
 1219 05c2 C401     		.sleb128 196
 1220 05c4 9F       		.byte	0x9f
 1221 05c5 19       		.uleb128 0x19
 1222 05c6 58040000 		.4byte	0x458
 1223 05ca 001C0240 		.4byte	0x40021c00
 1224 05ce 00       		.byte	0
 1225 05cf 1A       		.uleb128 0x1a
 1226 05d0 4C040000 		.4byte	0x44c
 1227 05d4 64010000 		.4byte	.LBB52
 1228 05d8 2C000000 		.4byte	.LBE52-.LBB52
 1229 05dc 01       		.byte	0x1
 1230 05dd 9E       		.byte	0x9e
 1231 05de 18       		.uleb128 0x18
 1232 05df 63040000 		.4byte	0x463
 1233 05e3 04       		.uleb128 0x4
 1234 05e4 70       		.byte	0x70
 1235 05e5 E001     		.sleb128 224
 1236 05e7 9F       		.byte	0x9f
 1237 05e8 19       		.uleb128 0x19
 1238 05e9 58040000 		.4byte	0x458
 1239 05ed 00200240 		.4byte	0x40022000
 1240 05f1 00       		.byte	0
 1241 05f2 00       		.byte	0
 1242 05f3 11       		.uleb128 0x11
 1243 05f4 04       		.byte	0x4
 1244 05f5 F9050000 		.4byte	0x5f9
 1245 05f9 14       		.uleb128 0x14
 1246 05fa 1A040000 		.4byte	0x41a
 1247 05fe 15       		.uleb128 0x15
 1248 05ff 11000000 		.4byte	.LASF78
 1249 0603 01       		.byte	0x1
 1250 0604 B0       		.byte	0xb0
 1251 0605 00000000 		.4byte	.LFB120
 1252 0609 C8000000 		.4byte	.LFE120-.LFB120
 1253 060d 01       		.uleb128 0x1
ARM GAS  /tmp/cc2qOxRh.s 			page 23


 1254 060e 9C       		.byte	0x9c
 1255 060f D6060000 		.4byte	0x6d6
 1256 0613 16       		.uleb128 0x16
 1257 0614 A1030000 		.4byte	.LASF79
 1258 0618 01       		.byte	0x1
 1259 0619 B0       		.byte	0xb0
 1260 061a 3B040000 		.4byte	0x43b
 1261 061e 01       		.uleb128 0x1
 1262 061f 50       		.byte	0x50
 1263 0620 1B       		.uleb128 0x1b
 1264 0621 02040000 		.4byte	.LASF80
 1265 0625 01       		.byte	0x1
 1266 0626 B1       		.byte	0xb1
 1267 0627 25040000 		.4byte	0x425
 1268 062b 00000000 		.4byte	.LLST0
 1269 062f 1B       		.uleb128 0x1b
 1270 0630 92030000 		.4byte	.LASF81
 1271 0634 01       		.byte	0x1
 1272 0635 B2       		.byte	0xb2
 1273 0636 30040000 		.4byte	0x430
 1274 063a 2D000000 		.4byte	.LLST1
 1275 063e 1C       		.uleb128 0x1c
 1276 063f 17040000 		.4byte	.LASF55
 1277 0643 01       		.byte	0x1
 1278 0644 B4       		.byte	0xb4
 1279 0645 6C000000 		.4byte	0x6c
 1280 0649 4E000000 		.4byte	.LLST2
 1281 064d 1C       		.uleb128 0x1c
 1282 064e 00020000 		.4byte	.LASF56
 1283 0652 01       		.byte	0x1
 1284 0653 B5       		.byte	0xb5
 1285 0654 6C000000 		.4byte	0x6c
 1286 0658 61000000 		.4byte	.LLST3
 1287 065c 1C       		.uleb128 0x1c
 1288 065d 08010000 		.4byte	.LASF57
 1289 0661 01       		.byte	0x1
 1290 0662 B6       		.byte	0xb6
 1291 0663 6C000000 		.4byte	0x6c
 1292 0667 74000000 		.4byte	.LLST4
 1293 066b 1C       		.uleb128 0x1c
 1294 066c 07040000 		.4byte	.LASF58
 1295 0670 01       		.byte	0x1
 1296 0671 B7       		.byte	0xb7
 1297 0672 6C000000 		.4byte	0x6c
 1298 0676 87000000 		.4byte	.LLST5
 1299 067a 1D       		.uleb128 0x1d
 1300 067b 3C040000 		.4byte	.LASF82
 1301 067f 01       		.byte	0x1
 1302 0680 B8       		.byte	0xb8
 1303 0681 6C000000 		.4byte	0x6c
 1304 0685 01       		.uleb128 0x1
 1305 0686 52       		.byte	0x52
 1306 0687 1E       		.uleb128 0x1e
 1307 0688 62697400 		.ascii	"bit\000"
 1308 068c 01       		.byte	0x1
 1309 068d B9       		.byte	0xb9
 1310 068e 6C000000 		.4byte	0x6c
ARM GAS  /tmp/cc2qOxRh.s 			page 24


 1311 0692 9A000000 		.4byte	.LLST6
 1312 0696 1F       		.uleb128 0x1f
 1313 0697 C0000000 		.4byte	.Ldebug_ranges0+0xc0
 1314 069b 1C       		.uleb128 0x1c
 1315 069c 4E040000 		.4byte	.LASF83
 1316 06a0 01       		.byte	0x1
 1317 06a1 BC       		.byte	0xbc
 1318 06a2 6C000000 		.4byte	0x6c
 1319 06a6 B9000000 		.4byte	.LLST7
 1320 06aa 1E       		.uleb128 0x1e
 1321 06ab 6D3100   		.ascii	"m1\000"
 1322 06ae 01       		.byte	0x1
 1323 06af BC       		.byte	0xbc
 1324 06b0 6C000000 		.4byte	0x6c
 1325 06b4 FF000000 		.4byte	.LLST8
 1326 06b8 1E       		.uleb128 0x1e
 1327 06b9 6D3200   		.ascii	"m2\000"
 1328 06bc 01       		.byte	0x1
 1329 06bd BC       		.byte	0xbc
 1330 06be 6C000000 		.4byte	0x6c
 1331 06c2 16010000 		.4byte	.LLST9
 1332 06c6 1E       		.uleb128 0x1e
 1333 06c7 6D3400   		.ascii	"m4\000"
 1334 06ca 01       		.byte	0x1
 1335 06cb BC       		.byte	0xbc
 1336 06cc 6C000000 		.4byte	0x6c
 1337 06d0 59010000 		.4byte	.LLST10
 1338 06d4 00       		.byte	0
 1339 06d5 00       		.byte	0
 1340 06d6 20       		.uleb128 0x20
 1341 06d7 41040000 		.4byte	.LASF88
 1342 06db 05       		.byte	0x5
 1343 06dc 9806     		.2byte	0x698
 1344 06de B6000000 		.4byte	0xb6
 1345 06e2 00       		.byte	0
 1346              		.section	.debug_abbrev,"",%progbits
 1347              	.Ldebug_abbrev0:
 1348 0000 01       		.uleb128 0x1
 1349 0001 11       		.uleb128 0x11
 1350 0002 01       		.byte	0x1
 1351 0003 25       		.uleb128 0x25
 1352 0004 0E       		.uleb128 0xe
 1353 0005 13       		.uleb128 0x13
 1354 0006 0B       		.uleb128 0xb
 1355 0007 03       		.uleb128 0x3
 1356 0008 0E       		.uleb128 0xe
 1357 0009 1B       		.uleb128 0x1b
 1358 000a 0E       		.uleb128 0xe
 1359 000b 55       		.uleb128 0x55
 1360 000c 17       		.uleb128 0x17
 1361 000d 11       		.uleb128 0x11
 1362 000e 01       		.uleb128 0x1
 1363 000f 10       		.uleb128 0x10
 1364 0010 17       		.uleb128 0x17
 1365 0011 00       		.byte	0
 1366 0012 00       		.byte	0
 1367 0013 02       		.uleb128 0x2
ARM GAS  /tmp/cc2qOxRh.s 			page 25


 1368 0014 24       		.uleb128 0x24
 1369 0015 00       		.byte	0
 1370 0016 0B       		.uleb128 0xb
 1371 0017 0B       		.uleb128 0xb
 1372 0018 3E       		.uleb128 0x3e
 1373 0019 0B       		.uleb128 0xb
 1374 001a 03       		.uleb128 0x3
 1375 001b 08       		.uleb128 0x8
 1376 001c 00       		.byte	0
 1377 001d 00       		.byte	0
 1378 001e 03       		.uleb128 0x3
 1379 001f 24       		.uleb128 0x24
 1380 0020 00       		.byte	0
 1381 0021 0B       		.uleb128 0xb
 1382 0022 0B       		.uleb128 0xb
 1383 0023 3E       		.uleb128 0x3e
 1384 0024 0B       		.uleb128 0xb
 1385 0025 03       		.uleb128 0x3
 1386 0026 0E       		.uleb128 0xe
 1387 0027 00       		.byte	0
 1388 0028 00       		.byte	0
 1389 0029 04       		.uleb128 0x4
 1390 002a 16       		.uleb128 0x16
 1391 002b 00       		.byte	0
 1392 002c 03       		.uleb128 0x3
 1393 002d 0E       		.uleb128 0xe
 1394 002e 3A       		.uleb128 0x3a
 1395 002f 0B       		.uleb128 0xb
 1396 0030 3B       		.uleb128 0x3b
 1397 0031 0B       		.uleb128 0xb
 1398 0032 49       		.uleb128 0x49
 1399 0033 13       		.uleb128 0x13
 1400 0034 00       		.byte	0
 1401 0035 00       		.byte	0
 1402 0036 05       		.uleb128 0x5
 1403 0037 35       		.uleb128 0x35
 1404 0038 00       		.byte	0
 1405 0039 49       		.uleb128 0x49
 1406 003a 13       		.uleb128 0x13
 1407 003b 00       		.byte	0
 1408 003c 00       		.byte	0
 1409 003d 06       		.uleb128 0x6
 1410 003e 01       		.uleb128 0x1
 1411 003f 01       		.byte	0x1
 1412 0040 49       		.uleb128 0x49
 1413 0041 13       		.uleb128 0x13
 1414 0042 01       		.uleb128 0x1
 1415 0043 13       		.uleb128 0x13
 1416 0044 00       		.byte	0
 1417 0045 00       		.byte	0
 1418 0046 07       		.uleb128 0x7
 1419 0047 21       		.uleb128 0x21
 1420 0048 00       		.byte	0
 1421 0049 49       		.uleb128 0x49
 1422 004a 13       		.uleb128 0x13
 1423 004b 2F       		.uleb128 0x2f
 1424 004c 0B       		.uleb128 0xb
ARM GAS  /tmp/cc2qOxRh.s 			page 26


 1425 004d 00       		.byte	0
 1426 004e 00       		.byte	0
 1427 004f 08       		.uleb128 0x8
 1428 0050 13       		.uleb128 0x13
 1429 0051 01       		.byte	0x1
 1430 0052 0B       		.uleb128 0xb
 1431 0053 0B       		.uleb128 0xb
 1432 0054 3A       		.uleb128 0x3a
 1433 0055 0B       		.uleb128 0xb
 1434 0056 3B       		.uleb128 0x3b
 1435 0057 05       		.uleb128 0x5
 1436 0058 01       		.uleb128 0x1
 1437 0059 13       		.uleb128 0x13
 1438 005a 00       		.byte	0
 1439 005b 00       		.byte	0
 1440 005c 09       		.uleb128 0x9
 1441 005d 0D       		.uleb128 0xd
 1442 005e 00       		.byte	0
 1443 005f 03       		.uleb128 0x3
 1444 0060 08       		.uleb128 0x8
 1445 0061 3A       		.uleb128 0x3a
 1446 0062 0B       		.uleb128 0xb
 1447 0063 3B       		.uleb128 0x3b
 1448 0064 05       		.uleb128 0x5
 1449 0065 49       		.uleb128 0x49
 1450 0066 13       		.uleb128 0x13
 1451 0067 38       		.uleb128 0x38
 1452 0068 0B       		.uleb128 0xb
 1453 0069 00       		.byte	0
 1454 006a 00       		.byte	0
 1455 006b 0A       		.uleb128 0xa
 1456 006c 0D       		.uleb128 0xd
 1457 006d 00       		.byte	0
 1458 006e 03       		.uleb128 0x3
 1459 006f 0E       		.uleb128 0xe
 1460 0070 3A       		.uleb128 0x3a
 1461 0071 0B       		.uleb128 0xb
 1462 0072 3B       		.uleb128 0x3b
 1463 0073 05       		.uleb128 0x5
 1464 0074 49       		.uleb128 0x49
 1465 0075 13       		.uleb128 0x13
 1466 0076 38       		.uleb128 0x38
 1467 0077 0B       		.uleb128 0xb
 1468 0078 00       		.byte	0
 1469 0079 00       		.byte	0
 1470 007a 0B       		.uleb128 0xb
 1471 007b 16       		.uleb128 0x16
 1472 007c 00       		.byte	0
 1473 007d 03       		.uleb128 0x3
 1474 007e 0E       		.uleb128 0xe
 1475 007f 3A       		.uleb128 0x3a
 1476 0080 0B       		.uleb128 0xb
 1477 0081 3B       		.uleb128 0x3b
 1478 0082 05       		.uleb128 0x5
 1479 0083 49       		.uleb128 0x49
 1480 0084 13       		.uleb128 0x13
 1481 0085 00       		.byte	0
ARM GAS  /tmp/cc2qOxRh.s 			page 27


 1482 0086 00       		.byte	0
 1483 0087 0C       		.uleb128 0xc
 1484 0088 13       		.uleb128 0x13
 1485 0089 01       		.byte	0x1
 1486 008a 0B       		.uleb128 0xb
 1487 008b 0B       		.uleb128 0xb
 1488 008c 3A       		.uleb128 0x3a
 1489 008d 0B       		.uleb128 0xb
 1490 008e 3B       		.uleb128 0x3b
 1491 008f 0B       		.uleb128 0xb
 1492 0090 01       		.uleb128 0x1
 1493 0091 13       		.uleb128 0x13
 1494 0092 00       		.byte	0
 1495 0093 00       		.byte	0
 1496 0094 0D       		.uleb128 0xd
 1497 0095 0D       		.uleb128 0xd
 1498 0096 00       		.byte	0
 1499 0097 03       		.uleb128 0x3
 1500 0098 08       		.uleb128 0x8
 1501 0099 3A       		.uleb128 0x3a
 1502 009a 0B       		.uleb128 0xb
 1503 009b 3B       		.uleb128 0x3b
 1504 009c 0B       		.uleb128 0xb
 1505 009d 49       		.uleb128 0x49
 1506 009e 13       		.uleb128 0x13
 1507 009f 38       		.uleb128 0x38
 1508 00a0 0B       		.uleb128 0xb
 1509 00a1 00       		.byte	0
 1510 00a2 00       		.byte	0
 1511 00a3 0E       		.uleb128 0xe
 1512 00a4 0D       		.uleb128 0xd
 1513 00a5 00       		.byte	0
 1514 00a6 03       		.uleb128 0x3
 1515 00a7 0E       		.uleb128 0xe
 1516 00a8 3A       		.uleb128 0x3a
 1517 00a9 0B       		.uleb128 0xb
 1518 00aa 3B       		.uleb128 0x3b
 1519 00ab 0B       		.uleb128 0xb
 1520 00ac 49       		.uleb128 0x49
 1521 00ad 13       		.uleb128 0x13
 1522 00ae 38       		.uleb128 0x38
 1523 00af 0B       		.uleb128 0xb
 1524 00b0 00       		.byte	0
 1525 00b1 00       		.byte	0
 1526 00b2 0F       		.uleb128 0xf
 1527 00b3 17       		.uleb128 0x17
 1528 00b4 01       		.byte	0x1
 1529 00b5 0B       		.uleb128 0xb
 1530 00b6 0B       		.uleb128 0xb
 1531 00b7 3A       		.uleb128 0x3a
 1532 00b8 0B       		.uleb128 0xb
 1533 00b9 3B       		.uleb128 0x3b
 1534 00ba 0B       		.uleb128 0xb
 1535 00bb 01       		.uleb128 0x1
 1536 00bc 13       		.uleb128 0x13
 1537 00bd 00       		.byte	0
 1538 00be 00       		.byte	0
ARM GAS  /tmp/cc2qOxRh.s 			page 28


 1539 00bf 10       		.uleb128 0x10
 1540 00c0 0D       		.uleb128 0xd
 1541 00c1 00       		.byte	0
 1542 00c2 03       		.uleb128 0x3
 1543 00c3 08       		.uleb128 0x8
 1544 00c4 3A       		.uleb128 0x3a
 1545 00c5 0B       		.uleb128 0xb
 1546 00c6 3B       		.uleb128 0x3b
 1547 00c7 0B       		.uleb128 0xb
 1548 00c8 49       		.uleb128 0x49
 1549 00c9 13       		.uleb128 0x13
 1550 00ca 00       		.byte	0
 1551 00cb 00       		.byte	0
 1552 00cc 11       		.uleb128 0x11
 1553 00cd 0F       		.uleb128 0xf
 1554 00ce 00       		.byte	0
 1555 00cf 0B       		.uleb128 0xb
 1556 00d0 0B       		.uleb128 0xb
 1557 00d1 49       		.uleb128 0x49
 1558 00d2 13       		.uleb128 0x13
 1559 00d3 00       		.byte	0
 1560 00d4 00       		.byte	0
 1561 00d5 12       		.uleb128 0x12
 1562 00d6 2E       		.uleb128 0x2e
 1563 00d7 01       		.byte	0x1
 1564 00d8 03       		.uleb128 0x3
 1565 00d9 0E       		.uleb128 0xe
 1566 00da 3A       		.uleb128 0x3a
 1567 00db 0B       		.uleb128 0xb
 1568 00dc 3B       		.uleb128 0x3b
 1569 00dd 0B       		.uleb128 0xb
 1570 00de 27       		.uleb128 0x27
 1571 00df 19       		.uleb128 0x19
 1572 00e0 20       		.uleb128 0x20
 1573 00e1 0B       		.uleb128 0xb
 1574 00e2 01       		.uleb128 0x1
 1575 00e3 13       		.uleb128 0x13
 1576 00e4 00       		.byte	0
 1577 00e5 00       		.byte	0
 1578 00e6 13       		.uleb128 0x13
 1579 00e7 05       		.uleb128 0x5
 1580 00e8 00       		.byte	0
 1581 00e9 03       		.uleb128 0x3
 1582 00ea 0E       		.uleb128 0xe
 1583 00eb 3A       		.uleb128 0x3a
 1584 00ec 0B       		.uleb128 0xb
 1585 00ed 3B       		.uleb128 0x3b
 1586 00ee 0B       		.uleb128 0xb
 1587 00ef 49       		.uleb128 0x49
 1588 00f0 13       		.uleb128 0x13
 1589 00f1 00       		.byte	0
 1590 00f2 00       		.byte	0
 1591 00f3 14       		.uleb128 0x14
 1592 00f4 26       		.uleb128 0x26
 1593 00f5 00       		.byte	0
 1594 00f6 49       		.uleb128 0x49
 1595 00f7 13       		.uleb128 0x13
ARM GAS  /tmp/cc2qOxRh.s 			page 29


 1596 00f8 00       		.byte	0
 1597 00f9 00       		.byte	0
 1598 00fa 15       		.uleb128 0x15
 1599 00fb 2E       		.uleb128 0x2e
 1600 00fc 01       		.byte	0x1
 1601 00fd 3F       		.uleb128 0x3f
 1602 00fe 19       		.uleb128 0x19
 1603 00ff 03       		.uleb128 0x3
 1604 0100 0E       		.uleb128 0xe
 1605 0101 3A       		.uleb128 0x3a
 1606 0102 0B       		.uleb128 0xb
 1607 0103 3B       		.uleb128 0x3b
 1608 0104 0B       		.uleb128 0xb
 1609 0105 27       		.uleb128 0x27
 1610 0106 19       		.uleb128 0x19
 1611 0107 11       		.uleb128 0x11
 1612 0108 01       		.uleb128 0x1
 1613 0109 12       		.uleb128 0x12
 1614 010a 06       		.uleb128 0x6
 1615 010b 40       		.uleb128 0x40
 1616 010c 18       		.uleb128 0x18
 1617 010d 9742     		.uleb128 0x2117
 1618 010f 19       		.uleb128 0x19
 1619 0110 01       		.uleb128 0x1
 1620 0111 13       		.uleb128 0x13
 1621 0112 00       		.byte	0
 1622 0113 00       		.byte	0
 1623 0114 16       		.uleb128 0x16
 1624 0115 05       		.uleb128 0x5
 1625 0116 00       		.byte	0
 1626 0117 03       		.uleb128 0x3
 1627 0118 0E       		.uleb128 0xe
 1628 0119 3A       		.uleb128 0x3a
 1629 011a 0B       		.uleb128 0xb
 1630 011b 3B       		.uleb128 0x3b
 1631 011c 0B       		.uleb128 0xb
 1632 011d 49       		.uleb128 0x49
 1633 011e 13       		.uleb128 0x13
 1634 011f 02       		.uleb128 0x2
 1635 0120 18       		.uleb128 0x18
 1636 0121 00       		.byte	0
 1637 0122 00       		.byte	0
 1638 0123 17       		.uleb128 0x17
 1639 0124 1D       		.uleb128 0x1d
 1640 0125 01       		.byte	0x1
 1641 0126 31       		.uleb128 0x31
 1642 0127 13       		.uleb128 0x13
 1643 0128 52       		.uleb128 0x52
 1644 0129 01       		.uleb128 0x1
 1645 012a 55       		.uleb128 0x55
 1646 012b 17       		.uleb128 0x17
 1647 012c 58       		.uleb128 0x58
 1648 012d 0B       		.uleb128 0xb
 1649 012e 59       		.uleb128 0x59
 1650 012f 0B       		.uleb128 0xb
 1651 0130 01       		.uleb128 0x1
 1652 0131 13       		.uleb128 0x13
ARM GAS  /tmp/cc2qOxRh.s 			page 30


 1653 0132 00       		.byte	0
 1654 0133 00       		.byte	0
 1655 0134 18       		.uleb128 0x18
 1656 0135 05       		.uleb128 0x5
 1657 0136 00       		.byte	0
 1658 0137 31       		.uleb128 0x31
 1659 0138 13       		.uleb128 0x13
 1660 0139 02       		.uleb128 0x2
 1661 013a 18       		.uleb128 0x18
 1662 013b 00       		.byte	0
 1663 013c 00       		.byte	0
 1664 013d 19       		.uleb128 0x19
 1665 013e 05       		.uleb128 0x5
 1666 013f 00       		.byte	0
 1667 0140 31       		.uleb128 0x31
 1668 0141 13       		.uleb128 0x13
 1669 0142 1C       		.uleb128 0x1c
 1670 0143 06       		.uleb128 0x6
 1671 0144 00       		.byte	0
 1672 0145 00       		.byte	0
 1673 0146 1A       		.uleb128 0x1a
 1674 0147 1D       		.uleb128 0x1d
 1675 0148 01       		.byte	0x1
 1676 0149 31       		.uleb128 0x31
 1677 014a 13       		.uleb128 0x13
 1678 014b 11       		.uleb128 0x11
 1679 014c 01       		.uleb128 0x1
 1680 014d 12       		.uleb128 0x12
 1681 014e 06       		.uleb128 0x6
 1682 014f 58       		.uleb128 0x58
 1683 0150 0B       		.uleb128 0xb
 1684 0151 59       		.uleb128 0x59
 1685 0152 0B       		.uleb128 0xb
 1686 0153 00       		.byte	0
 1687 0154 00       		.byte	0
 1688 0155 1B       		.uleb128 0x1b
 1689 0156 05       		.uleb128 0x5
 1690 0157 00       		.byte	0
 1691 0158 03       		.uleb128 0x3
 1692 0159 0E       		.uleb128 0xe
 1693 015a 3A       		.uleb128 0x3a
 1694 015b 0B       		.uleb128 0xb
 1695 015c 3B       		.uleb128 0x3b
 1696 015d 0B       		.uleb128 0xb
 1697 015e 49       		.uleb128 0x49
 1698 015f 13       		.uleb128 0x13
 1699 0160 02       		.uleb128 0x2
 1700 0161 17       		.uleb128 0x17
 1701 0162 00       		.byte	0
 1702 0163 00       		.byte	0
 1703 0164 1C       		.uleb128 0x1c
 1704 0165 34       		.uleb128 0x34
 1705 0166 00       		.byte	0
 1706 0167 03       		.uleb128 0x3
 1707 0168 0E       		.uleb128 0xe
 1708 0169 3A       		.uleb128 0x3a
 1709 016a 0B       		.uleb128 0xb
ARM GAS  /tmp/cc2qOxRh.s 			page 31


 1710 016b 3B       		.uleb128 0x3b
 1711 016c 0B       		.uleb128 0xb
 1712 016d 49       		.uleb128 0x49
 1713 016e 13       		.uleb128 0x13
 1714 016f 02       		.uleb128 0x2
 1715 0170 17       		.uleb128 0x17
 1716 0171 00       		.byte	0
 1717 0172 00       		.byte	0
 1718 0173 1D       		.uleb128 0x1d
 1719 0174 34       		.uleb128 0x34
 1720 0175 00       		.byte	0
 1721 0176 03       		.uleb128 0x3
 1722 0177 0E       		.uleb128 0xe
 1723 0178 3A       		.uleb128 0x3a
 1724 0179 0B       		.uleb128 0xb
 1725 017a 3B       		.uleb128 0x3b
 1726 017b 0B       		.uleb128 0xb
 1727 017c 49       		.uleb128 0x49
 1728 017d 13       		.uleb128 0x13
 1729 017e 02       		.uleb128 0x2
 1730 017f 18       		.uleb128 0x18
 1731 0180 00       		.byte	0
 1732 0181 00       		.byte	0
 1733 0182 1E       		.uleb128 0x1e
 1734 0183 34       		.uleb128 0x34
 1735 0184 00       		.byte	0
 1736 0185 03       		.uleb128 0x3
 1737 0186 08       		.uleb128 0x8
 1738 0187 3A       		.uleb128 0x3a
 1739 0188 0B       		.uleb128 0xb
 1740 0189 3B       		.uleb128 0x3b
 1741 018a 0B       		.uleb128 0xb
 1742 018b 49       		.uleb128 0x49
 1743 018c 13       		.uleb128 0x13
 1744 018d 02       		.uleb128 0x2
 1745 018e 17       		.uleb128 0x17
 1746 018f 00       		.byte	0
 1747 0190 00       		.byte	0
 1748 0191 1F       		.uleb128 0x1f
 1749 0192 0B       		.uleb128 0xb
 1750 0193 01       		.byte	0x1
 1751 0194 55       		.uleb128 0x55
 1752 0195 17       		.uleb128 0x17
 1753 0196 00       		.byte	0
 1754 0197 00       		.byte	0
 1755 0198 20       		.uleb128 0x20
 1756 0199 34       		.uleb128 0x34
 1757 019a 00       		.byte	0
 1758 019b 03       		.uleb128 0x3
 1759 019c 0E       		.uleb128 0xe
 1760 019d 3A       		.uleb128 0x3a
 1761 019e 0B       		.uleb128 0xb
 1762 019f 3B       		.uleb128 0x3b
 1763 01a0 05       		.uleb128 0x5
 1764 01a1 49       		.uleb128 0x49
 1765 01a2 13       		.uleb128 0x13
 1766 01a3 3F       		.uleb128 0x3f
ARM GAS  /tmp/cc2qOxRh.s 			page 32


 1767 01a4 19       		.uleb128 0x19
 1768 01a5 3C       		.uleb128 0x3c
 1769 01a6 19       		.uleb128 0x19
 1770 01a7 00       		.byte	0
 1771 01a8 00       		.byte	0
 1772 01a9 00       		.byte	0
 1773              		.section	.debug_loc,"",%progbits
 1774              	.Ldebug_loc0:
 1775              	.LLST0:
 1776 0000 00000000 		.4byte	.LVL10
 1777 0004 88000000 		.4byte	.LVL24
 1778 0008 0100     		.2byte	0x1
 1779 000a 51       		.byte	0x51
 1780 000b 88000000 		.4byte	.LVL24
 1781 000f 8A000000 		.4byte	.LVL25
 1782 0013 0500     		.2byte	0x5
 1783 0015 71       		.byte	0x71
 1784 0016 00       		.sleb128 0
 1785 0017 31       		.byte	0x31
 1786 0018 25       		.byte	0x25
 1787 0019 9F       		.byte	0x9f
 1788 001a 8A000000 		.4byte	.LVL25
 1789 001e C8000000 		.4byte	.LFE120
 1790 0022 0100     		.2byte	0x1
 1791 0024 51       		.byte	0x51
 1792 0025 00000000 		.4byte	0
 1793 0029 00000000 		.4byte	0
 1794              	.LLST1:
 1795 002d 00000000 		.4byte	.LVL10
 1796 0031 1E000000 		.4byte	.LVL15
 1797 0035 0100     		.2byte	0x1
 1798 0037 52       		.byte	0x52
 1799 0038 1E000000 		.4byte	.LVL15
 1800 003c C8000000 		.4byte	.LFE120
 1801 0040 0400     		.2byte	0x4
 1802 0042 F3       		.byte	0xf3
 1803 0043 01       		.uleb128 0x1
 1804 0044 52       		.byte	0x52
 1805 0045 9F       		.byte	0x9f
 1806 0046 00000000 		.4byte	0
 1807 004a 00000000 		.4byte	0
 1808              	.LLST2:
 1809 004e 0A000000 		.4byte	.LVL11
 1810 0052 C6000000 		.4byte	.LVL35
 1811 0056 0100     		.2byte	0x1
 1812 0058 57       		.byte	0x57
 1813 0059 00000000 		.4byte	0
 1814 005d 00000000 		.4byte	0
 1815              	.LLST3:
 1816 0061 0E000000 		.4byte	.LVL12
 1817 0065 C6000000 		.4byte	.LVL35
 1818 0069 0100     		.2byte	0x1
 1819 006b 56       		.byte	0x56
 1820 006c 00000000 		.4byte	0
 1821 0070 00000000 		.4byte	0
 1822              	.LLST4:
 1823 0074 12000000 		.4byte	.LVL13
ARM GAS  /tmp/cc2qOxRh.s 			page 33


 1824 0078 C6000000 		.4byte	.LVL35
 1825 007c 0100     		.2byte	0x1
 1826 007e 55       		.byte	0x55
 1827 007f 00000000 		.4byte	0
 1828 0083 00000000 		.4byte	0
 1829              	.LLST5:
 1830 0087 16000000 		.4byte	.LVL14
 1831 008b C6000000 		.4byte	.LVL35
 1832 008f 0100     		.2byte	0x1
 1833 0091 54       		.byte	0x54
 1834 0092 00000000 		.4byte	0
 1835 0096 00000000 		.4byte	0
 1836              	.LLST6:
 1837 009a 1E000000 		.4byte	.LVL15
 1838 009e 24000000 		.4byte	.LVL16
 1839 00a2 0200     		.2byte	0x2
 1840 00a4 30       		.byte	0x30
 1841 00a5 9F       		.byte	0x9f
 1842 00a6 24000000 		.4byte	.LVL16
 1843 00aa C8000000 		.4byte	.LFE120
 1844 00ae 0100     		.2byte	0x1
 1845 00b0 53       		.byte	0x53
 1846 00b1 00000000 		.4byte	0
 1847 00b5 00000000 		.4byte	0
 1848              	.LLST7:
 1849 00b9 24000000 		.4byte	.LVL16
 1850 00bd 30000000 		.4byte	.LVL18
 1851 00c1 0100     		.2byte	0x1
 1852 00c3 58       		.byte	0x58
 1853 00c4 30000000 		.4byte	.LVL18
 1854 00c8 96000000 		.4byte	.LVL30
 1855 00cc 0A00     		.2byte	0xa
 1856 00ce 72       		.byte	0x72
 1857 00cf 00       		.sleb128 0
 1858 00d0 73       		.byte	0x73
 1859 00d1 00       		.sleb128 0
 1860 00d2 37       		.byte	0x37
 1861 00d3 1A       		.byte	0x1a
 1862 00d4 32       		.byte	0x32
 1863 00d5 24       		.byte	0x24
 1864 00d6 24       		.byte	0x24
 1865 00d7 9F       		.byte	0x9f
 1866 00d8 A6000000 		.4byte	.LVL31
 1867 00dc BC000000 		.4byte	.LVL34
 1868 00e0 0100     		.2byte	0x1
 1869 00e2 58       		.byte	0x58
 1870 00e3 BC000000 		.4byte	.LVL34
 1871 00e7 C8000000 		.4byte	.LFE120
 1872 00eb 0A00     		.2byte	0xa
 1873 00ed 72       		.byte	0x72
 1874 00ee 00       		.sleb128 0
 1875 00ef 73       		.byte	0x73
 1876 00f0 00       		.sleb128 0
 1877 00f1 37       		.byte	0x37
 1878 00f2 1A       		.byte	0x1a
 1879 00f3 32       		.byte	0x32
 1880 00f4 24       		.byte	0x24
ARM GAS  /tmp/cc2qOxRh.s 			page 34


 1881 00f5 24       		.byte	0x24
 1882 00f6 9F       		.byte	0x9f
 1883 00f7 00000000 		.4byte	0
 1884 00fb 00000000 		.4byte	0
 1885              	.LLST8:
 1886 00ff 34000000 		.4byte	.LVL19
 1887 0103 88000000 		.4byte	.LVL24
 1888 0107 0500     		.2byte	0x5
 1889 0109 31       		.byte	0x31
 1890 010a 73       		.byte	0x73
 1891 010b 00       		.sleb128 0
 1892 010c 24       		.byte	0x24
 1893 010d 9F       		.byte	0x9f
 1894 010e 00000000 		.4byte	0
 1895 0112 00000000 		.4byte	0
 1896              	.LLST9:
 1897 0116 48000000 		.4byte	.LVL20
 1898 011a 58000000 		.4byte	.LVL21
 1899 011e 0700     		.2byte	0x7
 1900 0120 33       		.byte	0x33
 1901 0121 73       		.byte	0x73
 1902 0122 00       		.sleb128 0
 1903 0123 31       		.byte	0x31
 1904 0124 24       		.byte	0x24
 1905 0125 24       		.byte	0x24
 1906 0126 9F       		.byte	0x9f
 1907 0127 58000000 		.4byte	.LVL21
 1908 012b 5C000000 		.4byte	.LVL22
 1909 012f 0100     		.2byte	0x1
 1910 0131 5C       		.byte	0x5c
 1911 0132 5C000000 		.4byte	.LVL22
 1912 0136 80000000 		.4byte	.LVL23
 1913 013a 0400     		.2byte	0x4
 1914 013c 7C       		.byte	0x7c
 1915 013d 00       		.sleb128 0
 1916 013e 20       		.byte	0x20
 1917 013f 9F       		.byte	0x9f
 1918 0140 80000000 		.4byte	.LVL23
 1919 0144 88000000 		.4byte	.LVL24
 1920 0148 0700     		.2byte	0x7
 1921 014a 33       		.byte	0x33
 1922 014b 73       		.byte	0x73
 1923 014c 00       		.sleb128 0
 1924 014d 31       		.byte	0x31
 1925 014e 24       		.byte	0x24
 1926 014f 24       		.byte	0x24
 1927 0150 9F       		.byte	0x9f
 1928 0151 00000000 		.4byte	0
 1929 0155 00000000 		.4byte	0
 1930              	.LLST10:
 1931 0159 24000000 		.4byte	.LVL16
 1932 015d 2C000000 		.4byte	.LVL17
 1933 0161 0100     		.2byte	0x1
 1934 0163 5C       		.byte	0x5c
 1935 0164 2C000000 		.4byte	.LVL17
 1936 0168 96000000 		.4byte	.LVL30
 1937 016c 0A00     		.2byte	0xa
ARM GAS  /tmp/cc2qOxRh.s 			page 35


 1938 016e 79       		.byte	0x79
 1939 016f 00       		.sleb128 0
 1940 0170 73       		.byte	0x73
 1941 0171 00       		.sleb128 0
 1942 0172 37       		.byte	0x37
 1943 0173 1A       		.byte	0x1a
 1944 0174 32       		.byte	0x32
 1945 0175 24       		.byte	0x24
 1946 0176 24       		.byte	0x24
 1947 0177 9F       		.byte	0x9f
 1948 0178 AA000000 		.4byte	.LVL32
 1949 017c B8000000 		.4byte	.LVL33
 1950 0180 0100     		.2byte	0x1
 1951 0182 5C       		.byte	0x5c
 1952 0183 B8000000 		.4byte	.LVL33
 1953 0187 C6000000 		.4byte	.LVL35
 1954 018b 0A00     		.2byte	0xa
 1955 018d 79       		.byte	0x79
 1956 018e 00       		.sleb128 0
 1957 018f 73       		.byte	0x73
 1958 0190 00       		.sleb128 0
 1959 0191 37       		.byte	0x37
 1960 0192 1A       		.byte	0x1a
 1961 0193 32       		.byte	0x32
 1962 0194 24       		.byte	0x24
 1963 0195 24       		.byte	0x24
 1964 0196 9F       		.byte	0x9f
 1965 0197 C6000000 		.4byte	.LVL35
 1966 019b C8000000 		.4byte	.LFE120
 1967 019f 0900     		.2byte	0x9
 1968 01a1 3F       		.byte	0x3f
 1969 01a2 73       		.byte	0x73
 1970 01a3 00       		.sleb128 0
 1971 01a4 37       		.byte	0x37
 1972 01a5 1A       		.byte	0x1a
 1973 01a6 32       		.byte	0x32
 1974 01a7 24       		.byte	0x24
 1975 01a8 24       		.byte	0x24
 1976 01a9 9F       		.byte	0x9f
 1977 01aa 00000000 		.4byte	0
 1978 01ae 00000000 		.4byte	0
 1979              		.section	.debug_aranges,"",%progbits
 1980 0000 24000000 		.4byte	0x24
 1981 0004 0200     		.2byte	0x2
 1982 0006 00000000 		.4byte	.Ldebug_info0
 1983 000a 04       		.byte	0x4
 1984 000b 00       		.byte	0
 1985 000c 0000     		.2byte	0
 1986 000e 0000     		.2byte	0
 1987 0010 00000000 		.4byte	.LFB119
 1988 0014 C0010000 		.4byte	.LFE119-.LFB119
 1989 0018 00000000 		.4byte	.LFB120
 1990 001c C8000000 		.4byte	.LFE120-.LFB120
 1991 0020 00000000 		.4byte	0
 1992 0024 00000000 		.4byte	0
 1993              		.section	.debug_ranges,"",%progbits
 1994              	.Ldebug_ranges0:
ARM GAS  /tmp/cc2qOxRh.s 			page 36


 1995 0000 08000000 		.4byte	.LBB20
 1996 0004 0C000000 		.4byte	.LBE20
 1997 0008 38000000 		.4byte	.LBB44
 1998 000c 62000000 		.4byte	.LBE44
 1999 0010 00000000 		.4byte	0
 2000 0014 00000000 		.4byte	0
 2001 0018 10000000 		.4byte	.LBB23
 2002 001c 14000000 		.4byte	.LBE23
 2003 0020 62000000 		.4byte	.LBB45
 2004 0024 8C000000 		.4byte	.LBE45
 2005 0028 00000000 		.4byte	0
 2006 002c 00000000 		.4byte	0
 2007 0030 14000000 		.4byte	.LBB26
 2008 0034 16000000 		.4byte	.LBE26
 2009 0038 8C000000 		.4byte	.LBB46
 2010 003c A8000000 		.4byte	.LBE46
 2011 0040 00000000 		.4byte	0
 2012 0044 00000000 		.4byte	0
 2013 0048 16000000 		.4byte	.LBB29
 2014 004c 18000000 		.4byte	.LBE29
 2015 0050 A8000000 		.4byte	.LBB47
 2016 0054 C4000000 		.4byte	.LBE47
 2017 0058 00000000 		.4byte	0
 2018 005c 00000000 		.4byte	0
 2019 0060 18000000 		.4byte	.LBB32
 2020 0064 1A000000 		.4byte	.LBE32
 2021 0068 C4000000 		.4byte	.LBB48
 2022 006c E6000000 		.4byte	.LBE48
 2023 0070 00000000 		.4byte	0
 2024 0074 00000000 		.4byte	0
 2025 0078 1A000000 		.4byte	.LBB35
 2026 007c 1C000000 		.4byte	.LBE35
 2027 0080 E6000000 		.4byte	.LBB49
 2028 0084 10010000 		.4byte	.LBE49
 2029 0088 00000000 		.4byte	0
 2030 008c 00000000 		.4byte	0
 2031 0090 1C000000 		.4byte	.LBB38
 2032 0094 1E000000 		.4byte	.LBE38
 2033 0098 10010000 		.4byte	.LBB50
 2034 009c 3A010000 		.4byte	.LBE50
 2035 00a0 00000000 		.4byte	0
 2036 00a4 00000000 		.4byte	0
 2037 00a8 1E000000 		.4byte	.LBB41
 2038 00ac 20000000 		.4byte	.LBE41
 2039 00b0 3A010000 		.4byte	.LBB51
 2040 00b4 64010000 		.4byte	.LBE51
 2041 00b8 00000000 		.4byte	0
 2042 00bc 00000000 		.4byte	0
 2043 00c0 16000000 		.4byte	.LBB54
 2044 00c4 1A000000 		.4byte	.LBE54
 2045 00c8 1E000000 		.4byte	.LBB55
 2046 00cc 88000000 		.4byte	.LBE55
 2047 00d0 96000000 		.4byte	.LBB56
 2048 00d4 9E000000 		.4byte	.LBE56
 2049 00d8 A2000000 		.4byte	.LBB57
 2050 00dc AA000000 		.4byte	.LBE57
 2051 00e0 AC000000 		.4byte	.LBB58
ARM GAS  /tmp/cc2qOxRh.s 			page 37


 2052 00e4 C2000000 		.4byte	.LBE58
 2053 00e8 00000000 		.4byte	0
 2054 00ec 00000000 		.4byte	0
 2055 00f0 00000000 		.4byte	.LFB119
 2056 00f4 C0010000 		.4byte	.LFE119
 2057 00f8 00000000 		.4byte	.LFB120
 2058 00fc C8000000 		.4byte	.LFE120
 2059 0100 00000000 		.4byte	0
 2060 0104 00000000 		.4byte	0
 2061              		.section	.debug_line,"",%progbits
 2062              	.Ldebug_line0:
 2063 0000 CD010000 		.section	.debug_str,"MS",%progbits,1
 2063      02001A01 
 2063      00000201 
 2063      FB0E0D00 
 2063      01010101 
 2064              	.LASF31:
 2065 0000 41484231 		.ascii	"AHB1LPENR\000"
 2065      4C50454E 
 2065      5200
 2066              	.LASF64:
 2067 000a 50434461 		.ascii	"PCData\000"
 2067      746100
 2068              	.LASF78:
 2069 0011 5F70616C 		.ascii	"_pal_lld_setgroupmode\000"
 2069      5F6C6C64 
 2069      5F736574 
 2069      67726F75 
 2069      706D6F64 
 2070              	.LASF21:
 2071 0027 41504231 		.ascii	"APB1RSTR\000"
 2071      52535452 
 2071      00
 2072              	.LASF25:
 2073 0030 41484232 		.ascii	"AHB2ENR\000"
 2073      454E5200 
 2074              	.LASF61:
 2075 0038 73746D33 		.ascii	"stm32_gpio_setup_t\000"
 2075      325F6770 
 2075      696F5F73 
 2075      65747570 
 2075      5F7400
 2076              	.LASF67:
 2077 004b 50464461 		.ascii	"PFData\000"
 2077      746100
 2078              	.LASF77:
 2079 0052 5F70616C 		.ascii	"_pal_lld_init\000"
 2079      5F6C6C64 
 2079      5F696E69 
 2079      7400
 2080              	.LASF3:
 2081 0060 73686F72 		.ascii	"short int\000"
 2081      7420696E 
 2081      7400
 2082              	.LASF87:
 2083 006a 696E6974 		.ascii	"initgpio\000"
 2083      6770696F 
ARM GAS  /tmp/cc2qOxRh.s 			page 38


 2083      00
 2084              	.LASF13:
 2085 0073 73697A65 		.ascii	"sizetype\000"
 2085      74797065 
 2085      00
 2086              	.LASF38:
 2087 007c 42444352 		.ascii	"BDCR\000"
 2087      00
 2088              	.LASF70:
 2089 0081 50494461 		.ascii	"PIData\000"
 2089      746100
 2090              	.LASF41:
 2091 0088 504C4C49 		.ascii	"PLLI2SCFGR\000"
 2091      32534346 
 2091      475200
 2092              	.LASF75:
 2093 0093 6770696F 		.ascii	"gpiop\000"
 2093      7000
 2094              	.LASF40:
 2095 0099 53534347 		.ascii	"SSCGR\000"
 2095      5200
 2096              	.LASF63:
 2097 009f 50424461 		.ascii	"PBData\000"
 2097      746100
 2098              	.LASF33:
 2099 00a6 41484233 		.ascii	"AHB3LPENR\000"
 2099      4C50454E 
 2099      5200
 2100              	.LASF76:
 2101 00b0 636F6E66 		.ascii	"config\000"
 2101      696700
 2102              	.LASF73:
 2103 00b7 696F6D6F 		.ascii	"iomode_t\000"
 2103      64655F74 
 2103      00
 2104              	.LASF28:
 2105 00c0 41504231 		.ascii	"APB1ENR\000"
 2105      454E5200 
 2106              	.LASF72:
 2107 00c8 696F706F 		.ascii	"ioportmask_t\000"
 2107      72746D61 
 2107      736B5F74 
 2107      00
 2108              	.LASF47:
 2109 00d5 4F545950 		.ascii	"OTYPER\000"
 2109      455200
 2110              	.LASF43:
 2111 00dc 44434B43 		.ascii	"DCKCFGR\000"
 2111      46475200 
 2112              	.LASF26:
 2113 00e4 41484233 		.ascii	"AHB3ENR\000"
 2113      454E5200 
 2114              	.LASF48:
 2115 00ec 4F535045 		.ascii	"OSPEEDR\000"
 2115      45445200 
 2116              	.LASF10:
 2117 00f4 6C6F6E67 		.ascii	"long long int\000"
ARM GAS  /tmp/cc2qOxRh.s 			page 39


 2117      206C6F6E 
 2117      6720696E 
 2117      7400
 2118              	.LASF49:
 2119 0102 50555044 		.ascii	"PUPDR\000"
 2119      5200
 2120              	.LASF57:
 2121 0108 6F737065 		.ascii	"ospeedr\000"
 2121      65647200 
 2122              	.LASF7:
 2123 0110 6C6F6E67 		.ascii	"long int\000"
 2123      20696E74 
 2123      00
 2124              	.LASF85:
 2125 0119 2E2E2F41 		.ascii	"../AithonLibrary/ChibiOS/os/hal/platforms/STM32/GPI"
 2125      6974686F 
 2125      6E4C6962 
 2125      72617279 
 2125      2F436869 
 2126 014c 4F76322F 		.ascii	"Ov2/pal_lld.c\000"
 2126      70616C5F 
 2126      6C6C642E 
 2126      6300
 2127              	.LASF65:
 2128 015a 50444461 		.ascii	"PDData\000"
 2128      746100
 2129              	.LASF44:
 2130 0161 5243435F 		.ascii	"RCC_TypeDef\000"
 2130      54797065 
 2130      44656600 
 2131              	.LASF46:
 2132 016d 4D4F4445 		.ascii	"MODER\000"
 2132      5200
 2133              	.LASF22:
 2134 0173 41504232 		.ascii	"APB2RSTR\000"
 2134      52535452 
 2134      00
 2135              	.LASF45:
 2136 017c 636C6561 		.ascii	"clear\000"
 2136      7200
 2137              	.LASF86:
 2138 0182 2F686F6D 		.ascii	"/home/brian/aithon/ProjectTemplate\000"
 2138      652F6272 
 2138      69616E2F 
 2138      61697468 
 2138      6F6E2F50 
 2139              	.LASF68:
 2140 01a5 50474461 		.ascii	"PGData\000"
 2140      746100
 2141              	.LASF62:
 2142 01ac 50414461 		.ascii	"PAData\000"
 2142      746100
 2143              	.LASF74:
 2144 01b3 696F706F 		.ascii	"ioportid_t\000"
 2144      72746964 
 2144      5F7400
 2145              	.LASF2:
ARM GAS  /tmp/cc2qOxRh.s 			page 40


 2146 01be 756E7369 		.ascii	"unsigned char\000"
 2146      676E6564 
 2146      20636861 
 2146      7200
 2147              	.LASF29:
 2148 01cc 41504232 		.ascii	"APB2ENR\000"
 2148      454E5200 
 2149              	.LASF1:
 2150 01d4 7369676E 		.ascii	"signed char\000"
 2150      65642063 
 2150      68617200 
 2151              	.LASF11:
 2152 01e0 6C6F6E67 		.ascii	"long long unsigned int\000"
 2152      206C6F6E 
 2152      6720756E 
 2152      7369676E 
 2152      65642069 
 2153              	.LASF8:
 2154 01f7 75696E74 		.ascii	"uint32_t\000"
 2154      33325F74 
 2154      00
 2155              	.LASF56:
 2156 0200 6F747970 		.ascii	"otyper\000"
 2156      657200
 2157              	.LASF18:
 2158 0207 41484232 		.ascii	"AHB2RSTR\000"
 2158      52535452 
 2158      00
 2159              	.LASF5:
 2160 0210 75696E74 		.ascii	"uint16_t\000"
 2160      31365F74 
 2160      00
 2161              	.LASF9:
 2162 0219 6C6F6E67 		.ascii	"long unsigned int\000"
 2162      20756E73 
 2162      69676E65 
 2162      6420696E 
 2162      7400
 2163              	.LASF53:
 2164 022b 41465248 		.ascii	"AFRH\000"
 2164      00
 2165              	.LASF15:
 2166 0230 504C4C43 		.ascii	"PLLCFGR\000"
 2166      46475200 
 2167              	.LASF52:
 2168 0238 4146524C 		.ascii	"AFRL\000"
 2168      00
 2169              	.LASF4:
 2170 023d 73686F72 		.ascii	"short unsigned int\000"
 2170      7420756E 
 2170      7369676E 
 2170      65642069 
 2170      6E7400
 2171              	.LASF35:
 2172 0250 41504231 		.ascii	"APB1LPENR\000"
 2172      4C50454E 
 2172      5200
ARM GAS  /tmp/cc2qOxRh.s 			page 41


 2173              	.LASF14:
 2174 025a 63686172 		.ascii	"char\000"
 2174      00
 2175              	.LASF84:
 2176 025f 474E5520 		.ascii	"GNU C 4.8.3 20131129 (release) [ARM/embedded-4_8-br"
 2176      4320342E 
 2176      382E3320 
 2176      32303133 
 2176      31313239 
 2177 0292 616E6368 		.ascii	"anch revision 205641] -mcpu=cortex-m4 -mfloat-abi=s"
 2177      20726576 
 2177      6973696F 
 2177      6E203230 
 2177      35363431 
 2178 02c5 6F667466 		.ascii	"oftfp -mfpu=fpv4-sp-d16 -mno-thumb-interwork -mthum"
 2178      70202D6D 
 2178      6670753D 
 2178      66707634 
 2178      2D73702D 
 2179 02f8 62202D67 		.ascii	"b -ggdb -O2 -fomit-frame-pointer -falign-functions="
 2179      67646220 
 2179      2D4F3220 
 2179      2D666F6D 
 2179      69742D66 
 2180 032b 3136202D 		.ascii	"16 -fsingle-precision-constant -ffunction-sections "
 2180      6673696E 
 2180      676C652D 
 2180      70726563 
 2180      6973696F 
 2181 035e 2D666461 		.ascii	"-fdata-sections -fno-common\000"
 2181      74612D73 
 2181      65637469 
 2181      6F6E7320 
 2181      2D666E6F 
 2182              	.LASF6:
 2183 037a 696E7433 		.ascii	"int32_t\000"
 2183      325F7400 
 2184              	.LASF71:
 2185 0382 50414C43 		.ascii	"PALConfig\000"
 2185      6F6E6669 
 2185      6700
 2186              	.LASF12:
 2187 038c 5F426F6F 		.ascii	"_Bool\000"
 2187      6C00
 2188              	.LASF81:
 2189 0392 6D6F6465 		.ascii	"mode\000"
 2189      00
 2190              	.LASF32:
 2191 0397 41484232 		.ascii	"AHB2LPENR\000"
 2191      4C50454E 
 2191      5200
 2192              	.LASF79:
 2193 03a1 706F7274 		.ascii	"port\000"
 2193      00
 2194              	.LASF66:
 2195 03a6 50454461 		.ascii	"PEData\000"
 2195      746100
ARM GAS  /tmp/cc2qOxRh.s 			page 42


 2196              	.LASF20:
 2197 03ad 52455345 		.ascii	"RESERVED0\000"
 2197      52564544 
 2197      3000
 2198              	.LASF23:
 2199 03b7 52455345 		.ascii	"RESERVED1\000"
 2199      52564544 
 2199      3100
 2200              	.LASF27:
 2201 03c1 52455345 		.ascii	"RESERVED2\000"
 2201      52564544 
 2201      3200
 2202              	.LASF30:
 2203 03cb 52455345 		.ascii	"RESERVED3\000"
 2203      52564544 
 2203      3300
 2204              	.LASF34:
 2205 03d5 52455345 		.ascii	"RESERVED4\000"
 2205      52564544 
 2205      3400
 2206              	.LASF37:
 2207 03df 52455345 		.ascii	"RESERVED5\000"
 2207      52564544 
 2207      3500
 2208              	.LASF39:
 2209 03e9 52455345 		.ascii	"RESERVED6\000"
 2209      52564544 
 2209      3600
 2210              	.LASF69:
 2211 03f3 50484461 		.ascii	"PHData\000"
 2211      746100
 2212              	.LASF24:
 2213 03fa 41484231 		.ascii	"AHB1ENR\000"
 2213      454E5200 
 2214              	.LASF80:
 2215 0402 6D61736B 		.ascii	"mask\000"
 2215      00
 2216              	.LASF58:
 2217 0407 70757064 		.ascii	"pupdr\000"
 2217      7200
 2218              	.LASF60:
 2219 040d 61667268 		.ascii	"afrh\000"
 2219      00
 2220              	.LASF59:
 2221 0412 6166726C 		.ascii	"afrl\000"
 2221      00
 2222              	.LASF55:
 2223 0417 6D6F6465 		.ascii	"moder\000"
 2223      7200
 2224              	.LASF17:
 2225 041d 41484231 		.ascii	"AHB1RSTR\000"
 2225      52535452 
 2225      00
 2226              	.LASF54:
 2227 0426 4750494F 		.ascii	"GPIO_TypeDef\000"
 2227      5F547970 
 2227      65446566 
ARM GAS  /tmp/cc2qOxRh.s 			page 43


 2227      00
 2228              	.LASF19:
 2229 0433 41484233 		.ascii	"AHB3RSTR\000"
 2229      52535452 
 2229      00
 2230              	.LASF82:
 2231 043c 616C7472 		.ascii	"altr\000"
 2231      00
 2232              	.LASF88:
 2233 0441 49544D5F 		.ascii	"ITM_RxBuffer\000"
 2233      52784275 
 2233      66666572 
 2233      00
 2234              	.LASF83:
 2235 044e 616C7472 		.ascii	"altrmask\000"
 2235      6D61736B 
 2235      00
 2236              	.LASF0:
 2237 0457 756E7369 		.ascii	"unsigned int\000"
 2237      676E6564 
 2237      20696E74 
 2237      00
 2238              	.LASF16:
 2239 0464 43464752 		.ascii	"CFGR\000"
 2239      00
 2240              	.LASF42:
 2241 0469 504C4C53 		.ascii	"PLLSAICFGR\000"
 2241      41494346 
 2241      475200
 2242              	.LASF51:
 2243 0474 4C434B52 		.ascii	"LCKR\000"
 2243      00
 2244              	.LASF36:
 2245 0479 41504232 		.ascii	"APB2LPENR\000"
 2245      4C50454E 
 2245      5200
 2246              	.LASF50:
 2247 0483 42535252 		.ascii	"BSRR\000"
 2247      00
 2248              		.ident	"GCC: (GNU Tools for ARM Embedded Processors) 4.8.3 20131129 (release) [ARM/embedded-4_8-br
ARM GAS  /tmp/cc2qOxRh.s 			page 44


DEFINED SYMBOLS
                            *ABS*:0000000000000000 pal_lld.c
     /tmp/cc2qOxRh.s:20     .text._pal_lld_init:0000000000000000 $t
     /tmp/cc2qOxRh.s:26     .text._pal_lld_init:0000000000000000 _pal_lld_init
     /tmp/cc2qOxRh.s:340    .text._pal_lld_init:0000000000000198 $d
     /tmp/cc2qOxRh.s:354    .text._pal_lld_setgroupmode:0000000000000000 $t
     /tmp/cc2qOxRh.s:360    .text._pal_lld_setgroupmode:0000000000000000 _pal_lld_setgroupmode
                     .debug_frame:0000000000000010 $d

NO UNDEFINED SYMBOLS
