ARM GAS  /tmp/cc2qOxRh.s 			page 1


   1              		.syntax unified
   2              		.cpu cortex-m4
   3              		.eabi_attribute 27, 3
   4              		.fpu fpv4-sp-d16
   5              		.eabi_attribute 20, 1
   6              		.eabi_attribute 21, 1
   7              		.eabi_attribute 23, 3
   8              		.eabi_attribute 24, 1
   9              		.eabi_attribute 25, 1
  10              		.eabi_attribute 26, 1
  11              		.eabi_attribute 30, 2
  12              		.eabi_attribute 34, 1
  13              		.eabi_attribute 18, 4
  14              		.thumb
  15              		.file	"pal_lld.c"
  16              		.text
  17              	.Ltext0:
  18              		.cfi_sections	.debug_frame
  19              		.section	.text._pal_lld_init,"ax",%progbits
  20              		.align	2
  21              		.p2align 4,,15
  22              		.global	_pal_lld_init
  23              		.thumb
  24              		.thumb_func
  25              		.type	_pal_lld_init, %function
  26              	_pal_lld_init:
  27              	.LFB119:
  28              		.file 1 "../AithonLibrary/ChibiOS/os/hal/platforms/STM32/GPIOv2/pal_lld.c"
  29              		.loc 1 113 0
  30              		.cfi_startproc
  31              		@ args = 0, pretend = 0, frame = 0
  32              		@ frame_needed = 0, uses_anonymous_args = 0
  33              		@ link register save eliminated.
  34              	.LVL0:
  35 0000 2DE9F00F 		push	{r4, r5, r6, r7, r8, r9, r10, fp}
  36              		.cfi_def_cfa_offset 32
  37              		.cfi_offset 4, -32
  38              		.cfi_offset 5, -28
  39              		.cfi_offset 6, -24
  40              		.cfi_offset 7, -20
  41              		.cfi_offset 8, -16
  42              		.cfi_offset 9, -12
  43              		.cfi_offset 10, -8
  44              		.cfi_offset 11, -4
  45              		.loc 1 126 0
  46 0004 DFF8AC91 		ldr	r9, .L2+28
  47              	.LBB20:
  48              	.LBB21:
  49              		.loc 1 88 0
  50 0008 DFF8AC81 		ldr	r8, .L2+32
  51              	.LBE21:
  52              	.LBE20:
  53              		.loc 1 126 0
  54 000c D9F830B0 		ldr	fp, [r9, #48]
  55              	.LBB23:
  56              	.LBB24:
  57              		.loc 1 88 0
ARM GAS  /tmp/cc2qOxRh.s 			page 2


  58 0010 DFF8A8C1 		ldr	ip, .L2+36
  59              	.LBE24:
  60              	.LBE23:
  61              	.LBB26:
  62              	.LBB27:
  63 0014 604F     		ldr	r7, .L2
  64              	.LBE27:
  65              	.LBE26:
  66              	.LBB29:
  67              	.LBB30:
  68 0016 614E     		ldr	r6, .L2+4
  69              	.LBE30:
  70              	.LBE29:
  71              	.LBB32:
  72              	.LBB33:
  73 0018 614D     		ldr	r5, .L2+8
  74              	.LBE33:
  75              	.LBE32:
  76              	.LBB35:
  77              	.LBB36:
  78 001a 624C     		ldr	r4, .L2+12
  79              	.LBE36:
  80              	.LBE35:
  81              	.LBB38:
  82              	.LBB39:
  83 001c 6249     		ldr	r1, .L2+16
  84              	.LBE39:
  85              	.LBE38:
  86              	.LBB41:
  87              	.LBB42:
  88 001e 634A     		ldr	r2, .L2+20
  89              	.LBE42:
  90              	.LBE41:
  91              		.loc 1 126 0
  92 0020 40F2FF1A 		movw	r10, #511
  93 0024 4BEA0A0B 		orr	fp, fp, r10
  94 0028 C9F830B0 		str	fp, [r9, #48]
  95              		.loc 1 127 0
  96 002c D9F850B0 		ldr	fp, [r9, #80]
  97 0030 4BEA0A0A 		orr	r10, fp, r10
  98 0034 C9F850A0 		str	r10, [r9, #80]
  99              	.LVL1:
 100              	.LBB44:
 101              	.LBB22:
 102              		.loc 1 88 0
 103 0038 4368     		ldr	r3, [r0, #4]
 104 003a C8F80430 		str	r3, [r8, #4]
 105              		.loc 1 89 0
 106 003e 8368     		ldr	r3, [r0, #8]
 107 0040 C8F80830 		str	r3, [r8, #8]
 108              		.loc 1 90 0
 109 0044 C368     		ldr	r3, [r0, #12]
 110 0046 C8F80C30 		str	r3, [r8, #12]
 111              		.loc 1 91 0
 112 004a 0369     		ldr	r3, [r0, #16]
 113 004c C8F81430 		str	r3, [r8, #20]
 114              		.loc 1 92 0
ARM GAS  /tmp/cc2qOxRh.s 			page 3


 115 0050 4369     		ldr	r3, [r0, #20]
 116 0052 C8F82030 		str	r3, [r8, #32]
 117              		.loc 1 93 0
 118 0056 8369     		ldr	r3, [r0, #24]
 119 0058 C8F82430 		str	r3, [r8, #36]
 120              		.loc 1 94 0
 121 005c 0368     		ldr	r3, [r0]
 122 005e C8F80030 		str	r3, [r8]
 123              	.LVL2:
 124              	.LBE22:
 125              	.LBE44:
 126              	.LBB45:
 127              	.LBB25:
 128              		.loc 1 88 0
 129 0062 036A     		ldr	r3, [r0, #32]
 130 0064 CCF80430 		str	r3, [ip, #4]
 131              		.loc 1 89 0
 132 0068 436A     		ldr	r3, [r0, #36]
 133 006a CCF80830 		str	r3, [ip, #8]
 134              		.loc 1 90 0
 135 006e 836A     		ldr	r3, [r0, #40]
 136 0070 CCF80C30 		str	r3, [ip, #12]
 137              		.loc 1 91 0
 138 0074 C36A     		ldr	r3, [r0, #44]
 139 0076 CCF81430 		str	r3, [ip, #20]
 140              		.loc 1 92 0
 141 007a 036B     		ldr	r3, [r0, #48]
 142 007c CCF82030 		str	r3, [ip, #32]
 143              		.loc 1 93 0
 144 0080 436B     		ldr	r3, [r0, #52]
 145 0082 CCF82430 		str	r3, [ip, #36]
 146              		.loc 1 94 0
 147 0086 C369     		ldr	r3, [r0, #28]
 148 0088 CCF80030 		str	r3, [ip]
 149              	.LVL3:
 150              	.LBE25:
 151              	.LBE45:
 152              	.LBB46:
 153              	.LBB28:
 154              		.loc 1 88 0
 155 008c C36B     		ldr	r3, [r0, #60]
 156 008e 7B60     		str	r3, [r7, #4]
 157              		.loc 1 89 0
 158 0090 036C     		ldr	r3, [r0, #64]
 159 0092 BB60     		str	r3, [r7, #8]
 160              		.loc 1 90 0
 161 0094 436C     		ldr	r3, [r0, #68]
 162 0096 FB60     		str	r3, [r7, #12]
 163              		.loc 1 91 0
 164 0098 836C     		ldr	r3, [r0, #72]
 165 009a 7B61     		str	r3, [r7, #20]
 166              		.loc 1 92 0
 167 009c C36C     		ldr	r3, [r0, #76]
 168 009e 3B62     		str	r3, [r7, #32]
 169              		.loc 1 93 0
 170 00a0 036D     		ldr	r3, [r0, #80]
 171 00a2 7B62     		str	r3, [r7, #36]
ARM GAS  /tmp/cc2qOxRh.s 			page 4


 172              		.loc 1 94 0
 173 00a4 836B     		ldr	r3, [r0, #56]
 174 00a6 3B60     		str	r3, [r7]
 175              	.LVL4:
 176              	.LBE28:
 177              	.LBE46:
 178              	.LBB47:
 179              	.LBB31:
 180              		.loc 1 88 0
 181 00a8 876D     		ldr	r7, [r0, #88]
 182 00aa 7760     		str	r7, [r6, #4]
 183              		.loc 1 89 0
 184 00ac C76D     		ldr	r7, [r0, #92]
 185 00ae B760     		str	r7, [r6, #8]
 186              		.loc 1 90 0
 187 00b0 076E     		ldr	r7, [r0, #96]
 188 00b2 F760     		str	r7, [r6, #12]
 189              		.loc 1 91 0
 190 00b4 476E     		ldr	r7, [r0, #100]
 191 00b6 7761     		str	r7, [r6, #20]
 192              		.loc 1 92 0
 193 00b8 876E     		ldr	r7, [r0, #104]
 194 00ba 3762     		str	r7, [r6, #32]
 195              		.loc 1 93 0
 196 00bc C76E     		ldr	r7, [r0, #108]
 197 00be 7762     		str	r7, [r6, #36]
 198              		.loc 1 94 0
 199 00c0 476D     		ldr	r7, [r0, #84]
 200 00c2 3760     		str	r7, [r6]
 201              	.LVL5:
 202              	.LBE31:
 203              	.LBE47:
 204              	.LBB48:
 205              	.LBB34:
 206              		.loc 1 88 0
 207 00c4 466F     		ldr	r6, [r0, #116]
 208 00c6 6E60     		str	r6, [r5, #4]
 209              		.loc 1 89 0
 210 00c8 866F     		ldr	r6, [r0, #120]
 211 00ca AE60     		str	r6, [r5, #8]
 212              		.loc 1 90 0
 213 00cc C66F     		ldr	r6, [r0, #124]
 214 00ce EE60     		str	r6, [r5, #12]
 215              		.loc 1 91 0
 216 00d0 D0F88060 		ldr	r6, [r0, #128]
 217 00d4 6E61     		str	r6, [r5, #20]
 218              		.loc 1 92 0
 219 00d6 D0F88460 		ldr	r6, [r0, #132]
 220 00da 2E62     		str	r6, [r5, #32]
 221              		.loc 1 93 0
 222 00dc D0F88860 		ldr	r6, [r0, #136]
 223 00e0 6E62     		str	r6, [r5, #36]
 224              		.loc 1 94 0
 225 00e2 066F     		ldr	r6, [r0, #112]
 226 00e4 2E60     		str	r6, [r5]
 227              	.LVL6:
 228              	.LBE34:
ARM GAS  /tmp/cc2qOxRh.s 			page 5


 229              	.LBE48:
 230              	.LBB49:
 231              	.LBB37:
 232              		.loc 1 88 0
 233 00e6 D0F89050 		ldr	r5, [r0, #144]
 234 00ea 6560     		str	r5, [r4, #4]
 235              		.loc 1 89 0
 236 00ec D0F89450 		ldr	r5, [r0, #148]
 237 00f0 A560     		str	r5, [r4, #8]
 238              		.loc 1 90 0
 239 00f2 D0F89850 		ldr	r5, [r0, #152]
 240 00f6 E560     		str	r5, [r4, #12]
 241              		.loc 1 91 0
 242 00f8 D0F89C50 		ldr	r5, [r0, #156]
 243 00fc 6561     		str	r5, [r4, #20]
 244              		.loc 1 92 0
 245 00fe D0F8A050 		ldr	r5, [r0, #160]
 246 0102 2562     		str	r5, [r4, #32]
 247              		.loc 1 93 0
 248 0104 D0F8A450 		ldr	r5, [r0, #164]
 249 0108 6562     		str	r5, [r4, #36]
 250              		.loc 1 94 0
 251 010a D0F88C50 		ldr	r5, [r0, #140]
 252 010e 2560     		str	r5, [r4]
 253              	.LVL7:
 254              	.LBE37:
 255              	.LBE49:
 256              	.LBB50:
 257              	.LBB40:
 258              		.loc 1 88 0
 259 0110 D0F8AC40 		ldr	r4, [r0, #172]
 260 0114 4C60     		str	r4, [r1, #4]
 261              		.loc 1 89 0
 262 0116 D0F8B040 		ldr	r4, [r0, #176]
 263 011a 8C60     		str	r4, [r1, #8]
 264              		.loc 1 90 0
 265 011c D0F8B440 		ldr	r4, [r0, #180]
 266 0120 CC60     		str	r4, [r1, #12]
 267              		.loc 1 91 0
 268 0122 D0F8B840 		ldr	r4, [r0, #184]
 269 0126 4C61     		str	r4, [r1, #20]
 270              		.loc 1 92 0
 271 0128 D0F8BC40 		ldr	r4, [r0, #188]
 272 012c 0C62     		str	r4, [r1, #32]
 273              		.loc 1 93 0
 274 012e D0F8C040 		ldr	r4, [r0, #192]
 275 0132 4C62     		str	r4, [r1, #36]
 276              		.loc 1 94 0
 277 0134 D0F8A840 		ldr	r4, [r0, #168]
 278 0138 0C60     		str	r4, [r1]
 279              	.LVL8:
 280              	.LBE40:
 281              	.LBE50:
 282              	.LBB51:
 283              	.LBB43:
 284              		.loc 1 88 0
 285 013a D0F8C810 		ldr	r1, [r0, #200]
ARM GAS  /tmp/cc2qOxRh.s 			page 6


 286 013e 5160     		str	r1, [r2, #4]
 287              		.loc 1 89 0
 288 0140 D0F8CC10 		ldr	r1, [r0, #204]
 289 0144 9160     		str	r1, [r2, #8]
 290              		.loc 1 90 0
 291 0146 D0F8D010 		ldr	r1, [r0, #208]
 292 014a D160     		str	r1, [r2, #12]
 293              		.loc 1 91 0
 294 014c D0F8D410 		ldr	r1, [r0, #212]
 295 0150 5161     		str	r1, [r2, #20]
 296              		.loc 1 92 0
 297 0152 D0F8D810 		ldr	r1, [r0, #216]
 298 0156 1162     		str	r1, [r2, #32]
 299              		.loc 1 93 0
 300 0158 D0F8DC10 		ldr	r1, [r0, #220]
 301 015c 5162     		str	r1, [r2, #36]
 302              		.loc 1 94 0
 303 015e D0F8C410 		ldr	r1, [r0, #196]
 304 0162 1160     		str	r1, [r2]
 305              	.LVL9:
 306              	.LBE43:
 307              	.LBE51:
 308              	.LBB52:
 309              	.LBB53:
 310              		.loc 1 88 0
 311 0164 124B     		ldr	r3, .L2+24
 312 0166 D0F8E420 		ldr	r2, [r0, #228]
 313 016a 5A60     		str	r2, [r3, #4]
 314              		.loc 1 89 0
 315 016c D0F8E820 		ldr	r2, [r0, #232]
 316 0170 9A60     		str	r2, [r3, #8]
 317              		.loc 1 90 0
 318 0172 D0F8EC20 		ldr	r2, [r0, #236]
 319 0176 DA60     		str	r2, [r3, #12]
 320              		.loc 1 91 0
 321 0178 D0F8F020 		ldr	r2, [r0, #240]
 322 017c 5A61     		str	r2, [r3, #20]
 323              		.loc 1 92 0
 324 017e D0F8F420 		ldr	r2, [r0, #244]
 325 0182 1A62     		str	r2, [r3, #32]
 326              		.loc 1 93 0
 327 0184 D0F8F820 		ldr	r2, [r0, #248]
 328 0188 5A62     		str	r2, [r3, #36]
 329              		.loc 1 94 0
 330 018a D0F8E020 		ldr	r2, [r0, #224]
 331 018e 1A60     		str	r2, [r3]
 332              	.LBE53:
 333              	.LBE52:
 334              		.loc 1 160 0
 335 0190 BDE8F00F 		pop	{r4, r5, r6, r7, r8, r9, r10, fp}
 336 0194 7047     		bx	lr
 337              	.L3:
 338 0196 00BF     		.align	2
 339              	.L2:
 340 0198 00080240 		.word	1073874944
 341 019c 000C0240 		.word	1073875968
 342 01a0 00100240 		.word	1073876992
ARM GAS  /tmp/cc2qOxRh.s 			page 7


 343 01a4 00140240 		.word	1073878016
 344 01a8 00180240 		.word	1073879040
 345 01ac 001C0240 		.word	1073880064
 346 01b0 00200240 		.word	1073881088
 347 01b4 00380240 		.word	1073887232
 348 01b8 00000240 		.word	1073872896
 349 01bc 00040240 		.word	1073873920
 350              		.cfi_endproc
 351              	.LFE119:
 352              		.size	_pal_lld_init, .-_pal_lld_init
 353              		.section	.text._pal_lld_setgroupmode,"ax",%progbits
 354              		.align	2
 355              		.p2align 4,,15
 356              		.global	_pal_lld_setgroupmode
 357              		.thumb
 358              		.thumb_func
 359              		.type	_pal_lld_setgroupmode, %function
 360              	_pal_lld_setgroupmode:
 361              	.LFB120:
 362              		.loc 1 178 0
 363              		.cfi_startproc
 364              		@ args = 0, pretend = 0, frame = 0
 365              		@ frame_needed = 0, uses_anonymous_args = 0
 366              		@ link register save eliminated.
 367              	.LVL10:
 368 0000 2DE9F00F 		push	{r4, r5, r6, r7, r8, r9, r10, fp}
 369              		.cfi_def_cfa_offset 32
 370              		.cfi_offset 4, -32
 371              		.cfi_offset 5, -28
 372              		.cfi_offset 6, -24
 373              		.cfi_offset 7, -20
 374              		.cfi_offset 8, -16
 375              		.cfi_offset 9, -12
 376              		.cfi_offset 10, -8
 377              		.cfi_offset 11, -4
 378              		.loc 1 185 0
 379 0004 0023     		movs	r3, #0
 380              		.loc 1 180 0
 381 0006 02F00307 		and	r7, r2, #3
 382              	.LVL11:
 383              		.loc 1 181 0
 384 000a C2F38006 		ubfx	r6, r2, #2, #1
 385              	.LVL12:
 386              		.loc 1 182 0
 387 000e C2F3C105 		ubfx	r5, r2, #3, #2
 388              	.LVL13:
 389              		.loc 1 183 0
 390 0012 C2F34114 		ubfx	r4, r2, #5, #2
 391              	.LVL14:
 392              	.LBB54:
 393              		.loc 1 191 0
 394 0016 4FF00F09 		mov	r9, #15
 395              	.LBE54:
 396              		.loc 1 184 0
 397 001a C2F3C312 		ubfx	r2, r2, #7, #4
 398              	.LVL15:
 399              	.LBB55:
ARM GAS  /tmp/cc2qOxRh.s 			page 8


 400              		.loc 1 196 0
 401 001e 4FF0010A 		mov	r10, #1
 402 0022 38E0     		b	.L9
 403              	.LVL16:
 404              	.L14:
 405              		.loc 1 193 0
 406 0024 D0F820B0 		ldr	fp, [r0, #32]
 407 0028 2BEA0C0C 		bic	ip, fp, ip
 408              	.LVL17:
 409 002c 4CEA0808 		orr	r8, ip, r8
 410              	.LVL18:
 411 0030 C0F82080 		str	r8, [r0, #32]
 412              	.L7:
 413              	.LVL19:
 414              		.loc 1 197 0
 415 0034 D0F804C0 		ldr	ip, [r0, #4]
 416              		.loc 1 196 0
 417 0038 0AFA03F8 		lsl	r8, r10, r3
 418              		.loc 1 197 0
 419 003c 2CEA080C 		bic	ip, ip, r8
 420 0040 4CEA060C 		orr	ip, ip, r6
 421 0044 C0F804C0 		str	ip, [r0, #4]
 422              	.LVL20:
 423              		.loc 1 198 0
 424 0048 4FF0030B 		mov	fp, #3
 425 004c 4FEA430C 		lsl	ip, r3, #1
 426              		.loc 1 199 0
 427 0050 D0F80880 		ldr	r8, [r0, #8]
 428              		.loc 1 198 0
 429 0054 0BFA0CFC 		lsl	ip, fp, ip
 430              	.LVL21:
 431              		.loc 1 199 0
 432 0058 6FEA0C0C 		mvn	ip, ip
 433              	.LVL22:
 434 005c 0CEA0808 		and	r8, ip, r8
 435 0060 48EA0508 		orr	r8, r8, r5
 436 0064 C0F80880 		str	r8, [r0, #8]
 437              		.loc 1 200 0
 438 0068 D0F80C80 		ldr	r8, [r0, #12]
 439 006c 0CEA0808 		and	r8, ip, r8
 440 0070 48EA0408 		orr	r8, r8, r4
 441 0074 C0F80C80 		str	r8, [r0, #12]
 442              		.loc 1 201 0
 443 0078 D0F80080 		ldr	r8, [r0]
 444 007c 0CEA080C 		and	ip, ip, r8
 445              	.LVL23:
 446 0080 4CEA070C 		orr	ip, ip, r7
 447 0084 C0F800C0 		str	ip, [r0]
 448              	.LVL24:
 449              	.L5:
 450              	.LBE55:
 451              		.loc 1 204 0
 452 0088 4908     		lsrs	r1, r1, #1
 453              	.LVL25:
 454 008a 1AD0     		beq	.L4
 455              		.loc 1 206 0
 456 008c 7600     		lsls	r6, r6, #1
ARM GAS  /tmp/cc2qOxRh.s 			page 9


 457              	.LVL26:
 458              		.loc 1 207 0
 459 008e AD00     		lsls	r5, r5, #2
 460              	.LVL27:
 461              		.loc 1 208 0
 462 0090 A400     		lsls	r4, r4, #2
 463              	.LVL28:
 464              		.loc 1 209 0
 465 0092 BF00     		lsls	r7, r7, #2
 466              	.LVL29:
 467              		.loc 1 210 0
 468 0094 0133     		adds	r3, r3, #1
 469              	.LVL30:
 470              	.L9:
 471              	.LBB56:
 472              		.loc 1 190 0
 473 0096 03F0070C 		and	ip, r3, #7
 474 009a 4FEA8C0C 		lsl	ip, ip, #2
 475              	.LBE56:
 476              		.loc 1 187 0
 477 009e 11F0010F 		tst	r1, #1
 478              	.LBB57:
 479              		.loc 1 190 0
 480 00a2 02FA0CF8 		lsl	r8, r2, ip
 481              	.LVL31:
 482              		.loc 1 191 0
 483 00a6 09FA0CFC 		lsl	ip, r9, ip
 484              	.LVL32:
 485              	.LBE57:
 486              		.loc 1 187 0
 487 00aa EDD0     		beq	.L5
 488              	.LBB58:
 489              		.loc 1 192 0
 490 00ac 072B     		cmp	r3, #7
 491 00ae B9D9     		bls	.L14
 492              		.loc 1 195 0
 493 00b0 D0F824B0 		ldr	fp, [r0, #36]
 494 00b4 2BEA0C0C 		bic	ip, fp, ip
 495              	.LVL33:
 496 00b8 4CEA0808 		orr	r8, ip, r8
 497              	.LVL34:
 498 00bc C0F82480 		str	r8, [r0, #36]
 499 00c0 B8E7     		b	.L7
 500              	.L4:
 501              	.LBE58:
 502              		.loc 1 212 0
 503 00c2 BDE8F00F 		pop	{r4, r5, r6, r7, r8, r9, r10, fp}
 504              	.LVL35:
 505 00c6 7047     		bx	lr
 506              		.cfi_endproc
 507              	.LFE120:
 508              		.size	_pal_lld_setgroupmode, .-_pal_lld_setgroupmode
 509 00c8 AFF30080 		.text
 509      AFF30080 
 510              	.Letext0:
 511              		.file 2 "/usr/arm-none-eabi/include/stdint.h"
 512              		.file 3 "../AithonLibrary/ChibiOS/os/hal/platforms/STM32F4xx/stm32f4xx.h"
ARM GAS  /tmp/cc2qOxRh.s 			page 10


 513              		.file 4 "../AithonLibrary/ChibiOS/os/hal/platforms/STM32/GPIOv2/pal_lld.h"
 514              		.file 5 "../AithonLibrary/ChibiOS/os/ports/common/ARMCMx/CMSIS/include/core_cm4.h"