ARM GAS  /tmp/cc9hFd7n.s 			page 1


   1              		.syntax unified
   2              		.cpu cortex-m4
   3              		.eabi_attribute 27, 3
   4              		.fpu fpv4-sp-d16
   5              		.eabi_attribute 20, 1
   6              		.eabi_attribute 21, 1
   7              		.eabi_attribute 23, 3
   8              		.eabi_attribute 24, 1
   9              		.eabi_attribute 25, 1
  10              		.eabi_attribute 26, 1
  11              		.eabi_attribute 30, 2
  12              		.eabi_attribute 34, 1
  13              		.eabi_attribute 18, 4
  14              		.thumb
  15              		.file	"pwm_lld.c"
  16              		.text
  17              	.Ltext0:
  18              		.cfi_sections	.debug_frame
  19              		.section	.text.pwm_lld_serve_interrupt,"ax",%progbits
  20              		.align	2
  21              		.p2align 4,,15
  22              		.thumb
  23              		.thumb_func
  24              		.type	pwm_lld_serve_interrupt, %function
  25              	pwm_lld_serve_interrupt:
  26              	.LFB118:
  27              		.file 1 "../AithonLibrary/ChibiOS/os/hal/platforms/STM32/TIMv1/pwm_lld.c"
  28              		.loc 1 112 0
  29              		.cfi_startproc
  30              		@ args = 0, pretend = 0, frame = 0
  31              		@ frame_needed = 0, uses_anonymous_args = 0
  32              	.LVL0:
  33 0000 38B5     		push	{r3, r4, r5, lr}
  34              		.cfi_def_cfa_offset 16
  35              		.cfi_offset 3, -16
  36              		.cfi_offset 4, -12
  37              		.cfi_offset 5, -8
  38              		.cfi_offset 14, -4
  39              		.loc 1 115 0
  40 0002 0369     		ldr	r3, [r0, #16]
  41 0004 1A69     		ldr	r2, [r3, #16]
  42              	.LVL1:
  43              		.loc 1 116 0
  44 0006 DC68     		ldr	r4, [r3, #12]
  45 0008 1440     		ands	r4, r4, r2
  46 000a A4B2     		uxth	r4, r4
  47              	.LVL2:
  48              		.loc 1 117 0
  49 000c E2B2     		uxtb	r2, r4
  50 000e D243     		mvns	r2, r2
  51 0010 1A61     		str	r2, [r3, #16]
  52              		.loc 1 118 0
  53 0012 A307     		lsls	r3, r4, #30
  54              		.loc 1 112 0
  55 0014 0546     		mov	r5, r0
  56              		.loc 1 118 0
  57 0016 1BD4     		bmi	.L23
ARM GAS  /tmp/cc9hFd7n.s 			page 2


  58              	.LVL3:
  59              	.L2:
  60              		.loc 1 120 0
  61 0018 6007     		lsls	r0, r4, #29
  62 001a 14D4     		bmi	.L24
  63              	.L3:
  64              		.loc 1 122 0
  65 001c 2107     		lsls	r1, r4, #28
  66 001e 0DD4     		bmi	.L25
  67              	.L4:
  68              		.loc 1 124 0
  69 0020 E206     		lsls	r2, r4, #27
  70 0022 06D4     		bmi	.L26
  71              	.L5:
  72              		.loc 1 126 0
  73 0024 E307     		lsls	r3, r4, #31
  74 0026 03D5     		bpl	.L1
  75              		.loc 1 127 0
  76 0028 6B68     		ldr	r3, [r5, #4]
  77 002a 2846     		mov	r0, r5
  78 002c 9B68     		ldr	r3, [r3, #8]
  79 002e 9847     		blx	r3
  80              	.LVL4:
  81              	.L1:
  82 0030 38BD     		pop	{r3, r4, r5, pc}
  83              	.LVL5:
  84              	.L26:
  85              		.loc 1 125 0
  86 0032 6B68     		ldr	r3, [r5, #4]
  87 0034 2846     		mov	r0, r5
  88 0036 9B6A     		ldr	r3, [r3, #40]
  89 0038 9847     		blx	r3
  90              	.LVL6:
  91 003a F3E7     		b	.L5
  92              	.L25:
  93              		.loc 1 123 0
  94 003c 6B68     		ldr	r3, [r5, #4]
  95 003e 2846     		mov	r0, r5
  96 0040 1B6A     		ldr	r3, [r3, #32]
  97 0042 9847     		blx	r3
  98              	.LVL7:
  99 0044 ECE7     		b	.L4
 100              	.L24:
 101              		.loc 1 121 0
 102 0046 6B68     		ldr	r3, [r5, #4]
 103 0048 2846     		mov	r0, r5
 104 004a 9B69     		ldr	r3, [r3, #24]
 105 004c 9847     		blx	r3
 106              	.LVL8:
 107 004e E5E7     		b	.L3
 108              	.LVL9:
 109              	.L23:
 110              		.loc 1 119 0
 111 0050 4368     		ldr	r3, [r0, #4]
 112 0052 1B69     		ldr	r3, [r3, #16]
 113 0054 9847     		blx	r3
 114              	.LVL10:
ARM GAS  /tmp/cc9hFd7n.s 			page 3


 115 0056 DFE7     		b	.L2
 116              		.cfi_endproc
 117              	.LFE118:
 118              		.size	pwm_lld_serve_interrupt, .-pwm_lld_serve_interrupt
 119 0058 AFF30080 		.section	.text.VectorA4,"ax",%progbits
 119      AFF30080 
 120              		.align	2
 121              		.p2align 4,,15
 122              		.global	VectorA4
 123              		.thumb
 124              		.thumb_func
 125              		.type	VectorA4, %function
 126              	VectorA4:
 127              	.LFB119:
 128              		.loc 1 147 0
 129              		.cfi_startproc
 130              		@ args = 0, pretend = 0, frame = 0
 131              		@ frame_needed = 0, uses_anonymous_args = 0
 132 0000 08B5     		push	{r3, lr}
 133              		.cfi_def_cfa_offset 8
 134              		.cfi_offset 3, -8
 135              		.cfi_offset 14, -4
 136              		.loc 1 152 0
 137 0002 0648     		ldr	r0, .L28
 138              		.loc 1 151 0
 139 0004 064A     		ldr	r2, .L28+4
 140              		.loc 1 152 0
 141 0006 4368     		ldr	r3, [r0, #4]
 142              		.loc 1 151 0
 143 0008 6FF00101 		mvn	r1, #1
 144              		.loc 1 152 0
 145 000c 9B68     		ldr	r3, [r3, #8]
 146              		.loc 1 151 0
 147 000e 1161     		str	r1, [r2, #16]
 148              		.loc 1 152 0
 149 0010 9847     		blx	r3
 150              	.LVL11:
 151              		.loc 1 155 0
 152 0012 BDE80840 		pop	{r3, lr}
 153              		.loc 1 154 0
 154 0016 FFF7FEBF 		b	_port_irq_epilogue
 155              	.LVL12:
 156              	.L29:
 157 001a 00BF     		.align	2
 158              	.L28:
 159 001c 00000000 		.word	.LANCHOR0
 160 0020 00000140 		.word	1073807360
 161              		.cfi_endproc
 162              	.LFE119:
 163              		.size	VectorA4, .-VectorA4
 164 0024 AFF30080 		.section	.text.VectorAC,"ax",%progbits
 164      AFF30080 
 164      AFF30080 
 165              		.align	2
 166              		.p2align 4,,15
 167              		.global	VectorAC
 168              		.thumb
ARM GAS  /tmp/cc9hFd7n.s 			page 4


 169              		.thumb_func
 170              		.type	VectorAC, %function
 171              	VectorAC:
 172              	.LFB120:
 173              		.loc 1 168 0
 174              		.cfi_startproc
 175              		@ args = 0, pretend = 0, frame = 0
 176              		@ frame_needed = 0, uses_anonymous_args = 0
 177              		.loc 1 173 0
 178 0000 134B     		ldr	r3, .L50
 179              		.loc 1 168 0
 180 0002 10B5     		push	{r4, lr}
 181              		.cfi_def_cfa_offset 8
 182              		.cfi_offset 4, -8
 183              		.cfi_offset 14, -4
 184              		.loc 1 173 0
 185 0004 1A69     		ldr	r2, [r3, #16]
 186 0006 DC68     		ldr	r4, [r3, #12]
 187 0008 1440     		ands	r4, r4, r2
 188 000a A4B2     		uxth	r4, r4
 189              	.LVL13:
 190              		.loc 1 174 0
 191 000c E2B2     		uxtb	r2, r4
 192 000e D243     		mvns	r2, r2
 193              		.loc 1 175 0
 194 0010 A007     		lsls	r0, r4, #30
 195              		.loc 1 174 0
 196 0012 1A61     		str	r2, [r3, #16]
 197              		.loc 1 175 0
 198 0014 17D4     		bmi	.L47
 199              	.L31:
 200              		.loc 1 177 0
 201 0016 6107     		lsls	r1, r4, #29
 202 0018 10D4     		bmi	.L48
 203              	.L32:
 204              		.loc 1 179 0
 205 001a 2207     		lsls	r2, r4, #28
 206 001c 09D4     		bmi	.L49
 207              	.L33:
 208              		.loc 1 181 0
 209 001e E306     		lsls	r3, r4, #27
 210 0020 03D5     		bpl	.L34
 211              		.loc 1 182 0
 212 0022 0C48     		ldr	r0, .L50+4
 213 0024 4368     		ldr	r3, [r0, #4]
 214 0026 9B6A     		ldr	r3, [r3, #40]
 215 0028 9847     		blx	r3
 216              	.LVL14:
 217              	.L34:
 218              		.loc 1 185 0
 219 002a BDE81040 		pop	{r4, lr}
 220              	.LVL15:
 221              		.loc 1 184 0
 222 002e FFF7FEBF 		b	_port_irq_epilogue
 223              	.LVL16:
 224              	.L49:
 225              		.loc 1 180 0
ARM GAS  /tmp/cc9hFd7n.s 			page 5


 226 0032 0848     		ldr	r0, .L50+4
 227 0034 4368     		ldr	r3, [r0, #4]
 228 0036 1B6A     		ldr	r3, [r3, #32]
 229 0038 9847     		blx	r3
 230              	.LVL17:
 231 003a F0E7     		b	.L33
 232              	.L48:
 233              		.loc 1 178 0
 234 003c 0548     		ldr	r0, .L50+4
 235 003e 4368     		ldr	r3, [r0, #4]
 236 0040 9B69     		ldr	r3, [r3, #24]
 237 0042 9847     		blx	r3
 238              	.LVL18:
 239 0044 E9E7     		b	.L32
 240              	.L47:
 241              		.loc 1 176 0
 242 0046 0348     		ldr	r0, .L50+4
 243 0048 4368     		ldr	r3, [r0, #4]
 244 004a 1B69     		ldr	r3, [r3, #16]
 245 004c 9847     		blx	r3
 246              	.LVL19:
 247 004e E2E7     		b	.L31
 248              	.L51:
 249              		.align	2
 250              	.L50:
 251 0050 00000140 		.word	1073807360
 252 0054 00000000 		.word	.LANCHOR0
 253              		.cfi_endproc
 254              	.LFE120:
 255              		.size	VectorAC, .-VectorAC
 256 0058 AFF30080 		.section	.text.VectorB0,"ax",%progbits
 256      AFF30080 
 257              		.align	2
 258              		.p2align 4,,15
 259              		.global	VectorB0
 260              		.thumb
 261              		.thumb_func
 262              		.type	VectorB0, %function
 263              	VectorB0:
 264              	.LFB121:
 265              		.loc 1 197 0
 266              		.cfi_startproc
 267              		@ args = 0, pretend = 0, frame = 0
 268              		@ frame_needed = 0, uses_anonymous_args = 0
 269 0000 08B5     		push	{r3, lr}
 270              		.cfi_def_cfa_offset 8
 271              		.cfi_offset 3, -8
 272              		.cfi_offset 14, -4
 273              		.loc 1 201 0
 274 0002 0348     		ldr	r0, .L53
 275 0004 FFF7FEFF 		bl	pwm_lld_serve_interrupt
 276              	.LVL20:
 277              		.loc 1 204 0
 278 0008 BDE80840 		pop	{r3, lr}
 279              		.loc 1 203 0
 280 000c FFF7FEBF 		b	_port_irq_epilogue
 281              	.LVL21:
ARM GAS  /tmp/cc9hFd7n.s 			page 6


 282              	.L54:
 283              		.align	2
 284              	.L53:
 285 0010 00000000 		.word	.LANCHOR1
 286              		.cfi_endproc
 287              	.LFE121:
 288              		.size	VectorB0, .-VectorB0
 289 0014 AFF30080 		.section	.text.VectorB4,"ax",%progbits
 289      AFF30080 
 289      AFF30080 
 290              		.align	2
 291              		.p2align 4,,15
 292              		.global	VectorB4
 293              		.thumb
 294              		.thumb_func
 295              		.type	VectorB4, %function
 296              	VectorB4:
 297              	.LFB122:
 298              		.loc 1 216 0
 299              		.cfi_startproc
 300              		@ args = 0, pretend = 0, frame = 0
 301              		@ frame_needed = 0, uses_anonymous_args = 0
 302 0000 08B5     		push	{r3, lr}
 303              		.cfi_def_cfa_offset 8
 304              		.cfi_offset 3, -8
 305              		.cfi_offset 14, -4
 306              		.loc 1 220 0
 307 0002 0348     		ldr	r0, .L56
 308 0004 FFF7FEFF 		bl	pwm_lld_serve_interrupt
 309              	.LVL22:
 310              		.loc 1 223 0
 311 0008 BDE80840 		pop	{r3, lr}
 312              		.loc 1 222 0
 313 000c FFF7FEBF 		b	_port_irq_epilogue
 314              	.LVL23:
 315              	.L57:
 316              		.align	2
 317              	.L56:
 318 0010 00000000 		.word	.LANCHOR2
 319              		.cfi_endproc
 320              	.LFE122:
 321              		.size	VectorB4, .-VectorB4
 322 0014 AFF30080 		.section	.text.VectorB8,"ax",%progbits
 322      AFF30080 
 322      AFF30080 
 323              		.align	2
 324              		.p2align 4,,15
 325              		.global	VectorB8
 326              		.thumb
 327              		.thumb_func
 328              		.type	VectorB8, %function
 329              	VectorB8:
 330              	.LFB123:
 331              		.loc 1 235 0
 332              		.cfi_startproc
 333              		@ args = 0, pretend = 0, frame = 0
 334              		@ frame_needed = 0, uses_anonymous_args = 0
ARM GAS  /tmp/cc9hFd7n.s 			page 7


 335 0000 08B5     		push	{r3, lr}
 336              		.cfi_def_cfa_offset 8
 337              		.cfi_offset 3, -8
 338              		.cfi_offset 14, -4
 339              		.loc 1 239 0
 340 0002 0348     		ldr	r0, .L59
 341 0004 FFF7FEFF 		bl	pwm_lld_serve_interrupt
 342              	.LVL24:
 343              		.loc 1 242 0
 344 0008 BDE80840 		pop	{r3, lr}
 345              		.loc 1 241 0
 346 000c FFF7FEBF 		b	_port_irq_epilogue
 347              	.LVL25:
 348              	.L60:
 349              		.align	2
 350              	.L59:
 351 0010 00000000 		.word	.LANCHOR3
 352              		.cfi_endproc
 353              	.LFE123:
 354              		.size	VectorB8, .-VectorB8
 355 0014 AFF30080 		.section	.text.VectorF0,"ax",%progbits
 355      AFF30080 
 355      AFF30080 
 356              		.align	2
 357              		.p2align 4,,15
 358              		.global	VectorF0
 359              		.thumb
 360              		.thumb_func
 361              		.type	VectorF0, %function
 362              	VectorF0:
 363              	.LFB124:
 364              		.loc 1 276 0
 365              		.cfi_startproc
 366              		@ args = 0, pretend = 0, frame = 0
 367              		@ frame_needed = 0, uses_anonymous_args = 0
 368 0000 08B5     		push	{r3, lr}
 369              		.cfi_def_cfa_offset 8
 370              		.cfi_offset 3, -8
 371              		.cfi_offset 14, -4
 372              		.loc 1 281 0
 373 0002 0648     		ldr	r0, .L62
 374              		.loc 1 280 0
 375 0004 064A     		ldr	r2, .L62+4
 376              		.loc 1 281 0
 377 0006 4368     		ldr	r3, [r0, #4]
 378              		.loc 1 280 0
 379 0008 6FF00101 		mvn	r1, #1
 380              		.loc 1 281 0
 381 000c 9B68     		ldr	r3, [r3, #8]
 382              		.loc 1 280 0
 383 000e 1161     		str	r1, [r2, #16]
 384              		.loc 1 281 0
 385 0010 9847     		blx	r3
 386              	.LVL26:
 387              		.loc 1 284 0
 388 0012 BDE80840 		pop	{r3, lr}
 389              		.loc 1 283 0
ARM GAS  /tmp/cc9hFd7n.s 			page 8


 390 0016 FFF7FEBF 		b	_port_irq_epilogue
 391              	.LVL27:
 392              	.L63:
 393 001a 00BF     		.align	2
 394              	.L62:
 395 001c 00000000 		.word	.LANCHOR4
 396 0020 00040140 		.word	1073808384
 397              		.cfi_endproc
 398              	.LFE124:
 399              		.size	VectorF0, .-VectorF0
 400 0024 AFF30080 		.section	.text.VectorF8,"ax",%progbits
 400      AFF30080 
 400      AFF30080 
 401              		.align	2
 402              		.p2align 4,,15
 403              		.global	VectorF8
 404              		.thumb
 405              		.thumb_func
 406              		.type	VectorF8, %function
 407              	VectorF8:
 408              	.LFB125:
 409              		.loc 1 297 0
 410              		.cfi_startproc
 411              		@ args = 0, pretend = 0, frame = 0
 412              		@ frame_needed = 0, uses_anonymous_args = 0
 413              		.loc 1 302 0
 414 0000 134B     		ldr	r3, .L84
 415              		.loc 1 297 0
 416 0002 10B5     		push	{r4, lr}
 417              		.cfi_def_cfa_offset 8
 418              		.cfi_offset 4, -8
 419              		.cfi_offset 14, -4
 420              		.loc 1 302 0
 421 0004 1A69     		ldr	r2, [r3, #16]
 422 0006 DC68     		ldr	r4, [r3, #12]
 423 0008 1440     		ands	r4, r4, r2
 424 000a A4B2     		uxth	r4, r4
 425              	.LVL28:
 426              		.loc 1 303 0
 427 000c E2B2     		uxtb	r2, r4
 428 000e D243     		mvns	r2, r2
 429              		.loc 1 304 0
 430 0010 A007     		lsls	r0, r4, #30
 431              		.loc 1 303 0
 432 0012 1A61     		str	r2, [r3, #16]
 433              		.loc 1 304 0
 434 0014 17D4     		bmi	.L81
 435              	.L65:
 436              		.loc 1 306 0
 437 0016 6107     		lsls	r1, r4, #29
 438 0018 10D4     		bmi	.L82
 439              	.L66:
 440              		.loc 1 308 0
 441 001a 2207     		lsls	r2, r4, #28
 442 001c 09D4     		bmi	.L83
 443              	.L67:
 444              		.loc 1 310 0
ARM GAS  /tmp/cc9hFd7n.s 			page 9


 445 001e E306     		lsls	r3, r4, #27
 446 0020 03D5     		bpl	.L68
 447              		.loc 1 311 0
 448 0022 0C48     		ldr	r0, .L84+4
 449 0024 4368     		ldr	r3, [r0, #4]
 450 0026 9B6A     		ldr	r3, [r3, #40]
 451 0028 9847     		blx	r3
 452              	.LVL29:
 453              	.L68:
 454              		.loc 1 314 0
 455 002a BDE81040 		pop	{r4, lr}
 456              	.LVL30:
 457              		.loc 1 313 0
 458 002e FFF7FEBF 		b	_port_irq_epilogue
 459              	.LVL31:
 460              	.L83:
 461              		.loc 1 309 0
 462 0032 0848     		ldr	r0, .L84+4
 463 0034 4368     		ldr	r3, [r0, #4]
 464 0036 1B6A     		ldr	r3, [r3, #32]
 465 0038 9847     		blx	r3
 466              	.LVL32:
 467 003a F0E7     		b	.L67
 468              	.L82:
 469              		.loc 1 307 0
 470 003c 0548     		ldr	r0, .L84+4
 471 003e 4368     		ldr	r3, [r0, #4]
 472 0040 9B69     		ldr	r3, [r3, #24]
 473 0042 9847     		blx	r3
 474              	.LVL33:
 475 0044 E9E7     		b	.L66
 476              	.L81:
 477              		.loc 1 305 0
 478 0046 0348     		ldr	r0, .L84+4
 479 0048 4368     		ldr	r3, [r0, #4]
 480 004a 1B69     		ldr	r3, [r3, #16]
 481 004c 9847     		blx	r3
 482              	.LVL34:
 483 004e E2E7     		b	.L65
 484              	.L85:
 485              		.align	2
 486              	.L84:
 487 0050 00040140 		.word	1073808384
 488 0054 00000000 		.word	.LANCHOR4
 489              		.cfi_endproc
 490              	.LFE125:
 491              		.size	VectorF8, .-VectorF8
 492 0058 AFF30080 		.section	.text.VectorA0,"ax",%progbits
 492      AFF30080 
 493              		.align	2
 494              		.p2align 4,,15
 495              		.global	VectorA0
 496              		.thumb
 497              		.thumb_func
 498              		.type	VectorA0, %function
 499              	VectorA0:
 500              	.LFB126:
ARM GAS  /tmp/cc9hFd7n.s 			page 10


 501              		.loc 1 326 0
 502              		.cfi_startproc
 503              		@ args = 0, pretend = 0, frame = 0
 504              		@ frame_needed = 0, uses_anonymous_args = 0
 505 0000 08B5     		push	{r3, lr}
 506              		.cfi_def_cfa_offset 8
 507              		.cfi_offset 3, -8
 508              		.cfi_offset 14, -4
 509              		.loc 1 330 0
 510 0002 0348     		ldr	r0, .L87
 511 0004 FFF7FEFF 		bl	pwm_lld_serve_interrupt
 512              	.LVL35:
 513              		.loc 1 333 0
 514 0008 BDE80840 		pop	{r3, lr}
 515              		.loc 1 332 0
 516 000c FFF7FEBF 		b	_port_irq_epilogue
 517              	.LVL36:
 518              	.L88:
 519              		.align	2
 520              	.L87:
 521 0010 00000000 		.word	.LANCHOR5
 522              		.cfi_endproc
 523              	.LFE126:
 524              		.size	VectorA0, .-VectorA0
 525 0014 AFF30080 		.section	.text.pwm_lld_init,"ax",%progbits
 525      AFF30080 
 525      AFF30080 
 526              		.align	2
 527              		.p2align 4,,15
 528              		.global	pwm_lld_init
 529              		.thumb
 530              		.thumb_func
 531              		.type	pwm_lld_init, %function
 532              	pwm_lld_init:
 533              	.LFB127:
 534              		.loc 1 345 0
 535              		.cfi_startproc
 536              		@ args = 0, pretend = 0, frame = 0
 537              		@ frame_needed = 0, uses_anonymous_args = 0
 538 0000 2DE9F843 		push	{r3, r4, r5, r6, r7, r8, r9, lr}
 539              		.cfi_def_cfa_offset 32
 540              		.cfi_offset 3, -32
 541              		.cfi_offset 4, -28
 542              		.cfi_offset 5, -24
 543              		.cfi_offset 6, -20
 544              		.cfi_offset 7, -16
 545              		.cfi_offset 8, -12
 546              		.cfi_offset 9, -8
 547              		.cfi_offset 14, -4
 548              		.loc 1 349 0
 549 0004 DFF87890 		ldr	r9, .L90+36
 550              		.loc 1 355 0
 551 0008 DFF87880 		ldr	r8, .L90+40
 552              		.loc 1 361 0
 553 000c 134F     		ldr	r7, .L90
 554              		.loc 1 367 0
 555 000e 144E     		ldr	r6, .L90+4
ARM GAS  /tmp/cc9hFd7n.s 			page 11


 556              		.loc 1 379 0
 557 0010 144D     		ldr	r5, .L90+8
 558              		.loc 1 385 0
 559 0012 154C     		ldr	r4, .L90+12
 560              		.loc 1 349 0
 561 0014 4846     		mov	r0, r9
 562 0016 FFF7FEFF 		bl	pwmObjectInit
 563              	.LVL37:
 564              		.loc 1 350 0
 565 001a 144B     		ldr	r3, .L90+16
 566 001c C9F81030 		str	r3, [r9, #16]
 567              		.loc 1 355 0
 568 0020 4046     		mov	r0, r8
 569 0022 FFF7FEFF 		bl	pwmObjectInit
 570              	.LVL38:
 571              		.loc 1 356 0
 572 0026 4FF08043 		mov	r3, #1073741824
 573              		.loc 1 361 0
 574 002a 3846     		mov	r0, r7
 575              		.loc 1 356 0
 576 002c C8F81030 		str	r3, [r8, #16]
 577              		.loc 1 361 0
 578 0030 FFF7FEFF 		bl	pwmObjectInit
 579              	.LVL39:
 580              		.loc 1 362 0
 581 0034 0E4B     		ldr	r3, .L90+20
 582 0036 3B61     		str	r3, [r7, #16]
 583              		.loc 1 367 0
 584 0038 3046     		mov	r0, r6
 585 003a FFF7FEFF 		bl	pwmObjectInit
 586              	.LVL40:
 587              		.loc 1 368 0
 588 003e 0D4B     		ldr	r3, .L90+24
 589 0040 3361     		str	r3, [r6, #16]
 590              		.loc 1 379 0
 591 0042 2846     		mov	r0, r5
 592 0044 FFF7FEFF 		bl	pwmObjectInit
 593              	.LVL41:
 594              		.loc 1 380 0
 595 0048 0B4B     		ldr	r3, .L90+28
 596 004a 2B61     		str	r3, [r5, #16]
 597              		.loc 1 385 0
 598 004c 2046     		mov	r0, r4
 599 004e FFF7FEFF 		bl	pwmObjectInit
 600              	.LVL42:
 601              		.loc 1 386 0
 602 0052 0A4B     		ldr	r3, .L90+32
 603 0054 2361     		str	r3, [r4, #16]
 604 0056 BDE8F883 		pop	{r3, r4, r5, r6, r7, r8, r9, pc}
 605              	.L91:
 606 005a 00BF     		.align	2
 607              	.L90:
 608 005c 00000000 		.word	.LANCHOR2
 609 0060 00000000 		.word	.LANCHOR3
 610 0064 00000000 		.word	.LANCHOR4
 611 0068 00000000 		.word	.LANCHOR5
 612 006c 00000140 		.word	1073807360
ARM GAS  /tmp/cc9hFd7n.s 			page 12


 613 0070 00040040 		.word	1073742848
 614 0074 00080040 		.word	1073743872
 615 0078 00040140 		.word	1073808384
 616 007c 00400140 		.word	1073823744
 617 0080 00000000 		.word	.LANCHOR0
 618 0084 00000000 		.word	.LANCHOR1
 619              		.cfi_endproc
 620              	.LFE127:
 621              		.size	pwm_lld_init, .-pwm_lld_init
 622 0088 AFF30080 		.section	.text.pwm_lld_start,"ax",%progbits
 622      AFF30080 
 623              		.align	2
 624              		.p2align 4,,15
 625              		.global	pwm_lld_start
 626              		.thumb
 627              		.thumb_func
 628              		.type	pwm_lld_start, %function
 629              	pwm_lld_start:
 630              	.LFB128:
 631              		.loc 1 399 0
 632              		.cfi_startproc
 633              		@ args = 0, pretend = 0, frame = 0
 634              		@ frame_needed = 0, uses_anonymous_args = 0
 635              	.LVL43:
 636              		.loc 1 403 0
 637 0000 0378     		ldrb	r3, [r0]	@ zero_extendqisi2
 638 0002 012B     		cmp	r3, #1
 639              		.loc 1 399 0
 640 0004 2DE9F041 		push	{r4, r5, r6, r7, r8, lr}
 641              		.cfi_def_cfa_offset 24
 642              		.cfi_offset 4, -24
 643              		.cfi_offset 5, -20
 644              		.cfi_offset 6, -16
 645              		.cfi_offset 7, -12
 646              		.cfi_offset 8, -8
 647              		.cfi_offset 14, -4
 648              		.loc 1 399 0
 649 0008 0446     		mov	r4, r0
 650              		.loc 1 403 0
 651 000a 00F08A80 		beq	.L145
 652              		.loc 1 492 0
 653 000e 4168     		ldr	r1, [r0, #4]
 654              		.loc 1 491 0
 655 0010 0369     		ldr	r3, [r0, #16]
 656              		.loc 1 492 0
 657 0012 4A6B     		ldr	r2, [r1, #52]
 658 0014 8F4E     		ldr	r6, .L161
 659 0016 22F0FF00 		bic	r0, r2, #255
 660              	.LVL44:
 661              		.loc 1 491 0
 662 001a 0022     		movs	r2, #0
 663 001c 1A60     		str	r2, [r3]
 664              		.loc 1 492 0
 665 001e D860     		str	r0, [r3, #12]
 666              		.loc 1 494 0
 667 0020 1A61     		str	r2, [r3, #16]
 668              		.loc 1 495 0
ARM GAS  /tmp/cc9hFd7n.s 			page 13


 669 0022 5A63     		str	r2, [r3, #52]
 670              		.loc 1 496 0
 671 0024 9A63     		str	r2, [r3, #56]
 672              		.loc 1 497 0
 673 0026 DA63     		str	r2, [r3, #60]
 674              		.loc 1 498 0
 675 0028 1A64     		str	r2, [r3, #64]
 676              		.loc 1 499 0
 677 002a 5A62     		str	r2, [r3, #36]
 678              	.L101:
 679              	.LVL45:
 680              		.loc 1 503 0
 681 002c E068     		ldr	r0, [r4, #12]
 682 002e 0A68     		ldr	r2, [r1]
 683              		.loc 1 508 0
 684 0030 B4F80880 		ldrh	r8, [r4, #8]
 685              		.loc 1 513 0
 686 0034 CD68     		ldr	r5, [r1, #12]
 687              		.loc 1 509 0
 688 0036 CF6A     		ldr	r7, [r1, #44]
 689              		.loc 1 503 0
 690 0038 B0FBF2FC 		udiv	ip, r0, r2
 691 003c 0CF1FF3C 		add	ip, ip, #-1
 692              	.LVL46:
 693              		.loc 1 508 0
 694 0040 08F1FF30 		add	r0, r8, #-1
 695              		.loc 1 513 0
 696 0044 05F00F02 		and	r2, r5, #15
 697              		.loc 1 507 0
 698 0048 1FFA8CFC 		uxth	ip, ip
 699              	.LVL47:
 700              		.loc 1 508 0
 701 004c 80B2     		uxth	r0, r0
 702              		.loc 1 513 0
 703 004e 012A     		cmp	r2, #1
 704              		.loc 1 507 0
 705 0050 C3F828C0 		str	ip, [r3, #40]
 706              	.LVL48:
 707              		.loc 1 508 0
 708 0054 D862     		str	r0, [r3, #44]
 709              		.loc 1 509 0
 710 0056 5F60     		str	r7, [r3, #4]
 711              	.LVL49:
 712              		.loc 1 513 0
 713 0058 03D0     		beq	.L102
 714              		.loc 1 512 0
 715 005a 022A     		cmp	r2, #2
 716 005c 0CBF     		ite	eq
 717 005e 0322     		moveq	r2, #3
 718 0060 0022     		movne	r2, #0
 719              	.L102:
 720              	.LVL50:
 721              		.loc 1 521 0
 722 0062 D1F814C0 		ldr	ip, [r1, #20]
 723 0066 0CF00F00 		and	r0, ip, #15
 724 006a 0128     		cmp	r0, #1
 725 006c 51D0     		beq	.L106
ARM GAS  /tmp/cc9hFd7n.s 			page 14


 726 006e 0228     		cmp	r0, #2
 727 0070 4DD0     		beq	.L146
 728              	.LVL51:
 729              	.L105:
 730              		.loc 1 529 0
 731 0072 CF69     		ldr	r7, [r1, #28]
 732 0074 07F00F00 		and	r0, r7, #15
 733 0078 0128     		cmp	r0, #1
 734 007a 24D0     		beq	.L109
 735 007c 0228     		cmp	r0, #2
 736 007e 20D0     		beq	.L147
 737              		.loc 1 537 0
 738 0080 486A     		ldr	r0, [r1, #36]
 739 0082 00F00F00 		and	r0, r0, #15
 740 0086 0128     		cmp	r0, #1
 741 0088 24D0     		beq	.L112
 742              	.LVL52:
 743              	.L149:
 744 008a 0228     		cmp	r0, #2
 745 008c 44D0     		beq	.L148
 746              	.LVL53:
 747              		.loc 1 553 0
 748 008e B442     		cmp	r4, r6
 749 0090 24D0     		beq	.L114
 750              	.LVL54:
 751              	.L150:
 752              		.loc 1 553 0 is_stmt 0 discriminator 1
 753 0092 7148     		ldr	r0, .L161+4
 754 0094 8442     		cmp	r4, r0
 755 0096 21D0     		beq	.L114
 756              	.L115:
 757              	.LVL55:
 758              		.loc 1 583 0 is_stmt 1
 759 0098 0120     		movs	r0, #1
 760              		.loc 1 582 0
 761 009a 1A62     		str	r2, [r3, #32]
 762              		.loc 1 583 0
 763 009c 5861     		str	r0, [r3, #20]
 764              		.loc 1 584 0
 765 009e DA68     		ldr	r2, [r3, #12]
 766              	.LVL56:
 767 00a0 8C68     		ldr	r4, [r1, #8]
 768              	.LVL57:
 769              		.loc 1 588 0
 770 00a2 096B     		ldr	r1, [r1, #48]
 771              		.loc 1 584 0
 772 00a4 002C     		cmp	r4, #0
 773 00a6 0CBF     		ite	eq
 774 00a8 1446     		moveq	r4, r2
 775 00aa 42F00104 		orrne	r4, r2, #1
 776              		.loc 1 588 0
 777 00ae 41F40041 		orr	r1, r1, #32768
 778              		.loc 1 585 0
 779 00b2 0020     		movs	r0, #0
 780              		.loc 1 594 0
 781 00b4 8522     		movs	r2, #133
 782              		.loc 1 584 0
ARM GAS  /tmp/cc9hFd7n.s 			page 15


 783 00b6 DC60     		str	r4, [r3, #12]
 784              		.loc 1 585 0
 785 00b8 1861     		str	r0, [r3, #16]
 786              		.loc 1 588 0
 787 00ba 5964     		str	r1, [r3, #68]
 788              		.loc 1 594 0
 789 00bc 1A60     		str	r2, [r3]
 790 00be BDE8F081 		pop	{r4, r5, r6, r7, r8, pc}
 791              	.LVL58:
 792              	.L147:
 793              		.loc 1 531 0
 794 00c2 42F40072 		orr	r2, r2, #512
 795              	.LVL59:
 796              	.L109:
 797              		.loc 1 537 0
 798 00c6 486A     		ldr	r0, [r1, #36]
 799 00c8 00F00F00 		and	r0, r0, #15
 800 00cc 0128     		cmp	r0, #1
 801              		.loc 1 533 0
 802 00ce 42F48072 		orr	r2, r2, #256
 803              	.LVL60:
 804              		.loc 1 537 0
 805 00d2 DAD1     		bne	.L149
 806              	.LVL61:
 807              	.L112:
 808              		.loc 1 541 0
 809 00d4 42F48052 		orr	r2, r2, #4096
 810              	.LVL62:
 811              	.L153:
 812              		.loc 1 553 0
 813 00d8 B442     		cmp	r4, r6
 814 00da DAD1     		bne	.L150
 815              	.LVL63:
 816              	.L114:
 817              		.loc 1 555 0
 818 00dc 05F0F005 		and	r5, r5, #240
 819 00e0 102D     		cmp	r5, #16
 820 00e2 39D0     		beq	.L117
 821 00e4 202D     		cmp	r5, #32
 822 00e6 35D0     		beq	.L151
 823              	.LVL64:
 824              		.loc 1 563 0
 825 00e8 0CF0F00C 		and	ip, ip, #240
 826 00ec BCF1100F 		cmp	ip, #16
 827 00f0 39D0     		beq	.L120
 828              	.LVL65:
 829              	.L160:
 830 00f2 BCF1200F 		cmp	ip, #32
 831 00f6 39D0     		beq	.L152
 832              	.L119:
 833              	.LVL66:
 834              		.loc 1 571 0
 835 00f8 07F0F007 		and	r7, r7, #240
 836 00fc 102F     		cmp	r7, #16
 837 00fe 03D0     		beq	.L122
 838 0100 202F     		cmp	r7, #32
 839 0102 C9D1     		bne	.L115
ARM GAS  /tmp/cc9hFd7n.s 			page 16


 840              		.loc 1 573 0
 841 0104 42F40062 		orr	r2, r2, #2048
 842              	.LVL67:
 843              	.L122:
 844              		.loc 1 575 0
 845 0108 42F48062 		orr	r2, r2, #1024
 846              	.LVL68:
 847 010c C4E7     		b	.L115
 848              	.L146:
 849              		.loc 1 523 0
 850 010e 42F02002 		orr	r2, r2, #32
 851              	.LVL69:
 852              	.L106:
 853              		.loc 1 525 0
 854 0112 42F01002 		orr	r2, r2, #16
 855              	.LVL70:
 856 0116 ACE7     		b	.L105
 857              	.LVL71:
 858              	.L148:
 859              		.loc 1 539 0
 860 0118 42F40052 		orr	r2, r2, #8192
 861              	.LVL72:
 862              		.loc 1 541 0
 863 011c 42F48052 		orr	r2, r2, #4096
 864              	.LVL73:
 865 0120 DAE7     		b	.L153
 866              	.LVL74:
 867              	.L145:
 868              		.loc 1 406 0
 869 0122 4C4E     		ldr	r6, .L161
 870 0124 B042     		cmp	r0, r6
 871 0126 3CD0     		beq	.L154
 872              		.loc 1 421 0
 873 0128 4C4B     		ldr	r3, .L161+8
 874 012a 9842     		cmp	r0, r3
 875 012c 4FD0     		beq	.L155
 876              		.loc 1 430 0
 877 012e 4C4B     		ldr	r3, .L161+12
 878 0130 9842     		cmp	r0, r3
 879 0132 5ED0     		beq	.L156
 880              		.loc 1 439 0
 881 0134 4B4B     		ldr	r3, .L161+16
 882 0136 9842     		cmp	r0, r3
 883 0138 6DD0     		beq	.L157
 884              		.loc 1 458 0
 885 013a 474B     		ldr	r3, .L161+4
 886 013c 9842     		cmp	r0, r3
 887 013e 1AD0     		beq	.L158
 888              	.LVL75:
 889              	.L100:
 890              		.loc 1 473 0
 891 0140 494B     		ldr	r3, .L161+20
 892 0142 9C42     		cmp	r4, r3
 893 0144 73D0     		beq	.L159
 894              	.L98:
 895              		.loc 1 484 0
 896 0146 2369     		ldr	r3, [r4, #16]
ARM GAS  /tmp/cc9hFd7n.s 			page 17


 897 0148 6168     		ldr	r1, [r4, #4]
 898 014a 46F66802 		movw	r2, #26728
 899 014e 9A61     		str	r2, [r3, #24]
 900              		.loc 1 486 0
 901 0150 DA61     		str	r2, [r3, #28]
 902 0152 6BE7     		b	.L101
 903              	.L151:
 904              		.loc 1 557 0
 905 0154 42F00802 		orr	r2, r2, #8
 906              	.LVL76:
 907              	.L117:
 908              		.loc 1 563 0
 909 0158 0CF0F00C 		and	ip, ip, #240
 910 015c BCF1100F 		cmp	ip, #16
 911              		.loc 1 559 0
 912 0160 42F00402 		orr	r2, r2, #4
 913              	.LVL77:
 914              		.loc 1 563 0
 915 0164 C5D1     		bne	.L160
 916              	.LVL78:
 917              	.L120:
 918              		.loc 1 567 0
 919 0166 42F04002 		orr	r2, r2, #64
 920              	.LVL79:
 921 016a C5E7     		b	.L119
 922              	.LVL80:
 923              	.L152:
 924              		.loc 1 565 0
 925 016c 42F08002 		orr	r2, r2, #128
 926              	.LVL81:
 927              		.loc 1 567 0
 928 0170 42F04002 		orr	r2, r2, #64
 929              	.LVL82:
 930 0174 C0E7     		b	.L119
 931              	.LVL83:
 932              	.L158:
 933              		.loc 1 459 0
 934 0176 3D4B     		ldr	r3, .L161+24
 935 0178 5A6C     		ldr	r2, [r3, #68]
 936 017a 42F00202 		orr	r2, r2, #2
 937 017e 5A64     		str	r2, [r3, #68]
 938              		.loc 1 460 0
 939 0180 596A     		ldr	r1, [r3, #36]
 940 0182 0022     		movs	r2, #0
 941 0184 41F00201 		orr	r1, r1, #2
 942 0188 5962     		str	r1, [r3, #36]
 943              		.loc 1 461 0
 944 018a 2C20     		movs	r0, #44
 945              	.LVL84:
 946              		.loc 1 460 0
 947 018c 5A62     		str	r2, [r3, #36]
 948              		.loc 1 461 0
 949 018e 7021     		movs	r1, #112
 950 0190 FFF7FEFF 		bl	nvicEnableVector
 951              	.LVL85:
 952              		.loc 1 463 0
 953 0194 2E20     		movs	r0, #46
ARM GAS  /tmp/cc9hFd7n.s 			page 18


 954 0196 7021     		movs	r1, #112
 955 0198 FFF7FEFF 		bl	nvicEnableVector
 956              	.LVL86:
 957              		.loc 1 468 0
 958 019c 344B     		ldr	r3, .L161+28
 959 019e E360     		str	r3, [r4, #12]
 960 01a0 D1E7     		b	.L98
 961              	.LVL87:
 962              	.L154:
 963              		.loc 1 407 0
 964 01a2 324B     		ldr	r3, .L161+24
 965 01a4 5A6C     		ldr	r2, [r3, #68]
 966 01a6 42F00102 		orr	r2, r2, #1
 967 01aa 5A64     		str	r2, [r3, #68]
 968              		.loc 1 408 0
 969 01ac 596A     		ldr	r1, [r3, #36]
 970 01ae 0022     		movs	r2, #0
 971 01b0 41F00101 		orr	r1, r1, #1
 972 01b4 5962     		str	r1, [r3, #36]
 973              		.loc 1 409 0
 974 01b6 1920     		movs	r0, #25
 975              	.LVL88:
 976              		.loc 1 408 0
 977 01b8 5A62     		str	r2, [r3, #36]
 978              		.loc 1 409 0
 979 01ba 7021     		movs	r1, #112
 980 01bc FFF7FEFF 		bl	nvicEnableVector
 981              	.LVL89:
 982              		.loc 1 411 0
 983 01c0 1B20     		movs	r0, #27
 984 01c2 7021     		movs	r1, #112
 985 01c4 FFF7FEFF 		bl	nvicEnableVector
 986              	.LVL90:
 987              		.loc 1 416 0
 988 01c8 294B     		ldr	r3, .L161+28
 989 01ca E360     		str	r3, [r4, #12]
 990 01cc B8E7     		b	.L100
 991              	.LVL91:
 992              	.L155:
 993              		.loc 1 422 0
 994 01ce 274B     		ldr	r3, .L161+24
 995 01d0 1A6C     		ldr	r2, [r3, #64]
 996 01d2 42F00102 		orr	r2, r2, #1
 997 01d6 1A64     		str	r2, [r3, #64]
 998              		.loc 1 423 0
 999 01d8 196A     		ldr	r1, [r3, #32]
 1000 01da 0022     		movs	r2, #0
 1001 01dc 41F00101 		orr	r1, r1, #1
 1002 01e0 1962     		str	r1, [r3, #32]
 1003              		.loc 1 424 0
 1004 01e2 1C20     		movs	r0, #28
 1005              	.LVL92:
 1006              		.loc 1 423 0
 1007 01e4 1A62     		str	r2, [r3, #32]
 1008              		.loc 1 424 0
 1009 01e6 7021     		movs	r1, #112
 1010 01e8 FFF7FEFF 		bl	nvicEnableVector
ARM GAS  /tmp/cc9hFd7n.s 			page 19


 1011              	.LVL93:
 1012              		.loc 1 426 0
 1013 01ec 214B     		ldr	r3, .L161+32
 1014 01ee E360     		str	r3, [r4, #12]
 1015 01f0 A6E7     		b	.L100
 1016              	.LVL94:
 1017              	.L156:
 1018              		.loc 1 431 0
 1019 01f2 1E4B     		ldr	r3, .L161+24
 1020 01f4 1A6C     		ldr	r2, [r3, #64]
 1021 01f6 42F00202 		orr	r2, r2, #2
 1022 01fa 1A64     		str	r2, [r3, #64]
 1023              		.loc 1 432 0
 1024 01fc 196A     		ldr	r1, [r3, #32]
 1025 01fe 41F00201 		orr	r1, r1, #2
 1026 0202 0022     		movs	r2, #0
 1027 0204 1962     		str	r1, [r3, #32]
 1028              		.loc 1 433 0
 1029 0206 1D20     		movs	r0, #29
 1030              	.LVL95:
 1031              	.L144:
 1032              		.loc 1 441 0
 1033 0208 1A62     		str	r2, [r3, #32]
 1034              		.loc 1 442 0
 1035 020a 7021     		movs	r1, #112
 1036 020c FFF7FEFF 		bl	nvicEnableVector
 1037              	.LVL96:
 1038              		.loc 1 444 0
 1039 0210 184B     		ldr	r3, .L161+32
 1040 0212 E360     		str	r3, [r4, #12]
 1041 0214 97E7     		b	.L98
 1042              	.LVL97:
 1043              	.L157:
 1044              		.loc 1 440 0
 1045 0216 154B     		ldr	r3, .L161+24
 1046 0218 1A6C     		ldr	r2, [r3, #64]
 1047 021a 42F00402 		orr	r2, r2, #4
 1048 021e 1A64     		str	r2, [r3, #64]
 1049              		.loc 1 441 0
 1050 0220 196A     		ldr	r1, [r3, #32]
 1051 0222 41F00401 		orr	r1, r1, #4
 1052 0226 0022     		movs	r2, #0
 1053 0228 1962     		str	r1, [r3, #32]
 1054              		.loc 1 442 0
 1055 022a 1E20     		movs	r0, #30
 1056              	.LVL98:
 1057 022c ECE7     		b	.L144
 1058              	.L159:
 1059              		.loc 1 474 0
 1060 022e 0F4B     		ldr	r3, .L161+24
 1061 0230 5A6C     		ldr	r2, [r3, #68]
 1062 0232 42F48032 		orr	r2, r2, #65536
 1063 0236 5A64     		str	r2, [r3, #68]
 1064              		.loc 1 475 0
 1065 0238 596A     		ldr	r1, [r3, #36]
 1066 023a 0022     		movs	r2, #0
 1067 023c 41F48031 		orr	r1, r1, #65536
ARM GAS  /tmp/cc9hFd7n.s 			page 20


 1068 0240 5962     		str	r1, [r3, #36]
 1069              		.loc 1 476 0
 1070 0242 1820     		movs	r0, #24
 1071              		.loc 1 475 0
 1072 0244 5A62     		str	r2, [r3, #36]
 1073              		.loc 1 476 0
 1074 0246 7021     		movs	r1, #112
 1075 0248 FFF7FEFF 		bl	nvicEnableVector
 1076              	.LVL99:
 1077              		.loc 1 478 0
 1078 024c 094B     		ldr	r3, .L161+32
 1079 024e E360     		str	r3, [r4, #12]
 1080 0250 79E7     		b	.L98
 1081              	.L162:
 1082 0252 00BF     		.align	2
 1083              	.L161:
 1084 0254 00000000 		.word	.LANCHOR0
 1085 0258 00000000 		.word	.LANCHOR4
 1086 025c 00000000 		.word	.LANCHOR1
 1087 0260 00000000 		.word	.LANCHOR2
 1088 0264 00000000 		.word	.LANCHOR3
 1089 0268 00000000 		.word	.LANCHOR5
 1090 026c 00380240 		.word	1073887232
 1091 0270 007A030A 		.word	168000000
 1092 0274 00BD0105 		.word	84000000
 1093              		.cfi_endproc
 1094              	.LFE128:
 1095              		.size	pwm_lld_start, .-pwm_lld_start
 1096 0278 AFF30080 		.section	.text.pwm_lld_stop,"ax",%progbits
 1096      AFF30080 
 1097              		.align	2
 1098              		.p2align 4,,15
 1099              		.global	pwm_lld_stop
 1100              		.thumb
 1101              		.thumb_func
 1102              		.type	pwm_lld_stop, %function
 1103              	pwm_lld_stop:
 1104              	.LFB129:
 1105              		.loc 1 605 0
 1106              		.cfi_startproc
 1107              		@ args = 0, pretend = 0, frame = 0
 1108              		@ frame_needed = 0, uses_anonymous_args = 0
 1109              	.LVL100:
 1110              		.loc 1 608 0
 1111 0000 0378     		ldrb	r3, [r0]	@ zero_extendqisi2
 1112 0002 022B     		cmp	r3, #2
 1113              		.loc 1 605 0
 1114 0004 10B5     		push	{r4, lr}
 1115              		.cfi_def_cfa_offset 8
 1116              		.cfi_offset 4, -8
 1117              		.cfi_offset 14, -4
 1118              		.loc 1 605 0
 1119 0006 0446     		mov	r4, r0
 1120              		.loc 1 608 0
 1121 0008 00D0     		beq	.L173
 1122              	.LVL101:
 1123              	.L163:
ARM GAS  /tmp/cc9hFd7n.s 			page 21


 1124 000a 10BD     		pop	{r4, pc}
 1125              	.LVL102:
 1126              	.L173:
 1127              		.loc 1 617 0
 1128 000c 2949     		ldr	r1, .L179
 1129              		.loc 1 609 0
 1130 000e 0369     		ldr	r3, [r0, #16]
 1131 0010 0022     		movs	r2, #0
 1132              		.loc 1 617 0
 1133 0012 8842     		cmp	r0, r1
 1134              		.loc 1 609 0
 1135 0014 1A60     		str	r2, [r3]
 1136              		.loc 1 610 0
 1137 0016 DA60     		str	r2, [r3, #12]
 1138              		.loc 1 611 0
 1139 0018 1A61     		str	r2, [r3, #16]
 1140              		.loc 1 613 0
 1141 001a 5A64     		str	r2, [r3, #68]
 1142              		.loc 1 617 0
 1143 001c 17D0     		beq	.L174
 1144              		.loc 1 624 0
 1145 001e 264B     		ldr	r3, .L179+4
 1146 0020 9842     		cmp	r0, r3
 1147 0022 20D0     		beq	.L175
 1148              		.loc 1 630 0
 1149 0024 254B     		ldr	r3, .L179+8
 1150 0026 9842     		cmp	r0, r3
 1151 0028 26D0     		beq	.L176
 1152              		.loc 1 636 0
 1153 002a 254B     		ldr	r3, .L179+12
 1154 002c 9842     		cmp	r0, r3
 1155 002e 2CD0     		beq	.L177
 1156              		.loc 1 648 0
 1157 0030 244B     		ldr	r3, .L179+16
 1158 0032 9842     		cmp	r0, r3
 1159 0034 32D0     		beq	.L178
 1160              	.LVL103:
 1161              	.L172:
 1162              		.loc 1 655 0
 1163 0036 244B     		ldr	r3, .L179+20
 1164 0038 9C42     		cmp	r4, r3
 1165 003a E6D1     		bne	.L163
 1166              		.loc 1 656 0
 1167 003c 1820     		movs	r0, #24
 1168 003e FFF7FEFF 		bl	nvicDisableVector
 1169              	.LVL104:
 1170              		.loc 1 657 0
 1171 0042 224B     		ldr	r3, .L179+24
 1172 0044 5A6C     		ldr	r2, [r3, #68]
 1173 0046 22F48032 		bic	r2, r2, #65536
 1174 004a 5A64     		str	r2, [r3, #68]
 1175 004c DDE7     		b	.L163
 1176              	.LVL105:
 1177              	.L174:
 1178              		.loc 1 618 0
 1179 004e 1920     		movs	r0, #25
 1180              	.LVL106:
ARM GAS  /tmp/cc9hFd7n.s 			page 22


 1181 0050 FFF7FEFF 		bl	nvicDisableVector
 1182              	.LVL107:
 1183              		.loc 1 619 0
 1184 0054 1B20     		movs	r0, #27
 1185 0056 FFF7FEFF 		bl	nvicDisableVector
 1186              	.LVL108:
 1187              		.loc 1 620 0
 1188 005a 1C4B     		ldr	r3, .L179+24
 1189 005c 5A6C     		ldr	r2, [r3, #68]
 1190 005e 22F00102 		bic	r2, r2, #1
 1191 0062 5A64     		str	r2, [r3, #68]
 1192 0064 E7E7     		b	.L172
 1193              	.LVL109:
 1194              	.L175:
 1195              		.loc 1 625 0
 1196 0066 1C20     		movs	r0, #28
 1197              	.LVL110:
 1198 0068 FFF7FEFF 		bl	nvicDisableVector
 1199              	.LVL111:
 1200              		.loc 1 626 0
 1201 006c 174B     		ldr	r3, .L179+24
 1202 006e 1A6C     		ldr	r2, [r3, #64]
 1203 0070 22F00102 		bic	r2, r2, #1
 1204 0074 1A64     		str	r2, [r3, #64]
 1205 0076 DEE7     		b	.L172
 1206              	.LVL112:
 1207              	.L176:
 1208              		.loc 1 631 0
 1209 0078 1D20     		movs	r0, #29
 1210              	.LVL113:
 1211 007a FFF7FEFF 		bl	nvicDisableVector
 1212              	.LVL114:
 1213              		.loc 1 632 0
 1214 007e 134B     		ldr	r3, .L179+24
 1215 0080 1A6C     		ldr	r2, [r3, #64]
 1216 0082 22F00202 		bic	r2, r2, #2
 1217 0086 1A64     		str	r2, [r3, #64]
 1218 0088 10BD     		pop	{r4, pc}
 1219              	.LVL115:
 1220              	.L177:
 1221              		.loc 1 637 0
 1222 008a 1E20     		movs	r0, #30
 1223              	.LVL116:
 1224 008c FFF7FEFF 		bl	nvicDisableVector
 1225              	.LVL117:
 1226              		.loc 1 638 0
 1227 0090 0E4B     		ldr	r3, .L179+24
 1228 0092 1A6C     		ldr	r2, [r3, #64]
 1229 0094 22F00402 		bic	r2, r2, #4
 1230 0098 1A64     		str	r2, [r3, #64]
 1231 009a 10BD     		pop	{r4, pc}
 1232              	.LVL118:
 1233              	.L178:
 1234              		.loc 1 649 0
 1235 009c 2C20     		movs	r0, #44
 1236              	.LVL119:
 1237 009e FFF7FEFF 		bl	nvicDisableVector
ARM GAS  /tmp/cc9hFd7n.s 			page 23


 1238              	.LVL120:
 1239              		.loc 1 650 0
 1240 00a2 2E20     		movs	r0, #46
 1241 00a4 FFF7FEFF 		bl	nvicDisableVector
 1242              	.LVL121:
 1243              		.loc 1 651 0
 1244 00a8 084B     		ldr	r3, .L179+24
 1245 00aa 5A6C     		ldr	r2, [r3, #68]
 1246 00ac 22F00202 		bic	r2, r2, #2
 1247 00b0 5A64     		str	r2, [r3, #68]
 1248 00b2 10BD     		pop	{r4, pc}
 1249              	.LVL122:
 1250              	.L180:
 1251              		.align	2
 1252              	.L179:
 1253 00b4 00000000 		.word	.LANCHOR0
 1254 00b8 00000000 		.word	.LANCHOR1
 1255 00bc 00000000 		.word	.LANCHOR2
 1256 00c0 00000000 		.word	.LANCHOR3
 1257 00c4 00000000 		.word	.LANCHOR4
 1258 00c8 00000000 		.word	.LANCHOR5
 1259 00cc 00380240 		.word	1073887232
 1260              		.cfi_endproc
 1261              	.LFE129:
 1262              		.size	pwm_lld_stop, .-pwm_lld_stop
 1263              		.section	.text.pwm_lld_enable_channel,"ax",%progbits
 1264              		.align	2
 1265              		.p2align 4,,15
 1266              		.global	pwm_lld_enable_channel
 1267              		.thumb
 1268              		.thumb_func
 1269              		.type	pwm_lld_enable_channel, %function
 1270              	pwm_lld_enable_channel:
 1271              	.LFB130:
 1272              		.loc 1 677 0
 1273              		.cfi_startproc
 1274              		@ args = 0, pretend = 0, frame = 0
 1275              		@ frame_needed = 0, uses_anonymous_args = 0
 1276              		@ link register save eliminated.
 1277              	.LVL123:
 1278 0000 10B4     		push	{r4}
 1279              		.cfi_def_cfa_offset 4
 1280              		.cfi_offset 4, -4
 1281              		.loc 1 682 0
 1282 0002 4468     		ldr	r4, [r0, #4]
 1283              		.loc 1 679 0
 1284 0004 0369     		ldr	r3, [r0, #16]
 1285              		.loc 1 682 0
 1286 0006 04EBC100 		add	r0, r4, r1, lsl #3
 1287              	.LVL124:
 1288              		.loc 1 679 0
 1289 000a 01F10C04 		add	r4, r1, #12
 1290              		.loc 1 682 0
 1291 000e 0069     		ldr	r0, [r0, #16]
 1292              		.loc 1 679 0
 1293 0010 03EB8404 		add	r4, r3, r4, lsl #2
 1294 0014 6260     		str	r2, [r4, #4]
ARM GAS  /tmp/cc9hFd7n.s 			page 24


 1295              		.loc 1 682 0
 1296 0016 48B1     		cbz	r0, .L181
 1297              	.LBB2:
 1298              		.loc 1 686 0
 1299 0018 0220     		movs	r0, #2
 1300              		.loc 1 683 0
 1301 001a DA68     		ldr	r2, [r3, #12]
 1302              	.LVL125:
 1303              		.loc 1 686 0
 1304 001c 00FA01F1 		lsl	r1, r0, r1
 1305              	.LVL126:
 1306 0020 1142     		tst	r1, r2
 1307 0022 03D1     		bne	.L181
 1308              		.loc 1 687 0
 1309 0024 0A43     		orrs	r2, r2, r1
 1310              	.LVL127:
 1311              		.loc 1 688 0
 1312 0026 C943     		mvns	r1, r1
 1313              		.loc 1 687 0
 1314 0028 DA60     		str	r2, [r3, #12]
 1315              		.loc 1 688 0
 1316 002a 1961     		str	r1, [r3, #16]
 1317              	.L181:
 1318              	.LBE2:
 1319              		.loc 1 691 0
 1320 002c 5DF8044B 		ldr	r4, [sp], #4
 1321 0030 7047     		bx	lr
 1322              		.cfi_endproc
 1323              	.LFE130:
 1324              		.size	pwm_lld_enable_channel, .-pwm_lld_enable_channel
 1325 0032 00BFAFF3 		.section	.text.pwm_lld_disable_channel,"ax",%progbits
 1325      0080AFF3 
 1325      0080AFF3 
 1325      0080
 1326              		.align	2
 1327              		.p2align 4,,15
 1328              		.global	pwm_lld_disable_channel
 1329              		.thumb
 1330              		.thumb_func
 1331              		.type	pwm_lld_disable_channel, %function
 1332              	pwm_lld_disable_channel:
 1333              	.LFB131:
 1334              		.loc 1 705 0
 1335              		.cfi_startproc
 1336              		@ args = 0, pretend = 0, frame = 0
 1337              		@ frame_needed = 0, uses_anonymous_args = 0
 1338              		@ link register save eliminated.
 1339              	.LVL128:
 1340              		.loc 1 707 0
 1341 0000 0369     		ldr	r3, [r0, #16]
 1342 0002 01F10C02 		add	r2, r1, #12
 1343 0006 03EB8202 		add	r2, r3, r2, lsl #2
 1344 000a 0020     		movs	r0, #0
 1345              	.LVL129:
 1346 000c 5060     		str	r0, [r2, #4]
 1347              		.loc 1 708 0
 1348 000e DA68     		ldr	r2, [r3, #12]
ARM GAS  /tmp/cc9hFd7n.s 			page 25


 1349 0010 0220     		movs	r0, #2
 1350 0012 00FA01F1 		lsl	r1, r0, r1
 1351              	.LVL130:
 1352 0016 22EA0101 		bic	r1, r2, r1
 1353 001a D960     		str	r1, [r3, #12]
 1354 001c 7047     		bx	lr
 1355              		.cfi_endproc
 1356              	.LFE131:
 1357              		.size	pwm_lld_disable_channel, .-pwm_lld_disable_channel
 1358              		.global	PWMD9
 1359              		.global	PWMD8
 1360              		.global	PWMD4
 1361              		.global	PWMD3
 1362              		.global	PWMD2
 1363              		.global	PWMD1
 1364 001e 00BF     		.section	.bss.PWMD1,"aw",%nobits
 1365              		.align	2
 1366              		.set	.LANCHOR0,. + 0
 1367              		.type	PWMD1, %object
 1368              		.size	PWMD1, 20
 1369              	PWMD1:
 1370 0000 00000000 		.space	20
 1370      00000000 
 1370      00000000 
 1370      00000000 
 1370      00000000 
 1371              		.section	.bss.PWMD2,"aw",%nobits
 1372              		.align	2
 1373              		.set	.LANCHOR1,. + 0
 1374              		.type	PWMD2, %object
 1375              		.size	PWMD2, 20
 1376              	PWMD2:
 1377 0000 00000000 		.space	20
 1377      00000000 
 1377      00000000 
 1377      00000000 
 1377      00000000 
 1378              		.section	.bss.PWMD3,"aw",%nobits
 1379              		.align	2
 1380              		.set	.LANCHOR2,. + 0
 1381              		.type	PWMD3, %object
 1382              		.size	PWMD3, 20
 1383              	PWMD3:
 1384 0000 00000000 		.space	20
 1384      00000000 
 1384      00000000 
 1384      00000000 
 1384      00000000 
 1385              		.section	.bss.PWMD4,"aw",%nobits
 1386              		.align	2
 1387              		.set	.LANCHOR3,. + 0
 1388              		.type	PWMD4, %object
 1389              		.size	PWMD4, 20
 1390              	PWMD4:
 1391 0000 00000000 		.space	20
 1391      00000000 
 1391      00000000 
ARM GAS  /tmp/cc9hFd7n.s 			page 26


 1391      00000000 
 1391      00000000 
 1392              		.section	.bss.PWMD8,"aw",%nobits
 1393              		.align	2
 1394              		.set	.LANCHOR4,. + 0
 1395              		.type	PWMD8, %object
 1396              		.size	PWMD8, 20
 1397              	PWMD8:
 1398 0000 00000000 		.space	20
 1398      00000000 
 1398      00000000 
 1398      00000000 
 1398      00000000 
 1399              		.section	.bss.PWMD9,"aw",%nobits
 1400              		.align	2
 1401              		.set	.LANCHOR5,. + 0
 1402              		.type	PWMD9, %object
 1403              		.size	PWMD9, 20
 1404              	PWMD9:
 1405 0000 00000000 		.space	20
 1405      00000000 
 1405      00000000 
 1405      00000000 
 1405      00000000 
 1406              		.text
 1407              	.Letext0:
 1408              		.file 2 "/usr/arm-none-eabi/include/stdint.h"
 1409              		.file 3 "../AithonLibrary/ChibiOS/os/hal/platforms/STM32F4xx/stm32f4xx.h"
 1410              		.file 4 "../AithonLibrary/ChibiOS/os/hal/include/pwm.h"
 1411              		.file 5 "../AithonLibrary/ChibiOS/os/hal/platforms/STM32/TIMv1/pwm_lld.h"
 1412              		.file 6 "../AithonLibrary/ChibiOS/os/hal/platforms/STM32/TIMv1/stm32_tim.h"
 1413              		.file 7 "../AithonLibrary/ChibiOS/os/ports/common/ARMCMx/CMSIS/include/core_cm4.h"
 1414              		.file 8 "../AithonLibrary/ChibiOS/os/ports/common/ARMCMx/nvic.h"
 1415              		.file 9 "../AithonLibrary/ChibiOS/os/ports/GCC/ARMCMx/chcore_v7m.h"