ARM GAS  /tmp/cc9hFd7n.s 			page 1


   1              		.syntax unified
   2              		.cpu cortex-m4
   3              		.eabi_attribute 27, 3
   4              		.fpu fpv4-sp-d16
   5              		.eabi_attribute 20, 1
   6              		.eabi_attribute 21, 1
   7              		.eabi_attribute 23, 3
   8              		.eabi_attribute 24, 1
   9              		.eabi_attribute 25, 1
  10              		.eabi_attribute 26, 1
  11              		.eabi_attribute 30, 2
  12              		.eabi_attribute 34, 1
  13              		.eabi_attribute 18, 4
  14              		.thumb
  15              		.file	"pwm_lld.c"
  16              		.text
  17              	.Ltext0:
  18              		.cfi_sections	.debug_frame
  19              		.section	.text.pwm_lld_serve_interrupt,"ax",%progbits
  20              		.align	2
  21              		.p2align 4,,15
  22              		.thumb
  23              		.thumb_func
  24              		.type	pwm_lld_serve_interrupt, %function
  25              	pwm_lld_serve_interrupt:
  26              	.LFB118:
  27              		.file 1 "../AithonLibrary/ChibiOS/os/hal/platforms/STM32/TIMv1/pwm_lld.c"
  28              		.loc 1 112 0
  29              		.cfi_startproc
  30              		@ args = 0, pretend = 0, frame = 0
  31              		@ frame_needed = 0, uses_anonymous_args = 0
  32              	.LVL0:
  33 0000 38B5     		push	{r3, r4, r5, lr}
  34              		.cfi_def_cfa_offset 16
  35              		.cfi_offset 3, -16
  36              		.cfi_offset 4, -12
  37              		.cfi_offset 5, -8
  38              		.cfi_offset 14, -4
  39              		.loc 1 115 0
  40 0002 0369     		ldr	r3, [r0, #16]
  41 0004 1A69     		ldr	r2, [r3, #16]
  42              	.LVL1:
  43              		.loc 1 116 0
  44 0006 DC68     		ldr	r4, [r3, #12]
  45 0008 1440     		ands	r4, r4, r2
  46 000a A4B2     		uxth	r4, r4
  47              	.LVL2:
  48              		.loc 1 117 0
  49 000c E2B2     		uxtb	r2, r4
  50 000e D243     		mvns	r2, r2
  51 0010 1A61     		str	r2, [r3, #16]
  52              		.loc 1 118 0
  53 0012 A307     		lsls	r3, r4, #30
  54              		.loc 1 112 0
  55 0014 0546     		mov	r5, r0
  56              		.loc 1 118 0
  57 0016 1BD4     		bmi	.L23
ARM GAS  /tmp/cc9hFd7n.s 			page 2


  58              	.LVL3:
  59              	.L2:
  60              		.loc 1 120 0
  61 0018 6007     		lsls	r0, r4, #29
  62 001a 14D4     		bmi	.L24
  63              	.L3:
  64              		.loc 1 122 0
  65 001c 2107     		lsls	r1, r4, #28
  66 001e 0DD4     		bmi	.L25
  67              	.L4:
  68              		.loc 1 124 0
  69 0020 E206     		lsls	r2, r4, #27
  70 0022 06D4     		bmi	.L26
  71              	.L5:
  72              		.loc 1 126 0
  73 0024 E307     		lsls	r3, r4, #31
  74 0026 03D5     		bpl	.L1
  75              		.loc 1 127 0
  76 0028 6B68     		ldr	r3, [r5, #4]
  77 002a 2846     		mov	r0, r5
  78 002c 9B68     		ldr	r3, [r3, #8]
  79 002e 9847     		blx	r3
  80              	.LVL4:
  81              	.L1:
  82 0030 38BD     		pop	{r3, r4, r5, pc}
  83              	.LVL5:
  84              	.L26:
  85              		.loc 1 125 0
  86 0032 6B68     		ldr	r3, [r5, #4]
  87 0034 2846     		mov	r0, r5
  88 0036 9B6A     		ldr	r3, [r3, #40]
  89 0038 9847     		blx	r3
  90              	.LVL6:
  91 003a F3E7     		b	.L5
  92              	.L25:
  93              		.loc 1 123 0
  94 003c 6B68     		ldr	r3, [r5, #4]
  95 003e 2846     		mov	r0, r5
  96 0040 1B6A     		ldr	r3, [r3, #32]
  97 0042 9847     		blx	r3
  98              	.LVL7:
  99 0044 ECE7     		b	.L4
 100              	.L24:
 101              		.loc 1 121 0
 102 0046 6B68     		ldr	r3, [r5, #4]
 103 0048 2846     		mov	r0, r5
 104 004a 9B69     		ldr	r3, [r3, #24]
 105 004c 9847     		blx	r3
 106              	.LVL8:
 107 004e E5E7     		b	.L3
 108              	.LVL9:
 109              	.L23:
 110              		.loc 1 119 0
 111 0050 4368     		ldr	r3, [r0, #4]
 112 0052 1B69     		ldr	r3, [r3, #16]
 113 0054 9847     		blx	r3
 114              	.LVL10:
ARM GAS  /tmp/cc9hFd7n.s 			page 3


 115 0056 DFE7     		b	.L2
 116              		.cfi_endproc
 117              	.LFE118:
 118              		.size	pwm_lld_serve_interrupt, .-pwm_lld_serve_interrupt
 119 0058 AFF30080 		.section	.text.VectorA4,"ax",%progbits
 119      AFF30080 
 120              		.align	2
 121              		.p2align 4,,15
 122              		.global	VectorA4
 123              		.thumb
 124              		.thumb_func
 125              		.type	VectorA4, %function
 126              	VectorA4:
 127              	.LFB119:
 128              		.loc 1 147 0
 129              		.cfi_startproc
 130              		@ args = 0, pretend = 0, frame = 0
 131              		@ frame_needed = 0, uses_anonymous_args = 0
 132 0000 08B5     		push	{r3, lr}
 133              		.cfi_def_cfa_offset 8
 134              		.cfi_offset 3, -8
 135              		.cfi_offset 14, -4
 136              		.loc 1 152 0
 137 0002 0648     		ldr	r0, .L28
 138              		.loc 1 151 0
 139 0004 064A     		ldr	r2, .L28+4
 140              		.loc 1 152 0
 141 0006 4368     		ldr	r3, [r0, #4]
 142              		.loc 1 151 0
 143 0008 6FF00101 		mvn	r1, #1
 144              		.loc 1 152 0
 145 000c 9B68     		ldr	r3, [r3, #8]
 146              		.loc 1 151 0
 147 000e 1161     		str	r1, [r2, #16]
 148              		.loc 1 152 0
 149 0010 9847     		blx	r3
 150              	.LVL11:
 151              		.loc 1 155 0
 152 0012 BDE80840 		pop	{r3, lr}
 153              		.loc 1 154 0
 154 0016 FFF7FEBF 		b	_port_irq_epilogue
 155              	.LVL12:
 156              	.L29:
 157 001a 00BF     		.align	2
 158              	.L28:
 159 001c 00000000 		.word	.LANCHOR0
 160 0020 00000140 		.word	1073807360
 161              		.cfi_endproc
 162              	.LFE119:
 163              		.size	VectorA4, .-VectorA4
 164 0024 AFF30080 		.section	.text.VectorAC,"ax",%progbits
 164      AFF30080 
 164      AFF30080 
 165              		.align	2
 166              		.p2align 4,,15
 167              		.global	VectorAC
 168              		.thumb
ARM GAS  /tmp/cc9hFd7n.s 			page 4


 169              		.thumb_func
 170              		.type	VectorAC, %function
 171              	VectorAC:
 172              	.LFB120:
 173              		.loc 1 168 0
 174              		.cfi_startproc
 175              		@ args = 0, pretend = 0, frame = 0
 176              		@ frame_needed = 0, uses_anonymous_args = 0
 177              		.loc 1 173 0
 178 0000 134B     		ldr	r3, .L50
 179              		.loc 1 168 0
 180 0002 10B5     		push	{r4, lr}
 181              		.cfi_def_cfa_offset 8
 182              		.cfi_offset 4, -8
 183              		.cfi_offset 14, -4
 184              		.loc 1 173 0
 185 0004 1A69     		ldr	r2, [r3, #16]
 186 0006 DC68     		ldr	r4, [r3, #12]
 187 0008 1440     		ands	r4, r4, r2
 188 000a A4B2     		uxth	r4, r4
 189              	.LVL13:
 190              		.loc 1 174 0
 191 000c E2B2     		uxtb	r2, r4
 192 000e D243     		mvns	r2, r2
 193              		.loc 1 175 0
 194 0010 A007     		lsls	r0, r4, #30
 195              		.loc 1 174 0
 196 0012 1A61     		str	r2, [r3, #16]
 197              		.loc 1 175 0
 198 0014 17D4     		bmi	.L47
 199              	.L31:
 200              		.loc 1 177 0
 201 0016 6107     		lsls	r1, r4, #29
 202 0018 10D4     		bmi	.L48
 203              	.L32:
 204              		.loc 1 179 0
 205 001a 2207     		lsls	r2, r4, #28
 206 001c 09D4     		bmi	.L49
 207              	.L33:
 208              		.loc 1 181 0
 209 001e E306     		lsls	r3, r4, #27
 210 0020 03D5     		bpl	.L34
 211              		.loc 1 182 0
 212 0022 0C48     		ldr	r0, .L50+4
 213 0024 4368     		ldr	r3, [r0, #4]
 214 0026 9B6A     		ldr	r3, [r3, #40]
 215 0028 9847     		blx	r3
 216              	.LVL14:
 217              	.L34:
 218              		.loc 1 185 0
 219 002a BDE81040 		pop	{r4, lr}
 220              	.LVL15:
 221              		.loc 1 184 0
 222 002e FFF7FEBF 		b	_port_irq_epilogue
 223              	.LVL16:
 224              	.L49:
 225              		.loc 1 180 0
ARM GAS  /tmp/cc9hFd7n.s 			page 5


 226 0032 0848     		ldr	r0, .L50+4
 227 0034 4368     		ldr	r3, [r0, #4]
 228 0036 1B6A     		ldr	r3, [r3, #32]
 229 0038 9847     		blx	r3
 230              	.LVL17:
 231 003a F0E7     		b	.L33
 232              	.L48:
 233              		.loc 1 178 0
 234 003c 0548     		ldr	r0, .L50+4
 235 003e 4368     		ldr	r3, [r0, #4]
 236 0040 9B69     		ldr	r3, [r3, #24]
 237 0042 9847     		blx	r3
 238              	.LVL18:
 239 0044 E9E7     		b	.L32
 240              	.L47:
 241              		.loc 1 176 0
 242 0046 0348     		ldr	r0, .L50+4
 243 0048 4368     		ldr	r3, [r0, #4]
 244 004a 1B69     		ldr	r3, [r3, #16]
 245 004c 9847     		blx	r3
 246              	.LVL19:
 247 004e E2E7     		b	.L31
 248              	.L51:
 249              		.align	2
 250              	.L50:
 251 0050 00000140 		.word	1073807360
 252 0054 00000000 		.word	.LANCHOR0
 253              		.cfi_endproc
 254              	.LFE120:
 255              		.size	VectorAC, .-VectorAC
 256 0058 AFF30080 		.section	.text.VectorB0,"ax",%progbits
 256      AFF30080 
 257              		.align	2
 258              		.p2align 4,,15
 259              		.global	VectorB0
 260              		.thumb
 261              		.thumb_func
 262              		.type	VectorB0, %function
 263              	VectorB0:
 264              	.LFB121:
 265              		.loc 1 197 0
 266              		.cfi_startproc
 267              		@ args = 0, pretend = 0, frame = 0
 268              		@ frame_needed = 0, uses_anonymous_args = 0
 269 0000 08B5     		push	{r3, lr}
 270              		.cfi_def_cfa_offset 8
 271              		.cfi_offset 3, -8
 272              		.cfi_offset 14, -4
 273              		.loc 1 201 0
 274 0002 0348     		ldr	r0, .L53
 275 0004 FFF7FEFF 		bl	pwm_lld_serve_interrupt
 276              	.LVL20:
 277              		.loc 1 204 0
 278 0008 BDE80840 		pop	{r3, lr}
 279              		.loc 1 203 0
 280 000c FFF7FEBF 		b	_port_irq_epilogue
 281              	.LVL21:
ARM GAS  /tmp/cc9hFd7n.s 			page 6


 282              	.L54:
 283              		.align	2
 284              	.L53:
 285 0010 00000000 		.word	.LANCHOR1
 286              		.cfi_endproc
 287              	.LFE121:
 288              		.size	VectorB0, .-VectorB0
 289 0014 AFF30080 		.section	.text.VectorB4,"ax",%progbits
 289      AFF30080 
 289      AFF30080 
 290              		.align	2
 291              		.p2align 4,,15
 292              		.global	VectorB4
 293              		.thumb
 294              		.thumb_func
 295              		.type	VectorB4, %function
 296              	VectorB4:
 297              	.LFB122:
 298              		.loc 1 216 0
 299              		.cfi_startproc
 300              		@ args = 0, pretend = 0, frame = 0
 301              		@ frame_needed = 0, uses_anonymous_args = 0
 302 0000 08B5     		push	{r3, lr}
 303              		.cfi_def_cfa_offset 8
 304              		.cfi_offset 3, -8
 305              		.cfi_offset 14, -4
 306              		.loc 1 220 0
 307 0002 0348     		ldr	r0, .L56
 308 0004 FFF7FEFF 		bl	pwm_lld_serve_interrupt
 309              	.LVL22:
 310              		.loc 1 223 0
 311 0008 BDE80840 		pop	{r3, lr}
 312              		.loc 1 222 0
 313 000c FFF7FEBF 		b	_port_irq_epilogue
 314              	.LVL23:
 315              	.L57:
 316              		.align	2
 317              	.L56:
 318 0010 00000000 		.word	.LANCHOR2
 319              		.cfi_endproc
 320              	.LFE122:
 321              		.size	VectorB4, .-VectorB4
 322 0014 AFF30080 		.section	.text.VectorB8,"ax",%progbits
 322      AFF30080 
 322      AFF30080 
 323              		.align	2
 324              		.p2align 4,,15
 325              		.global	VectorB8
 326              		.thumb
 327              		.thumb_func
 328              		.type	VectorB8, %function
 329              	VectorB8:
 330              	.LFB123:
 331              		.loc 1 235 0
 332              		.cfi_startproc
 333              		@ args = 0, pretend = 0, frame = 0
 334              		@ frame_needed = 0, uses_anonymous_args = 0
ARM GAS  /tmp/cc9hFd7n.s 			page 7


 335 0000 08B5     		push	{r3, lr}
 336              		.cfi_def_cfa_offset 8
 337              		.cfi_offset 3, -8
 338              		.cfi_offset 14, -4
 339              		.loc 1 239 0
 340 0002 0348     		ldr	r0, .L59
 341 0004 FFF7FEFF 		bl	pwm_lld_serve_interrupt
 342              	.LVL24:
 343              		.loc 1 242 0
 344 0008 BDE80840 		pop	{r3, lr}
 345              		.loc 1 241 0
 346 000c FFF7FEBF 		b	_port_irq_epilogue
 347              	.LVL25:
 348              	.L60:
 349              		.align	2
 350              	.L59:
 351 0010 00000000 		.word	.LANCHOR3
 352              		.cfi_endproc
 353              	.LFE123:
 354              		.size	VectorB8, .-VectorB8
 355 0014 AFF30080 		.section	.text.VectorF0,"ax",%progbits
 355      AFF30080 
 355      AFF30080 
 356              		.align	2
 357              		.p2align 4,,15
 358              		.global	VectorF0
 359              		.thumb
 360              		.thumb_func
 361              		.type	VectorF0, %function
 362              	VectorF0:
 363              	.LFB124:
 364              		.loc 1 276 0
 365              		.cfi_startproc
 366              		@ args = 0, pretend = 0, frame = 0
 367              		@ frame_needed = 0, uses_anonymous_args = 0
 368 0000 08B5     		push	{r3, lr}
 369              		.cfi_def_cfa_offset 8
 370              		.cfi_offset 3, -8
 371              		.cfi_offset 14, -4
 372              		.loc 1 281 0
 373 0002 0648     		ldr	r0, .L62
 374              		.loc 1 280 0
 375 0004 064A     		ldr	r2, .L62+4
 376              		.loc 1 281 0
 377 0006 4368     		ldr	r3, [r0, #4]
 378              		.loc 1 280 0
 379 0008 6FF00101 		mvn	r1, #1
 380              		.loc 1 281 0
 381 000c 9B68     		ldr	r3, [r3, #8]
 382              		.loc 1 280 0
 383 000e 1161     		str	r1, [r2, #16]
 384              		.loc 1 281 0
 385 0010 9847     		blx	r3
 386              	.LVL26:
 387              		.loc 1 284 0
 388 0012 BDE80840 		pop	{r3, lr}
 389              		.loc 1 283 0
ARM GAS  /tmp/cc9hFd7n.s 			page 8


 390 0016 FFF7FEBF 		b	_port_irq_epilogue
 391              	.LVL27:
 392              	.L63:
 393 001a 00BF     		.align	2
 394              	.L62:
 395 001c 00000000 		.word	.LANCHOR4
 396 0020 00040140 		.word	1073808384
 397              		.cfi_endproc
 398              	.LFE124:
 399              		.size	VectorF0, .-VectorF0
 400 0024 AFF30080 		.section	.text.VectorF8,"ax",%progbits
 400      AFF30080 
 400      AFF30080 
 401              		.align	2
 402              		.p2align 4,,15
 403              		.global	VectorF8
 404              		.thumb
 405              		.thumb_func
 406              		.type	VectorF8, %function
 407              	VectorF8:
 408              	.LFB125:
 409              		.loc 1 297 0
 410              		.cfi_startproc
 411              		@ args = 0, pretend = 0, frame = 0
 412              		@ frame_needed = 0, uses_anonymous_args = 0
 413              		.loc 1 302 0
 414 0000 134B     		ldr	r3, .L84
 415              		.loc 1 297 0
 416 0002 10B5     		push	{r4, lr}
 417              		.cfi_def_cfa_offset 8
 418              		.cfi_offset 4, -8
 419              		.cfi_offset 14, -4
 420              		.loc 1 302 0
 421 0004 1A69     		ldr	r2, [r3, #16]
 422 0006 DC68     		ldr	r4, [r3, #12]
 423 0008 1440     		ands	r4, r4, r2
 424 000a A4B2     		uxth	r4, r4
 425              	.LVL28:
 426              		.loc 1 303 0
 427 000c E2B2     		uxtb	r2, r4
 428 000e D243     		mvns	r2, r2
 429              		.loc 1 304 0
 430 0010 A007     		lsls	r0, r4, #30
 431              		.loc 1 303 0
 432 0012 1A61     		str	r2, [r3, #16]
 433              		.loc 1 304 0
 434 0014 17D4     		bmi	.L81
 435              	.L65:
 436              		.loc 1 306 0
 437 0016 6107     		lsls	r1, r4, #29
 438 0018 10D4     		bmi	.L82
 439              	.L66:
 440              		.loc 1 308 0
 441 001a 2207     		lsls	r2, r4, #28
 442 001c 09D4     		bmi	.L83
 443              	.L67:
 444              		.loc 1 310 0
ARM GAS  /tmp/cc9hFd7n.s 			page 9


 445 001e E306     		lsls	r3, r4, #27
 446 0020 03D5     		bpl	.L68
 447              		.loc 1 311 0
 448 0022 0C48     		ldr	r0, .L84+4
 449 0024 4368     		ldr	r3, [r0, #4]
 450 0026 9B6A     		ldr	r3, [r3, #40]
 451 0028 9847     		blx	r3
 452              	.LVL29:
 453              	.L68:
 454              		.loc 1 314 0
 455 002a BDE81040 		pop	{r4, lr}
 456              	.LVL30:
 457              		.loc 1 313 0
 458 002e FFF7FEBF 		b	_port_irq_epilogue
 459              	.LVL31:
 460              	.L83:
 461              		.loc 1 309 0
 462 0032 0848     		ldr	r0, .L84+4
 463 0034 4368     		ldr	r3, [r0, #4]
 464 0036 1B6A     		ldr	r3, [r3, #32]
 465 0038 9847     		blx	r3
 466              	.LVL32:
 467 003a F0E7     		b	.L67
 468              	.L82:
 469              		.loc 1 307 0
 470 003c 0548     		ldr	r0, .L84+4
 471 003e 4368     		ldr	r3, [r0, #4]
 472 0040 9B69     		ldr	r3, [r3, #24]
 473 0042 9847     		blx	r3
 474              	.LVL33:
 475 0044 E9E7     		b	.L66
 476              	.L81:
 477              		.loc 1 305 0
 478 0046 0348     		ldr	r0, .L84+4
 479 0048 4368     		ldr	r3, [r0, #4]
 480 004a 1B69     		ldr	r3, [r3, #16]
 481 004c 9847     		blx	r3
 482              	.LVL34:
 483 004e E2E7     		b	.L65
 484              	.L85:
 485              		.align	2
 486              	.L84:
 487 0050 00040140 		.word	1073808384
 488 0054 00000000 		.word	.LANCHOR4
 489              		.cfi_endproc
 490              	.LFE125:
 491              		.size	VectorF8, .-VectorF8
 492 0058 AFF30080 		.section	.text.VectorA0,"ax",%progbits
 492      AFF30080 
 493              		.align	2
 494              		.p2align 4,,15
 495              		.global	VectorA0
 496              		.thumb
 497              		.thumb_func
 498              		.type	VectorA0, %function
 499              	VectorA0:
 500              	.LFB126:
ARM GAS  /tmp/cc9hFd7n.s 			page 10


 501              		.loc 1 326 0
 502              		.cfi_startproc
 503              		@ args = 0, pretend = 0, frame = 0
 504              		@ frame_needed = 0, uses_anonymous_args = 0
 505 0000 08B5     		push	{r3, lr}
 506              		.cfi_def_cfa_offset 8
 507              		.cfi_offset 3, -8
 508              		.cfi_offset 14, -4
 509              		.loc 1 330 0
 510 0002 0348     		ldr	r0, .L87
 511 0004 FFF7FEFF 		bl	pwm_lld_serve_interrupt
 512              	.LVL35:
 513              		.loc 1 333 0
 514 0008 BDE80840 		pop	{r3, lr}
 515              		.loc 1 332 0
 516 000c FFF7FEBF 		b	_port_irq_epilogue
 517              	.LVL36:
 518              	.L88:
 519              		.align	2
 520              	.L87:
 521 0010 00000000 		.word	.LANCHOR5
 522              		.cfi_endproc
 523              	.LFE126:
 524              		.size	VectorA0, .-VectorA0
 525 0014 AFF30080 		.section	.text.pwm_lld_init,"ax",%progbits
 525      AFF30080 
 525      AFF30080 
 526              		.align	2
 527              		.p2align 4,,15
 528              		.global	pwm_lld_init
 529              		.thumb
 530              		.thumb_func
 531              		.type	pwm_lld_init, %function
 532              	pwm_lld_init:
 533              	.LFB127:
 534              		.loc 1 345 0
 535              		.cfi_startproc
 536              		@ args = 0, pretend = 0, frame = 0
 537              		@ frame_needed = 0, uses_anonymous_args = 0
 538 0000 2DE9F843 		push	{r3, r4, r5, r6, r7, r8, r9, lr}
 539              		.cfi_def_cfa_offset 32
 540              		.cfi_offset 3, -32
 541              		.cfi_offset 4, -28
 542              		.cfi_offset 5, -24
 543              		.cfi_offset 6, -20
 544              		.cfi_offset 7, -16
 545              		.cfi_offset 8, -12
 546              		.cfi_offset 9, -8
 547              		.cfi_offset 14, -4
 548              		.loc 1 349 0
 549 0004 DFF87890 		ldr	r9, .L90+36
 550              		.loc 1 355 0
 551 0008 DFF87880 		ldr	r8, .L90+40
 552              		.loc 1 361 0
 553 000c 134F     		ldr	r7, .L90
 554              		.loc 1 367 0
 555 000e 144E     		ldr	r6, .L90+4
ARM GAS  /tmp/cc9hFd7n.s 			page 11


 556              		.loc 1 379 0
 557 0010 144D     		ldr	r5, .L90+8
 558              		.loc 1 385 0
 559 0012 154C     		ldr	r4, .L90+12
 560              		.loc 1 349 0
 561 0014 4846     		mov	r0, r9
 562 0016 FFF7FEFF 		bl	pwmObjectInit
 563              	.LVL37:
 564              		.loc 1 350 0
 565 001a 144B     		ldr	r3, .L90+16
 566 001c C9F81030 		str	r3, [r9, #16]
 567              		.loc 1 355 0
 568 0020 4046     		mov	r0, r8
 569 0022 FFF7FEFF 		bl	pwmObjectInit
 570              	.LVL38:
 571              		.loc 1 356 0
 572 0026 4FF08043 		mov	r3, #1073741824
 573              		.loc 1 361 0
 574 002a 3846     		mov	r0, r7
 575              		.loc 1 356 0
 576 002c C8F81030 		str	r3, [r8, #16]
 577              		.loc 1 361 0
 578 0030 FFF7FEFF 		bl	pwmObjectInit
 579              	.LVL39:
 580              		.loc 1 362 0
 581 0034 0E4B     		ldr	r3, .L90+20
 582 0036 3B61     		str	r3, [r7, #16]
 583              		.loc 1 367 0
 584 0038 3046     		mov	r0, r6
 585 003a FFF7FEFF 		bl	pwmObjectInit
 586              	.LVL40:
 587              		.loc 1 368 0
 588 003e 0D4B     		ldr	r3, .L90+24
 589 0040 3361     		str	r3, [r6, #16]
 590              		.loc 1 379 0
 591 0042 2846     		mov	r0, r5
 592 0044 FFF7FEFF 		bl	pwmObjectInit
 593              	.LVL41:
 594              		.loc 1 380 0
 595 0048 0B4B     		ldr	r3, .L90+28
 596 004a 2B61     		str	r3, [r5, #16]
 597              		.loc 1 385 0
 598 004c 2046     		mov	r0, r4
 599 004e FFF7FEFF 		bl	pwmObjectInit
 600              	.LVL42:
 601              		.loc 1 386 0
 602 0052 0A4B     		ldr	r3, .L90+32
 603 0054 2361     		str	r3, [r4, #16]
 604 0056 BDE8F883 		pop	{r3, r4, r5, r6, r7, r8, r9, pc}
 605              	.L91:
 606 005a 00BF     		.align	2
 607              	.L90:
 608 005c 00000000 		.word	.LANCHOR2
 609 0060 00000000 		.word	.LANCHOR3
 610 0064 00000000 		.word	.LANCHOR4
 611 0068 00000000 		.word	.LANCHOR5
 612 006c 00000140 		.word	1073807360
ARM GAS  /tmp/cc9hFd7n.s 			page 12


 613 0070 00040040 		.word	1073742848
 614 0074 00080040 		.word	1073743872
 615 0078 00040140 		.word	1073808384
 616 007c 00400140 		.word	1073823744
 617 0080 00000000 		.word	.LANCHOR0
 618 0084 00000000 		.word	.LANCHOR1
 619              		.cfi_endproc
 620              	.LFE127:
 621              		.size	pwm_lld_init, .-pwm_lld_init
 622 0088 AFF30080 		.section	.text.pwm_lld_start,"ax",%progbits
 622      AFF30080 
 623              		.align	2
 624              		.p2align 4,,15
 625              		.global	pwm_lld_start
 626              		.thumb
 627              		.thumb_func
 628              		.type	pwm_lld_start, %function
 629              	pwm_lld_start:
 630              	.LFB128:
 631              		.loc 1 399 0
 632              		.cfi_startproc
 633              		@ args = 0, pretend = 0, frame = 0
 634              		@ frame_needed = 0, uses_anonymous_args = 0
 635              	.LVL43:
 636              		.loc 1 403 0
 637 0000 0378     		ldrb	r3, [r0]	@ zero_extendqisi2
 638 0002 012B     		cmp	r3, #1
 639              		.loc 1 399 0
 640 0004 2DE9F041 		push	{r4, r5, r6, r7, r8, lr}
 641              		.cfi_def_cfa_offset 24
 642              		.cfi_offset 4, -24
 643              		.cfi_offset 5, -20
 644              		.cfi_offset 6, -16
 645              		.cfi_offset 7, -12
 646              		.cfi_offset 8, -8
 647              		.cfi_offset 14, -4
 648              		.loc 1 399 0
 649 0008 0446     		mov	r4, r0
 650              		.loc 1 403 0
 651 000a 00F08A80 		beq	.L145
 652              		.loc 1 492 0
 653 000e 4168     		ldr	r1, [r0, #4]
 654              		.loc 1 491 0
 655 0010 0369     		ldr	r3, [r0, #16]
 656              		.loc 1 492 0
 657 0012 4A6B     		ldr	r2, [r1, #52]
 658 0014 8F4E     		ldr	r6, .L161
 659 0016 22F0FF00 		bic	r0, r2, #255
 660              	.LVL44:
 661              		.loc 1 491 0
 662 001a 0022     		movs	r2, #0
 663 001c 1A60     		str	r2, [r3]
 664              		.loc 1 492 0
 665 001e D860     		str	r0, [r3, #12]
 666              		.loc 1 494 0
 667 0020 1A61     		str	r2, [r3, #16]
 668              		.loc 1 495 0
ARM GAS  /tmp/cc9hFd7n.s 			page 13


 669 0022 5A63     		str	r2, [r3, #52]
 670              		.loc 1 496 0
 671 0024 9A63     		str	r2, [r3, #56]
 672              		.loc 1 497 0
 673 0026 DA63     		str	r2, [r3, #60]
 674              		.loc 1 498 0
 675 0028 1A64     		str	r2, [r3, #64]
 676              		.loc 1 499 0
 677 002a 5A62     		str	r2, [r3, #36]
 678              	.L101:
 679              	.LVL45:
 680              		.loc 1 503 0
 681 002c E068     		ldr	r0, [r4, #12]
 682 002e 0A68     		ldr	r2, [r1]
 683              		.loc 1 508 0
 684 0030 B4F80880 		ldrh	r8, [r4, #8]
 685              		.loc 1 513 0
 686 0034 CD68     		ldr	r5, [r1, #12]
 687              		.loc 1 509 0
 688 0036 CF6A     		ldr	r7, [r1, #44]
 689              		.loc 1 503 0
 690 0038 B0FBF2FC 		udiv	ip, r0, r2
 691 003c 0CF1FF3C 		add	ip, ip, #-1
 692              	.LVL46:
 693              		.loc 1 508 0
 694 0040 08F1FF30 		add	r0, r8, #-1
 695              		.loc 1 513 0
 696 0044 05F00F02 		and	r2, r5, #15
 697              		.loc 1 507 0
 698 0048 1FFA8CFC 		uxth	ip, ip
 699              	.LVL47:
 700              		.loc 1 508 0
 701 004c 80B2     		uxth	r0, r0
 702              		.loc 1 513 0
 703 004e 012A     		cmp	r2, #1
 704              		.loc 1 507 0
 705 0050 C3F828C0 		str	ip, [r3, #40]
 706              	.LVL48:
 707              		.loc 1 508 0
 708 0054 D862     		str	r0, [r3, #44]
 709              		.loc 1 509 0
 710 0056 5F60     		str	r7, [r3, #4]
 711              	.LVL49:
 712              		.loc 1 513 0
 713 0058 03D0     		beq	.L102
 714              		.loc 1 512 0
 715 005a 022A     		cmp	r2, #2
 716 005c 0CBF     		ite	eq
 717 005e 0322     		moveq	r2, #3
 718 0060 0022     		movne	r2, #0
 719              	.L102:
 720              	.LVL50:
 721              		.loc 1 521 0
 722 0062 D1F814C0 		ldr	ip, [r1, #20]
 723 0066 0CF00F00 		and	r0, ip, #15
 724 006a 0128     		cmp	r0, #1
 725 006c 51D0     		beq	.L106
ARM GAS  /tmp/cc9hFd7n.s 			page 14


 726 006e 0228     		cmp	r0, #2
 727 0070 4DD0     		beq	.L146
 728              	.LVL51:
 729              	.L105:
 730              		.loc 1 529 0
 731 0072 CF69     		ldr	r7, [r1, #28]
 732 0074 07F00F00 		and	r0, r7, #15
 733 0078 0128     		cmp	r0, #1
 734 007a 24D0     		beq	.L109
 735 007c 0228     		cmp	r0, #2
 736 007e 20D0     		beq	.L147
 737              		.loc 1 537 0
 738 0080 486A     		ldr	r0, [r1, #36]
 739 0082 00F00F00 		and	r0, r0, #15
 740 0086 0128     		cmp	r0, #1
 741 0088 24D0     		beq	.L112
 742              	.LVL52:
 743              	.L149:
 744 008a 0228     		cmp	r0, #2
 745 008c 44D0     		beq	.L148
 746              	.LVL53:
 747              		.loc 1 553 0
 748 008e B442     		cmp	r4, r6
 749 0090 24D0     		beq	.L114
 750              	.LVL54:
 751              	.L150:
 752              		.loc 1 553 0 is_stmt 0 discriminator 1
 753 0092 7148     		ldr	r0, .L161+4
 754 0094 8442     		cmp	r4, r0
 755 0096 21D0     		beq	.L114
 756              	.L115:
 757              	.LVL55:
 758              		.loc 1 583 0 is_stmt 1
 759 0098 0120     		movs	r0, #1
 760              		.loc 1 582 0
 761 009a 1A62     		str	r2, [r3, #32]
 762              		.loc 1 583 0
 763 009c 5861     		str	r0, [r3, #20]
 764              		.loc 1 584 0
 765 009e DA68     		ldr	r2, [r3, #12]
 766              	.LVL56:
 767 00a0 8C68     		ldr	r4, [r1, #8]
 768              	.LVL57:
 769              		.loc 1 588 0
 770 00a2 096B     		ldr	r1, [r1, #48]
 771              		.loc 1 584 0
 772 00a4 002C     		cmp	r4, #0
 773 00a6 0CBF     		ite	eq
 774 00a8 1446     		moveq	r4, r2
 775 00aa 42F00104 		orrne	r4, r2, #1
 776              		.loc 1 588 0
 777 00ae 41F40041 		orr	r1, r1, #32768
 778              		.loc 1 585 0
 779 00b2 0020     		movs	r0, #0
 780              		.loc 1 594 0
 781 00b4 8522     		movs	r2, #133
 782              		.loc 1 584 0
ARM GAS  /tmp/cc9hFd7n.s 			page 15


 783 00b6 DC60     		str	r4, [r3, #12]
 784              		.loc 1 585 0
 785 00b8 1861     		str	r0, [r3, #16]
 786              		.loc 1 588 0
 787 00ba 5964     		str	r1, [r3, #68]
 788              		.loc 1 594 0
 789 00bc 1A60     		str	r2, [r3]
 790 00be BDE8F081 		pop	{r4, r5, r6, r7, r8, pc}
 791              	.LVL58:
 792              	.L147:
 793              		.loc 1 531 0
 794 00c2 42F40072 		orr	r2, r2, #512
 795              	.LVL59:
 796              	.L109:
 797              		.loc 1 537 0
 798 00c6 486A     		ldr	r0, [r1, #36]
 799 00c8 00F00F00 		and	r0, r0, #15
 800 00cc 0128     		cmp	r0, #1
 801              		.loc 1 533 0
 802 00ce 42F48072 		orr	r2, r2, #256
 803              	.LVL60:
 804              		.loc 1 537 0
 805 00d2 DAD1     		bne	.L149
 806              	.LVL61:
 807              	.L112:
 808              		.loc 1 541 0
 809 00d4 42F48052 		orr	r2, r2, #4096
 810              	.LVL62:
 811              	.L153:
 812              		.loc 1 553 0
 813 00d8 B442     		cmp	r4, r6
 814 00da DAD1     		bne	.L150
 815              	.LVL63:
 816              	.L114:
 817              		.loc 1 555 0
 818 00dc 05F0F005 		and	r5, r5, #240
 819 00e0 102D     		cmp	r5, #16
 820 00e2 39D0     		beq	.L117
 821 00e4 202D     		cmp	r5, #32
 822 00e6 35D0     		beq	.L151
 823              	.LVL64:
 824              		.loc 1 563 0
 825 00e8 0CF0F00C 		and	ip, ip, #240
 826 00ec BCF1100F 		cmp	ip, #16
 827 00f0 39D0     		beq	.L120
 828              	.LVL65:
 829              	.L160:
 830 00f2 BCF1200F 		cmp	ip, #32
 831 00f6 39D0     		beq	.L152
 832              	.L119:
 833              	.LVL66:
 834              		.loc 1 571 0
 835 00f8 07F0F007 		and	r7, r7, #240
 836 00fc 102F     		cmp	r7, #16
 837 00fe 03D0     		beq	.L122
 838 0100 202F     		cmp	r7, #32
 839 0102 C9D1     		bne	.L115
ARM GAS  /tmp/cc9hFd7n.s 			page 16


 840              		.loc 1 573 0
 841 0104 42F40062 		orr	r2, r2, #2048
 842              	.LVL67:
 843              	.L122:
 844              		.loc 1 575 0
 845 0108 42F48062 		orr	r2, r2, #1024
 846              	.LVL68:
 847 010c C4E7     		b	.L115
 848              	.L146:
 849              		.loc 1 523 0
 850 010e 42F02002 		orr	r2, r2, #32
 851              	.LVL69:
 852              	.L106:
 853              		.loc 1 525 0
 854 0112 42F01002 		orr	r2, r2, #16
 855              	.LVL70:
 856 0116 ACE7     		b	.L105
 857              	.LVL71:
 858              	.L148:
 859              		.loc 1 539 0
 860 0118 42F40052 		orr	r2, r2, #8192
 861              	.LVL72:
 862              		.loc 1 541 0
 863 011c 42F48052 		orr	r2, r2, #4096
 864              	.LVL73:
 865 0120 DAE7     		b	.L153
 866              	.LVL74:
 867              	.L145:
 868              		.loc 1 406 0
 869 0122 4C4E     		ldr	r6, .L161
 870 0124 B042     		cmp	r0, r6
 871 0126 3CD0     		beq	.L154
 872              		.loc 1 421 0
 873 0128 4C4B     		ldr	r3, .L161+8
 874 012a 9842     		cmp	r0, r3
 875 012c 4FD0     		beq	.L155
 876              		.loc 1 430 0
 877 012e 4C4B     		ldr	r3, .L161+12
 878 0130 9842     		cmp	r0, r3
 879 0132 5ED0     		beq	.L156
 880              		.loc 1 439 0
 881 0134 4B4B     		ldr	r3, .L161+16
 882 0136 9842     		cmp	r0, r3
 883 0138 6DD0     		beq	.L157
 884              		.loc 1 458 0
 885 013a 474B     		ldr	r3, .L161+4
 886 013c 9842     		cmp	r0, r3
 887 013e 1AD0     		beq	.L158
 888              	.LVL75:
 889              	.L100:
 890              		.loc 1 473 0
 891 0140 494B     		ldr	r3, .L161+20
 892 0142 9C42     		cmp	r4, r3
 893 0144 73D0     		beq	.L159
 894              	.L98:
 895              		.loc 1 484 0
 896 0146 2369     		ldr	r3, [r4, #16]
ARM GAS  /tmp/cc9hFd7n.s 			page 17


 897 0148 6168     		ldr	r1, [r4, #4]
 898 014a 46F66802 		movw	r2, #26728
 899 014e 9A61     		str	r2, [r3, #24]
 900              		.loc 1 486 0
 901 0150 DA61     		str	r2, [r3, #28]
 902 0152 6BE7     		b	.L101
 903              	.L151:
 904              		.loc 1 557 0
 905 0154 42F00802 		orr	r2, r2, #8
 906              	.LVL76:
 907              	.L117:
 908              		.loc 1 563 0
 909 0158 0CF0F00C 		and	ip, ip, #240
 910 015c BCF1100F 		cmp	ip, #16
 911              		.loc 1 559 0
 912 0160 42F00402 		orr	r2, r2, #4
 913              	.LVL77:
 914              		.loc 1 563 0
 915 0164 C5D1     		bne	.L160
 916              	.LVL78:
 917              	.L120:
 918              		.loc 1 567 0
 919 0166 42F04002 		orr	r2, r2, #64
 920              	.LVL79:
 921 016a C5E7     		b	.L119
 922              	.LVL80:
 923              	.L152:
 924              		.loc 1 565 0
 925 016c 42F08002 		orr	r2, r2, #128
 926              	.LVL81:
 927              		.loc 1 567 0
 928 0170 42F04002 		orr	r2, r2, #64
 929              	.LVL82:
 930 0174 C0E7     		b	.L119
 931              	.LVL83:
 932              	.L158:
 933              		.loc 1 459 0
 934 0176 3D4B     		ldr	r3, .L161+24
 935 0178 5A6C     		ldr	r2, [r3, #68]
 936 017a 42F00202 		orr	r2, r2, #2
 937 017e 5A64     		str	r2, [r3, #68]
 938              		.loc 1 460 0
 939 0180 596A     		ldr	r1, [r3, #36]
 940 0182 0022     		movs	r2, #0
 941 0184 41F00201 		orr	r1, r1, #2
 942 0188 5962     		str	r1, [r3, #36]
 943              		.loc 1 461 0
 944 018a 2C20     		movs	r0, #44
 945              	.LVL84:
 946              		.loc 1 460 0
 947 018c 5A62     		str	r2, [r3, #36]
 948              		.loc 1 461 0
 949 018e 7021     		movs	r1, #112
 950 0190 FFF7FEFF 		bl	nvicEnableVector
 951              	.LVL85:
 952              		.loc 1 463 0
 953 0194 2E20     		movs	r0, #46
ARM GAS  /tmp/cc9hFd7n.s 			page 18


 954 0196 7021     		movs	r1, #112
 955 0198 FFF7FEFF 		bl	nvicEnableVector
 956              	.LVL86:
 957              		.loc 1 468 0
 958 019c 344B     		ldr	r3, .L161+28
 959 019e E360     		str	r3, [r4, #12]
 960 01a0 D1E7     		b	.L98
 961              	.LVL87:
 962              	.L154:
 963              		.loc 1 407 0
 964 01a2 324B     		ldr	r3, .L161+24
 965 01a4 5A6C     		ldr	r2, [r3, #68]
 966 01a6 42F00102 		orr	r2, r2, #1
 967 01aa 5A64     		str	r2, [r3, #68]
 968              		.loc 1 408 0
 969 01ac 596A     		ldr	r1, [r3, #36]
 970 01ae 0022     		movs	r2, #0
 971 01b0 41F00101 		orr	r1, r1, #1
 972 01b4 5962     		str	r1, [r3, #36]
 973              		.loc 1 409 0
 974 01b6 1920     		movs	r0, #25
 975              	.LVL88:
 976              		.loc 1 408 0
 977 01b8 5A62     		str	r2, [r3, #36]
 978              		.loc 1 409 0
 979 01ba 7021     		movs	r1, #112
 980 01bc FFF7FEFF 		bl	nvicEnableVector
 981              	.LVL89:
 982              		.loc 1 411 0
 983 01c0 1B20     		movs	r0, #27
 984 01c2 7021     		movs	r1, #112
 985 01c4 FFF7FEFF 		bl	nvicEnableVector
 986              	.LVL90:
 987              		.loc 1 416 0
 988 01c8 294B     		ldr	r3, .L161+28
 989 01ca E360     		str	r3, [r4, #12]
 990 01cc B8E7     		b	.L100
 991              	.LVL91:
 992              	.L155:
 993              		.loc 1 422 0
 994 01ce 274B     		ldr	r3, .L161+24
 995 01d0 1A6C     		ldr	r2, [r3, #64]
 996 01d2 42F00102 		orr	r2, r2, #1
 997 01d6 1A64     		str	r2, [r3, #64]
 998              		.loc 1 423 0
 999 01d8 196A     		ldr	r1, [r3, #32]
 1000 01da 0022     		movs	r2, #0
 1001 01dc 41F00101 		orr	r1, r1, #1
 1002 01e0 1962     		str	r1, [r3, #32]
 1003              		.loc 1 424 0
 1004 01e2 1C20     		movs	r0, #28
 1005              	.LVL92:
 1006              		.loc 1 423 0
 1007 01e4 1A62     		str	r2, [r3, #32]
 1008              		.loc 1 424 0
 1009 01e6 7021     		movs	r1, #112
 1010 01e8 FFF7FEFF 		bl	nvicEnableVector
ARM GAS  /tmp/cc9hFd7n.s 			page 19


 1011              	.LVL93:
 1012              		.loc 1 426 0
 1013 01ec 214B     		ldr	r3, .L161+32
 1014 01ee E360     		str	r3, [r4, #12]
 1015 01f0 A6E7     		b	.L100
 1016              	.LVL94:
 1017              	.L156:
 1018              		.loc 1 431 0
 1019 01f2 1E4B     		ldr	r3, .L161+24
 1020 01f4 1A6C     		ldr	r2, [r3, #64]
 1021 01f6 42F00202 		orr	r2, r2, #2
 1022 01fa 1A64     		str	r2, [r3, #64]
 1023              		.loc 1 432 0
 1024 01fc 196A     		ldr	r1, [r3, #32]
 1025 01fe 41F00201 		orr	r1, r1, #2
 1026 0202 0022     		movs	r2, #0
 1027 0204 1962     		str	r1, [r3, #32]
 1028              		.loc 1 433 0
 1029 0206 1D20     		movs	r0, #29
 1030              	.LVL95:
 1031              	.L144:
 1032              		.loc 1 441 0
 1033 0208 1A62     		str	r2, [r3, #32]
 1034              		.loc 1 442 0
 1035 020a 7021     		movs	r1, #112
 1036 020c FFF7FEFF 		bl	nvicEnableVector
 1037              	.LVL96:
 1038              		.loc 1 444 0
 1039 0210 184B     		ldr	r3, .L161+32
 1040 0212 E360     		str	r3, [r4, #12]
 1041 0214 97E7     		b	.L98
 1042              	.LVL97:
 1043              	.L157:
 1044              		.loc 1 440 0
 1045 0216 154B     		ldr	r3, .L161+24
 1046 0218 1A6C     		ldr	r2, [r3, #64]
 1047 021a 42F00402 		orr	r2, r2, #4
 1048 021e 1A64     		str	r2, [r3, #64]
 1049              		.loc 1 441 0
 1050 0220 196A     		ldr	r1, [r3, #32]
 1051 0222 41F00401 		orr	r1, r1, #4
 1052 0226 0022     		movs	r2, #0
 1053 0228 1962     		str	r1, [r3, #32]
 1054              		.loc 1 442 0
 1055 022a 1E20     		movs	r0, #30
 1056              	.LVL98:
 1057 022c ECE7     		b	.L144
 1058              	.L159:
 1059              		.loc 1 474 0
 1060 022e 0F4B     		ldr	r3, .L161+24
 1061 0230 5A6C     		ldr	r2, [r3, #68]
 1062 0232 42F48032 		orr	r2, r2, #65536
 1063 0236 5A64     		str	r2, [r3, #68]
 1064              		.loc 1 475 0
 1065 0238 596A     		ldr	r1, [r3, #36]
 1066 023a 0022     		movs	r2, #0
 1067 023c 41F48031 		orr	r1, r1, #65536
ARM GAS  /tmp/cc9hFd7n.s 			page 20


 1068 0240 5962     		str	r1, [r3, #36]
 1069              		.loc 1 476 0
 1070 0242 1820     		movs	r0, #24
 1071              		.loc 1 475 0
 1072 0244 5A62     		str	r2, [r3, #36]
 1073              		.loc 1 476 0
 1074 0246 7021     		movs	r1, #112
 1075 0248 FFF7FEFF 		bl	nvicEnableVector
 1076              	.LVL99:
 1077              		.loc 1 478 0
 1078 024c 094B     		ldr	r3, .L161+32
 1079 024e E360     		str	r3, [r4, #12]
 1080 0250 79E7     		b	.L98
 1081              	.L162:
 1082 0252 00BF     		.align	2
 1083              	.L161:
 1084 0254 00000000 		.word	.LANCHOR0
 1085 0258 00000000 		.word	.LANCHOR4
 1086 025c 00000000 		.word	.LANCHOR1
 1087 0260 00000000 		.word	.LANCHOR2
 1088 0264 00000000 		.word	.LANCHOR3
 1089 0268 00000000 		.word	.LANCHOR5
 1090 026c 00380240 		.word	1073887232
 1091 0270 007A030A 		.word	168000000
 1092 0274 00BD0105 		.word	84000000
 1093              		.cfi_endproc
 1094              	.LFE128:
 1095              		.size	pwm_lld_start, .-pwm_lld_start
 1096 0278 AFF30080 		.section	.text.pwm_lld_stop,"ax",%progbits
 1096      AFF30080 
 1097              		.align	2
 1098              		.p2align 4,,15
 1099              		.global	pwm_lld_stop
 1100              		.thumb
 1101              		.thumb_func
 1102              		.type	pwm_lld_stop, %function
 1103              	pwm_lld_stop:
 1104              	.LFB129:
 1105              		.loc 1 605 0
 1106              		.cfi_startproc
 1107              		@ args = 0, pretend = 0, frame = 0
 1108              		@ frame_needed = 0, uses_anonymous_args = 0
 1109              	.LVL100:
 1110              		.loc 1 608 0
 1111 0000 0378     		ldrb	r3, [r0]	@ zero_extendqisi2
 1112 0002 022B     		cmp	r3, #2
 1113              		.loc 1 605 0
 1114 0004 10B5     		push	{r4, lr}
 1115              		.cfi_def_cfa_offset 8
 1116              		.cfi_offset 4, -8
 1117              		.cfi_offset 14, -4
 1118              		.loc 1 605 0
 1119 0006 0446     		mov	r4, r0
 1120              		.loc 1 608 0
 1121 0008 00D0     		beq	.L173
 1122              	.LVL101:
 1123              	.L163:
ARM GAS  /tmp/cc9hFd7n.s 			page 21


 1124 000a 10BD     		pop	{r4, pc}
 1125              	.LVL102:
 1126              	.L173:
 1127              		.loc 1 617 0
 1128 000c 2949     		ldr	r1, .L179
 1129              		.loc 1 609 0
 1130 000e 0369     		ldr	r3, [r0, #16]
 1131 0010 0022     		movs	r2, #0
 1132              		.loc 1 617 0
 1133 0012 8842     		cmp	r0, r1
 1134              		.loc 1 609 0
 1135 0014 1A60     		str	r2, [r3]
 1136              		.loc 1 610 0
 1137 0016 DA60     		str	r2, [r3, #12]
 1138              		.loc 1 611 0
 1139 0018 1A61     		str	r2, [r3, #16]
 1140              		.loc 1 613 0
 1141 001a 5A64     		str	r2, [r3, #68]
 1142              		.loc 1 617 0
 1143 001c 17D0     		beq	.L174
 1144              		.loc 1 624 0
 1145 001e 264B     		ldr	r3, .L179+4
 1146 0020 9842     		cmp	r0, r3
 1147 0022 20D0     		beq	.L175
 1148              		.loc 1 630 0
 1149 0024 254B     		ldr	r3, .L179+8
 1150 0026 9842     		cmp	r0, r3
 1151 0028 26D0     		beq	.L176
 1152              		.loc 1 636 0
 1153 002a 254B     		ldr	r3, .L179+12
 1154 002c 9842     		cmp	r0, r3
 1155 002e 2CD0     		beq	.L177
 1156              		.loc 1 648 0
 1157 0030 244B     		ldr	r3, .L179+16
 1158 0032 9842     		cmp	r0, r3
 1159 0034 32D0     		beq	.L178
 1160              	.LVL103:
 1161              	.L172:
 1162              		.loc 1 655 0
 1163 0036 244B     		ldr	r3, .L179+20
 1164 0038 9C42     		cmp	r4, r3
 1165 003a E6D1     		bne	.L163
 1166              		.loc 1 656 0
 1167 003c 1820     		movs	r0, #24
 1168 003e FFF7FEFF 		bl	nvicDisableVector
 1169              	.LVL104:
 1170              		.loc 1 657 0
 1171 0042 224B     		ldr	r3, .L179+24
 1172 0044 5A6C     		ldr	r2, [r3, #68]
 1173 0046 22F48032 		bic	r2, r2, #65536
 1174 004a 5A64     		str	r2, [r3, #68]
 1175 004c DDE7     		b	.L163
 1176              	.LVL105:
 1177              	.L174:
 1178              		.loc 1 618 0
 1179 004e 1920     		movs	r0, #25
 1180              	.LVL106:
ARM GAS  /tmp/cc9hFd7n.s 			page 22


 1181 0050 FFF7FEFF 		bl	nvicDisableVector
 1182              	.LVL107:
 1183              		.loc 1 619 0
 1184 0054 1B20     		movs	r0, #27
 1185 0056 FFF7FEFF 		bl	nvicDisableVector
 1186              	.LVL108:
 1187              		.loc 1 620 0
 1188 005a 1C4B     		ldr	r3, .L179+24
 1189 005c 5A6C     		ldr	r2, [r3, #68]
 1190 005e 22F00102 		bic	r2, r2, #1
 1191 0062 5A64     		str	r2, [r3, #68]
 1192 0064 E7E7     		b	.L172
 1193              	.LVL109:
 1194              	.L175:
 1195              		.loc 1 625 0
 1196 0066 1C20     		movs	r0, #28
 1197              	.LVL110:
 1198 0068 FFF7FEFF 		bl	nvicDisableVector
 1199              	.LVL111:
 1200              		.loc 1 626 0
 1201 006c 174B     		ldr	r3, .L179+24
 1202 006e 1A6C     		ldr	r2, [r3, #64]
 1203 0070 22F00102 		bic	r2, r2, #1
 1204 0074 1A64     		str	r2, [r3, #64]
 1205 0076 DEE7     		b	.L172
 1206              	.LVL112:
 1207              	.L176:
 1208              		.loc 1 631 0
 1209 0078 1D20     		movs	r0, #29
 1210              	.LVL113:
 1211 007a FFF7FEFF 		bl	nvicDisableVector
 1212              	.LVL114:
 1213              		.loc 1 632 0
 1214 007e 134B     		ldr	r3, .L179+24
 1215 0080 1A6C     		ldr	r2, [r3, #64]
 1216 0082 22F00202 		bic	r2, r2, #2
 1217 0086 1A64     		str	r2, [r3, #64]
 1218 0088 10BD     		pop	{r4, pc}
 1219              	.LVL115:
 1220              	.L177:
 1221              		.loc 1 637 0
 1222 008a 1E20     		movs	r0, #30
 1223              	.LVL116:
 1224 008c FFF7FEFF 		bl	nvicDisableVector
 1225              	.LVL117:
 1226              		.loc 1 638 0
 1227 0090 0E4B     		ldr	r3, .L179+24
 1228 0092 1A6C     		ldr	r2, [r3, #64]
 1229 0094 22F00402 		bic	r2, r2, #4
 1230 0098 1A64     		str	r2, [r3, #64]
 1231 009a 10BD     		pop	{r4, pc}
 1232              	.LVL118:
 1233              	.L178:
 1234              		.loc 1 649 0
 1235 009c 2C20     		movs	r0, #44
 1236              	.LVL119:
 1237 009e FFF7FEFF 		bl	nvicDisableVector
ARM GAS  /tmp/cc9hFd7n.s 			page 23


 1238              	.LVL120:
 1239              		.loc 1 650 0
 1240 00a2 2E20     		movs	r0, #46
 1241 00a4 FFF7FEFF 		bl	nvicDisableVector
 1242              	.LVL121:
 1243              		.loc 1 651 0
 1244 00a8 084B     		ldr	r3, .L179+24
 1245 00aa 5A6C     		ldr	r2, [r3, #68]
 1246 00ac 22F00202 		bic	r2, r2, #2
 1247 00b0 5A64     		str	r2, [r3, #68]
 1248 00b2 10BD     		pop	{r4, pc}
 1249              	.LVL122:
 1250              	.L180:
 1251              		.align	2
 1252              	.L179:
 1253 00b4 00000000 		.word	.LANCHOR0
 1254 00b8 00000000 		.word	.LANCHOR1
 1255 00bc 00000000 		.word	.LANCHOR2
 1256 00c0 00000000 		.word	.LANCHOR3
 1257 00c4 00000000 		.word	.LANCHOR4
 1258 00c8 00000000 		.word	.LANCHOR5
 1259 00cc 00380240 		.word	1073887232
 1260              		.cfi_endproc
 1261              	.LFE129:
 1262              		.size	pwm_lld_stop, .-pwm_lld_stop
 1263              		.section	.text.pwm_lld_enable_channel,"ax",%progbits
 1264              		.align	2
 1265              		.p2align 4,,15
 1266              		.global	pwm_lld_enable_channel
 1267              		.thumb
 1268              		.thumb_func
 1269              		.type	pwm_lld_enable_channel, %function
 1270              	pwm_lld_enable_channel:
 1271              	.LFB130:
 1272              		.loc 1 677 0
 1273              		.cfi_startproc
 1274              		@ args = 0, pretend = 0, frame = 0
 1275              		@ frame_needed = 0, uses_anonymous_args = 0
 1276              		@ link register save eliminated.
 1277              	.LVL123:
 1278 0000 10B4     		push	{r4}
 1279              		.cfi_def_cfa_offset 4
 1280              		.cfi_offset 4, -4
 1281              		.loc 1 682 0
 1282 0002 4468     		ldr	r4, [r0, #4]
 1283              		.loc 1 679 0
 1284 0004 0369     		ldr	r3, [r0, #16]
 1285              		.loc 1 682 0
 1286 0006 04EBC100 		add	r0, r4, r1, lsl #3
 1287              	.LVL124:
 1288              		.loc 1 679 0
 1289 000a 01F10C04 		add	r4, r1, #12
 1290              		.loc 1 682 0
 1291 000e 0069     		ldr	r0, [r0, #16]
 1292              		.loc 1 679 0
 1293 0010 03EB8404 		add	r4, r3, r4, lsl #2
 1294 0014 6260     		str	r2, [r4, #4]
ARM GAS  /tmp/cc9hFd7n.s 			page 24


 1295              		.loc 1 682 0
 1296 0016 48B1     		cbz	r0, .L181
 1297              	.LBB2:
 1298              		.loc 1 686 0
 1299 0018 0220     		movs	r0, #2
 1300              		.loc 1 683 0
 1301 001a DA68     		ldr	r2, [r3, #12]
 1302              	.LVL125:
 1303              		.loc 1 686 0
 1304 001c 00FA01F1 		lsl	r1, r0, r1
 1305              	.LVL126:
 1306 0020 1142     		tst	r1, r2
 1307 0022 03D1     		bne	.L181
 1308              		.loc 1 687 0
 1309 0024 0A43     		orrs	r2, r2, r1
 1310              	.LVL127:
 1311              		.loc 1 688 0
 1312 0026 C943     		mvns	r1, r1
 1313              		.loc 1 687 0
 1314 0028 DA60     		str	r2, [r3, #12]
 1315              		.loc 1 688 0
 1316 002a 1961     		str	r1, [r3, #16]
 1317              	.L181:
 1318              	.LBE2:
 1319              		.loc 1 691 0
 1320 002c 5DF8044B 		ldr	r4, [sp], #4
 1321 0030 7047     		bx	lr
 1322              		.cfi_endproc
 1323              	.LFE130:
 1324              		.size	pwm_lld_enable_channel, .-pwm_lld_enable_channel
 1325 0032 00BFAFF3 		.section	.text.pwm_lld_disable_channel,"ax",%progbits
 1325      0080AFF3 
 1325      0080AFF3 
 1325      0080
 1326              		.align	2
 1327              		.p2align 4,,15
 1328              		.global	pwm_lld_disable_channel
 1329              		.thumb
 1330              		.thumb_func
 1331              		.type	pwm_lld_disable_channel, %function
 1332              	pwm_lld_disable_channel:
 1333              	.LFB131:
 1334              		.loc 1 705 0
 1335              		.cfi_startproc
 1336              		@ args = 0, pretend = 0, frame = 0
 1337              		@ frame_needed = 0, uses_anonymous_args = 0
 1338              		@ link register save eliminated.
 1339              	.LVL128:
 1340              		.loc 1 707 0
 1341 0000 0369     		ldr	r3, [r0, #16]
 1342 0002 01F10C02 		add	r2, r1, #12
 1343 0006 03EB8202 		add	r2, r3, r2, lsl #2
 1344 000a 0020     		movs	r0, #0
 1345              	.LVL129:
 1346 000c 5060     		str	r0, [r2, #4]
 1347              		.loc 1 708 0
 1348 000e DA68     		ldr	r2, [r3, #12]
ARM GAS  /tmp/cc9hFd7n.s 			page 25


 1349 0010 0220     		movs	r0, #2
 1350 0012 00FA01F1 		lsl	r1, r0, r1
 1351              	.LVL130:
 1352 0016 22EA0101 		bic	r1, r2, r1
 1353 001a D960     		str	r1, [r3, #12]
 1354 001c 7047     		bx	lr
 1355              		.cfi_endproc
 1356              	.LFE131:
 1357              		.size	pwm_lld_disable_channel, .-pwm_lld_disable_channel
 1358              		.global	PWMD9
 1359              		.global	PWMD8
 1360              		.global	PWMD4
 1361              		.global	PWMD3
 1362              		.global	PWMD2
 1363              		.global	PWMD1
 1364 001e 00BF     		.section	.bss.PWMD1,"aw",%nobits
 1365              		.align	2
 1366              		.set	.LANCHOR0,. + 0
 1367              		.type	PWMD1, %object
 1368              		.size	PWMD1, 20
 1369              	PWMD1:
 1370 0000 00000000 		.space	20
 1370      00000000 
 1370      00000000 
 1370      00000000 
 1370      00000000 
 1371              		.section	.bss.PWMD2,"aw",%nobits
 1372              		.align	2
 1373              		.set	.LANCHOR1,. + 0
 1374              		.type	PWMD2, %object
 1375              		.size	PWMD2, 20
 1376              	PWMD2:
 1377 0000 00000000 		.space	20
 1377      00000000 
 1377      00000000 
 1377      00000000 
 1377      00000000 
 1378              		.section	.bss.PWMD3,"aw",%nobits
 1379              		.align	2
 1380              		.set	.LANCHOR2,. + 0
 1381              		.type	PWMD3, %object
 1382              		.size	PWMD3, 20
 1383              	PWMD3:
 1384 0000 00000000 		.space	20
 1384      00000000 
 1384      00000000 
 1384      00000000 
 1384      00000000 
 1385              		.section	.bss.PWMD4,"aw",%nobits
 1386              		.align	2
 1387              		.set	.LANCHOR3,. + 0
 1388              		.type	PWMD4, %object
 1389              		.size	PWMD4, 20
 1390              	PWMD4:
 1391 0000 00000000 		.space	20
 1391      00000000 
 1391      00000000 
ARM GAS  /tmp/cc9hFd7n.s 			page 26


 1391      00000000 
 1391      00000000 
 1392              		.section	.bss.PWMD8,"aw",%nobits
 1393              		.align	2
 1394              		.set	.LANCHOR4,. + 0
 1395              		.type	PWMD8, %object
 1396              		.size	PWMD8, 20
 1397              	PWMD8:
 1398 0000 00000000 		.space	20
 1398      00000000 
 1398      00000000 
 1398      00000000 
 1398      00000000 
 1399              		.section	.bss.PWMD9,"aw",%nobits
 1400              		.align	2
 1401              		.set	.LANCHOR5,. + 0
 1402              		.type	PWMD9, %object
 1403              		.size	PWMD9, 20
 1404              	PWMD9:
 1405 0000 00000000 		.space	20
 1405      00000000 
 1405      00000000 
 1405      00000000 
 1405      00000000 
 1406              		.text
 1407              	.Letext0:
 1408              		.file 2 "/usr/arm-none-eabi/include/stdint.h"
 1409              		.file 3 "../AithonLibrary/ChibiOS/os/hal/platforms/STM32F4xx/stm32f4xx.h"
 1410              		.file 4 "../AithonLibrary/ChibiOS/os/hal/include/pwm.h"
 1411              		.file 5 "../AithonLibrary/ChibiOS/os/hal/platforms/STM32/TIMv1/pwm_lld.h"
 1412              		.file 6 "../AithonLibrary/ChibiOS/os/hal/platforms/STM32/TIMv1/stm32_tim.h"
 1413              		.file 7 "../AithonLibrary/ChibiOS/os/ports/common/ARMCMx/CMSIS/include/core_cm4.h"
 1414              		.file 8 "../AithonLibrary/ChibiOS/os/ports/common/ARMCMx/nvic.h"
 1415              		.file 9 "../AithonLibrary/ChibiOS/os/ports/GCC/ARMCMx/chcore_v7m.h"
 1416              		.section	.debug_info,"",%progbits
 1417              	.Ldebug_info0:
 1418 0000 CE0D0000 		.4byte	0xdce
 1419 0004 0400     		.2byte	0x4
 1420 0006 00000000 		.4byte	.Ldebug_abbrev0
 1421 000a 04       		.byte	0x4
 1422 000b 01       		.uleb128 0x1
 1423 000c 4E030000 		.4byte	.LASF201
 1424 0010 01       		.byte	0x1
 1425 0011 3C050000 		.4byte	.LASF202
 1426 0015 3C000000 		.4byte	.LASF203
 1427 0019 00000000 		.4byte	.Ldebug_ranges0+0
 1428 001d 00000000 		.4byte	0
 1429 0021 00000000 		.4byte	.Ldebug_line0
 1430 0025 02       		.uleb128 0x2
 1431 0026 04       		.byte	0x4
 1432 0027 07       		.byte	0x7
 1433 0028 1D030000 		.4byte	.LASF0
 1434 002c 03       		.uleb128 0x3
 1435 002d 04       		.byte	0x4
 1436 002e 05       		.byte	0x5
 1437 002f 696E7400 		.ascii	"int\000"
 1438 0033 02       		.uleb128 0x2
ARM GAS  /tmp/cc9hFd7n.s 			page 27


 1439 0034 01       		.byte	0x1
 1440 0035 06       		.byte	0x6
 1441 0036 79010000 		.4byte	.LASF1
 1442 003a 04       		.uleb128 0x4
 1443 003b A1090000 		.4byte	.LASF4
 1444 003f 02       		.byte	0x2
 1445 0040 2A       		.byte	0x2a
 1446 0041 45000000 		.4byte	0x45
 1447 0045 02       		.uleb128 0x2
 1448 0046 01       		.byte	0x1
 1449 0047 08       		.byte	0x8
 1450 0048 21070000 		.4byte	.LASF2
 1451 004c 02       		.uleb128 0x2
 1452 004d 02       		.byte	0x2
 1453 004e 05       		.byte	0x5
 1454 004f 68070000 		.4byte	.LASF3
 1455 0053 04       		.uleb128 0x4
 1456 0054 58020000 		.4byte	.LASF5
 1457 0058 02       		.byte	0x2
 1458 0059 36       		.byte	0x36
 1459 005a 5E000000 		.4byte	0x5e
 1460 005e 02       		.uleb128 0x2
 1461 005f 02       		.byte	0x2
 1462 0060 07       		.byte	0x7
 1463 0061 A8070000 		.4byte	.LASF6
 1464 0065 04       		.uleb128 0x4
 1465 0066 19070000 		.4byte	.LASF7
 1466 006a 02       		.byte	0x2
 1467 006b 4F       		.byte	0x4f
 1468 006c 70000000 		.4byte	0x70
 1469 0070 02       		.uleb128 0x2
 1470 0071 04       		.byte	0x4
 1471 0072 05       		.byte	0x5
 1472 0073 E8010000 		.4byte	.LASF8
 1473 0077 04       		.uleb128 0x4
 1474 0078 0B080000 		.4byte	.LASF9
 1475 007c 02       		.byte	0x2
 1476 007d 50       		.byte	0x50
 1477 007e 82000000 		.4byte	0x82
 1478 0082 02       		.uleb128 0x2
 1479 0083 04       		.byte	0x4
 1480 0084 07       		.byte	0x7
 1481 0085 8C040000 		.4byte	.LASF10
 1482 0089 02       		.uleb128 0x2
 1483 008a 08       		.byte	0x8
 1484 008b 05       		.byte	0x5
 1485 008c 3C020000 		.4byte	.LASF11
 1486 0090 02       		.uleb128 0x2
 1487 0091 08       		.byte	0x8
 1488 0092 07       		.byte	0x7
 1489 0093 DC000000 		.4byte	.LASF12
 1490 0097 02       		.uleb128 0x2
 1491 0098 01       		.byte	0x1
 1492 0099 02       		.byte	0x2
 1493 009a 13070000 		.4byte	.LASF13
 1494 009e 05       		.uleb128 0x5
 1495 009f 77000000 		.4byte	0x77
ARM GAS  /tmp/cc9hFd7n.s 			page 28


 1496 00a3 02       		.uleb128 0x2
 1497 00a4 04       		.byte	0x4
 1498 00a5 07       		.byte	0x7
 1499 00a6 E6050000 		.4byte	.LASF14
 1500 00aa 02       		.uleb128 0x2
 1501 00ab 01       		.byte	0x1
 1502 00ac 08       		.byte	0x8
 1503 00ad 7E080000 		.4byte	.LASF15
 1504 00b1 06       		.uleb128 0x6
 1505 00b2 E1050000 		.4byte	.LASF204
 1506 00b6 01       		.byte	0x1
 1507 00b7 03       		.byte	0x3
 1508 00b8 AA       		.byte	0xaa
 1509 00b9 1D030000 		.4byte	0x31d
 1510 00bd 07       		.uleb128 0x7
 1511 00be CD080000 		.4byte	.LASF16
 1512 00c2 72       		.sleb128 -14
 1513 00c3 07       		.uleb128 0x7
 1514 00c4 69040000 		.4byte	.LASF17
 1515 00c8 74       		.sleb128 -12
 1516 00c9 07       		.uleb128 0x7
 1517 00ca DC020000 		.4byte	.LASF18
 1518 00ce 75       		.sleb128 -11
 1519 00cf 07       		.uleb128 0x7
 1520 00d0 20080000 		.4byte	.LASF19
 1521 00d4 76       		.sleb128 -10
 1522 00d5 07       		.uleb128 0x7
 1523 00d6 D6040000 		.4byte	.LASF20
 1524 00da 7B       		.sleb128 -5
 1525 00db 07       		.uleb128 0x7
 1526 00dc 12090000 		.4byte	.LASF21
 1527 00e0 7C       		.sleb128 -4
 1528 00e1 07       		.uleb128 0x7
 1529 00e2 93020000 		.4byte	.LASF22
 1530 00e6 7E       		.sleb128 -2
 1531 00e7 07       		.uleb128 0x7
 1532 00e8 A4050000 		.4byte	.LASF23
 1533 00ec 7F       		.sleb128 -1
 1534 00ed 07       		.uleb128 0x7
 1535 00ee 2C010000 		.4byte	.LASF24
 1536 00f2 00       		.sleb128 0
 1537 00f3 07       		.uleb128 0x7
 1538 00f4 25000000 		.4byte	.LASF25
 1539 00f8 01       		.sleb128 1
 1540 00f9 07       		.uleb128 0x7
 1541 00fa F1080000 		.4byte	.LASF26
 1542 00fe 02       		.sleb128 2
 1543 00ff 07       		.uleb128 0x7
 1544 0100 1E010000 		.4byte	.LASF27
 1545 0104 03       		.sleb128 3
 1546 0105 07       		.uleb128 0x7
 1547 0106 E7070000 		.4byte	.LASF28
 1548 010a 04       		.sleb128 4
 1549 010b 07       		.uleb128 0x7
 1550 010c 910A0000 		.4byte	.LASF29
 1551 0110 05       		.sleb128 5
 1552 0111 07       		.uleb128 0x7
ARM GAS  /tmp/cc9hFd7n.s 			page 29


 1553 0112 68090000 		.4byte	.LASF30
 1554 0116 06       		.sleb128 6
 1555 0117 07       		.uleb128 0x7
 1556 0118 B50A0000 		.4byte	.LASF31
 1557 011c 07       		.sleb128 7
 1558 011d 07       		.uleb128 0x7
 1559 011e BB070000 		.4byte	.LASF32
 1560 0122 08       		.sleb128 8
 1561 0123 07       		.uleb128 0x7
 1562 0124 45060000 		.4byte	.LASF33
 1563 0128 09       		.sleb128 9
 1564 0129 07       		.uleb128 0x7
 1565 012a 4F070000 		.4byte	.LASF34
 1566 012e 0A       		.sleb128 10
 1567 012f 07       		.uleb128 0x7
 1568 0130 C50A0000 		.4byte	.LASF35
 1569 0134 0B       		.sleb128 11
 1570 0135 07       		.uleb128 0x7
 1571 0136 A8080000 		.4byte	.LASF36
 1572 013a 0C       		.sleb128 12
 1573 013b 07       		.uleb128 0x7
 1574 013c 5A060000 		.4byte	.LASF37
 1575 0140 0D       		.sleb128 13
 1576 0141 07       		.uleb128 0x7
 1577 0142 2A030000 		.4byte	.LASF38
 1578 0146 0E       		.sleb128 14
 1579 0147 07       		.uleb128 0x7
 1580 0148 1D060000 		.4byte	.LASF39
 1581 014c 0F       		.sleb128 15
 1582 014d 07       		.uleb128 0x7
 1583 014e 18020000 		.4byte	.LASF40
 1584 0152 10       		.sleb128 16
 1585 0153 07       		.uleb128 0x7
 1586 0154 3C030000 		.4byte	.LASF41
 1587 0158 11       		.sleb128 17
 1588 0159 07       		.uleb128 0x7
 1589 015a 380A0000 		.4byte	.LASF42
 1590 015e 12       		.sleb128 18
 1591 015f 07       		.uleb128 0x7
 1592 0160 04050000 		.4byte	.LASF43
 1593 0164 13       		.sleb128 19
 1594 0165 07       		.uleb128 0x7
 1595 0166 17000000 		.4byte	.LASF44
 1596 016a 14       		.sleb128 20
 1597 016b 07       		.uleb128 0x7
 1598 016c C4000000 		.4byte	.LASF45
 1599 0170 15       		.sleb128 21
 1600 0171 07       		.uleb128 0x7
 1601 0172 670A0000 		.4byte	.LASF46
 1602 0176 16       		.sleb128 22
 1603 0177 07       		.uleb128 0x7
 1604 0178 2A020000 		.4byte	.LASF47
 1605 017c 17       		.sleb128 23
 1606 017d 07       		.uleb128 0x7
 1607 017e 2F070000 		.4byte	.LASF48
 1608 0182 18       		.sleb128 24
 1609 0183 07       		.uleb128 0x7
ARM GAS  /tmp/cc9hFd7n.s 			page 30


 1610 0184 F8050000 		.4byte	.LASF49
 1611 0188 19       		.sleb128 25
 1612 0189 07       		.uleb128 0x7
 1613 018a 87070000 		.4byte	.LASF50
 1614 018e 1A       		.sleb128 26
 1615 018f 07       		.uleb128 0x7
 1616 0190 B1050000 		.4byte	.LASF51
 1617 0194 1B       		.sleb128 27
 1618 0195 07       		.uleb128 0x7
 1619 0196 5E090000 		.4byte	.LASF52
 1620 019a 1C       		.sleb128 28
 1621 019b 07       		.uleb128 0x7
 1622 019c AB0A0000 		.4byte	.LASF53
 1623 01a0 1D       		.sleb128 29
 1624 01a1 07       		.uleb128 0x7
 1625 01a2 14010000 		.4byte	.LASF54
 1626 01a6 1E       		.sleb128 30
 1627 01a7 07       		.uleb128 0x7
 1628 01a8 8F000000 		.4byte	.LASF55
 1629 01ac 1F       		.sleb128 31
 1630 01ad 07       		.uleb128 0x7
 1631 01ae 1E0A0000 		.4byte	.LASF56
 1632 01b2 20       		.sleb128 32
 1633 01b3 07       		.uleb128 0x7
 1634 01b4 3F090000 		.4byte	.LASF57
 1635 01b8 21       		.sleb128 33
 1636 01b9 07       		.uleb128 0x7
 1637 01ba 07010000 		.4byte	.LASF58
 1638 01be 22       		.sleb128 34
 1639 01bf 07       		.uleb128 0x7
 1640 01c0 29050000 		.4byte	.LASF59
 1641 01c4 23       		.sleb128 35
 1642 01c5 07       		.uleb128 0x7
 1643 01c6 50060000 		.4byte	.LASF60
 1644 01ca 24       		.sleb128 36
 1645 01cb 07       		.uleb128 0x7
 1646 01cc 7D090000 		.4byte	.LASF61
 1647 01d0 25       		.sleb128 37
 1648 01d1 07       		.uleb128 0x7
 1649 01d2 14080000 		.4byte	.LASF62
 1650 01d6 26       		.sleb128 38
 1651 01d7 07       		.uleb128 0x7
 1652 01d8 4C090000 		.4byte	.LASF63
 1653 01dc 27       		.sleb128 39
 1654 01dd 07       		.uleb128 0x7
 1655 01de 1A050000 		.4byte	.LASF64
 1656 01e2 28       		.sleb128 40
 1657 01e3 07       		.uleb128 0x7
 1658 01e4 F8000000 		.4byte	.LASF65
 1659 01e8 29       		.sleb128 41
 1660 01e9 07       		.uleb128 0x7
 1661 01ea 82020000 		.4byte	.LASF66
 1662 01ee 2A       		.sleb128 42
 1663 01ef 07       		.uleb128 0x7
 1664 01f0 8B050000 		.4byte	.LASF67
 1665 01f4 2B       		.sleb128 43
 1666 01f5 07       		.uleb128 0x7
ARM GAS  /tmp/cc9hFd7n.s 			page 31


 1667 01f6 9F020000 		.4byte	.LASF68
 1668 01fa 2C       		.sleb128 44
 1669 01fb 07       		.uleb128 0x7
 1670 01fc BE050000 		.4byte	.LASF69
 1671 0200 2D       		.sleb128 45
 1672 0201 07       		.uleb128 0x7
 1673 0202 F0020000 		.4byte	.LASF70
 1674 0206 2E       		.sleb128 46
 1675 0207 07       		.uleb128 0x7
 1676 0208 4C080000 		.4byte	.LASF71
 1677 020c 2F       		.sleb128 47
 1678 020d 07       		.uleb128 0x7
 1679 020e 9F070000 		.4byte	.LASF72
 1680 0212 30       		.sleb128 48
 1681 0213 07       		.uleb128 0x7
 1682 0214 C6040000 		.4byte	.LASF73
 1683 0218 31       		.sleb128 49
 1684 0219 07       		.uleb128 0x7
 1685 021a 3B060000 		.4byte	.LASF74
 1686 021e 32       		.sleb128 50
 1687 021f 07       		.uleb128 0x7
 1688 0220 F7060000 		.4byte	.LASF75
 1689 0224 33       		.sleb128 51
 1690 0225 07       		.uleb128 0x7
 1691 0226 77020000 		.4byte	.LASF76
 1692 022a 34       		.sleb128 52
 1693 022b 07       		.uleb128 0x7
 1694 022c 7C070000 		.4byte	.LASF77
 1695 0230 35       		.sleb128 53
 1696 0231 07       		.uleb128 0x7
 1697 0232 61020000 		.4byte	.LASF78
 1698 0236 36       		.sleb128 54
 1699 0237 07       		.uleb128 0x7
 1700 0238 9E080000 		.4byte	.LASF79
 1701 023c 37       		.sleb128 55
 1702 023d 07       		.uleb128 0x7
 1703 023e 24090000 		.4byte	.LASF80
 1704 0242 38       		.sleb128 56
 1705 0243 07       		.uleb128 0x7
 1706 0244 410A0000 		.4byte	.LASF81
 1707 0248 39       		.sleb128 57
 1708 0249 07       		.uleb128 0x7
 1709 024a E7040000 		.4byte	.LASF82
 1710 024e 3A       		.sleb128 58
 1711 024f 07       		.uleb128 0x7
 1712 0250 0B060000 		.4byte	.LASF83
 1713 0254 3B       		.sleb128 59
 1714 0255 07       		.uleb128 0x7
 1715 0256 01070000 		.4byte	.LASF84
 1716 025a 3C       		.sleb128 60
 1717 025b 07       		.uleb128 0x7
 1718 025c EF050000 		.4byte	.LASF85
 1719 0260 3D       		.sleb128 61
 1720 0261 07       		.uleb128 0x7
 1721 0262 4A020000 		.4byte	.LASF86
 1722 0266 3E       		.sleb128 62
 1723 0267 07       		.uleb128 0x7
ARM GAS  /tmp/cc9hFd7n.s 			page 32


 1724 0268 6C060000 		.4byte	.LASF87
 1725 026c 3F       		.sleb128 63
 1726 026d 07       		.uleb128 0x7
 1727 026e 2E000000 		.4byte	.LASF88
 1728 0272 C000     		.sleb128 64
 1729 0274 07       		.uleb128 0x7
 1730 0275 85010000 		.4byte	.LASF89
 1731 0279 C100     		.sleb128 65
 1732 027b 07       		.uleb128 0x7
 1733 027c 830A0000 		.4byte	.LASF90
 1734 0280 C200     		.sleb128 66
 1735 0282 07       		.uleb128 0x7
 1736 0283 FF070000 		.4byte	.LASF91
 1737 0287 C300     		.sleb128 67
 1738 0289 07       		.uleb128 0x7
 1739 028a 9C000000 		.4byte	.LASF92
 1740 028e C400     		.sleb128 68
 1741 0290 07       		.uleb128 0x7
 1742 0291 B2010000 		.4byte	.LASF93
 1743 0295 C500     		.sleb128 69
 1744 0297 07       		.uleb128 0x7
 1745 0298 06030000 		.4byte	.LASF94
 1746 029c C600     		.sleb128 70
 1747 029e 07       		.uleb128 0x7
 1748 029f 2F060000 		.4byte	.LASF95
 1749 02a3 C700     		.sleb128 71
 1750 02a5 07       		.uleb128 0x7
 1751 02a6 7F040000 		.4byte	.LASF96
 1752 02aa C800     		.sleb128 72
 1753 02ac 07       		.uleb128 0x7
 1754 02ad 77000000 		.4byte	.LASF97
 1755 02b1 C900     		.sleb128 73
 1756 02b3 07       		.uleb128 0x7
 1757 02b4 B2040000 		.4byte	.LASF98
 1758 02b8 CA00     		.sleb128 74
 1759 02ba 07       		.uleb128 0x7
 1760 02bb BA080000 		.4byte	.LASF99
 1761 02bf CB00     		.sleb128 75
 1762 02c1 07       		.uleb128 0x7
 1763 02c2 9A0A0000 		.4byte	.LASF100
 1764 02c6 CC00     		.sleb128 76
 1765 02c8 07       		.uleb128 0x7
 1766 02c9 8C060000 		.4byte	.LASF101
 1767 02cd CD00     		.sleb128 77
 1768 02cf 07       		.uleb128 0x7
 1769 02d0 B3090000 		.4byte	.LASF102
 1770 02d4 CE00     		.sleb128 78
 1771 02d6 07       		.uleb128 0x7
 1772 02d7 88080000 		.4byte	.LASF103
 1773 02db CF00     		.sleb128 79
 1774 02dd 07       		.uleb128 0x7
 1775 02de 5A070000 		.4byte	.LASF104
 1776 02e2 D000     		.sleb128 80
 1777 02e4 07       		.uleb128 0x7
 1778 02e5 F2090000 		.4byte	.LASF105
 1779 02e9 D100     		.sleb128 81
 1780 02eb 07       		.uleb128 0x7
ARM GAS  /tmp/cc9hFd7n.s 			page 33


 1781 02ec D1090000 		.4byte	.LASF106
 1782 02f0 D200     		.sleb128 82
 1783 02f2 07       		.uleb128 0x7
 1784 02f3 84000000 		.4byte	.LASF107
 1785 02f7 D300     		.sleb128 83
 1786 02f9 07       		.uleb128 0x7
 1787 02fa D2000000 		.4byte	.LASF108
 1788 02fe D400     		.sleb128 84
 1789 0300 07       		.uleb128 0x7
 1790 0301 0E020000 		.4byte	.LASF109
 1791 0305 D500     		.sleb128 85
 1792 0307 07       		.uleb128 0x7
 1793 0308 A8040000 		.4byte	.LASF110
 1794 030c D600     		.sleb128 86
 1795 030e 07       		.uleb128 0x7
 1796 030f 9E040000 		.4byte	.LASF111
 1797 0313 D700     		.sleb128 87
 1798 0315 07       		.uleb128 0x7
 1799 0316 D6050000 		.4byte	.LASF112
 1800 031a DA00     		.sleb128 90
 1801 031c 00       		.byte	0
 1802 031d 08       		.uleb128 0x8
 1803 031e 77000000 		.4byte	0x77
 1804 0322 2D030000 		.4byte	0x32d
 1805 0326 09       		.uleb128 0x9
 1806 0327 A3000000 		.4byte	0xa3
 1807 032b 01       		.byte	0x1
 1808 032c 00       		.byte	0
 1809 032d 08       		.uleb128 0x8
 1810 032e 77000000 		.4byte	0x77
 1811 0332 3D030000 		.4byte	0x33d
 1812 0336 09       		.uleb128 0x9
 1813 0337 A3000000 		.4byte	0xa3
 1814 033b 03       		.byte	0x3
 1815 033c 00       		.byte	0
 1816 033d 05       		.uleb128 0x5
 1817 033e 65000000 		.4byte	0x65
 1818 0342 0A       		.uleb128 0xa
 1819 0343 90       		.byte	0x90
 1820 0344 03       		.byte	0x3
 1821 0345 5804     		.2byte	0x458
 1822 0347 EB040000 		.4byte	0x4eb
 1823 034b 0B       		.uleb128 0xb
 1824 034c 435200   		.ascii	"CR\000"
 1825 034f 03       		.byte	0x3
 1826 0350 5A04     		.2byte	0x45a
 1827 0352 9E000000 		.4byte	0x9e
 1828 0356 00       		.byte	0
 1829 0357 0C       		.uleb128 0xc
 1830 0358 6F020000 		.4byte	.LASF113
 1831 035c 03       		.byte	0x3
 1832 035d 5B04     		.2byte	0x45b
 1833 035f 9E000000 		.4byte	0x9e
 1834 0363 04       		.byte	0x4
 1835 0364 0C       		.uleb128 0xc
 1836 0365 FB090000 		.4byte	.LASF114
 1837 0369 03       		.byte	0x3
ARM GAS  /tmp/cc9hFd7n.s 			page 34


 1838 036a 5C04     		.2byte	0x45c
 1839 036c 9E000000 		.4byte	0x9e
 1840 0370 08       		.byte	0x8
 1841 0371 0B       		.uleb128 0xb
 1842 0372 43495200 		.ascii	"CIR\000"
 1843 0376 03       		.byte	0x3
 1844 0377 5D04     		.2byte	0x45d
 1845 0379 9E000000 		.4byte	0x9e
 1846 037d 0C       		.byte	0xc
 1847 037e 0C       		.uleb128 0xc
 1848 037f 36090000 		.4byte	.LASF115
 1849 0383 03       		.byte	0x3
 1850 0384 5E04     		.2byte	0x45e
 1851 0386 9E000000 		.4byte	0x9e
 1852 038a 10       		.byte	0x10
 1853 038b 0C       		.uleb128 0xc
 1854 038c D3020000 		.4byte	.LASF116
 1855 0390 03       		.byte	0x3
 1856 0391 5F04     		.2byte	0x45f
 1857 0393 9E000000 		.4byte	0x9e
 1858 0397 14       		.byte	0x14
 1859 0398 0C       		.uleb128 0xc
 1860 0399 11050000 		.4byte	.LASF117
 1861 039d 03       		.byte	0x3
 1862 039e 6004     		.2byte	0x460
 1863 03a0 9E000000 		.4byte	0x9e
 1864 03a4 18       		.byte	0x18
 1865 03a5 0C       		.uleb128 0xc
 1866 03a6 B1060000 		.4byte	.LASF118
 1867 03aa 03       		.byte	0x3
 1868 03ab 6104     		.2byte	0x461
 1869 03ad 77000000 		.4byte	0x77
 1870 03b1 1C       		.byte	0x1c
 1871 03b2 0C       		.uleb128 0xc
 1872 03b3 83060000 		.4byte	.LASF119
 1873 03b7 03       		.byte	0x3
 1874 03b8 6204     		.2byte	0x462
 1875 03ba 9E000000 		.4byte	0x9e
 1876 03be 20       		.byte	0x20
 1877 03bf 0C       		.uleb128 0xc
 1878 03c0 05020000 		.4byte	.LASF120
 1879 03c4 03       		.byte	0x3
 1880 03c5 6304     		.2byte	0x463
 1881 03c7 9E000000 		.4byte	0x9e
 1882 03cb 24       		.byte	0x24
 1883 03cc 0C       		.uleb128 0xc
 1884 03cd BB060000 		.4byte	.LASF121
 1885 03d1 03       		.byte	0x3
 1886 03d2 6404     		.2byte	0x464
 1887 03d4 1D030000 		.4byte	0x31d
 1888 03d8 28       		.byte	0x28
 1889 03d9 0C       		.uleb128 0xc
 1890 03da DC090000 		.4byte	.LASF122
 1891 03de 03       		.byte	0x3
 1892 03df 6504     		.2byte	0x465
 1893 03e1 9E000000 		.4byte	0x9e
 1894 03e5 30       		.byte	0x30
ARM GAS  /tmp/cc9hFd7n.s 			page 35


 1895 03e6 0C       		.uleb128 0xc
 1896 03e7 E9080000 		.4byte	.LASF123
 1897 03eb 03       		.byte	0x3
 1898 03ec 6604     		.2byte	0x466
 1899 03ee 9E000000 		.4byte	0x9e
 1900 03f2 34       		.byte	0x34
 1901 03f3 0C       		.uleb128 0xc
 1902 03f4 D6070000 		.4byte	.LASF124
 1903 03f8 03       		.byte	0x3
 1904 03f9 6704     		.2byte	0x467
 1905 03fb 9E000000 		.4byte	0x9e
 1906 03ff 38       		.byte	0x38
 1907 0400 0C       		.uleb128 0xc
 1908 0401 C5060000 		.4byte	.LASF125
 1909 0405 03       		.byte	0x3
 1910 0406 6804     		.2byte	0x468
 1911 0408 77000000 		.4byte	0x77
 1912 040c 3C       		.byte	0x3c
 1913 040d 0C       		.uleb128 0xc
 1914 040e E1080000 		.4byte	.LASF126
 1915 0412 03       		.byte	0x3
 1916 0413 6904     		.2byte	0x469
 1917 0415 9E000000 		.4byte	0x9e
 1918 0419 40       		.byte	0x40
 1919 041a 0C       		.uleb128 0xc
 1920 041b C6070000 		.4byte	.LASF127
 1921 041f 03       		.byte	0x3
 1922 0420 6A04     		.2byte	0x46a
 1923 0422 9E000000 		.4byte	0x9e
 1924 0426 44       		.byte	0x44
 1925 0427 0C       		.uleb128 0xc
 1926 0428 CF060000 		.4byte	.LASF128
 1927 042c 03       		.byte	0x3
 1928 042d 6B04     		.2byte	0x46b
 1929 042f 1D030000 		.4byte	0x31d
 1930 0433 48       		.byte	0x48
 1931 0434 0C       		.uleb128 0xc
 1932 0435 40010000 		.4byte	.LASF129
 1933 0439 03       		.byte	0x3
 1934 043a 6C04     		.2byte	0x46c
 1935 043c 9E000000 		.4byte	0x9e
 1936 0440 50       		.byte	0x50
 1937 0441 0C       		.uleb128 0xc
 1938 0442 79060000 		.4byte	.LASF130
 1939 0446 03       		.byte	0x3
 1940 0447 6D04     		.2byte	0x46d
 1941 0449 9E000000 		.4byte	0x9e
 1942 044d 54       		.byte	0x54
 1943 044e 0C       		.uleb128 0xc
 1944 044f 72070000 		.4byte	.LASF131
 1945 0453 03       		.byte	0x3
 1946 0454 6E04     		.2byte	0x46e
 1947 0456 9E000000 		.4byte	0x9e
 1948 045a 58       		.byte	0x58
 1949 045b 0C       		.uleb128 0xc
 1950 045c D9060000 		.4byte	.LASF132
 1951 0460 03       		.byte	0x3
ARM GAS  /tmp/cc9hFd7n.s 			page 36


 1952 0461 6F04     		.2byte	0x46f
 1953 0463 77000000 		.4byte	0x77
 1954 0467 5C       		.byte	0x5c
 1955 0468 0C       		.uleb128 0xc
 1956 0469 0D000000 		.4byte	.LASF133
 1957 046d 03       		.byte	0x3
 1958 046e 7004     		.2byte	0x470
 1959 0470 9E000000 		.4byte	0x9e
 1960 0474 60       		.byte	0x60
 1961 0475 0C       		.uleb128 0xc
 1962 0476 7C050000 		.4byte	.LASF134
 1963 047a 03       		.byte	0x3
 1964 047b 7104     		.2byte	0x471
 1965 047d 9E000000 		.4byte	0x9e
 1966 0481 64       		.byte	0x64
 1967 0482 0C       		.uleb128 0xc
 1968 0483 E3060000 		.4byte	.LASF135
 1969 0487 03       		.byte	0x3
 1970 0488 7204     		.2byte	0x472
 1971 048a 1D030000 		.4byte	0x31d
 1972 048e 68       		.byte	0x68
 1973 048f 0C       		.uleb128 0xc
 1974 0490 89090000 		.4byte	.LASF136
 1975 0494 03       		.byte	0x3
 1976 0495 7304     		.2byte	0x473
 1977 0497 9E000000 		.4byte	0x9e
 1978 049b 70       		.byte	0x70
 1979 049c 0B       		.uleb128 0xb
 1980 049d 43535200 		.ascii	"CSR\000"
 1981 04a1 03       		.byte	0x3
 1982 04a2 7404     		.2byte	0x474
 1983 04a4 9E000000 		.4byte	0x9e
 1984 04a8 74       		.byte	0x74
 1985 04a9 0C       		.uleb128 0xc
 1986 04aa ED060000 		.4byte	.LASF137
 1987 04ae 03       		.byte	0x3
 1988 04af 7504     		.2byte	0x475
 1989 04b1 1D030000 		.4byte	0x31d
 1990 04b5 78       		.byte	0x78
 1991 04b6 0C       		.uleb128 0xc
 1992 04b7 58090000 		.4byte	.LASF138
 1993 04bb 03       		.byte	0x3
 1994 04bc 7604     		.2byte	0x476
 1995 04be 9E000000 		.4byte	0x9e
 1996 04c2 80       		.byte	0x80
 1997 04c3 0C       		.uleb128 0xc
 1998 04c4 F9040000 		.4byte	.LASF139
 1999 04c8 03       		.byte	0x3
 2000 04c9 7704     		.2byte	0x477
 2001 04cb 9E000000 		.4byte	0x9e
 2002 04cf 84       		.byte	0x84
 2003 04d0 0C       		.uleb128 0xc
 2004 04d1 98060000 		.4byte	.LASF140
 2005 04d5 03       		.byte	0x3
 2006 04d6 7804     		.2byte	0x478
 2007 04d8 9E000000 		.4byte	0x9e
 2008 04dc 88       		.byte	0x88
ARM GAS  /tmp/cc9hFd7n.s 			page 37


 2009 04dd 0C       		.uleb128 0xc
 2010 04de 6B010000 		.4byte	.LASF141
 2011 04e2 03       		.byte	0x3
 2012 04e3 7904     		.2byte	0x479
 2013 04e5 9E000000 		.4byte	0x9e
 2014 04e9 8C       		.byte	0x8c
 2015 04ea 00       		.byte	0
 2016 04eb 0D       		.uleb128 0xd
 2017 04ec CD010000 		.4byte	.LASF142
 2018 04f0 03       		.byte	0x3
 2019 04f1 7B04     		.2byte	0x47b
 2020 04f3 42030000 		.4byte	0x342
 2021 04f7 0E       		.uleb128 0xe
 2022 04f8 01       		.byte	0x1
 2023 04f9 04       		.byte	0x4
 2024 04fa 55       		.byte	0x55
 2025 04fb 12050000 		.4byte	0x512
 2026 04ff 07       		.uleb128 0x7
 2027 0500 530A0000 		.4byte	.LASF143
 2028 0504 00       		.sleb128 0
 2029 0505 07       		.uleb128 0x7
 2030 0506 75080000 		.4byte	.LASF144
 2031 050a 01       		.sleb128 1
 2032 050b 07       		.uleb128 0x7
 2033 050c 4A010000 		.4byte	.LASF145
 2034 0510 02       		.sleb128 2
 2035 0511 00       		.byte	0
 2036 0512 04       		.uleb128 0x4
 2037 0513 BD090000 		.4byte	.LASF146
 2038 0517 04       		.byte	0x4
 2039 0518 59       		.byte	0x59
 2040 0519 F7040000 		.4byte	0x4f7
 2041 051d 04       		.uleb128 0x4
 2042 051e A9090000 		.4byte	.LASF147
 2043 0522 04       		.byte	0x4
 2044 0523 5E       		.byte	0x5e
 2045 0524 28050000 		.4byte	0x528
 2046 0528 0F       		.uleb128 0xf
 2047 0529 A9090000 		.4byte	.LASF147
 2048 052d 14       		.byte	0x14
 2049 052e 05       		.byte	0x5
 2050 052f 6F01     		.2byte	0x16f
 2051 0531 77050000 		.4byte	0x577
 2052 0535 0C       		.uleb128 0xc
 2053 0536 D9010000 		.4byte	.LASF148
 2054 053a 05       		.byte	0x5
 2055 053b 7301     		.2byte	0x173
 2056 053d 12050000 		.4byte	0x512
 2057 0541 00       		.byte	0
 2058 0542 0C       		.uleb128 0xc
 2059 0543 92080000 		.4byte	.LASF149
 2060 0547 05       		.byte	0x5
 2061 0548 7701     		.2byte	0x177
 2062 054a 98070000 		.4byte	0x798
 2063 054e 04       		.byte	0x4
 2064 054f 0C       		.uleb128 0xc
 2065 0550 B4000000 		.4byte	.LASF150
ARM GAS  /tmp/cc9hFd7n.s 			page 38


 2066 0554 05       		.byte	0x5
 2067 0555 7B01     		.2byte	0x17b
 2068 0557 DB060000 		.4byte	0x6db
 2069 055b 08       		.byte	0x8
 2070 055c 0C       		.uleb128 0xc
 2071 055d 180A0000 		.4byte	.LASF151
 2072 0561 05       		.byte	0x5
 2073 0562 8301     		.2byte	0x183
 2074 0564 77000000 		.4byte	0x77
 2075 0568 0C       		.byte	0xc
 2076 0569 0B       		.uleb128 0xb
 2077 056a 74696D00 		.ascii	"tim\000"
 2078 056e 05       		.byte	0x5
 2079 056f 8701     		.2byte	0x187
 2080 0571 A3070000 		.4byte	0x7a3
 2081 0575 10       		.byte	0x10
 2082 0576 00       		.byte	0
 2083 0577 04       		.uleb128 0x4
 2084 0578 A3060000 		.4byte	.LASF152
 2085 057c 04       		.byte	0x4
 2086 057d 65       		.byte	0x65
 2087 057e 82050000 		.4byte	0x582
 2088 0582 10       		.uleb128 0x10
 2089 0583 04       		.byte	0x4
 2090 0584 88050000 		.4byte	0x588
 2091 0588 11       		.uleb128 0x11
 2092 0589 93050000 		.4byte	0x593
 2093 058d 12       		.uleb128 0x12
 2094 058e 93050000 		.4byte	0x593
 2095 0592 00       		.byte	0
 2096 0593 10       		.uleb128 0x10
 2097 0594 04       		.byte	0x4
 2098 0595 1D050000 		.4byte	0x51d
 2099 0599 0A       		.uleb128 0xa
 2100 059a 60       		.byte	0x60
 2101 059b 06       		.byte	0x6
 2102 059c 9E01     		.2byte	0x19e
 2103 059e B2060000 		.4byte	0x6b2
 2104 05a2 0B       		.uleb128 0xb
 2105 05a3 43523100 		.ascii	"CR1\000"
 2106 05a7 06       		.byte	0x6
 2107 05a8 9F01     		.2byte	0x19f
 2108 05aa 9E000000 		.4byte	0x9e
 2109 05ae 00       		.byte	0
 2110 05af 0B       		.uleb128 0xb
 2111 05b0 43523200 		.ascii	"CR2\000"
 2112 05b4 06       		.byte	0x6
 2113 05b5 A001     		.2byte	0x1a0
 2114 05b7 9E000000 		.4byte	0x9e
 2115 05bb 04       		.byte	0x4
 2116 05bc 0C       		.uleb128 0xc
 2117 05bd E2040000 		.4byte	.LASF153
 2118 05c1 06       		.byte	0x6
 2119 05c2 A101     		.2byte	0x1a1
 2120 05c4 9E000000 		.4byte	0x9e
 2121 05c8 08       		.byte	0x8
 2122 05c9 0C       		.uleb128 0xc
ARM GAS  /tmp/cc9hFd7n.s 			page 39


 2123 05ca E4090000 		.4byte	.LASF154
 2124 05ce 06       		.byte	0x6
 2125 05cf A201     		.2byte	0x1a2
 2126 05d1 9E000000 		.4byte	0x9e
 2127 05d5 0C       		.byte	0xc
 2128 05d6 0B       		.uleb128 0xb
 2129 05d7 535200   		.ascii	"SR\000"
 2130 05da 06       		.byte	0x6
 2131 05db A301     		.2byte	0x1a3
 2132 05dd 9E000000 		.4byte	0x9e
 2133 05e1 10       		.byte	0x10
 2134 05e2 0B       		.uleb128 0xb
 2135 05e3 45475200 		.ascii	"EGR\000"
 2136 05e7 06       		.byte	0x6
 2137 05e8 A401     		.2byte	0x1a4
 2138 05ea 9E000000 		.4byte	0x9e
 2139 05ee 14       		.byte	0x14
 2140 05ef 0C       		.uleb128 0xc
 2141 05f0 65010000 		.4byte	.LASF155
 2142 05f4 06       		.byte	0x6
 2143 05f5 A501     		.2byte	0x1a5
 2144 05f7 9E000000 		.4byte	0x9e
 2145 05fb 18       		.byte	0x18
 2146 05fc 0C       		.uleb128 0xc
 2147 05fd AE000000 		.4byte	.LASF156
 2148 0601 06       		.byte	0x6
 2149 0602 A601     		.2byte	0x1a6
 2150 0604 9E000000 		.4byte	0x9e
 2151 0608 1C       		.byte	0x1c
 2152 0609 0C       		.uleb128 0xc
 2153 060a 37020000 		.4byte	.LASF157
 2154 060e 06       		.byte	0x6
 2155 060f A701     		.2byte	0x1a7
 2156 0611 9E000000 		.4byte	0x9e
 2157 0615 20       		.byte	0x20
 2158 0616 0B       		.uleb128 0xb
 2159 0617 434E5400 		.ascii	"CNT\000"
 2160 061b 06       		.byte	0x6
 2161 061c A801     		.2byte	0x1a8
 2162 061e 9E000000 		.4byte	0x9e
 2163 0622 24       		.byte	0x24
 2164 0623 0B       		.uleb128 0xb
 2165 0624 50534300 		.ascii	"PSC\000"
 2166 0628 06       		.byte	0x6
 2167 0629 A901     		.2byte	0x1a9
 2168 062b 9E000000 		.4byte	0x9e
 2169 062f 28       		.byte	0x28
 2170 0630 0B       		.uleb128 0xb
 2171 0631 41525200 		.ascii	"ARR\000"
 2172 0635 06       		.byte	0x6
 2173 0636 AA01     		.2byte	0x1aa
 2174 0638 9E000000 		.4byte	0x9e
 2175 063c 2C       		.byte	0x2c
 2176 063d 0B       		.uleb128 0xb
 2177 063e 52435200 		.ascii	"RCR\000"
 2178 0642 06       		.byte	0x6
 2179 0643 AB01     		.2byte	0x1ab
ARM GAS  /tmp/cc9hFd7n.s 			page 40


 2180 0645 9E000000 		.4byte	0x9e
 2181 0649 30       		.byte	0x30
 2182 064a 0B       		.uleb128 0xb
 2183 064b 43435200 		.ascii	"CCR\000"
 2184 064f 06       		.byte	0x6
 2185 0650 AC01     		.2byte	0x1ac
 2186 0652 B2060000 		.4byte	0x6b2
 2187 0656 34       		.byte	0x34
 2188 0657 0C       		.uleb128 0xc
 2189 0658 18030000 		.4byte	.LASF158
 2190 065c 06       		.byte	0x6
 2191 065d AD01     		.2byte	0x1ad
 2192 065f 9E000000 		.4byte	0x9e
 2193 0663 44       		.byte	0x44
 2194 0664 0B       		.uleb128 0xb
 2195 0665 44435200 		.ascii	"DCR\000"
 2196 0669 06       		.byte	0x6
 2197 066a AE01     		.2byte	0x1ae
 2198 066c 9E000000 		.4byte	0x9e
 2199 0670 48       		.byte	0x48
 2200 0671 0C       		.uleb128 0xc
 2201 0672 99080000 		.4byte	.LASF159
 2202 0676 06       		.byte	0x6
 2203 0677 AF01     		.2byte	0x1af
 2204 0679 9E000000 		.4byte	0x9e
 2205 067d 4C       		.byte	0x4c
 2206 067e 0B       		.uleb128 0xb
 2207 067f 4F5200   		.ascii	"OR\000"
 2208 0682 06       		.byte	0x6
 2209 0683 B001     		.2byte	0x1b0
 2210 0685 9E000000 		.4byte	0x9e
 2211 0689 50       		.byte	0x50
 2212 068a 0C       		.uleb128 0xc
 2213 068b 73010000 		.4byte	.LASF160
 2214 068f 06       		.byte	0x6
 2215 0690 B101     		.2byte	0x1b1
 2216 0692 9E000000 		.4byte	0x9e
 2217 0696 54       		.byte	0x54
 2218 0697 0C       		.uleb128 0xc
 2219 0698 73090000 		.4byte	.LASF161
 2220 069c 06       		.byte	0x6
 2221 069d B201     		.2byte	0x1b2
 2222 069f 9E000000 		.4byte	0x9e
 2223 06a3 58       		.byte	0x58
 2224 06a4 0C       		.uleb128 0xc
 2225 06a5 78090000 		.4byte	.LASF162
 2226 06a9 06       		.byte	0x6
 2227 06aa B301     		.2byte	0x1b3
 2228 06ac 9E000000 		.4byte	0x9e
 2229 06b0 5C       		.byte	0x5c
 2230 06b1 00       		.byte	0
 2231 06b2 05       		.uleb128 0x5
 2232 06b3 2D030000 		.4byte	0x32d
 2233 06b7 0D       		.uleb128 0xd
 2234 06b8 93010000 		.4byte	.LASF163
 2235 06bc 06       		.byte	0x6
 2236 06bd B401     		.2byte	0x1b4
ARM GAS  /tmp/cc9hFd7n.s 			page 41


 2237 06bf 99050000 		.4byte	0x599
 2238 06c3 0D       		.uleb128 0xd
 2239 06c4 9F010000 		.4byte	.LASF164
 2240 06c8 05       		.byte	0x5
 2241 06c9 2001     		.2byte	0x120
 2242 06cb 77000000 		.4byte	0x77
 2243 06cf 0D       		.uleb128 0xd
 2244 06d0 00000000 		.4byte	.LASF165
 2245 06d4 05       		.byte	0x5
 2246 06d5 2501     		.2byte	0x125
 2247 06d7 3A000000 		.4byte	0x3a
 2248 06db 0D       		.uleb128 0xd
 2249 06dc C8090000 		.4byte	.LASF166
 2250 06e0 05       		.byte	0x5
 2251 06e1 2A01     		.2byte	0x12a
 2252 06e3 53000000 		.4byte	0x53
 2253 06e7 0A       		.uleb128 0xa
 2254 06e8 08       		.byte	0x8
 2255 06e9 05       		.byte	0x5
 2256 06ea 2F01     		.2byte	0x12f
 2257 06ec 0B070000 		.4byte	0x70b
 2258 06f0 0C       		.uleb128 0xc
 2259 06f1 83080000 		.4byte	.LASF167
 2260 06f5 05       		.byte	0x5
 2261 06f6 3301     		.2byte	0x133
 2262 06f8 C3060000 		.4byte	0x6c3
 2263 06fc 00       		.byte	0
 2264 06fd 0C       		.uleb128 0xc
 2265 06fe 33050000 		.4byte	.LASF168
 2266 0702 05       		.byte	0x5
 2267 0703 3901     		.2byte	0x139
 2268 0705 77050000 		.4byte	0x577
 2269 0709 04       		.byte	0x4
 2270 070a 00       		.byte	0
 2271 070b 0D       		.uleb128 0xd
 2272 070c 01090000 		.4byte	.LASF169
 2273 0710 05       		.byte	0x5
 2274 0711 3B01     		.2byte	0x13b
 2275 0713 E7060000 		.4byte	0x6e7
 2276 0717 0A       		.uleb128 0xa
 2277 0718 38       		.byte	0x38
 2278 0719 05       		.byte	0x5
 2279 071a 4001     		.2byte	0x140
 2280 071c 7C070000 		.4byte	0x77c
 2281 0720 0C       		.uleb128 0xc
 2282 0721 36010000 		.4byte	.LASF170
 2283 0725 05       		.byte	0x5
 2284 0726 4601     		.2byte	0x146
 2285 0728 77000000 		.4byte	0x77
 2286 072c 00       		.byte	0
 2287 072d 0C       		.uleb128 0xc
 2288 072e B4000000 		.4byte	.LASF150
 2289 0732 05       		.byte	0x5
 2290 0733 4C01     		.2byte	0x14c
 2291 0735 DB060000 		.4byte	0x6db
 2292 0739 04       		.byte	0x4
 2293 073a 0C       		.uleb128 0xc
ARM GAS  /tmp/cc9hFd7n.s 			page 42


 2294 073b 33050000 		.4byte	.LASF168
 2295 073f 05       		.byte	0x5
 2296 0740 5201     		.2byte	0x152
 2297 0742 77050000 		.4byte	0x577
 2298 0746 08       		.byte	0x8
 2299 0747 0C       		.uleb128 0xc
 2300 0748 DF010000 		.4byte	.LASF171
 2301 074c 05       		.byte	0x5
 2302 074d 5601     		.2byte	0x156
 2303 074f 7C070000 		.4byte	0x77c
 2304 0753 0C       		.byte	0xc
 2305 0754 0B       		.uleb128 0xb
 2306 0755 63723200 		.ascii	"cr2\000"
 2307 0759 05       		.byte	0x5
 2308 075a 5C01     		.2byte	0x15c
 2309 075c 77000000 		.4byte	0x77
 2310 0760 2C       		.byte	0x2c
 2311 0761 0C       		.uleb128 0xc
 2312 0762 F3000000 		.4byte	.LASF172
 2313 0766 05       		.byte	0x5
 2314 0767 6201     		.2byte	0x162
 2315 0769 77000000 		.4byte	0x77
 2316 076d 30       		.byte	0x30
 2317 076e 0C       		.uleb128 0xc
 2318 076f C00A0000 		.4byte	.LASF173
 2319 0773 05       		.byte	0x5
 2320 0774 6901     		.2byte	0x169
 2321 0776 77000000 		.4byte	0x77
 2322 077a 34       		.byte	0x34
 2323 077b 00       		.byte	0
 2324 077c 08       		.uleb128 0x8
 2325 077d 0B070000 		.4byte	0x70b
 2326 0781 8C070000 		.4byte	0x78c
 2327 0785 09       		.uleb128 0x9
 2328 0786 A3000000 		.4byte	0xa3
 2329 078a 03       		.byte	0x3
 2330 078b 00       		.byte	0
 2331 078c 0D       		.uleb128 0xd
 2332 078d 30080000 		.4byte	.LASF174
 2333 0791 05       		.byte	0x5
 2334 0792 6A01     		.2byte	0x16a
 2335 0794 17070000 		.4byte	0x717
 2336 0798 10       		.uleb128 0x10
 2337 0799 04       		.byte	0x4
 2338 079a 9E070000 		.4byte	0x79e
 2339 079e 13       		.uleb128 0x13
 2340 079f 8C070000 		.4byte	0x78c
 2341 07a3 10       		.uleb128 0x10
 2342 07a4 04       		.byte	0x4
 2343 07a5 B7060000 		.4byte	0x6b7
 2344 07a9 14       		.uleb128 0x14
 2345 07aa 5F000000 		.4byte	.LASF205
 2346 07ae 01       		.byte	0x1
 2347 07af 70       		.byte	0x70
 2348 07b0 00000000 		.4byte	.LFB118
 2349 07b4 58000000 		.4byte	.LFE118-.LFB118
 2350 07b8 01       		.uleb128 0x1
ARM GAS  /tmp/cc9hFd7n.s 			page 43


 2351 07b9 9C       		.byte	0x9c
 2352 07ba 28080000 		.4byte	0x828
 2353 07be 15       		.uleb128 0x15
 2354 07bf 9F050000 		.4byte	.LASF185
 2355 07c3 01       		.byte	0x1
 2356 07c4 70       		.byte	0x70
 2357 07c5 93050000 		.4byte	0x593
 2358 07c9 00000000 		.4byte	.LLST0
 2359 07cd 16       		.uleb128 0x16
 2360 07ce 737200   		.ascii	"sr\000"
 2361 07d1 01       		.byte	0x1
 2362 07d2 71       		.byte	0x71
 2363 07d3 53000000 		.4byte	0x53
 2364 07d7 34000000 		.4byte	.LLST1
 2365 07db 17       		.uleb128 0x17
 2366 07dc 30000000 		.4byte	.LVL4
 2367 07e0 EB070000 		.4byte	0x7eb
 2368 07e4 18       		.uleb128 0x18
 2369 07e5 01       		.uleb128 0x1
 2370 07e6 50       		.byte	0x50
 2371 07e7 02       		.uleb128 0x2
 2372 07e8 75       		.byte	0x75
 2373 07e9 00       		.sleb128 0
 2374 07ea 00       		.byte	0
 2375 07eb 17       		.uleb128 0x17
 2376 07ec 3A000000 		.4byte	.LVL6
 2377 07f0 FB070000 		.4byte	0x7fb
 2378 07f4 18       		.uleb128 0x18
 2379 07f5 01       		.uleb128 0x1
 2380 07f6 50       		.byte	0x50
 2381 07f7 02       		.uleb128 0x2
 2382 07f8 75       		.byte	0x75
 2383 07f9 00       		.sleb128 0
 2384 07fa 00       		.byte	0
 2385 07fb 17       		.uleb128 0x17
 2386 07fc 44000000 		.4byte	.LVL7
 2387 0800 0B080000 		.4byte	0x80b
 2388 0804 18       		.uleb128 0x18
 2389 0805 01       		.uleb128 0x1
 2390 0806 50       		.byte	0x50
 2391 0807 02       		.uleb128 0x2
 2392 0808 75       		.byte	0x75
 2393 0809 00       		.sleb128 0
 2394 080a 00       		.byte	0
 2395 080b 17       		.uleb128 0x17
 2396 080c 4E000000 		.4byte	.LVL8
 2397 0810 1B080000 		.4byte	0x81b
 2398 0814 18       		.uleb128 0x18
 2399 0815 01       		.uleb128 0x1
 2400 0816 50       		.byte	0x50
 2401 0817 02       		.uleb128 0x2
 2402 0818 75       		.byte	0x75
 2403 0819 00       		.sleb128 0
 2404 081a 00       		.byte	0
 2405 081b 19       		.uleb128 0x19
 2406 081c 56000000 		.4byte	.LVL10
 2407 0820 18       		.uleb128 0x18
ARM GAS  /tmp/cc9hFd7n.s 			page 44


 2408 0821 01       		.uleb128 0x1
 2409 0822 50       		.byte	0x50
 2410 0823 02       		.uleb128 0x2
 2411 0824 75       		.byte	0x75
 2412 0825 00       		.sleb128 0
 2413 0826 00       		.byte	0
 2414 0827 00       		.byte	0
 2415 0828 1A       		.uleb128 0x1a
 2416 0829 E9090000 		.4byte	.LASF175
 2417 082d 01       		.byte	0x1
 2418 082e 93       		.byte	0x93
 2419 082f 00000000 		.4byte	.LFB119
 2420 0833 24000000 		.4byte	.LFE119-.LFB119
 2421 0837 01       		.uleb128 0x1
 2422 0838 9C       		.byte	0x9c
 2423 0839 5A080000 		.4byte	0x85a
 2424 083d 17       		.uleb128 0x17
 2425 083e 12000000 		.4byte	.LVL11
 2426 0842 50080000 		.4byte	0x850
 2427 0846 18       		.uleb128 0x18
 2428 0847 01       		.uleb128 0x1
 2429 0848 50       		.byte	0x50
 2430 0849 05       		.uleb128 0x5
 2431 084a 03       		.byte	0x3
 2432 084b 00000000 		.4byte	.LANCHOR0
 2433 084f 00       		.byte	0
 2434 0850 1B       		.uleb128 0x1b
 2435 0851 1A000000 		.4byte	.LVL12
 2436 0855 930D0000 		.4byte	0xd93
 2437 0859 00       		.byte	0
 2438 085a 1A       		.uleb128 0x1a
 2439 085b BB000000 		.4byte	.LASF176
 2440 085f 01       		.byte	0x1
 2441 0860 A8       		.byte	0xa8
 2442 0861 00000000 		.4byte	.LFB120
 2443 0865 58000000 		.4byte	.LFE120-.LFB120
 2444 0869 01       		.uleb128 0x1
 2445 086a 9C       		.byte	0x9c
 2446 086b CF080000 		.4byte	0x8cf
 2447 086f 16       		.uleb128 0x16
 2448 0870 737200   		.ascii	"sr\000"
 2449 0873 01       		.byte	0x1
 2450 0874 A9       		.byte	0xa9
 2451 0875 53000000 		.4byte	0x53
 2452 0879 57000000 		.4byte	.LLST2
 2453 087d 17       		.uleb128 0x17
 2454 087e 2A000000 		.4byte	.LVL14
 2455 0882 90080000 		.4byte	0x890
 2456 0886 18       		.uleb128 0x18
 2457 0887 01       		.uleb128 0x1
 2458 0888 50       		.byte	0x50
 2459 0889 05       		.uleb128 0x5
 2460 088a 03       		.byte	0x3
 2461 088b 00000000 		.4byte	.LANCHOR0
 2462 088f 00       		.byte	0
 2463 0890 1B       		.uleb128 0x1b
 2464 0891 32000000 		.4byte	.LVL16
ARM GAS  /tmp/cc9hFd7n.s 			page 45


 2465 0895 930D0000 		.4byte	0xd93
 2466 0899 17       		.uleb128 0x17
 2467 089a 3A000000 		.4byte	.LVL17
 2468 089e AC080000 		.4byte	0x8ac
 2469 08a2 18       		.uleb128 0x18
 2470 08a3 01       		.uleb128 0x1
 2471 08a4 50       		.byte	0x50
 2472 08a5 05       		.uleb128 0x5
 2473 08a6 03       		.byte	0x3
 2474 08a7 00000000 		.4byte	.LANCHOR0
 2475 08ab 00       		.byte	0
 2476 08ac 17       		.uleb128 0x17
 2477 08ad 44000000 		.4byte	.LVL18
 2478 08b1 BF080000 		.4byte	0x8bf
 2479 08b5 18       		.uleb128 0x18
 2480 08b6 01       		.uleb128 0x1
 2481 08b7 50       		.byte	0x50
 2482 08b8 05       		.uleb128 0x5
 2483 08b9 03       		.byte	0x3
 2484 08ba 00000000 		.4byte	.LANCHOR0
 2485 08be 00       		.byte	0
 2486 08bf 19       		.uleb128 0x19
 2487 08c0 4E000000 		.4byte	.LVL19
 2488 08c4 18       		.uleb128 0x18
 2489 08c5 01       		.uleb128 0x1
 2490 08c6 50       		.byte	0x50
 2491 08c7 05       		.uleb128 0x5
 2492 08c8 03       		.byte	0x3
 2493 08c9 00000000 		.4byte	.LANCHOR0
 2494 08cd 00       		.byte	0
 2495 08ce 00       		.byte	0
 2496 08cf 1A       		.uleb128 0x1a
 2497 08d0 A9010000 		.4byte	.LASF177
 2498 08d4 01       		.byte	0x1
 2499 08d5 C5       		.byte	0xc5
 2500 08d6 00000000 		.4byte	.LFB121
 2501 08da 14000000 		.4byte	.LFE121-.LFB121
 2502 08de 01       		.uleb128 0x1
 2503 08df 9C       		.byte	0x9c
 2504 08e0 05090000 		.4byte	0x905
 2505 08e4 1C       		.uleb128 0x1c
 2506 08e5 08000000 		.4byte	.LVL20
 2507 08e9 A9070000 		.4byte	0x7a9
 2508 08ed FB080000 		.4byte	0x8fb
 2509 08f1 18       		.uleb128 0x18
 2510 08f2 01       		.uleb128 0x1
 2511 08f3 50       		.byte	0x50
 2512 08f4 05       		.uleb128 0x5
 2513 08f5 03       		.byte	0x3
 2514 08f6 00000000 		.4byte	.LANCHOR1
 2515 08fa 00       		.byte	0
 2516 08fb 1B       		.uleb128 0x1b
 2517 08fc 10000000 		.4byte	.LVL21
 2518 0900 930D0000 		.4byte	0xd93
 2519 0904 00       		.byte	0
 2520 0905 1A       		.uleb128 0x1a
 2521 0906 C4010000 		.4byte	.LASF178
ARM GAS  /tmp/cc9hFd7n.s 			page 46


 2522 090a 01       		.byte	0x1
 2523 090b D8       		.byte	0xd8
 2524 090c 00000000 		.4byte	.LFB122
 2525 0910 14000000 		.4byte	.LFE122-.LFB122
 2526 0914 01       		.uleb128 0x1
 2527 0915 9C       		.byte	0x9c
 2528 0916 3B090000 		.4byte	0x93b
 2529 091a 1C       		.uleb128 0x1c
 2530 091b 08000000 		.4byte	.LVL22
 2531 091f A9070000 		.4byte	0x7a9
 2532 0923 31090000 		.4byte	0x931
 2533 0927 18       		.uleb128 0x18
 2534 0928 01       		.uleb128 0x1
 2535 0929 50       		.byte	0x50
 2536 092a 05       		.uleb128 0x5
 2537 092b 03       		.byte	0x3
 2538 092c 00000000 		.4byte	.LANCHOR2
 2539 0930 00       		.byte	0
 2540 0931 1B       		.uleb128 0x1b
 2541 0932 10000000 		.4byte	.LVL23
 2542 0936 930D0000 		.4byte	0xd93
 2543 093a 00       		.byte	0
 2544 093b 1A       		.uleb128 0x1a
 2545 093c CA020000 		.4byte	.LASF179
 2546 0940 01       		.byte	0x1
 2547 0941 EB       		.byte	0xeb
 2548 0942 00000000 		.4byte	.LFB123
 2549 0946 14000000 		.4byte	.LFE123-.LFB123
 2550 094a 01       		.uleb128 0x1
 2551 094b 9C       		.byte	0x9c
 2552 094c 71090000 		.4byte	0x971
 2553 0950 1C       		.uleb128 0x1c
 2554 0951 08000000 		.4byte	.LVL24
 2555 0955 A9070000 		.4byte	0x7a9
 2556 0959 67090000 		.4byte	0x967
 2557 095d 18       		.uleb128 0x18
 2558 095e 01       		.uleb128 0x1
 2559 095f 50       		.byte	0x50
 2560 0960 05       		.uleb128 0x5
 2561 0961 03       		.byte	0x3
 2562 0962 00000000 		.4byte	.LANCHOR3
 2563 0966 00       		.byte	0
 2564 0967 1B       		.uleb128 0x1b
 2565 0968 10000000 		.4byte	.LVL25
 2566 096c 930D0000 		.4byte	0xd93
 2567 0970 00       		.byte	0
 2568 0971 1D       		.uleb128 0x1d
 2569 0972 FD020000 		.4byte	.LASF180
 2570 0976 01       		.byte	0x1
 2571 0977 1401     		.2byte	0x114
 2572 0979 00000000 		.4byte	.LFB124
 2573 097d 24000000 		.4byte	.LFE124-.LFB124
 2574 0981 01       		.uleb128 0x1
 2575 0982 9C       		.byte	0x9c
 2576 0983 A4090000 		.4byte	0x9a4
 2577 0987 17       		.uleb128 0x17
 2578 0988 12000000 		.4byte	.LVL26
ARM GAS  /tmp/cc9hFd7n.s 			page 47


 2579 098c 9A090000 		.4byte	0x99a
 2580 0990 18       		.uleb128 0x18
 2581 0991 01       		.uleb128 0x1
 2582 0992 50       		.byte	0x50
 2583 0993 05       		.uleb128 0x5
 2584 0994 03       		.byte	0x3
 2585 0995 00000000 		.4byte	.LANCHOR4
 2586 0999 00       		.byte	0
 2587 099a 1B       		.uleb128 0x1b
 2588 099b 1A000000 		.4byte	.LVL27
 2589 099f 930D0000 		.4byte	0xd93
 2590 09a3 00       		.byte	0
 2591 09a4 1D       		.uleb128 0x1d
 2592 09a5 DE070000 		.4byte	.LASF181
 2593 09a9 01       		.byte	0x1
 2594 09aa 2901     		.2byte	0x129
 2595 09ac 00000000 		.4byte	.LFB125
 2596 09b0 58000000 		.4byte	.LFE125-.LFB125
 2597 09b4 01       		.uleb128 0x1
 2598 09b5 9C       		.byte	0x9c
 2599 09b6 1B0A0000 		.4byte	0xa1b
 2600 09ba 1E       		.uleb128 0x1e
 2601 09bb 737200   		.ascii	"sr\000"
 2602 09be 01       		.byte	0x1
 2603 09bf 2A01     		.2byte	0x12a
 2604 09c1 53000000 		.4byte	0x53
 2605 09c5 7F000000 		.4byte	.LLST3
 2606 09c9 17       		.uleb128 0x17
 2607 09ca 2A000000 		.4byte	.LVL29
 2608 09ce DC090000 		.4byte	0x9dc
 2609 09d2 18       		.uleb128 0x18
 2610 09d3 01       		.uleb128 0x1
 2611 09d4 50       		.byte	0x50
 2612 09d5 05       		.uleb128 0x5
 2613 09d6 03       		.byte	0x3
 2614 09d7 00000000 		.4byte	.LANCHOR4
 2615 09db 00       		.byte	0
 2616 09dc 1B       		.uleb128 0x1b
 2617 09dd 32000000 		.4byte	.LVL31
 2618 09e1 930D0000 		.4byte	0xd93
 2619 09e5 17       		.uleb128 0x17
 2620 09e6 3A000000 		.4byte	.LVL32
 2621 09ea F8090000 		.4byte	0x9f8
 2622 09ee 18       		.uleb128 0x18
 2623 09ef 01       		.uleb128 0x1
 2624 09f0 50       		.byte	0x50
 2625 09f1 05       		.uleb128 0x5
 2626 09f2 03       		.byte	0x3
 2627 09f3 00000000 		.4byte	.LANCHOR4
 2628 09f7 00       		.byte	0
 2629 09f8 17       		.uleb128 0x17
 2630 09f9 44000000 		.4byte	.LVL33
 2631 09fd 0B0A0000 		.4byte	0xa0b
 2632 0a01 18       		.uleb128 0x18
 2633 0a02 01       		.uleb128 0x1
 2634 0a03 50       		.byte	0x50
 2635 0a04 05       		.uleb128 0x5
ARM GAS  /tmp/cc9hFd7n.s 			page 48


 2636 0a05 03       		.byte	0x3
 2637 0a06 00000000 		.4byte	.LANCHOR4
 2638 0a0a 00       		.byte	0
 2639 0a0b 19       		.uleb128 0x19
 2640 0a0c 4E000000 		.4byte	.LVL34
 2641 0a10 18       		.uleb128 0x18
 2642 0a11 01       		.uleb128 0x1
 2643 0a12 50       		.byte	0x50
 2644 0a13 05       		.uleb128 0x5
 2645 0a14 03       		.byte	0x3
 2646 0a15 00000000 		.4byte	.LANCHOR4
 2647 0a19 00       		.byte	0
 2648 0a1a 00       		.byte	0
 2649 0a1b 1D       		.uleb128 0x1d
 2650 0a1c 5E0A0000 		.4byte	.LASF182
 2651 0a20 01       		.byte	0x1
 2652 0a21 4601     		.2byte	0x146
 2653 0a23 00000000 		.4byte	.LFB126
 2654 0a27 14000000 		.4byte	.LFE126-.LFB126
 2655 0a2b 01       		.uleb128 0x1
 2656 0a2c 9C       		.byte	0x9c
 2657 0a2d 520A0000 		.4byte	0xa52
 2658 0a31 1C       		.uleb128 0x1c
 2659 0a32 08000000 		.4byte	.LVL35
 2660 0a36 A9070000 		.4byte	0x7a9
 2661 0a3a 480A0000 		.4byte	0xa48
 2662 0a3e 18       		.uleb128 0x18
 2663 0a3f 01       		.uleb128 0x1
 2664 0a40 50       		.byte	0x50
 2665 0a41 05       		.uleb128 0x5
 2666 0a42 03       		.byte	0x3
 2667 0a43 00000000 		.4byte	.LANCHOR5
 2668 0a47 00       		.byte	0
 2669 0a48 1B       		.uleb128 0x1b
 2670 0a49 10000000 		.4byte	.LVL36
 2671 0a4d 930D0000 		.4byte	0xd93
 2672 0a51 00       		.byte	0
 2673 0a52 1D       		.uleb128 0x1d
 2674 0a53 2B0A0000 		.4byte	.LASF183
 2675 0a57 01       		.byte	0x1
 2676 0a58 5901     		.2byte	0x159
 2677 0a5a 00000000 		.4byte	.LFB127
 2678 0a5e 88000000 		.4byte	.LFE127-.LFB127
 2679 0a62 01       		.uleb128 0x1
 2680 0a63 9C       		.byte	0x9c
 2681 0a64 DD0A0000 		.4byte	0xadd
 2682 0a68 1C       		.uleb128 0x1c
 2683 0a69 1A000000 		.4byte	.LVL37
 2684 0a6d 9B0D0000 		.4byte	0xd9b
 2685 0a71 7C0A0000 		.4byte	0xa7c
 2686 0a75 18       		.uleb128 0x18
 2687 0a76 01       		.uleb128 0x1
 2688 0a77 50       		.byte	0x50
 2689 0a78 02       		.uleb128 0x2
 2690 0a79 79       		.byte	0x79
 2691 0a7a 00       		.sleb128 0
 2692 0a7b 00       		.byte	0
ARM GAS  /tmp/cc9hFd7n.s 			page 49


 2693 0a7c 1C       		.uleb128 0x1c
 2694 0a7d 26000000 		.4byte	.LVL38
 2695 0a81 9B0D0000 		.4byte	0xd9b
 2696 0a85 900A0000 		.4byte	0xa90
 2697 0a89 18       		.uleb128 0x18
 2698 0a8a 01       		.uleb128 0x1
 2699 0a8b 50       		.byte	0x50
 2700 0a8c 02       		.uleb128 0x2
 2701 0a8d 78       		.byte	0x78
 2702 0a8e 00       		.sleb128 0
 2703 0a8f 00       		.byte	0
 2704 0a90 1C       		.uleb128 0x1c
 2705 0a91 34000000 		.4byte	.LVL39
 2706 0a95 9B0D0000 		.4byte	0xd9b
 2707 0a99 A40A0000 		.4byte	0xaa4
 2708 0a9d 18       		.uleb128 0x18
 2709 0a9e 01       		.uleb128 0x1
 2710 0a9f 50       		.byte	0x50
 2711 0aa0 02       		.uleb128 0x2
 2712 0aa1 77       		.byte	0x77
 2713 0aa2 00       		.sleb128 0
 2714 0aa3 00       		.byte	0
 2715 0aa4 1C       		.uleb128 0x1c
 2716 0aa5 3E000000 		.4byte	.LVL40
 2717 0aa9 9B0D0000 		.4byte	0xd9b
 2718 0aad B80A0000 		.4byte	0xab8
 2719 0ab1 18       		.uleb128 0x18
 2720 0ab2 01       		.uleb128 0x1
 2721 0ab3 50       		.byte	0x50
 2722 0ab4 02       		.uleb128 0x2
 2723 0ab5 76       		.byte	0x76
 2724 0ab6 00       		.sleb128 0
 2725 0ab7 00       		.byte	0
 2726 0ab8 1C       		.uleb128 0x1c
 2727 0ab9 48000000 		.4byte	.LVL41
 2728 0abd 9B0D0000 		.4byte	0xd9b
 2729 0ac1 CC0A0000 		.4byte	0xacc
 2730 0ac5 18       		.uleb128 0x18
 2731 0ac6 01       		.uleb128 0x1
 2732 0ac7 50       		.byte	0x50
 2733 0ac8 02       		.uleb128 0x2
 2734 0ac9 75       		.byte	0x75
 2735 0aca 00       		.sleb128 0
 2736 0acb 00       		.byte	0
 2737 0acc 1F       		.uleb128 0x1f
 2738 0acd 52000000 		.4byte	.LVL42
 2739 0ad1 9B0D0000 		.4byte	0xd9b
 2740 0ad5 18       		.uleb128 0x18
 2741 0ad6 01       		.uleb128 0x1
 2742 0ad7 50       		.byte	0x50
 2743 0ad8 02       		.uleb128 0x2
 2744 0ad9 74       		.byte	0x74
 2745 0ada 00       		.sleb128 0
 2746 0adb 00       		.byte	0
 2747 0adc 00       		.byte	0
 2748 0add 1D       		.uleb128 0x1d
 2749 0ade F7010000 		.4byte	.LASF184
ARM GAS  /tmp/cc9hFd7n.s 			page 50


 2750 0ae2 01       		.byte	0x1
 2751 0ae3 8F01     		.2byte	0x18f
 2752 0ae5 00000000 		.4byte	.LFB128
 2753 0ae9 78020000 		.4byte	.LFE128-.LFB128
 2754 0aed 01       		.uleb128 0x1
 2755 0aee 9C       		.byte	0x9c
 2756 0aef CC0B0000 		.4byte	0xbcc
 2757 0af3 20       		.uleb128 0x20
 2758 0af4 9F050000 		.4byte	.LASF185
 2759 0af8 01       		.byte	0x1
 2760 0af9 8F01     		.2byte	0x18f
 2761 0afb 93050000 		.4byte	0x593
 2762 0aff A7000000 		.4byte	.LLST4
 2763 0b03 1E       		.uleb128 0x1e
 2764 0b04 70736300 		.ascii	"psc\000"
 2765 0b08 01       		.byte	0x1
 2766 0b09 9001     		.2byte	0x190
 2767 0b0b 77000000 		.4byte	0x77
 2768 0b0f 62010000 		.4byte	.LLST5
 2769 0b13 21       		.uleb128 0x21
 2770 0b14 86050000 		.4byte	.LASF186
 2771 0b18 01       		.byte	0x1
 2772 0b19 9101     		.2byte	0x191
 2773 0b1b 53000000 		.4byte	0x53
 2774 0b1f A9010000 		.4byte	.LLST6
 2775 0b23 1C       		.uleb128 0x1c
 2776 0b24 94010000 		.4byte	.LVL85
 2777 0b28 AC0D0000 		.4byte	0xdac
 2778 0b2c 3D0B0000 		.4byte	0xb3d
 2779 0b30 18       		.uleb128 0x18
 2780 0b31 01       		.uleb128 0x1
 2781 0b32 51       		.byte	0x51
 2782 0b33 02       		.uleb128 0x2
 2783 0b34 08       		.byte	0x8
 2784 0b35 70       		.byte	0x70
 2785 0b36 18       		.uleb128 0x18
 2786 0b37 01       		.uleb128 0x1
 2787 0b38 50       		.byte	0x50
 2788 0b39 02       		.uleb128 0x2
 2789 0b3a 08       		.byte	0x8
 2790 0b3b 2C       		.byte	0x2c
 2791 0b3c 00       		.byte	0
 2792 0b3d 1C       		.uleb128 0x1c
 2793 0b3e 9C010000 		.4byte	.LVL86
 2794 0b42 AC0D0000 		.4byte	0xdac
 2795 0b46 570B0000 		.4byte	0xb57
 2796 0b4a 18       		.uleb128 0x18
 2797 0b4b 01       		.uleb128 0x1
 2798 0b4c 51       		.byte	0x51
 2799 0b4d 02       		.uleb128 0x2
 2800 0b4e 08       		.byte	0x8
 2801 0b4f 70       		.byte	0x70
 2802 0b50 18       		.uleb128 0x18
 2803 0b51 01       		.uleb128 0x1
 2804 0b52 50       		.byte	0x50
 2805 0b53 02       		.uleb128 0x2
 2806 0b54 08       		.byte	0x8
ARM GAS  /tmp/cc9hFd7n.s 			page 51


 2807 0b55 2E       		.byte	0x2e
 2808 0b56 00       		.byte	0
 2809 0b57 1C       		.uleb128 0x1c
 2810 0b58 C0010000 		.4byte	.LVL89
 2811 0b5c AC0D0000 		.4byte	0xdac
 2812 0b60 700B0000 		.4byte	0xb70
 2813 0b64 18       		.uleb128 0x18
 2814 0b65 01       		.uleb128 0x1
 2815 0b66 51       		.byte	0x51
 2816 0b67 02       		.uleb128 0x2
 2817 0b68 08       		.byte	0x8
 2818 0b69 70       		.byte	0x70
 2819 0b6a 18       		.uleb128 0x18
 2820 0b6b 01       		.uleb128 0x1
 2821 0b6c 50       		.byte	0x50
 2822 0b6d 01       		.uleb128 0x1
 2823 0b6e 49       		.byte	0x49
 2824 0b6f 00       		.byte	0
 2825 0b70 1C       		.uleb128 0x1c
 2826 0b71 C8010000 		.4byte	.LVL90
 2827 0b75 AC0D0000 		.4byte	0xdac
 2828 0b79 890B0000 		.4byte	0xb89
 2829 0b7d 18       		.uleb128 0x18
 2830 0b7e 01       		.uleb128 0x1
 2831 0b7f 51       		.byte	0x51
 2832 0b80 02       		.uleb128 0x2
 2833 0b81 08       		.byte	0x8
 2834 0b82 70       		.byte	0x70
 2835 0b83 18       		.uleb128 0x18
 2836 0b84 01       		.uleb128 0x1
 2837 0b85 50       		.byte	0x50
 2838 0b86 01       		.uleb128 0x1
 2839 0b87 4B       		.byte	0x4b
 2840 0b88 00       		.byte	0
 2841 0b89 1C       		.uleb128 0x1c
 2842 0b8a EC010000 		.4byte	.LVL93
 2843 0b8e AC0D0000 		.4byte	0xdac
 2844 0b92 A20B0000 		.4byte	0xba2
 2845 0b96 18       		.uleb128 0x18
 2846 0b97 01       		.uleb128 0x1
 2847 0b98 51       		.byte	0x51
 2848 0b99 02       		.uleb128 0x2
 2849 0b9a 08       		.byte	0x8
 2850 0b9b 70       		.byte	0x70
 2851 0b9c 18       		.uleb128 0x18
 2852 0b9d 01       		.uleb128 0x1
 2853 0b9e 50       		.byte	0x50
 2854 0b9f 01       		.uleb128 0x1
 2855 0ba0 4C       		.byte	0x4c
 2856 0ba1 00       		.byte	0
 2857 0ba2 1C       		.uleb128 0x1c
 2858 0ba3 10020000 		.4byte	.LVL96
 2859 0ba7 AC0D0000 		.4byte	0xdac
 2860 0bab B60B0000 		.4byte	0xbb6
 2861 0baf 18       		.uleb128 0x18
 2862 0bb0 01       		.uleb128 0x1
 2863 0bb1 51       		.byte	0x51
ARM GAS  /tmp/cc9hFd7n.s 			page 52


 2864 0bb2 02       		.uleb128 0x2
 2865 0bb3 08       		.byte	0x8
 2866 0bb4 70       		.byte	0x70
 2867 0bb5 00       		.byte	0
 2868 0bb6 1F       		.uleb128 0x1f
 2869 0bb7 4C020000 		.4byte	.LVL99
 2870 0bbb AC0D0000 		.4byte	0xdac
 2871 0bbf 18       		.uleb128 0x18
 2872 0bc0 01       		.uleb128 0x1
 2873 0bc1 51       		.byte	0x51
 2874 0bc2 02       		.uleb128 0x2
 2875 0bc3 08       		.byte	0x8
 2876 0bc4 70       		.byte	0x70
 2877 0bc5 18       		.uleb128 0x18
 2878 0bc6 01       		.uleb128 0x1
 2879 0bc7 50       		.byte	0x50
 2880 0bc8 01       		.uleb128 0x1
 2881 0bc9 48       		.byte	0x48
 2882 0bca 00       		.byte	0
 2883 0bcb 00       		.byte	0
 2884 0bcc 1D       		.uleb128 0x1d
 2885 0bcd F2070000 		.4byte	.LASF187
 2886 0bd1 01       		.byte	0x1
 2887 0bd2 5D02     		.2byte	0x25d
 2888 0bd4 00000000 		.4byte	.LFB129
 2889 0bd8 D0000000 		.4byte	.LFE129-.LFB129
 2890 0bdc 01       		.uleb128 0x1
 2891 0bdd 9C       		.byte	0x9c
 2892 0bde 890C0000 		.4byte	0xc89
 2893 0be2 20       		.uleb128 0x20
 2894 0be3 9F050000 		.4byte	.LASF185
 2895 0be7 01       		.byte	0x1
 2896 0be8 5D02     		.2byte	0x25d
 2897 0bea 93050000 		.4byte	0x593
 2898 0bee 20020000 		.4byte	.LLST7
 2899 0bf2 1C       		.uleb128 0x1c
 2900 0bf3 42000000 		.4byte	.LVL104
 2901 0bf7 C30D0000 		.4byte	0xdc3
 2902 0bfb 050C0000 		.4byte	0xc05
 2903 0bff 18       		.uleb128 0x18
 2904 0c00 01       		.uleb128 0x1
 2905 0c01 50       		.byte	0x50
 2906 0c02 01       		.uleb128 0x1
 2907 0c03 48       		.byte	0x48
 2908 0c04 00       		.byte	0
 2909 0c05 1C       		.uleb128 0x1c
 2910 0c06 54000000 		.4byte	.LVL107
 2911 0c0a C30D0000 		.4byte	0xdc3
 2912 0c0e 180C0000 		.4byte	0xc18
 2913 0c12 18       		.uleb128 0x18
 2914 0c13 01       		.uleb128 0x1
 2915 0c14 50       		.byte	0x50
 2916 0c15 01       		.uleb128 0x1
 2917 0c16 49       		.byte	0x49
 2918 0c17 00       		.byte	0
 2919 0c18 1C       		.uleb128 0x1c
 2920 0c19 5A000000 		.4byte	.LVL108
ARM GAS  /tmp/cc9hFd7n.s 			page 53


 2921 0c1d C30D0000 		.4byte	0xdc3
 2922 0c21 2B0C0000 		.4byte	0xc2b
 2923 0c25 18       		.uleb128 0x18
 2924 0c26 01       		.uleb128 0x1
 2925 0c27 50       		.byte	0x50
 2926 0c28 01       		.uleb128 0x1
 2927 0c29 4B       		.byte	0x4b
 2928 0c2a 00       		.byte	0
 2929 0c2b 1C       		.uleb128 0x1c
 2930 0c2c 6C000000 		.4byte	.LVL111
 2931 0c30 C30D0000 		.4byte	0xdc3
 2932 0c34 3E0C0000 		.4byte	0xc3e
 2933 0c38 18       		.uleb128 0x18
 2934 0c39 01       		.uleb128 0x1
 2935 0c3a 50       		.byte	0x50
 2936 0c3b 01       		.uleb128 0x1
 2937 0c3c 4C       		.byte	0x4c
 2938 0c3d 00       		.byte	0
 2939 0c3e 1C       		.uleb128 0x1c
 2940 0c3f 7E000000 		.4byte	.LVL114
 2941 0c43 C30D0000 		.4byte	0xdc3
 2942 0c47 510C0000 		.4byte	0xc51
 2943 0c4b 18       		.uleb128 0x18
 2944 0c4c 01       		.uleb128 0x1
 2945 0c4d 50       		.byte	0x50
 2946 0c4e 01       		.uleb128 0x1
 2947 0c4f 4D       		.byte	0x4d
 2948 0c50 00       		.byte	0
 2949 0c51 1C       		.uleb128 0x1c
 2950 0c52 90000000 		.4byte	.LVL117
 2951 0c56 C30D0000 		.4byte	0xdc3
 2952 0c5a 640C0000 		.4byte	0xc64
 2953 0c5e 18       		.uleb128 0x18
 2954 0c5f 01       		.uleb128 0x1
 2955 0c60 50       		.byte	0x50
 2956 0c61 01       		.uleb128 0x1
 2957 0c62 4E       		.byte	0x4e
 2958 0c63 00       		.byte	0
 2959 0c64 1C       		.uleb128 0x1c
 2960 0c65 A2000000 		.4byte	.LVL120
 2961 0c69 C30D0000 		.4byte	0xdc3
 2962 0c6d 780C0000 		.4byte	0xc78
 2963 0c71 18       		.uleb128 0x18
 2964 0c72 01       		.uleb128 0x1
 2965 0c73 50       		.byte	0x50
 2966 0c74 02       		.uleb128 0x2
 2967 0c75 08       		.byte	0x8
 2968 0c76 2C       		.byte	0x2c
 2969 0c77 00       		.byte	0
 2970 0c78 1F       		.uleb128 0x1f
 2971 0c79 A8000000 		.4byte	.LVL121
 2972 0c7d C30D0000 		.4byte	0xdc3
 2973 0c81 18       		.uleb128 0x18
 2974 0c82 01       		.uleb128 0x1
 2975 0c83 50       		.byte	0x50
 2976 0c84 02       		.uleb128 0x2
 2977 0c85 08       		.byte	0x8
ARM GAS  /tmp/cc9hFd7n.s 			page 54


 2978 0c86 2E       		.byte	0x2e
 2979 0c87 00       		.byte	0
 2980 0c88 00       		.byte	0
 2981 0c89 1D       		.uleb128 0x1d
 2982 0c8a 5E080000 		.4byte	.LASF188
 2983 0c8e 01       		.byte	0x1
 2984 0c8f A302     		.2byte	0x2a3
 2985 0c91 00000000 		.4byte	.LFB130
 2986 0c95 32000000 		.4byte	.LFE130-.LFB130
 2987 0c99 01       		.uleb128 0x1
 2988 0c9a 9C       		.byte	0x9c
 2989 0c9b EA0C0000 		.4byte	0xcea
 2990 0c9f 20       		.uleb128 0x20
 2991 0ca0 9F050000 		.4byte	.LASF185
 2992 0ca4 01       		.byte	0x1
 2993 0ca5 A302     		.2byte	0x2a3
 2994 0ca7 93050000 		.4byte	0x593
 2995 0cab D0020000 		.4byte	.LLST8
 2996 0caf 20       		.uleb128 0x20
 2997 0cb0 CE070000 		.4byte	.LASF189
 2998 0cb4 01       		.byte	0x1
 2999 0cb5 A402     		.2byte	0x2a4
 3000 0cb7 CF060000 		.4byte	0x6cf
 3001 0cbb F1020000 		.4byte	.LLST9
 3002 0cbf 20       		.uleb128 0x20
 3003 0cc0 D0040000 		.4byte	.LASF190
 3004 0cc4 01       		.byte	0x1
 3005 0cc5 A502     		.2byte	0x2a5
 3006 0cc7 DB060000 		.4byte	0x6db
 3007 0ccb 12030000 		.4byte	.LLST10
 3008 0ccf 22       		.uleb128 0x22
 3009 0cd0 18000000 		.4byte	.LBB2
 3010 0cd4 14000000 		.4byte	.LBE2-.LBB2
 3011 0cd8 21       		.uleb128 0x21
 3012 0cd9 C00A0000 		.4byte	.LASF173
 3013 0cdd 01       		.byte	0x1
 3014 0cde AB02     		.2byte	0x2ab
 3015 0ce0 77000000 		.4byte	0x77
 3016 0ce4 33030000 		.4byte	.LLST11
 3017 0ce8 00       		.byte	0
 3018 0ce9 00       		.byte	0
 3019 0cea 1D       		.uleb128 0x1d
 3020 0ceb 000A0000 		.4byte	.LASF191
 3021 0cef 01       		.byte	0x1
 3022 0cf0 C102     		.2byte	0x2c1
 3023 0cf2 00000000 		.4byte	.LFB131
 3024 0cf6 1E000000 		.4byte	.LFE131-.LFB131
 3025 0cfa 01       		.uleb128 0x1
 3026 0cfb 9C       		.byte	0x9c
 3027 0cfc 210D0000 		.4byte	0xd21
 3028 0d00 20       		.uleb128 0x20
 3029 0d01 9F050000 		.4byte	.LASF185
 3030 0d05 01       		.byte	0x1
 3031 0d06 C102     		.2byte	0x2c1
 3032 0d08 93050000 		.4byte	0x593
 3033 0d0c 46030000 		.4byte	.LLST12
 3034 0d10 20       		.uleb128 0x20
ARM GAS  /tmp/cc9hFd7n.s 			page 55


 3035 0d11 CE070000 		.4byte	.LASF189
 3036 0d15 01       		.byte	0x1
 3037 0d16 C102     		.2byte	0x2c1
 3038 0d18 CF060000 		.4byte	0x6cf
 3039 0d1c 67030000 		.4byte	.LLST13
 3040 0d20 00       		.byte	0
 3041 0d21 23       		.uleb128 0x23
 3042 0d22 42070000 		.4byte	.LASF192
 3043 0d26 07       		.byte	0x7
 3044 0d27 9806     		.2byte	0x698
 3045 0d29 3D030000 		.4byte	0x33d
 3046 0d2d 24       		.uleb128 0x24
 3047 0d2e B2020000 		.4byte	.LASF193
 3048 0d32 01       		.byte	0x1
 3049 0d33 2B       		.byte	0x2b
 3050 0d34 1D050000 		.4byte	0x51d
 3051 0d38 05       		.uleb128 0x5
 3052 0d39 03       		.byte	0x3
 3053 0d3a 00000000 		.4byte	PWMD1
 3054 0d3e 24       		.uleb128 0x24
 3055 0d3f B8020000 		.4byte	.LASF194
 3056 0d43 01       		.byte	0x1
 3057 0d44 33       		.byte	0x33
 3058 0d45 1D050000 		.4byte	0x51d
 3059 0d49 05       		.uleb128 0x5
 3060 0d4a 03       		.byte	0x3
 3061 0d4b 00000000 		.4byte	PWMD2
 3062 0d4f 24       		.uleb128 0x24
 3063 0d50 BE020000 		.4byte	.LASF195
 3064 0d54 01       		.byte	0x1
 3065 0d55 3B       		.byte	0x3b
 3066 0d56 1D050000 		.4byte	0x51d
 3067 0d5a 05       		.uleb128 0x5
 3068 0d5b 03       		.byte	0x3
 3069 0d5c 00000000 		.4byte	PWMD3
 3070 0d60 24       		.uleb128 0x24
 3071 0d61 C4020000 		.4byte	.LASF196
 3072 0d65 01       		.byte	0x1
 3073 0d66 43       		.byte	0x43
 3074 0d67 1D050000 		.4byte	0x51d
 3075 0d6b 05       		.uleb128 0x5
 3076 0d6c 03       		.byte	0x3
 3077 0d6d 00000000 		.4byte	PWMD4
 3078 0d71 24       		.uleb128 0x24
 3079 0d72 F1010000 		.4byte	.LASF197
 3080 0d76 01       		.byte	0x1
 3081 0d77 53       		.byte	0x53
 3082 0d78 1D050000 		.4byte	0x51d
 3083 0d7c 05       		.uleb128 0x5
 3084 0d7d 03       		.byte	0x3
 3085 0d7e 00000000 		.4byte	PWMD8
 3086 0d82 24       		.uleb128 0x24
 3087 0d83 EA020000 		.4byte	.LASF198
 3088 0d87 01       		.byte	0x1
 3089 0d88 5B       		.byte	0x5b
 3090 0d89 1D050000 		.4byte	0x51d
 3091 0d8d 05       		.uleb128 0x5
ARM GAS  /tmp/cc9hFd7n.s 			page 56


 3092 0d8e 03       		.byte	0x3
 3093 0d8f 00000000 		.4byte	PWMD9
 3094 0d93 25       		.uleb128 0x25
 3095 0d94 8E090000 		.4byte	.LASF206
 3096 0d98 09       		.byte	0x9
 3097 0d99 0302     		.2byte	0x203
 3098 0d9b 26       		.uleb128 0x26
 3099 0d9c 750A0000 		.4byte	.LASF199
 3100 0da0 04       		.byte	0x4
 3101 0da1 F3       		.byte	0xf3
 3102 0da2 AC0D0000 		.4byte	0xdac
 3103 0da6 12       		.uleb128 0x12
 3104 0da7 93050000 		.4byte	0x593
 3105 0dab 00       		.byte	0
 3106 0dac 27       		.uleb128 0x27
 3107 0dad 54010000 		.4byte	.LASF200
 3108 0db1 08       		.byte	0x8
 3109 0db2 2301     		.2byte	0x123
 3110 0db4 C30D0000 		.4byte	0xdc3
 3111 0db8 12       		.uleb128 0x12
 3112 0db9 77000000 		.4byte	0x77
 3113 0dbd 12       		.uleb128 0x12
 3114 0dbe 77000000 		.4byte	0x77
 3115 0dc2 00       		.byte	0
 3116 0dc3 28       		.uleb128 0x28
 3117 0dc4 3A080000 		.4byte	.LASF207
 3118 0dc8 08       		.byte	0x8
 3119 0dc9 2401     		.2byte	0x124
 3120 0dcb 12       		.uleb128 0x12
 3121 0dcc 77000000 		.4byte	0x77
 3122 0dd0 00       		.byte	0
 3123 0dd1 00       		.byte	0
 3124              		.section	.debug_abbrev,"",%progbits
 3125              	.Ldebug_abbrev0:
 3126 0000 01       		.uleb128 0x1
 3127 0001 11       		.uleb128 0x11
 3128 0002 01       		.byte	0x1
 3129 0003 25       		.uleb128 0x25
 3130 0004 0E       		.uleb128 0xe
 3131 0005 13       		.uleb128 0x13
 3132 0006 0B       		.uleb128 0xb
 3133 0007 03       		.uleb128 0x3
 3134 0008 0E       		.uleb128 0xe
 3135 0009 1B       		.uleb128 0x1b
 3136 000a 0E       		.uleb128 0xe
 3137 000b 55       		.uleb128 0x55
 3138 000c 17       		.uleb128 0x17
 3139 000d 11       		.uleb128 0x11
 3140 000e 01       		.uleb128 0x1
 3141 000f 10       		.uleb128 0x10
 3142 0010 17       		.uleb128 0x17
 3143 0011 00       		.byte	0
 3144 0012 00       		.byte	0
 3145 0013 02       		.uleb128 0x2
 3146 0014 24       		.uleb128 0x24
 3147 0015 00       		.byte	0
 3148 0016 0B       		.uleb128 0xb
ARM GAS  /tmp/cc9hFd7n.s 			page 57


 3149 0017 0B       		.uleb128 0xb
 3150 0018 3E       		.uleb128 0x3e
 3151 0019 0B       		.uleb128 0xb
 3152 001a 03       		.uleb128 0x3
 3153 001b 0E       		.uleb128 0xe
 3154 001c 00       		.byte	0
 3155 001d 00       		.byte	0
 3156 001e 03       		.uleb128 0x3
 3157 001f 24       		.uleb128 0x24
 3158 0020 00       		.byte	0
 3159 0021 0B       		.uleb128 0xb
 3160 0022 0B       		.uleb128 0xb
 3161 0023 3E       		.uleb128 0x3e
 3162 0024 0B       		.uleb128 0xb
 3163 0025 03       		.uleb128 0x3
 3164 0026 08       		.uleb128 0x8
 3165 0027 00       		.byte	0
 3166 0028 00       		.byte	0
 3167 0029 04       		.uleb128 0x4
 3168 002a 16       		.uleb128 0x16
 3169 002b 00       		.byte	0
 3170 002c 03       		.uleb128 0x3
 3171 002d 0E       		.uleb128 0xe
 3172 002e 3A       		.uleb128 0x3a
 3173 002f 0B       		.uleb128 0xb
 3174 0030 3B       		.uleb128 0x3b
 3175 0031 0B       		.uleb128 0xb
 3176 0032 49       		.uleb128 0x49
 3177 0033 13       		.uleb128 0x13
 3178 0034 00       		.byte	0
 3179 0035 00       		.byte	0
 3180 0036 05       		.uleb128 0x5
 3181 0037 35       		.uleb128 0x35
 3182 0038 00       		.byte	0
 3183 0039 49       		.uleb128 0x49
 3184 003a 13       		.uleb128 0x13
 3185 003b 00       		.byte	0
 3186 003c 00       		.byte	0
 3187 003d 06       		.uleb128 0x6
 3188 003e 04       		.uleb128 0x4
 3189 003f 01       		.byte	0x1
 3190 0040 03       		.uleb128 0x3
 3191 0041 0E       		.uleb128 0xe
 3192 0042 0B       		.uleb128 0xb
 3193 0043 0B       		.uleb128 0xb
 3194 0044 3A       		.uleb128 0x3a
 3195 0045 0B       		.uleb128 0xb
 3196 0046 3B       		.uleb128 0x3b
 3197 0047 0B       		.uleb128 0xb
 3198 0048 01       		.uleb128 0x1
 3199 0049 13       		.uleb128 0x13
 3200 004a 00       		.byte	0
 3201 004b 00       		.byte	0
 3202 004c 07       		.uleb128 0x7
 3203 004d 28       		.uleb128 0x28
 3204 004e 00       		.byte	0
 3205 004f 03       		.uleb128 0x3
ARM GAS  /tmp/cc9hFd7n.s 			page 58


 3206 0050 0E       		.uleb128 0xe
 3207 0051 1C       		.uleb128 0x1c
 3208 0052 0D       		.uleb128 0xd
 3209 0053 00       		.byte	0
 3210 0054 00       		.byte	0
 3211 0055 08       		.uleb128 0x8
 3212 0056 01       		.uleb128 0x1
 3213 0057 01       		.byte	0x1
 3214 0058 49       		.uleb128 0x49
 3215 0059 13       		.uleb128 0x13
 3216 005a 01       		.uleb128 0x1
 3217 005b 13       		.uleb128 0x13
 3218 005c 00       		.byte	0
 3219 005d 00       		.byte	0
 3220 005e 09       		.uleb128 0x9
 3221 005f 21       		.uleb128 0x21
 3222 0060 00       		.byte	0
 3223 0061 49       		.uleb128 0x49
 3224 0062 13       		.uleb128 0x13
 3225 0063 2F       		.uleb128 0x2f
 3226 0064 0B       		.uleb128 0xb
 3227 0065 00       		.byte	0
 3228 0066 00       		.byte	0
 3229 0067 0A       		.uleb128 0xa
 3230 0068 13       		.uleb128 0x13
 3231 0069 01       		.byte	0x1
 3232 006a 0B       		.uleb128 0xb
 3233 006b 0B       		.uleb128 0xb
 3234 006c 3A       		.uleb128 0x3a
 3235 006d 0B       		.uleb128 0xb
 3236 006e 3B       		.uleb128 0x3b
 3237 006f 05       		.uleb128 0x5
 3238 0070 01       		.uleb128 0x1
 3239 0071 13       		.uleb128 0x13
 3240 0072 00       		.byte	0
 3241 0073 00       		.byte	0
 3242 0074 0B       		.uleb128 0xb
 3243 0075 0D       		.uleb128 0xd
 3244 0076 00       		.byte	0
 3245 0077 03       		.uleb128 0x3
 3246 0078 08       		.uleb128 0x8
 3247 0079 3A       		.uleb128 0x3a
 3248 007a 0B       		.uleb128 0xb
 3249 007b 3B       		.uleb128 0x3b
 3250 007c 05       		.uleb128 0x5
 3251 007d 49       		.uleb128 0x49
 3252 007e 13       		.uleb128 0x13
 3253 007f 38       		.uleb128 0x38
 3254 0080 0B       		.uleb128 0xb
 3255 0081 00       		.byte	0
 3256 0082 00       		.byte	0
 3257 0083 0C       		.uleb128 0xc
 3258 0084 0D       		.uleb128 0xd
 3259 0085 00       		.byte	0
 3260 0086 03       		.uleb128 0x3
 3261 0087 0E       		.uleb128 0xe
 3262 0088 3A       		.uleb128 0x3a
ARM GAS  /tmp/cc9hFd7n.s 			page 59


 3263 0089 0B       		.uleb128 0xb
 3264 008a 3B       		.uleb128 0x3b
 3265 008b 05       		.uleb128 0x5
 3266 008c 49       		.uleb128 0x49
 3267 008d 13       		.uleb128 0x13
 3268 008e 38       		.uleb128 0x38
 3269 008f 0B       		.uleb128 0xb
 3270 0090 00       		.byte	0
 3271 0091 00       		.byte	0
 3272 0092 0D       		.uleb128 0xd
 3273 0093 16       		.uleb128 0x16
 3274 0094 00       		.byte	0
 3275 0095 03       		.uleb128 0x3
 3276 0096 0E       		.uleb128 0xe
 3277 0097 3A       		.uleb128 0x3a
 3278 0098 0B       		.uleb128 0xb
 3279 0099 3B       		.uleb128 0x3b
 3280 009a 05       		.uleb128 0x5
 3281 009b 49       		.uleb128 0x49
 3282 009c 13       		.uleb128 0x13
 3283 009d 00       		.byte	0
 3284 009e 00       		.byte	0
 3285 009f 0E       		.uleb128 0xe
 3286 00a0 04       		.uleb128 0x4
 3287 00a1 01       		.byte	0x1
 3288 00a2 0B       		.uleb128 0xb
 3289 00a3 0B       		.uleb128 0xb
 3290 00a4 3A       		.uleb128 0x3a
 3291 00a5 0B       		.uleb128 0xb
 3292 00a6 3B       		.uleb128 0x3b
 3293 00a7 0B       		.uleb128 0xb
 3294 00a8 01       		.uleb128 0x1
 3295 00a9 13       		.uleb128 0x13
 3296 00aa 00       		.byte	0
 3297 00ab 00       		.byte	0
 3298 00ac 0F       		.uleb128 0xf
 3299 00ad 13       		.uleb128 0x13
 3300 00ae 01       		.byte	0x1
 3301 00af 03       		.uleb128 0x3
 3302 00b0 0E       		.uleb128 0xe
 3303 00b1 0B       		.uleb128 0xb
 3304 00b2 0B       		.uleb128 0xb
 3305 00b3 3A       		.uleb128 0x3a
 3306 00b4 0B       		.uleb128 0xb
 3307 00b5 3B       		.uleb128 0x3b
 3308 00b6 05       		.uleb128 0x5
 3309 00b7 01       		.uleb128 0x1
 3310 00b8 13       		.uleb128 0x13
 3311 00b9 00       		.byte	0
 3312 00ba 00       		.byte	0
 3313 00bb 10       		.uleb128 0x10
 3314 00bc 0F       		.uleb128 0xf
 3315 00bd 00       		.byte	0
 3316 00be 0B       		.uleb128 0xb
 3317 00bf 0B       		.uleb128 0xb
 3318 00c0 49       		.uleb128 0x49
 3319 00c1 13       		.uleb128 0x13
ARM GAS  /tmp/cc9hFd7n.s 			page 60


 3320 00c2 00       		.byte	0
 3321 00c3 00       		.byte	0
 3322 00c4 11       		.uleb128 0x11
 3323 00c5 15       		.uleb128 0x15
 3324 00c6 01       		.byte	0x1
 3325 00c7 27       		.uleb128 0x27
 3326 00c8 19       		.uleb128 0x19
 3327 00c9 01       		.uleb128 0x1
 3328 00ca 13       		.uleb128 0x13
 3329 00cb 00       		.byte	0
 3330 00cc 00       		.byte	0
 3331 00cd 12       		.uleb128 0x12
 3332 00ce 05       		.uleb128 0x5
 3333 00cf 00       		.byte	0
 3334 00d0 49       		.uleb128 0x49
 3335 00d1 13       		.uleb128 0x13
 3336 00d2 00       		.byte	0
 3337 00d3 00       		.byte	0
 3338 00d4 13       		.uleb128 0x13
 3339 00d5 26       		.uleb128 0x26
 3340 00d6 00       		.byte	0
 3341 00d7 49       		.uleb128 0x49
 3342 00d8 13       		.uleb128 0x13
 3343 00d9 00       		.byte	0
 3344 00da 00       		.byte	0
 3345 00db 14       		.uleb128 0x14
 3346 00dc 2E       		.uleb128 0x2e
 3347 00dd 01       		.byte	0x1
 3348 00de 03       		.uleb128 0x3
 3349 00df 0E       		.uleb128 0xe
 3350 00e0 3A       		.uleb128 0x3a
 3351 00e1 0B       		.uleb128 0xb
 3352 00e2 3B       		.uleb128 0x3b
 3353 00e3 0B       		.uleb128 0xb
 3354 00e4 27       		.uleb128 0x27
 3355 00e5 19       		.uleb128 0x19
 3356 00e6 11       		.uleb128 0x11
 3357 00e7 01       		.uleb128 0x1
 3358 00e8 12       		.uleb128 0x12
 3359 00e9 06       		.uleb128 0x6
 3360 00ea 40       		.uleb128 0x40
 3361 00eb 18       		.uleb128 0x18
 3362 00ec 9742     		.uleb128 0x2117
 3363 00ee 19       		.uleb128 0x19
 3364 00ef 01       		.uleb128 0x1
 3365 00f0 13       		.uleb128 0x13
 3366 00f1 00       		.byte	0
 3367 00f2 00       		.byte	0
 3368 00f3 15       		.uleb128 0x15
 3369 00f4 05       		.uleb128 0x5
 3370 00f5 00       		.byte	0
 3371 00f6 03       		.uleb128 0x3
 3372 00f7 0E       		.uleb128 0xe
 3373 00f8 3A       		.uleb128 0x3a
 3374 00f9 0B       		.uleb128 0xb
 3375 00fa 3B       		.uleb128 0x3b
 3376 00fb 0B       		.uleb128 0xb
ARM GAS  /tmp/cc9hFd7n.s 			page 61


 3377 00fc 49       		.uleb128 0x49
 3378 00fd 13       		.uleb128 0x13
 3379 00fe 02       		.uleb128 0x2
 3380 00ff 17       		.uleb128 0x17
 3381 0100 00       		.byte	0
 3382 0101 00       		.byte	0
 3383 0102 16       		.uleb128 0x16
 3384 0103 34       		.uleb128 0x34
 3385 0104 00       		.byte	0
 3386 0105 03       		.uleb128 0x3
 3387 0106 08       		.uleb128 0x8
 3388 0107 3A       		.uleb128 0x3a
 3389 0108 0B       		.uleb128 0xb
 3390 0109 3B       		.uleb128 0x3b
 3391 010a 0B       		.uleb128 0xb
 3392 010b 49       		.uleb128 0x49
 3393 010c 13       		.uleb128 0x13
 3394 010d 02       		.uleb128 0x2
 3395 010e 17       		.uleb128 0x17
 3396 010f 00       		.byte	0
 3397 0110 00       		.byte	0
 3398 0111 17       		.uleb128 0x17
 3399 0112 898201   		.uleb128 0x4109
 3400 0115 01       		.byte	0x1
 3401 0116 11       		.uleb128 0x11
 3402 0117 01       		.uleb128 0x1
 3403 0118 01       		.uleb128 0x1
 3404 0119 13       		.uleb128 0x13
 3405 011a 00       		.byte	0
 3406 011b 00       		.byte	0
 3407 011c 18       		.uleb128 0x18
 3408 011d 8A8201   		.uleb128 0x410a
 3409 0120 00       		.byte	0
 3410 0121 02       		.uleb128 0x2
 3411 0122 18       		.uleb128 0x18
 3412 0123 9142     		.uleb128 0x2111
 3413 0125 18       		.uleb128 0x18
 3414 0126 00       		.byte	0
 3415 0127 00       		.byte	0
 3416 0128 19       		.uleb128 0x19
 3417 0129 898201   		.uleb128 0x4109
 3418 012c 01       		.byte	0x1
 3419 012d 11       		.uleb128 0x11
 3420 012e 01       		.uleb128 0x1
 3421 012f 00       		.byte	0
 3422 0130 00       		.byte	0
 3423 0131 1A       		.uleb128 0x1a
 3424 0132 2E       		.uleb128 0x2e
 3425 0133 01       		.byte	0x1
 3426 0134 3F       		.uleb128 0x3f
 3427 0135 19       		.uleb128 0x19
 3428 0136 03       		.uleb128 0x3
 3429 0137 0E       		.uleb128 0xe
 3430 0138 3A       		.uleb128 0x3a
 3431 0139 0B       		.uleb128 0xb
 3432 013a 3B       		.uleb128 0x3b
 3433 013b 0B       		.uleb128 0xb
ARM GAS  /tmp/cc9hFd7n.s 			page 62


 3434 013c 27       		.uleb128 0x27
 3435 013d 19       		.uleb128 0x19
 3436 013e 11       		.uleb128 0x11
 3437 013f 01       		.uleb128 0x1
 3438 0140 12       		.uleb128 0x12
 3439 0141 06       		.uleb128 0x6
 3440 0142 40       		.uleb128 0x40
 3441 0143 18       		.uleb128 0x18
 3442 0144 9742     		.uleb128 0x2117
 3443 0146 19       		.uleb128 0x19
 3444 0147 01       		.uleb128 0x1
 3445 0148 13       		.uleb128 0x13
 3446 0149 00       		.byte	0
 3447 014a 00       		.byte	0
 3448 014b 1B       		.uleb128 0x1b
 3449 014c 898201   		.uleb128 0x4109
 3450 014f 00       		.byte	0
 3451 0150 11       		.uleb128 0x11
 3452 0151 01       		.uleb128 0x1
 3453 0152 9542     		.uleb128 0x2115
 3454 0154 19       		.uleb128 0x19
 3455 0155 31       		.uleb128 0x31
 3456 0156 13       		.uleb128 0x13
 3457 0157 00       		.byte	0
 3458 0158 00       		.byte	0
 3459 0159 1C       		.uleb128 0x1c
 3460 015a 898201   		.uleb128 0x4109
 3461 015d 01       		.byte	0x1
 3462 015e 11       		.uleb128 0x11
 3463 015f 01       		.uleb128 0x1
 3464 0160 31       		.uleb128 0x31
 3465 0161 13       		.uleb128 0x13
 3466 0162 01       		.uleb128 0x1
 3467 0163 13       		.uleb128 0x13
 3468 0164 00       		.byte	0
 3469 0165 00       		.byte	0
 3470 0166 1D       		.uleb128 0x1d
 3471 0167 2E       		.uleb128 0x2e
 3472 0168 01       		.byte	0x1
 3473 0169 3F       		.uleb128 0x3f
 3474 016a 19       		.uleb128 0x19
 3475 016b 03       		.uleb128 0x3
 3476 016c 0E       		.uleb128 0xe
 3477 016d 3A       		.uleb128 0x3a
 3478 016e 0B       		.uleb128 0xb
 3479 016f 3B       		.uleb128 0x3b
 3480 0170 05       		.uleb128 0x5
 3481 0171 27       		.uleb128 0x27
 3482 0172 19       		.uleb128 0x19
 3483 0173 11       		.uleb128 0x11
 3484 0174 01       		.uleb128 0x1
 3485 0175 12       		.uleb128 0x12
 3486 0176 06       		.uleb128 0x6
 3487 0177 40       		.uleb128 0x40
 3488 0178 18       		.uleb128 0x18
 3489 0179 9742     		.uleb128 0x2117
 3490 017b 19       		.uleb128 0x19
ARM GAS  /tmp/cc9hFd7n.s 			page 63


 3491 017c 01       		.uleb128 0x1
 3492 017d 13       		.uleb128 0x13
 3493 017e 00       		.byte	0
 3494 017f 00       		.byte	0
 3495 0180 1E       		.uleb128 0x1e
 3496 0181 34       		.uleb128 0x34
 3497 0182 00       		.byte	0
 3498 0183 03       		.uleb128 0x3
 3499 0184 08       		.uleb128 0x8
 3500 0185 3A       		.uleb128 0x3a
 3501 0186 0B       		.uleb128 0xb
 3502 0187 3B       		.uleb128 0x3b
 3503 0188 05       		.uleb128 0x5
 3504 0189 49       		.uleb128 0x49
 3505 018a 13       		.uleb128 0x13
 3506 018b 02       		.uleb128 0x2
 3507 018c 17       		.uleb128 0x17
 3508 018d 00       		.byte	0
 3509 018e 00       		.byte	0
 3510 018f 1F       		.uleb128 0x1f
 3511 0190 898201   		.uleb128 0x4109
 3512 0193 01       		.byte	0x1
 3513 0194 11       		.uleb128 0x11
 3514 0195 01       		.uleb128 0x1
 3515 0196 31       		.uleb128 0x31
 3516 0197 13       		.uleb128 0x13
 3517 0198 00       		.byte	0
 3518 0199 00       		.byte	0
 3519 019a 20       		.uleb128 0x20
 3520 019b 05       		.uleb128 0x5
 3521 019c 00       		.byte	0
 3522 019d 03       		.uleb128 0x3
 3523 019e 0E       		.uleb128 0xe
 3524 019f 3A       		.uleb128 0x3a
 3525 01a0 0B       		.uleb128 0xb
 3526 01a1 3B       		.uleb128 0x3b
 3527 01a2 05       		.uleb128 0x5
 3528 01a3 49       		.uleb128 0x49
 3529 01a4 13       		.uleb128 0x13
 3530 01a5 02       		.uleb128 0x2
 3531 01a6 17       		.uleb128 0x17
 3532 01a7 00       		.byte	0
 3533 01a8 00       		.byte	0
 3534 01a9 21       		.uleb128 0x21
 3535 01aa 34       		.uleb128 0x34
 3536 01ab 00       		.byte	0
 3537 01ac 03       		.uleb128 0x3
 3538 01ad 0E       		.uleb128 0xe
 3539 01ae 3A       		.uleb128 0x3a
 3540 01af 0B       		.uleb128 0xb
 3541 01b0 3B       		.uleb128 0x3b
 3542 01b1 05       		.uleb128 0x5
 3543 01b2 49       		.uleb128 0x49
 3544 01b3 13       		.uleb128 0x13
 3545 01b4 02       		.uleb128 0x2
 3546 01b5 17       		.uleb128 0x17
 3547 01b6 00       		.byte	0
ARM GAS  /tmp/cc9hFd7n.s 			page 64


 3548 01b7 00       		.byte	0
 3549 01b8 22       		.uleb128 0x22
 3550 01b9 0B       		.uleb128 0xb
 3551 01ba 01       		.byte	0x1
 3552 01bb 11       		.uleb128 0x11
 3553 01bc 01       		.uleb128 0x1
 3554 01bd 12       		.uleb128 0x12
 3555 01be 06       		.uleb128 0x6
 3556 01bf 00       		.byte	0
 3557 01c0 00       		.byte	0
 3558 01c1 23       		.uleb128 0x23
 3559 01c2 34       		.uleb128 0x34
 3560 01c3 00       		.byte	0
 3561 01c4 03       		.uleb128 0x3
 3562 01c5 0E       		.uleb128 0xe
 3563 01c6 3A       		.uleb128 0x3a
 3564 01c7 0B       		.uleb128 0xb
 3565 01c8 3B       		.uleb128 0x3b
 3566 01c9 05       		.uleb128 0x5
 3567 01ca 49       		.uleb128 0x49
 3568 01cb 13       		.uleb128 0x13
 3569 01cc 3F       		.uleb128 0x3f
 3570 01cd 19       		.uleb128 0x19
 3571 01ce 3C       		.uleb128 0x3c
 3572 01cf 19       		.uleb128 0x19
 3573 01d0 00       		.byte	0
 3574 01d1 00       		.byte	0
 3575 01d2 24       		.uleb128 0x24
 3576 01d3 34       		.uleb128 0x34
 3577 01d4 00       		.byte	0
 3578 01d5 03       		.uleb128 0x3
 3579 01d6 0E       		.uleb128 0xe
 3580 01d7 3A       		.uleb128 0x3a
 3581 01d8 0B       		.uleb128 0xb
 3582 01d9 3B       		.uleb128 0x3b
 3583 01da 0B       		.uleb128 0xb
 3584 01db 49       		.uleb128 0x49
 3585 01dc 13       		.uleb128 0x13
 3586 01dd 3F       		.uleb128 0x3f
 3587 01de 19       		.uleb128 0x19
 3588 01df 02       		.uleb128 0x2
 3589 01e0 18       		.uleb128 0x18
 3590 01e1 00       		.byte	0
 3591 01e2 00       		.byte	0
 3592 01e3 25       		.uleb128 0x25
 3593 01e4 2E       		.uleb128 0x2e
 3594 01e5 00       		.byte	0
 3595 01e6 3F       		.uleb128 0x3f
 3596 01e7 19       		.uleb128 0x19
 3597 01e8 03       		.uleb128 0x3
 3598 01e9 0E       		.uleb128 0xe
 3599 01ea 3A       		.uleb128 0x3a
 3600 01eb 0B       		.uleb128 0xb
 3601 01ec 3B       		.uleb128 0x3b
 3602 01ed 05       		.uleb128 0x5
 3603 01ee 27       		.uleb128 0x27
 3604 01ef 19       		.uleb128 0x19
ARM GAS  /tmp/cc9hFd7n.s 			page 65


 3605 01f0 3C       		.uleb128 0x3c
 3606 01f1 19       		.uleb128 0x19
 3607 01f2 00       		.byte	0
 3608 01f3 00       		.byte	0
 3609 01f4 26       		.uleb128 0x26
 3610 01f5 2E       		.uleb128 0x2e
 3611 01f6 01       		.byte	0x1
 3612 01f7 3F       		.uleb128 0x3f
 3613 01f8 19       		.uleb128 0x19
 3614 01f9 03       		.uleb128 0x3
 3615 01fa 0E       		.uleb128 0xe
 3616 01fb 3A       		.uleb128 0x3a
 3617 01fc 0B       		.uleb128 0xb
 3618 01fd 3B       		.uleb128 0x3b
 3619 01fe 0B       		.uleb128 0xb
 3620 01ff 27       		.uleb128 0x27
 3621 0200 19       		.uleb128 0x19
 3622 0201 3C       		.uleb128 0x3c
 3623 0202 19       		.uleb128 0x19
 3624 0203 01       		.uleb128 0x1
 3625 0204 13       		.uleb128 0x13
 3626 0205 00       		.byte	0
 3627 0206 00       		.byte	0
 3628 0207 27       		.uleb128 0x27
 3629 0208 2E       		.uleb128 0x2e
 3630 0209 01       		.byte	0x1
 3631 020a 3F       		.uleb128 0x3f
 3632 020b 19       		.uleb128 0x19
 3633 020c 03       		.uleb128 0x3
 3634 020d 0E       		.uleb128 0xe
 3635 020e 3A       		.uleb128 0x3a
 3636 020f 0B       		.uleb128 0xb
 3637 0210 3B       		.uleb128 0x3b
 3638 0211 05       		.uleb128 0x5
 3639 0212 27       		.uleb128 0x27
 3640 0213 19       		.uleb128 0x19
 3641 0214 3C       		.uleb128 0x3c
 3642 0215 19       		.uleb128 0x19
 3643 0216 01       		.uleb128 0x1
 3644 0217 13       		.uleb128 0x13
 3645 0218 00       		.byte	0
 3646 0219 00       		.byte	0
 3647 021a 28       		.uleb128 0x28
 3648 021b 2E       		.uleb128 0x2e
 3649 021c 01       		.byte	0x1
 3650 021d 3F       		.uleb128 0x3f
 3651 021e 19       		.uleb128 0x19
 3652 021f 03       		.uleb128 0x3
 3653 0220 0E       		.uleb128 0xe
 3654 0221 3A       		.uleb128 0x3a
 3655 0222 0B       		.uleb128 0xb
 3656 0223 3B       		.uleb128 0x3b
 3657 0224 05       		.uleb128 0x5
 3658 0225 27       		.uleb128 0x27
 3659 0226 19       		.uleb128 0x19
 3660 0227 3C       		.uleb128 0x3c
 3661 0228 19       		.uleb128 0x19
ARM GAS  /tmp/cc9hFd7n.s 			page 66


 3662 0229 00       		.byte	0
 3663 022a 00       		.byte	0
 3664 022b 00       		.byte	0
 3665              		.section	.debug_loc,"",%progbits
 3666              	.Ldebug_loc0:
 3667              	.LLST0:
 3668 0000 00000000 		.4byte	.LVL0
 3669 0004 18000000 		.4byte	.LVL3
 3670 0008 0100     		.2byte	0x1
 3671 000a 50       		.byte	0x50
 3672 000b 18000000 		.4byte	.LVL3
 3673 000f 50000000 		.4byte	.LVL9
 3674 0013 0100     		.2byte	0x1
 3675 0015 55       		.byte	0x55
 3676 0016 50000000 		.4byte	.LVL9
 3677 001a 55000000 		.4byte	.LVL10-1
 3678 001e 0100     		.2byte	0x1
 3679 0020 50       		.byte	0x50
 3680 0021 55000000 		.4byte	.LVL10-1
 3681 0025 58000000 		.4byte	.LFE118
 3682 0029 0100     		.2byte	0x1
 3683 002b 55       		.byte	0x55
 3684 002c 00000000 		.4byte	0
 3685 0030 00000000 		.4byte	0
 3686              	.LLST1:
 3687 0034 06000000 		.4byte	.LVL1
 3688 0038 0C000000 		.4byte	.LVL2
 3689 003c 0100     		.2byte	0x1
 3690 003e 52       		.byte	0x52
 3691 003f 0C000000 		.4byte	.LVL2
 3692 0043 58000000 		.4byte	.LFE118
 3693 0047 0600     		.2byte	0x6
 3694 0049 74       		.byte	0x74
 3695 004a 00       		.sleb128 0
 3696 004b 08       		.byte	0x8
 3697 004c FF       		.byte	0xff
 3698 004d 1A       		.byte	0x1a
 3699 004e 9F       		.byte	0x9f
 3700 004f 00000000 		.4byte	0
 3701 0053 00000000 		.4byte	0
 3702              	.LLST2:
 3703 0057 0C000000 		.4byte	.LVL13
 3704 005b 2E000000 		.4byte	.LVL15
 3705 005f 0600     		.2byte	0x6
 3706 0061 74       		.byte	0x74
 3707 0062 00       		.sleb128 0
 3708 0063 08       		.byte	0x8
 3709 0064 FF       		.byte	0xff
 3710 0065 1A       		.byte	0x1a
 3711 0066 9F       		.byte	0x9f
 3712 0067 32000000 		.4byte	.LVL16
 3713 006b 58000000 		.4byte	.LFE120
 3714 006f 0600     		.2byte	0x6
 3715 0071 74       		.byte	0x74
 3716 0072 00       		.sleb128 0
 3717 0073 08       		.byte	0x8
 3718 0074 FF       		.byte	0xff
ARM GAS  /tmp/cc9hFd7n.s 			page 67


 3719 0075 1A       		.byte	0x1a
 3720 0076 9F       		.byte	0x9f
 3721 0077 00000000 		.4byte	0
 3722 007b 00000000 		.4byte	0
 3723              	.LLST3:
 3724 007f 0C000000 		.4byte	.LVL28
 3725 0083 2E000000 		.4byte	.LVL30
 3726 0087 0600     		.2byte	0x6
 3727 0089 74       		.byte	0x74
 3728 008a 00       		.sleb128 0
 3729 008b 08       		.byte	0x8
 3730 008c FF       		.byte	0xff
 3731 008d 1A       		.byte	0x1a
 3732 008e 9F       		.byte	0x9f
 3733 008f 32000000 		.4byte	.LVL31
 3734 0093 58000000 		.4byte	.LFE125
 3735 0097 0600     		.2byte	0x6
 3736 0099 74       		.byte	0x74
 3737 009a 00       		.sleb128 0
 3738 009b 08       		.byte	0x8
 3739 009c FF       		.byte	0xff
 3740 009d 1A       		.byte	0x1a
 3741 009e 9F       		.byte	0x9f
 3742 009f 00000000 		.4byte	0
 3743 00a3 00000000 		.4byte	0
 3744              	.LLST4:
 3745 00a7 00000000 		.4byte	.LVL43
 3746 00ab 1A000000 		.4byte	.LVL44
 3747 00af 0100     		.2byte	0x1
 3748 00b1 50       		.byte	0x50
 3749 00b2 1A000000 		.4byte	.LVL44
 3750 00b6 A2000000 		.4byte	.LVL57
 3751 00ba 0100     		.2byte	0x1
 3752 00bc 54       		.byte	0x54
 3753 00bd A2000000 		.4byte	.LVL57
 3754 00c1 C2000000 		.4byte	.LVL58
 3755 00c5 0400     		.2byte	0x4
 3756 00c7 F3       		.byte	0xf3
 3757 00c8 01       		.uleb128 0x1
 3758 00c9 50       		.byte	0x50
 3759 00ca 9F       		.byte	0x9f
 3760 00cb C2000000 		.4byte	.LVL58
 3761 00cf 22010000 		.4byte	.LVL74
 3762 00d3 0100     		.2byte	0x1
 3763 00d5 54       		.byte	0x54
 3764 00d6 22010000 		.4byte	.LVL74
 3765 00da 40010000 		.4byte	.LVL75
 3766 00de 0100     		.2byte	0x1
 3767 00e0 50       		.byte	0x50
 3768 00e1 40010000 		.4byte	.LVL75
 3769 00e5 76010000 		.4byte	.LVL83
 3770 00e9 0100     		.2byte	0x1
 3771 00eb 54       		.byte	0x54
 3772 00ec 76010000 		.4byte	.LVL83
 3773 00f0 8C010000 		.4byte	.LVL84
 3774 00f4 0100     		.2byte	0x1
 3775 00f6 50       		.byte	0x50
ARM GAS  /tmp/cc9hFd7n.s 			page 68


 3776 00f7 8C010000 		.4byte	.LVL84
 3777 00fb A2010000 		.4byte	.LVL87
 3778 00ff 0100     		.2byte	0x1
 3779 0101 54       		.byte	0x54
 3780 0102 A2010000 		.4byte	.LVL87
 3781 0106 B8010000 		.4byte	.LVL88
 3782 010a 0100     		.2byte	0x1
 3783 010c 50       		.byte	0x50
 3784 010d B8010000 		.4byte	.LVL88
 3785 0111 CE010000 		.4byte	.LVL91
 3786 0115 0100     		.2byte	0x1
 3787 0117 54       		.byte	0x54
 3788 0118 CE010000 		.4byte	.LVL91
 3789 011c E4010000 		.4byte	.LVL92
 3790 0120 0100     		.2byte	0x1
 3791 0122 50       		.byte	0x50
 3792 0123 E4010000 		.4byte	.LVL92
 3793 0127 F2010000 		.4byte	.LVL94
 3794 012b 0100     		.2byte	0x1
 3795 012d 54       		.byte	0x54
 3796 012e F2010000 		.4byte	.LVL94
 3797 0132 08020000 		.4byte	.LVL95
 3798 0136 0100     		.2byte	0x1
 3799 0138 50       		.byte	0x50
 3800 0139 08020000 		.4byte	.LVL95
 3801 013d 16020000 		.4byte	.LVL97
 3802 0141 0100     		.2byte	0x1
 3803 0143 54       		.byte	0x54
 3804 0144 16020000 		.4byte	.LVL97
 3805 0148 2C020000 		.4byte	.LVL98
 3806 014c 0100     		.2byte	0x1
 3807 014e 50       		.byte	0x50
 3808 014f 2C020000 		.4byte	.LVL98
 3809 0153 78020000 		.4byte	.LFE128
 3810 0157 0100     		.2byte	0x1
 3811 0159 54       		.byte	0x54
 3812 015a 00000000 		.4byte	0
 3813 015e 00000000 		.4byte	0
 3814              	.LLST5:
 3815 0162 2C000000 		.4byte	.LVL45
 3816 0166 40000000 		.4byte	.LVL46
 3817 016a 1000     		.2byte	0x10
 3818 016c 74       		.byte	0x74
 3819 016d 0C       		.sleb128 12
 3820 016e 06       		.byte	0x6
 3821 016f F7       		.byte	0xf7
 3822 0170 25       		.uleb128 0x25
 3823 0171 71       		.byte	0x71
 3824 0172 00       		.sleb128 0
 3825 0173 06       		.byte	0x6
 3826 0174 F7       		.byte	0xf7
 3827 0175 25       		.uleb128 0x25
 3828 0176 1B       		.byte	0x1b
 3829 0177 F7       		.byte	0xf7
 3830 0178 00       		.uleb128 0
 3831 0179 31       		.byte	0x31
 3832 017a 1C       		.byte	0x1c
ARM GAS  /tmp/cc9hFd7n.s 			page 69


 3833 017b 9F       		.byte	0x9f
 3834 017c 40000000 		.4byte	.LVL46
 3835 0180 4C000000 		.4byte	.LVL47
 3836 0184 0100     		.2byte	0x1
 3837 0186 5C       		.byte	0x5c
 3838 0187 4C000000 		.4byte	.LVL47
 3839 018b 54000000 		.4byte	.LVL48
 3840 018f 1000     		.2byte	0x10
 3841 0191 74       		.byte	0x74
 3842 0192 0C       		.sleb128 12
 3843 0193 06       		.byte	0x6
 3844 0194 F7       		.byte	0xf7
 3845 0195 25       		.uleb128 0x25
 3846 0196 71       		.byte	0x71
 3847 0197 00       		.sleb128 0
 3848 0198 06       		.byte	0x6
 3849 0199 F7       		.byte	0xf7
 3850 019a 25       		.uleb128 0x25
 3851 019b 1B       		.byte	0x1b
 3852 019c F7       		.byte	0xf7
 3853 019d 00       		.uleb128 0
 3854 019e 31       		.byte	0x31
 3855 019f 1C       		.byte	0x1c
 3856 01a0 9F       		.byte	0x9f
 3857 01a1 00000000 		.4byte	0
 3858 01a5 00000000 		.4byte	0
 3859              	.LLST6:
 3860 01a9 58000000 		.4byte	.LVL49
 3861 01ad 62000000 		.4byte	.LVL50
 3862 01b1 0200     		.2byte	0x2
 3863 01b3 30       		.byte	0x30
 3864 01b4 9F       		.byte	0x9f
 3865 01b5 62000000 		.4byte	.LVL50
 3866 01b9 8A000000 		.4byte	.LVL52
 3867 01bd 0100     		.2byte	0x1
 3868 01bf 52       		.byte	0x52
 3869 01c0 8E000000 		.4byte	.LVL53
 3870 01c4 92000000 		.4byte	.LVL54
 3871 01c8 0100     		.2byte	0x1
 3872 01ca 52       		.byte	0x52
 3873 01cb 98000000 		.4byte	.LVL55
 3874 01cf A0000000 		.4byte	.LVL56
 3875 01d3 0100     		.2byte	0x1
 3876 01d5 52       		.byte	0x52
 3877 01d6 C2000000 		.4byte	.LVL58
 3878 01da DC000000 		.4byte	.LVL63
 3879 01de 0100     		.2byte	0x1
 3880 01e0 52       		.byte	0x52
 3881 01e1 E8000000 		.4byte	.LVL64
 3882 01e5 F2000000 		.4byte	.LVL65
 3883 01e9 0100     		.2byte	0x1
 3884 01eb 52       		.byte	0x52
 3885 01ec F8000000 		.4byte	.LVL66
 3886 01f0 18010000 		.4byte	.LVL71
 3887 01f4 0100     		.2byte	0x1
 3888 01f6 52       		.byte	0x52
 3889 01f7 1C010000 		.4byte	.LVL72
ARM GAS  /tmp/cc9hFd7n.s 			page 70


 3890 01fb 22010000 		.4byte	.LVL74
 3891 01ff 0100     		.2byte	0x1
 3892 0201 52       		.byte	0x52
 3893 0202 58010000 		.4byte	.LVL76
 3894 0206 6C010000 		.4byte	.LVL80
 3895 020a 0100     		.2byte	0x1
 3896 020c 52       		.byte	0x52
 3897 020d 70010000 		.4byte	.LVL81
 3898 0211 76010000 		.4byte	.LVL83
 3899 0215 0100     		.2byte	0x1
 3900 0217 52       		.byte	0x52
 3901 0218 00000000 		.4byte	0
 3902 021c 00000000 		.4byte	0
 3903              	.LLST7:
 3904 0220 00000000 		.4byte	.LVL100
 3905 0224 0A000000 		.4byte	.LVL101
 3906 0228 0100     		.2byte	0x1
 3907 022a 50       		.byte	0x50
 3908 022b 0A000000 		.4byte	.LVL101
 3909 022f 0C000000 		.4byte	.LVL102
 3910 0233 0100     		.2byte	0x1
 3911 0235 54       		.byte	0x54
 3912 0236 0C000000 		.4byte	.LVL102
 3913 023a 36000000 		.4byte	.LVL103
 3914 023e 0100     		.2byte	0x1
 3915 0240 50       		.byte	0x50
 3916 0241 36000000 		.4byte	.LVL103
 3917 0245 4E000000 		.4byte	.LVL105
 3918 0249 0100     		.2byte	0x1
 3919 024b 54       		.byte	0x54
 3920 024c 4E000000 		.4byte	.LVL105
 3921 0250 50000000 		.4byte	.LVL106
 3922 0254 0100     		.2byte	0x1
 3923 0256 50       		.byte	0x50
 3924 0257 50000000 		.4byte	.LVL106
 3925 025b 66000000 		.4byte	.LVL109
 3926 025f 0100     		.2byte	0x1
 3927 0261 54       		.byte	0x54
 3928 0262 66000000 		.4byte	.LVL109
 3929 0266 68000000 		.4byte	.LVL110
 3930 026a 0100     		.2byte	0x1
 3931 026c 50       		.byte	0x50
 3932 026d 68000000 		.4byte	.LVL110
 3933 0271 78000000 		.4byte	.LVL112
 3934 0275 0100     		.2byte	0x1
 3935 0277 54       		.byte	0x54
 3936 0278 78000000 		.4byte	.LVL112
 3937 027c 7A000000 		.4byte	.LVL113
 3938 0280 0100     		.2byte	0x1
 3939 0282 50       		.byte	0x50
 3940 0283 7A000000 		.4byte	.LVL113
 3941 0287 8A000000 		.4byte	.LVL115
 3942 028b 0100     		.2byte	0x1
 3943 028d 54       		.byte	0x54
 3944 028e 8A000000 		.4byte	.LVL115
 3945 0292 8C000000 		.4byte	.LVL116
 3946 0296 0100     		.2byte	0x1
ARM GAS  /tmp/cc9hFd7n.s 			page 71


 3947 0298 50       		.byte	0x50
 3948 0299 8C000000 		.4byte	.LVL116
 3949 029d 9C000000 		.4byte	.LVL118
 3950 02a1 0100     		.2byte	0x1
 3951 02a3 54       		.byte	0x54
 3952 02a4 9C000000 		.4byte	.LVL118
 3953 02a8 9E000000 		.4byte	.LVL119
 3954 02ac 0100     		.2byte	0x1
 3955 02ae 50       		.byte	0x50
 3956 02af 9E000000 		.4byte	.LVL119
 3957 02b3 B4000000 		.4byte	.LVL122
 3958 02b7 0100     		.2byte	0x1
 3959 02b9 54       		.byte	0x54
 3960 02ba B4000000 		.4byte	.LVL122
 3961 02be D0000000 		.4byte	.LFE129
 3962 02c2 0400     		.2byte	0x4
 3963 02c4 F3       		.byte	0xf3
 3964 02c5 01       		.uleb128 0x1
 3965 02c6 50       		.byte	0x50
 3966 02c7 9F       		.byte	0x9f
 3967 02c8 00000000 		.4byte	0
 3968 02cc 00000000 		.4byte	0
 3969              	.LLST8:
 3970 02d0 00000000 		.4byte	.LVL123
 3971 02d4 0A000000 		.4byte	.LVL124
 3972 02d8 0100     		.2byte	0x1
 3973 02da 50       		.byte	0x50
 3974 02db 0A000000 		.4byte	.LVL124
 3975 02df 32000000 		.4byte	.LFE130
 3976 02e3 0400     		.2byte	0x4
 3977 02e5 F3       		.byte	0xf3
 3978 02e6 01       		.uleb128 0x1
 3979 02e7 50       		.byte	0x50
 3980 02e8 9F       		.byte	0x9f
 3981 02e9 00000000 		.4byte	0
 3982 02ed 00000000 		.4byte	0
 3983              	.LLST9:
 3984 02f1 00000000 		.4byte	.LVL123
 3985 02f5 20000000 		.4byte	.LVL126
 3986 02f9 0100     		.2byte	0x1
 3987 02fb 51       		.byte	0x51
 3988 02fc 20000000 		.4byte	.LVL126
 3989 0300 32000000 		.4byte	.LFE130
 3990 0304 0400     		.2byte	0x4
 3991 0306 F3       		.byte	0xf3
 3992 0307 01       		.uleb128 0x1
 3993 0308 51       		.byte	0x51
 3994 0309 9F       		.byte	0x9f
 3995 030a 00000000 		.4byte	0
 3996 030e 00000000 		.4byte	0
 3997              	.LLST10:
 3998 0312 00000000 		.4byte	.LVL123
 3999 0316 1C000000 		.4byte	.LVL125
 4000 031a 0100     		.2byte	0x1
 4001 031c 52       		.byte	0x52
 4002 031d 1C000000 		.4byte	.LVL125
 4003 0321 32000000 		.4byte	.LFE130
ARM GAS  /tmp/cc9hFd7n.s 			page 72


 4004 0325 0400     		.2byte	0x4
 4005 0327 F3       		.byte	0xf3
 4006 0328 01       		.uleb128 0x1
 4007 0329 52       		.byte	0x52
 4008 032a 9F       		.byte	0x9f
 4009 032b 00000000 		.4byte	0
 4010 032f 00000000 		.4byte	0
 4011              	.LLST11:
 4012 0333 1C000000 		.4byte	.LVL125
 4013 0337 26000000 		.4byte	.LVL127
 4014 033b 0100     		.2byte	0x1
 4015 033d 52       		.byte	0x52
 4016 033e 00000000 		.4byte	0
 4017 0342 00000000 		.4byte	0
 4018              	.LLST12:
 4019 0346 00000000 		.4byte	.LVL128
 4020 034a 0C000000 		.4byte	.LVL129
 4021 034e 0100     		.2byte	0x1
 4022 0350 50       		.byte	0x50
 4023 0351 0C000000 		.4byte	.LVL129
 4024 0355 1E000000 		.4byte	.LFE131
 4025 0359 0400     		.2byte	0x4
 4026 035b F3       		.byte	0xf3
 4027 035c 01       		.uleb128 0x1
 4028 035d 50       		.byte	0x50
 4029 035e 9F       		.byte	0x9f
 4030 035f 00000000 		.4byte	0
 4031 0363 00000000 		.4byte	0
 4032              	.LLST13:
 4033 0367 00000000 		.4byte	.LVL128
 4034 036b 16000000 		.4byte	.LVL130
 4035 036f 0100     		.2byte	0x1
 4036 0371 51       		.byte	0x51
 4037 0372 16000000 		.4byte	.LVL130
 4038 0376 1E000000 		.4byte	.LFE131
 4039 037a 0400     		.2byte	0x4
 4040 037c F3       		.byte	0xf3
 4041 037d 01       		.uleb128 0x1
 4042 037e 51       		.byte	0x51
 4043 037f 9F       		.byte	0x9f
 4044 0380 00000000 		.4byte	0
 4045 0384 00000000 		.4byte	0
 4046              		.section	.debug_aranges,"",%progbits
 4047 0000 84000000 		.4byte	0x84
 4048 0004 0200     		.2byte	0x2
 4049 0006 00000000 		.4byte	.Ldebug_info0
 4050 000a 04       		.byte	0x4
 4051 000b 00       		.byte	0
 4052 000c 0000     		.2byte	0
 4053 000e 0000     		.2byte	0
 4054 0010 00000000 		.4byte	.LFB118
 4055 0014 58000000 		.4byte	.LFE118-.LFB118
 4056 0018 00000000 		.4byte	.LFB119
 4057 001c 24000000 		.4byte	.LFE119-.LFB119
 4058 0020 00000000 		.4byte	.LFB120
 4059 0024 58000000 		.4byte	.LFE120-.LFB120
 4060 0028 00000000 		.4byte	.LFB121
ARM GAS  /tmp/cc9hFd7n.s 			page 73


 4061 002c 14000000 		.4byte	.LFE121-.LFB121
 4062 0030 00000000 		.4byte	.LFB122
 4063 0034 14000000 		.4byte	.LFE122-.LFB122
 4064 0038 00000000 		.4byte	.LFB123
 4065 003c 14000000 		.4byte	.LFE123-.LFB123
 4066 0040 00000000 		.4byte	.LFB124
 4067 0044 24000000 		.4byte	.LFE124-.LFB124
 4068 0048 00000000 		.4byte	.LFB125
 4069 004c 58000000 		.4byte	.LFE125-.LFB125
 4070 0050 00000000 		.4byte	.LFB126
 4071 0054 14000000 		.4byte	.LFE126-.LFB126
 4072 0058 00000000 		.4byte	.LFB127
 4073 005c 88000000 		.4byte	.LFE127-.LFB127
 4074 0060 00000000 		.4byte	.LFB128
 4075 0064 78020000 		.4byte	.LFE128-.LFB128
 4076 0068 00000000 		.4byte	.LFB129
 4077 006c D0000000 		.4byte	.LFE129-.LFB129
 4078 0070 00000000 		.4byte	.LFB130
 4079 0074 32000000 		.4byte	.LFE130-.LFB130
 4080 0078 00000000 		.4byte	.LFB131
 4081 007c 1E000000 		.4byte	.LFE131-.LFB131
 4082 0080 00000000 		.4byte	0
 4083 0084 00000000 		.4byte	0
 4084              		.section	.debug_ranges,"",%progbits
 4085              	.Ldebug_ranges0:
 4086 0000 00000000 		.4byte	.LFB118
 4087 0004 58000000 		.4byte	.LFE118
 4088 0008 00000000 		.4byte	.LFB119
 4089 000c 24000000 		.4byte	.LFE119
 4090 0010 00000000 		.4byte	.LFB120
 4091 0014 58000000 		.4byte	.LFE120
 4092 0018 00000000 		.4byte	.LFB121
 4093 001c 14000000 		.4byte	.LFE121
 4094 0020 00000000 		.4byte	.LFB122
 4095 0024 14000000 		.4byte	.LFE122
 4096 0028 00000000 		.4byte	.LFB123
 4097 002c 14000000 		.4byte	.LFE123
 4098 0030 00000000 		.4byte	.LFB124
 4099 0034 24000000 		.4byte	.LFE124
 4100 0038 00000000 		.4byte	.LFB125
 4101 003c 58000000 		.4byte	.LFE125
 4102 0040 00000000 		.4byte	.LFB126
 4103 0044 14000000 		.4byte	.LFE126
 4104 0048 00000000 		.4byte	.LFB127
 4105 004c 88000000 		.4byte	.LFE127
 4106 0050 00000000 		.4byte	.LFB128
 4107 0054 78020000 		.4byte	.LFE128
 4108 0058 00000000 		.4byte	.LFB129
 4109 005c D0000000 		.4byte	.LFE129
 4110 0060 00000000 		.4byte	.LFB130
 4111 0064 32000000 		.4byte	.LFE130
 4112 0068 00000000 		.4byte	.LFB131
 4113 006c 1E000000 		.4byte	.LFE131
 4114 0070 00000000 		.4byte	0
 4115 0074 00000000 		.4byte	0
 4116              		.section	.debug_line,"",%progbits
 4117              	.Ldebug_line0:
ARM GAS  /tmp/cc9hFd7n.s 			page 74


 4118 0000 06040000 		.section	.debug_str,"MS",%progbits,1
 4118      0200D001 
 4118      00000201 
 4118      FB0E0D00 
 4118      01010101 
 4119              	.LASF165:
 4120 0000 70776D63 		.ascii	"pwmchannel_t\000"
 4120      68616E6E 
 4120      656C5F74 
 4120      00
 4121              	.LASF133:
 4122 000d 41504231 		.ascii	"APB1LPENR\000"
 4122      4C50454E 
 4122      5200
 4123              	.LASF44:
 4124 0017 43414E31 		.ascii	"CAN1_RX0_IRQn\000"
 4124      5F525830 
 4124      5F495251 
 4124      6E00
 4125              	.LASF25:
 4126 0025 5056445F 		.ascii	"PVD_IRQn\000"
 4126      4952516E 
 4126      00
 4127              	.LASF88:
 4128 002e 43414E32 		.ascii	"CAN2_RX0_IRQn\000"
 4128      5F525830 
 4128      5F495251 
 4128      6E00
 4129              	.LASF203:
 4130 003c 2F686F6D 		.ascii	"/home/brian/aithon/ProjectTemplate\000"
 4130      652F6272 
 4130      69616E2F 
 4130      61697468 
 4130      6F6E2F50 
 4131              	.LASF205:
 4132 005f 70776D5F 		.ascii	"pwm_lld_serve_interrupt\000"
 4132      6C6C645F 
 4132      73657276 
 4132      655F696E 
 4132      74657272 
 4133              	.LASF97:
 4134 0077 49324333 		.ascii	"I2C3_ER_IRQn\000"
 4134      5F45525F 
 4134      4952516E 
 4134      00
 4135              	.LASF107:
 4136 0084 55415254 		.ascii	"UART8_IRQn\000"
 4136      385F4952 
 4136      516E00
 4137              	.LASF55:
 4138 008f 49324331 		.ascii	"I2C1_EV_IRQn\000"
 4138      5F45565F 
 4138      4952516E 
 4138      00
 4139              	.LASF92:
 4140 009c 444D4132 		.ascii	"DMA2_Stream5_IRQn\000"
 4140      5F537472 
ARM GAS  /tmp/cc9hFd7n.s 			page 75


 4140      65616D35 
 4140      5F495251 
 4140      6E00
 4141              	.LASF156:
 4142 00ae 43434D52 		.ascii	"CCMR2\000"
 4142      3200
 4143              	.LASF150:
 4144 00b4 70657269 		.ascii	"period\000"
 4144      6F6400
 4145              	.LASF176:
 4146 00bb 56656374 		.ascii	"VectorAC\000"
 4146      6F724143 
 4146      00
 4147              	.LASF45:
 4148 00c4 43414E31 		.ascii	"CAN1_RX1_IRQn\000"
 4148      5F525831 
 4148      5F495251 
 4148      6E00
 4149              	.LASF108:
 4150 00d2 53504934 		.ascii	"SPI4_IRQn\000"
 4150      5F495251 
 4150      6E00
 4151              	.LASF12:
 4152 00dc 6C6F6E67 		.ascii	"long long unsigned int\000"
 4152      206C6F6E 
 4152      6720756E 
 4152      7369676E 
 4152      65642069 
 4153              	.LASF172:
 4154 00f3 62647472 		.ascii	"bdtr\000"
 4154      00
 4155              	.LASF65:
 4156 00f8 5254435F 		.ascii	"RTC_Alarm_IRQn\000"
 4156      416C6172 
 4156      6D5F4952 
 4156      516E00
 4157              	.LASF58:
 4158 0107 49324332 		.ascii	"I2C2_ER_IRQn\000"
 4158      5F45525F 
 4158      4952516E 
 4158      00
 4159              	.LASF54:
 4160 0114 54494D34 		.ascii	"TIM4_IRQn\000"
 4160      5F495251 
 4160      6E00
 4161              	.LASF27:
 4162 011e 5254435F 		.ascii	"RTC_WKUP_IRQn\000"
 4162      574B5550 
 4162      5F495251 
 4162      6E00
 4163              	.LASF24:
 4164 012c 57574447 		.ascii	"WWDG_IRQn\000"
 4164      5F495251 
 4164      6E00
 4165              	.LASF170:
 4166 0136 66726571 		.ascii	"frequency\000"
 4166      75656E63 
ARM GAS  /tmp/cc9hFd7n.s 			page 76


 4166      7900
 4167              	.LASF129:
 4168 0140 41484231 		.ascii	"AHB1LPENR\000"
 4168      4C50454E 
 4168      5200
 4169              	.LASF145:
 4170 014a 50574D5F 		.ascii	"PWM_READY\000"
 4170      52454144 
 4170      5900
 4171              	.LASF200:
 4172 0154 6E766963 		.ascii	"nvicEnableVector\000"
 4172      456E6162 
 4172      6C655665 
 4172      63746F72 
 4172      00
 4173              	.LASF155:
 4174 0165 43434D52 		.ascii	"CCMR1\000"
 4174      3100
 4175              	.LASF141:
 4176 016b 44434B43 		.ascii	"DCKCFGR\000"
 4176      46475200 
 4177              	.LASF160:
 4178 0173 43434D52 		.ascii	"CCMR3\000"
 4178      3300
 4179              	.LASF1:
 4180 0179 7369676E 		.ascii	"signed char\000"
 4180      65642063 
 4180      68617200 
 4181              	.LASF89:
 4182 0185 43414E32 		.ascii	"CAN2_RX1_IRQn\000"
 4182      5F525831 
 4182      5F495251 
 4182      6E00
 4183              	.LASF163:
 4184 0193 73746D33 		.ascii	"stm32_tim_t\000"
 4184      325F7469 
 4184      6D5F7400 
 4185              	.LASF164:
 4186 019f 70776D6D 		.ascii	"pwmmode_t\000"
 4186      6F64655F 
 4186      7400
 4187              	.LASF177:
 4188 01a9 56656374 		.ascii	"VectorB0\000"
 4188      6F724230 
 4188      00
 4189              	.LASF93:
 4190 01b2 444D4132 		.ascii	"DMA2_Stream6_IRQn\000"
 4190      5F537472 
 4190      65616D36 
 4190      5F495251 
 4190      6E00
 4191              	.LASF178:
 4192 01c4 56656374 		.ascii	"VectorB4\000"
 4192      6F724234 
 4192      00
 4193              	.LASF142:
 4194 01cd 5243435F 		.ascii	"RCC_TypeDef\000"
ARM GAS  /tmp/cc9hFd7n.s 			page 77


 4194      54797065 
 4194      44656600 
 4195              	.LASF148:
 4196 01d9 73746174 		.ascii	"state\000"
 4196      6500
 4197              	.LASF171:
 4198 01df 6368616E 		.ascii	"channels\000"
 4198      6E656C73 
 4198      00
 4199              	.LASF8:
 4200 01e8 6C6F6E67 		.ascii	"long int\000"
 4200      20696E74 
 4200      00
 4201              	.LASF197:
 4202 01f1 50574D44 		.ascii	"PWMD8\000"
 4202      3800
 4203              	.LASF184:
 4204 01f7 70776D5F 		.ascii	"pwm_lld_start\000"
 4204      6C6C645F 
 4204      73746172 
 4204      7400
 4205              	.LASF120:
 4206 0205 41504232 		.ascii	"APB2RSTR\000"
 4206      52535452 
 4206      00
 4207              	.LASF109:
 4208 020e 53504935 		.ascii	"SPI5_IRQn\000"
 4208      5F495251 
 4208      6E00
 4209              	.LASF40:
 4210 0218 444D4131 		.ascii	"DMA1_Stream5_IRQn\000"
 4210      5F537472 
 4210      65616D35 
 4210      5F495251 
 4210      6E00
 4211              	.LASF47:
 4212 022a 45585449 		.ascii	"EXTI9_5_IRQn\000"
 4212      395F355F 
 4212      4952516E 
 4212      00
 4213              	.LASF157:
 4214 0237 43434552 		.ascii	"CCER\000"
 4214      00
 4215              	.LASF11:
 4216 023c 6C6F6E67 		.ascii	"long long int\000"
 4216      206C6F6E 
 4216      6720696E 
 4216      7400
 4217              	.LASF86:
 4218 024a 4554485F 		.ascii	"ETH_WKUP_IRQn\000"
 4218      574B5550 
 4218      5F495251 
 4218      6E00
 4219              	.LASF5:
 4220 0258 75696E74 		.ascii	"uint16_t\000"
 4220      31365F74 
 4220      00
ARM GAS  /tmp/cc9hFd7n.s 			page 78


 4221              	.LASF78:
 4222 0261 54494D36 		.ascii	"TIM6_DAC_IRQn\000"
 4222      5F444143 
 4222      5F495251 
 4222      6E00
 4223              	.LASF113:
 4224 026f 504C4C43 		.ascii	"PLLCFGR\000"
 4224      46475200 
 4225              	.LASF76:
 4226 0277 55415254 		.ascii	"UART4_IRQn\000"
 4226      345F4952 
 4226      516E00
 4227              	.LASF66:
 4228 0282 4F54475F 		.ascii	"OTG_FS_WKUP_IRQn\000"
 4228      46535F57 
 4228      4B55505F 
 4228      4952516E 
 4228      00
 4229              	.LASF22:
 4230 0293 50656E64 		.ascii	"PendSV_IRQn\000"
 4230      53565F49 
 4230      52516E00 
 4231              	.LASF68:
 4232 029f 54494D38 		.ascii	"TIM8_UP_TIM13_IRQn\000"
 4232      5F55505F 
 4232      54494D31 
 4232      335F4952 
 4232      516E00
 4233              	.LASF193:
 4234 02b2 50574D44 		.ascii	"PWMD1\000"
 4234      3100
 4235              	.LASF194:
 4236 02b8 50574D44 		.ascii	"PWMD2\000"
 4236      3200
 4237              	.LASF195:
 4238 02be 50574D44 		.ascii	"PWMD3\000"
 4238      3300
 4239              	.LASF196:
 4240 02c4 50574D44 		.ascii	"PWMD4\000"
 4240      3400
 4241              	.LASF179:
 4242 02ca 56656374 		.ascii	"VectorB8\000"
 4242      6F724238 
 4242      00
 4243              	.LASF116:
 4244 02d3 41484232 		.ascii	"AHB2RSTR\000"
 4244      52535452 
 4244      00
 4245              	.LASF18:
 4246 02dc 42757346 		.ascii	"BusFault_IRQn\000"
 4246      61756C74 
 4246      5F495251 
 4246      6E00
 4247              	.LASF198:
 4248 02ea 50574D44 		.ascii	"PWMD9\000"
 4248      3900
 4249              	.LASF70:
ARM GAS  /tmp/cc9hFd7n.s 			page 79


 4250 02f0 54494D38 		.ascii	"TIM8_CC_IRQn\000"
 4250      5F43435F 
 4250      4952516E 
 4250      00
 4251              	.LASF180:
 4252 02fd 56656374 		.ascii	"VectorF0\000"
 4252      6F724630 
 4252      00
 4253              	.LASF94:
 4254 0306 444D4132 		.ascii	"DMA2_Stream7_IRQn\000"
 4254      5F537472 
 4254      65616D37 
 4254      5F495251 
 4254      6E00
 4255              	.LASF158:
 4256 0318 42445452 		.ascii	"BDTR\000"
 4256      00
 4257              	.LASF0:
 4258 031d 756E7369 		.ascii	"unsigned int\000"
 4258      676E6564 
 4258      20696E74 
 4258      00
 4259              	.LASF38:
 4260 032a 444D4131 		.ascii	"DMA1_Stream3_IRQn\000"
 4260      5F537472 
 4260      65616D33 
 4260      5F495251 
 4260      6E00
 4261              	.LASF41:
 4262 033c 444D4131 		.ascii	"DMA1_Stream6_IRQn\000"
 4262      5F537472 
 4262      65616D36 
 4262      5F495251 
 4262      6E00
 4263              	.LASF201:
 4264 034e 474E5520 		.ascii	"GNU C 4.8.3 20131129 (release) [ARM/embedded-4_8-br"
 4264      4320342E 
 4264      382E3320 
 4264      32303133 
 4264      31313239 
 4265 0381 616E6368 		.ascii	"anch revision 205641] -mcpu=cortex-m4 -mfloat-abi=s"
 4265      20726576 
 4265      6973696F 
 4265      6E203230 
 4265      35363431 
 4266 03b4 6F667466 		.ascii	"oftfp -mfpu=fpv4-sp-d16 -mno-thumb-interwork -mthum"
 4266      70202D6D 
 4266      6670753D 
 4266      66707634 
 4266      2D73702D 
 4267 03e7 62202D67 		.ascii	"b -ggdb -O2 -fomit-frame-pointer -falign-functions="
 4267      67646220 
 4267      2D4F3220 
 4267      2D666F6D 
 4267      69742D66 
 4268 041a 3136202D 		.ascii	"16 -fsingle-precision-constant -ffunction-sections "
 4268      6673696E 
ARM GAS  /tmp/cc9hFd7n.s 			page 80


 4268      676C652D 
 4268      70726563 
 4268      6973696F 
 4269 044d 2D666461 		.ascii	"-fdata-sections -fno-common\000"
 4269      74612D73 
 4269      65637469 
 4269      6F6E7320 
 4269      2D666E6F 
 4270              	.LASF17:
 4271 0469 4D656D6F 		.ascii	"MemoryManagement_IRQn\000"
 4271      72794D61 
 4271      6E616765 
 4271      6D656E74 
 4271      5F495251 
 4272              	.LASF96:
 4273 047f 49324333 		.ascii	"I2C3_EV_IRQn\000"
 4273      5F45565F 
 4273      4952516E 
 4273      00
 4274              	.LASF10:
 4275 048c 6C6F6E67 		.ascii	"long unsigned int\000"
 4275      20756E73 
 4275      69676E65 
 4275      6420696E 
 4275      7400
 4276              	.LASF111:
 4277 049e 53414931 		.ascii	"SAI1_IRQn\000"
 4277      5F495251 
 4277      6E00
 4278              	.LASF110:
 4279 04a8 53504936 		.ascii	"SPI6_IRQn\000"
 4279      5F495251 
 4279      6E00
 4280              	.LASF98:
 4281 04b2 4F54475F 		.ascii	"OTG_HS_EP1_OUT_IRQn\000"
 4281      48535F45 
 4281      50315F4F 
 4281      55545F49 
 4281      52516E00 
 4282              	.LASF73:
 4283 04c6 5344494F 		.ascii	"SDIO_IRQn\000"
 4283      5F495251 
 4283      6E00
 4284              	.LASF190:
 4285 04d0 77696474 		.ascii	"width\000"
 4285      6800
 4286              	.LASF20:
 4287 04d6 53564361 		.ascii	"SVCall_IRQn\000"
 4287      6C6C5F49 
 4287      52516E00 
 4288              	.LASF153:
 4289 04e2 534D4352 		.ascii	"SMCR\000"
 4289      00
 4290              	.LASF82:
 4291 04e7 444D4132 		.ascii	"DMA2_Stream2_IRQn\000"
 4291      5F537472 
 4291      65616D32 
ARM GAS  /tmp/cc9hFd7n.s 			page 81


 4291      5F495251 
 4291      6E00
 4292              	.LASF139:
 4293 04f9 504C4C49 		.ascii	"PLLI2SCFGR\000"
 4293      32534346 
 4293      475200
 4294              	.LASF43:
 4295 0504 43414E31 		.ascii	"CAN1_TX_IRQn\000"
 4295      5F54585F 
 4295      4952516E 
 4295      00
 4296              	.LASF117:
 4297 0511 41484233 		.ascii	"AHB3RSTR\000"
 4297      52535452 
 4297      00
 4298              	.LASF64:
 4299 051a 45585449 		.ascii	"EXTI15_10_IRQn\000"
 4299      31355F31 
 4299      305F4952 
 4299      516E00
 4300              	.LASF59:
 4301 0529 53504931 		.ascii	"SPI1_IRQn\000"
 4301      5F495251 
 4301      6E00
 4302              	.LASF168:
 4303 0533 63616C6C 		.ascii	"callback\000"
 4303      6261636B 
 4303      00
 4304              	.LASF202:
 4305 053c 2E2E2F41 		.ascii	"../AithonLibrary/ChibiOS/os/hal/platforms/STM32/TIM"
 4305      6974686F 
 4305      6E4C6962 
 4305      72617279 
 4305      2F436869 
 4306 056f 76312F70 		.ascii	"v1/pwm_lld.c\000"
 4306      776D5F6C 
 4306      6C642E63 
 4306      00
 4307              	.LASF134:
 4308 057c 41504232 		.ascii	"APB2LPENR\000"
 4308      4C50454E 
 4308      5200
 4309              	.LASF186:
 4310 0586 63636572 		.ascii	"ccer\000"
 4310      00
 4311              	.LASF67:
 4312 058b 54494D38 		.ascii	"TIM8_BRK_TIM12_IRQn\000"
 4312      5F42524B 
 4312      5F54494D 
 4312      31325F49 
 4312      52516E00 
 4313              	.LASF185:
 4314 059f 70776D70 		.ascii	"pwmp\000"
 4314      00
 4315              	.LASF23:
 4316 05a4 53797354 		.ascii	"SysTick_IRQn\000"
 4316      69636B5F 
ARM GAS  /tmp/cc9hFd7n.s 			page 82


 4316      4952516E 
 4316      00
 4317              	.LASF51:
 4318 05b1 54494D31 		.ascii	"TIM1_CC_IRQn\000"
 4318      5F43435F 
 4318      4952516E 
 4318      00
 4319              	.LASF69:
 4320 05be 54494D38 		.ascii	"TIM8_TRG_COM_TIM14_IRQn\000"
 4320      5F545247 
 4320      5F434F4D 
 4320      5F54494D 
 4320      31345F49 
 4321              	.LASF112:
 4322 05d6 444D4132 		.ascii	"DMA2D_IRQn\000"
 4322      445F4952 
 4322      516E00
 4323              	.LASF204:
 4324 05e1 4952516E 		.ascii	"IRQn\000"
 4324      00
 4325              	.LASF14:
 4326 05e6 73697A65 		.ascii	"sizetype\000"
 4326      74797065 
 4326      00
 4327              	.LASF85:
 4328 05ef 4554485F 		.ascii	"ETH_IRQn\000"
 4328      4952516E 
 4328      00
 4329              	.LASF49:
 4330 05f8 54494D31 		.ascii	"TIM1_UP_TIM10_IRQn\000"
 4330      5F55505F 
 4330      54494D31 
 4330      305F4952 
 4330      516E00
 4331              	.LASF83:
 4332 060b 444D4132 		.ascii	"DMA2_Stream3_IRQn\000"
 4332      5F537472 
 4332      65616D33 
 4332      5F495251 
 4332      6E00
 4333              	.LASF39:
 4334 061d 444D4131 		.ascii	"DMA1_Stream4_IRQn\000"
 4334      5F537472 
 4334      65616D34 
 4334      5F495251 
 4334      6E00
 4335              	.LASF95:
 4336 062f 55534152 		.ascii	"USART6_IRQn\000"
 4336      54365F49 
 4336      52516E00 
 4337              	.LASF74:
 4338 063b 54494D35 		.ascii	"TIM5_IRQn\000"
 4338      5F495251 
 4338      6E00
 4339              	.LASF33:
 4340 0645 45585449 		.ascii	"EXTI3_IRQn\000"
 4340      335F4952 
ARM GAS  /tmp/cc9hFd7n.s 			page 83


 4340      516E00
 4341              	.LASF60:
 4342 0650 53504932 		.ascii	"SPI2_IRQn\000"
 4342      5F495251 
 4342      6E00
 4343              	.LASF37:
 4344 065a 444D4131 		.ascii	"DMA1_Stream2_IRQn\000"
 4344      5F537472 
 4344      65616D32 
 4344      5F495251 
 4344      6E00
 4345              	.LASF87:
 4346 066c 43414E32 		.ascii	"CAN2_TX_IRQn\000"
 4346      5F54585F 
 4346      4952516E 
 4346      00
 4347              	.LASF130:
 4348 0679 41484232 		.ascii	"AHB2LPENR\000"
 4348      4C50454E 
 4348      5200
 4349              	.LASF119:
 4350 0683 41504231 		.ascii	"APB1RSTR\000"
 4350      52535452 
 4350      00
 4351              	.LASF101:
 4352 068c 4F54475F 		.ascii	"OTG_HS_IRQn\000"
 4352      48535F49 
 4352      52516E00 
 4353              	.LASF140:
 4354 0698 504C4C53 		.ascii	"PLLSAICFGR\000"
 4354      41494346 
 4354      475200
 4355              	.LASF152:
 4356 06a3 70776D63 		.ascii	"pwmcallback_t\000"
 4356      616C6C62 
 4356      61636B5F 
 4356      7400
 4357              	.LASF118:
 4358 06b1 52455345 		.ascii	"RESERVED0\000"
 4358      52564544 
 4358      3000
 4359              	.LASF121:
 4360 06bb 52455345 		.ascii	"RESERVED1\000"
 4360      52564544 
 4360      3100
 4361              	.LASF125:
 4362 06c5 52455345 		.ascii	"RESERVED2\000"
 4362      52564544 
 4362      3200
 4363              	.LASF128:
 4364 06cf 52455345 		.ascii	"RESERVED3\000"
 4364      52564544 
 4364      3300
 4365              	.LASF132:
 4366 06d9 52455345 		.ascii	"RESERVED4\000"
 4366      52564544 
 4366      3400
ARM GAS  /tmp/cc9hFd7n.s 			page 84


 4367              	.LASF135:
 4368 06e3 52455345 		.ascii	"RESERVED5\000"
 4368      52564544 
 4368      3500
 4369              	.LASF137:
 4370 06ed 52455345 		.ascii	"RESERVED6\000"
 4370      52564544 
 4370      3600
 4371              	.LASF75:
 4372 06f7 53504933 		.ascii	"SPI3_IRQn\000"
 4372      5F495251 
 4372      6E00
 4373              	.LASF84:
 4374 0701 444D4132 		.ascii	"DMA2_Stream4_IRQn\000"
 4374      5F537472 
 4374      65616D34 
 4374      5F495251 
 4374      6E00
 4375              	.LASF13:
 4376 0713 5F426F6F 		.ascii	"_Bool\000"
 4376      6C00
 4377              	.LASF7:
 4378 0719 696E7433 		.ascii	"int32_t\000"
 4378      325F7400 
 4379              	.LASF2:
 4380 0721 756E7369 		.ascii	"unsigned char\000"
 4380      676E6564 
 4380      20636861 
 4380      7200
 4381              	.LASF48:
 4382 072f 54494D31 		.ascii	"TIM1_BRK_TIM9_IRQn\000"
 4382      5F42524B 
 4382      5F54494D 
 4382      395F4952 
 4382      516E00
 4383              	.LASF192:
 4384 0742 49544D5F 		.ascii	"ITM_RxBuffer\000"
 4384      52784275 
 4384      66666572 
 4384      00
 4385              	.LASF34:
 4386 074f 45585449 		.ascii	"EXTI4_IRQn\000"
 4386      345F4952 
 4386      516E00
 4387              	.LASF104:
 4388 075a 48415348 		.ascii	"HASH_RNG_IRQn\000"
 4388      5F524E47 
 4388      5F495251 
 4388      6E00
 4389              	.LASF3:
 4390 0768 73686F72 		.ascii	"short int\000"
 4390      7420696E 
 4390      7400
 4391              	.LASF131:
 4392 0772 41484233 		.ascii	"AHB3LPENR\000"
 4392      4C50454E 
 4392      5200
ARM GAS  /tmp/cc9hFd7n.s 			page 85


 4393              	.LASF77:
 4394 077c 55415254 		.ascii	"UART5_IRQn\000"
 4394      355F4952 
 4394      516E00
 4395              	.LASF50:
 4396 0787 54494D31 		.ascii	"TIM1_TRG_COM_TIM11_IRQn\000"
 4396      5F545247 
 4396      5F434F4D 
 4396      5F54494D 
 4396      31315F49 
 4397              	.LASF72:
 4398 079f 464D435F 		.ascii	"FMC_IRQn\000"
 4398      4952516E 
 4398      00
 4399              	.LASF6:
 4400 07a8 73686F72 		.ascii	"short unsigned int\000"
 4400      7420756E 
 4400      7369676E 
 4400      65642069 
 4400      6E7400
 4401              	.LASF32:
 4402 07bb 45585449 		.ascii	"EXTI2_IRQn\000"
 4402      325F4952 
 4402      516E00
 4403              	.LASF127:
 4404 07c6 41504232 		.ascii	"APB2ENR\000"
 4404      454E5200 
 4405              	.LASF189:
 4406 07ce 6368616E 		.ascii	"channel\000"
 4406      6E656C00 
 4407              	.LASF124:
 4408 07d6 41484233 		.ascii	"AHB3ENR\000"
 4408      454E5200 
 4409              	.LASF181:
 4410 07de 56656374 		.ascii	"VectorF8\000"
 4410      6F724638 
 4410      00
 4411              	.LASF28:
 4412 07e7 464C4153 		.ascii	"FLASH_IRQn\000"
 4412      485F4952 
 4412      516E00
 4413              	.LASF187:
 4414 07f2 70776D5F 		.ascii	"pwm_lld_stop\000"
 4414      6C6C645F 
 4414      73746F70 
 4414      00
 4415              	.LASF91:
 4416 07ff 4F54475F 		.ascii	"OTG_FS_IRQn\000"
 4416      46535F49 
 4416      52516E00 
 4417              	.LASF9:
 4418 080b 75696E74 		.ascii	"uint32_t\000"
 4418      33325F74 
 4418      00
 4419              	.LASF62:
 4420 0814 55534152 		.ascii	"USART2_IRQn\000"
 4420      54325F49 
ARM GAS  /tmp/cc9hFd7n.s 			page 86


 4420      52516E00 
 4421              	.LASF19:
 4422 0820 55736167 		.ascii	"UsageFault_IRQn\000"
 4422      65466175 
 4422      6C745F49 
 4422      52516E00 
 4423              	.LASF174:
 4424 0830 50574D43 		.ascii	"PWMConfig\000"
 4424      6F6E6669 
 4424      6700
 4425              	.LASF207:
 4426 083a 6E766963 		.ascii	"nvicDisableVector\000"
 4426      44697361 
 4426      626C6556 
 4426      6563746F 
 4426      7200
 4427              	.LASF71:
 4428 084c 444D4131 		.ascii	"DMA1_Stream7_IRQn\000"
 4428      5F537472 
 4428      65616D37 
 4428      5F495251 
 4428      6E00
 4429              	.LASF188:
 4430 085e 70776D5F 		.ascii	"pwm_lld_enable_channel\000"
 4430      6C6C645F 
 4430      656E6162 
 4430      6C655F63 
 4430      68616E6E 
 4431              	.LASF144:
 4432 0875 50574D5F 		.ascii	"PWM_STOP\000"
 4432      53544F50 
 4432      00
 4433              	.LASF15:
 4434 087e 63686172 		.ascii	"char\000"
 4434      00
 4435              	.LASF167:
 4436 0883 6D6F6465 		.ascii	"mode\000"
 4436      00
 4437              	.LASF103:
 4438 0888 43525950 		.ascii	"CRYP_IRQn\000"
 4438      5F495251 
 4438      6E00
 4439              	.LASF149:
 4440 0892 636F6E66 		.ascii	"config\000"
 4440      696700
 4441              	.LASF159:
 4442 0899 444D4152 		.ascii	"DMAR\000"
 4442      00
 4443              	.LASF79:
 4444 089e 54494D37 		.ascii	"TIM7_IRQn\000"
 4444      5F495251 
 4444      6E00
 4445              	.LASF36:
 4446 08a8 444D4131 		.ascii	"DMA1_Stream1_IRQn\000"
 4446      5F537472 
 4446      65616D31 
 4446      5F495251 
ARM GAS  /tmp/cc9hFd7n.s 			page 87


 4446      6E00
 4447              	.LASF99:
 4448 08ba 4F54475F 		.ascii	"OTG_HS_EP1_IN_IRQn\000"
 4448      48535F45 
 4448      50315F49 
 4448      4E5F4952 
 4448      516E00
 4449              	.LASF16:
 4450 08cd 4E6F6E4D 		.ascii	"NonMaskableInt_IRQn\000"
 4450      61736B61 
 4450      626C6549 
 4450      6E745F49 
 4450      52516E00 
 4451              	.LASF126:
 4452 08e1 41504231 		.ascii	"APB1ENR\000"
 4452      454E5200 
 4453              	.LASF123:
 4454 08e9 41484232 		.ascii	"AHB2ENR\000"
 4454      454E5200 
 4455              	.LASF26:
 4456 08f1 54414D50 		.ascii	"TAMP_STAMP_IRQn\000"
 4456      5F535441 
 4456      4D505F49 
 4456      52516E00 
 4457              	.LASF169:
 4458 0901 50574D43 		.ascii	"PWMChannelConfig\000"
 4458      68616E6E 
 4458      656C436F 
 4458      6E666967 
 4458      00
 4459              	.LASF21:
 4460 0912 44656275 		.ascii	"DebugMonitor_IRQn\000"
 4460      674D6F6E 
 4460      69746F72 
 4460      5F495251 
 4460      6E00
 4461              	.LASF80:
 4462 0924 444D4132 		.ascii	"DMA2_Stream0_IRQn\000"
 4462      5F537472 
 4462      65616D30 
 4462      5F495251 
 4462      6E00
 4463              	.LASF115:
 4464 0936 41484231 		.ascii	"AHB1RSTR\000"
 4464      52535452 
 4464      00
 4465              	.LASF57:
 4466 093f 49324332 		.ascii	"I2C2_EV_IRQn\000"
 4466      5F45565F 
 4466      4952516E 
 4466      00
 4467              	.LASF63:
 4468 094c 55534152 		.ascii	"USART3_IRQn\000"
 4468      54335F49 
 4468      52516E00 
 4469              	.LASF138:
 4470 0958 53534347 		.ascii	"SSCGR\000"
ARM GAS  /tmp/cc9hFd7n.s 			page 88


 4470      5200
 4471              	.LASF52:
 4472 095e 54494D32 		.ascii	"TIM2_IRQn\000"
 4472      5F495251 
 4472      6E00
 4473              	.LASF30:
 4474 0968 45585449 		.ascii	"EXTI0_IRQn\000"
 4474      305F4952 
 4474      516E00
 4475              	.LASF161:
 4476 0973 43435235 		.ascii	"CCR5\000"
 4476      00
 4477              	.LASF162:
 4478 0978 43435236 		.ascii	"CCR6\000"
 4478      00
 4479              	.LASF61:
 4480 097d 55534152 		.ascii	"USART1_IRQn\000"
 4480      54315F49 
 4480      52516E00 
 4481              	.LASF136:
 4482 0989 42444352 		.ascii	"BDCR\000"
 4482      00
 4483              	.LASF206:
 4484 098e 5F706F72 		.ascii	"_port_irq_epilogue\000"
 4484      745F6972 
 4484      715F6570 
 4484      696C6F67 
 4484      756500
 4485              	.LASF4:
 4486 09a1 75696E74 		.ascii	"uint8_t\000"
 4486      385F7400 
 4487              	.LASF147:
 4488 09a9 50574D44 		.ascii	"PWMDriver\000"
 4488      72697665 
 4488      7200
 4489              	.LASF102:
 4490 09b3 44434D49 		.ascii	"DCMI_IRQn\000"
 4490      5F495251 
 4490      6E00
 4491              	.LASF146:
 4492 09bd 70776D73 		.ascii	"pwmstate_t\000"
 4492      74617465 
 4492      5F7400
 4493              	.LASF166:
 4494 09c8 70776D63 		.ascii	"pwmcnt_t\000"
 4494      6E745F74 
 4494      00
 4495              	.LASF106:
 4496 09d1 55415254 		.ascii	"UART7_IRQn\000"
 4496      375F4952 
 4496      516E00
 4497              	.LASF122:
 4498 09dc 41484231 		.ascii	"AHB1ENR\000"
 4498      454E5200 
 4499              	.LASF154:
 4500 09e4 44494552 		.ascii	"DIER\000"
 4500      00
ARM GAS  /tmp/cc9hFd7n.s 			page 89


 4501              	.LASF175:
 4502 09e9 56656374 		.ascii	"VectorA4\000"
 4502      6F724134 
 4502      00
 4503              	.LASF105:
 4504 09f2 4650555F 		.ascii	"FPU_IRQn\000"
 4504      4952516E 
 4504      00
 4505              	.LASF114:
 4506 09fb 43464752 		.ascii	"CFGR\000"
 4506      00
 4507              	.LASF191:
 4508 0a00 70776D5F 		.ascii	"pwm_lld_disable_channel\000"
 4508      6C6C645F 
 4508      64697361 
 4508      626C655F 
 4508      6368616E 
 4509              	.LASF151:
 4510 0a18 636C6F63 		.ascii	"clock\000"
 4510      6B00
 4511              	.LASF56:
 4512 0a1e 49324331 		.ascii	"I2C1_ER_IRQn\000"
 4512      5F45525F 
 4512      4952516E 
 4512      00
 4513              	.LASF183:
 4514 0a2b 70776D5F 		.ascii	"pwm_lld_init\000"
 4514      6C6C645F 
 4514      696E6974 
 4514      00
 4515              	.LASF42:
 4516 0a38 4144435F 		.ascii	"ADC_IRQn\000"
 4516      4952516E 
 4516      00
 4517              	.LASF81:
 4518 0a41 444D4132 		.ascii	"DMA2_Stream1_IRQn\000"
 4518      5F537472 
 4518      65616D31 
 4518      5F495251 
 4518      6E00
 4519              	.LASF143:
 4520 0a53 50574D5F 		.ascii	"PWM_UNINIT\000"
 4520      554E494E 
 4520      495400
 4521              	.LASF182:
 4522 0a5e 56656374 		.ascii	"VectorA0\000"
 4522      6F724130 
 4522      00
 4523              	.LASF46:
 4524 0a67 43414E31 		.ascii	"CAN1_SCE_IRQn\000"
 4524      5F534345 
 4524      5F495251 
 4524      6E00
 4525              	.LASF199:
 4526 0a75 70776D4F 		.ascii	"pwmObjectInit\000"
 4526      626A6563 
 4526      74496E69 
ARM GAS  /tmp/cc9hFd7n.s 			page 90


 4526      7400
 4527              	.LASF90:
 4528 0a83 43414E32 		.ascii	"CAN2_SCE_IRQn\000"
 4528      5F534345 
 4528      5F495251 
 4528      6E00
 4529              	.LASF29:
 4530 0a91 5243435F 		.ascii	"RCC_IRQn\000"
 4530      4952516E 
 4530      00
 4531              	.LASF100:
 4532 0a9a 4F54475F 		.ascii	"OTG_HS_WKUP_IRQn\000"
 4532      48535F57 
 4532      4B55505F 
 4532      4952516E 
 4532      00
 4533              	.LASF53:
 4534 0aab 54494D33 		.ascii	"TIM3_IRQn\000"
 4534      5F495251 
 4534      6E00
 4535              	.LASF31:
 4536 0ab5 45585449 		.ascii	"EXTI1_IRQn\000"
 4536      315F4952 
 4536      516E00
 4537              	.LASF173:
 4538 0ac0 64696572 		.ascii	"dier\000"
 4538      00
 4539              	.LASF35:
 4540 0ac5 444D4131 		.ascii	"DMA1_Stream0_IRQn\000"
 4540      5F537472 
 4540      65616D30 
 4540      5F495251 
 4540      6E00
 4541              		.ident	"GCC: (GNU Tools for ARM Embedded Processors) 4.8.3 20131129 (release) [ARM/embedded-4_8-br
ARM GAS  /tmp/cc9hFd7n.s 			page 91


DEFINED SYMBOLS
                            *ABS*:0000000000000000 pwm_lld.c
     /tmp/cc9hFd7n.s:20     .text.pwm_lld_serve_interrupt:0000000000000000 $t
     /tmp/cc9hFd7n.s:25     .text.pwm_lld_serve_interrupt:0000000000000000 pwm_lld_serve_interrupt
     /tmp/cc9hFd7n.s:120    .text.VectorA4:0000000000000000 $t
     /tmp/cc9hFd7n.s:126    .text.VectorA4:0000000000000000 VectorA4
     /tmp/cc9hFd7n.s:159    .text.VectorA4:000000000000001c $d
     /tmp/cc9hFd7n.s:165    .text.VectorAC:0000000000000000 $t
     /tmp/cc9hFd7n.s:171    .text.VectorAC:0000000000000000 VectorAC
     /tmp/cc9hFd7n.s:251    .text.VectorAC:0000000000000050 $d
     /tmp/cc9hFd7n.s:257    .text.VectorB0:0000000000000000 $t
     /tmp/cc9hFd7n.s:263    .text.VectorB0:0000000000000000 VectorB0
     /tmp/cc9hFd7n.s:285    .text.VectorB0:0000000000000010 $d
     /tmp/cc9hFd7n.s:290    .text.VectorB4:0000000000000000 $t
     /tmp/cc9hFd7n.s:296    .text.VectorB4:0000000000000000 VectorB4
     /tmp/cc9hFd7n.s:318    .text.VectorB4:0000000000000010 $d
     /tmp/cc9hFd7n.s:323    .text.VectorB8:0000000000000000 $t
     /tmp/cc9hFd7n.s:329    .text.VectorB8:0000000000000000 VectorB8
     /tmp/cc9hFd7n.s:351    .text.VectorB8:0000000000000010 $d
     /tmp/cc9hFd7n.s:356    .text.VectorF0:0000000000000000 $t
     /tmp/cc9hFd7n.s:362    .text.VectorF0:0000000000000000 VectorF0
     /tmp/cc9hFd7n.s:395    .text.VectorF0:000000000000001c $d
     /tmp/cc9hFd7n.s:401    .text.VectorF8:0000000000000000 $t
     /tmp/cc9hFd7n.s:407    .text.VectorF8:0000000000000000 VectorF8
     /tmp/cc9hFd7n.s:487    .text.VectorF8:0000000000000050 $d
     /tmp/cc9hFd7n.s:493    .text.VectorA0:0000000000000000 $t
     /tmp/cc9hFd7n.s:499    .text.VectorA0:0000000000000000 VectorA0
     /tmp/cc9hFd7n.s:521    .text.VectorA0:0000000000000010 $d
     /tmp/cc9hFd7n.s:526    .text.pwm_lld_init:0000000000000000 $t
     /tmp/cc9hFd7n.s:532    .text.pwm_lld_init:0000000000000000 pwm_lld_init
     /tmp/cc9hFd7n.s:608    .text.pwm_lld_init:000000000000005c $d
     /tmp/cc9hFd7n.s:623    .text.pwm_lld_start:0000000000000000 $t
     /tmp/cc9hFd7n.s:629    .text.pwm_lld_start:0000000000000000 pwm_lld_start
     /tmp/cc9hFd7n.s:1084   .text.pwm_lld_start:0000000000000254 $d
     /tmp/cc9hFd7n.s:1097   .text.pwm_lld_stop:0000000000000000 $t
     /tmp/cc9hFd7n.s:1103   .text.pwm_lld_stop:0000000000000000 pwm_lld_stop
     /tmp/cc9hFd7n.s:1253   .text.pwm_lld_stop:00000000000000b4 $d
     /tmp/cc9hFd7n.s:1264   .text.pwm_lld_enable_channel:0000000000000000 $t
     /tmp/cc9hFd7n.s:1270   .text.pwm_lld_enable_channel:0000000000000000 pwm_lld_enable_channel
     /tmp/cc9hFd7n.s:1326   .text.pwm_lld_disable_channel:0000000000000000 $t
     /tmp/cc9hFd7n.s:1332   .text.pwm_lld_disable_channel:0000000000000000 pwm_lld_disable_channel
     /tmp/cc9hFd7n.s:1404   .bss.PWMD9:0000000000000000 PWMD9
     /tmp/cc9hFd7n.s:1397   .bss.PWMD8:0000000000000000 PWMD8
     /tmp/cc9hFd7n.s:1390   .bss.PWMD4:0000000000000000 PWMD4
     /tmp/cc9hFd7n.s:1383   .bss.PWMD3:0000000000000000 PWMD3
     /tmp/cc9hFd7n.s:1376   .bss.PWMD2:0000000000000000 PWMD2
     /tmp/cc9hFd7n.s:1369   .bss.PWMD1:0000000000000000 PWMD1
     /tmp/cc9hFd7n.s:1365   .bss.PWMD1:0000000000000000 $d
     /tmp/cc9hFd7n.s:1372   .bss.PWMD2:0000000000000000 $d
     /tmp/cc9hFd7n.s:1379   .bss.PWMD3:0000000000000000 $d
     /tmp/cc9hFd7n.s:1386   .bss.PWMD4:0000000000000000 $d
     /tmp/cc9hFd7n.s:1393   .bss.PWMD8:0000000000000000 $d
     /tmp/cc9hFd7n.s:1400   .bss.PWMD9:0000000000000000 $d
                     .debug_frame:0000000000000010 $d
     /tmp/cc9hFd7n.s:164    .text.VectorA4:0000000000000024 $t
     /tmp/cc9hFd7n.s:256    .text.VectorAC:0000000000000058 $t
     /tmp/cc9hFd7n.s:289    .text.VectorB0:0000000000000014 $t
ARM GAS  /tmp/cc9hFd7n.s 			page 92


     /tmp/cc9hFd7n.s:322    .text.VectorB4:0000000000000014 $t
     /tmp/cc9hFd7n.s:355    .text.VectorB8:0000000000000014 $t
     /tmp/cc9hFd7n.s:400    .text.VectorF0:0000000000000024 $t
     /tmp/cc9hFd7n.s:492    .text.VectorF8:0000000000000058 $t
     /tmp/cc9hFd7n.s:525    .text.VectorA0:0000000000000014 $t
     /tmp/cc9hFd7n.s:622    .text.pwm_lld_init:0000000000000088 $t
     /tmp/cc9hFd7n.s:1096   .text.pwm_lld_start:0000000000000278 $t

UNDEFINED SYMBOLS
_port_irq_epilogue
pwmObjectInit
nvicEnableVector
nvicDisableVector
