ARM GAS  /tmp/ccIkacop.s 			page 1


   1              		.syntax unified
   2              		.cpu cortex-m4
   3              		.eabi_attribute 27, 3
   4              		.fpu fpv4-sp-d16
   5              		.eabi_attribute 20, 1
   6              		.eabi_attribute 21, 1
   7              		.eabi_attribute 23, 3
   8              		.eabi_attribute 24, 1
   9              		.eabi_attribute 25, 1
  10              		.eabi_attribute 26, 1
  11              		.eabi_attribute 30, 2
  12              		.eabi_attribute 34, 1
  13              		.eabi_attribute 18, 4
  14              		.thumb
  15              		.file	"sd.c"
  16              		.text
  17              	.Ltext0:
  18              		.cfi_sections	.debug_frame
  19              		.section	.text.sd_init,"ax",%progbits
  20              		.align	2
  21              		.p2align 4,,15
  22              		.global	sd_init
  23              		.thumb
  24              		.thumb_func
  25              		.type	sd_init, %function
  26              	sd_init:
  27              	.LFB119:
  28              		.file 1 "../AithonLibrary/sd.c"
  29              		.loc 1 31 0
  30              		.cfi_startproc
  31              		@ args = 0, pretend = 0, frame = 0
  32              		@ frame_needed = 0, uses_anonymous_args = 0
  33 0000 10B5     		push	{r4, lr}
  34              		.cfi_def_cfa_offset 8
  35              		.cfi_offset 4, -8
  36              		.cfi_offset 14, -4
  37              		.loc 1 34 0
  38 0002 0C48     		ldr	r0, .L8
  39 0004 FFF7FEFF 		bl	mmcObjectInit
  40              	.LVL0:
  41              		.loc 1 35 0
  42 0008 0A48     		ldr	r0, .L8
  43 000a 0B49     		ldr	r1, .L8+4
  44 000c FFF7FEFF 		bl	mmcStart
  45              	.LVL1:
  46              		.loc 1 36 0
  47 0010 0848     		ldr	r0, .L8
  48 0012 FFF7FEFF 		bl	mmcConnect
  49              	.LVL2:
  50 0016 0446     		mov	r4, r0
  51 0018 08B1     		cbz	r0, .L7
  52              	.L2:
  53              		.loc 1 46 0
  54 001a 2046     		mov	r0, r4
  55 001c 10BD     		pop	{r4, pc}
  56              	.L7:
  57              		.loc 1 39 0
ARM GAS  /tmp/ccIkacop.s 			page 2


  58 001e 0749     		ldr	r1, .L8+8
  59 0020 FFF7FEFF 		bl	f_mount
  60              	.LVL3:
  61 0024 0028     		cmp	r0, #0
  62 0026 F8D0     		beq	.L2
  63              		.loc 1 42 0
  64 0028 0124     		movs	r4, #1
  65              		.loc 1 41 0
  66 002a 0248     		ldr	r0, .L8
  67 002c FFF7FEFF 		bl	mmcDisconnect
  68              	.LVL4:
  69              		.loc 1 46 0
  70 0030 2046     		mov	r0, r4
  71 0032 10BD     		pop	{r4, pc}
  72              	.L9:
  73              		.align	2
  74              	.L8:
  75 0034 00000000 		.word	.LANCHOR0
  76 0038 00000000 		.word	.LANCHOR1
  77 003c 00000000 		.word	.LANCHOR2
  78              		.cfi_endproc
  79              	.LFE119:
  80              		.size	sd_init, .-sd_init
  81              		.global	MMCD1
  82              		.global	sdFS
  83              		.section	.data.mmccfg,"aw",%progbits
  84              		.align	2
  85              		.set	.LANCHOR1,. + 0
  86              		.type	mmccfg, %object
  87              		.size	mmccfg, 12
  88              	mmccfg:
  89 0000 00000000 		.word	SPID3
  90 0004 00000000 		.word	ls_spicfg
  91 0008 00000000 		.word	hs_spicfg
  92              		.section	.bss.MMCD1,"aw",%nobits
  93              		.align	2
  94              		.set	.LANCHOR0,. + 0
  95              		.type	MMCD1, %object
  96              		.size	MMCD1, 52
  97              	MMCD1:
  98 0000 00000000 		.space	52
  98      00000000 
  98      00000000 
  98      00000000 
  98      00000000 
  99              		.section	.data.ls_spicfg,"aw",%progbits
 100              		.align	2
 101              		.type	ls_spicfg, %object
 102              		.size	ls_spicfg, 12
 103              	ls_spicfg:
 104 0000 00000000 		.word	0
 105 0004 000C0240 		.word	1073875968
 106 0008 0200     		.short	2
 107 000a 3000     		.short	48
 108              		.section	.bss.sdFS,"aw",%nobits
 109              		.align	2
 110              		.set	.LANCHOR2,. + 0
ARM GAS  /tmp/ccIkacop.s 			page 3


 111              		.type	sdFS, %object
 112              		.size	sdFS, 564
 113              	sdFS:
 114 0000 00000000 		.space	564
 114      00000000 
 114      00000000 
 114      00000000 
 114      00000000 
 115              		.section	.data.hs_spicfg,"aw",%progbits
 116              		.align	2
 117              		.type	hs_spicfg, %object
 118              		.size	hs_spicfg, 12
 119              	hs_spicfg:
 120 0000 00000000 		.word	0
 121 0004 000C0240 		.word	1073875968
 122 0008 0200     		.short	2
 123 000a 0000     		.short	0
 124              		.text
 125              	.Letext0:
 126              		.file 2 "/usr/arm-none-eabi/include/stdint.h"
 127              		.file 3 "../AithonLibrary/ChibiOS/os/ports/GCC/ARMCMx/chtypes.h"
 128              		.file 4 "../AithonLibrary/ChibiOS/os/kernel/include/chlists.h"
 129              		.file 5 "../AithonLibrary/ChibiOS/os/kernel/include/chthreads.h"
 130              		.file 6 "../AithonLibrary/ChibiOS/os/ports/GCC/ARMCMx/chcore_v7m.h"
 131              		.file 7 "../AithonLibrary/ChibiOS/os/kernel/include/chsem.h"
 132              		.file 8 "../AithonLibrary/ChibiOS/os/kernel/include/chmtx.h"
 133              		.file 9 "../AithonLibrary/ChibiOS/os/hal/platforms/STM32F4xx/stm32f4xx.h"
 134              		.file 10 "../AithonLibrary/ChibiOS/os/hal/platforms/STM32F4xx/stm32_dma.h"
 135              		.file 11 "../AithonLibrary/ChibiOS/os/hal/include/io_block.h"
 136              		.file 12 "../AithonLibrary/ChibiOS/os/hal/platforms/STM32/GPIOv2/pal_lld.h"
 137              		.file 13 "../AithonLibrary/ChibiOS/os/hal/include/spi.h"
 138              		.file 14 "../AithonLibrary/ChibiOS/os/hal/platforms/STM32/SPIv1/spi_lld.h"
 139              		.file 15 "../AithonLibrary/ChibiOS/os/hal/include/mmc_spi.h"
 140              		.file 16 "../AithonLibrary/ChibiOS/ext/fatfs/src/integer.h"
 141              		.file 17 "../AithonLibrary/ChibiOS/ext/fatfs/src/ff.h"
 142              		.file 18 "../AithonLibrary/ChibiOS/os/ports/common/ARMCMx/CMSIS/include/core_cm4.h"
 143              		.section	.debug_info,"",%progbits
 144              	.Ldebug_info0:
 145 0000 010E0000 		.4byte	0xe01
 146 0004 0400     		.2byte	0x4
 147 0006 00000000 		.4byte	.Ldebug_abbrev0
 148 000a 04       		.byte	0x4
 149 000b 01       		.uleb128 0x1
 150 000c 72020000 		.4byte	.LASF200
 151 0010 01       		.byte	0x1
 152 0011 4C070000 		.4byte	.LASF201
 153 0015 17050000 		.4byte	.LASF202
 154 0019 00000000 		.4byte	.Ldebug_ranges0+0
 155 001d 00000000 		.4byte	0
 156 0021 00000000 		.4byte	.Ldebug_line0
 157 0025 02       		.uleb128 0x2
 158 0026 04       		.byte	0x4
 159 0027 05       		.byte	0x5
 160 0028 696E7400 		.ascii	"int\000"
 161 002c 03       		.uleb128 0x3
 162 002d 04       		.byte	0x4
 163 002e 07       		.byte	0x7
ARM GAS  /tmp/ccIkacop.s 			page 4


 164 002f 5F020000 		.4byte	.LASF0
 165 0033 03       		.uleb128 0x3
 166 0034 01       		.byte	0x1
 167 0035 06       		.byte	0x6
 168 0036 F6000000 		.4byte	.LASF1
 169 003a 04       		.uleb128 0x4
 170 003b 2E080000 		.4byte	.LASF4
 171 003f 02       		.byte	0x2
 172 0040 2A       		.byte	0x2a
 173 0041 45000000 		.4byte	0x45
 174 0045 03       		.uleb128 0x3
 175 0046 01       		.byte	0x1
 176 0047 08       		.byte	0x8
 177 0048 DD050000 		.4byte	.LASF2
 178 004c 03       		.uleb128 0x3
 179 004d 02       		.byte	0x2
 180 004e 05       		.byte	0x5
 181 004f 08060000 		.4byte	.LASF3
 182 0053 04       		.uleb128 0x4
 183 0054 A4010000 		.4byte	.LASF5
 184 0058 02       		.byte	0x2
 185 0059 36       		.byte	0x36
 186 005a 5E000000 		.4byte	0x5e
 187 005e 03       		.uleb128 0x3
 188 005f 02       		.byte	0x2
 189 0060 07       		.byte	0x7
 190 0061 BA030000 		.4byte	.LASF6
 191 0065 04       		.uleb128 0x4
 192 0066 D5050000 		.4byte	.LASF7
 193 006a 02       		.byte	0x2
 194 006b 4F       		.byte	0x4f
 195 006c 70000000 		.4byte	0x70
 196 0070 03       		.uleb128 0x3
 197 0071 04       		.byte	0x4
 198 0072 05       		.byte	0x5
 199 0073 7D000000 		.4byte	.LASF8
 200 0077 04       		.uleb128 0x4
 201 0078 D6060000 		.4byte	.LASF9
 202 007c 02       		.byte	0x2
 203 007d 50       		.byte	0x50
 204 007e 82000000 		.4byte	0x82
 205 0082 03       		.uleb128 0x3
 206 0083 04       		.byte	0x4
 207 0084 07       		.byte	0x7
 208 0085 FF060000 		.4byte	.LASF10
 209 0089 03       		.uleb128 0x3
 210 008a 08       		.byte	0x8
 211 008b 05       		.byte	0x5
 212 008c E8000000 		.4byte	.LASF11
 213 0090 03       		.uleb128 0x3
 214 0091 08       		.byte	0x8
 215 0092 07       		.byte	0x7
 216 0093 42020000 		.4byte	.LASF12
 217 0097 04       		.uleb128 0x4
 218 0098 2D010000 		.4byte	.LASF13
 219 009c 03       		.byte	0x3
 220 009d 2B       		.byte	0x2b
ARM GAS  /tmp/ccIkacop.s 			page 5


 221 009e A2000000 		.4byte	0xa2
 222 00a2 03       		.uleb128 0x3
 223 00a3 01       		.byte	0x1
 224 00a4 02       		.byte	0x2
 225 00a5 CF050000 		.4byte	.LASF14
 226 00a9 04       		.uleb128 0x4
 227 00aa 31040000 		.4byte	.LASF15
 228 00ae 03       		.byte	0x3
 229 00af 2C       		.byte	0x2c
 230 00b0 3A000000 		.4byte	0x3a
 231 00b4 04       		.uleb128 0x4
 232 00b5 94010000 		.4byte	.LASF16
 233 00b9 03       		.byte	0x3
 234 00ba 2D       		.byte	0x2d
 235 00bb 3A000000 		.4byte	0x3a
 236 00bf 04       		.uleb128 0x4
 237 00c0 53050000 		.4byte	.LASF17
 238 00c4 03       		.byte	0x3
 239 00c5 2E       		.byte	0x2e
 240 00c6 3A000000 		.4byte	0x3a
 241 00ca 04       		.uleb128 0x4
 242 00cb F5060000 		.4byte	.LASF18
 243 00cf 03       		.byte	0x3
 244 00d0 2F       		.byte	0x2f
 245 00d1 3A000000 		.4byte	0x3a
 246 00d5 04       		.uleb128 0x4
 247 00d6 AF050000 		.4byte	.LASF19
 248 00da 03       		.byte	0x3
 249 00db 30       		.byte	0x30
 250 00dc 77000000 		.4byte	0x77
 251 00e0 04       		.uleb128 0x4
 252 00e1 F7030000 		.4byte	.LASF20
 253 00e5 03       		.byte	0x3
 254 00e6 31       		.byte	0x31
 255 00e7 65000000 		.4byte	0x65
 256 00eb 04       		.uleb128 0x4
 257 00ec 48040000 		.4byte	.LASF21
 258 00f0 03       		.byte	0x3
 259 00f1 33       		.byte	0x33
 260 00f2 77000000 		.4byte	0x77
 261 00f6 04       		.uleb128 0x4
 262 00f7 7A070000 		.4byte	.LASF22
 263 00fb 03       		.byte	0x3
 264 00fc 35       		.byte	0x35
 265 00fd 77000000 		.4byte	0x77
 266 0101 04       		.uleb128 0x4
 267 0102 59020000 		.4byte	.LASF23
 268 0106 03       		.byte	0x3
 269 0107 36       		.byte	0x36
 270 0108 65000000 		.4byte	0x65
 271 010c 04       		.uleb128 0x4
 272 010d 7F060000 		.4byte	.LASF24
 273 0111 04       		.byte	0x4
 274 0112 2A       		.byte	0x2a
 275 0113 17010000 		.4byte	0x117
 276 0117 05       		.uleb128 0x5
 277 0118 7F060000 		.4byte	.LASF24
ARM GAS  /tmp/ccIkacop.s 			page 6


 278 011c 48       		.byte	0x48
 279 011d 05       		.byte	0x5
 280 011e 5E       		.byte	0x5e
 281 011f 14020000 		.4byte	0x214
 282 0123 06       		.uleb128 0x6
 283 0124 37060000 		.4byte	.LASF25
 284 0128 05       		.byte	0x5
 285 0129 5F       		.byte	0x5f
 286 012a 35020000 		.4byte	0x235
 287 012e 00       		.byte	0
 288 012f 06       		.uleb128 0x6
 289 0130 83050000 		.4byte	.LASF26
 290 0134 05       		.byte	0x5
 291 0135 61       		.byte	0x61
 292 0136 35020000 		.4byte	0x235
 293 013a 04       		.byte	0x4
 294 013b 06       		.uleb128 0x6
 295 013c 40080000 		.4byte	.LASF27
 296 0140 05       		.byte	0x5
 297 0141 63       		.byte	0x63
 298 0142 D5000000 		.4byte	0xd5
 299 0146 08       		.byte	0x8
 300 0147 06       		.uleb128 0x6
 301 0148 AC080000 		.4byte	.LASF28
 302 014c 05       		.byte	0x5
 303 014d 64       		.byte	0x64
 304 014e BF030000 		.4byte	0x3bf
 305 0152 0C       		.byte	0xc
 306 0153 06       		.uleb128 0x6
 307 0154 D7010000 		.4byte	.LASF29
 308 0158 05       		.byte	0x5
 309 0159 66       		.byte	0x66
 310 015a 35020000 		.4byte	0x235
 311 015e 10       		.byte	0x10
 312 015f 06       		.uleb128 0x6
 313 0160 D7040000 		.4byte	.LASF30
 314 0164 05       		.byte	0x5
 315 0165 67       		.byte	0x67
 316 0166 35020000 		.4byte	0x235
 317 016a 14       		.byte	0x14
 318 016b 06       		.uleb128 0x6
 319 016c 5F080000 		.4byte	.LASF31
 320 0170 05       		.byte	0x5
 321 0171 6E       		.byte	0x6e
 322 0172 98040000 		.4byte	0x498
 323 0176 18       		.byte	0x18
 324 0177 06       		.uleb128 0x6
 325 0178 12060000 		.4byte	.LASF32
 326 017c 05       		.byte	0x5
 327 017d 79       		.byte	0x79
 328 017e B4000000 		.4byte	0xb4
 329 0182 1C       		.byte	0x1c
 330 0183 06       		.uleb128 0x6
 331 0184 3E060000 		.4byte	.LASF33
 332 0188 05       		.byte	0x5
 333 0189 7D       		.byte	0x7d
 334 018a A9000000 		.4byte	0xa9
ARM GAS  /tmp/ccIkacop.s 			page 7


 335 018e 1D       		.byte	0x1d
 336 018f 06       		.uleb128 0x6
 337 0190 10080000 		.4byte	.LASF34
 338 0194 05       		.byte	0x5
 339 0195 82       		.byte	0x82
 340 0196 BF000000 		.4byte	0xbf
 341 019a 1E       		.byte	0x1e
 342 019b 06       		.uleb128 0x6
 343 019c 26060000 		.4byte	.LASF35
 344 01a0 05       		.byte	0x5
 345 01a1 88       		.byte	0x88
 346 01a2 CA000000 		.4byte	0xca
 347 01a6 1F       		.byte	0x1f
 348 01a7 06       		.uleb128 0x6
 349 01a8 B2070000 		.4byte	.LASF36
 350 01ac 05       		.byte	0x5
 351 01ad 8F       		.byte	0x8f
 352 01ae EC030000 		.4byte	0x3ec
 353 01b2 20       		.byte	0x20
 354 01b3 07       		.uleb128 0x7
 355 01b4 705F7500 		.ascii	"p_u\000"
 356 01b8 05       		.byte	0x5
 357 01b9 B4       		.byte	0xb4
 358 01ba 63040000 		.4byte	0x463
 359 01be 24       		.byte	0x24
 360 01bf 06       		.uleb128 0x6
 361 01c0 B2080000 		.4byte	.LASF37
 362 01c4 05       		.byte	0x5
 363 01c5 B9       		.byte	0xb9
 364 01c6 5B020000 		.4byte	0x25b
 365 01ca 28       		.byte	0x28
 366 01cb 06       		.uleb128 0x6
 367 01cc D4070000 		.4byte	.LASF38
 368 01d0 05       		.byte	0x5
 369 01d1 BF       		.byte	0xbf
 370 01d2 3B020000 		.4byte	0x23b
 371 01d6 2C       		.byte	0x2c
 372 01d7 06       		.uleb128 0x6
 373 01d8 86080000 		.4byte	.LASF39
 374 01dc 05       		.byte	0x5
 375 01dd C3       		.byte	0xc3
 376 01de E0000000 		.4byte	0xe0
 377 01e2 34       		.byte	0x34
 378 01e3 06       		.uleb128 0x6
 379 01e4 A6060000 		.4byte	.LASF40
 380 01e8 05       		.byte	0x5
 381 01e9 C9       		.byte	0xc9
 382 01ea EB000000 		.4byte	0xeb
 383 01ee 38       		.byte	0x38
 384 01ef 06       		.uleb128 0x6
 385 01f0 FE050000 		.4byte	.LASF41
 386 01f4 05       		.byte	0x5
 387 01f5 D0       		.byte	0xd0
 388 01f6 AA040000 		.4byte	0x4aa
 389 01fa 3C       		.byte	0x3c
 390 01fb 06       		.uleb128 0x6
 391 01fc 84070000 		.4byte	.LASF42
ARM GAS  /tmp/ccIkacop.s 			page 8


 392 0200 05       		.byte	0x5
 393 0201 D4       		.byte	0xd4
 394 0202 D5000000 		.4byte	0xd5
 395 0206 40       		.byte	0x40
 396 0207 06       		.uleb128 0x6
 397 0208 25010000 		.4byte	.LASF43
 398 020c 05       		.byte	0x5
 399 020d DA       		.byte	0xda
 400 020e 71020000 		.4byte	0x271
 401 0212 44       		.byte	0x44
 402 0213 00       		.byte	0
 403 0214 08       		.uleb128 0x8
 404 0215 08       		.byte	0x8
 405 0216 04       		.byte	0x4
 406 0217 61       		.byte	0x61
 407 0218 35020000 		.4byte	0x235
 408 021c 06       		.uleb128 0x6
 409 021d 37060000 		.4byte	.LASF25
 410 0221 04       		.byte	0x4
 411 0222 62       		.byte	0x62
 412 0223 35020000 		.4byte	0x235
 413 0227 00       		.byte	0
 414 0228 06       		.uleb128 0x6
 415 0229 83050000 		.4byte	.LASF26
 416 022d 04       		.byte	0x4
 417 022e 64       		.byte	0x64
 418 022f 35020000 		.4byte	0x235
 419 0233 04       		.byte	0x4
 420 0234 00       		.byte	0
 421 0235 09       		.uleb128 0x9
 422 0236 04       		.byte	0x4
 423 0237 0C010000 		.4byte	0x10c
 424 023b 04       		.uleb128 0x4
 425 023c 8C000000 		.4byte	.LASF44
 426 0240 04       		.byte	0x4
 427 0241 66       		.byte	0x66
 428 0242 14020000 		.4byte	0x214
 429 0246 08       		.uleb128 0x8
 430 0247 04       		.byte	0x4
 431 0248 04       		.byte	0x4
 432 0249 6B       		.byte	0x6b
 433 024a 5B020000 		.4byte	0x25b
 434 024e 06       		.uleb128 0x6
 435 024f 37060000 		.4byte	.LASF25
 436 0253 04       		.byte	0x4
 437 0254 6D       		.byte	0x6d
 438 0255 35020000 		.4byte	0x235
 439 0259 00       		.byte	0
 440 025a 00       		.byte	0
 441 025b 04       		.uleb128 0x4
 442 025c 33000000 		.4byte	.LASF45
 443 0260 04       		.byte	0x4
 444 0261 70       		.byte	0x70
 445 0262 46020000 		.4byte	0x246
 446 0266 04       		.uleb128 0x4
 447 0267 DF060000 		.4byte	.LASF46
 448 026b 06       		.byte	0x6
ARM GAS  /tmp/ccIkacop.s 			page 9


 449 026c E5       		.byte	0xe5
 450 026d 71020000 		.4byte	0x271
 451 0271 0A       		.uleb128 0xa
 452 0272 04       		.byte	0x4
 453 0273 0B       		.uleb128 0xb
 454 0274 CD070000 		.4byte	.LASF47
 455 0278 64       		.byte	0x64
 456 0279 06       		.byte	0x6
 457 027a 0C01     		.2byte	0x10c
 458 027c BF030000 		.4byte	0x3bf
 459 0280 0C       		.uleb128 0xc
 460 0281 73313600 		.ascii	"s16\000"
 461 0285 06       		.byte	0x6
 462 0286 0E01     		.2byte	0x10e
 463 0288 66020000 		.4byte	0x266
 464 028c 00       		.byte	0
 465 028d 0C       		.uleb128 0xc
 466 028e 73313700 		.ascii	"s17\000"
 467 0292 06       		.byte	0x6
 468 0293 0F01     		.2byte	0x10f
 469 0295 66020000 		.4byte	0x266
 470 0299 04       		.byte	0x4
 471 029a 0C       		.uleb128 0xc
 472 029b 73313800 		.ascii	"s18\000"
 473 029f 06       		.byte	0x6
 474 02a0 1001     		.2byte	0x110
 475 02a2 66020000 		.4byte	0x266
 476 02a6 08       		.byte	0x8
 477 02a7 0C       		.uleb128 0xc
 478 02a8 73313900 		.ascii	"s19\000"
 479 02ac 06       		.byte	0x6
 480 02ad 1101     		.2byte	0x111
 481 02af 66020000 		.4byte	0x266
 482 02b3 0C       		.byte	0xc
 483 02b4 0C       		.uleb128 0xc
 484 02b5 73323000 		.ascii	"s20\000"
 485 02b9 06       		.byte	0x6
 486 02ba 1201     		.2byte	0x112
 487 02bc 66020000 		.4byte	0x266
 488 02c0 10       		.byte	0x10
 489 02c1 0C       		.uleb128 0xc
 490 02c2 73323100 		.ascii	"s21\000"
 491 02c6 06       		.byte	0x6
 492 02c7 1301     		.2byte	0x113
 493 02c9 66020000 		.4byte	0x266
 494 02cd 14       		.byte	0x14
 495 02ce 0C       		.uleb128 0xc
 496 02cf 73323200 		.ascii	"s22\000"
 497 02d3 06       		.byte	0x6
 498 02d4 1401     		.2byte	0x114
 499 02d6 66020000 		.4byte	0x266
 500 02da 18       		.byte	0x18
 501 02db 0C       		.uleb128 0xc
 502 02dc 73323300 		.ascii	"s23\000"
 503 02e0 06       		.byte	0x6
 504 02e1 1501     		.2byte	0x115
 505 02e3 66020000 		.4byte	0x266
ARM GAS  /tmp/ccIkacop.s 			page 10


 506 02e7 1C       		.byte	0x1c
 507 02e8 0C       		.uleb128 0xc
 508 02e9 73323400 		.ascii	"s24\000"
 509 02ed 06       		.byte	0x6
 510 02ee 1601     		.2byte	0x116
 511 02f0 66020000 		.4byte	0x266
 512 02f4 20       		.byte	0x20
 513 02f5 0C       		.uleb128 0xc
 514 02f6 73323500 		.ascii	"s25\000"
 515 02fa 06       		.byte	0x6
 516 02fb 1701     		.2byte	0x117
 517 02fd 66020000 		.4byte	0x266
 518 0301 24       		.byte	0x24
 519 0302 0C       		.uleb128 0xc
 520 0303 73323600 		.ascii	"s26\000"
 521 0307 06       		.byte	0x6
 522 0308 1801     		.2byte	0x118
 523 030a 66020000 		.4byte	0x266
 524 030e 28       		.byte	0x28
 525 030f 0C       		.uleb128 0xc
 526 0310 73323700 		.ascii	"s27\000"
 527 0314 06       		.byte	0x6
 528 0315 1901     		.2byte	0x119
 529 0317 66020000 		.4byte	0x266
 530 031b 2C       		.byte	0x2c
 531 031c 0C       		.uleb128 0xc
 532 031d 73323800 		.ascii	"s28\000"
 533 0321 06       		.byte	0x6
 534 0322 1A01     		.2byte	0x11a
 535 0324 66020000 		.4byte	0x266
 536 0328 30       		.byte	0x30
 537 0329 0C       		.uleb128 0xc
 538 032a 73323900 		.ascii	"s29\000"
 539 032e 06       		.byte	0x6
 540 032f 1B01     		.2byte	0x11b
 541 0331 66020000 		.4byte	0x266
 542 0335 34       		.byte	0x34
 543 0336 0C       		.uleb128 0xc
 544 0337 73333000 		.ascii	"s30\000"
 545 033b 06       		.byte	0x6
 546 033c 1C01     		.2byte	0x11c
 547 033e 66020000 		.4byte	0x266
 548 0342 38       		.byte	0x38
 549 0343 0C       		.uleb128 0xc
 550 0344 73333100 		.ascii	"s31\000"
 551 0348 06       		.byte	0x6
 552 0349 1D01     		.2byte	0x11d
 553 034b 66020000 		.4byte	0x266
 554 034f 3C       		.byte	0x3c
 555 0350 0C       		.uleb128 0xc
 556 0351 723400   		.ascii	"r4\000"
 557 0354 06       		.byte	0x6
 558 0355 1F01     		.2byte	0x11f
 559 0357 66020000 		.4byte	0x266
 560 035b 40       		.byte	0x40
 561 035c 0C       		.uleb128 0xc
 562 035d 723500   		.ascii	"r5\000"
ARM GAS  /tmp/ccIkacop.s 			page 11


 563 0360 06       		.byte	0x6
 564 0361 2001     		.2byte	0x120
 565 0363 66020000 		.4byte	0x266
 566 0367 44       		.byte	0x44
 567 0368 0C       		.uleb128 0xc
 568 0369 723600   		.ascii	"r6\000"
 569 036c 06       		.byte	0x6
 570 036d 2101     		.2byte	0x121
 571 036f 66020000 		.4byte	0x266
 572 0373 48       		.byte	0x48
 573 0374 0C       		.uleb128 0xc
 574 0375 723700   		.ascii	"r7\000"
 575 0378 06       		.byte	0x6
 576 0379 2201     		.2byte	0x122
 577 037b 66020000 		.4byte	0x266
 578 037f 4C       		.byte	0x4c
 579 0380 0C       		.uleb128 0xc
 580 0381 723800   		.ascii	"r8\000"
 581 0384 06       		.byte	0x6
 582 0385 2301     		.2byte	0x123
 583 0387 66020000 		.4byte	0x266
 584 038b 50       		.byte	0x50
 585 038c 0C       		.uleb128 0xc
 586 038d 723900   		.ascii	"r9\000"
 587 0390 06       		.byte	0x6
 588 0391 2401     		.2byte	0x124
 589 0393 66020000 		.4byte	0x266
 590 0397 54       		.byte	0x54
 591 0398 0C       		.uleb128 0xc
 592 0399 72313000 		.ascii	"r10\000"
 593 039d 06       		.byte	0x6
 594 039e 2501     		.2byte	0x125
 595 03a0 66020000 		.4byte	0x266
 596 03a4 58       		.byte	0x58
 597 03a5 0C       		.uleb128 0xc
 598 03a6 72313100 		.ascii	"r11\000"
 599 03aa 06       		.byte	0x6
 600 03ab 2601     		.2byte	0x126
 601 03ad 66020000 		.4byte	0x266
 602 03b1 5C       		.byte	0x5c
 603 03b2 0C       		.uleb128 0xc
 604 03b3 6C7200   		.ascii	"lr\000"
 605 03b6 06       		.byte	0x6
 606 03b7 2701     		.2byte	0x127
 607 03b9 66020000 		.4byte	0x266
 608 03bd 60       		.byte	0x60
 609 03be 00       		.byte	0
 610 03bf 0B       		.uleb128 0xb
 611 03c0 B2030000 		.4byte	.LASF48
 612 03c4 04       		.byte	0x4
 613 03c5 06       		.byte	0x6
 614 03c6 3101     		.2byte	0x131
 615 03c8 DA030000 		.4byte	0x3da
 616 03cc 0C       		.uleb128 0xc
 617 03cd 72313300 		.ascii	"r13\000"
 618 03d1 06       		.byte	0x6
 619 03d2 3201     		.2byte	0x132
ARM GAS  /tmp/ccIkacop.s 			page 12


 620 03d4 DA030000 		.4byte	0x3da
 621 03d8 00       		.byte	0
 622 03d9 00       		.byte	0
 623 03da 09       		.uleb128 0x9
 624 03db 04       		.byte	0x4
 625 03dc 73020000 		.4byte	0x273
 626 03e0 0D       		.uleb128 0xd
 627 03e1 77000000 		.4byte	0x77
 628 03e5 03       		.uleb128 0x3
 629 03e6 04       		.byte	0x4
 630 03e7 07       		.byte	0x7
 631 03e8 AD040000 		.4byte	.LASF49
 632 03ec 0D       		.uleb128 0xd
 633 03ed F6000000 		.4byte	0xf6
 634 03f1 05       		.uleb128 0x5
 635 03f2 06080000 		.4byte	.LASF50
 636 03f6 0C       		.byte	0xc
 637 03f7 07       		.byte	0x7
 638 03f8 2C       		.byte	0x2c
 639 03f9 16040000 		.4byte	0x416
 640 03fd 06       		.uleb128 0x6
 641 03fe 93040000 		.4byte	.LASF51
 642 0402 07       		.byte	0x7
 643 0403 2D       		.byte	0x2d
 644 0404 3B020000 		.4byte	0x23b
 645 0408 00       		.byte	0
 646 0409 06       		.uleb128 0x6
 647 040a AC030000 		.4byte	.LASF52
 648 040e 07       		.byte	0x7
 649 040f 2F       		.byte	0x2f
 650 0410 01010000 		.4byte	0x101
 651 0414 08       		.byte	0x8
 652 0415 00       		.byte	0
 653 0416 04       		.uleb128 0x4
 654 0417 06080000 		.4byte	.LASF50
 655 041b 07       		.byte	0x7
 656 041c 30       		.byte	0x30
 657 041d F1030000 		.4byte	0x3f1
 658 0421 05       		.uleb128 0x5
 659 0422 54040000 		.4byte	.LASF53
 660 0426 10       		.byte	0x10
 661 0427 08       		.byte	0x8
 662 0428 2C       		.byte	0x2c
 663 0429 52040000 		.4byte	0x452
 664 042d 06       		.uleb128 0x6
 665 042e 34010000 		.4byte	.LASF54
 666 0432 08       		.byte	0x8
 667 0433 2D       		.byte	0x2d
 668 0434 3B020000 		.4byte	0x23b
 669 0438 00       		.byte	0
 670 0439 06       		.uleb128 0x6
 671 043a A4080000 		.4byte	.LASF55
 672 043e 08       		.byte	0x8
 673 043f 2F       		.byte	0x2f
 674 0440 35020000 		.4byte	0x235
 675 0444 08       		.byte	0x8
 676 0445 06       		.uleb128 0x6
ARM GAS  /tmp/ccIkacop.s 			page 13


 677 0446 73070000 		.4byte	.LASF56
 678 044a 08       		.byte	0x8
 679 044b 31       		.byte	0x31
 680 044c 52040000 		.4byte	0x452
 681 0450 0C       		.byte	0xc
 682 0451 00       		.byte	0
 683 0452 09       		.uleb128 0x9
 684 0453 04       		.byte	0x4
 685 0454 21040000 		.4byte	0x421
 686 0458 04       		.uleb128 0x4
 687 0459 54040000 		.4byte	.LASF53
 688 045d 08       		.byte	0x8
 689 045e 33       		.byte	0x33
 690 045f 21040000 		.4byte	0x421
 691 0463 0E       		.uleb128 0xe
 692 0464 04       		.byte	0x4
 693 0465 05       		.byte	0x5
 694 0466 96       		.byte	0x96
 695 0467 98040000 		.4byte	0x498
 696 046b 0F       		.uleb128 0xf
 697 046c 3F000000 		.4byte	.LASF57
 698 0470 05       		.byte	0x5
 699 0471 9D       		.byte	0x9d
 700 0472 E0000000 		.4byte	0xe0
 701 0476 0F       		.uleb128 0xf
 702 0477 3F050000 		.4byte	.LASF58
 703 047b 05       		.byte	0x5
 704 047c A4       		.byte	0xa4
 705 047d E0000000 		.4byte	0xe0
 706 0481 0F       		.uleb128 0xf
 707 0482 4D010000 		.4byte	.LASF59
 708 0486 05       		.byte	0x5
 709 0487 AB       		.byte	0xab
 710 0488 71020000 		.4byte	0x271
 711 048c 0F       		.uleb128 0xf
 712 048d 30060000 		.4byte	.LASF60
 713 0491 05       		.byte	0x5
 714 0492 B2       		.byte	0xb2
 715 0493 EB000000 		.4byte	0xeb
 716 0497 00       		.byte	0
 717 0498 09       		.uleb128 0x9
 718 0499 04       		.byte	0x4
 719 049a 9E040000 		.4byte	0x49e
 720 049e 10       		.uleb128 0x10
 721 049f A3040000 		.4byte	0x4a3
 722 04a3 03       		.uleb128 0x3
 723 04a4 01       		.byte	0x1
 724 04a5 08       		.byte	0x8
 725 04a6 11070000 		.4byte	.LASF61
 726 04aa 09       		.uleb128 0x9
 727 04ab 04       		.byte	0x4
 728 04ac 58040000 		.4byte	0x458
 729 04b0 09       		.uleb128 0x9
 730 04b1 04       		.byte	0x4
 731 04b2 3A000000 		.4byte	0x3a
 732 04b6 09       		.uleb128 0x9
 733 04b7 04       		.byte	0x4
ARM GAS  /tmp/ccIkacop.s 			page 14


 734 04b8 BC040000 		.4byte	0x4bc
 735 04bc 10       		.uleb128 0x10
 736 04bd 3A000000 		.4byte	0x3a
 737 04c1 11       		.uleb128 0x11
 738 04c2 77000000 		.4byte	0x77
 739 04c6 D1040000 		.4byte	0x4d1
 740 04ca 12       		.uleb128 0x12
 741 04cb E5030000 		.4byte	0x3e5
 742 04cf 03       		.byte	0x3
 743 04d0 00       		.byte	0
 744 04d1 0D       		.uleb128 0xd
 745 04d2 53000000 		.4byte	0x53
 746 04d6 0D       		.uleb128 0xd
 747 04d7 65000000 		.4byte	0x65
 748 04db 13       		.uleb128 0x13
 749 04dc 18       		.byte	0x18
 750 04dd 09       		.byte	0x9
 751 04de B102     		.2byte	0x2b1
 752 04e0 32050000 		.4byte	0x532
 753 04e4 0C       		.uleb128 0xc
 754 04e5 435200   		.ascii	"CR\000"
 755 04e8 09       		.byte	0x9
 756 04e9 B302     		.2byte	0x2b3
 757 04eb E0030000 		.4byte	0x3e0
 758 04ef 00       		.byte	0
 759 04f0 14       		.uleb128 0x14
 760 04f1 8F070000 		.4byte	.LASF62
 761 04f5 09       		.byte	0x9
 762 04f6 B402     		.2byte	0x2b4
 763 04f8 E0030000 		.4byte	0x3e0
 764 04fc 04       		.byte	0x4
 765 04fd 0C       		.uleb128 0xc
 766 04fe 50415200 		.ascii	"PAR\000"
 767 0502 09       		.byte	0x9
 768 0503 B502     		.2byte	0x2b5
 769 0505 E0030000 		.4byte	0x3e0
 770 0509 08       		.byte	0x8
 771 050a 14       		.uleb128 0x14
 772 050b 1F000000 		.4byte	.LASF63
 773 050f 09       		.byte	0x9
 774 0510 B602     		.2byte	0x2b6
 775 0512 E0030000 		.4byte	0x3e0
 776 0516 0C       		.byte	0xc
 777 0517 14       		.uleb128 0x14
 778 0518 EC070000 		.4byte	.LASF64
 779 051c 09       		.byte	0x9
 780 051d B702     		.2byte	0x2b7
 781 051f E0030000 		.4byte	0x3e0
 782 0523 10       		.byte	0x10
 783 0524 0C       		.uleb128 0xc
 784 0525 46435200 		.ascii	"FCR\000"
 785 0529 09       		.byte	0x9
 786 052a B802     		.2byte	0x2b8
 787 052c E0030000 		.4byte	0x3e0
 788 0530 14       		.byte	0x14
 789 0531 00       		.byte	0
 790 0532 15       		.uleb128 0x15
ARM GAS  /tmp/ccIkacop.s 			page 15


 791 0533 94070000 		.4byte	.LASF65
 792 0537 09       		.byte	0x9
 793 0538 B902     		.2byte	0x2b9
 794 053a DB040000 		.4byte	0x4db
 795 053e 13       		.uleb128 0x13
 796 053f 24       		.byte	0x24
 797 0540 09       		.byte	0x9
 798 0541 E304     		.2byte	0x4e3
 799 0543 30060000 		.4byte	0x630
 800 0547 0C       		.uleb128 0xc
 801 0548 43523100 		.ascii	"CR1\000"
 802 054c 09       		.byte	0x9
 803 054d E504     		.2byte	0x4e5
 804 054f D1040000 		.4byte	0x4d1
 805 0553 00       		.byte	0
 806 0554 14       		.uleb128 0x14
 807 0555 5B050000 		.4byte	.LASF66
 808 0559 09       		.byte	0x9
 809 055a E604     		.2byte	0x4e6
 810 055c 53000000 		.4byte	0x53
 811 0560 02       		.byte	0x2
 812 0561 0C       		.uleb128 0xc
 813 0562 43523200 		.ascii	"CR2\000"
 814 0566 09       		.byte	0x9
 815 0567 E704     		.2byte	0x4e7
 816 0569 D1040000 		.4byte	0x4d1
 817 056d 04       		.byte	0x4
 818 056e 14       		.uleb128 0x14
 819 056f 65050000 		.4byte	.LASF67
 820 0573 09       		.byte	0x9
 821 0574 E804     		.2byte	0x4e8
 822 0576 53000000 		.4byte	0x53
 823 057a 06       		.byte	0x6
 824 057b 0C       		.uleb128 0xc
 825 057c 535200   		.ascii	"SR\000"
 826 057f 09       		.byte	0x9
 827 0580 E904     		.2byte	0x4e9
 828 0582 D1040000 		.4byte	0x4d1
 829 0586 08       		.byte	0x8
 830 0587 14       		.uleb128 0x14
 831 0588 6F050000 		.4byte	.LASF68
 832 058c 09       		.byte	0x9
 833 058d EA04     		.2byte	0x4ea
 834 058f 53000000 		.4byte	0x53
 835 0593 0A       		.byte	0xa
 836 0594 0C       		.uleb128 0xc
 837 0595 445200   		.ascii	"DR\000"
 838 0598 09       		.byte	0x9
 839 0599 EB04     		.2byte	0x4eb
 840 059b D1040000 		.4byte	0x4d1
 841 059f 0C       		.byte	0xc
 842 05a0 14       		.uleb128 0x14
 843 05a1 79050000 		.4byte	.LASF69
 844 05a5 09       		.byte	0x9
 845 05a6 EC04     		.2byte	0x4ec
 846 05a8 53000000 		.4byte	0x53
 847 05ac 0E       		.byte	0xe
ARM GAS  /tmp/ccIkacop.s 			page 16


 848 05ad 14       		.uleb128 0x14
 849 05ae 48050000 		.4byte	.LASF70
 850 05b2 09       		.byte	0x9
 851 05b3 ED04     		.2byte	0x4ed
 852 05b5 D1040000 		.4byte	0x4d1
 853 05b9 10       		.byte	0x10
 854 05ba 14       		.uleb128 0x14
 855 05bb B9070000 		.4byte	.LASF71
 856 05bf 09       		.byte	0x9
 857 05c0 EE04     		.2byte	0x4ee
 858 05c2 53000000 		.4byte	0x53
 859 05c6 12       		.byte	0x12
 860 05c7 14       		.uleb128 0x14
 861 05c8 24000000 		.4byte	.LASF72
 862 05cc 09       		.byte	0x9
 863 05cd EF04     		.2byte	0x4ef
 864 05cf D1040000 		.4byte	0x4d1
 865 05d3 14       		.byte	0x14
 866 05d4 14       		.uleb128 0x14
 867 05d5 C3070000 		.4byte	.LASF73
 868 05d9 09       		.byte	0x9
 869 05da F004     		.2byte	0x4f0
 870 05dc 53000000 		.4byte	0x53
 871 05e0 16       		.byte	0x16
 872 05e1 14       		.uleb128 0x14
 873 05e2 41040000 		.4byte	.LASF74
 874 05e6 09       		.byte	0x9
 875 05e7 F104     		.2byte	0x4f1
 876 05e9 D1040000 		.4byte	0x4d1
 877 05ed 18       		.byte	0x18
 878 05ee 14       		.uleb128 0x14
 879 05ef CC060000 		.4byte	.LASF75
 880 05f3 09       		.byte	0x9
 881 05f4 F204     		.2byte	0x4f2
 882 05f6 53000000 		.4byte	0x53
 883 05fa 1A       		.byte	0x1a
 884 05fb 14       		.uleb128 0x14
 885 05fc BC040000 		.4byte	.LASF76
 886 0600 09       		.byte	0x9
 887 0601 F304     		.2byte	0x4f3
 888 0603 D1040000 		.4byte	0x4d1
 889 0607 1C       		.byte	0x1c
 890 0608 14       		.uleb128 0x14
 891 0609 FC070000 		.4byte	.LASF77
 892 060d 09       		.byte	0x9
 893 060e F404     		.2byte	0x4f4
 894 0610 53000000 		.4byte	0x53
 895 0614 1E       		.byte	0x1e
 896 0615 14       		.uleb128 0x14
 897 0616 A7040000 		.4byte	.LASF78
 898 061a 09       		.byte	0x9
 899 061b F504     		.2byte	0x4f5
 900 061d D1040000 		.4byte	0x4d1
 901 0621 20       		.byte	0x20
 902 0622 14       		.uleb128 0x14
 903 0623 A5050000 		.4byte	.LASF79
 904 0627 09       		.byte	0x9
ARM GAS  /tmp/ccIkacop.s 			page 17


 905 0628 F604     		.2byte	0x4f6
 906 062a 53000000 		.4byte	0x53
 907 062e 22       		.byte	0x22
 908 062f 00       		.byte	0
 909 0630 15       		.uleb128 0x15
 910 0631 C0060000 		.4byte	.LASF80
 911 0635 09       		.byte	0x9
 912 0636 F704     		.2byte	0x4f7
 913 0638 3E050000 		.4byte	0x53e
 914 063c 08       		.uleb128 0x8
 915 063d 0C       		.byte	0xc
 916 063e 0A       		.byte	0xa
 917 063f DA       		.byte	0xda
 918 0640 81060000 		.4byte	0x681
 919 0644 06       		.uleb128 0x6
 920 0645 B7050000 		.4byte	.LASF81
 921 0649 0A       		.byte	0xa
 922 064a DB       		.byte	0xdb
 923 064b 81060000 		.4byte	0x681
 924 064f 00       		.byte	0
 925 0650 06       		.uleb128 0x6
 926 0651 B1060000 		.4byte	.LASF82
 927 0655 0A       		.byte	0xa
 928 0656 DC       		.byte	0xdc
 929 0657 87060000 		.4byte	0x687
 930 065b 04       		.byte	0x4
 931 065c 06       		.uleb128 0x6
 932 065d A5030000 		.4byte	.LASF83
 933 0661 0A       		.byte	0xa
 934 0662 DD       		.byte	0xdd
 935 0663 3A000000 		.4byte	0x3a
 936 0667 08       		.byte	0x8
 937 0668 06       		.uleb128 0x6
 938 0669 16020000 		.4byte	.LASF84
 939 066d 0A       		.byte	0xa
 940 066e DF       		.byte	0xdf
 941 066f 3A000000 		.4byte	0x3a
 942 0673 09       		.byte	0x9
 943 0674 06       		.uleb128 0x6
 944 0675 A3000000 		.4byte	.LASF85
 945 0679 0A       		.byte	0xa
 946 067a E0       		.byte	0xe0
 947 067b 3A000000 		.4byte	0x3a
 948 067f 0A       		.byte	0xa
 949 0680 00       		.byte	0
 950 0681 09       		.uleb128 0x9
 951 0682 04       		.byte	0x4
 952 0683 32050000 		.4byte	0x532
 953 0687 09       		.uleb128 0x9
 954 0688 04       		.byte	0x4
 955 0689 E0030000 		.4byte	0x3e0
 956 068d 04       		.uleb128 0x4
 957 068e 92050000 		.4byte	.LASF86
 958 0692 0A       		.byte	0xa
 959 0693 E1       		.byte	0xe1
 960 0694 3C060000 		.4byte	0x63c
 961 0698 16       		.uleb128 0x16
ARM GAS  /tmp/ccIkacop.s 			page 18


 962 0699 01       		.byte	0x1
 963 069a 0B       		.byte	0xb
 964 069b 33       		.byte	0x33
 965 069c D7060000 		.4byte	0x6d7
 966 06a0 17       		.uleb128 0x17
 967 06a1 5D010000 		.4byte	.LASF87
 968 06a5 00       		.sleb128 0
 969 06a6 17       		.uleb128 0x17
 970 06a7 FF010000 		.4byte	.LASF88
 971 06ab 01       		.sleb128 1
 972 06ac 17       		.uleb128 0x17
 973 06ad D6030000 		.4byte	.LASF89
 974 06b1 02       		.sleb128 2
 975 06b2 17       		.uleb128 0x17
 976 06b3 02040000 		.4byte	.LASF90
 977 06b7 03       		.sleb128 3
 978 06b8 17       		.uleb128 0x17
 979 06b9 33070000 		.4byte	.LASF91
 980 06bd 04       		.sleb128 4
 981 06be 17       		.uleb128 0x17
 982 06bf EA040000 		.4byte	.LASF92
 983 06c3 05       		.sleb128 5
 984 06c4 17       		.uleb128 0x17
 985 06c5 9B040000 		.4byte	.LASF93
 986 06c9 06       		.sleb128 6
 987 06ca 17       		.uleb128 0x17
 988 06cb 1A060000 		.4byte	.LASF94
 989 06cf 07       		.sleb128 7
 990 06d0 17       		.uleb128 0x17
 991 06d1 1C080000 		.4byte	.LASF95
 992 06d5 08       		.sleb128 8
 993 06d6 00       		.byte	0
 994 06d7 04       		.uleb128 0x4
 995 06d8 C6000000 		.4byte	.LASF96
 996 06dc 0B       		.byte	0xb
 997 06dd 3D       		.byte	0x3d
 998 06de 98060000 		.4byte	0x698
 999 06e2 08       		.uleb128 0x8
 1000 06e3 08       		.byte	0x8
 1001 06e4 0B       		.byte	0xb
 1002 06e5 42       		.byte	0x42
 1003 06e6 03070000 		.4byte	0x703
 1004 06ea 06       		.uleb128 0x6
 1005 06eb 34020000 		.4byte	.LASF97
 1006 06ef 0B       		.byte	0xb
 1007 06f0 43       		.byte	0x43
 1008 06f1 77000000 		.4byte	0x77
 1009 06f5 00       		.byte	0
 1010 06f6 06       		.uleb128 0x6
 1011 06f7 57060000 		.4byte	.LASF98
 1012 06fb 0B       		.byte	0xb
 1013 06fc 44       		.byte	0x44
 1014 06fd 77000000 		.4byte	0x77
 1015 0701 04       		.byte	0x4
 1016 0702 00       		.byte	0
 1017 0703 04       		.uleb128 0x4
 1018 0704 00000000 		.4byte	.LASF99
ARM GAS  /tmp/ccIkacop.s 			page 19


 1019 0708 0B       		.byte	0xb
 1020 0709 45       		.byte	0x45
 1021 070a E2060000 		.4byte	0x6e2
 1022 070e 18       		.uleb128 0x18
 1023 070f 97000000 		.4byte	0x97
 1024 0713 1D070000 		.4byte	0x71d
 1025 0717 19       		.uleb128 0x19
 1026 0718 71020000 		.4byte	0x271
 1027 071c 00       		.byte	0
 1028 071d 09       		.uleb128 0x9
 1029 071e 04       		.byte	0x4
 1030 071f 0E070000 		.4byte	0x70e
 1031 0723 18       		.uleb128 0x18
 1032 0724 97000000 		.4byte	0x97
 1033 0728 41070000 		.4byte	0x741
 1034 072c 19       		.uleb128 0x19
 1035 072d 71020000 		.4byte	0x271
 1036 0731 19       		.uleb128 0x19
 1037 0732 77000000 		.4byte	0x77
 1038 0736 19       		.uleb128 0x19
 1039 0737 B0040000 		.4byte	0x4b0
 1040 073b 19       		.uleb128 0x19
 1041 073c 77000000 		.4byte	0x77
 1042 0740 00       		.byte	0
 1043 0741 09       		.uleb128 0x9
 1044 0742 04       		.byte	0x4
 1045 0743 23070000 		.4byte	0x723
 1046 0747 18       		.uleb128 0x18
 1047 0748 97000000 		.4byte	0x97
 1048 074c 65070000 		.4byte	0x765
 1049 0750 19       		.uleb128 0x19
 1050 0751 71020000 		.4byte	0x271
 1051 0755 19       		.uleb128 0x19
 1052 0756 77000000 		.4byte	0x77
 1053 075a 19       		.uleb128 0x19
 1054 075b B6040000 		.4byte	0x4b6
 1055 075f 19       		.uleb128 0x19
 1056 0760 77000000 		.4byte	0x77
 1057 0764 00       		.byte	0
 1058 0765 09       		.uleb128 0x9
 1059 0766 04       		.byte	0x4
 1060 0767 47070000 		.4byte	0x747
 1061 076b 18       		.uleb128 0x18
 1062 076c 97000000 		.4byte	0x97
 1063 0770 7F070000 		.4byte	0x77f
 1064 0774 19       		.uleb128 0x19
 1065 0775 71020000 		.4byte	0x271
 1066 0779 19       		.uleb128 0x19
 1067 077a 7F070000 		.4byte	0x77f
 1068 077e 00       		.byte	0
 1069 077f 09       		.uleb128 0x9
 1070 0780 04       		.byte	0x4
 1071 0781 03070000 		.4byte	0x703
 1072 0785 09       		.uleb128 0x9
 1073 0786 04       		.byte	0x4
 1074 0787 6B070000 		.4byte	0x76b
 1075 078b 08       		.uleb128 0x8
ARM GAS  /tmp/ccIkacop.s 			page 20


 1076 078c 04       		.byte	0x4
 1077 078d 0C       		.byte	0xc
 1078 078e 96       		.byte	0x96
 1079 078f AC070000 		.4byte	0x7ac
 1080 0793 07       		.uleb128 0x7
 1081 0794 73657400 		.ascii	"set\000"
 1082 0798 0C       		.byte	0xc
 1083 0799 97       		.byte	0x97
 1084 079a 53000000 		.4byte	0x53
 1085 079e 00       		.byte	0
 1086 079f 06       		.uleb128 0x6
 1087 07a0 B6040000 		.4byte	.LASF100
 1088 07a4 0C       		.byte	0xc
 1089 07a5 98       		.byte	0x98
 1090 07a6 53000000 		.4byte	0x53
 1091 07aa 02       		.byte	0x2
 1092 07ab 00       		.byte	0
 1093 07ac 0E       		.uleb128 0xe
 1094 07ad 04       		.byte	0x4
 1095 07ae 0C       		.byte	0xc
 1096 07af 94       		.byte	0x94
 1097 07b0 C7070000 		.4byte	0x7c7
 1098 07b4 1A       		.uleb128 0x1a
 1099 07b5 5700     		.ascii	"W\000"
 1100 07b7 0C       		.byte	0xc
 1101 07b8 95       		.byte	0x95
 1102 07b9 77000000 		.4byte	0x77
 1103 07bd 1A       		.uleb128 0x1a
 1104 07be 4800     		.ascii	"H\000"
 1105 07c0 0C       		.byte	0xc
 1106 07c1 99       		.byte	0x99
 1107 07c2 8B070000 		.4byte	0x78b
 1108 07c6 00       		.byte	0
 1109 07c7 08       		.uleb128 0x8
 1110 07c8 28       		.byte	0x28
 1111 07c9 0C       		.byte	0xc
 1112 07ca 8C       		.byte	0x8c
 1113 07cb 48080000 		.4byte	0x848
 1114 07cf 06       		.uleb128 0x6
 1115 07d0 6C020000 		.4byte	.LASF101
 1116 07d4 0C       		.byte	0xc
 1117 07d5 8E       		.byte	0x8e
 1118 07d6 E0030000 		.4byte	0x3e0
 1119 07da 00       		.byte	0
 1120 07db 06       		.uleb128 0x6
 1121 07dc 61000000 		.4byte	.LASF102
 1122 07e0 0C       		.byte	0xc
 1123 07e1 8F       		.byte	0x8f
 1124 07e2 E0030000 		.4byte	0x3e0
 1125 07e6 04       		.byte	0x4
 1126 07e7 06       		.uleb128 0x6
 1127 07e8 08020000 		.4byte	.LASF103
 1128 07ec 0C       		.byte	0xc
 1129 07ed 90       		.byte	0x90
 1130 07ee E0030000 		.4byte	0x3e0
 1131 07f2 08       		.byte	0x8
 1132 07f3 06       		.uleb128 0x6
ARM GAS  /tmp/ccIkacop.s 			page 21


 1133 07f4 9A030000 		.4byte	.LASF104
 1134 07f8 0C       		.byte	0xc
 1135 07f9 91       		.byte	0x91
 1136 07fa E0030000 		.4byte	0x3e0
 1137 07fe 0C       		.byte	0xc
 1138 07ff 07       		.uleb128 0x7
 1139 0800 49445200 		.ascii	"IDR\000"
 1140 0804 0C       		.byte	0xc
 1141 0805 92       		.byte	0x92
 1142 0806 E0030000 		.4byte	0x3e0
 1143 080a 10       		.byte	0x10
 1144 080b 07       		.uleb128 0x7
 1145 080c 4F445200 		.ascii	"ODR\000"
 1146 0810 0C       		.byte	0xc
 1147 0811 93       		.byte	0x93
 1148 0812 E0030000 		.4byte	0x3e0
 1149 0816 14       		.byte	0x14
 1150 0817 06       		.uleb128 0x6
 1151 0818 17080000 		.4byte	.LASF105
 1152 081c 0C       		.byte	0xc
 1153 081d 9A       		.byte	0x9a
 1154 081e 48080000 		.4byte	0x848
 1155 0822 18       		.byte	0x18
 1156 0823 06       		.uleb128 0x6
 1157 0824 A0030000 		.4byte	.LASF106
 1158 0828 0C       		.byte	0xc
 1159 0829 9B       		.byte	0x9b
 1160 082a E0030000 		.4byte	0x3e0
 1161 082e 1C       		.byte	0x1c
 1162 082f 06       		.uleb128 0x6
 1163 0830 4E050000 		.4byte	.LASF107
 1164 0834 0C       		.byte	0xc
 1165 0835 9C       		.byte	0x9c
 1166 0836 E0030000 		.4byte	0x3e0
 1167 083a 20       		.byte	0x20
 1168 083b 06       		.uleb128 0x6
 1169 083c 3A050000 		.4byte	.LASF108
 1170 0840 0C       		.byte	0xc
 1171 0841 9D       		.byte	0x9d
 1172 0842 E0030000 		.4byte	0x3e0
 1173 0846 24       		.byte	0x24
 1174 0847 00       		.byte	0
 1175 0848 0D       		.uleb128 0xd
 1176 0849 AC070000 		.4byte	0x7ac
 1177 084d 04       		.uleb128 0x4
 1178 084e 8D030000 		.4byte	.LASF109
 1179 0852 0C       		.byte	0xc
 1180 0853 9E       		.byte	0x9e
 1181 0854 C7070000 		.4byte	0x7c7
 1182 0858 04       		.uleb128 0x4
 1183 0859 A7070000 		.4byte	.LASF110
 1184 085d 0C       		.byte	0xc
 1185 085e FD       		.byte	0xfd
 1186 085f 63080000 		.4byte	0x863
 1187 0863 09       		.uleb128 0x9
 1188 0864 04       		.byte	0x4
 1189 0865 4D080000 		.4byte	0x84d
ARM GAS  /tmp/ccIkacop.s 			page 22


 1190 0869 09       		.uleb128 0x9
 1191 086a 04       		.byte	0x4
 1192 086b 6F080000 		.4byte	0x86f
 1193 086f 10       		.uleb128 0x10
 1194 0870 8D060000 		.4byte	0x68d
 1195 0874 16       		.uleb128 0x16
 1196 0875 01       		.byte	0x1
 1197 0876 0D       		.byte	0xd
 1198 0877 55       		.byte	0x55
 1199 0878 9B080000 		.4byte	0x89b
 1200 087c 17       		.uleb128 0x17
 1201 087d F1070000 		.4byte	.LASF111
 1202 0881 00       		.sleb128 0
 1203 0882 17       		.uleb128 0x17
 1204 0883 07010000 		.4byte	.LASF112
 1205 0887 01       		.sleb128 1
 1206 0888 17       		.uleb128 0x17
 1207 0889 99000000 		.4byte	.LASF113
 1208 088d 02       		.sleb128 2
 1209 088e 17       		.uleb128 0x17
 1210 088f 68000000 		.4byte	.LASF114
 1211 0893 03       		.sleb128 3
 1212 0894 17       		.uleb128 0x17
 1213 0895 26070000 		.4byte	.LASF115
 1214 0899 04       		.sleb128 4
 1215 089a 00       		.byte	0
 1216 089b 04       		.uleb128 0x4
 1217 089c 68070000 		.4byte	.LASF116
 1218 08a0 0D       		.byte	0xd
 1219 08a1 5B       		.byte	0x5b
 1220 08a2 74080000 		.4byte	0x874
 1221 08a6 15       		.uleb128 0x15
 1222 08a7 AA000000 		.4byte	.LASF117
 1223 08ab 0E       		.byte	0xe
 1224 08ac E701     		.2byte	0x1e7
 1225 08ae B2080000 		.4byte	0x8b2
 1226 08b2 0B       		.uleb128 0xb
 1227 08b3 AA000000 		.4byte	.LASF117
 1228 08b7 30       		.byte	0x30
 1229 08b8 0E       		.byte	0xe
 1230 08b9 0B02     		.2byte	0x20b
 1231 08bb 35090000 		.4byte	0x935
 1232 08bf 14       		.uleb128 0x14
 1233 08c0 7A010000 		.4byte	.LASF118
 1234 08c4 0E       		.byte	0xe
 1235 08c5 0F02     		.2byte	0x20f
 1236 08c7 9B080000 		.4byte	0x89b
 1237 08cb 00       		.byte	0
 1238 08cc 14       		.uleb128 0x14
 1239 08cd 45070000 		.4byte	.LASF119
 1240 08d1 0E       		.byte	0xe
 1241 08d2 1302     		.2byte	0x213
 1242 08d4 A2090000 		.4byte	0x9a2
 1243 08d8 04       		.byte	0x4
 1244 08d9 14       		.uleb128 0x14
 1245 08da BE050000 		.4byte	.LASF120
 1246 08de 0E       		.byte	0xe
ARM GAS  /tmp/ccIkacop.s 			page 23


 1247 08df 1802     		.2byte	0x218
 1248 08e1 35020000 		.4byte	0x235
 1249 08e5 08       		.byte	0x8
 1250 08e6 14       		.uleb128 0x14
 1251 08e7 80010000 		.4byte	.LASF121
 1252 08eb 0E       		.byte	0xe
 1253 08ec 1F02     		.2byte	0x21f
 1254 08ee 58040000 		.4byte	0x458
 1255 08f2 0C       		.byte	0xc
 1256 08f3 0C       		.uleb128 0xc
 1257 08f4 73706900 		.ascii	"spi\000"
 1258 08f8 0E       		.byte	0xe
 1259 08f9 2B02     		.2byte	0x22b
 1260 08fb AD090000 		.4byte	0x9ad
 1261 08ff 1C       		.byte	0x1c
 1262 0900 14       		.uleb128 0x14
 1263 0901 10000000 		.4byte	.LASF122
 1264 0905 0E       		.byte	0xe
 1265 0906 2F02     		.2byte	0x22f
 1266 0908 69080000 		.4byte	0x869
 1267 090c 20       		.byte	0x20
 1268 090d 14       		.uleb128 0x14
 1269 090e F9010000 		.4byte	.LASF123
 1270 0912 0E       		.byte	0xe
 1271 0913 3302     		.2byte	0x233
 1272 0915 69080000 		.4byte	0x869
 1273 0919 24       		.byte	0x24
 1274 091a 14       		.uleb128 0x14
 1275 091b E6010000 		.4byte	.LASF124
 1276 091f 0E       		.byte	0xe
 1277 0920 3702     		.2byte	0x237
 1278 0922 77000000 		.4byte	0x77
 1279 0926 28       		.byte	0x28
 1280 0927 14       		.uleb128 0x14
 1281 0928 F4040000 		.4byte	.LASF125
 1282 092c 0E       		.byte	0xe
 1283 092d 3B02     		.2byte	0x23b
 1284 092f 77000000 		.4byte	0x77
 1285 0933 2C       		.byte	0x2c
 1286 0934 00       		.byte	0
 1287 0935 15       		.uleb128 0x15
 1288 0936 26020000 		.4byte	.LASF126
 1289 093a 0E       		.byte	0xe
 1290 093b EF01     		.2byte	0x1ef
 1291 093d 41090000 		.4byte	0x941
 1292 0941 09       		.uleb128 0x9
 1293 0942 04       		.byte	0x4
 1294 0943 47090000 		.4byte	0x947
 1295 0947 1B       		.uleb128 0x1b
 1296 0948 52090000 		.4byte	0x952
 1297 094c 19       		.uleb128 0x19
 1298 094d 52090000 		.4byte	0x952
 1299 0951 00       		.byte	0
 1300 0952 09       		.uleb128 0x9
 1301 0953 04       		.byte	0x4
 1302 0954 A6080000 		.4byte	0x8a6
 1303 0958 13       		.uleb128 0x13
ARM GAS  /tmp/ccIkacop.s 			page 24


 1304 0959 0C       		.byte	0xc
 1305 095a 0E       		.byte	0xe
 1306 095b F401     		.2byte	0x1f4
 1307 095d 96090000 		.4byte	0x996
 1308 0961 14       		.uleb128 0x14
 1309 0962 DF010000 		.4byte	.LASF127
 1310 0966 0E       		.byte	0xe
 1311 0967 F801     		.2byte	0x1f8
 1312 0969 35090000 		.4byte	0x935
 1313 096d 00       		.byte	0
 1314 096e 14       		.uleb128 0x14
 1315 096f B4000000 		.4byte	.LASF128
 1316 0973 0E       		.byte	0xe
 1317 0974 FD01     		.2byte	0x1fd
 1318 0976 58080000 		.4byte	0x858
 1319 097a 04       		.byte	0x4
 1320 097b 14       		.uleb128 0x14
 1321 097c 86000000 		.4byte	.LASF129
 1322 0980 0E       		.byte	0xe
 1323 0981 0102     		.2byte	0x201
 1324 0983 53000000 		.4byte	0x53
 1325 0987 08       		.byte	0x8
 1326 0988 0C       		.uleb128 0xc
 1327 0989 63723100 		.ascii	"cr1\000"
 1328 098d 0E       		.byte	0xe
 1329 098e 0502     		.2byte	0x205
 1330 0990 53000000 		.4byte	0x53
 1331 0994 0A       		.byte	0xa
 1332 0995 00       		.byte	0
 1333 0996 15       		.uleb128 0x15
 1334 0997 71080000 		.4byte	.LASF130
 1335 099b 0E       		.byte	0xe
 1336 099c 0602     		.2byte	0x206
 1337 099e 58090000 		.4byte	0x958
 1338 09a2 09       		.uleb128 0x9
 1339 09a3 04       		.byte	0x4
 1340 09a4 A8090000 		.4byte	0x9a8
 1341 09a8 10       		.uleb128 0x10
 1342 09a9 96090000 		.4byte	0x996
 1343 09ad 09       		.uleb128 0x9
 1344 09ae 04       		.byte	0x4
 1345 09af 30060000 		.4byte	0x630
 1346 09b3 08       		.uleb128 0x8
 1347 09b4 0C       		.byte	0xc
 1348 09b5 0F       		.byte	0xf
 1349 09b6 56       		.byte	0x56
 1350 09b7 E0090000 		.4byte	0x9e0
 1351 09bb 06       		.uleb128 0x6
 1352 09bc 36080000 		.4byte	.LASF131
 1353 09c0 0F       		.byte	0xf
 1354 09c1 5A       		.byte	0x5a
 1355 09c2 52090000 		.4byte	0x952
 1356 09c6 00       		.byte	0
 1357 09c7 06       		.uleb128 0x6
 1358 09c8 E1030000 		.4byte	.LASF132
 1359 09cc 0F       		.byte	0xf
 1360 09cd 5E       		.byte	0x5e
ARM GAS  /tmp/ccIkacop.s 			page 25


 1361 09ce A2090000 		.4byte	0x9a2
 1362 09d2 04       		.byte	0x4
 1363 09d3 06       		.uleb128 0x6
 1364 09d4 28080000 		.4byte	.LASF133
 1365 09d8 0F       		.byte	0xf
 1366 09d9 62       		.byte	0x62
 1367 09da A2090000 		.4byte	0x9a2
 1368 09de 08       		.byte	0x8
 1369 09df 00       		.byte	0
 1370 09e0 04       		.uleb128 0x4
 1371 09e1 FE040000 		.4byte	.LASF134
 1372 09e5 0F       		.byte	0xf
 1373 09e6 63       		.byte	0x63
 1374 09e7 B3090000 		.4byte	0x9b3
 1375 09eb 05       		.uleb128 0x5
 1376 09ec E8060000 		.4byte	.LASF135
 1377 09f0 20       		.byte	0x20
 1378 09f1 0F       		.byte	0xf
 1379 09f2 70       		.byte	0x70
 1380 09f3 580A0000 		.4byte	0xa58
 1381 09f7 06       		.uleb128 0x6
 1382 09f8 72040000 		.4byte	.LASF136
 1383 09fc 0F       		.byte	0xf
 1384 09fd 71       		.byte	0x71
 1385 09fe 1D070000 		.4byte	0x71d
 1386 0a02 00       		.byte	0
 1387 0a03 06       		.uleb128 0x6
 1388 0a04 DF070000 		.4byte	.LASF137
 1389 0a08 0F       		.byte	0xf
 1390 0a09 71       		.byte	0x71
 1391 0a0a 1D070000 		.4byte	0x71d
 1392 0a0e 04       		.byte	0x4
 1393 0a0f 06       		.uleb128 0x6
 1394 0a10 9E060000 		.4byte	.LASF138
 1395 0a14 0F       		.byte	0xf
 1396 0a15 71       		.byte	0x71
 1397 0a16 1D070000 		.4byte	0x71d
 1398 0a1a 08       		.byte	0x8
 1399 0a1b 06       		.uleb128 0x6
 1400 0a1c 42010000 		.4byte	.LASF139
 1401 0a20 0F       		.byte	0xf
 1402 0a21 71       		.byte	0x71
 1403 0a22 1D070000 		.4byte	0x71d
 1404 0a26 0C       		.byte	0xc
 1405 0a27 06       		.uleb128 0x6
 1406 0a28 52080000 		.4byte	.LASF140
 1407 0a2c 0F       		.byte	0xf
 1408 0a2d 71       		.byte	0x71
 1409 0a2e 41070000 		.4byte	0x741
 1410 0a32 10       		.byte	0x10
 1411 0a33 06       		.uleb128 0x6
 1412 0a34 8D040000 		.4byte	.LASF141
 1413 0a38 0F       		.byte	0xf
 1414 0a39 71       		.byte	0x71
 1415 0a3a 65070000 		.4byte	0x765
 1416 0a3e 14       		.byte	0x14
 1417 0a3f 06       		.uleb128 0x6
ARM GAS  /tmp/ccIkacop.s 			page 26


 1418 0a40 3B080000 		.4byte	.LASF142
 1419 0a44 0F       		.byte	0xf
 1420 0a45 71       		.byte	0x71
 1421 0a46 1D070000 		.4byte	0x71d
 1422 0a4a 18       		.byte	0x18
 1423 0a4b 06       		.uleb128 0x6
 1424 0a4c F0010000 		.4byte	.LASF143
 1425 0a50 0F       		.byte	0xf
 1426 0a51 71       		.byte	0x71
 1427 0a52 85070000 		.4byte	0x785
 1428 0a56 1C       		.byte	0x1c
 1429 0a57 00       		.byte	0
 1430 0a58 08       		.uleb128 0x8
 1431 0a59 34       		.byte	0x34
 1432 0a5a 0F       		.byte	0xf
 1433 0a5b 79       		.byte	0x79
 1434 0a5c B50A0000 		.4byte	0xab5
 1435 0a60 07       		.uleb128 0x7
 1436 0a61 766D7400 		.ascii	"vmt\000"
 1437 0a65 0F       		.byte	0xf
 1438 0a66 7D       		.byte	0x7d
 1439 0a67 B50A0000 		.4byte	0xab5
 1440 0a6b 00       		.byte	0
 1441 0a6c 06       		.uleb128 0x6
 1442 0a6d 7A010000 		.4byte	.LASF118
 1443 0a71 0F       		.byte	0xf
 1444 0a72 7E       		.byte	0x7e
 1445 0a73 D7060000 		.4byte	0x6d7
 1446 0a77 04       		.byte	0x4
 1447 0a78 07       		.uleb128 0x7
 1448 0a79 63696400 		.ascii	"cid\000"
 1449 0a7d 0F       		.byte	0xf
 1450 0a7e 7E       		.byte	0x7e
 1451 0a7f C1040000 		.4byte	0x4c1
 1452 0a83 08       		.byte	0x8
 1453 0a84 07       		.uleb128 0x7
 1454 0a85 63736400 		.ascii	"csd\000"
 1455 0a89 0F       		.byte	0xf
 1456 0a8a 7E       		.byte	0x7e
 1457 0a8b C1040000 		.4byte	0x4c1
 1458 0a8f 18       		.byte	0x18
 1459 0a90 06       		.uleb128 0x6
 1460 0a91 16000000 		.4byte	.LASF144
 1461 0a95 0F       		.byte	0xf
 1462 0a96 7E       		.byte	0x7e
 1463 0a97 77000000 		.4byte	0x77
 1464 0a9b 28       		.byte	0x28
 1465 0a9c 06       		.uleb128 0x6
 1466 0a9d 45070000 		.4byte	.LASF119
 1467 0aa1 0F       		.byte	0xf
 1468 0aa2 82       		.byte	0x82
 1469 0aa3 C00A0000 		.4byte	0xac0
 1470 0aa7 2C       		.byte	0x2c
 1471 0aa8 06       		.uleb128 0x6
 1472 0aa9 E7030000 		.4byte	.LASF145
 1473 0aad 0F       		.byte	0xf
 1474 0aae 86       		.byte	0x86
ARM GAS  /tmp/ccIkacop.s 			page 27


 1475 0aaf 97000000 		.4byte	0x97
 1476 0ab3 30       		.byte	0x30
 1477 0ab4 00       		.byte	0
 1478 0ab5 09       		.uleb128 0x9
 1479 0ab6 04       		.byte	0x4
 1480 0ab7 BB0A0000 		.4byte	0xabb
 1481 0abb 10       		.uleb128 0x10
 1482 0abc EB090000 		.4byte	0x9eb
 1483 0ac0 09       		.uleb128 0x9
 1484 0ac1 04       		.byte	0x4
 1485 0ac2 C60A0000 		.4byte	0xac6
 1486 0ac6 10       		.uleb128 0x10
 1487 0ac7 E0090000 		.4byte	0x9e0
 1488 0acb 04       		.uleb128 0x4
 1489 0acc B6060000 		.4byte	.LASF146
 1490 0ad0 0F       		.byte	0xf
 1491 0ad1 87       		.byte	0x87
 1492 0ad2 580A0000 		.4byte	0xa58
 1493 0ad6 04       		.uleb128 0x4
 1494 0ad7 3D020000 		.4byte	.LASF147
 1495 0adb 10       		.byte	0x10
 1496 0adc 16       		.byte	0x16
 1497 0add 45000000 		.4byte	0x45
 1498 0ae1 04       		.uleb128 0x4
 1499 0ae2 5A040000 		.4byte	.LASF148
 1500 0ae6 10       		.byte	0x10
 1501 0ae7 1B       		.byte	0x1b
 1502 0ae8 5E000000 		.4byte	0x5e
 1503 0aec 04       		.uleb128 0x4
 1504 0aed D1010000 		.4byte	.LASF149
 1505 0af1 10       		.byte	0x10
 1506 0af2 21       		.byte	0x21
 1507 0af3 82000000 		.4byte	0x82
 1508 0af7 1C       		.uleb128 0x1c
 1509 0af8 3402     		.2byte	0x234
 1510 0afa 11       		.byte	0x11
 1511 0afb 4D       		.byte	0x4d
 1512 0afc E40B0000 		.4byte	0xbe4
 1513 0b00 06       		.uleb128 0x6
 1514 0b01 2B000000 		.4byte	.LASF150
 1515 0b05 11       		.byte	0x11
 1516 0b06 4E       		.byte	0x4e
 1517 0b07 D60A0000 		.4byte	0xad6
 1518 0b0b 00       		.byte	0
 1519 0b0c 07       		.uleb128 0x7
 1520 0b0d 64727600 		.ascii	"drv\000"
 1521 0b11 11       		.byte	0x11
 1522 0b12 4F       		.byte	0x4f
 1523 0b13 D60A0000 		.4byte	0xad6
 1524 0b17 01       		.byte	0x1
 1525 0b18 06       		.uleb128 0x6
 1526 0b19 10020000 		.4byte	.LASF151
 1527 0b1d 11       		.byte	0x11
 1528 0b1e 50       		.byte	0x50
 1529 0b1f D60A0000 		.4byte	0xad6
 1530 0b23 02       		.byte	0x2
 1531 0b24 06       		.uleb128 0x6
ARM GAS  /tmp/ccIkacop.s 			page 28


 1532 0b25 9D010000 		.4byte	.LASF152
 1533 0b29 11       		.byte	0x11
 1534 0b2a 51       		.byte	0x51
 1535 0b2b D60A0000 		.4byte	0xad6
 1536 0b2f 03       		.byte	0x3
 1537 0b30 06       		.uleb128 0x6
 1538 0b31 5F060000 		.4byte	.LASF153
 1539 0b35 11       		.byte	0x11
 1540 0b36 52       		.byte	0x52
 1541 0b37 D60A0000 		.4byte	0xad6
 1542 0b3b 04       		.byte	0x4
 1543 0b3c 06       		.uleb128 0x6
 1544 0b3d 11040000 		.4byte	.LASF154
 1545 0b41 11       		.byte	0x11
 1546 0b42 53       		.byte	0x53
 1547 0b43 D60A0000 		.4byte	0xad6
 1548 0b47 05       		.byte	0x5
 1549 0b48 07       		.uleb128 0x7
 1550 0b49 696400   		.ascii	"id\000"
 1551 0b4c 11       		.byte	0x11
 1552 0b4d 54       		.byte	0x54
 1553 0b4e E10A0000 		.4byte	0xae1
 1554 0b52 06       		.byte	0x6
 1555 0b53 06       		.uleb128 0x6
 1556 0b54 73000000 		.4byte	.LASF155
 1557 0b58 11       		.byte	0x11
 1558 0b59 55       		.byte	0x55
 1559 0b5a E10A0000 		.4byte	0xae1
 1560 0b5e 08       		.byte	0x8
 1561 0b5f 06       		.uleb128 0x6
 1562 0b60 02010000 		.4byte	.LASF156
 1563 0b64 11       		.byte	0x11
 1564 0b65 5A       		.byte	0x5a
 1565 0b66 E40B0000 		.4byte	0xbe4
 1566 0b6a 0C       		.byte	0xc
 1567 0b6b 06       		.uleb128 0x6
 1568 0b6c BB000000 		.4byte	.LASF157
 1569 0b70 11       		.byte	0x11
 1570 0b71 5D       		.byte	0x5d
 1571 0b72 EC0A0000 		.4byte	0xaec
 1572 0b76 10       		.byte	0x10
 1573 0b77 06       		.uleb128 0x6
 1574 0b78 DF040000 		.4byte	.LASF158
 1575 0b7c 11       		.byte	0x11
 1576 0b7d 5E       		.byte	0x5e
 1577 0b7e EC0A0000 		.4byte	0xaec
 1578 0b82 14       		.byte	0x14
 1579 0b83 06       		.uleb128 0x6
 1580 0b84 47080000 		.4byte	.LASF159
 1581 0b88 11       		.byte	0x11
 1582 0b89 5F       		.byte	0x5f
 1583 0b8a EC0A0000 		.4byte	0xaec
 1584 0b8e 18       		.byte	0x18
 1585 0b8f 06       		.uleb128 0x6
 1586 0b90 54010000 		.4byte	.LASF160
 1587 0b94 11       		.byte	0x11
 1588 0b95 64       		.byte	0x64
ARM GAS  /tmp/ccIkacop.s 			page 29


 1589 0b96 EC0A0000 		.4byte	0xaec
 1590 0b9a 1C       		.byte	0x1c
 1591 0b9b 06       		.uleb128 0x6
 1592 0b9c 3C010000 		.4byte	.LASF161
 1593 0ba0 11       		.byte	0x11
 1594 0ba1 65       		.byte	0x65
 1595 0ba2 EC0A0000 		.4byte	0xaec
 1596 0ba6 20       		.byte	0x20
 1597 0ba7 06       		.uleb128 0x6
 1598 0ba8 C9010000 		.4byte	.LASF162
 1599 0bac 11       		.byte	0x11
 1600 0bad 66       		.byte	0x66
 1601 0bae EC0A0000 		.4byte	0xaec
 1602 0bb2 24       		.byte	0x24
 1603 0bb3 06       		.uleb128 0x6
 1604 0bb4 CF040000 		.4byte	.LASF163
 1605 0bb8 11       		.byte	0x11
 1606 0bb9 67       		.byte	0x67
 1607 0bba EC0A0000 		.4byte	0xaec
 1608 0bbe 28       		.byte	0x28
 1609 0bbf 06       		.uleb128 0x6
 1610 0bc0 CD030000 		.4byte	.LASF164
 1611 0bc4 11       		.byte	0x11
 1612 0bc5 68       		.byte	0x68
 1613 0bc6 EC0A0000 		.4byte	0xaec
 1614 0bca 2C       		.byte	0x2c
 1615 0bcb 06       		.uleb128 0x6
 1616 0bcc 39040000 		.4byte	.LASF165
 1617 0bd0 11       		.byte	0x11
 1618 0bd1 69       		.byte	0x69
 1619 0bd2 EC0A0000 		.4byte	0xaec
 1620 0bd6 30       		.byte	0x30
 1621 0bd7 07       		.uleb128 0x7
 1622 0bd8 77696E00 		.ascii	"win\000"
 1623 0bdc 11       		.byte	0x11
 1624 0bdd 6A       		.byte	0x6a
 1625 0bde EA0B0000 		.4byte	0xbea
 1626 0be2 34       		.byte	0x34
 1627 0be3 00       		.byte	0
 1628 0be4 09       		.uleb128 0x9
 1629 0be5 04       		.byte	0x4
 1630 0be6 16040000 		.4byte	0x416
 1631 0bea 11       		.uleb128 0x11
 1632 0beb D60A0000 		.4byte	0xad6
 1633 0bef FB0B0000 		.4byte	0xbfb
 1634 0bf3 1D       		.uleb128 0x1d
 1635 0bf4 E5030000 		.4byte	0x3e5
 1636 0bf8 FF01     		.2byte	0x1ff
 1637 0bfa 00       		.byte	0
 1638 0bfb 04       		.uleb128 0x4
 1639 0bfc 7E040000 		.4byte	.LASF166
 1640 0c00 11       		.byte	0x11
 1641 0c01 6B       		.byte	0x6b
 1642 0c02 F70A0000 		.4byte	0xaf7
 1643 0c06 09       		.uleb128 0x9
 1644 0c07 04       		.byte	0x4
 1645 0c08 FB0B0000 		.4byte	0xbfb
ARM GAS  /tmp/ccIkacop.s 			page 30


 1646 0c0c 16       		.uleb128 0x16
 1647 0c0d 01       		.byte	0x1
 1648 0c0e 11       		.byte	0x11
 1649 0c0f B1       		.byte	0xb1
 1650 0c10 8D0C0000 		.4byte	0xc8d
 1651 0c14 17       		.uleb128 0x17
 1652 0c15 62070000 		.4byte	.LASF167
 1653 0c19 00       		.sleb128 0
 1654 0c1a 17       		.uleb128 0x17
 1655 0c1b 25040000 		.4byte	.LASF168
 1656 0c1f 01       		.sleb128 1
 1657 0c20 17       		.uleb128 0x17
 1658 0c21 1A040000 		.4byte	.LASF169
 1659 0c25 02       		.sleb128 2
 1660 0c26 17       		.uleb128 0x17
 1661 0c27 97080000 		.4byte	.LASF170
 1662 0c2b 03       		.sleb128 3
 1663 0c2c 17       		.uleb128 0x17
 1664 0c2d 66080000 		.4byte	.LASF171
 1665 0c31 04       		.sleb128 4
 1666 0c32 17       		.uleb128 0x17
 1667 0c33 7B080000 		.4byte	.LASF172
 1668 0c37 05       		.sleb128 5
 1669 0c38 17       		.uleb128 0x17
 1670 0c39 16070000 		.4byte	.LASF173
 1671 0c3d 06       		.sleb128 6
 1672 0c3e 17       		.uleb128 0x17
 1673 0c3f 65060000 		.4byte	.LASF174
 1674 0c43 07       		.sleb128 7
 1675 0c44 17       		.uleb128 0x17
 1676 0c45 C0010000 		.4byte	.LASF175
 1677 0c49 08       		.sleb128 8
 1678 0c4a 17       		.uleb128 0x17
 1679 0c4b 68010000 		.4byte	.LASF176
 1680 0c4f 09       		.sleb128 9
 1681 0c50 17       		.uleb128 0x17
 1682 0c51 5F040000 		.4byte	.LASF177
 1683 0c55 0A       		.sleb128 10
 1684 0c56 17       		.uleb128 0x17
 1685 0c57 46060000 		.4byte	.LASF178
 1686 0c5b 0B       		.sleb128 11
 1687 0c5c 17       		.uleb128 0x17
 1688 0c5d 08050000 		.4byte	.LASF179
 1689 0c61 0C       		.sleb128 12
 1690 0c62 17       		.uleb128 0x17
 1691 0c63 46000000 		.4byte	.LASF180
 1692 0c67 0D       		.sleb128 13
 1693 0c68 17       		.uleb128 0x17
 1694 0c69 6F060000 		.4byte	.LASF181
 1695 0c6d 0E       		.sleb128 14
 1696 0c6e 17       		.uleb128 0x17
 1697 0c6f C4040000 		.4byte	.LASF182
 1698 0c73 0F       		.sleb128 15
 1699 0c74 17       		.uleb128 0x17
 1700 0c75 86060000 		.4byte	.LASF183
 1701 0c79 10       		.sleb128 16
 1702 0c7a 17       		.uleb128 0x17
ARM GAS  /tmp/ccIkacop.s 			page 31


 1703 0c7b AD010000 		.4byte	.LASF184
 1704 0c7f 11       		.sleb128 17
 1705 0c80 17       		.uleb128 0x17
 1706 0c81 D1000000 		.4byte	.LASF185
 1707 0c85 12       		.sleb128 18
 1708 0c86 17       		.uleb128 0x17
 1709 0c87 10010000 		.4byte	.LASF186
 1710 0c8b 13       		.sleb128 19
 1711 0c8c 00       		.byte	0
 1712 0c8d 04       		.uleb128 0x4
 1713 0c8e 57080000 		.4byte	.LASF187
 1714 0c92 11       		.byte	0x11
 1715 0c93 C6       		.byte	0xc6
 1716 0c94 0C0C0000 		.4byte	0xc0c
 1717 0c98 1E       		.uleb128 0x1e
 1718 0c99 BC080000 		.4byte	.LASF203
 1719 0c9d 01       		.byte	0x1
 1720 0c9e 1E       		.byte	0x1e
 1721 0c9f 97000000 		.4byte	0x97
 1722 0ca3 00000000 		.4byte	.LFB119
 1723 0ca7 40000000 		.4byte	.LFE119-.LFB119
 1724 0cab 01       		.uleb128 0x1
 1725 0cac 9C       		.byte	0x9c
 1726 0cad 2A0D0000 		.4byte	0xd2a
 1727 0cb1 1F       		.uleb128 0x1f
 1728 0cb2 08000000 		.4byte	.LVL0
 1729 0cb6 970D0000 		.4byte	0xd97
 1730 0cba C80C0000 		.4byte	0xcc8
 1731 0cbe 20       		.uleb128 0x20
 1732 0cbf 01       		.uleb128 0x1
 1733 0cc0 50       		.byte	0x50
 1734 0cc1 05       		.uleb128 0x5
 1735 0cc2 03       		.byte	0x3
 1736 0cc3 00000000 		.4byte	.LANCHOR0
 1737 0cc7 00       		.byte	0
 1738 0cc8 1F       		.uleb128 0x1f
 1739 0cc9 10000000 		.4byte	.LVL1
 1740 0ccd AE0D0000 		.4byte	0xdae
 1741 0cd1 E80C0000 		.4byte	0xce8
 1742 0cd5 20       		.uleb128 0x20
 1743 0cd6 01       		.uleb128 0x1
 1744 0cd7 51       		.byte	0x51
 1745 0cd8 05       		.uleb128 0x5
 1746 0cd9 03       		.byte	0x3
 1747 0cda 00000000 		.4byte	.LANCHOR1
 1748 0cde 20       		.uleb128 0x20
 1749 0cdf 01       		.uleb128 0x1
 1750 0ce0 50       		.byte	0x50
 1751 0ce1 05       		.uleb128 0x5
 1752 0ce2 03       		.byte	0x3
 1753 0ce3 00000000 		.4byte	.LANCHOR0
 1754 0ce7 00       		.byte	0
 1755 0ce8 1F       		.uleb128 0x1f
 1756 0ce9 16000000 		.4byte	.LVL2
 1757 0ced C40D0000 		.4byte	0xdc4
 1758 0cf1 FF0C0000 		.4byte	0xcff
 1759 0cf5 20       		.uleb128 0x20
ARM GAS  /tmp/ccIkacop.s 			page 32


 1760 0cf6 01       		.uleb128 0x1
 1761 0cf7 50       		.byte	0x50
 1762 0cf8 05       		.uleb128 0x5
 1763 0cf9 03       		.byte	0x3
 1764 0cfa 00000000 		.4byte	.LANCHOR0
 1765 0cfe 00       		.byte	0
 1766 0cff 1F       		.uleb128 0x1f
 1767 0d00 24000000 		.4byte	.LVL3
 1768 0d04 D90D0000 		.4byte	0xdd9
 1769 0d08 160D0000 		.4byte	0xd16
 1770 0d0c 20       		.uleb128 0x20
 1771 0d0d 01       		.uleb128 0x1
 1772 0d0e 51       		.byte	0x51
 1773 0d0f 05       		.uleb128 0x5
 1774 0d10 03       		.byte	0x3
 1775 0d11 00000000 		.4byte	.LANCHOR2
 1776 0d15 00       		.byte	0
 1777 0d16 21       		.uleb128 0x21
 1778 0d17 30000000 		.4byte	.LVL4
 1779 0d1b F30D0000 		.4byte	0xdf3
 1780 0d1f 20       		.uleb128 0x20
 1781 0d20 01       		.uleb128 0x1
 1782 0d21 50       		.byte	0x50
 1783 0d22 05       		.uleb128 0x5
 1784 0d23 03       		.byte	0x3
 1785 0d24 00000000 		.4byte	.LANCHOR0
 1786 0d28 00       		.byte	0
 1787 0d29 00       		.byte	0
 1788 0d2a 22       		.uleb128 0x22
 1789 0d2b 57000000 		.4byte	.LASF188
 1790 0d2f 01       		.byte	0x1
 1791 0d30 0D       		.byte	0xd
 1792 0d31 96090000 		.4byte	0x996
 1793 0d35 05       		.uleb128 0x5
 1794 0d36 03       		.byte	0x3
 1795 0d37 00000000 		.4byte	hs_spicfg
 1796 0d3b 22       		.uleb128 0x22
 1797 0d3c C5050000 		.4byte	.LASF189
 1798 0d40 01       		.byte	0x1
 1799 0d41 0F       		.byte	0xf
 1800 0d42 96090000 		.4byte	0x996
 1801 0d46 05       		.uleb128 0x5
 1802 0d47 03       		.byte	0x3
 1803 0d48 00000000 		.4byte	ls_spicfg
 1804 0d4c 22       		.uleb128 0x22
 1805 0d4d C4080000 		.4byte	.LASF190
 1806 0d51 01       		.byte	0x1
 1807 0d52 11       		.byte	0x11
 1808 0d53 E0090000 		.4byte	0x9e0
 1809 0d57 05       		.uleb128 0x5
 1810 0d58 03       		.byte	0x3
 1811 0d59 00000000 		.4byte	mmccfg
 1812 0d5d 23       		.uleb128 0x23
 1813 0d5e F1050000 		.4byte	.LASF191
 1814 0d62 12       		.byte	0x12
 1815 0d63 9806     		.2byte	0x698
 1816 0d65 D6040000 		.4byte	0x4d6
ARM GAS  /tmp/ccIkacop.s 			page 33


 1817 0d69 23       		.uleb128 0x23
 1818 0d6a EB050000 		.4byte	.LASF192
 1819 0d6e 0E       		.byte	0xe
 1820 0d6f 4F02     		.2byte	0x24f
 1821 0d71 A6080000 		.4byte	0x8a6
 1822 0d75 24       		.uleb128 0x24
 1823 0d76 FD030000 		.4byte	.LASF193
 1824 0d7a 01       		.byte	0x1
 1825 0d7b 09       		.byte	0x9
 1826 0d7c FB0B0000 		.4byte	0xbfb
 1827 0d80 05       		.uleb128 0x5
 1828 0d81 03       		.byte	0x3
 1829 0d82 00000000 		.4byte	sdFS
 1830 0d86 24       		.uleb128 0x24
 1831 0d87 20020000 		.4byte	.LASF194
 1832 0d8b 01       		.byte	0x1
 1833 0d8c 0B       		.byte	0xb
 1834 0d8d CB0A0000 		.4byte	0xacb
 1835 0d91 05       		.uleb128 0x5
 1836 0d92 03       		.byte	0x3
 1837 0d93 00000000 		.4byte	MMCD1
 1838 0d97 25       		.uleb128 0x25
 1839 0d98 86010000 		.4byte	.LASF195
 1840 0d9c 0F       		.byte	0xf
 1841 0d9d B6       		.byte	0xb6
 1842 0d9e A80D0000 		.4byte	0xda8
 1843 0da2 19       		.uleb128 0x19
 1844 0da3 A80D0000 		.4byte	0xda8
 1845 0da7 00       		.byte	0
 1846 0da8 09       		.uleb128 0x9
 1847 0da9 04       		.byte	0x4
 1848 0daa CB0A0000 		.4byte	0xacb
 1849 0dae 25       		.uleb128 0x25
 1850 0daf 84040000 		.4byte	.LASF196
 1851 0db3 0F       		.byte	0xf
 1852 0db4 B7       		.byte	0xb7
 1853 0db5 C40D0000 		.4byte	0xdc4
 1854 0db9 19       		.uleb128 0x19
 1855 0dba A80D0000 		.4byte	0xda8
 1856 0dbe 19       		.uleb128 0x19
 1857 0dbf C00A0000 		.4byte	0xac0
 1858 0dc3 00       		.byte	0
 1859 0dc4 26       		.uleb128 0x26
 1860 0dc5 8C080000 		.4byte	.LASF197
 1861 0dc9 0F       		.byte	0xf
 1862 0dca B9       		.byte	0xb9
 1863 0dcb 97000000 		.4byte	0x97
 1864 0dcf D90D0000 		.4byte	0xdd9
 1865 0dd3 19       		.uleb128 0x19
 1866 0dd4 A80D0000 		.4byte	0xda8
 1867 0dd8 00       		.byte	0
 1868 0dd9 26       		.uleb128 0x26
 1869 0dda 8A050000 		.4byte	.LASF198
 1870 0dde 11       		.byte	0x11
 1871 0ddf CD       		.byte	0xcd
 1872 0de0 8D0C0000 		.4byte	0xc8d
 1873 0de4 F30D0000 		.4byte	0xdf3
ARM GAS  /tmp/ccIkacop.s 			page 34


 1874 0de8 19       		.uleb128 0x19
 1875 0de9 D60A0000 		.4byte	0xad6
 1876 0ded 19       		.uleb128 0x19
 1877 0dee 060C0000 		.4byte	0xc06
 1878 0df2 00       		.byte	0
 1879 0df3 27       		.uleb128 0x27
 1880 0df4 90060000 		.4byte	.LASF199
 1881 0df8 0F       		.byte	0xf
 1882 0df9 BA       		.byte	0xba
 1883 0dfa 97000000 		.4byte	0x97
 1884 0dfe 19       		.uleb128 0x19
 1885 0dff A80D0000 		.4byte	0xda8
 1886 0e03 00       		.byte	0
 1887 0e04 00       		.byte	0
 1888              		.section	.debug_abbrev,"",%progbits
 1889              	.Ldebug_abbrev0:
 1890 0000 01       		.uleb128 0x1
 1891 0001 11       		.uleb128 0x11
 1892 0002 01       		.byte	0x1
 1893 0003 25       		.uleb128 0x25
 1894 0004 0E       		.uleb128 0xe
 1895 0005 13       		.uleb128 0x13
 1896 0006 0B       		.uleb128 0xb
 1897 0007 03       		.uleb128 0x3
 1898 0008 0E       		.uleb128 0xe
 1899 0009 1B       		.uleb128 0x1b
 1900 000a 0E       		.uleb128 0xe
 1901 000b 55       		.uleb128 0x55
 1902 000c 17       		.uleb128 0x17
 1903 000d 11       		.uleb128 0x11
 1904 000e 01       		.uleb128 0x1
 1905 000f 10       		.uleb128 0x10
 1906 0010 17       		.uleb128 0x17
 1907 0011 00       		.byte	0
 1908 0012 00       		.byte	0
 1909 0013 02       		.uleb128 0x2
 1910 0014 24       		.uleb128 0x24
 1911 0015 00       		.byte	0
 1912 0016 0B       		.uleb128 0xb
 1913 0017 0B       		.uleb128 0xb
 1914 0018 3E       		.uleb128 0x3e
 1915 0019 0B       		.uleb128 0xb
 1916 001a 03       		.uleb128 0x3
 1917 001b 08       		.uleb128 0x8
 1918 001c 00       		.byte	0
 1919 001d 00       		.byte	0
 1920 001e 03       		.uleb128 0x3
 1921 001f 24       		.uleb128 0x24
 1922 0020 00       		.byte	0
 1923 0021 0B       		.uleb128 0xb
 1924 0022 0B       		.uleb128 0xb
 1925 0023 3E       		.uleb128 0x3e
 1926 0024 0B       		.uleb128 0xb
 1927 0025 03       		.uleb128 0x3
 1928 0026 0E       		.uleb128 0xe
 1929 0027 00       		.byte	0
 1930 0028 00       		.byte	0
ARM GAS  /tmp/ccIkacop.s 			page 35


 1931 0029 04       		.uleb128 0x4
 1932 002a 16       		.uleb128 0x16
 1933 002b 00       		.byte	0
 1934 002c 03       		.uleb128 0x3
 1935 002d 0E       		.uleb128 0xe
 1936 002e 3A       		.uleb128 0x3a
 1937 002f 0B       		.uleb128 0xb
 1938 0030 3B       		.uleb128 0x3b
 1939 0031 0B       		.uleb128 0xb
 1940 0032 49       		.uleb128 0x49
 1941 0033 13       		.uleb128 0x13
 1942 0034 00       		.byte	0
 1943 0035 00       		.byte	0
 1944 0036 05       		.uleb128 0x5
 1945 0037 13       		.uleb128 0x13
 1946 0038 01       		.byte	0x1
 1947 0039 03       		.uleb128 0x3
 1948 003a 0E       		.uleb128 0xe
 1949 003b 0B       		.uleb128 0xb
 1950 003c 0B       		.uleb128 0xb
 1951 003d 3A       		.uleb128 0x3a
 1952 003e 0B       		.uleb128 0xb
 1953 003f 3B       		.uleb128 0x3b
 1954 0040 0B       		.uleb128 0xb
 1955 0041 01       		.uleb128 0x1
 1956 0042 13       		.uleb128 0x13
 1957 0043 00       		.byte	0
 1958 0044 00       		.byte	0
 1959 0045 06       		.uleb128 0x6
 1960 0046 0D       		.uleb128 0xd
 1961 0047 00       		.byte	0
 1962 0048 03       		.uleb128 0x3
 1963 0049 0E       		.uleb128 0xe
 1964 004a 3A       		.uleb128 0x3a
 1965 004b 0B       		.uleb128 0xb
 1966 004c 3B       		.uleb128 0x3b
 1967 004d 0B       		.uleb128 0xb
 1968 004e 49       		.uleb128 0x49
 1969 004f 13       		.uleb128 0x13
 1970 0050 38       		.uleb128 0x38
 1971 0051 0B       		.uleb128 0xb
 1972 0052 00       		.byte	0
 1973 0053 00       		.byte	0
 1974 0054 07       		.uleb128 0x7
 1975 0055 0D       		.uleb128 0xd
 1976 0056 00       		.byte	0
 1977 0057 03       		.uleb128 0x3
 1978 0058 08       		.uleb128 0x8
 1979 0059 3A       		.uleb128 0x3a
 1980 005a 0B       		.uleb128 0xb
 1981 005b 3B       		.uleb128 0x3b
 1982 005c 0B       		.uleb128 0xb
 1983 005d 49       		.uleb128 0x49
 1984 005e 13       		.uleb128 0x13
 1985 005f 38       		.uleb128 0x38
 1986 0060 0B       		.uleb128 0xb
 1987 0061 00       		.byte	0
ARM GAS  /tmp/ccIkacop.s 			page 36


 1988 0062 00       		.byte	0
 1989 0063 08       		.uleb128 0x8
 1990 0064 13       		.uleb128 0x13
 1991 0065 01       		.byte	0x1
 1992 0066 0B       		.uleb128 0xb
 1993 0067 0B       		.uleb128 0xb
 1994 0068 3A       		.uleb128 0x3a
 1995 0069 0B       		.uleb128 0xb
 1996 006a 3B       		.uleb128 0x3b
 1997 006b 0B       		.uleb128 0xb
 1998 006c 01       		.uleb128 0x1
 1999 006d 13       		.uleb128 0x13
 2000 006e 00       		.byte	0
 2001 006f 00       		.byte	0
 2002 0070 09       		.uleb128 0x9
 2003 0071 0F       		.uleb128 0xf
 2004 0072 00       		.byte	0
 2005 0073 0B       		.uleb128 0xb
 2006 0074 0B       		.uleb128 0xb
 2007 0075 49       		.uleb128 0x49
 2008 0076 13       		.uleb128 0x13
 2009 0077 00       		.byte	0
 2010 0078 00       		.byte	0
 2011 0079 0A       		.uleb128 0xa
 2012 007a 0F       		.uleb128 0xf
 2013 007b 00       		.byte	0
 2014 007c 0B       		.uleb128 0xb
 2015 007d 0B       		.uleb128 0xb
 2016 007e 00       		.byte	0
 2017 007f 00       		.byte	0
 2018 0080 0B       		.uleb128 0xb
 2019 0081 13       		.uleb128 0x13
 2020 0082 01       		.byte	0x1
 2021 0083 03       		.uleb128 0x3
 2022 0084 0E       		.uleb128 0xe
 2023 0085 0B       		.uleb128 0xb
 2024 0086 0B       		.uleb128 0xb
 2025 0087 3A       		.uleb128 0x3a
 2026 0088 0B       		.uleb128 0xb
 2027 0089 3B       		.uleb128 0x3b
 2028 008a 05       		.uleb128 0x5
 2029 008b 01       		.uleb128 0x1
 2030 008c 13       		.uleb128 0x13
 2031 008d 00       		.byte	0
 2032 008e 00       		.byte	0
 2033 008f 0C       		.uleb128 0xc
 2034 0090 0D       		.uleb128 0xd
 2035 0091 00       		.byte	0
 2036 0092 03       		.uleb128 0x3
 2037 0093 08       		.uleb128 0x8
 2038 0094 3A       		.uleb128 0x3a
 2039 0095 0B       		.uleb128 0xb
 2040 0096 3B       		.uleb128 0x3b
 2041 0097 05       		.uleb128 0x5
 2042 0098 49       		.uleb128 0x49
 2043 0099 13       		.uleb128 0x13
 2044 009a 38       		.uleb128 0x38
ARM GAS  /tmp/ccIkacop.s 			page 37


 2045 009b 0B       		.uleb128 0xb
 2046 009c 00       		.byte	0
 2047 009d 00       		.byte	0
 2048 009e 0D       		.uleb128 0xd
 2049 009f 35       		.uleb128 0x35
 2050 00a0 00       		.byte	0
 2051 00a1 49       		.uleb128 0x49
 2052 00a2 13       		.uleb128 0x13
 2053 00a3 00       		.byte	0
 2054 00a4 00       		.byte	0
 2055 00a5 0E       		.uleb128 0xe
 2056 00a6 17       		.uleb128 0x17
 2057 00a7 01       		.byte	0x1
 2058 00a8 0B       		.uleb128 0xb
 2059 00a9 0B       		.uleb128 0xb
 2060 00aa 3A       		.uleb128 0x3a
 2061 00ab 0B       		.uleb128 0xb
 2062 00ac 3B       		.uleb128 0x3b
 2063 00ad 0B       		.uleb128 0xb
 2064 00ae 01       		.uleb128 0x1
 2065 00af 13       		.uleb128 0x13
 2066 00b0 00       		.byte	0
 2067 00b1 00       		.byte	0
 2068 00b2 0F       		.uleb128 0xf
 2069 00b3 0D       		.uleb128 0xd
 2070 00b4 00       		.byte	0
 2071 00b5 03       		.uleb128 0x3
 2072 00b6 0E       		.uleb128 0xe
 2073 00b7 3A       		.uleb128 0x3a
 2074 00b8 0B       		.uleb128 0xb
 2075 00b9 3B       		.uleb128 0x3b
 2076 00ba 0B       		.uleb128 0xb
 2077 00bb 49       		.uleb128 0x49
 2078 00bc 13       		.uleb128 0x13
 2079 00bd 00       		.byte	0
 2080 00be 00       		.byte	0
 2081 00bf 10       		.uleb128 0x10
 2082 00c0 26       		.uleb128 0x26
 2083 00c1 00       		.byte	0
 2084 00c2 49       		.uleb128 0x49
 2085 00c3 13       		.uleb128 0x13
 2086 00c4 00       		.byte	0
 2087 00c5 00       		.byte	0
 2088 00c6 11       		.uleb128 0x11
 2089 00c7 01       		.uleb128 0x1
 2090 00c8 01       		.byte	0x1
 2091 00c9 49       		.uleb128 0x49
 2092 00ca 13       		.uleb128 0x13
 2093 00cb 01       		.uleb128 0x1
 2094 00cc 13       		.uleb128 0x13
 2095 00cd 00       		.byte	0
 2096 00ce 00       		.byte	0
 2097 00cf 12       		.uleb128 0x12
 2098 00d0 21       		.uleb128 0x21
 2099 00d1 00       		.byte	0
 2100 00d2 49       		.uleb128 0x49
 2101 00d3 13       		.uleb128 0x13
ARM GAS  /tmp/ccIkacop.s 			page 38


 2102 00d4 2F       		.uleb128 0x2f
 2103 00d5 0B       		.uleb128 0xb
 2104 00d6 00       		.byte	0
 2105 00d7 00       		.byte	0
 2106 00d8 13       		.uleb128 0x13
 2107 00d9 13       		.uleb128 0x13
 2108 00da 01       		.byte	0x1
 2109 00db 0B       		.uleb128 0xb
 2110 00dc 0B       		.uleb128 0xb
 2111 00dd 3A       		.uleb128 0x3a
 2112 00de 0B       		.uleb128 0xb
 2113 00df 3B       		.uleb128 0x3b
 2114 00e0 05       		.uleb128 0x5
 2115 00e1 01       		.uleb128 0x1
 2116 00e2 13       		.uleb128 0x13
 2117 00e3 00       		.byte	0
 2118 00e4 00       		.byte	0
 2119 00e5 14       		.uleb128 0x14
 2120 00e6 0D       		.uleb128 0xd
 2121 00e7 00       		.byte	0
 2122 00e8 03       		.uleb128 0x3
 2123 00e9 0E       		.uleb128 0xe
 2124 00ea 3A       		.uleb128 0x3a
 2125 00eb 0B       		.uleb128 0xb
 2126 00ec 3B       		.uleb128 0x3b
 2127 00ed 05       		.uleb128 0x5
 2128 00ee 49       		.uleb128 0x49
 2129 00ef 13       		.uleb128 0x13
 2130 00f0 38       		.uleb128 0x38
 2131 00f1 0B       		.uleb128 0xb
 2132 00f2 00       		.byte	0
 2133 00f3 00       		.byte	0
 2134 00f4 15       		.uleb128 0x15
 2135 00f5 16       		.uleb128 0x16
 2136 00f6 00       		.byte	0
 2137 00f7 03       		.uleb128 0x3
 2138 00f8 0E       		.uleb128 0xe
 2139 00f9 3A       		.uleb128 0x3a
 2140 00fa 0B       		.uleb128 0xb
 2141 00fb 3B       		.uleb128 0x3b
 2142 00fc 05       		.uleb128 0x5
 2143 00fd 49       		.uleb128 0x49
 2144 00fe 13       		.uleb128 0x13
 2145 00ff 00       		.byte	0
 2146 0100 00       		.byte	0
 2147 0101 16       		.uleb128 0x16
 2148 0102 04       		.uleb128 0x4
 2149 0103 01       		.byte	0x1
 2150 0104 0B       		.uleb128 0xb
 2151 0105 0B       		.uleb128 0xb
 2152 0106 3A       		.uleb128 0x3a
 2153 0107 0B       		.uleb128 0xb
 2154 0108 3B       		.uleb128 0x3b
 2155 0109 0B       		.uleb128 0xb
 2156 010a 01       		.uleb128 0x1
 2157 010b 13       		.uleb128 0x13
 2158 010c 00       		.byte	0
ARM GAS  /tmp/ccIkacop.s 			page 39


 2159 010d 00       		.byte	0
 2160 010e 17       		.uleb128 0x17
 2161 010f 28       		.uleb128 0x28
 2162 0110 00       		.byte	0
 2163 0111 03       		.uleb128 0x3
 2164 0112 0E       		.uleb128 0xe
 2165 0113 1C       		.uleb128 0x1c
 2166 0114 0D       		.uleb128 0xd
 2167 0115 00       		.byte	0
 2168 0116 00       		.byte	0
 2169 0117 18       		.uleb128 0x18
 2170 0118 15       		.uleb128 0x15
 2171 0119 01       		.byte	0x1
 2172 011a 27       		.uleb128 0x27
 2173 011b 19       		.uleb128 0x19
 2174 011c 49       		.uleb128 0x49
 2175 011d 13       		.uleb128 0x13
 2176 011e 01       		.uleb128 0x1
 2177 011f 13       		.uleb128 0x13
 2178 0120 00       		.byte	0
 2179 0121 00       		.byte	0
 2180 0122 19       		.uleb128 0x19
 2181 0123 05       		.uleb128 0x5
 2182 0124 00       		.byte	0
 2183 0125 49       		.uleb128 0x49
 2184 0126 13       		.uleb128 0x13
 2185 0127 00       		.byte	0
 2186 0128 00       		.byte	0
 2187 0129 1A       		.uleb128 0x1a
 2188 012a 0D       		.uleb128 0xd
 2189 012b 00       		.byte	0
 2190 012c 03       		.uleb128 0x3
 2191 012d 08       		.uleb128 0x8
 2192 012e 3A       		.uleb128 0x3a
 2193 012f 0B       		.uleb128 0xb
 2194 0130 3B       		.uleb128 0x3b
 2195 0131 0B       		.uleb128 0xb
 2196 0132 49       		.uleb128 0x49
 2197 0133 13       		.uleb128 0x13
 2198 0134 00       		.byte	0
 2199 0135 00       		.byte	0
 2200 0136 1B       		.uleb128 0x1b
 2201 0137 15       		.uleb128 0x15
 2202 0138 01       		.byte	0x1
 2203 0139 27       		.uleb128 0x27
 2204 013a 19       		.uleb128 0x19
 2205 013b 01       		.uleb128 0x1
 2206 013c 13       		.uleb128 0x13
 2207 013d 00       		.byte	0
 2208 013e 00       		.byte	0
 2209 013f 1C       		.uleb128 0x1c
 2210 0140 13       		.uleb128 0x13
 2211 0141 01       		.byte	0x1
 2212 0142 0B       		.uleb128 0xb
 2213 0143 05       		.uleb128 0x5
 2214 0144 3A       		.uleb128 0x3a
 2215 0145 0B       		.uleb128 0xb
ARM GAS  /tmp/ccIkacop.s 			page 40


 2216 0146 3B       		.uleb128 0x3b
 2217 0147 0B       		.uleb128 0xb
 2218 0148 01       		.uleb128 0x1
 2219 0149 13       		.uleb128 0x13
 2220 014a 00       		.byte	0
 2221 014b 00       		.byte	0
 2222 014c 1D       		.uleb128 0x1d
 2223 014d 21       		.uleb128 0x21
 2224 014e 00       		.byte	0
 2225 014f 49       		.uleb128 0x49
 2226 0150 13       		.uleb128 0x13
 2227 0151 2F       		.uleb128 0x2f
 2228 0152 05       		.uleb128 0x5
 2229 0153 00       		.byte	0
 2230 0154 00       		.byte	0
 2231 0155 1E       		.uleb128 0x1e
 2232 0156 2E       		.uleb128 0x2e
 2233 0157 01       		.byte	0x1
 2234 0158 3F       		.uleb128 0x3f
 2235 0159 19       		.uleb128 0x19
 2236 015a 03       		.uleb128 0x3
 2237 015b 0E       		.uleb128 0xe
 2238 015c 3A       		.uleb128 0x3a
 2239 015d 0B       		.uleb128 0xb
 2240 015e 3B       		.uleb128 0x3b
 2241 015f 0B       		.uleb128 0xb
 2242 0160 27       		.uleb128 0x27
 2243 0161 19       		.uleb128 0x19
 2244 0162 49       		.uleb128 0x49
 2245 0163 13       		.uleb128 0x13
 2246 0164 11       		.uleb128 0x11
 2247 0165 01       		.uleb128 0x1
 2248 0166 12       		.uleb128 0x12
 2249 0167 06       		.uleb128 0x6
 2250 0168 40       		.uleb128 0x40
 2251 0169 18       		.uleb128 0x18
 2252 016a 9742     		.uleb128 0x2117
 2253 016c 19       		.uleb128 0x19
 2254 016d 01       		.uleb128 0x1
 2255 016e 13       		.uleb128 0x13
 2256 016f 00       		.byte	0
 2257 0170 00       		.byte	0
 2258 0171 1F       		.uleb128 0x1f
 2259 0172 898201   		.uleb128 0x4109
 2260 0175 01       		.byte	0x1
 2261 0176 11       		.uleb128 0x11
 2262 0177 01       		.uleb128 0x1
 2263 0178 31       		.uleb128 0x31
 2264 0179 13       		.uleb128 0x13
 2265 017a 01       		.uleb128 0x1
 2266 017b 13       		.uleb128 0x13
 2267 017c 00       		.byte	0
 2268 017d 00       		.byte	0
 2269 017e 20       		.uleb128 0x20
 2270 017f 8A8201   		.uleb128 0x410a
 2271 0182 00       		.byte	0
 2272 0183 02       		.uleb128 0x2
ARM GAS  /tmp/ccIkacop.s 			page 41


 2273 0184 18       		.uleb128 0x18
 2274 0185 9142     		.uleb128 0x2111
 2275 0187 18       		.uleb128 0x18
 2276 0188 00       		.byte	0
 2277 0189 00       		.byte	0
 2278 018a 21       		.uleb128 0x21
 2279 018b 898201   		.uleb128 0x4109
 2280 018e 01       		.byte	0x1
 2281 018f 11       		.uleb128 0x11
 2282 0190 01       		.uleb128 0x1
 2283 0191 31       		.uleb128 0x31
 2284 0192 13       		.uleb128 0x13
 2285 0193 00       		.byte	0
 2286 0194 00       		.byte	0
 2287 0195 22       		.uleb128 0x22
 2288 0196 34       		.uleb128 0x34
 2289 0197 00       		.byte	0
 2290 0198 03       		.uleb128 0x3
 2291 0199 0E       		.uleb128 0xe
 2292 019a 3A       		.uleb128 0x3a
 2293 019b 0B       		.uleb128 0xb
 2294 019c 3B       		.uleb128 0x3b
 2295 019d 0B       		.uleb128 0xb
 2296 019e 49       		.uleb128 0x49
 2297 019f 13       		.uleb128 0x13
 2298 01a0 02       		.uleb128 0x2
 2299 01a1 18       		.uleb128 0x18
 2300 01a2 00       		.byte	0
 2301 01a3 00       		.byte	0
 2302 01a4 23       		.uleb128 0x23
 2303 01a5 34       		.uleb128 0x34
 2304 01a6 00       		.byte	0
 2305 01a7 03       		.uleb128 0x3
 2306 01a8 0E       		.uleb128 0xe
 2307 01a9 3A       		.uleb128 0x3a
 2308 01aa 0B       		.uleb128 0xb
 2309 01ab 3B       		.uleb128 0x3b
 2310 01ac 05       		.uleb128 0x5
 2311 01ad 49       		.uleb128 0x49
 2312 01ae 13       		.uleb128 0x13
 2313 01af 3F       		.uleb128 0x3f
 2314 01b0 19       		.uleb128 0x19
 2315 01b1 3C       		.uleb128 0x3c
 2316 01b2 19       		.uleb128 0x19
 2317 01b3 00       		.byte	0
 2318 01b4 00       		.byte	0
 2319 01b5 24       		.uleb128 0x24
 2320 01b6 34       		.uleb128 0x34
 2321 01b7 00       		.byte	0
 2322 01b8 03       		.uleb128 0x3
 2323 01b9 0E       		.uleb128 0xe
 2324 01ba 3A       		.uleb128 0x3a
 2325 01bb 0B       		.uleb128 0xb
 2326 01bc 3B       		.uleb128 0x3b
 2327 01bd 0B       		.uleb128 0xb
 2328 01be 49       		.uleb128 0x49
 2329 01bf 13       		.uleb128 0x13
ARM GAS  /tmp/ccIkacop.s 			page 42


 2330 01c0 3F       		.uleb128 0x3f
 2331 01c1 19       		.uleb128 0x19
 2332 01c2 02       		.uleb128 0x2
 2333 01c3 18       		.uleb128 0x18
 2334 01c4 00       		.byte	0
 2335 01c5 00       		.byte	0
 2336 01c6 25       		.uleb128 0x25
 2337 01c7 2E       		.uleb128 0x2e
 2338 01c8 01       		.byte	0x1
 2339 01c9 3F       		.uleb128 0x3f
 2340 01ca 19       		.uleb128 0x19
 2341 01cb 03       		.uleb128 0x3
 2342 01cc 0E       		.uleb128 0xe
 2343 01cd 3A       		.uleb128 0x3a
 2344 01ce 0B       		.uleb128 0xb
 2345 01cf 3B       		.uleb128 0x3b
 2346 01d0 0B       		.uleb128 0xb
 2347 01d1 27       		.uleb128 0x27
 2348 01d2 19       		.uleb128 0x19
 2349 01d3 3C       		.uleb128 0x3c
 2350 01d4 19       		.uleb128 0x19
 2351 01d5 01       		.uleb128 0x1
 2352 01d6 13       		.uleb128 0x13
 2353 01d7 00       		.byte	0
 2354 01d8 00       		.byte	0
 2355 01d9 26       		.uleb128 0x26
 2356 01da 2E       		.uleb128 0x2e
 2357 01db 01       		.byte	0x1
 2358 01dc 3F       		.uleb128 0x3f
 2359 01dd 19       		.uleb128 0x19
 2360 01de 03       		.uleb128 0x3
 2361 01df 0E       		.uleb128 0xe
 2362 01e0 3A       		.uleb128 0x3a
 2363 01e1 0B       		.uleb128 0xb
 2364 01e2 3B       		.uleb128 0x3b
 2365 01e3 0B       		.uleb128 0xb
 2366 01e4 27       		.uleb128 0x27
 2367 01e5 19       		.uleb128 0x19
 2368 01e6 49       		.uleb128 0x49
 2369 01e7 13       		.uleb128 0x13
 2370 01e8 3C       		.uleb128 0x3c
 2371 01e9 19       		.uleb128 0x19
 2372 01ea 01       		.uleb128 0x1
 2373 01eb 13       		.uleb128 0x13
 2374 01ec 00       		.byte	0
 2375 01ed 00       		.byte	0
 2376 01ee 27       		.uleb128 0x27
 2377 01ef 2E       		.uleb128 0x2e
 2378 01f0 01       		.byte	0x1
 2379 01f1 3F       		.uleb128 0x3f
 2380 01f2 19       		.uleb128 0x19
 2381 01f3 03       		.uleb128 0x3
 2382 01f4 0E       		.uleb128 0xe
 2383 01f5 3A       		.uleb128 0x3a
 2384 01f6 0B       		.uleb128 0xb
 2385 01f7 3B       		.uleb128 0x3b
 2386 01f8 0B       		.uleb128 0xb
ARM GAS  /tmp/ccIkacop.s 			page 43


 2387 01f9 27       		.uleb128 0x27
 2388 01fa 19       		.uleb128 0x19
 2389 01fb 49       		.uleb128 0x49
 2390 01fc 13       		.uleb128 0x13
 2391 01fd 3C       		.uleb128 0x3c
 2392 01fe 19       		.uleb128 0x19
 2393 01ff 00       		.byte	0
 2394 0200 00       		.byte	0
 2395 0201 00       		.byte	0
 2396              		.section	.debug_aranges,"",%progbits
 2397 0000 1C000000 		.4byte	0x1c
 2398 0004 0200     		.2byte	0x2
 2399 0006 00000000 		.4byte	.Ldebug_info0
 2400 000a 04       		.byte	0x4
 2401 000b 00       		.byte	0
 2402 000c 0000     		.2byte	0
 2403 000e 0000     		.2byte	0
 2404 0010 00000000 		.4byte	.LFB119
 2405 0014 40000000 		.4byte	.LFE119-.LFB119
 2406 0018 00000000 		.4byte	0
 2407 001c 00000000 		.4byte	0
 2408              		.section	.debug_ranges,"",%progbits
 2409              	.Ldebug_ranges0:
 2410 0000 00000000 		.4byte	.LFB119
 2411 0004 40000000 		.4byte	.LFE119
 2412 0008 00000000 		.4byte	0
 2413 000c 00000000 		.4byte	0
 2414              		.section	.debug_line,"",%progbits
 2415              	.Ldebug_line0:
 2416 0000 C8020000 		.section	.debug_str,"MS",%progbits,1
 2416      0200A702 
 2416      00000201 
 2416      FB0E0D00 
 2416      01010101 
 2417              	.LASF99:
 2418 0000 426C6F63 		.ascii	"BlockDeviceInfo\000"
 2418      6B446576 
 2418      69636549 
 2418      6E666F00 
 2419              	.LASF122:
 2420 0010 646D6172 		.ascii	"dmarx\000"
 2420      7800
 2421              	.LASF144:
 2422 0016 63617061 		.ascii	"capacity\000"
 2422      63697479 
 2422      00
 2423              	.LASF63:
 2424 001f 4D304152 		.ascii	"M0AR\000"
 2424      00
 2425              	.LASF72:
 2426 0024 52584352 		.ascii	"RXCRCR\000"
 2426      435200
 2427              	.LASF150:
 2428 002b 66735F74 		.ascii	"fs_type\000"
 2428      79706500 
 2429              	.LASF45:
 2430 0033 54687265 		.ascii	"ThreadsList\000"
ARM GAS  /tmp/ccIkacop.s 			page 44


 2430      6164734C 
 2430      69737400 
 2431              	.LASF57:
 2432 003f 7264796D 		.ascii	"rdymsg\000"
 2432      736700
 2433              	.LASF180:
 2434 0046 46525F4E 		.ascii	"FR_NO_FILESYSTEM\000"
 2434      4F5F4649 
 2434      4C455359 
 2434      5354454D 
 2434      00
 2435              	.LASF188:
 2436 0057 68735F73 		.ascii	"hs_spicfg\000"
 2436      70696366 
 2436      6700
 2437              	.LASF102:
 2438 0061 4F545950 		.ascii	"OTYPER\000"
 2438      455200
 2439              	.LASF114:
 2440 0068 5350495F 		.ascii	"SPI_ACTIVE\000"
 2440      41435449 
 2440      564500
 2441              	.LASF155:
 2442 0073 6E5F726F 		.ascii	"n_rootdir\000"
 2442      6F746469 
 2442      7200
 2443              	.LASF8:
 2444 007d 6C6F6E67 		.ascii	"long int\000"
 2444      20696E74 
 2444      00
 2445              	.LASF129:
 2446 0086 73737061 		.ascii	"sspad\000"
 2446      6400
 2447              	.LASF44:
 2448 008c 54687265 		.ascii	"ThreadsQueue\000"
 2448      61647351 
 2448      75657565 
 2448      00
 2449              	.LASF113:
 2450 0099 5350495F 		.ascii	"SPI_READY\000"
 2450      52454144 
 2450      5900
 2451              	.LASF85:
 2452 00a3 76656374 		.ascii	"vector\000"
 2452      6F7200
 2453              	.LASF117:
 2454 00aa 53504944 		.ascii	"SPIDriver\000"
 2454      72697665 
 2454      7200
 2455              	.LASF128:
 2456 00b4 7373706F 		.ascii	"ssport\000"
 2456      727400
 2457              	.LASF157:
 2458 00bb 6C617374 		.ascii	"last_clust\000"
 2458      5F636C75 
 2458      737400
 2459              	.LASF96:
ARM GAS  /tmp/ccIkacop.s 			page 45


 2460 00c6 626C6B73 		.ascii	"blkstate_t\000"
 2460      74617465 
 2460      5F7400
 2461              	.LASF185:
 2462 00d1 46525F54 		.ascii	"FR_TOO_MANY_OPEN_FILES\000"
 2462      4F4F5F4D 
 2462      414E595F 
 2462      4F50454E 
 2462      5F46494C 
 2463              	.LASF11:
 2464 00e8 6C6F6E67 		.ascii	"long long int\000"
 2464      206C6F6E 
 2464      6720696E 
 2464      7400
 2465              	.LASF1:
 2466 00f6 7369676E 		.ascii	"signed char\000"
 2466      65642063 
 2466      68617200 
 2467              	.LASF156:
 2468 0102 736F626A 		.ascii	"sobj\000"
 2468      00
 2469              	.LASF112:
 2470 0107 5350495F 		.ascii	"SPI_STOP\000"
 2470      53544F50 
 2470      00
 2471              	.LASF186:
 2472 0110 46525F49 		.ascii	"FR_INVALID_PARAMETER\000"
 2472      4E56414C 
 2472      49445F50 
 2472      4152414D 
 2472      45544552 
 2473              	.LASF43:
 2474 0125 705F6D70 		.ascii	"p_mpool\000"
 2474      6F6F6C00 
 2475              	.LASF13:
 2476 012d 626F6F6C 		.ascii	"bool_t\000"
 2476      5F7400
 2477              	.LASF54:
 2478 0134 6D5F7175 		.ascii	"m_queue\000"
 2478      65756500 
 2479              	.LASF161:
 2480 013c 6673697A 		.ascii	"fsize\000"
 2480      6500
 2481              	.LASF139:
 2482 0142 64697363 		.ascii	"disconnect\000"
 2482      6F6E6E65 
 2482      637400
 2483              	.LASF59:
 2484 014d 77746F62 		.ascii	"wtobjp\000"
 2484      6A7000
 2485              	.LASF160:
 2486 0154 6E5F6661 		.ascii	"n_fatent\000"
 2486      74656E74 
 2486      00
 2487              	.LASF87:
 2488 015d 424C4B5F 		.ascii	"BLK_UNINIT\000"
 2488      554E494E 
ARM GAS  /tmp/ccIkacop.s 			page 46


 2488      495400
 2489              	.LASF176:
 2490 0168 46525F49 		.ascii	"FR_INVALID_OBJECT\000"
 2490      4E56414C 
 2490      49445F4F 
 2490      424A4543 
 2490      5400
 2491              	.LASF118:
 2492 017a 73746174 		.ascii	"state\000"
 2492      6500
 2493              	.LASF121:
 2494 0180 6D757465 		.ascii	"mutex\000"
 2494      7800
 2495              	.LASF195:
 2496 0186 6D6D634F 		.ascii	"mmcObjectInit\000"
 2496      626A6563 
 2496      74496E69 
 2496      7400
 2497              	.LASF16:
 2498 0194 74737461 		.ascii	"tstate_t\000"
 2498      74655F74 
 2498      00
 2499              	.LASF152:
 2500 019d 6E5F6661 		.ascii	"n_fats\000"
 2500      747300
 2501              	.LASF5:
 2502 01a4 75696E74 		.ascii	"uint16_t\000"
 2502      31365F74 
 2502      00
 2503              	.LASF184:
 2504 01ad 46525F4E 		.ascii	"FR_NOT_ENOUGH_CORE\000"
 2504      4F545F45 
 2504      4E4F5547 
 2504      485F434F 
 2504      524500
 2505              	.LASF175:
 2506 01c0 46525F45 		.ascii	"FR_EXIST\000"
 2506      58495354 
 2506      00
 2507              	.LASF162:
 2508 01c9 66617462 		.ascii	"fatbase\000"
 2508      61736500 
 2509              	.LASF149:
 2510 01d1 44574F52 		.ascii	"DWORD\000"
 2510      4400
 2511              	.LASF29:
 2512 01d7 705F6E65 		.ascii	"p_newer\000"
 2512      77657200 
 2513              	.LASF127:
 2514 01df 656E645F 		.ascii	"end_cb\000"
 2514      636200
 2515              	.LASF124:
 2516 01e6 7278646D 		.ascii	"rxdmamode\000"
 2516      616D6F64 
 2516      6500
 2517              	.LASF143:
 2518 01f0 6765745F 		.ascii	"get_info\000"
ARM GAS  /tmp/ccIkacop.s 			page 47


 2518      696E666F 
 2518      00
 2519              	.LASF123:
 2520 01f9 646D6174 		.ascii	"dmatx\000"
 2520      7800
 2521              	.LASF88:
 2522 01ff 424C4B5F 		.ascii	"BLK_STOP\000"
 2522      53544F50 
 2522      00
 2523              	.LASF103:
 2524 0208 4F535045 		.ascii	"OSPEEDR\000"
 2524      45445200 
 2525              	.LASF151:
 2526 0210 6373697A 		.ascii	"csize\000"
 2526      6500
 2527              	.LASF84:
 2528 0216 73656C66 		.ascii	"selfindex\000"
 2528      696E6465 
 2528      7800
 2529              	.LASF194:
 2530 0220 4D4D4344 		.ascii	"MMCD1\000"
 2530      3100
 2531              	.LASF126:
 2532 0226 73706963 		.ascii	"spicallback_t\000"
 2532      616C6C62 
 2532      61636B5F 
 2532      7400
 2533              	.LASF97:
 2534 0234 626C6B5F 		.ascii	"blk_size\000"
 2534      73697A65 
 2534      00
 2535              	.LASF147:
 2536 023d 42595445 		.ascii	"BYTE\000"
 2536      00
 2537              	.LASF12:
 2538 0242 6C6F6E67 		.ascii	"long long unsigned int\000"
 2538      206C6F6E 
 2538      6720756E 
 2538      7369676E 
 2538      65642069 
 2539              	.LASF23:
 2540 0259 636E745F 		.ascii	"cnt_t\000"
 2540      7400
 2541              	.LASF0:
 2542 025f 756E7369 		.ascii	"unsigned int\000"
 2542      676E6564 
 2542      20696E74 
 2542      00
 2543              	.LASF101:
 2544 026c 4D4F4445 		.ascii	"MODER\000"
 2544      5200
 2545              	.LASF200:
 2546 0272 474E5520 		.ascii	"GNU C 4.8.3 20131129 (release) [ARM/embedded-4_8-br"
 2546      4320342E 
 2546      382E3320 
 2546      32303133 
 2546      31313239 
ARM GAS  /tmp/ccIkacop.s 			page 48


 2547 02a5 616E6368 		.ascii	"anch revision 205641] -mcpu=cortex-m4 -mfloat-abi=s"
 2547      20726576 
 2547      6973696F 
 2547      6E203230 
 2547      35363431 
 2548 02d8 6F667466 		.ascii	"oftfp -mfpu=fpv4-sp-d16 -mno-thumb-interwork -mthum"
 2548      70202D6D 
 2548      6670753D 
 2548      66707634 
 2548      2D73702D 
 2549 030b 62202D67 		.ascii	"b -ggdb -O2 -fomit-frame-pointer -falign-functions="
 2549      67646220 
 2549      2D4F3220 
 2549      2D666F6D 
 2549      69742D66 
 2550 033e 3136202D 		.ascii	"16 -fsingle-precision-constant -ffunction-sections "
 2550      6673696E 
 2550      676C652D 
 2550      70726563 
 2550      6973696F 
 2551 0371 2D666461 		.ascii	"-fdata-sections -fno-common\000"
 2551      74612D73 
 2551      65637469 
 2551      6F6E7320 
 2551      2D666E6F 
 2552              	.LASF109:
 2553 038d 4750494F 		.ascii	"GPIO_TypeDef\000"
 2553      5F547970 
 2553      65446566 
 2553      00
 2554              	.LASF104:
 2555 039a 50555044 		.ascii	"PUPDR\000"
 2555      5200
 2556              	.LASF106:
 2557 03a0 4C434B52 		.ascii	"LCKR\000"
 2557      00
 2558              	.LASF83:
 2559 03a5 69736869 		.ascii	"ishift\000"
 2559      667400
 2560              	.LASF52:
 2561 03ac 735F636E 		.ascii	"s_cnt\000"
 2561      7400
 2562              	.LASF48:
 2563 03b2 636F6E74 		.ascii	"context\000"
 2563      65787400 
 2564              	.LASF6:
 2565 03ba 73686F72 		.ascii	"short unsigned int\000"
 2565      7420756E 
 2565      7369676E 
 2565      65642069 
 2565      6E7400
 2566              	.LASF164:
 2567 03cd 64617461 		.ascii	"database\000"
 2567      62617365 
 2567      00
 2568              	.LASF89:
 2569 03d6 424C4B5F 		.ascii	"BLK_ACTIVE\000"
ARM GAS  /tmp/ccIkacop.s 			page 49


 2569      41435449 
 2569      564500
 2570              	.LASF132:
 2571 03e1 6C736366 		.ascii	"lscfg\000"
 2571      6700
 2572              	.LASF145:
 2573 03e7 626C6F63 		.ascii	"block_addresses\000"
 2573      6B5F6164 
 2573      64726573 
 2573      73657300 
 2574              	.LASF20:
 2575 03f7 6D73675F 		.ascii	"msg_t\000"
 2575      7400
 2576              	.LASF193:
 2577 03fd 73644653 		.ascii	"sdFS\000"
 2577      00
 2578              	.LASF90:
 2579 0402 424C4B5F 		.ascii	"BLK_CONNECTING\000"
 2579      434F4E4E 
 2579      45435449 
 2579      4E4700
 2580              	.LASF154:
 2581 0411 6673695F 		.ascii	"fsi_flag\000"
 2581      666C6167 
 2581      00
 2582              	.LASF169:
 2583 041a 46525F49 		.ascii	"FR_INT_ERR\000"
 2583      4E545F45 
 2583      525200
 2584              	.LASF168:
 2585 0425 46525F44 		.ascii	"FR_DISK_ERR\000"
 2585      49534B5F 
 2585      45525200 
 2586              	.LASF15:
 2587 0431 746D6F64 		.ascii	"tmode_t\000"
 2587      655F7400 
 2588              	.LASF165:
 2589 0439 77696E73 		.ascii	"winsect\000"
 2589      65637400 
 2590              	.LASF74:
 2591 0441 54584352 		.ascii	"TXCRCR\000"
 2591      435200
 2592              	.LASF21:
 2593 0448 6576656E 		.ascii	"eventmask_t\000"
 2593      746D6173 
 2593      6B5F7400 
 2594              	.LASF53:
 2595 0454 4D757465 		.ascii	"Mutex\000"
 2595      7800
 2596              	.LASF148:
 2597 045a 574F5244 		.ascii	"WORD\000"
 2597      00
 2598              	.LASF177:
 2599 045f 46525F57 		.ascii	"FR_WRITE_PROTECTED\000"
 2599      52495445 
 2599      5F50524F 
 2599      54454354 
ARM GAS  /tmp/ccIkacop.s 			page 50


 2599      454400
 2600              	.LASF136:
 2601 0472 69735F69 		.ascii	"is_inserted\000"
 2601      6E736572 
 2601      74656400 
 2602              	.LASF166:
 2603 047e 46415446 		.ascii	"FATFS\000"
 2603      5300
 2604              	.LASF196:
 2605 0484 6D6D6353 		.ascii	"mmcStart\000"
 2605      74617274 
 2605      00
 2606              	.LASF141:
 2607 048d 77726974 		.ascii	"write\000"
 2607      6500
 2608              	.LASF51:
 2609 0493 735F7175 		.ascii	"s_queue\000"
 2609      65756500 
 2610              	.LASF93:
 2611 049b 424C4B5F 		.ascii	"BLK_READING\000"
 2611      52454144 
 2611      494E4700 
 2612              	.LASF78:
 2613 04a7 49325350 		.ascii	"I2SPR\000"
 2613      5200
 2614              	.LASF49:
 2615 04ad 73697A65 		.ascii	"sizetype\000"
 2615      74797065 
 2615      00
 2616              	.LASF100:
 2617 04b6 636C6561 		.ascii	"clear\000"
 2617      7200
 2618              	.LASF76:
 2619 04bc 49325343 		.ascii	"I2SCFGR\000"
 2619      46475200 
 2620              	.LASF182:
 2621 04c4 46525F54 		.ascii	"FR_TIMEOUT\000"
 2621      494D454F 
 2621      555400
 2622              	.LASF163:
 2623 04cf 64697262 		.ascii	"dirbase\000"
 2623      61736500 
 2624              	.LASF30:
 2625 04d7 705F6F6C 		.ascii	"p_older\000"
 2625      64657200 
 2626              	.LASF158:
 2627 04df 66726565 		.ascii	"free_clust\000"
 2627      5F636C75 
 2627      737400
 2628              	.LASF92:
 2629 04ea 424C4B5F 		.ascii	"BLK_READY\000"
 2629      52454144 
 2629      5900
 2630              	.LASF125:
 2631 04f4 7478646D 		.ascii	"txdmamode\000"
 2631      616D6F64 
 2631      6500
ARM GAS  /tmp/ccIkacop.s 			page 51


 2632              	.LASF134:
 2633 04fe 4D4D4343 		.ascii	"MMCConfig\000"
 2633      6F6E6669 
 2633      6700
 2634              	.LASF179:
 2635 0508 46525F4E 		.ascii	"FR_NOT_ENABLED\000"
 2635      4F545F45 
 2635      4E41424C 
 2635      454400
 2636              	.LASF202:
 2637 0517 2F686F6D 		.ascii	"/home/brian/aithon/ProjectTemplate\000"
 2637      652F6272 
 2637      69616E2F 
 2637      61697468 
 2637      6F6E2F50 
 2638              	.LASF108:
 2639 053a 41465248 		.ascii	"AFRH\000"
 2639      00
 2640              	.LASF58:
 2641 053f 65786974 		.ascii	"exitcode\000"
 2641      636F6465 
 2641      00
 2642              	.LASF70:
 2643 0548 43524350 		.ascii	"CRCPR\000"
 2643      5200
 2644              	.LASF107:
 2645 054e 4146524C 		.ascii	"AFRL\000"
 2645      00
 2646              	.LASF17:
 2647 0553 74726566 		.ascii	"trefs_t\000"
 2647      735F7400 
 2648              	.LASF66:
 2649 055b 52455345 		.ascii	"RESERVED0\000"
 2649      52564544 
 2649      3000
 2650              	.LASF67:
 2651 0565 52455345 		.ascii	"RESERVED1\000"
 2651      52564544 
 2651      3100
 2652              	.LASF68:
 2653 056f 52455345 		.ascii	"RESERVED2\000"
 2653      52564544 
 2653      3200
 2654              	.LASF69:
 2655 0579 52455345 		.ascii	"RESERVED3\000"
 2655      52564544 
 2655      3300
 2656              	.LASF26:
 2657 0583 705F7072 		.ascii	"p_prev\000"
 2657      657600
 2658              	.LASF198:
 2659 058a 665F6D6F 		.ascii	"f_mount\000"
 2659      756E7400 
 2660              	.LASF86:
 2661 0592 73746D33 		.ascii	"stm32_dma_stream_t\000"
 2661      325F646D 
 2661      615F7374 
ARM GAS  /tmp/ccIkacop.s 			page 52


 2661      7265616D 
 2661      5F7400
 2662              	.LASF79:
 2663 05a5 52455345 		.ascii	"RESERVED8\000"
 2663      52564544 
 2663      3800
 2664              	.LASF19:
 2665 05af 74707269 		.ascii	"tprio_t\000"
 2665      6F5F7400 
 2666              	.LASF81:
 2667 05b7 73747265 		.ascii	"stream\000"
 2667      616D00
 2668              	.LASF120:
 2669 05be 74687265 		.ascii	"thread\000"
 2669      616400
 2670              	.LASF189:
 2671 05c5 6C735F73 		.ascii	"ls_spicfg\000"
 2671      70696366 
 2671      6700
 2672              	.LASF14:
 2673 05cf 5F426F6F 		.ascii	"_Bool\000"
 2673      6C00
 2674              	.LASF7:
 2675 05d5 696E7433 		.ascii	"int32_t\000"
 2675      325F7400 
 2676              	.LASF2:
 2677 05dd 756E7369 		.ascii	"unsigned char\000"
 2677      676E6564 
 2677      20636861 
 2677      7200
 2678              	.LASF192:
 2679 05eb 53504944 		.ascii	"SPID3\000"
 2679      3300
 2680              	.LASF191:
 2681 05f1 49544D5F 		.ascii	"ITM_RxBuffer\000"
 2681      52784275 
 2681      66666572 
 2681      00
 2682              	.LASF41:
 2683 05fe 705F6D74 		.ascii	"p_mtxlist\000"
 2683      786C6973 
 2683      7400
 2684              	.LASF3:
 2685 0608 73686F72 		.ascii	"short int\000"
 2685      7420696E 
 2685      7400
 2686              	.LASF32:
 2687 0612 705F7374 		.ascii	"p_state\000"
 2687      61746500 
 2688              	.LASF94:
 2689 061a 424C4B5F 		.ascii	"BLK_WRITING\000"
 2689      57524954 
 2689      494E4700 
 2690              	.LASF35:
 2691 0626 705F7072 		.ascii	"p_preempt\000"
 2691      65656D70 
 2691      7400
ARM GAS  /tmp/ccIkacop.s 			page 53


 2692              	.LASF60:
 2693 0630 65776D61 		.ascii	"ewmask\000"
 2693      736B00
 2694              	.LASF25:
 2695 0637 705F6E65 		.ascii	"p_next\000"
 2695      787400
 2696              	.LASF33:
 2697 063e 705F666C 		.ascii	"p_flags\000"
 2697      61677300 
 2698              	.LASF178:
 2699 0646 46525F49 		.ascii	"FR_INVALID_DRIVE\000"
 2699      4E56414C 
 2699      49445F44 
 2699      52495645 
 2699      00
 2700              	.LASF98:
 2701 0657 626C6B5F 		.ascii	"blk_num\000"
 2701      6E756D00 
 2702              	.LASF153:
 2703 065f 77666C61 		.ascii	"wflag\000"
 2703      6700
 2704              	.LASF174:
 2705 0665 46525F44 		.ascii	"FR_DENIED\000"
 2705      454E4945 
 2705      4400
 2706              	.LASF181:
 2707 066f 46525F4D 		.ascii	"FR_MKFS_ABORTED\000"
 2707      4B46535F 
 2707      41424F52 
 2707      54454400 
 2708              	.LASF24:
 2709 067f 54687265 		.ascii	"Thread\000"
 2709      616400
 2710              	.LASF183:
 2711 0686 46525F4C 		.ascii	"FR_LOCKED\000"
 2711      4F434B45 
 2711      4400
 2712              	.LASF199:
 2713 0690 6D6D6344 		.ascii	"mmcDisconnect\000"
 2713      6973636F 
 2713      6E6E6563 
 2713      7400
 2714              	.LASF138:
 2715 069e 636F6E6E 		.ascii	"connect\000"
 2715      65637400 
 2716              	.LASF40:
 2717 06a6 705F6570 		.ascii	"p_epending\000"
 2717      656E6469 
 2717      6E6700
 2718              	.LASF82:
 2719 06b1 69666372 		.ascii	"ifcr\000"
 2719      00
 2720              	.LASF146:
 2721 06b6 4D4D4344 		.ascii	"MMCDriver\000"
 2721      72697665 
 2721      7200
 2722              	.LASF80:
ARM GAS  /tmp/ccIkacop.s 			page 54


 2723 06c0 5350495F 		.ascii	"SPI_TypeDef\000"
 2723      54797065 
 2723      44656600 
 2724              	.LASF75:
 2725 06cc 52455345 		.ascii	"RESERVED6\000"
 2725      52564544 
 2725      3600
 2726              	.LASF9:
 2727 06d6 75696E74 		.ascii	"uint32_t\000"
 2727      33325F74 
 2727      00
 2728              	.LASF46:
 2729 06df 72656761 		.ascii	"regarm_t\000"
 2729      726D5F74 
 2729      00
 2730              	.LASF135:
 2731 06e8 4D4D4344 		.ascii	"MMCDriverVMT\000"
 2731      72697665 
 2731      72564D54 
 2731      00
 2732              	.LASF18:
 2733 06f5 74736C69 		.ascii	"tslices_t\000"
 2733      6365735F 
 2733      7400
 2734              	.LASF10:
 2735 06ff 6C6F6E67 		.ascii	"long unsigned int\000"
 2735      20756E73 
 2735      69676E65 
 2735      6420696E 
 2735      7400
 2736              	.LASF61:
 2737 0711 63686172 		.ascii	"char\000"
 2737      00
 2738              	.LASF173:
 2739 0716 46525F49 		.ascii	"FR_INVALID_NAME\000"
 2739      4E56414C 
 2739      49445F4E 
 2739      414D4500 
 2740              	.LASF115:
 2741 0726 5350495F 		.ascii	"SPI_COMPLETE\000"
 2741      434F4D50 
 2741      4C455445 
 2741      00
 2742              	.LASF91:
 2743 0733 424C4B5F 		.ascii	"BLK_DISCONNECTING\000"
 2743      44495343 
 2743      4F4E4E45 
 2743      4354494E 
 2743      4700
 2744              	.LASF119:
 2745 0745 636F6E66 		.ascii	"config\000"
 2745      696700
 2746              	.LASF201:
 2747 074c 2E2E2F41 		.ascii	"../AithonLibrary/sd.c\000"
 2747      6974686F 
 2747      6E4C6962 
 2747      72617279 
ARM GAS  /tmp/ccIkacop.s 			page 55


 2747      2F73642E 
 2748              	.LASF167:
 2749 0762 46525F4F 		.ascii	"FR_OK\000"
 2749      4B00
 2750              	.LASF116:
 2751 0768 73706973 		.ascii	"spistate_t\000"
 2751      74617465 
 2751      5F7400
 2752              	.LASF56:
 2753 0773 6D5F6E65 		.ascii	"m_next\000"
 2753      787400
 2754              	.LASF22:
 2755 077a 73797374 		.ascii	"systime_t\000"
 2755      696D655F 
 2755      7400
 2756              	.LASF42:
 2757 0784 705F7265 		.ascii	"p_realprio\000"
 2757      616C7072 
 2757      696F00
 2758              	.LASF62:
 2759 078f 4E445452 		.ascii	"NDTR\000"
 2759      00
 2760              	.LASF65:
 2761 0794 444D415F 		.ascii	"DMA_Stream_TypeDef\000"
 2761      53747265 
 2761      616D5F54 
 2761      79706544 
 2761      656600
 2762              	.LASF110:
 2763 07a7 696F706F 		.ascii	"ioportid_t\000"
 2763      72746964 
 2763      5F7400
 2764              	.LASF36:
 2765 07b2 705F7469 		.ascii	"p_time\000"
 2765      6D6500
 2766              	.LASF71:
 2767 07b9 52455345 		.ascii	"RESERVED4\000"
 2767      52564544 
 2767      3400
 2768              	.LASF73:
 2769 07c3 52455345 		.ascii	"RESERVED5\000"
 2769      52564544 
 2769      3500
 2770              	.LASF47:
 2771 07cd 696E7463 		.ascii	"intctx\000"
 2771      747800
 2772              	.LASF38:
 2773 07d4 705F6D73 		.ascii	"p_msgqueue\000"
 2773      67717565 
 2773      756500
 2774              	.LASF137:
 2775 07df 69735F70 		.ascii	"is_protected\000"
 2775      726F7465 
 2775      63746564 
 2775      00
 2776              	.LASF64:
 2777 07ec 4D314152 		.ascii	"M1AR\000"
ARM GAS  /tmp/ccIkacop.s 			page 56


 2777      00
 2778              	.LASF111:
 2779 07f1 5350495F 		.ascii	"SPI_UNINIT\000"
 2779      554E494E 
 2779      495400
 2780              	.LASF77:
 2781 07fc 52455345 		.ascii	"RESERVED7\000"
 2781      52564544 
 2781      3700
 2782              	.LASF50:
 2783 0806 53656D61 		.ascii	"Semaphore\000"
 2783      70686F72 
 2783      6500
 2784              	.LASF34:
 2785 0810 705F7265 		.ascii	"p_refs\000"
 2785      667300
 2786              	.LASF105:
 2787 0817 42535252 		.ascii	"BSRR\000"
 2787      00
 2788              	.LASF95:
 2789 081c 424C4B5F 		.ascii	"BLK_SYNCING\000"
 2789      53594E43 
 2789      494E4700 
 2790              	.LASF133:
 2791 0828 68736366 		.ascii	"hscfg\000"
 2791      6700
 2792              	.LASF4:
 2793 082e 75696E74 		.ascii	"uint8_t\000"
 2793      385F7400 
 2794              	.LASF131:
 2795 0836 73706970 		.ascii	"spip\000"
 2795      00
 2796              	.LASF142:
 2797 083b 73796E63 		.ascii	"sync\000"
 2797      00
 2798              	.LASF27:
 2799 0840 705F7072 		.ascii	"p_prio\000"
 2799      696F00
 2800              	.LASF159:
 2801 0847 6673695F 		.ascii	"fsi_sector\000"
 2801      73656374 
 2801      6F7200
 2802              	.LASF140:
 2803 0852 72656164 		.ascii	"read\000"
 2803      00
 2804              	.LASF187:
 2805 0857 46524553 		.ascii	"FRESULT\000"
 2805      554C5400 
 2806              	.LASF31:
 2807 085f 705F6E61 		.ascii	"p_name\000"
 2807      6D6500
 2808              	.LASF171:
 2809 0866 46525F4E 		.ascii	"FR_NO_FILE\000"
 2809      4F5F4649 
 2809      4C4500
 2810              	.LASF130:
 2811 0871 53504943 		.ascii	"SPIConfig\000"
ARM GAS  /tmp/ccIkacop.s 			page 57


 2811      6F6E6669 
 2811      6700
 2812              	.LASF172:
 2813 087b 46525F4E 		.ascii	"FR_NO_PATH\000"
 2813      4F5F5041 
 2813      544800
 2814              	.LASF39:
 2815 0886 705F6D73 		.ascii	"p_msg\000"
 2815      6700
 2816              	.LASF197:
 2817 088c 6D6D6343 		.ascii	"mmcConnect\000"
 2817      6F6E6E65 
 2817      637400
 2818              	.LASF170:
 2819 0897 46525F4E 		.ascii	"FR_NOT_READY\000"
 2819      4F545F52 
 2819      45414459 
 2819      00
 2820              	.LASF55:
 2821 08a4 6D5F6F77 		.ascii	"m_owner\000"
 2821      6E657200 
 2822              	.LASF28:
 2823 08ac 705F6374 		.ascii	"p_ctx\000"
 2823      7800
 2824              	.LASF37:
 2825 08b2 705F7761 		.ascii	"p_waiting\000"
 2825      6974696E 
 2825      6700
 2826              	.LASF203:
 2827 08bc 73645F69 		.ascii	"sd_init\000"
 2827      6E697400 
 2828              	.LASF190:
 2829 08c4 6D6D6363 		.ascii	"mmccfg\000"
 2829      666700
 2830              		.ident	"GCC: (GNU Tools for ARM Embedded Processors) 4.8.3 20131129 (release) [ARM/embedded-4_8-br
ARM GAS  /tmp/ccIkacop.s 			page 58


DEFINED SYMBOLS
                            *ABS*:0000000000000000 sd.c
     /tmp/ccIkacop.s:20     .text.sd_init:0000000000000000 $t
     /tmp/ccIkacop.s:26     .text.sd_init:0000000000000000 sd_init
     /tmp/ccIkacop.s:75     .text.sd_init:0000000000000034 $d
     /tmp/ccIkacop.s:97     .bss.MMCD1:0000000000000000 MMCD1
     /tmp/ccIkacop.s:113    .bss.sdFS:0000000000000000 sdFS
     /tmp/ccIkacop.s:84     .data.mmccfg:0000000000000000 $d
     /tmp/ccIkacop.s:88     .data.mmccfg:0000000000000000 mmccfg
     /tmp/ccIkacop.s:103    .data.ls_spicfg:0000000000000000 ls_spicfg
     /tmp/ccIkacop.s:119    .data.hs_spicfg:0000000000000000 hs_spicfg
     /tmp/ccIkacop.s:93     .bss.MMCD1:0000000000000000 $d
     /tmp/ccIkacop.s:100    .data.ls_spicfg:0000000000000000 $d
     /tmp/ccIkacop.s:109    .bss.sdFS:0000000000000000 $d
     /tmp/ccIkacop.s:116    .data.hs_spicfg:0000000000000000 $d
                     .debug_frame:0000000000000010 $d

UNDEFINED SYMBOLS
mmcObjectInit
mmcStart
mmcConnect
f_mount
mmcDisconnect
SPID3
