ARM GAS  /tmp/ccvnUhOQ.s 			page 1


   1              		.syntax unified
   2              		.cpu cortex-m4
   3              		.eabi_attribute 27, 3
   4              		.fpu fpv4-sp-d16
   5              		.eabi_attribute 20, 1
   6              		.eabi_attribute 21, 1
   7              		.eabi_attribute 23, 3
   8              		.eabi_attribute 24, 1
   9              		.eabi_attribute 25, 1
  10              		.eabi_attribute 26, 1
  11              		.eabi_attribute 30, 2
  12              		.eabi_attribute 34, 1
  13              		.eabi_attribute 18, 4
  14              		.thumb
  15              		.file	"serial_usb.c"
  16              		.text
  17              	.Ltext0:
  18              		.cfi_sections	.debug_frame
  19              		.section	.text.onotify,"ax",%progbits
  20              		.align	2
  21              		.p2align 4,,15
  22              		.thumb
  23              		.thumb_func
  24              		.type	onotify, %function
  25              	onotify:
  26              	.LFB127:
  27              		.file 1 "../AithonLibrary/ChibiOS/os/hal/src/serial_usb.c"
  28              		.loc 1 150 0
  29              		.cfi_startproc
  30              		@ args = 0, pretend = 0, frame = 0
  31              		@ frame_needed = 0, uses_anonymous_args = 0
  32              	.LVL0:
  33 0000 10B5     		push	{r4, lr}
  34              		.cfi_def_cfa_offset 8
  35              		.cfi_offset 4, -8
  36              		.cfi_offset 14, -4
  37              		.loc 1 152 0
  38 0002 046A     		ldr	r4, [r0, #32]
  39              	.LVL1:
  40              		.loc 1 156 0
  41 0004 D4F85432 		ldr	r3, [r4, #596]
  42 0008 1A68     		ldr	r2, [r3]
  43 000a 1178     		ldrb	r1, [r2]	@ zero_extendqisi2
  44 000c 0429     		cmp	r1, #4
  45 000e 00D0     		beq	.L7
  46              	.LVL2:
  47              	.L1:
  48 0010 10BD     		pop	{r4, pc}
  49              	.LVL3:
  50              	.L7:
  51              		.loc 1 156 0 is_stmt 0 discriminator 1
  52 0012 217A     		ldrb	r1, [r4, #8]	@ zero_extendqisi2
  53 0014 0229     		cmp	r1, #2
  54 0016 FBD1     		bne	.L1
  55              		.loc 1 162 0 is_stmt 1
  56 0018 1289     		ldrh	r2, [r2, #8]
  57 001a 1B79     		ldrb	r3, [r3, #4]	@ zero_extendqisi2
ARM GAS  /tmp/ccvnUhOQ.s 			page 2


  58 001c 42FA03F3 		asr	r3, r2, r3
  59 0020 13F00103 		ands	r3, r3, #1
  60 0024 F4D1     		bne	.L1
  61              		.loc 1 163 0 discriminator 1
  62 0026 206C     		ldr	r0, [r4, #64]
  63              	.LVL4:
  64 0028 E16B     		ldr	r1, [r4, #60]
  65 002a A26B     		ldr	r2, [r4, #56]
  66 002c 411A     		subs	r1, r0, r1
  67              	.LVL5:
  68              		.loc 1 162 0 discriminator 1
  69 002e 8A1A     		subs	r2, r1, r2
  70              	.LVL6:
  71 0030 EED0     		beq	.L1
  72              	.LBB2:
  73              		.loc 1 164 0
  74              	@ 164 "../AithonLibrary/ChibiOS/os/hal/src/serial_usb.c" 1
  75 0032 83F31188 		msr     BASEPRI, r3
  76              	@ 0 "" 2
  77              		.thumb
  78              	.LBE2:
  79              		.loc 1 166 0
  80 0036 D4F85412 		ldr	r1, [r4, #596]
  81 003a 1346     		mov	r3, r2
  82 003c 0868     		ldr	r0, [r1]
  83 003e 0979     		ldrb	r1, [r1, #4]	@ zero_extendqisi2
  84 0040 04F13002 		add	r2, r4, #48
  85              	.LVL7:
  86 0044 FFF7FEFF 		bl	usbPrepareQueuedTransmit
  87              	.LVL8:
  88              	.LBB3:
  89              		.loc 1 170 0
  90 0048 2023     		movs	r3, #32
  91              	@ 170 "../AithonLibrary/ChibiOS/os/hal/src/serial_usb.c" 1
  92 004a 83F31188 		msr     BASEPRI, r3
  93              	@ 0 "" 2
  94              		.thumb
  95              	.LBE3:
  96              		.loc 1 171 0
  97 004e D4F85432 		ldr	r3, [r4, #596]
  98              		.loc 1 173 0
  99 0052 BDE81040 		pop	{r4, lr}
 100              	.LVL9:
 101              		.loc 1 171 0
 102 0056 1868     		ldr	r0, [r3]
 103 0058 1979     		ldrb	r1, [r3, #4]	@ zero_extendqisi2
 104 005a FFF7FEBF 		b	usbStartTransmitI
 105              	.LVL10:
 106              		.cfi_endproc
 107              	.LFE127:
 108              		.size	onotify, .-onotify
 109 005e 00BF     		.section	.text.inotify,"ax",%progbits
 110              		.align	2
 111              		.p2align 4,,15
 112              		.thumb
 113              		.thumb_func
 114              		.type	inotify, %function
ARM GAS  /tmp/ccvnUhOQ.s 			page 3


 115              	inotify:
 116              	.LFB126:
 117              		.loc 1 119 0
 118              		.cfi_startproc
 119              		@ args = 0, pretend = 0, frame = 0
 120              		@ frame_needed = 0, uses_anonymous_args = 0
 121              	.LVL11:
 122 0000 38B5     		push	{r3, r4, r5, lr}
 123              		.cfi_def_cfa_offset 16
 124              		.cfi_offset 3, -16
 125              		.cfi_offset 4, -12
 126              		.cfi_offset 5, -8
 127              		.cfi_offset 14, -4
 128              		.loc 1 121 0
 129 0002 046A     		ldr	r4, [r0, #32]
 130              	.LVL12:
 131              		.loc 1 125 0
 132 0004 D4F85422 		ldr	r2, [r4, #596]
 133 0008 1368     		ldr	r3, [r2]
 134 000a 1978     		ldrb	r1, [r3]	@ zero_extendqisi2
 135 000c 0429     		cmp	r1, #4
 136 000e 00D0     		beq	.L10
 137              	.LVL13:
 138              	.L8:
 139 0010 38BD     		pop	{r3, r4, r5, pc}
 140              	.LVL14:
 141              	.L10:
 142              		.loc 1 125 0 is_stmt 0 discriminator 1
 143 0012 217A     		ldrb	r1, [r4, #8]	@ zero_extendqisi2
 144 0014 0229     		cmp	r1, #2
 145 0016 FBD1     		bne	.L8
 146              		.loc 1 132 0 is_stmt 1
 147 0018 5279     		ldrb	r2, [r2, #5]	@ zero_extendqisi2
 148              		.loc 1 133 0
 149 001a 5989     		ldrh	r1, [r3, #10]
 150              		.loc 1 132 0
 151 001c 03EB8203 		add	r3, r3, r2, lsl #2
 152              		.loc 1 133 0
 153 0020 41FA02F2 		asr	r2, r1, r2
 154              		.loc 1 132 0
 155 0024 DB68     		ldr	r3, [r3, #12]
 156 0026 598A     		ldrh	r1, [r3, #18]
 157              	.LVL15:
 158              		.loc 1 133 0
 159 0028 12F00103 		ands	r3, r2, #1
 160 002c F0D1     		bne	.L8
 161              		.loc 1 134 0 discriminator 1
 162 002e E569     		ldr	r5, [r4, #28]
 163 0030 A069     		ldr	r0, [r4, #24]
 164              	.LVL16:
 165 0032 6269     		ldr	r2, [r4, #20]
 166 0034 281A     		subs	r0, r5, r0
 167 0036 801A     		subs	r0, r0, r2
 168              	.LVL17:
 169              		.loc 1 133 0 discriminator 1
 170 0038 8142     		cmp	r1, r0
 171 003a E9D8     		bhi	.L8
ARM GAS  /tmp/ccvnUhOQ.s 			page 4


 172              	.LBB4:
 173              		.loc 1 135 0
 174              	@ 135 "../AithonLibrary/ChibiOS/os/hal/src/serial_usb.c" 1
 175 003c 83F31188 		msr     BASEPRI, r3
 176              	@ 0 "" 2
 177              		.thumb
 178              	.LBE4:
 179              		.loc 1 138 0
 180 0040 D4F85422 		ldr	r2, [r4, #596]
 181              		.loc 1 137 0
 182 0044 B0FBF1F3 		udiv	r3, r0, r1
 183              	.LVL18:
 184              		.loc 1 138 0
 185 0048 01FB03F3 		mul	r3, r1, r3
 186              	.LVL19:
 187 004c 1068     		ldr	r0, [r2]
 188 004e 5179     		ldrb	r1, [r2, #5]	@ zero_extendqisi2
 189              	.LVL20:
 190 0050 04F10C02 		add	r2, r4, #12
 191 0054 FFF7FEFF 		bl	usbPrepareQueuedReceive
 192              	.LVL21:
 193              	.LBB5:
 194              		.loc 1 142 0
 195 0058 2023     		movs	r3, #32
 196              	@ 142 "../AithonLibrary/ChibiOS/os/hal/src/serial_usb.c" 1
 197 005a 83F31188 		msr     BASEPRI, r3
 198              	@ 0 "" 2
 199              		.thumb
 200              	.LBE5:
 201              		.loc 1 143 0
 202 005e D4F85432 		ldr	r3, [r4, #596]
 203 0062 1868     		ldr	r0, [r3]
 204 0064 5979     		ldrb	r1, [r3, #5]	@ zero_extendqisi2
 205              		.loc 1 145 0
 206 0066 BDE83840 		pop	{r3, r4, r5, lr}
 207              	.LVL22:
 208              		.loc 1 143 0
 209 006a FFF7FEBF 		b	usbStartReceiveI
 210              	.LVL23:
 211              		.cfi_endproc
 212              	.LFE126:
 213              		.size	inotify, .-inotify
 214 006e 00BF     		.section	.text.readt,"ax",%progbits
 215              		.align	2
 216              		.p2align 4,,15
 217              		.thumb
 218              		.thumb_func
 219              		.type	readt, %function
 220              	readt:
 221              	.LFB125:
 222              		.loc 1 106 0
 223              		.cfi_startproc
 224              		@ args = 0, pretend = 0, frame = 0
 225              		@ frame_needed = 0, uses_anonymous_args = 0
 226              		@ link register save eliminated.
 227              	.LVL24:
 228              		.loc 1 108 0
ARM GAS  /tmp/ccvnUhOQ.s 			page 5


 229 0000 0C30     		adds	r0, r0, #12
 230              	.LVL25:
 231 0002 FFF7FEBF 		b	chIQReadTimeout
 232              	.LVL26:
 233              		.cfi_endproc
 234              	.LFE125:
 235              		.size	readt, .-readt
 236 0006 00BFAFF3 		.section	.text.read,"ax",%progbits
 236      0080AFF3 
 236      0080
 237              		.align	2
 238              		.p2align 4,,15
 239              		.thumb
 240              		.thumb_func
 241              		.type	read, %function
 242              	read:
 243              	.LFB119:
 244              		.loc 1 75 0
 245              		.cfi_startproc
 246              		@ args = 0, pretend = 0, frame = 0
 247              		@ frame_needed = 0, uses_anonymous_args = 0
 248              		@ link register save eliminated.
 249              	.LVL27:
 250              		.loc 1 77 0
 251 0000 0C30     		adds	r0, r0, #12
 252              	.LVL28:
 253 0002 4FF0FF33 		mov	r3, #-1
 254 0006 FFF7FEBF 		b	chIQReadTimeout
 255              	.LVL29:
 256              		.cfi_endproc
 257              	.LFE119:
 258              		.size	read, .-read
 259 000a 00BFAFF3 		.section	.text.writet,"ax",%progbits
 259      0080
 260              		.align	2
 261              		.p2align 4,,15
 262              		.thumb
 263              		.thumb_func
 264              		.type	writet, %function
 265              	writet:
 266              	.LFB124:
 267              		.loc 1 101 0
 268              		.cfi_startproc
 269              		@ args = 0, pretend = 0, frame = 0
 270              		@ frame_needed = 0, uses_anonymous_args = 0
 271              		@ link register save eliminated.
 272              	.LVL30:
 273              		.loc 1 103 0
 274 0000 3030     		adds	r0, r0, #48
 275              	.LVL31:
 276 0002 FFF7FEBF 		b	chOQWriteTimeout
 277              	.LVL32:
 278              		.cfi_endproc
 279              	.LFE124:
 280              		.size	writet, .-writet
 281 0006 00BFAFF3 		.section	.text.write,"ax",%progbits
 281      0080AFF3 
ARM GAS  /tmp/ccvnUhOQ.s 			page 6


 281      0080
 282              		.align	2
 283              		.p2align 4,,15
 284              		.thumb
 285              		.thumb_func
 286              		.type	write, %function
 287              	write:
 288              	.LFB118:
 289              		.loc 1 69 0
 290              		.cfi_startproc
 291              		@ args = 0, pretend = 0, frame = 0
 292              		@ frame_needed = 0, uses_anonymous_args = 0
 293              		@ link register save eliminated.
 294              	.LVL33:
 295              		.loc 1 71 0
 296 0000 3030     		adds	r0, r0, #48
 297              	.LVL34:
 298 0002 4FF0FF33 		mov	r3, #-1
 299 0006 FFF7FEBF 		b	chOQWriteTimeout
 300              	.LVL35:
 301              		.cfi_endproc
 302              	.LFE118:
 303              		.size	write, .-write
 304 000a 00BFAFF3 		.section	.text.gett,"ax",%progbits
 304      0080
 305              		.align	2
 306              		.p2align 4,,15
 307              		.thumb
 308              		.thumb_func
 309              		.type	gett, %function
 310              	gett:
 311              	.LFB123:
 312              		.loc 1 96 0
 313              		.cfi_startproc
 314              		@ args = 0, pretend = 0, frame = 0
 315              		@ frame_needed = 0, uses_anonymous_args = 0
 316              		@ link register save eliminated.
 317              	.LVL36:
 318              		.loc 1 98 0
 319 0000 0C30     		adds	r0, r0, #12
 320              	.LVL37:
 321 0002 FFF7FEBF 		b	chIQGetTimeout
 322              	.LVL38:
 323              		.cfi_endproc
 324              	.LFE123:
 325              		.size	gett, .-gett
 326 0006 00BFAFF3 		.section	.text.get,"ax",%progbits
 326      0080AFF3 
 326      0080
 327              		.align	2
 328              		.p2align 4,,15
 329              		.thumb
 330              		.thumb_func
 331              		.type	get, %function
 332              	get:
 333              	.LFB121:
 334              		.loc 1 86 0
ARM GAS  /tmp/ccvnUhOQ.s 			page 7


 335              		.cfi_startproc
 336              		@ args = 0, pretend = 0, frame = 0
 337              		@ frame_needed = 0, uses_anonymous_args = 0
 338              		@ link register save eliminated.
 339              	.LVL39:
 340              		.loc 1 88 0
 341 0000 0C30     		adds	r0, r0, #12
 342              	.LVL40:
 343 0002 4FF0FF31 		mov	r1, #-1
 344 0006 FFF7FEBF 		b	chIQGetTimeout
 345              	.LVL41:
 346              		.cfi_endproc
 347              	.LFE121:
 348              		.size	get, .-get
 349 000a 00BFAFF3 		.section	.text.putt,"ax",%progbits
 349      0080
 350              		.align	2
 351              		.p2align 4,,15
 352              		.thumb
 353              		.thumb_func
 354              		.type	putt, %function
 355              	putt:
 356              	.LFB122:
 357              		.loc 1 91 0
 358              		.cfi_startproc
 359              		@ args = 0, pretend = 0, frame = 0
 360              		@ frame_needed = 0, uses_anonymous_args = 0
 361              		@ link register save eliminated.
 362              	.LVL42:
 363              		.loc 1 93 0
 364 0000 3030     		adds	r0, r0, #48
 365              	.LVL43:
 366 0002 FFF7FEBF 		b	chOQPutTimeout
 367              	.LVL44:
 368              		.cfi_endproc
 369              	.LFE122:
 370              		.size	putt, .-putt
 371 0006 00BFAFF3 		.section	.text.put,"ax",%progbits
 371      0080AFF3 
 371      0080
 372              		.align	2
 373              		.p2align 4,,15
 374              		.thumb
 375              		.thumb_func
 376              		.type	put, %function
 377              	put:
 378              	.LFB120:
 379              		.loc 1 81 0
 380              		.cfi_startproc
 381              		@ args = 0, pretend = 0, frame = 0
 382              		@ frame_needed = 0, uses_anonymous_args = 0
 383              		@ link register save eliminated.
 384              	.LVL45:
 385              		.loc 1 83 0
 386 0000 3030     		adds	r0, r0, #48
 387              	.LVL46:
 388 0002 4FF0FF32 		mov	r2, #-1
ARM GAS  /tmp/ccvnUhOQ.s 			page 8


 389 0006 FFF7FEBF 		b	chOQPutTimeout
 390              	.LVL47:
 391              		.cfi_endproc
 392              	.LFE120:
 393              		.size	put, .-put
 394 000a 00BFAFF3 		.section	.text.sduInit,"ax",%progbits
 394      0080
 395              		.align	2
 396              		.p2align 4,,15
 397              		.global	sduInit
 398              		.thumb
 399              		.thumb_func
 400              		.type	sduInit, %function
 401              	sduInit:
 402              	.LFB128:
 403              		.loc 1 186 0
 404              		.cfi_startproc
 405              		@ args = 0, pretend = 0, frame = 0
 406              		@ frame_needed = 0, uses_anonymous_args = 0
 407              		@ link register save eliminated.
 408 0000 7047     		bx	lr
 409              		.cfi_endproc
 410              	.LFE128:
 411              		.size	sduInit, .-sduInit
 412 0002 00BFAFF3 		.section	.text.sduObjectInit,"ax",%progbits
 412      0080AFF3 
 412      0080AFF3 
 412      0080
 413              		.align	2
 414              		.p2align 4,,15
 415              		.global	sduObjectInit
 416              		.thumb
 417              		.thumb_func
 418              		.type	sduObjectInit, %function
 419              	sduObjectInit:
 420              	.LFB129:
 421              		.loc 1 198 0
 422              		.cfi_startproc
 423              		@ args = 0, pretend = 0, frame = 0
 424              		@ frame_needed = 0, uses_anonymous_args = 0
 425              	.LVL48:
 426              		.loc 1 198 0
 427 0000 10B5     		push	{r4, lr}
 428              		.cfi_def_cfa_offset 8
 429              		.cfi_offset 4, -8
 430              		.cfi_offset 14, -4
 431              		.loc 1 200 0
 432 0002 0346     		mov	r3, r0
 433 0004 0E4A     		ldr	r2, .L21
 434 0006 43F8042B 		str	r2, [r3], #4
 435              		.loc 1 198 0
 436 000a 82B0     		sub	sp, sp, #8
 437              		.cfi_def_cfa_offset 16
 438              		.loc 1 198 0
 439 000c 0446     		mov	r4, r0
 440              		.loc 1 202 0
 441 000e 0122     		movs	r2, #1
ARM GAS  /tmp/ccvnUhOQ.s 			page 9


 442              		.loc 1 203 0
 443 0010 0090     		str	r0, [sp]
 444 0012 04F15401 		add	r1, r4, #84
 445              		.loc 1 201 0
 446 0016 4360     		str	r3, [r0, #4]
 447              		.loc 1 202 0
 448 0018 0272     		strb	r2, [r0, #8]
 449              		.loc 1 203 0
 450 001a 0A4B     		ldr	r3, .L21+4
 451 001c 0C30     		adds	r0, r0, #12
 452              	.LVL49:
 453 001e 4FF48072 		mov	r2, #256
 454 0022 FFF7FEFF 		bl	chIQInit
 455              	.LVL50:
 456              		.loc 1 204 0
 457 0026 0094     		str	r4, [sp]
 458 0028 04F13000 		add	r0, r4, #48
 459 002c 04F5AA71 		add	r1, r4, #340
 460 0030 4FF48072 		mov	r2, #256
 461 0034 044B     		ldr	r3, .L21+8
 462 0036 FFF7FEFF 		bl	chOQInit
 463              	.LVL51:
 464              		.loc 1 205 0
 465 003a 02B0     		add	sp, sp, #8
 466              		@ sp needed
 467 003c 10BD     		pop	{r4, pc}
 468              	.LVL52:
 469              	.L22:
 470 003e 00BF     		.align	2
 471              	.L21:
 472 0040 00000000 		.word	.LANCHOR0
 473 0044 00000000 		.word	inotify
 474 0048 00000000 		.word	onotify
 475              		.cfi_endproc
 476              	.LFE129:
 477              		.size	sduObjectInit, .-sduObjectInit
 478 004c AFF30080 		.section	.text.sduStart,"ax",%progbits
 479              		.align	2
 480              		.p2align 4,,15
 481              		.global	sduStart
 482              		.thumb
 483              		.thumb_func
 484              		.type	sduStart, %function
 485              	sduStart:
 486              	.LFB130:
 487              		.loc 1 215 0
 488              		.cfi_startproc
 489              		@ args = 0, pretend = 0, frame = 0
 490              		@ frame_needed = 0, uses_anonymous_args = 0
 491              		@ link register save eliminated.
 492              	.LVL53:
 493 0000 30B4     		push	{r4, r5}
 494              		.cfi_def_cfa_offset 8
 495              		.cfi_offset 4, -8
 496              		.cfi_offset 5, -4
 497              		.loc 1 216 0
 498 0002 0A68     		ldr	r2, [r1]
ARM GAS  /tmp/ccvnUhOQ.s 			page 10


 499              	.LVL54:
 500              	.LBB6:
 501              		.loc 1 220 0
 502 0004 2023     		movs	r3, #32
 503              	@ 220 "../AithonLibrary/ChibiOS/os/hal/src/serial_usb.c" 1
 504 0006 83F31188 		msr     BASEPRI, r3
 505              	@ 0 "" 2
 506              		.thumb
 507              	.LBE6:
 508              		.loc 1 224 0
 509 000a 0B79     		ldrb	r3, [r1, #4]	@ zero_extendqisi2
 510 000c 02EB8303 		add	r3, r2, r3, lsl #2
 511              		.loc 1 228 0
 512 0010 0224     		movs	r4, #2
 513              		.loc 1 224 0
 514 0012 9861     		str	r0, [r3, #24]
 515              		.loc 1 225 0
 516 0014 4D79     		ldrb	r5, [r1, #5]	@ zero_extendqisi2
 517 0016 0935     		adds	r5, r5, #9
 518              	.LBB7:
 519              		.loc 1 229 0
 520 0018 0023     		movs	r3, #0
 521              	.LBE7:
 522              		.loc 1 225 0
 523 001a 42F82500 		str	r0, [r2, r5, lsl #2]
 524              		.loc 1 226 0
 525 001e 8D79     		ldrb	r5, [r1, #6]	@ zero_extendqisi2
 526 0020 02EB8502 		add	r2, r2, r5, lsl #2
 527              	.LVL55:
 528 0024 9061     		str	r0, [r2, #24]
 529              		.loc 1 227 0
 530 0026 C0F85412 		str	r1, [r0, #596]
 531              		.loc 1 228 0
 532 002a 0472     		strb	r4, [r0, #8]
 533              	.LBB8:
 534              		.loc 1 229 0
 535              	@ 229 "../AithonLibrary/ChibiOS/os/hal/src/serial_usb.c" 1
 536 002c 83F31188 		msr     BASEPRI, r3
 537              	@ 0 "" 2
 538              		.thumb
 539              	.LBE8:
 540              		.loc 1 230 0
 541 0030 30BC     		pop	{r4, r5}
 542 0032 7047     		bx	lr
 543              		.cfi_endproc
 544              	.LFE130:
 545              		.size	sduStart, .-sduStart
 546 0034 AFF30080 		.section	.text.sduStop,"ax",%progbits
 546      AFF30080 
 546      AFF30080 
 547              		.align	2
 548              		.p2align 4,,15
 549              		.global	sduStop
 550              		.thumb
 551              		.thumb_func
 552              		.type	sduStop, %function
 553              	sduStop:
ARM GAS  /tmp/ccvnUhOQ.s 			page 11


 554              	.LFB131:
 555              		.loc 1 241 0
 556              		.cfi_startproc
 557              		@ args = 0, pretend = 0, frame = 0
 558              		@ frame_needed = 0, uses_anonymous_args = 0
 559              	.LVL56:
 560              		.loc 1 242 0
 561 0000 D0F85422 		ldr	r2, [r0, #596]
 562              		.loc 1 241 0
 563 0004 70B5     		push	{r4, r5, r6, lr}
 564              		.cfi_def_cfa_offset 16
 565              		.cfi_offset 4, -16
 566              		.cfi_offset 5, -12
 567              		.cfi_offset 6, -8
 568              		.cfi_offset 14, -4
 569              	.LBB9:
 570              		.loc 1 246 0
 571 0006 2023     		movs	r3, #32
 572              	.LBE9:
 573              		.loc 1 241 0
 574 0008 0446     		mov	r4, r0
 575              		.loc 1 242 0
 576 000a 1268     		ldr	r2, [r2]
 577              	.LVL57:
 578              	.LBB10:
 579              		.loc 1 246 0
 580              	@ 246 "../AithonLibrary/ChibiOS/os/hal/src/serial_usb.c" 1
 581 000c 83F31188 		msr     BASEPRI, r3
 582              	@ 0 "" 2
 583              		.thumb
 584              	.LBE10:
 585              		.loc 1 253 0
 586 0010 D0F85432 		ldr	r3, [r0, #596]
 587 0014 1979     		ldrb	r1, [r3, #4]	@ zero_extendqisi2
 588 0016 0531     		adds	r1, r1, #5
 589 0018 02EB8101 		add	r1, r2, r1, lsl #2
 590 001c 0025     		movs	r5, #0
 591 001e 4D60     		str	r5, [r1, #4]
 592              		.loc 1 254 0
 593 0020 5979     		ldrb	r1, [r3, #5]	@ zero_extendqisi2
 594 0022 0931     		adds	r1, r1, #9
 595              		.loc 1 256 0
 596 0024 0126     		movs	r6, #1
 597              		.loc 1 254 0
 598 0026 42F82150 		str	r5, [r2, r1, lsl #2]
 599              		.loc 1 255 0
 600 002a 9B79     		ldrb	r3, [r3, #6]	@ zero_extendqisi2
 601 002c 0533     		adds	r3, r3, #5
 602 002e 02EB8302 		add	r2, r2, r3, lsl #2
 603              	.LVL58:
 604              		.loc 1 259 0
 605 0032 0221     		movs	r1, #2
 606              		.loc 1 255 0
 607 0034 5560     		str	r5, [r2, #4]
 608              		.loc 1 259 0
 609 0036 0430     		adds	r0, r0, #4
 610              	.LVL59:
ARM GAS  /tmp/ccvnUhOQ.s 			page 12


 611              		.loc 1 256 0
 612 0038 2672     		strb	r6, [r4, #8]
 613              		.loc 1 259 0
 614 003a FFF7FEFF 		bl	chEvtBroadcastFlagsI
 615              	.LVL60:
 616              		.loc 1 260 0
 617 003e 04F10C00 		add	r0, r4, #12
 618 0042 FFF7FEFF 		bl	chIQResetI
 619              	.LVL61:
 620              		.loc 1 261 0
 621 0046 04F13000 		add	r0, r4, #48
 622 004a FFF7FEFF 		bl	chOQResetI
 623              	.LVL62:
 624              		.loc 1 262 0
 625 004e FFF7FEFF 		bl	chSchRescheduleS
 626              	.LVL63:
 627              	.LBB11:
 628              		.loc 1 264 0
 629 0052 2B46     		mov	r3, r5
 630              	@ 264 "../AithonLibrary/ChibiOS/os/hal/src/serial_usb.c" 1
 631 0054 83F31188 		msr     BASEPRI, r3
 632              	@ 0 "" 2
 633              		.thumb
 634 0058 70BD     		pop	{r4, r5, r6, pc}
 635              	.LBE11:
 636              		.cfi_endproc
 637              	.LFE131:
 638              		.size	sduStop, .-sduStop
 639 005a 00BFAFF3 		.section	.text.sduConfigureHookI,"ax",%progbits
 639      0080
 640              		.align	2
 641              		.p2align 4,,15
 642              		.global	sduConfigureHookI
 643              		.thumb
 644              		.thumb_func
 645              		.type	sduConfigureHookI, %function
 646              	sduConfigureHookI:
 647              	.LFB132:
 648              		.loc 1 274 0
 649              		.cfi_startproc
 650              		@ args = 0, pretend = 0, frame = 0
 651              		@ frame_needed = 0, uses_anonymous_args = 0
 652              	.LVL64:
 653 0000 70B5     		push	{r4, r5, r6, lr}
 654              		.cfi_def_cfa_offset 16
 655              		.cfi_offset 4, -16
 656              		.cfi_offset 5, -12
 657              		.cfi_offset 6, -8
 658              		.cfi_offset 14, -4
 659              		.loc 1 275 0
 660 0002 D0F85432 		ldr	r3, [r0, #596]
 661              		.loc 1 277 0
 662 0006 00F10C06 		add	r6, r0, #12
 663              		.loc 1 274 0
 664 000a 0446     		mov	r4, r0
 665              		.loc 1 277 0
 666 000c 3046     		mov	r0, r6
ARM GAS  /tmp/ccvnUhOQ.s 			page 13


 667              	.LVL65:
 668              		.loc 1 275 0
 669 000e 1D68     		ldr	r5, [r3]
 670              	.LVL66:
 671              		.loc 1 277 0
 672 0010 FFF7FEFF 		bl	chIQResetI
 673              	.LVL67:
 674              		.loc 1 278 0
 675 0014 04F13000 		add	r0, r4, #48
 676 0018 FFF7FEFF 		bl	chOQResetI
 677              	.LVL68:
 678              		.loc 1 279 0
 679 001c 201D     		adds	r0, r4, #4
 680 001e 0121     		movs	r1, #1
 681 0020 FFF7FEFF 		bl	chEvtBroadcastFlagsI
 682              	.LVL69:
 683              		.loc 1 283 0
 684 0024 D4F85432 		ldr	r3, [r4, #596]
 685 0028 5979     		ldrb	r1, [r3, #5]	@ zero_extendqisi2
 686 002a 05EB8103 		add	r3, r5, r1, lsl #2
 687              		.loc 1 282 0
 688 002e 2846     		mov	r0, r5
 689              		.loc 1 283 0
 690 0030 DB68     		ldr	r3, [r3, #12]
 691              		.loc 1 282 0
 692 0032 3246     		mov	r2, r6
 693 0034 5B8A     		ldrh	r3, [r3, #18]
 694 0036 FFF7FEFF 		bl	usbPrepareQueuedReceive
 695              	.LVL70:
 696              		.loc 1 284 0
 697 003a D4F85432 		ldr	r3, [r4, #596]
 698 003e 2846     		mov	r0, r5
 699 0040 5979     		ldrb	r1, [r3, #5]	@ zero_extendqisi2
 700              		.loc 1 285 0
 701 0042 BDE87040 		pop	{r4, r5, r6, lr}
 702              	.LVL71:
 703              		.loc 1 284 0
 704 0046 FFF7FEBF 		b	usbStartReceiveI
 705              	.LVL72:
 706              		.cfi_endproc
 707              	.LFE132:
 708              		.size	sduConfigureHookI, .-sduConfigureHookI
 709 004a 00BFAFF3 		.section	.text.sduRequestsHook,"ax",%progbits
 709      0080
 710              		.align	2
 711              		.p2align 4,,15
 712              		.global	sduRequestsHook
 713              		.thumb
 714              		.thumb_func
 715              		.type	sduRequestsHook, %function
 716              	sduRequestsHook:
 717              	.LFB133:
 718              		.loc 1 302 0
 719              		.cfi_startproc
 720              		@ args = 0, pretend = 0, frame = 0
 721              		@ frame_needed = 0, uses_anonymous_args = 0
 722              		@ link register save eliminated.
ARM GAS  /tmp/ccvnUhOQ.s 			page 14


 723              	.LVL73:
 724              		.loc 1 304 0
 725 0000 90F84430 		ldrb	r3, [r0, #68]	@ zero_extendqisi2
 726 0004 03F06003 		and	r3, r3, #96
 727 0008 202B     		cmp	r3, #32
 728 000a 01D0     		beq	.L34
 729              	.L33:
 730              		.loc 1 317 0
 731 000c 0020     		movs	r0, #0
 732              	.LVL74:
 733              		.loc 1 321 0
 734 000e 7047     		bx	lr
 735              	.LVL75:
 736              	.L34:
 737              		.loc 1 305 0
 738 0010 90F84530 		ldrb	r3, [r0, #69]	@ zero_extendqisi2
 739 0014 212B     		cmp	r3, #33
 740 0016 03D0     		beq	.L30
 741 0018 222B     		cmp	r3, #34
 742 001a 09D0     		beq	.L29
 743 001c 202B     		cmp	r3, #32
 744 001e F5D1     		bne	.L33
 745              	.L30:
 746              		.loc 1 310 0
 747 0020 064B     		ldr	r3, .L35
 748 0022 8363     		str	r3, [r0, #56]
 749 0024 0722     		movs	r2, #7
 750 0026 0023     		movs	r3, #0
 751 0028 C263     		str	r2, [r0, #60]
 752 002a 0364     		str	r3, [r0, #64]
 753              		.loc 1 311 0
 754 002c 0120     		movs	r0, #1
 755              	.LVL76:
 756 002e 7047     		bx	lr
 757              	.LVL77:
 758              	.L29:
 759              		.loc 1 314 0
 760 0030 0023     		movs	r3, #0
 761 0032 8363     		str	r3, [r0, #56]
 762 0034 C363     		str	r3, [r0, #60]
 763 0036 0364     		str	r3, [r0, #64]
 764              		.loc 1 315 0
 765 0038 0120     		movs	r0, #1
 766              	.LVL78:
 767 003a 7047     		bx	lr
 768              	.L36:
 769              		.align	2
 770              	.L35:
 771 003c 00000000 		.word	.LANCHOR1
 772              		.cfi_endproc
 773              	.LFE133:
 774              		.size	sduRequestsHook, .-sduRequestsHook
 775              		.section	.text.sduDataTransmitted,"ax",%progbits
 776              		.align	2
 777              		.p2align 4,,15
 778              		.global	sduDataTransmitted
 779              		.thumb
ARM GAS  /tmp/ccvnUhOQ.s 			page 15


 780              		.thumb_func
 781              		.type	sduDataTransmitted, %function
 782              	sduDataTransmitted:
 783              	.LFB134:
 784              		.loc 1 331 0
 785              		.cfi_startproc
 786              		@ args = 0, pretend = 0, frame = 0
 787              		@ frame_needed = 0, uses_anonymous_args = 0
 788              	.LVL79:
 789              		.loc 1 333 0
 790 0000 00EB8103 		add	r3, r0, r1, lsl #2
 791              		.loc 1 331 0
 792 0004 70B5     		push	{r4, r5, r6, lr}
 793              		.cfi_def_cfa_offset 16
 794              		.cfi_offset 4, -16
 795              		.cfi_offset 5, -12
 796              		.cfi_offset 6, -8
 797              		.cfi_offset 14, -4
 798              		.loc 1 333 0
 799 0006 9C69     		ldr	r4, [r3, #24]
 800              	.LVL80:
 801              		.loc 1 331 0
 802 0008 0646     		mov	r6, r0
 803 000a 0D46     		mov	r5, r1
 804              		.loc 1 335 0
 805 000c ACB1     		cbz	r4, .L37
 806              	.LBB12:
 807              		.loc 1 338 0
 808 000e 2023     		movs	r3, #32
 809              	@ 338 "../AithonLibrary/ChibiOS/os/hal/src/serial_usb.c" 1
 810 0010 83F31188 		msr     BASEPRI, r3
 811              	@ 0 "" 2
 812              		.thumb
 813              	.LBE12:
 814              		.loc 1 339 0
 815 0014 0821     		movs	r1, #8
 816              	.LVL81:
 817 0016 201D     		adds	r0, r4, #4
 818              	.LVL82:
 819 0018 FFF7FEFF 		bl	chEvtBroadcastFlagsI
 820              	.LVL83:
 821              		.loc 1 341 0
 822 001c 216C     		ldr	r1, [r4, #64]
 823 001e E26B     		ldr	r2, [r4, #60]
 824 0020 A36B     		ldr	r3, [r4, #56]
 825 0022 8A1A     		subs	r2, r1, r2
 826              	.LVL84:
 827 0024 D11A     		subs	r1, r2, r3
 828              	.LVL85:
 829 0026 13D1     		bne	.L48
 830              		.loc 1 351 0
 831 0028 06EB8503 		add	r3, r6, r5, lsl #2
 832 002c DA68     		ldr	r2, [r3, #12]
 833 002e 5369     		ldr	r3, [r2, #20]
 834 0030 5B68     		ldr	r3, [r3, #4]
 835 0032 1BB9     		cbnz	r3, .L49
 836              	.LVL86:
ARM GAS  /tmp/ccvnUhOQ.s 			page 16


 837              	.L40:
 838              	.LBB13:
 839              		.loc 1 366 0
 840 0034 0023     		movs	r3, #0
 841              	@ 366 "../AithonLibrary/ChibiOS/os/hal/src/serial_usb.c" 1
 842 0036 83F31188 		msr     BASEPRI, r3
 843              	@ 0 "" 2
 844              		.thumb
 845              	.L37:
 846 003a 70BD     		pop	{r4, r5, r6, pc}
 847              	.LVL87:
 848              	.L49:
 849              	.LBE13:
 850              		.loc 1 353 0 discriminator 1
 851 003c 128A     		ldrh	r2, [r2, #16]
 852 003e 013A     		subs	r2, r2, #1
 853              		.loc 1 351 0 discriminator 1
 854 0040 1340     		ands	r3, r2, r3
 855 0042 F7D1     		bne	.L40
 856              	.LBB14:
 857              		.loc 1 358 0
 858              	@ 358 "../AithonLibrary/ChibiOS/os/hal/src/serial_usb.c" 1
 859 0044 83F31188 		msr     BASEPRI, r3
 860              	@ 0 "" 2
 861              		.thumb
 862              	.LBE14:
 863              		.loc 1 360 0
 864 0048 0023     		movs	r3, #0
 865 004a 04F13002 		add	r2, r4, #48
 866 004e 05E0     		b	.L47
 867              	.L48:
 868              	.LBB15:
 869              		.loc 1 344 0
 870 0050 0023     		movs	r3, #0
 871              	@ 344 "../AithonLibrary/ChibiOS/os/hal/src/serial_usb.c" 1
 872 0052 83F31188 		msr     BASEPRI, r3
 873              	@ 0 "" 2
 874              		.thumb
 875              	.LBE15:
 876              		.loc 1 346 0
 877 0056 04F13002 		add	r2, r4, #48
 878 005a 0B46     		mov	r3, r1
 879              	.L47:
 880              		.loc 1 360 0
 881 005c 3046     		mov	r0, r6
 882 005e 2946     		mov	r1, r5
 883              	.LVL88:
 884 0060 FFF7FEFF 		bl	usbPrepareQueuedTransmit
 885              	.LVL89:
 886              	.LBB16:
 887              		.loc 1 362 0
 888 0064 2023     		movs	r3, #32
 889              	@ 362 "../AithonLibrary/ChibiOS/os/hal/src/serial_usb.c" 1
 890 0066 83F31188 		msr     BASEPRI, r3
 891              	@ 0 "" 2
 892              		.thumb
 893              	.LBE16:
ARM GAS  /tmp/ccvnUhOQ.s 			page 17


 894              		.loc 1 363 0
 895 006a 3046     		mov	r0, r6
 896 006c 2946     		mov	r1, r5
 897 006e FFF7FEFF 		bl	usbStartTransmitI
 898              	.LVL90:
 899 0072 DFE7     		b	.L40
 900              		.cfi_endproc
 901              	.LFE134:
 902              		.size	sduDataTransmitted, .-sduDataTransmitted
 903 0074 AFF30080 		.section	.text.sduDataReceived,"ax",%progbits
 903      AFF30080 
 903      AFF30080 
 904              		.align	2
 905              		.p2align 4,,15
 906              		.global	sduDataReceived
 907              		.thumb
 908              		.thumb_func
 909              		.type	sduDataReceived, %function
 910              	sduDataReceived:
 911              	.LFB135:
 912              		.loc 1 377 0
 913              		.cfi_startproc
 914              		@ args = 0, pretend = 0, frame = 0
 915              		@ frame_needed = 0, uses_anonymous_args = 0
 916              	.LVL91:
 917              		.loc 1 379 0
 918 0000 01F10903 		add	r3, r1, #9
 919              		.loc 1 377 0
 920 0004 70B5     		push	{r4, r5, r6, lr}
 921              		.cfi_def_cfa_offset 16
 922              		.cfi_offset 4, -16
 923              		.cfi_offset 5, -12
 924              		.cfi_offset 6, -8
 925              		.cfi_offset 14, -4
 926              		.loc 1 379 0
 927 0006 50F82340 		ldr	r4, [r0, r3, lsl #2]
 928              	.LVL92:
 929              		.loc 1 377 0
 930 000a 0D46     		mov	r5, r1
 931 000c 0646     		mov	r6, r0
 932              		.loc 1 381 0
 933 000e A4B1     		cbz	r4, .L50
 934              	.LBB17:
 935              		.loc 1 384 0
 936 0010 2023     		movs	r3, #32
 937              	@ 384 "../AithonLibrary/ChibiOS/os/hal/src/serial_usb.c" 1
 938 0012 83F31188 		msr     BASEPRI, r3
 939              	@ 0 "" 2
 940              		.thumb
 941              	.LBE17:
 942              		.loc 1 385 0
 943 0016 0421     		movs	r1, #4
 944              	.LVL93:
 945 0018 6018     		adds	r0, r4, r1
 946              	.LVL94:
 947 001a FFF7FEFF 		bl	chEvtBroadcastFlagsI
 948              	.LVL95:
ARM GAS  /tmp/ccvnUhOQ.s 			page 18


 949              		.loc 1 389 0
 950 001e 06EB8503 		add	r3, r6, r5, lsl #2
 951              		.loc 1 390 0
 952 0022 E069     		ldr	r0, [r4, #28]
 953              		.loc 1 389 0
 954 0024 DA68     		ldr	r2, [r3, #12]
 955              		.loc 1 390 0
 956 0026 A169     		ldr	r1, [r4, #24]
 957 0028 6369     		ldr	r3, [r4, #20]
 958              		.loc 1 389 0
 959 002a 528A     		ldrh	r2, [r2, #18]
 960              	.LVL96:
 961              		.loc 1 390 0
 962 002c 411A     		subs	r1, r0, r1
 963 002e C91A     		subs	r1, r1, r3
 964              	.LVL97:
 965 0030 8A42     		cmp	r2, r1
 966 0032 03D9     		bls	.L56
 967              	.LVL98:
 968              	.L52:
 969              	.LBB18:
 970              		.loc 1 402 0
 971 0034 0023     		movs	r3, #0
 972              	@ 402 "../AithonLibrary/ChibiOS/os/hal/src/serial_usb.c" 1
 973 0036 83F31188 		msr     BASEPRI, r3
 974              	@ 0 "" 2
 975              		.thumb
 976              	.L50:
 977 003a 70BD     		pop	{r4, r5, r6, pc}
 978              	.LVL99:
 979              	.L56:
 980              	.LBE18:
 981              	.LBB19:
 982              		.loc 1 393 0
 983 003c 0023     		movs	r3, #0
 984              	@ 393 "../AithonLibrary/ChibiOS/os/hal/src/serial_usb.c" 1
 985 003e 83F31188 		msr     BASEPRI, r3
 986              	@ 0 "" 2
 987              		.thumb
 988              	.LBE19:
 989              		.loc 1 395 0
 990 0042 B1FBF2F3 		udiv	r3, r1, r2
 991              	.LVL100:
 992              		.loc 1 396 0
 993 0046 02FB03F3 		mul	r3, r2, r3
 994              	.LVL101:
 995 004a 3046     		mov	r0, r6
 996 004c 04F10C02 		add	r2, r4, #12
 997              	.LVL102:
 998 0050 2946     		mov	r1, r5
 999 0052 FFF7FEFF 		bl	usbPrepareQueuedReceive
 1000              	.LVL103:
 1001              	.LBB20:
 1002              		.loc 1 398 0
 1003 0056 2023     		movs	r3, #32
 1004              	@ 398 "../AithonLibrary/ChibiOS/os/hal/src/serial_usb.c" 1
 1005 0058 83F31188 		msr     BASEPRI, r3
ARM GAS  /tmp/ccvnUhOQ.s 			page 19


 1006              	@ 0 "" 2
 1007              		.thumb
 1008              	.LBE20:
 1009              		.loc 1 399 0
 1010 005c 3046     		mov	r0, r6
 1011 005e 2946     		mov	r1, r5
 1012 0060 FFF7FEFF 		bl	usbStartReceiveI
 1013              	.LVL104:
 1014 0064 E6E7     		b	.L52
 1015              		.cfi_endproc
 1016              	.LFE135:
 1017              		.size	sduDataReceived, .-sduDataReceived
 1018 0066 00BFAFF3 		.section	.text.sduInterruptTransmitted,"ax",%progbits
 1018      0080AFF3 
 1018      0080
 1019              		.align	2
 1020              		.p2align 4,,15
 1021              		.global	sduInterruptTransmitted
 1022              		.thumb
 1023              		.thumb_func
 1024              		.type	sduInterruptTransmitted, %function
 1025              	sduInterruptTransmitted:
 1026              	.LFB136:
 1027              		.loc 1 413 0
 1028              		.cfi_startproc
 1029              		@ args = 0, pretend = 0, frame = 0
 1030              		@ frame_needed = 0, uses_anonymous_args = 0
 1031              		@ link register save eliminated.
 1032              	.LVL105:
 1033 0000 7047     		bx	lr
 1034              		.cfi_endproc
 1035              	.LFE136:
 1036              		.size	sduInterruptTransmitted, .-sduInterruptTransmitted
 1037 0002 00BFAFF3 		.section	.rodata.vmt,"a",%progbits
 1037      0080AFF3 
 1037      0080AFF3 
 1037      0080
 1038              		.align	2
 1039              		.set	.LANCHOR0,. + 0
 1040              		.type	vmt, %object
 1041              		.size	vmt, 32
 1042              	vmt:
 1043 0000 00000000 		.word	write
 1044 0004 00000000 		.word	read
 1045 0008 00000000 		.word	put
 1046 000c 00000000 		.word	get
 1047 0010 00000000 		.word	putt
 1048 0014 00000000 		.word	gett
 1049 0018 00000000 		.word	writet
 1050 001c 00000000 		.word	readt
 1051              		.section	.data.linecoding,"aw",%progbits
 1052              		.align	2
 1053              		.set	.LANCHOR1,. + 0
 1054              		.type	linecoding, %object
 1055              		.size	linecoding, 7
 1056              	linecoding:
 1057 0000 00       		.byte	0
ARM GAS  /tmp/ccvnUhOQ.s 			page 20


 1058 0001 96       		.byte	-106
 1059 0002 00       		.byte	0
 1060 0003 00       		.byte	0
 1061 0004 00       		.byte	0
 1062 0005 00       		.byte	0
 1063 0006 08       		.byte	8
 1064 0007 00       		.text
 1065              	.Letext0:
 1066              		.file 2 "/usr/lib/gcc/arm-none-eabi/4.8.3/include/stddef.h"
 1067              		.file 3 "/usr/arm-none-eabi/include/stdint.h"
 1068              		.file 4 "../AithonLibrary/ChibiOS/os/ports/GCC/ARMCMx/chtypes.h"
 1069              		.file 5 "../AithonLibrary/ChibiOS/os/kernel/include/chlists.h"
 1070              		.file 6 "../AithonLibrary/ChibiOS/os/kernel/include/chthreads.h"
 1071              		.file 7 "../AithonLibrary/ChibiOS/os/ports/GCC/ARMCMx/chcore_v7m.h"
 1072              		.file 8 "../AithonLibrary/ChibiOS/os/kernel/include/chmtx.h"
 1073              		.file 9 "../AithonLibrary/ChibiOS/os/kernel/include/chevents.h"
 1074              		.file 10 "../AithonLibrary/ChibiOS/os/kernel/include/chqueues.h"
 1075              		.file 11 "../AithonLibrary/ChibiOS/os/hal/include/usb.h"
 1076              		.file 12 "../AithonLibrary/ChibiOS/os/hal/platforms/STM32/OTGv1/usb_lld.h"
 1077              		.file 13 "../AithonLibrary/ChibiOS/os/hal/platforms/STM32/OTGv1/stm32_otg.h"
 1078              		.file 14 "../AithonLibrary/ChibiOS/os/hal/include/serial_usb.h"
 1079              		.file 15 "../AithonLibrary/ChibiOS/os/ports/common/ARMCMx/CMSIS/include/core_cm4.h"
 1080              		.file 16 "../AithonLibrary/ChibiOS/os/kernel/include/chschd.h"