ARM GAS  /tmp/ccVOA2uB.s 			page 1


   1              		.syntax unified
   2              		.cpu cortex-m4
   3              		.eabi_attribute 27, 3
   4              		.fpu fpv4-sp-d16
   5              		.eabi_attribute 20, 1
   6              		.eabi_attribute 21, 1
   7              		.eabi_attribute 23, 3
   8              		.eabi_attribute 24, 1
   9              		.eabi_attribute 25, 1
  10              		.eabi_attribute 26, 1
  11              		.eabi_attribute 30, 2
  12              		.eabi_attribute 34, 1
  13              		.eabi_attribute 18, 4
  14              		.thumb
  15              		.file	"serial_lld.c"
  16              		.text
  17              	.Ltext0:
  18              		.cfi_sections	.debug_frame
  19              		.section	.text.notify1,"ax",%progbits
  20              		.align	2
  21              		.p2align 4,,15
  22              		.thumb
  23              		.thumb_func
  24              		.type	notify1, %function
  25              	notify1:
  26              	.LFB122:
  27              		.file 1 "../AithonLibrary/ChibiOS/os/hal/platforms/STM32/USARTv1/serial_lld.c"
  28              		.loc 1 203 0
  29              		.cfi_startproc
  30              		@ args = 0, pretend = 0, frame = 0
  31              		@ frame_needed = 0, uses_anonymous_args = 0
  32              		@ link register save eliminated.
  33              	.LVL0:
  34              		.loc 1 206 0
  35 0000 034B     		ldr	r3, .L2
  36 0002 9A89     		ldrh	r2, [r3, #12]
  37 0004 92B2     		uxth	r2, r2
  38 0006 42F08002 		orr	r2, r2, #128
  39 000a 9A81     		strh	r2, [r3, #12]	@ movhi
  40 000c 7047     		bx	lr
  41              	.L3:
  42 000e 00BF     		.align	2
  43              	.L2:
  44 0010 00100140 		.word	1073811456
  45              		.cfi_endproc
  46              	.LFE122:
  47              		.size	notify1, .-notify1
  48 0014 AFF30080 		.section	.text.notify2,"ax",%progbits
  48      AFF30080 
  48      AFF30080 
  49              		.align	2
  50              		.p2align 4,,15
  51              		.thumb
  52              		.thumb_func
  53              		.type	notify2, %function
  54              	notify2:
  55              	.LFB123:
ARM GAS  /tmp/ccVOA2uB.s 			page 2


  56              		.loc 1 211 0
  57              		.cfi_startproc
  58              		@ args = 0, pretend = 0, frame = 0
  59              		@ frame_needed = 0, uses_anonymous_args = 0
  60              		@ link register save eliminated.
  61              	.LVL1:
  62              		.loc 1 214 0
  63 0000 034B     		ldr	r3, .L5
  64 0002 9A89     		ldrh	r2, [r3, #12]
  65 0004 92B2     		uxth	r2, r2
  66 0006 42F08002 		orr	r2, r2, #128
  67 000a 9A81     		strh	r2, [r3, #12]	@ movhi
  68 000c 7047     		bx	lr
  69              	.L6:
  70 000e 00BF     		.align	2
  71              	.L5:
  72 0010 00440040 		.word	1073759232
  73              		.cfi_endproc
  74              	.LFE123:
  75              		.size	notify2, .-notify2
  76 0014 AFF30080 		.section	.text.serve_interrupt,"ax",%progbits
  76      AFF30080 
  76      AFF30080 
  77              		.align	2
  78              		.p2align 4,,15
  79              		.thumb
  80              		.thumb_func
  81              		.type	serve_interrupt, %function
  82              	serve_interrupt:
  83              	.LFB121:
  84              		.loc 1 154 0
  85              		.cfi_startproc
  86              		@ args = 0, pretend = 0, frame = 0
  87              		@ frame_needed = 0, uses_anonymous_args = 0
  88              	.LVL2:
  89 0000 2DE9F041 		push	{r4, r5, r6, r7, r8, lr}
  90              		.cfi_def_cfa_offset 24
  91              		.cfi_offset 4, -24
  92              		.cfi_offset 5, -20
  93              		.cfi_offset 6, -16
  94              		.cfi_offset 7, -12
  95              		.cfi_offset 8, -8
  96              		.cfi_offset 14, -4
  97              		.loc 1 155 0
  98 0004 456F     		ldr	r5, [r0, #116]
  99              	.LVL3:
 100              		.loc 1 156 0
 101 0006 B5F80C80 		ldrh	r8, [r5, #12]
 102              		.loc 1 157 0
 103 000a 2C88     		ldrh	r4, [r5]
 104 000c A4B2     		uxth	r4, r4
 105              		.loc 1 154 0
 106 000e 0646     		mov	r6, r0
 107              		.loc 1 160 0
 108 0010 E005     		lsls	r0, r4, #23
 109              	.LVL4:
 110              		.loc 1 156 0
ARM GAS  /tmp/ccVOA2uB.s 			page 3


 111 0012 1FFA88F8 		uxth	r8, r8
 112              	.LVL5:
 113              		.loc 1 160 0
 114 0016 46D4     		bmi	.L52
 115              	.L8:
 116              	.LBB15:
 117              		.loc 1 168 0
 118 0018 2023     		movs	r3, #32
 119              	@ 168 "../AithonLibrary/ChibiOS/os/hal/platforms/STM32/USARTv1/serial_lld.c" 1
 120 001a 83F31188 		msr     BASEPRI, r3
 121              	@ 0 "" 2
 122              		.thumb
 123              	.LBE15:
 124              		.loc 1 169 0
 125 001e A106     		lsls	r1, r4, #26
 126 0020 22D5     		bpl	.L9
 127              	.LBB16:
 128              	.LBB17:
 129              		.loc 1 146 0
 130 0022 371D     		adds	r7, r6, #4
 131 0024 08E0     		b	.L15
 132              	.LVL6:
 133              	.L10:
 134              	.LBE17:
 135              	.LBE16:
 136              		.loc 1 173 0
 137 0026 A988     		ldrh	r1, [r5, #4]
 138 0028 3046     		mov	r0, r6
 139 002a C9B2     		uxtb	r1, r1
 140 002c FFF7FEFF 		bl	sdIncomingDataI
 141              	.LVL7:
 142              		.loc 1 174 0
 143 0030 2C88     		ldrh	r4, [r5]
 144 0032 A4B2     		uxth	r4, r4
 145              	.LVL8:
 146              		.loc 1 169 0
 147 0034 A106     		lsls	r1, r4, #26
 148 0036 17D5     		bpl	.L9
 149              	.LVL9:
 150              	.L15:
 151              		.loc 1 171 0
 152 0038 2207     		lsls	r2, r4, #28
 153 003a F4D0     		beq	.L10
 154              	.LVL10:
 155              	.LBB19:
 156              	.LBB18:
 157              		.loc 1 136 0
 158 003c 14F0080F 		tst	r4, #8
 159 0040 14BF     		ite	ne
 160 0042 8021     		movne	r1, #128
 161 0044 0021     		moveq	r1, #0
 162              	.LVL11:
 163              		.loc 1 140 0
 164 0046 14F0010F 		tst	r4, #1
 165              		.loc 1 141 0
 166 004a 18BF     		it	ne
 167 004c 41F02001 		orrne	r1, r1, #32
ARM GAS  /tmp/ccVOA2uB.s 			page 4


 168              	.LVL12:
 169              		.loc 1 142 0
 170 0050 A307     		lsls	r3, r4, #30
 171              		.loc 1 143 0
 172 0052 48BF     		it	mi
 173 0054 41F04001 		orrmi	r1, r1, #64
 174              	.LVL13:
 175              		.loc 1 144 0
 176 0058 6407     		lsls	r4, r4, #29
 177              	.LVL14:
 178              		.loc 1 146 0
 179 005a 3846     		mov	r0, r7
 180              		.loc 1 145 0
 181 005c 48BF     		it	mi
 182 005e 41F48071 		orrmi	r1, r1, #256
 183              	.LVL15:
 184              		.loc 1 146 0
 185 0062 FFF7FEFF 		bl	chEvtBroadcastFlagsI
 186              	.LVL16:
 187 0066 DEE7     		b	.L10
 188              	.L9:
 189              	.LBE18:
 190              	.LBE19:
 191              	.LBB20:
 192              		.loc 1 176 0
 193 0068 0023     		movs	r3, #0
 194              	@ 176 "../AithonLibrary/ChibiOS/os/hal/platforms/STM32/USARTv1/serial_lld.c" 1
 195 006a 83F31188 		msr     BASEPRI, r3
 196              	@ 0 "" 2
 197              		.thumb
 198              	.LBE20:
 199              		.loc 1 179 0
 200 006e 18F0800F 		tst	r8, #128
 201 0072 01D0     		beq	.L16
 202              		.loc 1 179 0 is_stmt 0 discriminator 1
 203 0074 2206     		lsls	r2, r4, #24
 204 0076 25D4     		bmi	.L53
 205              	.L16:
 206              		.loc 1 193 0 is_stmt 1
 207 0078 6306     		lsls	r3, r4, #25
 208 007a 12D5     		bpl	.L7
 209              	.LBB21:
 210              		.loc 1 194 0
 211 007c 2023     		movs	r3, #32
 212              	@ 194 "../AithonLibrary/ChibiOS/os/hal/platforms/STM32/USARTv1/serial_lld.c" 1
 213 007e 83F31188 		msr     BASEPRI, r3
 214              	@ 0 "" 2
 215              		.thumb
 216              	.LBE21:
 217              		.loc 1 195 0
 218 0082 1021     		movs	r1, #16
 219 0084 301D     		adds	r0, r6, #4
 220 0086 FFF7FEFF 		bl	chEvtBroadcastFlagsI
 221              	.LVL17:
 222              	.LBB22:
 223              		.loc 1 196 0
 224 008a 0023     		movs	r3, #0
ARM GAS  /tmp/ccVOA2uB.s 			page 5


 225              	@ 196 "../AithonLibrary/ChibiOS/os/hal/platforms/STM32/USARTv1/serial_lld.c" 1
 226 008c 83F31188 		msr     BASEPRI, r3
 227              	@ 0 "" 2
 228              		.thumb
 229              	.LBE22:
 230              		.loc 1 197 0
 231 0090 28F0C008 		bic	r8, r8, #192
 232              	.LVL18:
 233 0094 1FFA88F8 		uxth	r8, r8
 234              		.loc 1 198 0
 235 0098 4FF6BF73 		movw	r3, #65471
 236              		.loc 1 197 0
 237 009c A5F80C80 		strh	r8, [r5, #12]	@ movhi
 238              		.loc 1 198 0
 239 00a0 2B80     		strh	r3, [r5]	@ movhi
 240              	.L7:
 241 00a2 BDE8F081 		pop	{r4, r5, r6, r7, r8, pc}
 242              	.LVL19:
 243              	.L52:
 244              	.LBB23:
 245              		.loc 1 161 0
 246 00a6 2023     		movs	r3, #32
 247              	@ 161 "../AithonLibrary/ChibiOS/os/hal/platforms/STM32/USARTv1/serial_lld.c" 1
 248 00a8 83F31188 		msr     BASEPRI, r3
 249              	@ 0 "" 2
 250              		.thumb
 251              	.LBE23:
 252              		.loc 1 162 0
 253 00ac 4FF40071 		mov	r1, #512
 254 00b0 301D     		adds	r0, r6, #4
 255 00b2 FFF7FEFF 		bl	chEvtBroadcastFlagsI
 256              	.LVL20:
 257              	.LBB24:
 258              		.loc 1 163 0
 259 00b6 0023     		movs	r3, #0
 260              	@ 163 "../AithonLibrary/ChibiOS/os/hal/platforms/STM32/USARTv1/serial_lld.c" 1
 261 00b8 83F31188 		msr     BASEPRI, r3
 262              	@ 0 "" 2
 263              		.thumb
 264              	.LBE24:
 265              		.loc 1 164 0
 266 00bc 4FF6FF63 		movw	r3, #65279
 267 00c0 2B80     		strh	r3, [r5]	@ movhi
 268 00c2 A9E7     		b	.L8
 269              	.LVL21:
 270              	.L53:
 271              	.LBB25:
 272              	.LBB26:
 273              		.loc 1 181 0
 274 00c4 2023     		movs	r3, #32
 275              	@ 181 "../AithonLibrary/ChibiOS/os/hal/platforms/STM32/USARTv1/serial_lld.c" 1
 276 00c6 83F31188 		msr     BASEPRI, r3
 277              	@ 0 "" 2
 278              		.thumb
 279              	.LBE26:
 280              		.loc 1 182 0
 281 00ca 06F13000 		add	r0, r6, #48
ARM GAS  /tmp/ccVOA2uB.s 			page 6


 282 00ce FFF7FEFF 		bl	chOQGetI
 283              	.LVL22:
 284              		.loc 1 183 0
 285 00d2 0028     		cmp	r0, #0
 286 00d4 05DB     		blt	.L54
 287              		.loc 1 188 0
 288 00d6 80B2     		uxth	r0, r0
 289              	.LVL23:
 290 00d8 A880     		strh	r0, [r5, #4]	@ movhi
 291              	.L18:
 292              	.LBB27:
 293              		.loc 1 189 0
 294 00da 0023     		movs	r3, #0
 295              	@ 189 "../AithonLibrary/ChibiOS/os/hal/platforms/STM32/USARTv1/serial_lld.c" 1
 296 00dc 83F31188 		msr     BASEPRI, r3
 297              	@ 0 "" 2
 298              		.thumb
 299 00e0 CAE7     		b	.L16
 300              	.LVL24:
 301              	.L54:
 302              	.LBE27:
 303              		.loc 1 184 0
 304 00e2 301D     		adds	r0, r6, #4
 305              	.LVL25:
 306 00e4 0821     		movs	r1, #8
 307 00e6 FFF7FEFF 		bl	chEvtBroadcastFlagsI
 308              	.LVL26:
 309              		.loc 1 185 0
 310 00ea 28F0C003 		bic	r3, r8, #192
 311 00ee 43F04003 		orr	r3, r3, #64
 312 00f2 AB81     		strh	r3, [r5, #12]	@ movhi
 313 00f4 F1E7     		b	.L18
 314              	.LBE25:
 315              		.cfi_endproc
 316              	.LFE121:
 317              		.size	serve_interrupt, .-serve_interrupt
 318 00f6 00BFAFF3 		.section	.text.VectorD4,"ax",%progbits
 318      0080AFF3 
 318      0080
 319              		.align	2
 320              		.p2align 4,,15
 321              		.global	VectorD4
 322              		.thumb
 323              		.thumb_func
 324              		.type	VectorD4, %function
 325              	VectorD4:
 326              	.LFB124:
 327              		.loc 1 263 0
 328              		.cfi_startproc
 329              		@ args = 0, pretend = 0, frame = 0
 330              		@ frame_needed = 0, uses_anonymous_args = 0
 331 0000 08B5     		push	{r3, lr}
 332              		.cfi_def_cfa_offset 8
 333              		.cfi_offset 3, -8
 334              		.cfi_offset 14, -4
 335              		.loc 1 267 0
 336 0002 0348     		ldr	r0, .L56
ARM GAS  /tmp/ccVOA2uB.s 			page 7


 337 0004 FFF7FEFF 		bl	serve_interrupt
 338              	.LVL27:
 339              		.loc 1 270 0
 340 0008 BDE80840 		pop	{r3, lr}
 341              		.loc 1 269 0
 342 000c FFF7FEBF 		b	_port_irq_epilogue
 343              	.LVL28:
 344              	.L57:
 345              		.align	2
 346              	.L56:
 347 0010 00000000 		.word	.LANCHOR0
 348              		.cfi_endproc
 349              	.LFE124:
 350              		.size	VectorD4, .-VectorD4
 351 0014 AFF30080 		.section	.text.VectorD8,"ax",%progbits
 351      AFF30080 
 351      AFF30080 
 352              		.align	2
 353              		.p2align 4,,15
 354              		.global	VectorD8
 355              		.thumb
 356              		.thumb_func
 357              		.type	VectorD8, %function
 358              	VectorD8:
 359              	.LFB125:
 360              		.loc 1 282 0
 361              		.cfi_startproc
 362              		@ args = 0, pretend = 0, frame = 0
 363              		@ frame_needed = 0, uses_anonymous_args = 0
 364 0000 08B5     		push	{r3, lr}
 365              		.cfi_def_cfa_offset 8
 366              		.cfi_offset 3, -8
 367              		.cfi_offset 14, -4
 368              		.loc 1 286 0
 369 0002 0348     		ldr	r0, .L59
 370 0004 FFF7FEFF 		bl	serve_interrupt
 371              	.LVL29:
 372              		.loc 1 289 0
 373 0008 BDE80840 		pop	{r3, lr}
 374              		.loc 1 288 0
 375 000c FFF7FEBF 		b	_port_irq_epilogue
 376              	.LVL30:
 377              	.L60:
 378              		.align	2
 379              	.L59:
 380 0010 00000000 		.word	.LANCHOR1
 381              		.cfi_endproc
 382              	.LFE125:
 383              		.size	VectorD8, .-VectorD8
 384 0014 AFF30080 		.section	.text.sd_lld_init,"ax",%progbits
 384      AFF30080 
 384      AFF30080 
 385              		.align	2
 386              		.p2align 4,,15
 387              		.global	sd_lld_init
 388              		.thumb
 389              		.thumb_func
ARM GAS  /tmp/ccVOA2uB.s 			page 8


 390              		.type	sd_lld_init, %function
 391              	sd_lld_init:
 392              	.LFB126:
 393              		.loc 1 377 0
 394              		.cfi_startproc
 395              		@ args = 0, pretend = 0, frame = 0
 396              		@ frame_needed = 0, uses_anonymous_args = 0
 397 0000 38B5     		push	{r3, r4, r5, lr}
 398              		.cfi_def_cfa_offset 16
 399              		.cfi_offset 3, -16
 400              		.cfi_offset 4, -12
 401              		.cfi_offset 5, -8
 402              		.cfi_offset 14, -4
 403              		.loc 1 380 0
 404 0002 084D     		ldr	r5, .L62
 405              		.loc 1 385 0
 406 0004 084C     		ldr	r4, .L62+4
 407              		.loc 1 380 0
 408 0006 094A     		ldr	r2, .L62+8
 409 0008 2846     		mov	r0, r5
 410 000a 0021     		movs	r1, #0
 411 000c FFF7FEFF 		bl	sdObjectInit
 412              	.LVL31:
 413              		.loc 1 381 0
 414 0010 074B     		ldr	r3, .L62+12
 415              		.loc 1 385 0
 416 0012 084A     		ldr	r2, .L62+16
 417              		.loc 1 381 0
 418 0014 6B67     		str	r3, [r5, #116]
 419              		.loc 1 385 0
 420 0016 2046     		mov	r0, r4
 421 0018 0021     		movs	r1, #0
 422 001a FFF7FEFF 		bl	sdObjectInit
 423              	.LVL32:
 424              		.loc 1 386 0
 425 001e 064B     		ldr	r3, .L62+20
 426 0020 6367     		str	r3, [r4, #116]
 427 0022 38BD     		pop	{r3, r4, r5, pc}
 428              	.L63:
 429              		.align	2
 430              	.L62:
 431 0024 00000000 		.word	.LANCHOR0
 432 0028 00000000 		.word	.LANCHOR1
 433 002c 00000000 		.word	notify1
 434 0030 00100140 		.word	1073811456
 435 0034 00000000 		.word	notify2
 436 0038 00440040 		.word	1073759232
 437              		.cfi_endproc
 438              	.LFE126:
 439              		.size	sd_lld_init, .-sd_lld_init
 440 003c AFF30080 		.section	.text.sd_lld_start,"ax",%progbits
 441              		.align	2
 442              		.p2align 4,,15
 443              		.global	sd_lld_start
 444              		.thumb
 445              		.thumb_func
 446              		.type	sd_lld_start, %function
ARM GAS  /tmp/ccVOA2uB.s 			page 9


 447              	sd_lld_start:
 448              	.LFB127:
 449              		.loc 1 420 0
 450              		.cfi_startproc
 451              		@ args = 0, pretend = 0, frame = 0
 452              		@ frame_needed = 0, uses_anonymous_args = 0
 453              	.LVL33:
 454 0000 38B5     		push	{r3, r4, r5, lr}
 455              		.cfi_def_cfa_offset 16
 456              		.cfi_offset 3, -16
 457              		.cfi_offset 4, -12
 458              		.cfi_offset 5, -8
 459              		.cfi_offset 14, -4
 460              		.loc 1 423 0
 461 0002 264C     		ldr	r4, .L74
 462              		.loc 1 425 0
 463 0004 037A     		ldrb	r3, [r0, #8]	@ zero_extendqisi2
 464              		.loc 1 423 0
 465 0006 0029     		cmp	r1, #0
 466 0008 18BF     		it	ne
 467 000a 0C46     		movne	r4, r1
 468              	.LVL34:
 469              		.loc 1 425 0
 470 000c 012B     		cmp	r3, #1
 471              		.loc 1 420 0
 472 000e 0546     		mov	r5, r0
 473              		.loc 1 425 0
 474 0010 23D0     		beq	.L72
 475              	.LVL35:
 476              	.L66:
 477              		.loc 1 420 0
 478 0012 6B6F     		ldr	r3, [r5, #116]
 479              	.LVL36:
 480              	.LBB30:
 481              	.LBB31:
 482              		.loc 1 97 0
 483 0014 224A     		ldr	r2, .L74+4
 484 0016 9342     		cmp	r3, r2
 485 0018 2FD0     		beq	.L68
 486 001a 02F58062 		add	r2, r2, #1024
 487 001e 9342     		cmp	r3, r2
 488 0020 2BD0     		beq	.L68
 489              		.loc 1 103 0
 490 0022 2268     		ldr	r2, [r4]
 491 0024 1F49     		ldr	r1, .L74+8
 492 0026 B1FBF2F2 		udiv	r2, r1, r2
 493 002a 92B2     		uxth	r2, r2
 494 002c 1A81     		strh	r2, [r3, #8]	@ movhi
 495              	.L70:
 496              		.loc 1 108 0
 497 002e A288     		ldrh	r2, [r4, #4]
 498              		.loc 1 106 0
 499 0030 E188     		ldrh	r1, [r4, #6]
 500              		.loc 1 107 0
 501 0032 2089     		ldrh	r0, [r4, #8]
 502              		.loc 1 108 0
 503 0034 42F40452 		orr	r2, r2, #8448
ARM GAS  /tmp/ccVOA2uB.s 			page 10


 504              		.loc 1 106 0
 505 0038 41F04004 		orr	r4, r1, #64
 506              	.LVL37:
 507              		.loc 1 108 0
 508 003c 42F02C02 		orr	r2, r2, #44
 509              		.loc 1 107 0
 510 0040 40F00100 		orr	r0, r0, #1
 511              		.loc 1 108 0
 512 0044 92B2     		uxth	r2, r2
 513              		.loc 1 106 0
 514 0046 A4B2     		uxth	r4, r4
 515              		.loc 1 107 0
 516 0048 80B2     		uxth	r0, r0
 517              		.loc 1 111 0
 518 004a 0021     		movs	r1, #0
 519              		.loc 1 106 0
 520 004c 1C82     		strh	r4, [r3, #16]	@ movhi
 521              		.loc 1 107 0
 522 004e 9882     		strh	r0, [r3, #20]	@ movhi
 523              		.loc 1 108 0
 524 0050 9A81     		strh	r2, [r3, #12]	@ movhi
 525              		.loc 1 111 0
 526 0052 1980     		strh	r1, [r3]	@ movhi
 527              		.loc 1 112 0
 528 0054 1A88     		ldrh	r2, [r3]
 529              		.loc 1 113 0
 530 0056 9B88     		ldrh	r3, [r3, #4]
 531              	.LVL38:
 532 0058 38BD     		pop	{r3, r4, r5, pc}
 533              	.LVL39:
 534              	.L72:
 535              	.LBE31:
 536              	.LBE30:
 537              		.loc 1 427 0
 538 005a 134B     		ldr	r3, .L74+12
 539 005c 9842     		cmp	r0, r3
 540 005e 13D0     		beq	.L73
 541              		.loc 1 434 0
 542 0060 124B     		ldr	r3, .L74+16
 543 0062 9842     		cmp	r0, r3
 544 0064 D5D1     		bne	.L66
 545              		.loc 1 435 0
 546 0066 124B     		ldr	r3, .L74+20
 547 0068 1A6C     		ldr	r2, [r3, #64]
 548 006a 42F40032 		orr	r2, r2, #131072
 549 006e 1A64     		str	r2, [r3, #64]
 550              		.loc 1 436 0
 551 0070 2620     		movs	r0, #38
 552              	.LVL40:
 553 0072 C021     		movs	r1, #192
 554 0074 FFF7FEFF 		bl	nvicEnableVector
 555              	.LVL41:
 556 0078 CBE7     		b	.L66
 557              	.LVL42:
 558              	.L68:
 559              	.LBB33:
 560              	.LBB32:
ARM GAS  /tmp/ccVOA2uB.s 			page 11


 561              		.loc 1 101 0
 562 007a 2268     		ldr	r2, [r4]
 563 007c 0D49     		ldr	r1, .L74+24
 564 007e B1FBF2F2 		udiv	r2, r1, r2
 565 0082 92B2     		uxth	r2, r2
 566 0084 1A81     		strh	r2, [r3, #8]	@ movhi
 567 0086 D2E7     		b	.L70
 568              	.LVL43:
 569              	.L73:
 570              	.LBE32:
 571              	.LBE33:
 572              		.loc 1 428 0
 573 0088 094B     		ldr	r3, .L74+20
 574 008a 5A6C     		ldr	r2, [r3, #68]
 575 008c 42F01002 		orr	r2, r2, #16
 576 0090 5A64     		str	r2, [r3, #68]
 577              		.loc 1 429 0
 578 0092 2520     		movs	r0, #37
 579              	.LVL44:
 580 0094 C021     		movs	r1, #192
 581 0096 FFF7FEFF 		bl	nvicEnableVector
 582              	.LVL45:
 583 009a BAE7     		b	.L66
 584              	.L75:
 585              		.align	2
 586              	.L74:
 587 009c 00000000 		.word	.LANCHOR2
 588 00a0 00100140 		.word	1073811456
 589 00a4 80DE8002 		.word	42000000
 590 00a8 00000000 		.word	.LANCHOR0
 591 00ac 00000000 		.word	.LANCHOR1
 592 00b0 00380240 		.word	1073887232
 593 00b4 00BD0105 		.word	84000000
 594              		.cfi_endproc
 595              	.LFE127:
 596              		.size	sd_lld_start, .-sd_lld_start
 597 00b8 AFF30080 		.section	.text.sd_lld_stop,"ax",%progbits
 597      AFF30080 
 598              		.align	2
 599              		.p2align 4,,15
 600              		.global	sd_lld_stop
 601              		.thumb
 602              		.thumb_func
 603              		.type	sd_lld_stop, %function
 604              	sd_lld_stop:
 605              	.LFB128:
 606              		.loc 1 481 0
 607              		.cfi_startproc
 608              		@ args = 0, pretend = 0, frame = 0
 609              		@ frame_needed = 0, uses_anonymous_args = 0
 610              		@ link register save eliminated.
 611              	.LVL46:
 612              		.loc 1 483 0
 613 0000 037A     		ldrb	r3, [r0, #8]	@ zero_extendqisi2
 614 0002 022B     		cmp	r3, #2
 615 0004 00D0     		beq	.L81
 616              	.L76:
ARM GAS  /tmp/ccVOA2uB.s 			page 12


 617 0006 7047     		bx	lr
 618              	.L81:
 619              		.loc 1 486 0
 620 0008 0D49     		ldr	r1, .L83
 621              		.loc 1 484 0
 622 000a 436F     		ldr	r3, [r0, #116]
 623              	.LVL47:
 624              	.LBB34:
 625              	.LBB35:
 626              		.loc 1 124 0
 627 000c 0022     		movs	r2, #0
 628              	.LBE35:
 629              	.LBE34:
 630              		.loc 1 486 0
 631 000e 8842     		cmp	r0, r1
 632              	.LBB37:
 633              	.LBB36:
 634              		.loc 1 124 0
 635 0010 9A81     		strh	r2, [r3, #12]	@ movhi
 636              		.loc 1 125 0
 637 0012 1A82     		strh	r2, [r3, #16]	@ movhi
 638              		.loc 1 126 0
 639 0014 9A82     		strh	r2, [r3, #20]	@ movhi
 640              	.LBE36:
 641              	.LBE37:
 642              		.loc 1 486 0
 643 0016 0AD0     		beq	.L82
 644              		.loc 1 493 0
 645 0018 0A4B     		ldr	r3, .L83+4
 646              	.LVL48:
 647 001a 9842     		cmp	r0, r3
 648 001c F3D1     		bne	.L76
 649              		.loc 1 494 0
 650 001e 0A4B     		ldr	r3, .L83+8
 651 0020 1A6C     		ldr	r2, [r3, #64]
 652 0022 22F40032 		bic	r2, r2, #131072
 653 0026 1A64     		str	r2, [r3, #64]
 654              		.loc 1 495 0
 655 0028 2620     		movs	r0, #38
 656              	.LVL49:
 657 002a FFF7FEBF 		b	nvicDisableVector
 658              	.LVL50:
 659              	.L82:
 660              		.loc 1 487 0
 661 002e 064B     		ldr	r3, .L83+8
 662              	.LVL51:
 663 0030 5A6C     		ldr	r2, [r3, #68]
 664 0032 22F01002 		bic	r2, r2, #16
 665 0036 5A64     		str	r2, [r3, #68]
 666              		.loc 1 488 0
 667 0038 2520     		movs	r0, #37
 668              	.LVL52:
 669 003a FFF7FEBF 		b	nvicDisableVector
 670              	.LVL53:
 671              	.L84:
 672 003e 00BF     		.align	2
 673              	.L83:
ARM GAS  /tmp/ccVOA2uB.s 			page 13


 674 0040 00000000 		.word	.LANCHOR0
 675 0044 00000000 		.word	.LANCHOR1
 676 0048 00380240 		.word	1073887232
 677              		.cfi_endproc
 678              	.LFE128:
 679              		.size	sd_lld_stop, .-sd_lld_stop
 680              		.global	SD2
 681              		.global	SD1
 682 004c AFF30080 		.section	.rodata.default_config,"a",%progbits
 683              		.align	2
 684              		.set	.LANCHOR2,. + 0
 685              		.type	default_config, %object
 686              		.size	default_config, 12
 687              	default_config:
 688 0000 00C20100 		.word	115200
 689 0004 0000     		.short	0
 690 0006 0040     		.short	16384
 691 0008 0000     		.short	0
 692 000a 0000     		.space	2
 693              		.section	.bss.SD1,"aw",%nobits
 694              		.align	2
 695              		.set	.LANCHOR0,. + 0
 696              		.type	SD1, %object
 697              		.size	SD1, 120
 698              	SD1:
 699 0000 00000000 		.space	120
 699      00000000 
 699      00000000 
 699      00000000 
 699      00000000 
 700              		.section	.bss.SD2,"aw",%nobits
 701              		.align	2
 702              		.set	.LANCHOR1,. + 0
 703              		.type	SD2, %object
 704              		.size	SD2, 120
 705              	SD2:
 706 0000 00000000 		.space	120
 706      00000000 
 706      00000000 
 706      00000000 
 706      00000000 
 707              		.text
 708              	.Letext0:
 709              		.file 2 "/usr/lib/gcc/arm-none-eabi/4.8.3/include/stddef.h"
 710              		.file 3 "/usr/arm-none-eabi/include/stdint.h"
 711              		.file 4 "../AithonLibrary/ChibiOS/os/ports/GCC/ARMCMx/chtypes.h"
 712              		.file 5 "../AithonLibrary/ChibiOS/os/kernel/include/chlists.h"
 713              		.file 6 "../AithonLibrary/ChibiOS/os/kernel/include/chthreads.h"
 714              		.file 7 "../AithonLibrary/ChibiOS/os/ports/GCC/ARMCMx/chcore_v7m.h"
 715              		.file 8 "../AithonLibrary/ChibiOS/os/kernel/include/chmtx.h"
 716              		.file 9 "../AithonLibrary/ChibiOS/os/kernel/include/chevents.h"
 717              		.file 10 "../AithonLibrary/ChibiOS/os/kernel/include/chqueues.h"
 718              		.file 11 "../AithonLibrary/ChibiOS/os/hal/platforms/STM32F4xx/stm32f4xx.h"
 719              		.file 12 "../AithonLibrary/ChibiOS/os/hal/include/serial.h"
 720              		.file 13 "../AithonLibrary/ChibiOS/os/hal/platforms/STM32/USARTv1/serial_lld.h"
 721              		.file 14 "../AithonLibrary/ChibiOS/os/ports/common/ARMCMx/nvic.h"
 722              		.file 15 "../AithonLibrary/ChibiOS/os/ports/common/ARMCMx/CMSIS/include/core_cm4.h"
ARM GAS  /tmp/ccVOA2uB.s 			page 14


 723              		.section	.debug_info,"",%progbits
 724              	.Ldebug_info0:
 725 0000 65120000 		.4byte	0x1265
 726 0004 0400     		.2byte	0x4
 727 0006 00000000 		.4byte	.Ldebug_abbrev0
 728 000a 04       		.byte	0x4
 729 000b 01       		.uleb128 0x1
 730 000c 8A010000 		.4byte	.LASF244
 731 0010 01       		.byte	0x1
 732 0011 75090000 		.4byte	.LASF245
 733 0015 CC0A0000 		.4byte	.LASF246
 734 0019 48000000 		.4byte	.Ldebug_ranges0+0x48
 735 001d 00000000 		.4byte	0
 736 0021 00000000 		.4byte	.Ldebug_line0
 737 0025 02       		.uleb128 0x2
 738 0026 04       		.byte	0x4
 739 0027 05       		.byte	0x5
 740 0028 696E7400 		.ascii	"int\000"
 741 002c 03       		.uleb128 0x3
 742 002d 00000000 		.4byte	.LASF2
 743 0031 02       		.byte	0x2
 744 0032 D4       		.byte	0xd4
 745 0033 37000000 		.4byte	0x37
 746 0037 04       		.uleb128 0x4
 747 0038 04       		.byte	0x4
 748 0039 07       		.byte	0x7
 749 003a 5E070000 		.4byte	.LASF0
 750 003e 04       		.uleb128 0x4
 751 003f 01       		.byte	0x1
 752 0040 06       		.byte	0x6
 753 0041 59030000 		.4byte	.LASF1
 754 0045 03       		.uleb128 0x3
 755 0046 6F030000 		.4byte	.LASF3
 756 004a 03       		.byte	0x3
 757 004b 2A       		.byte	0x2a
 758 004c 50000000 		.4byte	0x50
 759 0050 04       		.uleb128 0x4
 760 0051 01       		.byte	0x1
 761 0052 08       		.byte	0x8
 762 0053 B1030000 		.4byte	.LASF4
 763 0057 04       		.uleb128 0x4
 764 0058 02       		.byte	0x2
 765 0059 05       		.byte	0x5
 766 005a 790A0000 		.4byte	.LASF5
 767 005e 03       		.uleb128 0x3
 768 005f 0F090000 		.4byte	.LASF6
 769 0063 03       		.byte	0x3
 770 0064 36       		.byte	0x36
 771 0065 69000000 		.4byte	0x69
 772 0069 04       		.uleb128 0x4
 773 006a 02       		.byte	0x2
 774 006b 07       		.byte	0x7
 775 006c 8F0B0000 		.4byte	.LASF7
 776 0070 03       		.uleb128 0x3
 777 0071 51000000 		.4byte	.LASF8
 778 0075 03       		.byte	0x3
 779 0076 4F       		.byte	0x4f
ARM GAS  /tmp/ccVOA2uB.s 			page 15


 780 0077 7B000000 		.4byte	0x7b
 781 007b 04       		.uleb128 0x4
 782 007c 04       		.byte	0x4
 783 007d 05       		.byte	0x5
 784 007e A5020000 		.4byte	.LASF9
 785 0082 03       		.uleb128 0x3
 786 0083 380B0000 		.4byte	.LASF10
 787 0087 03       		.byte	0x3
 788 0088 50       		.byte	0x50
 789 0089 8D000000 		.4byte	0x8d
 790 008d 04       		.uleb128 0x4
 791 008e 04       		.byte	0x4
 792 008f 07       		.byte	0x7
 793 0090 B7050000 		.4byte	.LASF11
 794 0094 04       		.uleb128 0x4
 795 0095 08       		.byte	0x8
 796 0096 05       		.byte	0x5
 797 0097 97060000 		.4byte	.LASF12
 798 009b 04       		.uleb128 0x4
 799 009c 08       		.byte	0x8
 800 009d 07       		.byte	0x7
 801 009e F0080000 		.4byte	.LASF13
 802 00a2 04       		.uleb128 0x4
 803 00a3 01       		.byte	0x1
 804 00a4 02       		.byte	0x2
 805 00a5 1B040000 		.4byte	.LASF14
 806 00a9 03       		.uleb128 0x3
 807 00aa E5090000 		.4byte	.LASF15
 808 00ae 04       		.byte	0x4
 809 00af 2C       		.byte	0x2c
 810 00b0 45000000 		.4byte	0x45
 811 00b4 03       		.uleb128 0x3
 812 00b5 E5020000 		.4byte	.LASF16
 813 00b9 04       		.byte	0x4
 814 00ba 2D       		.byte	0x2d
 815 00bb 45000000 		.4byte	0x45
 816 00bf 03       		.uleb128 0x3
 817 00c0 EF0A0000 		.4byte	.LASF17
 818 00c4 04       		.byte	0x4
 819 00c5 2E       		.byte	0x2e
 820 00c6 45000000 		.4byte	0x45
 821 00ca 03       		.uleb128 0x3
 822 00cb 3F090000 		.4byte	.LASF18
 823 00cf 04       		.byte	0x4
 824 00d0 2F       		.byte	0x2f
 825 00d1 45000000 		.4byte	0x45
 826 00d5 03       		.uleb128 0x3
 827 00d6 3E000000 		.4byte	.LASF19
 828 00da 04       		.byte	0x4
 829 00db 30       		.byte	0x30
 830 00dc 82000000 		.4byte	0x82
 831 00e0 03       		.uleb128 0x3
 832 00e1 18090000 		.4byte	.LASF20
 833 00e5 04       		.byte	0x4
 834 00e6 31       		.byte	0x31
 835 00e7 70000000 		.4byte	0x70
 836 00eb 03       		.uleb128 0x3
ARM GAS  /tmp/ccVOA2uB.s 			page 16


 837 00ec 77030000 		.4byte	.LASF21
 838 00f0 04       		.byte	0x4
 839 00f1 33       		.byte	0x33
 840 00f2 82000000 		.4byte	0x82
 841 00f6 03       		.uleb128 0x3
 842 00f7 E4070000 		.4byte	.LASF22
 843 00fb 04       		.byte	0x4
 844 00fc 34       		.byte	0x34
 845 00fd 82000000 		.4byte	0x82
 846 0101 03       		.uleb128 0x3
 847 0102 23000000 		.4byte	.LASF23
 848 0106 04       		.byte	0x4
 849 0107 35       		.byte	0x35
 850 0108 82000000 		.4byte	0x82
 851 010c 03       		.uleb128 0x3
 852 010d A50A0000 		.4byte	.LASF24
 853 0111 05       		.byte	0x5
 854 0112 2A       		.byte	0x2a
 855 0113 17010000 		.4byte	0x117
 856 0117 05       		.uleb128 0x5
 857 0118 A50A0000 		.4byte	.LASF24
 858 011c 48       		.byte	0x48
 859 011d 06       		.byte	0x6
 860 011e 5E       		.byte	0x5e
 861 011f 14020000 		.4byte	0x214
 862 0123 06       		.uleb128 0x6
 863 0124 AE020000 		.4byte	.LASF25
 864 0128 06       		.byte	0x6
 865 0129 5F       		.byte	0x5f
 866 012a 35020000 		.4byte	0x235
 867 012e 00       		.byte	0
 868 012f 06       		.uleb128 0x6
 869 0130 BD020000 		.4byte	.LASF26
 870 0134 06       		.byte	0x6
 871 0135 61       		.byte	0x61
 872 0136 35020000 		.4byte	0x235
 873 013a 04       		.byte	0x4
 874 013b 06       		.uleb128 0x6
 875 013c 5E040000 		.4byte	.LASF27
 876 0140 06       		.byte	0x6
 877 0141 63       		.byte	0x63
 878 0142 D5000000 		.4byte	0xd5
 879 0146 08       		.byte	0x8
 880 0147 06       		.uleb128 0x6
 881 0148 38000000 		.4byte	.LASF28
 882 014c 06       		.byte	0x6
 883 014d 64       		.byte	0x64
 884 014e BF030000 		.4byte	0x3bf
 885 0152 0C       		.byte	0xc
 886 0153 06       		.uleb128 0x6
 887 0154 250C0000 		.4byte	.LASF29
 888 0158 06       		.byte	0x6
 889 0159 66       		.byte	0x66
 890 015a 35020000 		.4byte	0x235
 891 015e 10       		.byte	0x10
 892 015f 06       		.uleb128 0x6
 893 0160 07090000 		.4byte	.LASF30
ARM GAS  /tmp/ccVOA2uB.s 			page 17


 894 0164 06       		.byte	0x6
 895 0165 67       		.byte	0x67
 896 0166 35020000 		.4byte	0x235
 897 016a 14       		.byte	0x14
 898 016b 06       		.uleb128 0x6
 899 016c 2D0C0000 		.4byte	.LASF31
 900 0170 06       		.byte	0x6
 901 0171 6E       		.byte	0x6e
 902 0172 DA040000 		.4byte	0x4da
 903 0176 18       		.byte	0x18
 904 0177 06       		.uleb128 0x6
 905 0178 670C0000 		.4byte	.LASF32
 906 017c 06       		.byte	0x6
 907 017d 79       		.byte	0x79
 908 017e B4000000 		.4byte	0xb4
 909 0182 1C       		.byte	0x1c
 910 0183 06       		.uleb128 0x6
 911 0184 51070000 		.4byte	.LASF33
 912 0188 06       		.byte	0x6
 913 0189 7D       		.byte	0x7d
 914 018a A9000000 		.4byte	0xa9
 915 018e 1D       		.byte	0x1d
 916 018f 06       		.uleb128 0x6
 917 0190 99070000 		.4byte	.LASF34
 918 0194 06       		.byte	0x6
 919 0195 82       		.byte	0x82
 920 0196 BF000000 		.4byte	0xbf
 921 019a 1E       		.byte	0x1e
 922 019b 06       		.uleb128 0x6
 923 019c 65030000 		.4byte	.LASF35
 924 01a0 06       		.byte	0x6
 925 01a1 88       		.byte	0x88
 926 01a2 CA000000 		.4byte	0xca
 927 01a6 1F       		.byte	0x1f
 928 01a7 06       		.uleb128 0x6
 929 01a8 0F080000 		.4byte	.LASF36
 930 01ac 06       		.byte	0x6
 931 01ad 8F       		.byte	0x8f
 932 01ae EC030000 		.4byte	0x3ec
 933 01b2 20       		.byte	0x20
 934 01b3 07       		.uleb128 0x7
 935 01b4 705F7500 		.ascii	"p_u\000"
 936 01b8 06       		.byte	0x6
 937 01b9 B4       		.byte	0xb4
 938 01ba A5040000 		.4byte	0x4a5
 939 01be 24       		.byte	0x24
 940 01bf 06       		.uleb128 0x6
 941 01c0 1E070000 		.4byte	.LASF37
 942 01c4 06       		.byte	0x6
 943 01c5 B9       		.byte	0xb9
 944 01c6 5B020000 		.4byte	0x25b
 945 01ca 28       		.byte	0x28
 946 01cb 06       		.uleb128 0x6
 947 01cc 46000000 		.4byte	.LASF38
 948 01d0 06       		.byte	0x6
 949 01d1 BF       		.byte	0xbf
 950 01d2 3B020000 		.4byte	0x23b
ARM GAS  /tmp/ccVOA2uB.s 			page 18


 951 01d6 2C       		.byte	0x2c
 952 01d7 06       		.uleb128 0x6
 953 01d8 550C0000 		.4byte	.LASF39
 954 01dc 06       		.byte	0x6
 955 01dd C3       		.byte	0xc3
 956 01de E0000000 		.4byte	0xe0
 957 01e2 34       		.byte	0x34
 958 01e3 06       		.uleb128 0x6
 959 01e4 02050000 		.4byte	.LASF40
 960 01e8 06       		.byte	0x6
 961 01e9 C9       		.byte	0xc9
 962 01ea EB000000 		.4byte	0xeb
 963 01ee 38       		.byte	0x38
 964 01ef 06       		.uleb128 0x6
 965 01f0 EE020000 		.4byte	.LASF41
 966 01f4 06       		.byte	0x6
 967 01f5 D0       		.byte	0xd0
 968 01f6 EC040000 		.4byte	0x4ec
 969 01fa 3C       		.byte	0x3c
 970 01fb 06       		.uleb128 0x6
 971 01fc 5D080000 		.4byte	.LASF42
 972 0200 06       		.byte	0x6
 973 0201 D4       		.byte	0xd4
 974 0202 D5000000 		.4byte	0xd5
 975 0206 40       		.byte	0x40
 976 0207 06       		.uleb128 0x6
 977 0208 84070000 		.4byte	.LASF43
 978 020c 06       		.byte	0x6
 979 020d DA       		.byte	0xda
 980 020e 71020000 		.4byte	0x271
 981 0212 44       		.byte	0x44
 982 0213 00       		.byte	0
 983 0214 08       		.uleb128 0x8
 984 0215 08       		.byte	0x8
 985 0216 05       		.byte	0x5
 986 0217 61       		.byte	0x61
 987 0218 35020000 		.4byte	0x235
 988 021c 06       		.uleb128 0x6
 989 021d AE020000 		.4byte	.LASF25
 990 0221 05       		.byte	0x5
 991 0222 62       		.byte	0x62
 992 0223 35020000 		.4byte	0x235
 993 0227 00       		.byte	0
 994 0228 06       		.uleb128 0x6
 995 0229 BD020000 		.4byte	.LASF26
 996 022d 05       		.byte	0x5
 997 022e 64       		.byte	0x64
 998 022f 35020000 		.4byte	0x235
 999 0233 04       		.byte	0x4
 1000 0234 00       		.byte	0
 1001 0235 09       		.uleb128 0x9
 1002 0236 04       		.byte	0x4
 1003 0237 0C010000 		.4byte	0x10c
 1004 023b 03       		.uleb128 0x3
 1005 023c 580B0000 		.4byte	.LASF44
 1006 0240 05       		.byte	0x5
 1007 0241 66       		.byte	0x66
ARM GAS  /tmp/ccVOA2uB.s 			page 19


 1008 0242 14020000 		.4byte	0x214
 1009 0246 08       		.uleb128 0x8
 1010 0247 04       		.byte	0x4
 1011 0248 05       		.byte	0x5
 1012 0249 6B       		.byte	0x6b
 1013 024a 5B020000 		.4byte	0x25b
 1014 024e 06       		.uleb128 0x6
 1015 024f AE020000 		.4byte	.LASF25
 1016 0253 05       		.byte	0x5
 1017 0254 6D       		.byte	0x6d
 1018 0255 35020000 		.4byte	0x235
 1019 0259 00       		.byte	0
 1020 025a 00       		.byte	0
 1021 025b 03       		.uleb128 0x3
 1022 025c BC070000 		.4byte	.LASF45
 1023 0260 05       		.byte	0x5
 1024 0261 70       		.byte	0x70
 1025 0262 46020000 		.4byte	0x246
 1026 0266 03       		.uleb128 0x3
 1027 0267 17030000 		.4byte	.LASF46
 1028 026b 07       		.byte	0x7
 1029 026c E5       		.byte	0xe5
 1030 026d 71020000 		.4byte	0x271
 1031 0271 0A       		.uleb128 0xa
 1032 0272 04       		.byte	0x4
 1033 0273 0B       		.uleb128 0xb
 1034 0274 F5040000 		.4byte	.LASF47
 1035 0278 64       		.byte	0x64
 1036 0279 07       		.byte	0x7
 1037 027a 0C01     		.2byte	0x10c
 1038 027c BF030000 		.4byte	0x3bf
 1039 0280 0C       		.uleb128 0xc
 1040 0281 73313600 		.ascii	"s16\000"
 1041 0285 07       		.byte	0x7
 1042 0286 0E01     		.2byte	0x10e
 1043 0288 66020000 		.4byte	0x266
 1044 028c 00       		.byte	0
 1045 028d 0C       		.uleb128 0xc
 1046 028e 73313700 		.ascii	"s17\000"
 1047 0292 07       		.byte	0x7
 1048 0293 0F01     		.2byte	0x10f
 1049 0295 66020000 		.4byte	0x266
 1050 0299 04       		.byte	0x4
 1051 029a 0C       		.uleb128 0xc
 1052 029b 73313800 		.ascii	"s18\000"
 1053 029f 07       		.byte	0x7
 1054 02a0 1001     		.2byte	0x110
 1055 02a2 66020000 		.4byte	0x266
 1056 02a6 08       		.byte	0x8
 1057 02a7 0C       		.uleb128 0xc
 1058 02a8 73313900 		.ascii	"s19\000"
 1059 02ac 07       		.byte	0x7
 1060 02ad 1101     		.2byte	0x111
 1061 02af 66020000 		.4byte	0x266
 1062 02b3 0C       		.byte	0xc
 1063 02b4 0C       		.uleb128 0xc
 1064 02b5 73323000 		.ascii	"s20\000"
ARM GAS  /tmp/ccVOA2uB.s 			page 20


 1065 02b9 07       		.byte	0x7
 1066 02ba 1201     		.2byte	0x112
 1067 02bc 66020000 		.4byte	0x266
 1068 02c0 10       		.byte	0x10
 1069 02c1 0C       		.uleb128 0xc
 1070 02c2 73323100 		.ascii	"s21\000"
 1071 02c6 07       		.byte	0x7
 1072 02c7 1301     		.2byte	0x113
 1073 02c9 66020000 		.4byte	0x266
 1074 02cd 14       		.byte	0x14
 1075 02ce 0C       		.uleb128 0xc
 1076 02cf 73323200 		.ascii	"s22\000"
 1077 02d3 07       		.byte	0x7
 1078 02d4 1401     		.2byte	0x114
 1079 02d6 66020000 		.4byte	0x266
 1080 02da 18       		.byte	0x18
 1081 02db 0C       		.uleb128 0xc
 1082 02dc 73323300 		.ascii	"s23\000"
 1083 02e0 07       		.byte	0x7
 1084 02e1 1501     		.2byte	0x115
 1085 02e3 66020000 		.4byte	0x266
 1086 02e7 1C       		.byte	0x1c
 1087 02e8 0C       		.uleb128 0xc
 1088 02e9 73323400 		.ascii	"s24\000"
 1089 02ed 07       		.byte	0x7
 1090 02ee 1601     		.2byte	0x116
 1091 02f0 66020000 		.4byte	0x266
 1092 02f4 20       		.byte	0x20
 1093 02f5 0C       		.uleb128 0xc
 1094 02f6 73323500 		.ascii	"s25\000"
 1095 02fa 07       		.byte	0x7
 1096 02fb 1701     		.2byte	0x117
 1097 02fd 66020000 		.4byte	0x266
 1098 0301 24       		.byte	0x24
 1099 0302 0C       		.uleb128 0xc
 1100 0303 73323600 		.ascii	"s26\000"
 1101 0307 07       		.byte	0x7
 1102 0308 1801     		.2byte	0x118
 1103 030a 66020000 		.4byte	0x266
 1104 030e 28       		.byte	0x28
 1105 030f 0C       		.uleb128 0xc
 1106 0310 73323700 		.ascii	"s27\000"
 1107 0314 07       		.byte	0x7
 1108 0315 1901     		.2byte	0x119
 1109 0317 66020000 		.4byte	0x266
 1110 031b 2C       		.byte	0x2c
 1111 031c 0C       		.uleb128 0xc
 1112 031d 73323800 		.ascii	"s28\000"
 1113 0321 07       		.byte	0x7
 1114 0322 1A01     		.2byte	0x11a
 1115 0324 66020000 		.4byte	0x266
 1116 0328 30       		.byte	0x30
 1117 0329 0C       		.uleb128 0xc
 1118 032a 73323900 		.ascii	"s29\000"
 1119 032e 07       		.byte	0x7
 1120 032f 1B01     		.2byte	0x11b
 1121 0331 66020000 		.4byte	0x266
ARM GAS  /tmp/ccVOA2uB.s 			page 21


 1122 0335 34       		.byte	0x34
 1123 0336 0C       		.uleb128 0xc
 1124 0337 73333000 		.ascii	"s30\000"
 1125 033b 07       		.byte	0x7
 1126 033c 1C01     		.2byte	0x11c
 1127 033e 66020000 		.4byte	0x266
 1128 0342 38       		.byte	0x38
 1129 0343 0C       		.uleb128 0xc
 1130 0344 73333100 		.ascii	"s31\000"
 1131 0348 07       		.byte	0x7
 1132 0349 1D01     		.2byte	0x11d
 1133 034b 66020000 		.4byte	0x266
 1134 034f 3C       		.byte	0x3c
 1135 0350 0C       		.uleb128 0xc
 1136 0351 723400   		.ascii	"r4\000"
 1137 0354 07       		.byte	0x7
 1138 0355 1F01     		.2byte	0x11f
 1139 0357 66020000 		.4byte	0x266
 1140 035b 40       		.byte	0x40
 1141 035c 0C       		.uleb128 0xc
 1142 035d 723500   		.ascii	"r5\000"
 1143 0360 07       		.byte	0x7
 1144 0361 2001     		.2byte	0x120
 1145 0363 66020000 		.4byte	0x266
 1146 0367 44       		.byte	0x44
 1147 0368 0C       		.uleb128 0xc
 1148 0369 723600   		.ascii	"r6\000"
 1149 036c 07       		.byte	0x7
 1150 036d 2101     		.2byte	0x121
 1151 036f 66020000 		.4byte	0x266
 1152 0373 48       		.byte	0x48
 1153 0374 0C       		.uleb128 0xc
 1154 0375 723700   		.ascii	"r7\000"
 1155 0378 07       		.byte	0x7
 1156 0379 2201     		.2byte	0x122
 1157 037b 66020000 		.4byte	0x266
 1158 037f 4C       		.byte	0x4c
 1159 0380 0C       		.uleb128 0xc
 1160 0381 723800   		.ascii	"r8\000"
 1161 0384 07       		.byte	0x7
 1162 0385 2301     		.2byte	0x123
 1163 0387 66020000 		.4byte	0x266
 1164 038b 50       		.byte	0x50
 1165 038c 0C       		.uleb128 0xc
 1166 038d 723900   		.ascii	"r9\000"
 1167 0390 07       		.byte	0x7
 1168 0391 2401     		.2byte	0x124
 1169 0393 66020000 		.4byte	0x266
 1170 0397 54       		.byte	0x54
 1171 0398 0C       		.uleb128 0xc
 1172 0399 72313000 		.ascii	"r10\000"
 1173 039d 07       		.byte	0x7
 1174 039e 2501     		.2byte	0x125
 1175 03a0 66020000 		.4byte	0x266
 1176 03a4 58       		.byte	0x58
 1177 03a5 0C       		.uleb128 0xc
 1178 03a6 72313100 		.ascii	"r11\000"
ARM GAS  /tmp/ccVOA2uB.s 			page 22


 1179 03aa 07       		.byte	0x7
 1180 03ab 2601     		.2byte	0x126
 1181 03ad 66020000 		.4byte	0x266
 1182 03b1 5C       		.byte	0x5c
 1183 03b2 0C       		.uleb128 0xc
 1184 03b3 6C7200   		.ascii	"lr\000"
 1185 03b6 07       		.byte	0x7
 1186 03b7 2701     		.2byte	0x127
 1187 03b9 66020000 		.4byte	0x266
 1188 03bd 60       		.byte	0x60
 1189 03be 00       		.byte	0
 1190 03bf 0B       		.uleb128 0xb
 1191 03c0 83030000 		.4byte	.LASF48
 1192 03c4 04       		.byte	0x4
 1193 03c5 07       		.byte	0x7
 1194 03c6 3101     		.2byte	0x131
 1195 03c8 DA030000 		.4byte	0x3da
 1196 03cc 0C       		.uleb128 0xc
 1197 03cd 72313300 		.ascii	"r13\000"
 1198 03d1 07       		.byte	0x7
 1199 03d2 3201     		.2byte	0x132
 1200 03d4 DA030000 		.4byte	0x3da
 1201 03d8 00       		.byte	0
 1202 03d9 00       		.byte	0
 1203 03da 09       		.uleb128 0x9
 1204 03db 04       		.byte	0x4
 1205 03dc 73020000 		.4byte	0x273
 1206 03e0 0D       		.uleb128 0xd
 1207 03e1 82000000 		.4byte	0x82
 1208 03e5 04       		.uleb128 0x4
 1209 03e6 04       		.byte	0x4
 1210 03e7 07       		.byte	0x7
 1211 03e8 1A000000 		.4byte	.LASF49
 1212 03ec 0D       		.uleb128 0xd
 1213 03ed 01010000 		.4byte	0x101
 1214 03f1 05       		.uleb128 0x5
 1215 03f2 77060000 		.4byte	.LASF50
 1216 03f6 10       		.byte	0x10
 1217 03f7 08       		.byte	0x8
 1218 03f8 2C       		.byte	0x2c
 1219 03f9 22040000 		.4byte	0x422
 1220 03fd 06       		.uleb128 0x6
 1221 03fe C9060000 		.4byte	.LASF51
 1222 0402 08       		.byte	0x8
 1223 0403 2D       		.byte	0x2d
 1224 0404 3B020000 		.4byte	0x23b
 1225 0408 00       		.byte	0
 1226 0409 06       		.uleb128 0x6
 1227 040a 0B010000 		.4byte	.LASF52
 1228 040e 08       		.byte	0x8
 1229 040f 2F       		.byte	0x2f
 1230 0410 35020000 		.4byte	0x235
 1231 0414 08       		.byte	0x8
 1232 0415 06       		.uleb128 0x6
 1233 0416 340C0000 		.4byte	.LASF53
 1234 041a 08       		.byte	0x8
 1235 041b 31       		.byte	0x31
ARM GAS  /tmp/ccVOA2uB.s 			page 23


 1236 041c 22040000 		.4byte	0x422
 1237 0420 0C       		.byte	0xc
 1238 0421 00       		.byte	0
 1239 0422 09       		.uleb128 0x9
 1240 0423 04       		.byte	0x4
 1241 0424 F1030000 		.4byte	0x3f1
 1242 0428 03       		.uleb128 0x3
 1243 0429 77060000 		.4byte	.LASF50
 1244 042d 08       		.byte	0x8
 1245 042e 33       		.byte	0x33
 1246 042f F1030000 		.4byte	0x3f1
 1247 0433 03       		.uleb128 0x3
 1248 0434 190B0000 		.4byte	.LASF54
 1249 0438 09       		.byte	0x9
 1250 0439 2C       		.byte	0x2c
 1251 043a 3E040000 		.4byte	0x43e
 1252 043e 05       		.uleb128 0x5
 1253 043f 190B0000 		.4byte	.LASF54
 1254 0443 10       		.byte	0x10
 1255 0444 09       		.byte	0x9
 1256 0445 31       		.byte	0x31
 1257 0446 7B040000 		.4byte	0x47b
 1258 044a 06       		.uleb128 0x6
 1259 044b FD050000 		.4byte	.LASF55
 1260 044f 09       		.byte	0x9
 1261 0450 32       		.byte	0x32
 1262 0451 7B040000 		.4byte	0x47b
 1263 0455 00       		.byte	0
 1264 0456 06       		.uleb128 0x6
 1265 0457 5B0C0000 		.4byte	.LASF56
 1266 045b 09       		.byte	0x9
 1267 045c 35       		.byte	0x35
 1268 045d 35020000 		.4byte	0x235
 1269 0461 04       		.byte	0x4
 1270 0462 06       		.uleb128 0x6
 1271 0463 1D0C0000 		.4byte	.LASF57
 1272 0467 09       		.byte	0x9
 1273 0468 37       		.byte	0x37
 1274 0469 EB000000 		.4byte	0xeb
 1275 046d 08       		.byte	0x8
 1276 046e 06       		.uleb128 0x6
 1277 046f B2000000 		.4byte	.LASF58
 1278 0473 09       		.byte	0x9
 1279 0474 3A       		.byte	0x3a
 1280 0475 F6000000 		.4byte	0xf6
 1281 0479 0C       		.byte	0xc
 1282 047a 00       		.byte	0
 1283 047b 09       		.uleb128 0x9
 1284 047c 04       		.byte	0x4
 1285 047d 33040000 		.4byte	0x433
 1286 0481 05       		.uleb128 0x5
 1287 0482 A1050000 		.4byte	.LASF59
 1288 0486 04       		.byte	0x4
 1289 0487 09       		.byte	0x9
 1290 0488 41       		.byte	0x41
 1291 0489 9A040000 		.4byte	0x49a
 1292 048d 06       		.uleb128 0x6
ARM GAS  /tmp/ccVOA2uB.s 			page 24


 1293 048e 6F050000 		.4byte	.LASF60
 1294 0492 09       		.byte	0x9
 1295 0493 42       		.byte	0x42
 1296 0494 7B040000 		.4byte	0x47b
 1297 0498 00       		.byte	0
 1298 0499 00       		.byte	0
 1299 049a 03       		.uleb128 0x3
 1300 049b A1050000 		.4byte	.LASF59
 1301 049f 09       		.byte	0x9
 1302 04a0 45       		.byte	0x45
 1303 04a1 81040000 		.4byte	0x481
 1304 04a5 0E       		.uleb128 0xe
 1305 04a6 04       		.byte	0x4
 1306 04a7 06       		.byte	0x6
 1307 04a8 96       		.byte	0x96
 1308 04a9 DA040000 		.4byte	0x4da
 1309 04ad 0F       		.uleb128 0xf
 1310 04ae 7D0B0000 		.4byte	.LASF61
 1311 04b2 06       		.byte	0x6
 1312 04b3 9D       		.byte	0x9d
 1313 04b4 E0000000 		.4byte	0xe0
 1314 04b8 0F       		.uleb128 0xf
 1315 04b9 13010000 		.4byte	.LASF62
 1316 04bd 06       		.byte	0x6
 1317 04be A4       		.byte	0xa4
 1318 04bf E0000000 		.4byte	0xe0
 1319 04c3 0F       		.uleb128 0xf
 1320 04c4 7A040000 		.4byte	.LASF63
 1321 04c8 06       		.byte	0x6
 1322 04c9 AB       		.byte	0xab
 1323 04ca 71020000 		.4byte	0x271
 1324 04ce 0F       		.uleb128 0xf
 1325 04cf 33010000 		.4byte	.LASF64
 1326 04d3 06       		.byte	0x6
 1327 04d4 B2       		.byte	0xb2
 1328 04d5 EB000000 		.4byte	0xeb
 1329 04d9 00       		.byte	0
 1330 04da 09       		.uleb128 0x9
 1331 04db 04       		.byte	0x4
 1332 04dc E0040000 		.4byte	0x4e0
 1333 04e0 10       		.uleb128 0x10
 1334 04e1 E5040000 		.4byte	0x4e5
 1335 04e5 04       		.uleb128 0x4
 1336 04e6 01       		.byte	0x1
 1337 04e7 08       		.byte	0x8
 1338 04e8 59040000 		.4byte	.LASF65
 1339 04ec 09       		.uleb128 0x9
 1340 04ed 04       		.byte	0x4
 1341 04ee 28040000 		.4byte	0x428
 1342 04f2 09       		.uleb128 0x9
 1343 04f3 04       		.byte	0x4
 1344 04f4 F8040000 		.4byte	0x4f8
 1345 04f8 11       		.uleb128 0x11
 1346 04f9 E0000000 		.4byte	0xe0
 1347 04fd 07050000 		.4byte	0x507
 1348 0501 12       		.uleb128 0x12
 1349 0502 71020000 		.4byte	0x271
ARM GAS  /tmp/ccVOA2uB.s 			page 25


 1350 0506 00       		.byte	0
 1351 0507 03       		.uleb128 0x3
 1352 0508 6D040000 		.4byte	.LASF66
 1353 050c 0A       		.byte	0xa
 1354 050d 37       		.byte	0x37
 1355 050e 12050000 		.4byte	0x512
 1356 0512 05       		.uleb128 0x5
 1357 0513 6D040000 		.4byte	.LASF66
 1358 0517 24       		.byte	0x24
 1359 0518 0A       		.byte	0xa
 1360 0519 45       		.byte	0x45
 1361 051a 7F050000 		.4byte	0x57f
 1362 051e 06       		.uleb128 0x6
 1363 051f D0090000 		.4byte	.LASF67
 1364 0523 0A       		.byte	0xa
 1365 0524 46       		.byte	0x46
 1366 0525 3B020000 		.4byte	0x23b
 1367 0529 00       		.byte	0
 1368 052a 06       		.uleb128 0x6
 1369 052b 77050000 		.4byte	.LASF68
 1370 052f 0A       		.byte	0xa
 1371 0530 47       		.byte	0x47
 1372 0531 2C000000 		.4byte	0x2c
 1373 0535 08       		.byte	0x8
 1374 0536 06       		.uleb128 0x6
 1375 0537 6B010000 		.4byte	.LASF69
 1376 053b 0A       		.byte	0xa
 1377 053c 48       		.byte	0x48
 1378 053d A1050000 		.4byte	0x5a1
 1379 0541 0C       		.byte	0xc
 1380 0542 06       		.uleb128 0x6
 1381 0543 2D010000 		.4byte	.LASF70
 1382 0547 0A       		.byte	0xa
 1383 0548 49       		.byte	0x49
 1384 0549 A1050000 		.4byte	0x5a1
 1385 054d 10       		.byte	0x10
 1386 054e 06       		.uleb128 0x6
 1387 054f 05060000 		.4byte	.LASF71
 1388 0553 0A       		.byte	0xa
 1389 0554 4B       		.byte	0x4b
 1390 0555 A1050000 		.4byte	0x5a1
 1391 0559 14       		.byte	0x14
 1392 055a 06       		.uleb128 0x6
 1393 055b B5020000 		.4byte	.LASF72
 1394 055f 0A       		.byte	0xa
 1395 0560 4C       		.byte	0x4c
 1396 0561 A1050000 		.4byte	0x5a1
 1397 0565 18       		.byte	0x18
 1398 0566 06       		.uleb128 0x6
 1399 0567 74010000 		.4byte	.LASF73
 1400 056b 0A       		.byte	0xa
 1401 056c 4D       		.byte	0x4d
 1402 056d 7F050000 		.4byte	0x57f
 1403 0571 1C       		.byte	0x1c
 1404 0572 06       		.uleb128 0x6
 1405 0573 DB030000 		.4byte	.LASF74
 1406 0577 0A       		.byte	0xa
ARM GAS  /tmp/ccVOA2uB.s 			page 26


 1407 0578 4E       		.byte	0x4e
 1408 0579 71020000 		.4byte	0x271
 1409 057d 20       		.byte	0x20
 1410 057e 00       		.byte	0
 1411 057f 03       		.uleb128 0x3
 1412 0580 14070000 		.4byte	.LASF75
 1413 0584 0A       		.byte	0xa
 1414 0585 3A       		.byte	0x3a
 1415 0586 8A050000 		.4byte	0x58a
 1416 058a 09       		.uleb128 0x9
 1417 058b 04       		.byte	0x4
 1418 058c 90050000 		.4byte	0x590
 1419 0590 13       		.uleb128 0x13
 1420 0591 9B050000 		.4byte	0x59b
 1421 0595 12       		.uleb128 0x12
 1422 0596 9B050000 		.4byte	0x59b
 1423 059a 00       		.byte	0
 1424 059b 09       		.uleb128 0x9
 1425 059c 04       		.byte	0x4
 1426 059d 07050000 		.4byte	0x507
 1427 05a1 09       		.uleb128 0x9
 1428 05a2 04       		.byte	0x4
 1429 05a3 45000000 		.4byte	0x45
 1430 05a7 03       		.uleb128 0x3
 1431 05a8 C50B0000 		.4byte	.LASF76
 1432 05ac 0A       		.byte	0xa
 1433 05ad 82       		.byte	0x82
 1434 05ae 07050000 		.4byte	0x507
 1435 05b2 03       		.uleb128 0x3
 1436 05b3 AC040000 		.4byte	.LASF77
 1437 05b7 0A       		.byte	0xa
 1438 05b8 F5       		.byte	0xf5
 1439 05b9 07050000 		.4byte	0x507
 1440 05bd 11       		.uleb128 0x11
 1441 05be 2C000000 		.4byte	0x2c
 1442 05c2 D6050000 		.4byte	0x5d6
 1443 05c6 12       		.uleb128 0x12
 1444 05c7 71020000 		.4byte	0x271
 1445 05cb 12       		.uleb128 0x12
 1446 05cc D6050000 		.4byte	0x5d6
 1447 05d0 12       		.uleb128 0x12
 1448 05d1 2C000000 		.4byte	0x2c
 1449 05d5 00       		.byte	0
 1450 05d6 09       		.uleb128 0x9
 1451 05d7 04       		.byte	0x4
 1452 05d8 DC050000 		.4byte	0x5dc
 1453 05dc 10       		.uleb128 0x10
 1454 05dd 45000000 		.4byte	0x45
 1455 05e1 09       		.uleb128 0x9
 1456 05e2 04       		.byte	0x4
 1457 05e3 BD050000 		.4byte	0x5bd
 1458 05e7 11       		.uleb128 0x11
 1459 05e8 2C000000 		.4byte	0x2c
 1460 05ec 00060000 		.4byte	0x600
 1461 05f0 12       		.uleb128 0x12
 1462 05f1 71020000 		.4byte	0x271
 1463 05f5 12       		.uleb128 0x12
ARM GAS  /tmp/ccVOA2uB.s 			page 27


 1464 05f6 A1050000 		.4byte	0x5a1
 1465 05fa 12       		.uleb128 0x12
 1466 05fb 2C000000 		.4byte	0x2c
 1467 05ff 00       		.byte	0
 1468 0600 09       		.uleb128 0x9
 1469 0601 04       		.byte	0x4
 1470 0602 E7050000 		.4byte	0x5e7
 1471 0606 11       		.uleb128 0x11
 1472 0607 E0000000 		.4byte	0xe0
 1473 060b 1A060000 		.4byte	0x61a
 1474 060f 12       		.uleb128 0x12
 1475 0610 71020000 		.4byte	0x271
 1476 0614 12       		.uleb128 0x12
 1477 0615 45000000 		.4byte	0x45
 1478 0619 00       		.byte	0
 1479 061a 09       		.uleb128 0x9
 1480 061b 04       		.byte	0x4
 1481 061c 06060000 		.4byte	0x606
 1482 0620 14       		.uleb128 0x14
 1483 0621 16080000 		.4byte	.LASF247
 1484 0625 01       		.byte	0x1
 1485 0626 0B       		.byte	0xb
 1486 0627 AA       		.byte	0xaa
 1487 0628 8C080000 		.4byte	0x88c
 1488 062c 15       		.uleb128 0x15
 1489 062d 8D050000 		.4byte	.LASF78
 1490 0631 72       		.sleb128 -14
 1491 0632 15       		.uleb128 0x15
 1492 0633 C9050000 		.4byte	.LASF79
 1493 0637 74       		.sleb128 -12
 1494 0638 15       		.uleb128 0x15
 1495 0639 37060000 		.4byte	.LASF80
 1496 063d 75       		.sleb128 -11
 1497 063e 15       		.uleb128 0x15
 1498 063f 49040000 		.4byte	.LASF81
 1499 0643 76       		.sleb128 -10
 1500 0644 15       		.uleb128 0x15
 1501 0645 E1060000 		.4byte	.LASF82
 1502 0649 7B       		.sleb128 -5
 1503 064a 15       		.uleb128 0x15
 1504 064b 230A0000 		.4byte	.LASF83
 1505 064f 7C       		.sleb128 -4
 1506 0650 15       		.uleb128 0x15
 1507 0651 DB0B0000 		.4byte	.LASF84
 1508 0655 7E       		.sleb128 -2
 1509 0656 15       		.uleb128 0x15
 1510 0657 32030000 		.4byte	.LASF85
 1511 065b 7F       		.sleb128 -1
 1512 065c 15       		.uleb128 0x15
 1513 065d AD050000 		.4byte	.LASF86
 1514 0661 00       		.sleb128 0
 1515 0662 15       		.uleb128 0x15
 1516 0663 BA090000 		.4byte	.LASF87
 1517 0667 01       		.sleb128 1
 1518 0668 15       		.uleb128 0x15
 1519 0669 DF050000 		.4byte	.LASF88
 1520 066d 02       		.sleb128 2
ARM GAS  /tmp/ccVOA2uB.s 			page 28


 1521 066e 15       		.uleb128 0x15
 1522 066f 0B0B0000 		.4byte	.LASF89
 1523 0673 03       		.sleb128 3
 1524 0674 15       		.uleb128 0x15
 1525 0675 9D000000 		.4byte	.LASF90
 1526 0679 04       		.sleb128 4
 1527 067a 15       		.uleb128 0x15
 1528 067b 830A0000 		.4byte	.LASF91
 1529 067f 05       		.sleb128 5
 1530 0680 15       		.uleb128 0x15
 1531 0681 DA090000 		.4byte	.LASF92
 1532 0685 06       		.sleb128 6
 1533 0686 15       		.uleb128 0x15
 1534 0687 2D050000 		.4byte	.LASF93
 1535 068b 07       		.sleb128 7
 1536 068c 15       		.uleb128 0x15
 1537 068d 49090000 		.4byte	.LASF94
 1538 0691 08       		.sleb128 8
 1539 0692 15       		.uleb128 0x15
 1540 0693 D00B0000 		.4byte	.LASF95
 1541 0697 09       		.sleb128 9
 1542 0698 15       		.uleb128 0x15
 1543 0699 840B0000 		.4byte	.LASF96
 1544 069d 0A       		.sleb128 10
 1545 069e 15       		.uleb128 0x15
 1546 069f 7A080000 		.4byte	.LASF97
 1547 06a3 0B       		.sleb128 11
 1548 06a4 15       		.uleb128 0x15
 1549 06a5 D2070000 		.4byte	.LASF98
 1550 06a9 0C       		.sleb128 12
 1551 06aa 15       		.uleb128 0x15
 1552 06ab 8B030000 		.4byte	.LASF99
 1553 06af 0D       		.sleb128 13
 1554 06b0 15       		.uleb128 0x15
 1555 06b1 930A0000 		.4byte	.LASF100
 1556 06b5 0E       		.sleb128 14
 1557 06b6 15       		.uleb128 0x15
 1558 06b7 ED090000 		.4byte	.LASF101
 1559 06bb 0F       		.sleb128 15
 1560 06bc 15       		.uleb128 0x15
 1561 06bd 45050000 		.4byte	.LASF102
 1562 06c1 10       		.sleb128 16
 1563 06c2 15       		.uleb128 0x15
 1564 06c3 1B080000 		.4byte	.LASF103
 1565 06c7 11       		.sleb128 17
 1566 06c8 15       		.uleb128 0x15
 1567 06c9 62090000 		.4byte	.LASF104
 1568 06cd 12       		.sleb128 18
 1569 06ce 15       		.uleb128 0x15
 1570 06cf 38050000 		.4byte	.LASF105
 1571 06d3 13       		.sleb128 19
 1572 06d4 15       		.uleb128 0x15
 1573 06d5 81040000 		.4byte	.LASF106
 1574 06d9 14       		.sleb128 20
 1575 06da 15       		.uleb128 0x15
 1576 06db 4A0B0000 		.4byte	.LASF107
 1577 06df 15       		.sleb128 21
ARM GAS  /tmp/ccVOA2uB.s 			page 29


 1578 06e0 15       		.uleb128 0x15
 1579 06e1 EF050000 		.4byte	.LASF108
 1580 06e5 16       		.sleb128 22
 1581 06e6 15       		.uleb128 0x15
 1582 06e7 650B0000 		.4byte	.LASF109
 1583 06eb 17       		.sleb128 23
 1584 06ec 15       		.uleb128 0x15
 1585 06ed 64060000 		.4byte	.LASF110
 1586 06f1 18       		.sleb128 24
 1587 06f2 15       		.uleb128 0x15
 1588 06f3 AC0A0000 		.4byte	.LASF111
 1589 06f7 19       		.sleb128 25
 1590 06f8 15       		.uleb128 0x15
 1591 06f9 F8020000 		.4byte	.LASF112
 1592 06fd 1A       		.sleb128 26
 1593 06fe 15       		.uleb128 0x15
 1594 06ff 12050000 		.4byte	.LASF113
 1595 0703 1B       		.sleb128 27
 1596 0704 15       		.uleb128 0x15
 1597 0705 CD000000 		.4byte	.LASF114
 1598 0709 1C       		.sleb128 28
 1599 070a 15       		.uleb128 0x15
 1600 070b 1E090000 		.4byte	.LASF115
 1601 070f 1D       		.sleb128 29
 1602 0710 15       		.uleb128 0x15
 1603 0711 C2040000 		.4byte	.LASF116
 1604 0715 1E       		.sleb128 30
 1605 0716 15       		.uleb128 0x15
 1606 0717 E8040000 		.4byte	.LASF117
 1607 071b 1F       		.sleb128 31
 1608 071c 15       		.uleb128 0x15
 1609 071d F6030000 		.4byte	.LASF118
 1610 0721 20       		.sleb128 32
 1611 0722 15       		.uleb128 0x15
 1612 0723 8C070000 		.4byte	.LASF119
 1613 0727 21       		.sleb128 33
 1614 0728 15       		.uleb128 0x15
 1615 0729 2A060000 		.4byte	.LASF120
 1616 072d 22       		.sleb128 34
 1617 072e 15       		.uleb128 0x15
 1618 072f D7060000 		.4byte	.LASF121
 1619 0733 23       		.sleb128 35
 1620 0734 15       		.uleb128 0x15
 1621 0735 B3060000 		.4byte	.LASF122
 1622 0739 24       		.sleb128 36
 1623 073a 15       		.uleb128 0x15
 1624 073b 28090000 		.4byte	.LASF123
 1625 073f 25       		.sleb128 37
 1626 0740 15       		.uleb128 0x15
 1627 0741 CC040000 		.4byte	.LASF124
 1628 0745 26       		.sleb128 38
 1629 0746 15       		.uleb128 0x15
 1630 0747 3F030000 		.4byte	.LASF125
 1631 074b 27       		.sleb128 39
 1632 074c 15       		.uleb128 0x15
 1633 074d E1080000 		.4byte	.LASF126
 1634 0751 28       		.sleb128 40
ARM GAS  /tmp/ccVOA2uB.s 			page 30


 1635 0752 15       		.uleb128 0x15
 1636 0753 A0080000 		.4byte	.LASF127
 1637 0757 29       		.sleb128 41
 1638 0758 15       		.uleb128 0x15
 1639 0759 40070000 		.4byte	.LASF128
 1640 075d 2A       		.sleb128 42
 1641 075e 15       		.uleb128 0x15
 1642 075f 3A010000 		.4byte	.LASF129
 1643 0763 2B       		.sleb128 43
 1644 0764 15       		.uleb128 0x15
 1645 0765 07000000 		.4byte	.LASF130
 1646 0769 2C       		.sleb128 44
 1647 076a 15       		.uleb128 0x15
 1648 076b 57050000 		.4byte	.LASF131
 1649 076f 2D       		.sleb128 45
 1650 0770 15       		.uleb128 0x15
 1651 0771 AE0B0000 		.4byte	.LASF132
 1652 0775 2E       		.sleb128 46
 1653 0776 15       		.uleb128 0x15
 1654 0777 FA0B0000 		.4byte	.LASF133
 1655 077b 2F       		.sleb128 47
 1656 077c 15       		.uleb128 0x15
 1657 077d C1080000 		.4byte	.LASF134
 1658 0781 30       		.sleb128 48
 1659 0782 15       		.uleb128 0x15
 1660 0783 BB0B0000 		.4byte	.LASF135
 1661 0787 31       		.sleb128 49
 1662 0788 15       		.uleb128 0x15
 1663 0789 35040000 		.4byte	.LASF136
 1664 078d 32       		.sleb128 50
 1665 078e 15       		.uleb128 0x15
 1666 078f 93000000 		.4byte	.LASF137
 1667 0793 33       		.sleb128 51
 1668 0794 15       		.uleb128 0x15
 1669 0795 FF060000 		.4byte	.LASF138
 1670 0799 34       		.sleb128 52
 1671 079a 15       		.uleb128 0x15
 1672 079b 59060000 		.4byte	.LASF139
 1673 079f 35       		.sleb128 53
 1674 07a0 15       		.uleb128 0x15
 1675 07a1 6B070000 		.4byte	.LASF140
 1676 07a5 36       		.sleb128 54
 1677 07a6 15       		.uleb128 0x15
 1678 07a7 8D060000 		.4byte	.LASF141
 1679 07ab 37       		.sleb128 55
 1680 07ac 15       		.uleb128 0x15
 1681 07ad 28070000 		.4byte	.LASF142
 1682 07b1 38       		.sleb128 56
 1683 07b2 15       		.uleb128 0x15
 1684 07b3 78000000 		.4byte	.LASF143
 1685 07b7 39       		.sleb128 57
 1686 07b8 15       		.uleb128 0x15
 1687 07b9 430C0000 		.4byte	.LASF144
 1688 07bd 3A       		.sleb128 58
 1689 07be 15       		.uleb128 0x15
 1690 07bf F0070000 		.4byte	.LASF145
 1691 07c3 3B       		.sleb128 59
ARM GAS  /tmp/ccVOA2uB.s 			page 31


 1692 07c4 15       		.uleb128 0x15
 1693 07c5 BF030000 		.4byte	.LASF146
 1694 07c9 3C       		.sleb128 60
 1695 07ca 15       		.uleb128 0x15
 1696 07cb 540A0000 		.4byte	.LASF147
 1697 07cf 3D       		.sleb128 61
 1698 07d0 15       		.uleb128 0x15
 1699 07d1 A5060000 		.4byte	.LASF148
 1700 07d5 3E       		.sleb128 62
 1701 07d6 15       		.uleb128 0x15
 1702 07d7 02080000 		.4byte	.LASF149
 1703 07db 3F       		.sleb128 63
 1704 07dc 15       		.uleb128 0x15
 1705 07dd F1000000 		.4byte	.LASF150
 1706 07e1 C000     		.sleb128 64
 1707 07e3 15       		.uleb128 0x15
 1708 07e4 54090000 		.4byte	.LASF151
 1709 07e8 C100     		.sleb128 65
 1710 07ea 15       		.uleb128 0x15
 1711 07eb 03040000 		.4byte	.LASF152
 1712 07ef C200     		.sleb128 66
 1713 07f1 15       		.uleb128 0x15
 1714 07f2 81050000 		.4byte	.LASF153
 1715 07f6 C300     		.sleb128 67
 1716 07f8 15       		.uleb128 0x15
 1717 07f9 D3020000 		.4byte	.LASF154
 1718 07fd C400     		.sleb128 68
 1719 07ff 15       		.uleb128 0x15
 1720 0800 090A0000 		.4byte	.LASF155
 1721 0804 C500     		.sleb128 69
 1722 0806 15       		.uleb128 0x15
 1723 0807 68080000 		.4byte	.LASF156
 1724 080b C600     		.sleb128 70
 1725 080d 15       		.uleb128 0x15
 1726 080e FF000000 		.4byte	.LASF157
 1727 0812 C700     		.sleb128 71
 1728 0814 15       		.uleb128 0x15
 1729 0815 3E0A0000 		.4byte	.LASF158
 1730 0819 C800     		.sleb128 72
 1731 081b 15       		.uleb128 0x15
 1732 081c CA080000 		.4byte	.LASF159
 1733 0820 C900     		.sleb128 73
 1734 0822 15       		.uleb128 0x15
 1735 0823 F70A0000 		.4byte	.LASF160
 1736 0827 CA00     		.sleb128 74
 1737 0829 15       		.uleb128 0x15
 1738 082a E70B0000 		.4byte	.LASF161
 1739 082e CB00     		.sleb128 75
 1740 0830 15       		.uleb128 0x15
 1741 0831 1C010000 		.4byte	.LASF162
 1742 0835 CC00     		.sleb128 76
 1743 0837 15       		.uleb128 0x15
 1744 0838 BD060000 		.4byte	.LASF163
 1745 083c CD00     		.sleb128 77
 1746 083e 15       		.uleb128 0x15
 1747 083f A8000000 		.4byte	.LASF164
 1748 0843 CE00     		.sleb128 78
ARM GAS  /tmp/ccVOA2uB.s 			page 32


 1749 0845 15       		.uleb128 0x15
 1750 0846 D7080000 		.4byte	.LASF165
 1751 084a CF00     		.sleb128 79
 1752 084c 15       		.uleb128 0x15
 1753 084d 1F050000 		.4byte	.LASF166
 1754 0851 D000     		.sleb128 80
 1755 0853 15       		.uleb128 0x15
 1756 0854 F6060000 		.4byte	.LASF167
 1757 0858 D100     		.sleb128 81
 1758 085a 15       		.uleb128 0x15
 1759 085b 34090000 		.4byte	.LASF168
 1760 085f D200     		.sleb128 82
 1761 0861 15       		.uleb128 0x15
 1762 0862 D8040000 		.4byte	.LASF169
 1763 0866 D300     		.sleb128 83
 1764 0868 15       		.uleb128 0x15
 1765 0869 B7080000 		.4byte	.LASF170
 1766 086d D400     		.sleb128 84
 1767 086f 15       		.uleb128 0x15
 1768 0870 8F040000 		.4byte	.LASF171
 1769 0874 D500     		.sleb128 85
 1770 0876 15       		.uleb128 0x15
 1771 0877 EC030000 		.4byte	.LASF172
 1772 087b D600     		.sleb128 86
 1773 087d 15       		.uleb128 0x15
 1774 087e B8040000 		.4byte	.LASF173
 1775 0882 D700     		.sleb128 87
 1776 0884 15       		.uleb128 0x15
 1777 0885 79070000 		.4byte	.LASF174
 1778 0889 DA00     		.sleb128 90
 1779 088b 00       		.byte	0
 1780 088c 16       		.uleb128 0x16
 1781 088d 82000000 		.4byte	0x82
 1782 0891 9C080000 		.4byte	0x89c
 1783 0895 17       		.uleb128 0x17
 1784 0896 E5030000 		.4byte	0x3e5
 1785 089a 01       		.byte	0x1
 1786 089b 00       		.byte	0
 1787 089c 0D       		.uleb128 0xd
 1788 089d 5E000000 		.4byte	0x5e
 1789 08a1 0D       		.uleb128 0xd
 1790 08a2 70000000 		.4byte	0x70
 1791 08a6 18       		.uleb128 0x18
 1792 08a7 90       		.byte	0x90
 1793 08a8 0B       		.byte	0xb
 1794 08a9 5804     		.2byte	0x458
 1795 08ab 4F0A0000 		.4byte	0xa4f
 1796 08af 0C       		.uleb128 0xc
 1797 08b0 435200   		.ascii	"CR\000"
 1798 08b3 0B       		.byte	0xb
 1799 08b4 5A04     		.2byte	0x45a
 1800 08b6 E0030000 		.4byte	0x3e0
 1801 08ba 00       		.byte	0
 1802 08bb 19       		.uleb128 0x19
 1803 08bc 51060000 		.4byte	.LASF175
 1804 08c0 0B       		.byte	0xb
 1805 08c1 5B04     		.2byte	0x45b
ARM GAS  /tmp/ccVOA2uB.s 			page 33


 1806 08c3 E0030000 		.4byte	0x3e0
 1807 08c7 04       		.byte	0x4
 1808 08c8 19       		.uleb128 0x19
 1809 08c9 0D050000 		.4byte	.LASF176
 1810 08cd 0B       		.byte	0xb
 1811 08ce 5C04     		.2byte	0x45c
 1812 08d0 E0030000 		.4byte	0x3e0
 1813 08d4 08       		.byte	0x8
 1814 08d5 0C       		.uleb128 0xc
 1815 08d6 43495200 		.ascii	"CIR\000"
 1816 08da 0B       		.byte	0xb
 1817 08db 5D04     		.2byte	0x45d
 1818 08dd E0030000 		.4byte	0x3e0
 1819 08e1 0C       		.byte	0xc
 1820 08e2 19       		.uleb128 0x19
 1821 08e3 0C0C0000 		.4byte	.LASF177
 1822 08e7 0B       		.byte	0xb
 1823 08e8 5E04     		.2byte	0x45e
 1824 08ea E0030000 		.4byte	0x3e0
 1825 08ee 10       		.byte	0x10
 1826 08ef 19       		.uleb128 0x19
 1827 08f0 4B0A0000 		.4byte	.LASF178
 1828 08f4 0B       		.byte	0xb
 1829 08f5 5F04     		.2byte	0x45f
 1830 08f7 E0030000 		.4byte	0x3e0
 1831 08fb 14       		.byte	0x14
 1832 08fc 19       		.uleb128 0x19
 1833 08fd 42080000 		.4byte	.LASF179
 1834 0901 0B       		.byte	0xb
 1835 0902 6004     		.2byte	0x460
 1836 0904 E0030000 		.4byte	0x3e0
 1837 0908 18       		.byte	0x18
 1838 0909 19       		.uleb128 0x19
 1839 090a 9D030000 		.4byte	.LASF180
 1840 090e 0B       		.byte	0xb
 1841 090f 6104     		.2byte	0x461
 1842 0911 82000000 		.4byte	0x82
 1843 0915 1C       		.byte	0x1c
 1844 0916 19       		.uleb128 0x19
 1845 0917 8C080000 		.4byte	.LASF181
 1846 091b 0B       		.byte	0xb
 1847 091c 6204     		.2byte	0x462
 1848 091e E0030000 		.4byte	0x3e0
 1849 0922 20       		.byte	0x20
 1850 0923 19       		.uleb128 0x19
 1851 0924 ED060000 		.4byte	.LASF182
 1852 0928 0B       		.byte	0xb
 1853 0929 6304     		.2byte	0x463
 1854 092b E0030000 		.4byte	0x3e0
 1855 092f 24       		.byte	0x24
 1856 0930 19       		.uleb128 0x19
 1857 0931 A7030000 		.4byte	.LASF183
 1858 0935 0B       		.byte	0xb
 1859 0936 6404     		.2byte	0x464
 1860 0938 8C080000 		.4byte	0x88c
 1861 093c 28       		.byte	0x28
 1862 093d 19       		.uleb128 0x19
ARM GAS  /tmp/ccVOA2uB.s 			page 34


 1863 093e 1B0A0000 		.4byte	.LASF184
 1864 0942 0B       		.byte	0xb
 1865 0943 6504     		.2byte	0x465
 1866 0945 E0030000 		.4byte	0x3e0
 1867 0949 30       		.byte	0x30
 1868 094a 19       		.uleb128 0x19
 1869 094b 65040000 		.4byte	.LASF185
 1870 094f 0B       		.byte	0xb
 1871 0950 6604     		.2byte	0x466
 1872 0952 E0030000 		.4byte	0x3e0
 1873 0956 34       		.byte	0x34
 1874 0957 19       		.uleb128 0x19
 1875 0958 3B0C0000 		.4byte	.LASF186
 1876 095c 0B       		.byte	0xb
 1877 095d 6704     		.2byte	0x467
 1878 095f E0030000 		.4byte	0x3e0
 1879 0963 38       		.byte	0x38
 1880 0964 19       		.uleb128 0x19
 1881 0965 21040000 		.4byte	.LASF187
 1882 0969 0B       		.byte	0xb
 1883 096a 6804     		.2byte	0x468
 1884 096c 82000000 		.4byte	0x82
 1885 0970 3C       		.byte	0x3c
 1886 0971 19       		.uleb128 0x19
 1887 0972 AF080000 		.4byte	.LASF188
 1888 0976 0B       		.byte	0xb
 1889 0977 6904     		.2byte	0x469
 1890 0979 E0030000 		.4byte	0x3e0
 1891 097d 40       		.byte	0x40
 1892 097e 19       		.uleb128 0x19
 1893 097f 20030000 		.4byte	.LASF189
 1894 0983 0B       		.byte	0xb
 1895 0984 6A04     		.2byte	0x46a
 1896 0986 E0030000 		.4byte	0x3e0
 1897 098a 44       		.byte	0x44
 1898 098b 19       		.uleb128 0x19
 1899 098c 2B040000 		.4byte	.LASF190
 1900 0990 0B       		.byte	0xb
 1901 0991 6B04     		.2byte	0x46b
 1902 0993 8C080000 		.4byte	0x88c
 1903 0997 48       		.byte	0x48
 1904 0998 19       		.uleb128 0x19
 1905 0999 28030000 		.4byte	.LASF191
 1906 099d 0B       		.byte	0xb
 1907 099e 6C04     		.2byte	0x46c
 1908 09a0 E0030000 		.4byte	0x3e0
 1909 09a4 50       		.byte	0x50
 1910 09a5 19       		.uleb128 0x19
 1911 09a6 4E010000 		.4byte	.LASF192
 1912 09aa 0B       		.byte	0xb
 1913 09ab 6D04     		.2byte	0x46d
 1914 09ad E0030000 		.4byte	0x3e0
 1915 09b1 54       		.byte	0x54
 1916 09b2 19       		.uleb128 0x19
 1917 09b3 6B090000 		.4byte	.LASF193
 1918 09b7 0B       		.byte	0xb
 1919 09b8 6E04     		.2byte	0x46e
ARM GAS  /tmp/ccVOA2uB.s 			page 35


 1920 09ba E0030000 		.4byte	0x3e0
 1921 09be 58       		.byte	0x58
 1922 09bf 19       		.uleb128 0x19
 1923 09c0 D1030000 		.4byte	.LASF194
 1924 09c4 0B       		.byte	0xb
 1925 09c5 6F04     		.2byte	0x46f
 1926 09c7 82000000 		.4byte	0x82
 1927 09cb 5C       		.byte	0x5c
 1928 09cc 19       		.uleb128 0x19
 1929 09cd C8070000 		.4byte	.LASF195
 1930 09d1 0B       		.byte	0xb
 1931 09d2 7004     		.2byte	0x470
 1932 09d4 E0030000 		.4byte	0x3e0
 1933 09d8 60       		.byte	0x60
 1934 09d9 19       		.uleb128 0x19
 1935 09da 0A070000 		.4byte	.LASF196
 1936 09de 0B       		.byte	0xb
 1937 09df 7104     		.2byte	0x471
 1938 09e1 E0030000 		.4byte	0x3e0
 1939 09e5 64       		.byte	0x64
 1940 09e6 19       		.uleb128 0x19
 1941 09e7 3F040000 		.4byte	.LASF197
 1942 09eb 0B       		.byte	0xb
 1943 09ec 7204     		.2byte	0x472
 1944 09ee 8C080000 		.4byte	0x88c
 1945 09f2 68       		.byte	0x68
 1946 09f3 19       		.uleb128 0x19
 1947 09f4 E3040000 		.4byte	.LASF198
 1948 09f8 0B       		.byte	0xb
 1949 09f9 7304     		.2byte	0x473
 1950 09fb E0030000 		.4byte	0x3e0
 1951 09ff 70       		.byte	0x70
 1952 0a00 0C       		.uleb128 0xc
 1953 0a01 43535200 		.ascii	"CSR\000"
 1954 0a05 0B       		.byte	0xb
 1955 0a06 7404     		.2byte	0x474
 1956 0a08 E0030000 		.4byte	0x3e0
 1957 0a0c 74       		.byte	0x74
 1958 0a0d 19       		.uleb128 0x19
 1959 0a0e E2030000 		.4byte	.LASF199
 1960 0a12 0B       		.byte	0xb
 1961 0a13 7504     		.2byte	0x475
 1962 0a15 8C080000 		.4byte	0x88c
 1963 0a19 78       		.byte	0x78
 1964 0a1a 19       		.uleb128 0x19
 1965 0a1b D1060000 		.4byte	.LASF200
 1966 0a1f 0B       		.byte	0xb
 1967 0a20 7604     		.2byte	0x476
 1968 0a22 E0030000 		.4byte	0x3e0
 1969 0a26 80       		.byte	0x80
 1970 0a27 19       		.uleb128 0x19
 1971 0a28 2D000000 		.4byte	.LASF201
 1972 0a2c 0B       		.byte	0xb
 1973 0a2d 7704     		.2byte	0x477
 1974 0a2f E0030000 		.4byte	0x3e0
 1975 0a33 84       		.byte	0x84
 1976 0a34 19       		.uleb128 0x19
ARM GAS  /tmp/ccVOA2uB.s 			page 36


 1977 0a35 720B0000 		.4byte	.LASF202
 1978 0a39 0B       		.byte	0xb
 1979 0a3a 7804     		.2byte	0x478
 1980 0a3c E0030000 		.4byte	0x3e0
 1981 0a40 88       		.byte	0x88
 1982 0a41 19       		.uleb128 0x19
 1983 0a42 4B030000 		.4byte	.LASF203
 1984 0a46 0B       		.byte	0xb
 1985 0a47 7904     		.2byte	0x479
 1986 0a49 E0030000 		.4byte	0x3e0
 1987 0a4d 8C       		.byte	0x8c
 1988 0a4e 00       		.byte	0
 1989 0a4f 1A       		.uleb128 0x1a
 1990 0a50 6D0A0000 		.4byte	.LASF204
 1991 0a54 0B       		.byte	0xb
 1992 0a55 7B04     		.2byte	0x47b
 1993 0a57 A6080000 		.4byte	0x8a6
 1994 0a5b 18       		.uleb128 0x18
 1995 0a5c 1C       		.byte	0x1c
 1996 0a5d 0B       		.byte	0xb
 1997 0a5e 2905     		.2byte	0x529
 1998 0a60 190B0000 		.4byte	0xb19
 1999 0a64 0C       		.uleb128 0xc
 2000 0a65 535200   		.ascii	"SR\000"
 2001 0a68 0B       		.byte	0xb
 2002 0a69 2B05     		.2byte	0x52b
 2003 0a6b 9C080000 		.4byte	0x89c
 2004 0a6f 00       		.byte	0
 2005 0a70 19       		.uleb128 0x19
 2006 0a71 9D030000 		.4byte	.LASF180
 2007 0a75 0B       		.byte	0xb
 2008 0a76 2C05     		.2byte	0x52c
 2009 0a78 5E000000 		.4byte	0x5e
 2010 0a7c 02       		.byte	0x2
 2011 0a7d 0C       		.uleb128 0xc
 2012 0a7e 445200   		.ascii	"DR\000"
 2013 0a81 0B       		.byte	0xb
 2014 0a82 2D05     		.2byte	0x52d
 2015 0a84 9C080000 		.4byte	0x89c
 2016 0a88 04       		.byte	0x4
 2017 0a89 19       		.uleb128 0x19
 2018 0a8a A7030000 		.4byte	.LASF183
 2019 0a8e 0B       		.byte	0xb
 2020 0a8f 2E05     		.2byte	0x52e
 2021 0a91 5E000000 		.4byte	0x5e
 2022 0a95 06       		.byte	0x6
 2023 0a96 0C       		.uleb128 0xc
 2024 0a97 42525200 		.ascii	"BRR\000"
 2025 0a9b 0B       		.byte	0xb
 2026 0a9c 2F05     		.2byte	0x52f
 2027 0a9e 9C080000 		.4byte	0x89c
 2028 0aa2 08       		.byte	0x8
 2029 0aa3 19       		.uleb128 0x19
 2030 0aa4 21040000 		.4byte	.LASF187
 2031 0aa8 0B       		.byte	0xb
 2032 0aa9 3005     		.2byte	0x530
 2033 0aab 5E000000 		.4byte	0x5e
ARM GAS  /tmp/ccVOA2uB.s 			page 37


 2034 0aaf 0A       		.byte	0xa
 2035 0ab0 0C       		.uleb128 0xc
 2036 0ab1 43523100 		.ascii	"CR1\000"
 2037 0ab5 0B       		.byte	0xb
 2038 0ab6 3105     		.2byte	0x531
 2039 0ab8 9C080000 		.4byte	0x89c
 2040 0abc 0C       		.byte	0xc
 2041 0abd 19       		.uleb128 0x19
 2042 0abe 2B040000 		.4byte	.LASF190
 2043 0ac2 0B       		.byte	0xb
 2044 0ac3 3205     		.2byte	0x532
 2045 0ac5 5E000000 		.4byte	0x5e
 2046 0ac9 0E       		.byte	0xe
 2047 0aca 0C       		.uleb128 0xc
 2048 0acb 43523200 		.ascii	"CR2\000"
 2049 0acf 0B       		.byte	0xb
 2050 0ad0 3305     		.2byte	0x533
 2051 0ad2 9C080000 		.4byte	0x89c
 2052 0ad6 10       		.byte	0x10
 2053 0ad7 19       		.uleb128 0x19
 2054 0ad8 D1030000 		.4byte	.LASF194
 2055 0adc 0B       		.byte	0xb
 2056 0add 3405     		.2byte	0x534
 2057 0adf 5E000000 		.4byte	0x5e
 2058 0ae3 12       		.byte	0x12
 2059 0ae4 0C       		.uleb128 0xc
 2060 0ae5 43523300 		.ascii	"CR3\000"
 2061 0ae9 0B       		.byte	0xb
 2062 0aea 3505     		.2byte	0x535
 2063 0aec 9C080000 		.4byte	0x89c
 2064 0af0 14       		.byte	0x14
 2065 0af1 19       		.uleb128 0x19
 2066 0af2 3F040000 		.4byte	.LASF197
 2067 0af6 0B       		.byte	0xb
 2068 0af7 3605     		.2byte	0x536
 2069 0af9 5E000000 		.4byte	0x5e
 2070 0afd 16       		.byte	0x16
 2071 0afe 19       		.uleb128 0x19
 2072 0aff 6D000000 		.4byte	.LASF205
 2073 0b03 0B       		.byte	0xb
 2074 0b04 3705     		.2byte	0x537
 2075 0b06 9C080000 		.4byte	0x89c
 2076 0b0a 18       		.byte	0x18
 2077 0b0b 19       		.uleb128 0x19
 2078 0b0c E2030000 		.4byte	.LASF199
 2079 0b10 0B       		.byte	0xb
 2080 0b11 3805     		.2byte	0x538
 2081 0b13 5E000000 		.4byte	0x5e
 2082 0b17 1A       		.byte	0x1a
 2083 0b18 00       		.byte	0
 2084 0b19 1A       		.uleb128 0x1a
 2085 0b1a 9E040000 		.4byte	.LASF206
 2086 0b1e 0B       		.byte	0xb
 2087 0b1f 3905     		.2byte	0x539
 2088 0b21 5B0A0000 		.4byte	0xa5b
 2089 0b25 11       		.uleb128 0x11
 2090 0b26 E0000000 		.4byte	0xe0
ARM GAS  /tmp/ccVOA2uB.s 			page 38


 2091 0b2a 3E0B0000 		.4byte	0xb3e
 2092 0b2e 12       		.uleb128 0x12
 2093 0b2f 71020000 		.4byte	0x271
 2094 0b33 12       		.uleb128 0x12
 2095 0b34 45000000 		.4byte	0x45
 2096 0b38 12       		.uleb128 0x12
 2097 0b39 01010000 		.4byte	0x101
 2098 0b3d 00       		.byte	0
 2099 0b3e 09       		.uleb128 0x9
 2100 0b3f 04       		.byte	0x4
 2101 0b40 250B0000 		.4byte	0xb25
 2102 0b44 11       		.uleb128 0x11
 2103 0b45 E0000000 		.4byte	0xe0
 2104 0b49 580B0000 		.4byte	0xb58
 2105 0b4d 12       		.uleb128 0x12
 2106 0b4e 71020000 		.4byte	0x271
 2107 0b52 12       		.uleb128 0x12
 2108 0b53 01010000 		.4byte	0x101
 2109 0b57 00       		.byte	0
 2110 0b58 09       		.uleb128 0x9
 2111 0b59 04       		.byte	0x4
 2112 0b5a 440B0000 		.4byte	0xb44
 2113 0b5e 11       		.uleb128 0x11
 2114 0b5f 2C000000 		.4byte	0x2c
 2115 0b63 7C0B0000 		.4byte	0xb7c
 2116 0b67 12       		.uleb128 0x12
 2117 0b68 71020000 		.4byte	0x271
 2118 0b6c 12       		.uleb128 0x12
 2119 0b6d D6050000 		.4byte	0x5d6
 2120 0b71 12       		.uleb128 0x12
 2121 0b72 2C000000 		.4byte	0x2c
 2122 0b76 12       		.uleb128 0x12
 2123 0b77 01010000 		.4byte	0x101
 2124 0b7b 00       		.byte	0
 2125 0b7c 09       		.uleb128 0x9
 2126 0b7d 04       		.byte	0x4
 2127 0b7e 5E0B0000 		.4byte	0xb5e
 2128 0b82 11       		.uleb128 0x11
 2129 0b83 2C000000 		.4byte	0x2c
 2130 0b87 A00B0000 		.4byte	0xba0
 2131 0b8b 12       		.uleb128 0x12
 2132 0b8c 71020000 		.4byte	0x271
 2133 0b90 12       		.uleb128 0x12
 2134 0b91 A1050000 		.4byte	0x5a1
 2135 0b95 12       		.uleb128 0x12
 2136 0b96 2C000000 		.4byte	0x2c
 2137 0b9a 12       		.uleb128 0x12
 2138 0b9b 01010000 		.4byte	0x101
 2139 0b9f 00       		.byte	0
 2140 0ba0 09       		.uleb128 0x9
 2141 0ba1 04       		.byte	0x4
 2142 0ba2 820B0000 		.4byte	0xb82
 2143 0ba6 1B       		.uleb128 0x1b
 2144 0ba7 01       		.byte	0x1
 2145 0ba8 0C       		.byte	0xc
 2146 0ba9 64       		.byte	0x64
 2147 0baa C10B0000 		.4byte	0xbc1
ARM GAS  /tmp/ccVOA2uB.s 			page 39


 2148 0bae 15       		.uleb128 0x15
 2149 0baf 11040000 		.4byte	.LASF207
 2150 0bb3 00       		.sleb128 0
 2151 0bb4 15       		.uleb128 0x15
 2152 0bb5 150C0000 		.4byte	.LASF208
 2153 0bb9 01       		.sleb128 1
 2154 0bba 15       		.uleb128 0x15
 2155 0bbb 350A0000 		.4byte	.LASF209
 2156 0bbf 02       		.sleb128 2
 2157 0bc0 00       		.byte	0
 2158 0bc1 03       		.uleb128 0x3
 2159 0bc2 FF090000 		.4byte	.LASF210
 2160 0bc6 0C       		.byte	0xc
 2161 0bc7 68       		.byte	0x68
 2162 0bc8 A60B0000 		.4byte	0xba6
 2163 0bcc 03       		.uleb128 0x3
 2164 0bcd C3090000 		.4byte	.LASF211
 2165 0bd1 0C       		.byte	0xc
 2166 0bd2 6D       		.byte	0x6d
 2167 0bd3 D70B0000 		.4byte	0xbd7
 2168 0bd7 05       		.uleb128 0x5
 2169 0bd8 C3090000 		.4byte	.LASF211
 2170 0bdc 78       		.byte	0x78
 2171 0bdd 0C       		.byte	0xc
 2172 0bde 87       		.byte	0x87
 2173 0bdf 420C0000 		.4byte	0xc42
 2174 0be3 07       		.uleb128 0x7
 2175 0be4 766D7400 		.ascii	"vmt\000"
 2176 0be8 0C       		.byte	0xc
 2177 0be9 89       		.byte	0x89
 2178 0bea F30C0000 		.4byte	0xcf3
 2179 0bee 00       		.byte	0
 2180 0bef 06       		.uleb128 0x6
 2181 0bf0 3A070000 		.4byte	.LASF212
 2182 0bf4 0C       		.byte	0xc
 2183 0bf5 8A       		.byte	0x8a
 2184 0bf6 9A040000 		.4byte	0x49a
 2185 0bfa 04       		.byte	0x4
 2186 0bfb 06       		.uleb128 0x6
 2187 0bfc C2000000 		.4byte	.LASF213
 2188 0c00 0C       		.byte	0xc
 2189 0c01 8A       		.byte	0x8a
 2190 0c02 C10B0000 		.4byte	0xbc1
 2191 0c06 08       		.byte	0x8
 2192 0c07 06       		.uleb128 0x6
 2193 0c08 8C0A0000 		.4byte	.LASF214
 2194 0c0c 0C       		.byte	0xc
 2195 0c0d 8A       		.byte	0x8a
 2196 0c0e A7050000 		.4byte	0x5a7
 2197 0c12 0C       		.byte	0xc
 2198 0c13 06       		.uleb128 0x6
 2199 0c14 10030000 		.4byte	.LASF215
 2200 0c18 0C       		.byte	0xc
 2201 0c19 8A       		.byte	0x8a
 2202 0c1a B2050000 		.4byte	0x5b2
 2203 0c1e 30       		.byte	0x30
 2204 0c1f 07       		.uleb128 0x7
ARM GAS  /tmp/ccVOA2uB.s 			page 40


 2205 0c20 696200   		.ascii	"ib\000"
 2206 0c23 0C       		.byte	0xc
 2207 0c24 8A       		.byte	0x8a
 2208 0c25 FE0C0000 		.4byte	0xcfe
 2209 0c29 54       		.byte	0x54
 2210 0c2a 07       		.uleb128 0x7
 2211 0c2b 6F6200   		.ascii	"ob\000"
 2212 0c2e 0C       		.byte	0xc
 2213 0c2f 8A       		.byte	0x8a
 2214 0c30 FE0C0000 		.4byte	0xcfe
 2215 0c34 64       		.byte	0x64
 2216 0c35 06       		.uleb128 0x6
 2217 0c36 53030000 		.4byte	.LASF216
 2218 0c3a 0C       		.byte	0xc
 2219 0c3b 8A       		.byte	0x8a
 2220 0c3c 0E0D0000 		.4byte	0xd0e
 2221 0c40 74       		.byte	0x74
 2222 0c41 00       		.byte	0
 2223 0c42 08       		.uleb128 0x8
 2224 0c43 0C       		.byte	0xc
 2225 0c44 0D       		.byte	0xd
 2226 0c45 D7       		.byte	0xd7
 2227 0c46 7B0C0000 		.4byte	0xc7b
 2228 0c4a 06       		.uleb128 0x6
 2229 0c4b FC040000 		.4byte	.LASF217
 2230 0c4f 0D       		.byte	0xd
 2231 0c50 DB       		.byte	0xdb
 2232 0c51 82000000 		.4byte	0x82
 2233 0c55 00       		.byte	0
 2234 0c56 07       		.uleb128 0x7
 2235 0c57 63723100 		.ascii	"cr1\000"
 2236 0c5b 0D       		.byte	0xd
 2237 0c5c E0       		.byte	0xe0
 2238 0c5d 5E000000 		.4byte	0x5e
 2239 0c61 04       		.byte	0x4
 2240 0c62 07       		.uleb128 0x7
 2241 0c63 63723200 		.ascii	"cr2\000"
 2242 0c67 0D       		.byte	0xd
 2243 0c68 E4       		.byte	0xe4
 2244 0c69 5E000000 		.4byte	0x5e
 2245 0c6d 06       		.byte	0x6
 2246 0c6e 07       		.uleb128 0x7
 2247 0c6f 63723300 		.ascii	"cr3\000"
 2248 0c73 0D       		.byte	0xd
 2249 0c74 E8       		.byte	0xe8
 2250 0c75 5E000000 		.4byte	0x5e
 2251 0c79 08       		.byte	0x8
 2252 0c7a 00       		.byte	0
 2253 0c7b 03       		.uleb128 0x3
 2254 0c7c 59000000 		.4byte	.LASF218
 2255 0c80 0D       		.byte	0xd
 2256 0c81 E9       		.byte	0xe9
 2257 0c82 420C0000 		.4byte	0xc42
 2258 0c86 05       		.uleb128 0x5
 2259 0c87 0D060000 		.4byte	.LASF219
 2260 0c8b 20       		.byte	0x20
 2261 0c8c 0C       		.byte	0xc
ARM GAS  /tmp/ccVOA2uB.s 			page 41


 2262 0c8d 7C       		.byte	0x7c
 2263 0c8e F30C0000 		.4byte	0xcf3
 2264 0c92 06       		.uleb128 0x6
 2265 0c93 72000000 		.4byte	.LASF220
 2266 0c97 0C       		.byte	0xc
 2267 0c98 7D       		.byte	0x7d
 2268 0c99 E1050000 		.4byte	0x5e1
 2269 0c9d 00       		.byte	0
 2270 0c9e 06       		.uleb128 0x6
 2271 0c9f 59070000 		.4byte	.LASF221
 2272 0ca3 0C       		.byte	0xc
 2273 0ca4 7D       		.byte	0x7d
 2274 0ca5 00060000 		.4byte	0x600
 2275 0ca9 04       		.byte	0x4
 2276 0caa 07       		.uleb128 0x7
 2277 0cab 70757400 		.ascii	"put\000"
 2278 0caf 0C       		.byte	0xc
 2279 0cb0 7D       		.byte	0x7d
 2280 0cb1 1A060000 		.4byte	0x61a
 2281 0cb5 08       		.byte	0x8
 2282 0cb6 07       		.uleb128 0x7
 2283 0cb7 67657400 		.ascii	"get\000"
 2284 0cbb 0C       		.byte	0xc
 2285 0cbc 7D       		.byte	0x7d
 2286 0cbd F2040000 		.4byte	0x4f2
 2287 0cc1 0C       		.byte	0xc
 2288 0cc2 06       		.uleb128 0x6
 2289 0cc3 C8000000 		.4byte	.LASF222
 2290 0cc7 0C       		.byte	0xc
 2291 0cc8 7D       		.byte	0x7d
 2292 0cc9 3E0B0000 		.4byte	0xb3e
 2293 0ccd 10       		.byte	0x10
 2294 0cce 06       		.uleb128 0x6
 2295 0ccf 99040000 		.4byte	.LASF223
 2296 0cd3 0C       		.byte	0xc
 2297 0cd4 7D       		.byte	0x7d
 2298 0cd5 580B0000 		.4byte	0xb58
 2299 0cd9 14       		.byte	0x14
 2300 0cda 06       		.uleb128 0x6
 2301 0cdb 66000000 		.4byte	.LASF224
 2302 0cdf 0C       		.byte	0xc
 2303 0ce0 7D       		.byte	0x7d
 2304 0ce1 7C0B0000 		.4byte	0xb7c
 2305 0ce5 18       		.byte	0x18
 2306 0ce6 06       		.uleb128 0x6
 2307 0ce7 58010000 		.4byte	.LASF225
 2308 0ceb 0C       		.byte	0xc
 2309 0cec 7D       		.byte	0x7d
 2310 0ced A00B0000 		.4byte	0xba0
 2311 0cf1 1C       		.byte	0x1c
 2312 0cf2 00       		.byte	0
 2313 0cf3 09       		.uleb128 0x9
 2314 0cf4 04       		.byte	0x4
 2315 0cf5 F90C0000 		.4byte	0xcf9
 2316 0cf9 10       		.uleb128 0x10
 2317 0cfa 860C0000 		.4byte	0xc86
 2318 0cfe 16       		.uleb128 0x16
ARM GAS  /tmp/ccVOA2uB.s 			page 42


 2319 0cff 45000000 		.4byte	0x45
 2320 0d03 0E0D0000 		.4byte	0xd0e
 2321 0d07 17       		.uleb128 0x17
 2322 0d08 E5030000 		.4byte	0x3e5
 2323 0d0c 0F       		.byte	0xf
 2324 0d0d 00       		.byte	0
 2325 0d0e 09       		.uleb128 0x9
 2326 0d0f 04       		.byte	0x4
 2327 0d10 190B0000 		.4byte	0xb19
 2328 0d14 09       		.uleb128 0x9
 2329 0d15 04       		.byte	0x4
 2330 0d16 B2050000 		.4byte	0x5b2
 2331 0d1a 1C       		.uleb128 0x1c
 2332 0d1b 95080000 		.4byte	.LASF227
 2333 0d1f 01       		.byte	0x1
 2334 0d20 5C       		.byte	0x5c
 2335 0d21 01       		.byte	0x1
 2336 0d22 460D0000 		.4byte	0xd46
 2337 0d26 1D       		.uleb128 0x1d
 2338 0d27 73647000 		.ascii	"sdp\000"
 2339 0d2b 01       		.byte	0x1
 2340 0d2c 5C       		.byte	0x5c
 2341 0d2d 460D0000 		.4byte	0xd46
 2342 0d31 1E       		.uleb128 0x1e
 2343 0d32 BB000000 		.4byte	.LASF226
 2344 0d36 01       		.byte	0x1
 2345 0d37 5C       		.byte	0x5c
 2346 0d38 4C0D0000 		.4byte	0xd4c
 2347 0d3c 1F       		.uleb128 0x1f
 2348 0d3d 7500     		.ascii	"u\000"
 2349 0d3f 01       		.byte	0x1
 2350 0d40 5D       		.byte	0x5d
 2351 0d41 0E0D0000 		.4byte	0xd0e
 2352 0d45 00       		.byte	0
 2353 0d46 09       		.uleb128 0x9
 2354 0d47 04       		.byte	0x4
 2355 0d48 CC0B0000 		.4byte	0xbcc
 2356 0d4c 09       		.uleb128 0x9
 2357 0d4d 04       		.byte	0x4
 2358 0d4e 520D0000 		.4byte	0xd52
 2359 0d52 10       		.uleb128 0x10
 2360 0d53 7B0C0000 		.4byte	0xc7b
 2361 0d57 1C       		.uleb128 0x1c
 2362 0d58 1D060000 		.4byte	.LASF228
 2363 0d5c 01       		.byte	0x1
 2364 0d5d 7A       		.byte	0x7a
 2365 0d5e 01       		.byte	0x1
 2366 0d5f 6D0D0000 		.4byte	0xd6d
 2367 0d63 1D       		.uleb128 0x1d
 2368 0d64 7500     		.ascii	"u\000"
 2369 0d66 01       		.byte	0x1
 2370 0d67 7A       		.byte	0x7a
 2371 0d68 0E0D0000 		.4byte	0xd0e
 2372 0d6c 00       		.byte	0
 2373 0d6d 20       		.uleb128 0x20
 2374 0d6e 5D0A0000 		.4byte	.LASF229
 2375 0d72 01       		.byte	0x1
ARM GAS  /tmp/ccVOA2uB.s 			page 43


 2376 0d73 CB       		.byte	0xcb
 2377 0d74 00000000 		.4byte	.LFB122
 2378 0d78 14000000 		.4byte	.LFE122-.LFB122
 2379 0d7c 01       		.uleb128 0x1
 2380 0d7d 9C       		.byte	0x9c
 2381 0d7e 8F0D0000 		.4byte	0xd8f
 2382 0d82 21       		.uleb128 0x21
 2383 0d83 717000   		.ascii	"qp\000"
 2384 0d86 01       		.byte	0x1
 2385 0d87 CB       		.byte	0xcb
 2386 0d88 9B050000 		.4byte	0x59b
 2387 0d8c 01       		.uleb128 0x1
 2388 0d8d 50       		.byte	0x50
 2389 0d8e 00       		.byte	0
 2390 0d8f 20       		.uleb128 0x20
 2391 0d90 650A0000 		.4byte	.LASF230
 2392 0d94 01       		.byte	0x1
 2393 0d95 D3       		.byte	0xd3
 2394 0d96 00000000 		.4byte	.LFB123
 2395 0d9a 14000000 		.4byte	.LFE123-.LFB123
 2396 0d9e 01       		.uleb128 0x1
 2397 0d9f 9C       		.byte	0x9c
 2398 0da0 B10D0000 		.4byte	0xdb1
 2399 0da4 21       		.uleb128 0x21
 2400 0da5 717000   		.ascii	"qp\000"
 2401 0da8 01       		.byte	0x1
 2402 0da9 D3       		.byte	0xd3
 2403 0daa 9B050000 		.4byte	0x59b
 2404 0dae 01       		.uleb128 0x1
 2405 0daf 50       		.byte	0x50
 2406 0db0 00       		.byte	0
 2407 0db1 1C       		.uleb128 0x1c
 2408 0db2 E7000000 		.4byte	.LASF231
 2409 0db6 01       		.byte	0x1
 2410 0db7 87       		.byte	0x87
 2411 0db8 01       		.byte	0x1
 2412 0db9 DE0D0000 		.4byte	0xdde
 2413 0dbd 1D       		.uleb128 0x1d
 2414 0dbe 73647000 		.ascii	"sdp\000"
 2415 0dc2 01       		.byte	0x1
 2416 0dc3 87       		.byte	0x87
 2417 0dc4 460D0000 		.4byte	0xd46
 2418 0dc8 1D       		.uleb128 0x1d
 2419 0dc9 737200   		.ascii	"sr\000"
 2420 0dcc 01       		.byte	0x1
 2421 0dcd 87       		.byte	0x87
 2422 0dce 5E000000 		.4byte	0x5e
 2423 0dd2 1F       		.uleb128 0x1f
 2424 0dd3 73747300 		.ascii	"sts\000"
 2425 0dd7 01       		.byte	0x1
 2426 0dd8 88       		.byte	0x88
 2427 0dd9 F6000000 		.4byte	0xf6
 2428 0ddd 00       		.byte	0
 2429 0dde 20       		.uleb128 0x20
 2430 0ddf D7000000 		.4byte	.LASF232
 2431 0de3 01       		.byte	0x1
 2432 0de4 9A       		.byte	0x9a
ARM GAS  /tmp/ccVOA2uB.s 			page 44


 2433 0de5 00000000 		.4byte	.LFB121
 2434 0de9 F6000000 		.4byte	.LFE121-.LFB121
 2435 0ded 01       		.uleb128 0x1
 2436 0dee 9C       		.byte	0x9c
 2437 0def CC0F0000 		.4byte	0xfcc
 2438 0df3 22       		.uleb128 0x22
 2439 0df4 73647000 		.ascii	"sdp\000"
 2440 0df8 01       		.byte	0x1
 2441 0df9 9A       		.byte	0x9a
 2442 0dfa 460D0000 		.4byte	0xd46
 2443 0dfe 00000000 		.4byte	.LLST0
 2444 0e02 23       		.uleb128 0x23
 2445 0e03 7500     		.ascii	"u\000"
 2446 0e05 01       		.byte	0x1
 2447 0e06 9B       		.byte	0x9b
 2448 0e07 0E0D0000 		.4byte	0xd0e
 2449 0e0b 01       		.uleb128 0x1
 2450 0e0c 55       		.byte	0x55
 2451 0e0d 24       		.uleb128 0x24
 2452 0e0e 63723100 		.ascii	"cr1\000"
 2453 0e12 01       		.byte	0x1
 2454 0e13 9C       		.byte	0x9c
 2455 0e14 5E000000 		.4byte	0x5e
 2456 0e18 1E000000 		.4byte	.LLST1
 2457 0e1c 24       		.uleb128 0x24
 2458 0e1d 737200   		.ascii	"sr\000"
 2459 0e20 01       		.byte	0x1
 2460 0e21 9D       		.byte	0x9d
 2461 0e22 5E000000 		.4byte	0x5e
 2462 0e26 3C000000 		.4byte	.LLST2
 2463 0e2a 25       		.uleb128 0x25
 2464 0e2b 18000000 		.4byte	.LBB15
 2465 0e2f 06000000 		.4byte	.LBE15-.LBB15
 2466 0e33 450E0000 		.4byte	0xe45
 2467 0e37 23       		.uleb128 0x23
 2468 0e38 746D7000 		.ascii	"tmp\000"
 2469 0e3c 01       		.byte	0x1
 2470 0e3d A8       		.byte	0xa8
 2471 0e3e 82000000 		.4byte	0x82
 2472 0e42 01       		.uleb128 0x1
 2473 0e43 53       		.byte	0x53
 2474 0e44 00       		.byte	0
 2475 0e45 26       		.uleb128 0x26
 2476 0e46 B10D0000 		.4byte	0xdb1
 2477 0e4a 22000000 		.4byte	.LBB16
 2478 0e4e 00000000 		.4byte	.Ldebug_ranges0+0
 2479 0e52 01       		.byte	0x1
 2480 0e53 AC       		.byte	0xac
 2481 0e54 860E0000 		.4byte	0xe86
 2482 0e58 27       		.uleb128 0x27
 2483 0e59 C80D0000 		.4byte	0xdc8
 2484 0e5d 65000000 		.4byte	.LLST3
 2485 0e61 28       		.uleb128 0x28
 2486 0e62 BD0D0000 		.4byte	0xdbd
 2487 0e66 29       		.uleb128 0x29
 2488 0e67 00000000 		.4byte	.Ldebug_ranges0+0
 2489 0e6b 2A       		.uleb128 0x2a
ARM GAS  /tmp/ccVOA2uB.s 			page 45


 2490 0e6c D20D0000 		.4byte	0xdd2
 2491 0e70 78000000 		.4byte	.LLST4
 2492 0e74 2B       		.uleb128 0x2b
 2493 0e75 66000000 		.4byte	.LVL16
 2494 0e79 D6110000 		.4byte	0x11d6
 2495 0e7d 2C       		.uleb128 0x2c
 2496 0e7e 01       		.uleb128 0x1
 2497 0e7f 50       		.byte	0x50
 2498 0e80 02       		.uleb128 0x2
 2499 0e81 77       		.byte	0x77
 2500 0e82 00       		.sleb128 0
 2501 0e83 00       		.byte	0
 2502 0e84 00       		.byte	0
 2503 0e85 00       		.byte	0
 2504 0e86 25       		.uleb128 0x25
 2505 0e87 68000000 		.4byte	.LBB20
 2506 0e8b 06000000 		.4byte	.LBE20-.LBB20
 2507 0e8f A10E0000 		.4byte	0xea1
 2508 0e93 23       		.uleb128 0x23
 2509 0e94 746D7000 		.ascii	"tmp\000"
 2510 0e98 01       		.byte	0x1
 2511 0e99 B0       		.byte	0xb0
 2512 0e9a 82000000 		.4byte	0x82
 2513 0e9e 01       		.uleb128 0x1
 2514 0e9f 53       		.byte	0x53
 2515 0ea0 00       		.byte	0
 2516 0ea1 25       		.uleb128 0x25
 2517 0ea2 7C000000 		.4byte	.LBB21
 2518 0ea6 06000000 		.4byte	.LBE21-.LBB21
 2519 0eaa BC0E0000 		.4byte	0xebc
 2520 0eae 23       		.uleb128 0x23
 2521 0eaf 746D7000 		.ascii	"tmp\000"
 2522 0eb3 01       		.byte	0x1
 2523 0eb4 C2       		.byte	0xc2
 2524 0eb5 82000000 		.4byte	0x82
 2525 0eb9 01       		.uleb128 0x1
 2526 0eba 53       		.byte	0x53
 2527 0ebb 00       		.byte	0
 2528 0ebc 25       		.uleb128 0x25
 2529 0ebd 8A000000 		.4byte	.LBB22
 2530 0ec1 06000000 		.4byte	.LBE22-.LBB22
 2531 0ec5 D70E0000 		.4byte	0xed7
 2532 0ec9 23       		.uleb128 0x23
 2533 0eca 746D7000 		.ascii	"tmp\000"
 2534 0ece 01       		.byte	0x1
 2535 0ecf C4       		.byte	0xc4
 2536 0ed0 82000000 		.4byte	0x82
 2537 0ed4 01       		.uleb128 0x1
 2538 0ed5 53       		.byte	0x53
 2539 0ed6 00       		.byte	0
 2540 0ed7 25       		.uleb128 0x25
 2541 0ed8 A6000000 		.4byte	.LBB23
 2542 0edc 06000000 		.4byte	.LBE23-.LBB23
 2543 0ee0 F20E0000 		.4byte	0xef2
 2544 0ee4 23       		.uleb128 0x23
 2545 0ee5 746D7000 		.ascii	"tmp\000"
 2546 0ee9 01       		.byte	0x1
ARM GAS  /tmp/ccVOA2uB.s 			page 46


 2547 0eea A1       		.byte	0xa1
 2548 0eeb 82000000 		.4byte	0x82
 2549 0eef 01       		.uleb128 0x1
 2550 0ef0 53       		.byte	0x53
 2551 0ef1 00       		.byte	0
 2552 0ef2 25       		.uleb128 0x25
 2553 0ef3 B6000000 		.4byte	.LBB24
 2554 0ef7 06000000 		.4byte	.LBE24-.LBB24
 2555 0efb 0D0F0000 		.4byte	0xf0d
 2556 0eff 23       		.uleb128 0x23
 2557 0f00 746D7000 		.ascii	"tmp\000"
 2558 0f04 01       		.byte	0x1
 2559 0f05 A3       		.byte	0xa3
 2560 0f06 82000000 		.4byte	0x82
 2561 0f0a 01       		.uleb128 0x1
 2562 0f0b 53       		.byte	0x53
 2563 0f0c 00       		.byte	0
 2564 0f0d 25       		.uleb128 0x25
 2565 0f0e C4000000 		.4byte	.LBB25
 2566 0f12 32000000 		.4byte	.LBE25-.LBB25
 2567 0f16 870F0000 		.4byte	0xf87
 2568 0f1a 24       		.uleb128 0x24
 2569 0f1b 6200     		.ascii	"b\000"
 2570 0f1d 01       		.byte	0x1
 2571 0f1e B4       		.byte	0xb4
 2572 0f1f E0000000 		.4byte	0xe0
 2573 0f23 97000000 		.4byte	.LLST5
 2574 0f27 25       		.uleb128 0x25
 2575 0f28 C4000000 		.4byte	.LBB26
 2576 0f2c 06000000 		.4byte	.LBE26-.LBB26
 2577 0f30 420F0000 		.4byte	0xf42
 2578 0f34 23       		.uleb128 0x23
 2579 0f35 746D7000 		.ascii	"tmp\000"
 2580 0f39 01       		.byte	0x1
 2581 0f3a B5       		.byte	0xb5
 2582 0f3b 82000000 		.4byte	0x82
 2583 0f3f 01       		.uleb128 0x1
 2584 0f40 53       		.byte	0x53
 2585 0f41 00       		.byte	0
 2586 0f42 25       		.uleb128 0x25
 2587 0f43 DA000000 		.4byte	.LBB27
 2588 0f47 08000000 		.4byte	.LBE27-.LBB27
 2589 0f4b 5D0F0000 		.4byte	0xf5d
 2590 0f4f 23       		.uleb128 0x23
 2591 0f50 746D7000 		.ascii	"tmp\000"
 2592 0f54 01       		.byte	0x1
 2593 0f55 BD       		.byte	0xbd
 2594 0f56 82000000 		.4byte	0x82
 2595 0f5a 01       		.uleb128 0x1
 2596 0f5b 53       		.byte	0x53
 2597 0f5c 00       		.byte	0
 2598 0f5d 2D       		.uleb128 0x2d
 2599 0f5e D2000000 		.4byte	.LVL22
 2600 0f62 F2110000 		.4byte	0x11f2
 2601 0f66 710F0000 		.4byte	0xf71
 2602 0f6a 2C       		.uleb128 0x2c
 2603 0f6b 01       		.uleb128 0x1
ARM GAS  /tmp/ccVOA2uB.s 			page 47


 2604 0f6c 50       		.byte	0x50
 2605 0f6d 02       		.uleb128 0x2
 2606 0f6e 76       		.byte	0x76
 2607 0f6f 30       		.sleb128 48
 2608 0f70 00       		.byte	0
 2609 0f71 2B       		.uleb128 0x2b
 2610 0f72 EA000000 		.4byte	.LVL26
 2611 0f76 D6110000 		.4byte	0x11d6
 2612 0f7a 2C       		.uleb128 0x2c
 2613 0f7b 01       		.uleb128 0x1
 2614 0f7c 51       		.byte	0x51
 2615 0f7d 01       		.uleb128 0x1
 2616 0f7e 38       		.byte	0x38
 2617 0f7f 2C       		.uleb128 0x2c
 2618 0f80 01       		.uleb128 0x1
 2619 0f81 50       		.byte	0x50
 2620 0f82 02       		.uleb128 0x2
 2621 0f83 76       		.byte	0x76
 2622 0f84 04       		.sleb128 4
 2623 0f85 00       		.byte	0
 2624 0f86 00       		.byte	0
 2625 0f87 2D       		.uleb128 0x2d
 2626 0f88 30000000 		.4byte	.LVL7
 2627 0f8c 08120000 		.4byte	0x1208
 2628 0f90 9B0F0000 		.4byte	0xf9b
 2629 0f94 2C       		.uleb128 0x2c
 2630 0f95 01       		.uleb128 0x1
 2631 0f96 50       		.byte	0x50
 2632 0f97 02       		.uleb128 0x2
 2633 0f98 76       		.byte	0x76
 2634 0f99 00       		.sleb128 0
 2635 0f9a 00       		.byte	0
 2636 0f9b 2D       		.uleb128 0x2d
 2637 0f9c 8A000000 		.4byte	.LVL17
 2638 0fa0 D6110000 		.4byte	0x11d6
 2639 0fa4 B40F0000 		.4byte	0xfb4
 2640 0fa8 2C       		.uleb128 0x2c
 2641 0fa9 01       		.uleb128 0x1
 2642 0faa 51       		.byte	0x51
 2643 0fab 01       		.uleb128 0x1
 2644 0fac 40       		.byte	0x40
 2645 0fad 2C       		.uleb128 0x2c
 2646 0fae 01       		.uleb128 0x1
 2647 0faf 50       		.byte	0x50
 2648 0fb0 02       		.uleb128 0x2
 2649 0fb1 76       		.byte	0x76
 2650 0fb2 04       		.sleb128 4
 2651 0fb3 00       		.byte	0
 2652 0fb4 2B       		.uleb128 0x2b
 2653 0fb5 B6000000 		.4byte	.LVL20
 2654 0fb9 D6110000 		.4byte	0x11d6
 2655 0fbd 2C       		.uleb128 0x2c
 2656 0fbe 01       		.uleb128 0x1
 2657 0fbf 51       		.byte	0x51
 2658 0fc0 03       		.uleb128 0x3
 2659 0fc1 0A       		.byte	0xa
 2660 0fc2 0002     		.2byte	0x200
ARM GAS  /tmp/ccVOA2uB.s 			page 48


 2661 0fc4 2C       		.uleb128 0x2c
 2662 0fc5 01       		.uleb128 0x1
 2663 0fc6 50       		.byte	0x50
 2664 0fc7 02       		.uleb128 0x2
 2665 0fc8 76       		.byte	0x76
 2666 0fc9 04       		.sleb128 4
 2667 0fca 00       		.byte	0
 2668 0fcb 00       		.byte	0
 2669 0fcc 2E       		.uleb128 0x2e
 2670 0fcd 410B0000 		.4byte	.LASF233
 2671 0fd1 01       		.byte	0x1
 2672 0fd2 0701     		.2byte	0x107
 2673 0fd4 00000000 		.4byte	.LFB124
 2674 0fd8 14000000 		.4byte	.LFE124-.LFB124
 2675 0fdc 01       		.uleb128 0x1
 2676 0fdd 9C       		.byte	0x9c
 2677 0fde 03100000 		.4byte	0x1003
 2678 0fe2 2D       		.uleb128 0x2d
 2679 0fe3 08000000 		.4byte	.LVL27
 2680 0fe7 DE0D0000 		.4byte	0xdde
 2681 0feb F90F0000 		.4byte	0xff9
 2682 0fef 2C       		.uleb128 0x2c
 2683 0ff0 01       		.uleb128 0x1
 2684 0ff1 50       		.byte	0x50
 2685 0ff2 05       		.uleb128 0x5
 2686 0ff3 03       		.byte	0x3
 2687 0ff4 00000000 		.4byte	.LANCHOR0
 2688 0ff8 00       		.byte	0
 2689 0ff9 2F       		.uleb128 0x2f
 2690 0ffa 10000000 		.4byte	.LVL28
 2691 0ffe 1F120000 		.4byte	0x121f
 2692 1002 00       		.byte	0
 2693 1003 2E       		.uleb128 0x2e
 2694 1004 8A000000 		.4byte	.LASF234
 2695 1008 01       		.byte	0x1
 2696 1009 1A01     		.2byte	0x11a
 2697 100b 00000000 		.4byte	.LFB125
 2698 100f 14000000 		.4byte	.LFE125-.LFB125
 2699 1013 01       		.uleb128 0x1
 2700 1014 9C       		.byte	0x9c
 2701 1015 3A100000 		.4byte	0x103a
 2702 1019 2D       		.uleb128 0x2d
 2703 101a 08000000 		.4byte	.LVL29
 2704 101e DE0D0000 		.4byte	0xdde
 2705 1022 30100000 		.4byte	0x1030
 2706 1026 2C       		.uleb128 0x2c
 2707 1027 01       		.uleb128 0x1
 2708 1028 50       		.byte	0x50
 2709 1029 05       		.uleb128 0x5
 2710 102a 03       		.byte	0x3
 2711 102b 00000000 		.4byte	.LANCHOR1
 2712 102f 00       		.byte	0
 2713 1030 2F       		.uleb128 0x2f
 2714 1031 10000000 		.4byte	.LVL30
 2715 1035 1F120000 		.4byte	0x121f
 2716 1039 00       		.byte	0
 2717 103a 2E       		.uleb128 0x2e
ARM GAS  /tmp/ccVOA2uB.s 			page 49


 2718 103b 45060000 		.4byte	.LASF235
 2719 103f 01       		.byte	0x1
 2720 1040 7901     		.2byte	0x179
 2721 1042 00000000 		.4byte	.LFB126
 2722 1046 3C000000 		.4byte	.LFE126-.LFB126
 2723 104a 01       		.uleb128 0x1
 2724 104b 9C       		.byte	0x9c
 2725 104c 91100000 		.4byte	0x1091
 2726 1050 2D       		.uleb128 0x2d
 2727 1051 10000000 		.4byte	.LVL31
 2728 1055 27120000 		.4byte	0x1227
 2729 1059 72100000 		.4byte	0x1072
 2730 105d 2C       		.uleb128 0x2c
 2731 105e 01       		.uleb128 0x1
 2732 105f 52       		.byte	0x52
 2733 1060 05       		.uleb128 0x5
 2734 1061 03       		.byte	0x3
 2735 1062 00000000 		.4byte	notify1
 2736 1066 2C       		.uleb128 0x2c
 2737 1067 01       		.uleb128 0x1
 2738 1068 51       		.byte	0x51
 2739 1069 01       		.uleb128 0x1
 2740 106a 30       		.byte	0x30
 2741 106b 2C       		.uleb128 0x2c
 2742 106c 01       		.uleb128 0x1
 2743 106d 50       		.byte	0x50
 2744 106e 02       		.uleb128 0x2
 2745 106f 75       		.byte	0x75
 2746 1070 00       		.sleb128 0
 2747 1071 00       		.byte	0
 2748 1072 2B       		.uleb128 0x2b
 2749 1073 1E000000 		.4byte	.LVL32
 2750 1077 27120000 		.4byte	0x1227
 2751 107b 2C       		.uleb128 0x2c
 2752 107c 01       		.uleb128 0x1
 2753 107d 52       		.byte	0x52
 2754 107e 05       		.uleb128 0x5
 2755 107f 03       		.byte	0x3
 2756 1080 00000000 		.4byte	notify2
 2757 1084 2C       		.uleb128 0x2c
 2758 1085 01       		.uleb128 0x1
 2759 1086 51       		.byte	0x51
 2760 1087 01       		.uleb128 0x1
 2761 1088 30       		.byte	0x30
 2762 1089 2C       		.uleb128 0x2c
 2763 108a 01       		.uleb128 0x1
 2764 108b 50       		.byte	0x50
 2765 108c 02       		.uleb128 0x2
 2766 108d 74       		.byte	0x74
 2767 108e 00       		.sleb128 0
 2768 108f 00       		.byte	0
 2769 1090 00       		.byte	0
 2770 1091 2E       		.uleb128 0x2e
 2771 1092 5E010000 		.4byte	.LASF236
 2772 1096 01       		.byte	0x1
 2773 1097 A401     		.2byte	0x1a4
 2774 1099 00000000 		.4byte	.LFB127
ARM GAS  /tmp/ccVOA2uB.s 			page 50


 2775 109d B8000000 		.4byte	.LFE127-.LFB127
 2776 10a1 01       		.uleb128 0x1
 2777 10a2 9C       		.byte	0x9c
 2778 10a3 2E110000 		.4byte	0x112e
 2779 10a7 30       		.uleb128 0x30
 2780 10a8 73647000 		.ascii	"sdp\000"
 2781 10ac 01       		.byte	0x1
 2782 10ad A401     		.2byte	0x1a4
 2783 10af 460D0000 		.4byte	0xd46
 2784 10b3 B5000000 		.4byte	.LLST6
 2785 10b7 31       		.uleb128 0x31
 2786 10b8 BB000000 		.4byte	.LASF226
 2787 10bc 01       		.byte	0x1
 2788 10bd A401     		.2byte	0x1a4
 2789 10bf 4C0D0000 		.4byte	0xd4c
 2790 10c3 FF000000 		.4byte	.LLST7
 2791 10c7 32       		.uleb128 0x32
 2792 10c8 1A0D0000 		.4byte	0xd1a
 2793 10cc 14000000 		.4byte	.LBB30
 2794 10d0 18000000 		.4byte	.Ldebug_ranges0+0x18
 2795 10d4 01       		.byte	0x1
 2796 10d5 D501     		.2byte	0x1d5
 2797 10d7 FD100000 		.4byte	0x10fd
 2798 10db 27       		.uleb128 0x27
 2799 10dc 260D0000 		.4byte	0xd26
 2800 10e0 45010000 		.4byte	.LLST8
 2801 10e4 27       		.uleb128 0x27
 2802 10e5 310D0000 		.4byte	0xd31
 2803 10e9 63010000 		.4byte	.LLST9
 2804 10ed 29       		.uleb128 0x29
 2805 10ee 18000000 		.4byte	.Ldebug_ranges0+0x18
 2806 10f2 2A       		.uleb128 0x2a
 2807 10f3 3C0D0000 		.4byte	0xd3c
 2808 10f7 9E010000 		.4byte	.LLST10
 2809 10fb 00       		.byte	0
 2810 10fc 00       		.byte	0
 2811 10fd 2D       		.uleb128 0x2d
 2812 10fe 78000000 		.4byte	.LVL41
 2813 1102 43120000 		.4byte	0x1243
 2814 1106 17110000 		.4byte	0x1117
 2815 110a 2C       		.uleb128 0x2c
 2816 110b 01       		.uleb128 0x1
 2817 110c 51       		.byte	0x51
 2818 110d 02       		.uleb128 0x2
 2819 110e 08       		.byte	0x8
 2820 110f C0       		.byte	0xc0
 2821 1110 2C       		.uleb128 0x2c
 2822 1111 01       		.uleb128 0x1
 2823 1112 50       		.byte	0x50
 2824 1113 02       		.uleb128 0x2
 2825 1114 08       		.byte	0x8
 2826 1115 26       		.byte	0x26
 2827 1116 00       		.byte	0
 2828 1117 2B       		.uleb128 0x2b
 2829 1118 9A000000 		.4byte	.LVL45
 2830 111c 43120000 		.4byte	0x1243
 2831 1120 2C       		.uleb128 0x2c
ARM GAS  /tmp/ccVOA2uB.s 			page 51


 2832 1121 01       		.uleb128 0x1
 2833 1122 51       		.byte	0x51
 2834 1123 02       		.uleb128 0x2
 2835 1124 08       		.byte	0x8
 2836 1125 C0       		.byte	0xc0
 2837 1126 2C       		.uleb128 0x2c
 2838 1127 01       		.uleb128 0x1
 2839 1128 50       		.byte	0x50
 2840 1129 02       		.uleb128 0x2
 2841 112a 08       		.byte	0x8
 2842 112b 25       		.byte	0x25
 2843 112c 00       		.byte	0
 2844 112d 00       		.byte	0
 2845 112e 2E       		.uleb128 0x2e
 2846 112f A20B0000 		.4byte	.LASF237
 2847 1133 01       		.byte	0x1
 2848 1134 E101     		.2byte	0x1e1
 2849 1136 00000000 		.4byte	.LFB128
 2850 113a 4C000000 		.4byte	.LFE128-.LFB128
 2851 113e 01       		.uleb128 0x1
 2852 113f 9C       		.byte	0x9c
 2853 1140 97110000 		.4byte	0x1197
 2854 1144 30       		.uleb128 0x30
 2855 1145 73647000 		.ascii	"sdp\000"
 2856 1149 01       		.byte	0x1
 2857 114a E101     		.2byte	0x1e1
 2858 114c 460D0000 		.4byte	0xd46
 2859 1150 BC010000 		.4byte	.LLST11
 2860 1154 32       		.uleb128 0x32
 2861 1155 570D0000 		.4byte	0xd57
 2862 1159 0C000000 		.4byte	.LBB34
 2863 115d 30000000 		.4byte	.Ldebug_ranges0+0x30
 2864 1161 01       		.byte	0x1
 2865 1162 E401     		.2byte	0x1e4
 2866 1164 72110000 		.4byte	0x1172
 2867 1168 27       		.uleb128 0x27
 2868 1169 630D0000 		.4byte	0xd63
 2869 116d F6010000 		.4byte	.LLST12
 2870 1171 00       		.byte	0
 2871 1172 33       		.uleb128 0x33
 2872 1173 2E000000 		.4byte	.LVL50
 2873 1177 5A120000 		.4byte	0x125a
 2874 117b 86110000 		.4byte	0x1186
 2875 117f 2C       		.uleb128 0x2c
 2876 1180 01       		.uleb128 0x1
 2877 1181 50       		.byte	0x50
 2878 1182 02       		.uleb128 0x2
 2879 1183 08       		.byte	0x8
 2880 1184 26       		.byte	0x26
 2881 1185 00       		.byte	0
 2882 1186 34       		.uleb128 0x34
 2883 1187 3E000000 		.4byte	.LVL53
 2884 118b 5A120000 		.4byte	0x125a
 2885 118f 2C       		.uleb128 0x2c
 2886 1190 01       		.uleb128 0x1
 2887 1191 50       		.byte	0x50
 2888 1192 02       		.uleb128 0x2
ARM GAS  /tmp/ccVOA2uB.s 			page 52


 2889 1193 08       		.byte	0x8
 2890 1194 25       		.byte	0x25
 2891 1195 00       		.byte	0
 2892 1196 00       		.byte	0
 2893 1197 35       		.uleb128 0x35
 2894 1198 C4020000 		.4byte	.LASF238
 2895 119c 01       		.byte	0x1
 2896 119d 49       		.byte	0x49
 2897 119e 520D0000 		.4byte	0xd52
 2898 11a2 05       		.uleb128 0x5
 2899 11a3 03       		.byte	0x3
 2900 11a4 00000000 		.4byte	default_config
 2901 11a8 36       		.uleb128 0x36
 2902 11a9 BF0A0000 		.4byte	.LASF239
 2903 11ad 0F       		.byte	0xf
 2904 11ae 9806     		.2byte	0x698
 2905 11b0 A1080000 		.4byte	0x8a1
 2906 11b4 37       		.uleb128 0x37
 2907 11b5 53443100 		.ascii	"SD1\000"
 2908 11b9 01       		.byte	0x1
 2909 11ba 28       		.byte	0x28
 2910 11bb CC0B0000 		.4byte	0xbcc
 2911 11bf 05       		.uleb128 0x5
 2912 11c0 03       		.byte	0x3
 2913 11c1 00000000 		.4byte	SD1
 2914 11c5 37       		.uleb128 0x37
 2915 11c6 53443200 		.ascii	"SD2\000"
 2916 11ca 01       		.byte	0x1
 2917 11cb 2D       		.byte	0x2d
 2918 11cc CC0B0000 		.4byte	0xbcc
 2919 11d0 05       		.uleb128 0x5
 2920 11d1 03       		.byte	0x3
 2921 11d2 00000000 		.4byte	SD2
 2922 11d6 38       		.uleb128 0x38
 2923 11d7 2D080000 		.4byte	.LASF240
 2924 11db 09       		.byte	0x9
 2925 11dc BA       		.byte	0xba
 2926 11dd EC110000 		.4byte	0x11ec
 2927 11e1 12       		.uleb128 0x12
 2928 11e2 EC110000 		.4byte	0x11ec
 2929 11e6 12       		.uleb128 0x12
 2930 11e7 F6000000 		.4byte	0xf6
 2931 11eb 00       		.byte	0
 2932 11ec 09       		.uleb128 0x9
 2933 11ed 04       		.byte	0x4
 2934 11ee 9A040000 		.4byte	0x49a
 2935 11f2 39       		.uleb128 0x39
 2936 11f3 A0070000 		.4byte	.LASF248
 2937 11f7 0A       		.byte	0xa
 2938 11f8 6E01     		.2byte	0x16e
 2939 11fa E0000000 		.4byte	0xe0
 2940 11fe 08120000 		.4byte	0x1208
 2941 1202 12       		.uleb128 0x12
 2942 1203 140D0000 		.4byte	0xd14
 2943 1207 00       		.byte	0
 2944 1208 3A       		.uleb128 0x3a
 2945 1209 7D060000 		.4byte	.LASF241
ARM GAS  /tmp/ccVOA2uB.s 			page 53


 2946 120d 0C       		.byte	0xc
 2947 120e 3901     		.2byte	0x139
 2948 1210 1F120000 		.4byte	0x121f
 2949 1214 12       		.uleb128 0x12
 2950 1215 460D0000 		.4byte	0xd46
 2951 1219 12       		.uleb128 0x12
 2952 121a 45000000 		.4byte	0x45
 2953 121e 00       		.byte	0
 2954 121f 3B       		.uleb128 0x3b
 2955 1220 A9070000 		.4byte	.LASF249
 2956 1224 07       		.byte	0x7
 2957 1225 0302     		.2byte	0x203
 2958 1227 3A       		.uleb128 0x3a
 2959 1228 7D010000 		.4byte	.LASF242
 2960 122c 0C       		.byte	0xc
 2961 122d 3601     		.2byte	0x136
 2962 122f 43120000 		.4byte	0x1243
 2963 1233 12       		.uleb128 0x12
 2964 1234 460D0000 		.4byte	0xd46
 2965 1238 12       		.uleb128 0x12
 2966 1239 7F050000 		.4byte	0x57f
 2967 123d 12       		.uleb128 0x12
 2968 123e 7F050000 		.4byte	0x57f
 2969 1242 00       		.byte	0
 2970 1243 3A       		.uleb128 0x3a
 2971 1244 270B0000 		.4byte	.LASF243
 2972 1248 0E       		.byte	0xe
 2973 1249 2301     		.2byte	0x123
 2974 124b 5A120000 		.4byte	0x125a
 2975 124f 12       		.uleb128 0x12
 2976 1250 82000000 		.4byte	0x82
 2977 1254 12       		.uleb128 0x12
 2978 1255 82000000 		.4byte	0x82
 2979 1259 00       		.byte	0
 2980 125a 3C       		.uleb128 0x3c
 2981 125b 4B080000 		.4byte	.LASF250
 2982 125f 0E       		.byte	0xe
 2983 1260 2401     		.2byte	0x124
 2984 1262 12       		.uleb128 0x12
 2985 1263 82000000 		.4byte	0x82
 2986 1267 00       		.byte	0
 2987 1268 00       		.byte	0
 2988              		.section	.debug_abbrev,"",%progbits
 2989              	.Ldebug_abbrev0:
 2990 0000 01       		.uleb128 0x1
 2991 0001 11       		.uleb128 0x11
 2992 0002 01       		.byte	0x1
 2993 0003 25       		.uleb128 0x25
 2994 0004 0E       		.uleb128 0xe
 2995 0005 13       		.uleb128 0x13
 2996 0006 0B       		.uleb128 0xb
 2997 0007 03       		.uleb128 0x3
 2998 0008 0E       		.uleb128 0xe
 2999 0009 1B       		.uleb128 0x1b
 3000 000a 0E       		.uleb128 0xe
 3001 000b 55       		.uleb128 0x55
 3002 000c 17       		.uleb128 0x17
ARM GAS  /tmp/ccVOA2uB.s 			page 54


 3003 000d 11       		.uleb128 0x11
 3004 000e 01       		.uleb128 0x1
 3005 000f 10       		.uleb128 0x10
 3006 0010 17       		.uleb128 0x17
 3007 0011 00       		.byte	0
 3008 0012 00       		.byte	0
 3009 0013 02       		.uleb128 0x2
 3010 0014 24       		.uleb128 0x24
 3011 0015 00       		.byte	0
 3012 0016 0B       		.uleb128 0xb
 3013 0017 0B       		.uleb128 0xb
 3014 0018 3E       		.uleb128 0x3e
 3015 0019 0B       		.uleb128 0xb
 3016 001a 03       		.uleb128 0x3
 3017 001b 08       		.uleb128 0x8
 3018 001c 00       		.byte	0
 3019 001d 00       		.byte	0
 3020 001e 03       		.uleb128 0x3
 3021 001f 16       		.uleb128 0x16
 3022 0020 00       		.byte	0
 3023 0021 03       		.uleb128 0x3
 3024 0022 0E       		.uleb128 0xe
 3025 0023 3A       		.uleb128 0x3a
 3026 0024 0B       		.uleb128 0xb
 3027 0025 3B       		.uleb128 0x3b
 3028 0026 0B       		.uleb128 0xb
 3029 0027 49       		.uleb128 0x49
 3030 0028 13       		.uleb128 0x13
 3031 0029 00       		.byte	0
 3032 002a 00       		.byte	0
 3033 002b 04       		.uleb128 0x4
 3034 002c 24       		.uleb128 0x24
 3035 002d 00       		.byte	0
 3036 002e 0B       		.uleb128 0xb
 3037 002f 0B       		.uleb128 0xb
 3038 0030 3E       		.uleb128 0x3e
 3039 0031 0B       		.uleb128 0xb
 3040 0032 03       		.uleb128 0x3
 3041 0033 0E       		.uleb128 0xe
 3042 0034 00       		.byte	0
 3043 0035 00       		.byte	0
 3044 0036 05       		.uleb128 0x5
 3045 0037 13       		.uleb128 0x13
 3046 0038 01       		.byte	0x1
 3047 0039 03       		.uleb128 0x3
 3048 003a 0E       		.uleb128 0xe
 3049 003b 0B       		.uleb128 0xb
 3050 003c 0B       		.uleb128 0xb
 3051 003d 3A       		.uleb128 0x3a
 3052 003e 0B       		.uleb128 0xb
 3053 003f 3B       		.uleb128 0x3b
 3054 0040 0B       		.uleb128 0xb
 3055 0041 01       		.uleb128 0x1
 3056 0042 13       		.uleb128 0x13
 3057 0043 00       		.byte	0
 3058 0044 00       		.byte	0
 3059 0045 06       		.uleb128 0x6
ARM GAS  /tmp/ccVOA2uB.s 			page 55


 3060 0046 0D       		.uleb128 0xd
 3061 0047 00       		.byte	0
 3062 0048 03       		.uleb128 0x3
 3063 0049 0E       		.uleb128 0xe
 3064 004a 3A       		.uleb128 0x3a
 3065 004b 0B       		.uleb128 0xb
 3066 004c 3B       		.uleb128 0x3b
 3067 004d 0B       		.uleb128 0xb
 3068 004e 49       		.uleb128 0x49
 3069 004f 13       		.uleb128 0x13
 3070 0050 38       		.uleb128 0x38
 3071 0051 0B       		.uleb128 0xb
 3072 0052 00       		.byte	0
 3073 0053 00       		.byte	0
 3074 0054 07       		.uleb128 0x7
 3075 0055 0D       		.uleb128 0xd
 3076 0056 00       		.byte	0
 3077 0057 03       		.uleb128 0x3
 3078 0058 08       		.uleb128 0x8
 3079 0059 3A       		.uleb128 0x3a
 3080 005a 0B       		.uleb128 0xb
 3081 005b 3B       		.uleb128 0x3b
 3082 005c 0B       		.uleb128 0xb
 3083 005d 49       		.uleb128 0x49
 3084 005e 13       		.uleb128 0x13
 3085 005f 38       		.uleb128 0x38
 3086 0060 0B       		.uleb128 0xb
 3087 0061 00       		.byte	0
 3088 0062 00       		.byte	0
 3089 0063 08       		.uleb128 0x8
 3090 0064 13       		.uleb128 0x13
 3091 0065 01       		.byte	0x1
 3092 0066 0B       		.uleb128 0xb
 3093 0067 0B       		.uleb128 0xb
 3094 0068 3A       		.uleb128 0x3a
 3095 0069 0B       		.uleb128 0xb
 3096 006a 3B       		.uleb128 0x3b
 3097 006b 0B       		.uleb128 0xb
 3098 006c 01       		.uleb128 0x1
 3099 006d 13       		.uleb128 0x13
 3100 006e 00       		.byte	0
 3101 006f 00       		.byte	0
 3102 0070 09       		.uleb128 0x9
 3103 0071 0F       		.uleb128 0xf
 3104 0072 00       		.byte	0
 3105 0073 0B       		.uleb128 0xb
 3106 0074 0B       		.uleb128 0xb
 3107 0075 49       		.uleb128 0x49
 3108 0076 13       		.uleb128 0x13
 3109 0077 00       		.byte	0
 3110 0078 00       		.byte	0
 3111 0079 0A       		.uleb128 0xa
 3112 007a 0F       		.uleb128 0xf
 3113 007b 00       		.byte	0
 3114 007c 0B       		.uleb128 0xb
 3115 007d 0B       		.uleb128 0xb
 3116 007e 00       		.byte	0
ARM GAS  /tmp/ccVOA2uB.s 			page 56


 3117 007f 00       		.byte	0
 3118 0080 0B       		.uleb128 0xb
 3119 0081 13       		.uleb128 0x13
 3120 0082 01       		.byte	0x1
 3121 0083 03       		.uleb128 0x3
 3122 0084 0E       		.uleb128 0xe
 3123 0085 0B       		.uleb128 0xb
 3124 0086 0B       		.uleb128 0xb
 3125 0087 3A       		.uleb128 0x3a
 3126 0088 0B       		.uleb128 0xb
 3127 0089 3B       		.uleb128 0x3b
 3128 008a 05       		.uleb128 0x5
 3129 008b 01       		.uleb128 0x1
 3130 008c 13       		.uleb128 0x13
 3131 008d 00       		.byte	0
 3132 008e 00       		.byte	0
 3133 008f 0C       		.uleb128 0xc
 3134 0090 0D       		.uleb128 0xd
 3135 0091 00       		.byte	0
 3136 0092 03       		.uleb128 0x3
 3137 0093 08       		.uleb128 0x8
 3138 0094 3A       		.uleb128 0x3a
 3139 0095 0B       		.uleb128 0xb
 3140 0096 3B       		.uleb128 0x3b
 3141 0097 05       		.uleb128 0x5
 3142 0098 49       		.uleb128 0x49
 3143 0099 13       		.uleb128 0x13
 3144 009a 38       		.uleb128 0x38
 3145 009b 0B       		.uleb128 0xb
 3146 009c 00       		.byte	0
 3147 009d 00       		.byte	0
 3148 009e 0D       		.uleb128 0xd
 3149 009f 35       		.uleb128 0x35
 3150 00a0 00       		.byte	0
 3151 00a1 49       		.uleb128 0x49
 3152 00a2 13       		.uleb128 0x13
 3153 00a3 00       		.byte	0
 3154 00a4 00       		.byte	0
 3155 00a5 0E       		.uleb128 0xe
 3156 00a6 17       		.uleb128 0x17
 3157 00a7 01       		.byte	0x1
 3158 00a8 0B       		.uleb128 0xb
 3159 00a9 0B       		.uleb128 0xb
 3160 00aa 3A       		.uleb128 0x3a
 3161 00ab 0B       		.uleb128 0xb
 3162 00ac 3B       		.uleb128 0x3b
 3163 00ad 0B       		.uleb128 0xb
 3164 00ae 01       		.uleb128 0x1
 3165 00af 13       		.uleb128 0x13
 3166 00b0 00       		.byte	0
 3167 00b1 00       		.byte	0
 3168 00b2 0F       		.uleb128 0xf
 3169 00b3 0D       		.uleb128 0xd
 3170 00b4 00       		.byte	0
 3171 00b5 03       		.uleb128 0x3
 3172 00b6 0E       		.uleb128 0xe
 3173 00b7 3A       		.uleb128 0x3a
ARM GAS  /tmp/ccVOA2uB.s 			page 57


 3174 00b8 0B       		.uleb128 0xb
 3175 00b9 3B       		.uleb128 0x3b
 3176 00ba 0B       		.uleb128 0xb
 3177 00bb 49       		.uleb128 0x49
 3178 00bc 13       		.uleb128 0x13
 3179 00bd 00       		.byte	0
 3180 00be 00       		.byte	0
 3181 00bf 10       		.uleb128 0x10
 3182 00c0 26       		.uleb128 0x26
 3183 00c1 00       		.byte	0
 3184 00c2 49       		.uleb128 0x49
 3185 00c3 13       		.uleb128 0x13
 3186 00c4 00       		.byte	0
 3187 00c5 00       		.byte	0
 3188 00c6 11       		.uleb128 0x11
 3189 00c7 15       		.uleb128 0x15
 3190 00c8 01       		.byte	0x1
 3191 00c9 27       		.uleb128 0x27
 3192 00ca 19       		.uleb128 0x19
 3193 00cb 49       		.uleb128 0x49
 3194 00cc 13       		.uleb128 0x13
 3195 00cd 01       		.uleb128 0x1
 3196 00ce 13       		.uleb128 0x13
 3197 00cf 00       		.byte	0
 3198 00d0 00       		.byte	0
 3199 00d1 12       		.uleb128 0x12
 3200 00d2 05       		.uleb128 0x5
 3201 00d3 00       		.byte	0
 3202 00d4 49       		.uleb128 0x49
 3203 00d5 13       		.uleb128 0x13
 3204 00d6 00       		.byte	0
 3205 00d7 00       		.byte	0
 3206 00d8 13       		.uleb128 0x13
 3207 00d9 15       		.uleb128 0x15
 3208 00da 01       		.byte	0x1
 3209 00db 27       		.uleb128 0x27
 3210 00dc 19       		.uleb128 0x19
 3211 00dd 01       		.uleb128 0x1
 3212 00de 13       		.uleb128 0x13
 3213 00df 00       		.byte	0
 3214 00e0 00       		.byte	0
 3215 00e1 14       		.uleb128 0x14
 3216 00e2 04       		.uleb128 0x4
 3217 00e3 01       		.byte	0x1
 3218 00e4 03       		.uleb128 0x3
 3219 00e5 0E       		.uleb128 0xe
 3220 00e6 0B       		.uleb128 0xb
 3221 00e7 0B       		.uleb128 0xb
 3222 00e8 3A       		.uleb128 0x3a
 3223 00e9 0B       		.uleb128 0xb
 3224 00ea 3B       		.uleb128 0x3b
 3225 00eb 0B       		.uleb128 0xb
 3226 00ec 01       		.uleb128 0x1
 3227 00ed 13       		.uleb128 0x13
 3228 00ee 00       		.byte	0
 3229 00ef 00       		.byte	0
 3230 00f0 15       		.uleb128 0x15
ARM GAS  /tmp/ccVOA2uB.s 			page 58


 3231 00f1 28       		.uleb128 0x28
 3232 00f2 00       		.byte	0
 3233 00f3 03       		.uleb128 0x3
 3234 00f4 0E       		.uleb128 0xe
 3235 00f5 1C       		.uleb128 0x1c
 3236 00f6 0D       		.uleb128 0xd
 3237 00f7 00       		.byte	0
 3238 00f8 00       		.byte	0
 3239 00f9 16       		.uleb128 0x16
 3240 00fa 01       		.uleb128 0x1
 3241 00fb 01       		.byte	0x1
 3242 00fc 49       		.uleb128 0x49
 3243 00fd 13       		.uleb128 0x13
 3244 00fe 01       		.uleb128 0x1
 3245 00ff 13       		.uleb128 0x13
 3246 0100 00       		.byte	0
 3247 0101 00       		.byte	0
 3248 0102 17       		.uleb128 0x17
 3249 0103 21       		.uleb128 0x21
 3250 0104 00       		.byte	0
 3251 0105 49       		.uleb128 0x49
 3252 0106 13       		.uleb128 0x13
 3253 0107 2F       		.uleb128 0x2f
 3254 0108 0B       		.uleb128 0xb
 3255 0109 00       		.byte	0
 3256 010a 00       		.byte	0
 3257 010b 18       		.uleb128 0x18
 3258 010c 13       		.uleb128 0x13
 3259 010d 01       		.byte	0x1
 3260 010e 0B       		.uleb128 0xb
 3261 010f 0B       		.uleb128 0xb
 3262 0110 3A       		.uleb128 0x3a
 3263 0111 0B       		.uleb128 0xb
 3264 0112 3B       		.uleb128 0x3b
 3265 0113 05       		.uleb128 0x5
 3266 0114 01       		.uleb128 0x1
 3267 0115 13       		.uleb128 0x13
 3268 0116 00       		.byte	0
 3269 0117 00       		.byte	0
 3270 0118 19       		.uleb128 0x19
 3271 0119 0D       		.uleb128 0xd
 3272 011a 00       		.byte	0
 3273 011b 03       		.uleb128 0x3
 3274 011c 0E       		.uleb128 0xe
 3275 011d 3A       		.uleb128 0x3a
 3276 011e 0B       		.uleb128 0xb
 3277 011f 3B       		.uleb128 0x3b
 3278 0120 05       		.uleb128 0x5
 3279 0121 49       		.uleb128 0x49
 3280 0122 13       		.uleb128 0x13
 3281 0123 38       		.uleb128 0x38
 3282 0124 0B       		.uleb128 0xb
 3283 0125 00       		.byte	0
 3284 0126 00       		.byte	0
 3285 0127 1A       		.uleb128 0x1a
 3286 0128 16       		.uleb128 0x16
 3287 0129 00       		.byte	0
ARM GAS  /tmp/ccVOA2uB.s 			page 59


 3288 012a 03       		.uleb128 0x3
 3289 012b 0E       		.uleb128 0xe
 3290 012c 3A       		.uleb128 0x3a
 3291 012d 0B       		.uleb128 0xb
 3292 012e 3B       		.uleb128 0x3b
 3293 012f 05       		.uleb128 0x5
 3294 0130 49       		.uleb128 0x49
 3295 0131 13       		.uleb128 0x13
 3296 0132 00       		.byte	0
 3297 0133 00       		.byte	0
 3298 0134 1B       		.uleb128 0x1b
 3299 0135 04       		.uleb128 0x4
 3300 0136 01       		.byte	0x1
 3301 0137 0B       		.uleb128 0xb
 3302 0138 0B       		.uleb128 0xb
 3303 0139 3A       		.uleb128 0x3a
 3304 013a 0B       		.uleb128 0xb
 3305 013b 3B       		.uleb128 0x3b
 3306 013c 0B       		.uleb128 0xb
 3307 013d 01       		.uleb128 0x1
 3308 013e 13       		.uleb128 0x13
 3309 013f 00       		.byte	0
 3310 0140 00       		.byte	0
 3311 0141 1C       		.uleb128 0x1c
 3312 0142 2E       		.uleb128 0x2e
 3313 0143 01       		.byte	0x1
 3314 0144 03       		.uleb128 0x3
 3315 0145 0E       		.uleb128 0xe
 3316 0146 3A       		.uleb128 0x3a
 3317 0147 0B       		.uleb128 0xb
 3318 0148 3B       		.uleb128 0x3b
 3319 0149 0B       		.uleb128 0xb
 3320 014a 27       		.uleb128 0x27
 3321 014b 19       		.uleb128 0x19
 3322 014c 20       		.uleb128 0x20
 3323 014d 0B       		.uleb128 0xb
 3324 014e 01       		.uleb128 0x1
 3325 014f 13       		.uleb128 0x13
 3326 0150 00       		.byte	0
 3327 0151 00       		.byte	0
 3328 0152 1D       		.uleb128 0x1d
 3329 0153 05       		.uleb128 0x5
 3330 0154 00       		.byte	0
 3331 0155 03       		.uleb128 0x3
 3332 0156 08       		.uleb128 0x8
 3333 0157 3A       		.uleb128 0x3a
 3334 0158 0B       		.uleb128 0xb
 3335 0159 3B       		.uleb128 0x3b
 3336 015a 0B       		.uleb128 0xb
 3337 015b 49       		.uleb128 0x49
 3338 015c 13       		.uleb128 0x13
 3339 015d 00       		.byte	0
 3340 015e 00       		.byte	0
 3341 015f 1E       		.uleb128 0x1e
 3342 0160 05       		.uleb128 0x5
 3343 0161 00       		.byte	0
 3344 0162 03       		.uleb128 0x3
ARM GAS  /tmp/ccVOA2uB.s 			page 60


 3345 0163 0E       		.uleb128 0xe
 3346 0164 3A       		.uleb128 0x3a
 3347 0165 0B       		.uleb128 0xb
 3348 0166 3B       		.uleb128 0x3b
 3349 0167 0B       		.uleb128 0xb
 3350 0168 49       		.uleb128 0x49
 3351 0169 13       		.uleb128 0x13
 3352 016a 00       		.byte	0
 3353 016b 00       		.byte	0
 3354 016c 1F       		.uleb128 0x1f
 3355 016d 34       		.uleb128 0x34
 3356 016e 00       		.byte	0
 3357 016f 03       		.uleb128 0x3
 3358 0170 08       		.uleb128 0x8
 3359 0171 3A       		.uleb128 0x3a
 3360 0172 0B       		.uleb128 0xb
 3361 0173 3B       		.uleb128 0x3b
 3362 0174 0B       		.uleb128 0xb
 3363 0175 49       		.uleb128 0x49
 3364 0176 13       		.uleb128 0x13
 3365 0177 00       		.byte	0
 3366 0178 00       		.byte	0
 3367 0179 20       		.uleb128 0x20
 3368 017a 2E       		.uleb128 0x2e
 3369 017b 01       		.byte	0x1
 3370 017c 03       		.uleb128 0x3
 3371 017d 0E       		.uleb128 0xe
 3372 017e 3A       		.uleb128 0x3a
 3373 017f 0B       		.uleb128 0xb
 3374 0180 3B       		.uleb128 0x3b
 3375 0181 0B       		.uleb128 0xb
 3376 0182 27       		.uleb128 0x27
 3377 0183 19       		.uleb128 0x19
 3378 0184 11       		.uleb128 0x11
 3379 0185 01       		.uleb128 0x1
 3380 0186 12       		.uleb128 0x12
 3381 0187 06       		.uleb128 0x6
 3382 0188 40       		.uleb128 0x40
 3383 0189 18       		.uleb128 0x18
 3384 018a 9742     		.uleb128 0x2117
 3385 018c 19       		.uleb128 0x19
 3386 018d 01       		.uleb128 0x1
 3387 018e 13       		.uleb128 0x13
 3388 018f 00       		.byte	0
 3389 0190 00       		.byte	0
 3390 0191 21       		.uleb128 0x21
 3391 0192 05       		.uleb128 0x5
 3392 0193 00       		.byte	0
 3393 0194 03       		.uleb128 0x3
 3394 0195 08       		.uleb128 0x8
 3395 0196 3A       		.uleb128 0x3a
 3396 0197 0B       		.uleb128 0xb
 3397 0198 3B       		.uleb128 0x3b
 3398 0199 0B       		.uleb128 0xb
 3399 019a 49       		.uleb128 0x49
 3400 019b 13       		.uleb128 0x13
 3401 019c 02       		.uleb128 0x2
ARM GAS  /tmp/ccVOA2uB.s 			page 61


 3402 019d 18       		.uleb128 0x18
 3403 019e 00       		.byte	0
 3404 019f 00       		.byte	0
 3405 01a0 22       		.uleb128 0x22
 3406 01a1 05       		.uleb128 0x5
 3407 01a2 00       		.byte	0
 3408 01a3 03       		.uleb128 0x3
 3409 01a4 08       		.uleb128 0x8
 3410 01a5 3A       		.uleb128 0x3a
 3411 01a6 0B       		.uleb128 0xb
 3412 01a7 3B       		.uleb128 0x3b
 3413 01a8 0B       		.uleb128 0xb
 3414 01a9 49       		.uleb128 0x49
 3415 01aa 13       		.uleb128 0x13
 3416 01ab 02       		.uleb128 0x2
 3417 01ac 17       		.uleb128 0x17
 3418 01ad 00       		.byte	0
 3419 01ae 00       		.byte	0
 3420 01af 23       		.uleb128 0x23
 3421 01b0 34       		.uleb128 0x34
 3422 01b1 00       		.byte	0
 3423 01b2 03       		.uleb128 0x3
 3424 01b3 08       		.uleb128 0x8
 3425 01b4 3A       		.uleb128 0x3a
 3426 01b5 0B       		.uleb128 0xb
 3427 01b6 3B       		.uleb128 0x3b
 3428 01b7 0B       		.uleb128 0xb
 3429 01b8 49       		.uleb128 0x49
 3430 01b9 13       		.uleb128 0x13
 3431 01ba 02       		.uleb128 0x2
 3432 01bb 18       		.uleb128 0x18
 3433 01bc 00       		.byte	0
 3434 01bd 00       		.byte	0
 3435 01be 24       		.uleb128 0x24
 3436 01bf 34       		.uleb128 0x34
 3437 01c0 00       		.byte	0
 3438 01c1 03       		.uleb128 0x3
 3439 01c2 08       		.uleb128 0x8
 3440 01c3 3A       		.uleb128 0x3a
 3441 01c4 0B       		.uleb128 0xb
 3442 01c5 3B       		.uleb128 0x3b
 3443 01c6 0B       		.uleb128 0xb
 3444 01c7 49       		.uleb128 0x49
 3445 01c8 13       		.uleb128 0x13
 3446 01c9 02       		.uleb128 0x2
 3447 01ca 17       		.uleb128 0x17
 3448 01cb 00       		.byte	0
 3449 01cc 00       		.byte	0
 3450 01cd 25       		.uleb128 0x25
 3451 01ce 0B       		.uleb128 0xb
 3452 01cf 01       		.byte	0x1
 3453 01d0 11       		.uleb128 0x11
 3454 01d1 01       		.uleb128 0x1
 3455 01d2 12       		.uleb128 0x12
 3456 01d3 06       		.uleb128 0x6
 3457 01d4 01       		.uleb128 0x1
 3458 01d5 13       		.uleb128 0x13
ARM GAS  /tmp/ccVOA2uB.s 			page 62


 3459 01d6 00       		.byte	0
 3460 01d7 00       		.byte	0
 3461 01d8 26       		.uleb128 0x26
 3462 01d9 1D       		.uleb128 0x1d
 3463 01da 01       		.byte	0x1
 3464 01db 31       		.uleb128 0x31
 3465 01dc 13       		.uleb128 0x13
 3466 01dd 52       		.uleb128 0x52
 3467 01de 01       		.uleb128 0x1
 3468 01df 55       		.uleb128 0x55
 3469 01e0 17       		.uleb128 0x17
 3470 01e1 58       		.uleb128 0x58
 3471 01e2 0B       		.uleb128 0xb
 3472 01e3 59       		.uleb128 0x59
 3473 01e4 0B       		.uleb128 0xb
 3474 01e5 01       		.uleb128 0x1
 3475 01e6 13       		.uleb128 0x13
 3476 01e7 00       		.byte	0
 3477 01e8 00       		.byte	0
 3478 01e9 27       		.uleb128 0x27
 3479 01ea 05       		.uleb128 0x5
 3480 01eb 00       		.byte	0
 3481 01ec 31       		.uleb128 0x31
 3482 01ed 13       		.uleb128 0x13
 3483 01ee 02       		.uleb128 0x2
 3484 01ef 17       		.uleb128 0x17
 3485 01f0 00       		.byte	0
 3486 01f1 00       		.byte	0
 3487 01f2 28       		.uleb128 0x28
 3488 01f3 05       		.uleb128 0x5
 3489 01f4 00       		.byte	0
 3490 01f5 31       		.uleb128 0x31
 3491 01f6 13       		.uleb128 0x13
 3492 01f7 00       		.byte	0
 3493 01f8 00       		.byte	0
 3494 01f9 29       		.uleb128 0x29
 3495 01fa 0B       		.uleb128 0xb
 3496 01fb 01       		.byte	0x1
 3497 01fc 55       		.uleb128 0x55
 3498 01fd 17       		.uleb128 0x17
 3499 01fe 00       		.byte	0
 3500 01ff 00       		.byte	0
 3501 0200 2A       		.uleb128 0x2a
 3502 0201 34       		.uleb128 0x34
 3503 0202 00       		.byte	0
 3504 0203 31       		.uleb128 0x31
 3505 0204 13       		.uleb128 0x13
 3506 0205 02       		.uleb128 0x2
 3507 0206 17       		.uleb128 0x17
 3508 0207 00       		.byte	0
 3509 0208 00       		.byte	0
 3510 0209 2B       		.uleb128 0x2b
 3511 020a 898201   		.uleb128 0x4109
 3512 020d 01       		.byte	0x1
 3513 020e 11       		.uleb128 0x11
 3514 020f 01       		.uleb128 0x1
 3515 0210 31       		.uleb128 0x31
ARM GAS  /tmp/ccVOA2uB.s 			page 63


 3516 0211 13       		.uleb128 0x13
 3517 0212 00       		.byte	0
 3518 0213 00       		.byte	0
 3519 0214 2C       		.uleb128 0x2c
 3520 0215 8A8201   		.uleb128 0x410a
 3521 0218 00       		.byte	0
 3522 0219 02       		.uleb128 0x2
 3523 021a 18       		.uleb128 0x18
 3524 021b 9142     		.uleb128 0x2111
 3525 021d 18       		.uleb128 0x18
 3526 021e 00       		.byte	0
 3527 021f 00       		.byte	0
 3528 0220 2D       		.uleb128 0x2d
 3529 0221 898201   		.uleb128 0x4109
 3530 0224 01       		.byte	0x1
 3531 0225 11       		.uleb128 0x11
 3532 0226 01       		.uleb128 0x1
 3533 0227 31       		.uleb128 0x31
 3534 0228 13       		.uleb128 0x13
 3535 0229 01       		.uleb128 0x1
 3536 022a 13       		.uleb128 0x13
 3537 022b 00       		.byte	0
 3538 022c 00       		.byte	0
 3539 022d 2E       		.uleb128 0x2e
 3540 022e 2E       		.uleb128 0x2e
 3541 022f 01       		.byte	0x1
 3542 0230 3F       		.uleb128 0x3f
 3543 0231 19       		.uleb128 0x19
 3544 0232 03       		.uleb128 0x3
 3545 0233 0E       		.uleb128 0xe
 3546 0234 3A       		.uleb128 0x3a
 3547 0235 0B       		.uleb128 0xb
 3548 0236 3B       		.uleb128 0x3b
 3549 0237 05       		.uleb128 0x5
 3550 0238 27       		.uleb128 0x27
 3551 0239 19       		.uleb128 0x19
 3552 023a 11       		.uleb128 0x11
 3553 023b 01       		.uleb128 0x1
 3554 023c 12       		.uleb128 0x12
 3555 023d 06       		.uleb128 0x6
 3556 023e 40       		.uleb128 0x40
 3557 023f 18       		.uleb128 0x18
 3558 0240 9742     		.uleb128 0x2117
 3559 0242 19       		.uleb128 0x19
 3560 0243 01       		.uleb128 0x1
 3561 0244 13       		.uleb128 0x13
 3562 0245 00       		.byte	0
 3563 0246 00       		.byte	0
 3564 0247 2F       		.uleb128 0x2f
 3565 0248 898201   		.uleb128 0x4109
 3566 024b 00       		.byte	0
 3567 024c 11       		.uleb128 0x11
 3568 024d 01       		.uleb128 0x1
 3569 024e 9542     		.uleb128 0x2115
 3570 0250 19       		.uleb128 0x19
 3571 0251 31       		.uleb128 0x31
 3572 0252 13       		.uleb128 0x13
ARM GAS  /tmp/ccVOA2uB.s 			page 64


 3573 0253 00       		.byte	0
 3574 0254 00       		.byte	0
 3575 0255 30       		.uleb128 0x30
 3576 0256 05       		.uleb128 0x5
 3577 0257 00       		.byte	0
 3578 0258 03       		.uleb128 0x3
 3579 0259 08       		.uleb128 0x8
 3580 025a 3A       		.uleb128 0x3a
 3581 025b 0B       		.uleb128 0xb
 3582 025c 3B       		.uleb128 0x3b
 3583 025d 05       		.uleb128 0x5
 3584 025e 49       		.uleb128 0x49
 3585 025f 13       		.uleb128 0x13
 3586 0260 02       		.uleb128 0x2
 3587 0261 17       		.uleb128 0x17
 3588 0262 00       		.byte	0
 3589 0263 00       		.byte	0
 3590 0264 31       		.uleb128 0x31
 3591 0265 05       		.uleb128 0x5
 3592 0266 00       		.byte	0
 3593 0267 03       		.uleb128 0x3
 3594 0268 0E       		.uleb128 0xe
 3595 0269 3A       		.uleb128 0x3a
 3596 026a 0B       		.uleb128 0xb
 3597 026b 3B       		.uleb128 0x3b
 3598 026c 05       		.uleb128 0x5
 3599 026d 49       		.uleb128 0x49
 3600 026e 13       		.uleb128 0x13
 3601 026f 02       		.uleb128 0x2
 3602 0270 17       		.uleb128 0x17
 3603 0271 00       		.byte	0
 3604 0272 00       		.byte	0
 3605 0273 32       		.uleb128 0x32
 3606 0274 1D       		.uleb128 0x1d
 3607 0275 01       		.byte	0x1
 3608 0276 31       		.uleb128 0x31
 3609 0277 13       		.uleb128 0x13
 3610 0278 52       		.uleb128 0x52
 3611 0279 01       		.uleb128 0x1
 3612 027a 55       		.uleb128 0x55
 3613 027b 17       		.uleb128 0x17
 3614 027c 58       		.uleb128 0x58
 3615 027d 0B       		.uleb128 0xb
 3616 027e 59       		.uleb128 0x59
 3617 027f 05       		.uleb128 0x5
 3618 0280 01       		.uleb128 0x1
 3619 0281 13       		.uleb128 0x13
 3620 0282 00       		.byte	0
 3621 0283 00       		.byte	0
 3622 0284 33       		.uleb128 0x33
 3623 0285 898201   		.uleb128 0x4109
 3624 0288 01       		.byte	0x1
 3625 0289 11       		.uleb128 0x11
 3626 028a 01       		.uleb128 0x1
 3627 028b 9542     		.uleb128 0x2115
 3628 028d 19       		.uleb128 0x19
 3629 028e 31       		.uleb128 0x31
ARM GAS  /tmp/ccVOA2uB.s 			page 65


 3630 028f 13       		.uleb128 0x13
 3631 0290 01       		.uleb128 0x1
 3632 0291 13       		.uleb128 0x13
 3633 0292 00       		.byte	0
 3634 0293 00       		.byte	0
 3635 0294 34       		.uleb128 0x34
 3636 0295 898201   		.uleb128 0x4109
 3637 0298 01       		.byte	0x1
 3638 0299 11       		.uleb128 0x11
 3639 029a 01       		.uleb128 0x1
 3640 029b 9542     		.uleb128 0x2115
 3641 029d 19       		.uleb128 0x19
 3642 029e 31       		.uleb128 0x31
 3643 029f 13       		.uleb128 0x13
 3644 02a0 00       		.byte	0
 3645 02a1 00       		.byte	0
 3646 02a2 35       		.uleb128 0x35
 3647 02a3 34       		.uleb128 0x34
 3648 02a4 00       		.byte	0
 3649 02a5 03       		.uleb128 0x3
 3650 02a6 0E       		.uleb128 0xe
 3651 02a7 3A       		.uleb128 0x3a
 3652 02a8 0B       		.uleb128 0xb
 3653 02a9 3B       		.uleb128 0x3b
 3654 02aa 0B       		.uleb128 0xb
 3655 02ab 49       		.uleb128 0x49
 3656 02ac 13       		.uleb128 0x13
 3657 02ad 02       		.uleb128 0x2
 3658 02ae 18       		.uleb128 0x18
 3659 02af 00       		.byte	0
 3660 02b0 00       		.byte	0
 3661 02b1 36       		.uleb128 0x36
 3662 02b2 34       		.uleb128 0x34
 3663 02b3 00       		.byte	0
 3664 02b4 03       		.uleb128 0x3
 3665 02b5 0E       		.uleb128 0xe
 3666 02b6 3A       		.uleb128 0x3a
 3667 02b7 0B       		.uleb128 0xb
 3668 02b8 3B       		.uleb128 0x3b
 3669 02b9 05       		.uleb128 0x5
 3670 02ba 49       		.uleb128 0x49
 3671 02bb 13       		.uleb128 0x13
 3672 02bc 3F       		.uleb128 0x3f
 3673 02bd 19       		.uleb128 0x19
 3674 02be 3C       		.uleb128 0x3c
 3675 02bf 19       		.uleb128 0x19
 3676 02c0 00       		.byte	0
 3677 02c1 00       		.byte	0
 3678 02c2 37       		.uleb128 0x37
 3679 02c3 34       		.uleb128 0x34
 3680 02c4 00       		.byte	0
 3681 02c5 03       		.uleb128 0x3
 3682 02c6 08       		.uleb128 0x8
 3683 02c7 3A       		.uleb128 0x3a
 3684 02c8 0B       		.uleb128 0xb
 3685 02c9 3B       		.uleb128 0x3b
 3686 02ca 0B       		.uleb128 0xb
ARM GAS  /tmp/ccVOA2uB.s 			page 66


 3687 02cb 49       		.uleb128 0x49
 3688 02cc 13       		.uleb128 0x13
 3689 02cd 3F       		.uleb128 0x3f
 3690 02ce 19       		.uleb128 0x19
 3691 02cf 02       		.uleb128 0x2
 3692 02d0 18       		.uleb128 0x18
 3693 02d1 00       		.byte	0
 3694 02d2 00       		.byte	0
 3695 02d3 38       		.uleb128 0x38
 3696 02d4 2E       		.uleb128 0x2e
 3697 02d5 01       		.byte	0x1
 3698 02d6 3F       		.uleb128 0x3f
 3699 02d7 19       		.uleb128 0x19
 3700 02d8 03       		.uleb128 0x3
 3701 02d9 0E       		.uleb128 0xe
 3702 02da 3A       		.uleb128 0x3a
 3703 02db 0B       		.uleb128 0xb
 3704 02dc 3B       		.uleb128 0x3b
 3705 02dd 0B       		.uleb128 0xb
 3706 02de 27       		.uleb128 0x27
 3707 02df 19       		.uleb128 0x19
 3708 02e0 3C       		.uleb128 0x3c
 3709 02e1 19       		.uleb128 0x19
 3710 02e2 01       		.uleb128 0x1
 3711 02e3 13       		.uleb128 0x13
 3712 02e4 00       		.byte	0
 3713 02e5 00       		.byte	0
 3714 02e6 39       		.uleb128 0x39
 3715 02e7 2E       		.uleb128 0x2e
 3716 02e8 01       		.byte	0x1
 3717 02e9 3F       		.uleb128 0x3f
 3718 02ea 19       		.uleb128 0x19
 3719 02eb 03       		.uleb128 0x3
 3720 02ec 0E       		.uleb128 0xe
 3721 02ed 3A       		.uleb128 0x3a
 3722 02ee 0B       		.uleb128 0xb
 3723 02ef 3B       		.uleb128 0x3b
 3724 02f0 05       		.uleb128 0x5
 3725 02f1 27       		.uleb128 0x27
 3726 02f2 19       		.uleb128 0x19
 3727 02f3 49       		.uleb128 0x49
 3728 02f4 13       		.uleb128 0x13
 3729 02f5 3C       		.uleb128 0x3c
 3730 02f6 19       		.uleb128 0x19
 3731 02f7 01       		.uleb128 0x1
 3732 02f8 13       		.uleb128 0x13
 3733 02f9 00       		.byte	0
 3734 02fa 00       		.byte	0
 3735 02fb 3A       		.uleb128 0x3a
 3736 02fc 2E       		.uleb128 0x2e
 3737 02fd 01       		.byte	0x1
 3738 02fe 3F       		.uleb128 0x3f
 3739 02ff 19       		.uleb128 0x19
 3740 0300 03       		.uleb128 0x3
 3741 0301 0E       		.uleb128 0xe
 3742 0302 3A       		.uleb128 0x3a
 3743 0303 0B       		.uleb128 0xb
ARM GAS  /tmp/ccVOA2uB.s 			page 67


 3744 0304 3B       		.uleb128 0x3b
 3745 0305 05       		.uleb128 0x5
 3746 0306 27       		.uleb128 0x27
 3747 0307 19       		.uleb128 0x19
 3748 0308 3C       		.uleb128 0x3c
 3749 0309 19       		.uleb128 0x19
 3750 030a 01       		.uleb128 0x1
 3751 030b 13       		.uleb128 0x13
 3752 030c 00       		.byte	0
 3753 030d 00       		.byte	0
 3754 030e 3B       		.uleb128 0x3b
 3755 030f 2E       		.uleb128 0x2e
 3756 0310 00       		.byte	0
 3757 0311 3F       		.uleb128 0x3f
 3758 0312 19       		.uleb128 0x19
 3759 0313 03       		.uleb128 0x3
 3760 0314 0E       		.uleb128 0xe
 3761 0315 3A       		.uleb128 0x3a
 3762 0316 0B       		.uleb128 0xb
 3763 0317 3B       		.uleb128 0x3b
 3764 0318 05       		.uleb128 0x5
 3765 0319 27       		.uleb128 0x27
 3766 031a 19       		.uleb128 0x19
 3767 031b 3C       		.uleb128 0x3c
 3768 031c 19       		.uleb128 0x19
 3769 031d 00       		.byte	0
 3770 031e 00       		.byte	0
 3771 031f 3C       		.uleb128 0x3c
 3772 0320 2E       		.uleb128 0x2e
 3773 0321 01       		.byte	0x1
 3774 0322 3F       		.uleb128 0x3f
 3775 0323 19       		.uleb128 0x19
 3776 0324 03       		.uleb128 0x3
 3777 0325 0E       		.uleb128 0xe
 3778 0326 3A       		.uleb128 0x3a
 3779 0327 0B       		.uleb128 0xb
 3780 0328 3B       		.uleb128 0x3b
 3781 0329 05       		.uleb128 0x5
 3782 032a 27       		.uleb128 0x27
 3783 032b 19       		.uleb128 0x19
 3784 032c 3C       		.uleb128 0x3c
 3785 032d 19       		.uleb128 0x19
 3786 032e 00       		.byte	0
 3787 032f 00       		.byte	0
 3788 0330 00       		.byte	0
 3789              		.section	.debug_loc,"",%progbits
 3790              	.Ldebug_loc0:
 3791              	.LLST0:
 3792 0000 00000000 		.4byte	.LVL2
 3793 0004 12000000 		.4byte	.LVL4
 3794 0008 0100     		.2byte	0x1
 3795 000a 50       		.byte	0x50
 3796 000b 12000000 		.4byte	.LVL4
 3797 000f F6000000 		.4byte	.LFE121
 3798 0013 0100     		.2byte	0x1
 3799 0015 56       		.byte	0x56
 3800 0016 00000000 		.4byte	0
ARM GAS  /tmp/ccVOA2uB.s 			page 68


 3801 001a 00000000 		.4byte	0
 3802              	.LLST1:
 3803 001e 16000000 		.4byte	.LVL5
 3804 0022 94000000 		.4byte	.LVL18
 3805 0026 0100     		.2byte	0x1
 3806 0028 58       		.byte	0x58
 3807 0029 A6000000 		.4byte	.LVL19
 3808 002d F6000000 		.4byte	.LFE121
 3809 0031 0100     		.2byte	0x1
 3810 0033 58       		.byte	0x58
 3811 0034 00000000 		.4byte	0
 3812 0038 00000000 		.4byte	0
 3813              	.LLST2:
 3814 003c 16000000 		.4byte	.LVL5
 3815 0040 26000000 		.4byte	.LVL6
 3816 0044 0100     		.2byte	0x1
 3817 0046 54       		.byte	0x54
 3818 0047 34000000 		.4byte	.LVL8
 3819 004b 5A000000 		.4byte	.LVL14
 3820 004f 0100     		.2byte	0x1
 3821 0051 54       		.byte	0x54
 3822 0052 A6000000 		.4byte	.LVL19
 3823 0056 C4000000 		.4byte	.LVL21
 3824 005a 0100     		.2byte	0x1
 3825 005c 54       		.byte	0x54
 3826 005d 00000000 		.4byte	0
 3827 0061 00000000 		.4byte	0
 3828              	.LLST3:
 3829 0065 3C000000 		.4byte	.LVL10
 3830 0069 5A000000 		.4byte	.LVL14
 3831 006d 0100     		.2byte	0x1
 3832 006f 54       		.byte	0x54
 3833 0070 00000000 		.4byte	0
 3834 0074 00000000 		.4byte	0
 3835              	.LLST4:
 3836 0078 3C000000 		.4byte	.LVL10
 3837 007c 46000000 		.4byte	.LVL11
 3838 0080 0200     		.2byte	0x2
 3839 0082 30       		.byte	0x30
 3840 0083 9F       		.byte	0x9f
 3841 0084 46000000 		.4byte	.LVL11
 3842 0088 65000000 		.4byte	.LVL16-1
 3843 008c 0100     		.2byte	0x1
 3844 008e 51       		.byte	0x51
 3845 008f 00000000 		.4byte	0
 3846 0093 00000000 		.4byte	0
 3847              	.LLST5:
 3848 0097 D2000000 		.4byte	.LVL22
 3849 009b D8000000 		.4byte	.LVL23
 3850 009f 0100     		.2byte	0x1
 3851 00a1 50       		.byte	0x50
 3852 00a2 E2000000 		.4byte	.LVL24
 3853 00a6 E4000000 		.4byte	.LVL25
 3854 00aa 0100     		.2byte	0x1
 3855 00ac 50       		.byte	0x50
 3856 00ad 00000000 		.4byte	0
 3857 00b1 00000000 		.4byte	0
ARM GAS  /tmp/ccVOA2uB.s 			page 69


 3858              	.LLST6:
 3859 00b5 00000000 		.4byte	.LVL33
 3860 00b9 12000000 		.4byte	.LVL35
 3861 00bd 0100     		.2byte	0x1
 3862 00bf 50       		.byte	0x50
 3863 00c0 12000000 		.4byte	.LVL35
 3864 00c4 5A000000 		.4byte	.LVL39
 3865 00c8 0100     		.2byte	0x1
 3866 00ca 55       		.byte	0x55
 3867 00cb 5A000000 		.4byte	.LVL39
 3868 00cf 72000000 		.4byte	.LVL40
 3869 00d3 0100     		.2byte	0x1
 3870 00d5 50       		.byte	0x50
 3871 00d6 72000000 		.4byte	.LVL40
 3872 00da 88000000 		.4byte	.LVL43
 3873 00de 0100     		.2byte	0x1
 3874 00e0 55       		.byte	0x55
 3875 00e1 88000000 		.4byte	.LVL43
 3876 00e5 94000000 		.4byte	.LVL44
 3877 00e9 0100     		.2byte	0x1
 3878 00eb 50       		.byte	0x50
 3879 00ec 94000000 		.4byte	.LVL44
 3880 00f0 B8000000 		.4byte	.LFE127
 3881 00f4 0100     		.2byte	0x1
 3882 00f6 55       		.byte	0x55
 3883 00f7 00000000 		.4byte	0
 3884 00fb 00000000 		.4byte	0
 3885              	.LLST7:
 3886 00ff 00000000 		.4byte	.LVL33
 3887 0103 0C000000 		.4byte	.LVL34
 3888 0107 0100     		.2byte	0x1
 3889 0109 51       		.byte	0x51
 3890 010a 0C000000 		.4byte	.LVL34
 3891 010e 3C000000 		.4byte	.LVL37
 3892 0112 0100     		.2byte	0x1
 3893 0114 54       		.byte	0x54
 3894 0115 3C000000 		.4byte	.LVL37
 3895 0119 5A000000 		.4byte	.LVL39
 3896 011d 1300     		.2byte	0x13
 3897 011f F3       		.byte	0xf3
 3898 0120 01       		.uleb128 0x1
 3899 0121 51       		.byte	0x51
 3900 0122 03       		.byte	0x3
 3901 0123 00000000 		.4byte	.LANCHOR2
 3902 0127 F3       		.byte	0xf3
 3903 0128 01       		.uleb128 0x1
 3904 0129 51       		.byte	0x51
 3905 012a 30       		.byte	0x30
 3906 012b 2E       		.byte	0x2e
 3907 012c 28       		.byte	0x28
 3908 012d 0100     		.2byte	0x1
 3909 012f 16       		.byte	0x16
 3910 0130 13       		.byte	0x13
 3911 0131 9F       		.byte	0x9f
 3912 0132 5A000000 		.4byte	.LVL39
 3913 0136 B8000000 		.4byte	.LFE127
 3914 013a 0100     		.2byte	0x1
ARM GAS  /tmp/ccVOA2uB.s 			page 70


 3915 013c 54       		.byte	0x54
 3916 013d 00000000 		.4byte	0
 3917 0141 00000000 		.4byte	0
 3918              	.LLST8:
 3919 0145 14000000 		.4byte	.LVL36
 3920 0149 5A000000 		.4byte	.LVL39
 3921 014d 0100     		.2byte	0x1
 3922 014f 55       		.byte	0x55
 3923 0150 7A000000 		.4byte	.LVL42
 3924 0154 88000000 		.4byte	.LVL43
 3925 0158 0100     		.2byte	0x1
 3926 015a 55       		.byte	0x55
 3927 015b 00000000 		.4byte	0
 3928 015f 00000000 		.4byte	0
 3929              	.LLST9:
 3930 0163 14000000 		.4byte	.LVL36
 3931 0167 3C000000 		.4byte	.LVL37
 3932 016b 0100     		.2byte	0x1
 3933 016d 54       		.byte	0x54
 3934 016e 3C000000 		.4byte	.LVL37
 3935 0172 5A000000 		.4byte	.LVL39
 3936 0176 1300     		.2byte	0x13
 3937 0178 F3       		.byte	0xf3
 3938 0179 01       		.uleb128 0x1
 3939 017a 51       		.byte	0x51
 3940 017b 03       		.byte	0x3
 3941 017c 00000000 		.4byte	.LANCHOR2
 3942 0180 F3       		.byte	0xf3
 3943 0181 01       		.uleb128 0x1
 3944 0182 51       		.byte	0x51
 3945 0183 30       		.byte	0x30
 3946 0184 2E       		.byte	0x2e
 3947 0185 28       		.byte	0x28
 3948 0186 0100     		.2byte	0x1
 3949 0188 16       		.byte	0x16
 3950 0189 13       		.byte	0x13
 3951 018a 9F       		.byte	0x9f
 3952 018b 7A000000 		.4byte	.LVL42
 3953 018f 88000000 		.4byte	.LVL43
 3954 0193 0100     		.2byte	0x1
 3955 0195 54       		.byte	0x54
 3956 0196 00000000 		.4byte	0
 3957 019a 00000000 		.4byte	0
 3958              	.LLST10:
 3959 019e 14000000 		.4byte	.LVL36
 3960 01a2 58000000 		.4byte	.LVL38
 3961 01a6 0100     		.2byte	0x1
 3962 01a8 53       		.byte	0x53
 3963 01a9 7A000000 		.4byte	.LVL42
 3964 01ad 88000000 		.4byte	.LVL43
 3965 01b1 0100     		.2byte	0x1
 3966 01b3 53       		.byte	0x53
 3967 01b4 00000000 		.4byte	0
 3968 01b8 00000000 		.4byte	0
 3969              	.LLST11:
 3970 01bc 00000000 		.4byte	.LVL46
 3971 01c0 2A000000 		.4byte	.LVL49
ARM GAS  /tmp/ccVOA2uB.s 			page 71


 3972 01c4 0100     		.2byte	0x1
 3973 01c6 50       		.byte	0x50
 3974 01c7 2A000000 		.4byte	.LVL49
 3975 01cb 2E000000 		.4byte	.LVL50
 3976 01cf 0400     		.2byte	0x4
 3977 01d1 F3       		.byte	0xf3
 3978 01d2 01       		.uleb128 0x1
 3979 01d3 50       		.byte	0x50
 3980 01d4 9F       		.byte	0x9f
 3981 01d5 2E000000 		.4byte	.LVL50
 3982 01d9 3A000000 		.4byte	.LVL52
 3983 01dd 0100     		.2byte	0x1
 3984 01df 50       		.byte	0x50
 3985 01e0 3A000000 		.4byte	.LVL52
 3986 01e4 4C000000 		.4byte	.LFE128
 3987 01e8 0400     		.2byte	0x4
 3988 01ea F3       		.byte	0xf3
 3989 01eb 01       		.uleb128 0x1
 3990 01ec 50       		.byte	0x50
 3991 01ed 9F       		.byte	0x9f
 3992 01ee 00000000 		.4byte	0
 3993 01f2 00000000 		.4byte	0
 3994              	.LLST12:
 3995 01f6 0C000000 		.4byte	.LVL47
 3996 01fa 1A000000 		.4byte	.LVL48
 3997 01fe 0100     		.2byte	0x1
 3998 0200 53       		.byte	0x53
 3999 0201 1A000000 		.4byte	.LVL48
 4000 0205 2A000000 		.4byte	.LVL49
 4001 0209 0300     		.2byte	0x3
 4002 020b 70       		.byte	0x70
 4003 020c F400     		.sleb128 116
 4004 020e 2A000000 		.4byte	.LVL49
 4005 0212 2D000000 		.4byte	.LVL50-1
 4006 0216 0500     		.2byte	0x5
 4007 0218 F3       		.byte	0xf3
 4008 0219 01       		.uleb128 0x1
 4009 021a 50       		.byte	0x50
 4010 021b 23       		.byte	0x23
 4011 021c 74       		.uleb128 0x74
 4012 021d 2E000000 		.4byte	.LVL50
 4013 0221 30000000 		.4byte	.LVL51
 4014 0225 0100     		.2byte	0x1
 4015 0227 53       		.byte	0x53
 4016 0228 30000000 		.4byte	.LVL51
 4017 022c 3A000000 		.4byte	.LVL52
 4018 0230 0300     		.2byte	0x3
 4019 0232 70       		.byte	0x70
 4020 0233 F400     		.sleb128 116
 4021 0235 3A000000 		.4byte	.LVL52
 4022 0239 3D000000 		.4byte	.LVL53-1
 4023 023d 0500     		.2byte	0x5
 4024 023f F3       		.byte	0xf3
 4025 0240 01       		.uleb128 0x1
 4026 0241 50       		.byte	0x50
 4027 0242 23       		.byte	0x23
 4028 0243 74       		.uleb128 0x74
ARM GAS  /tmp/ccVOA2uB.s 			page 72


 4029 0244 00000000 		.4byte	0
 4030 0248 00000000 		.4byte	0
 4031              		.section	.debug_aranges,"",%progbits
 4032 0000 54000000 		.4byte	0x54
 4033 0004 0200     		.2byte	0x2
 4034 0006 00000000 		.4byte	.Ldebug_info0
 4035 000a 04       		.byte	0x4
 4036 000b 00       		.byte	0
 4037 000c 0000     		.2byte	0
 4038 000e 0000     		.2byte	0
 4039 0010 00000000 		.4byte	.LFB122
 4040 0014 14000000 		.4byte	.LFE122-.LFB122
 4041 0018 00000000 		.4byte	.LFB123
 4042 001c 14000000 		.4byte	.LFE123-.LFB123
 4043 0020 00000000 		.4byte	.LFB121
 4044 0024 F6000000 		.4byte	.LFE121-.LFB121
 4045 0028 00000000 		.4byte	.LFB124
 4046 002c 14000000 		.4byte	.LFE124-.LFB124
 4047 0030 00000000 		.4byte	.LFB125
 4048 0034 14000000 		.4byte	.LFE125-.LFB125
 4049 0038 00000000 		.4byte	.LFB126
 4050 003c 3C000000 		.4byte	.LFE126-.LFB126
 4051 0040 00000000 		.4byte	.LFB127
 4052 0044 B8000000 		.4byte	.LFE127-.LFB127
 4053 0048 00000000 		.4byte	.LFB128
 4054 004c 4C000000 		.4byte	.LFE128-.LFB128
 4055 0050 00000000 		.4byte	0
 4056 0054 00000000 		.4byte	0
 4057              		.section	.debug_ranges,"",%progbits
 4058              	.Ldebug_ranges0:
 4059 0000 22000000 		.4byte	.LBB16
 4060 0004 26000000 		.4byte	.LBE16
 4061 0008 3C000000 		.4byte	.LBB19
 4062 000c 68000000 		.4byte	.LBE19
 4063 0010 00000000 		.4byte	0
 4064 0014 00000000 		.4byte	0
 4065 0018 14000000 		.4byte	.LBB30
 4066 001c 5A000000 		.4byte	.LBE30
 4067 0020 7A000000 		.4byte	.LBB33
 4068 0024 88000000 		.4byte	.LBE33
 4069 0028 00000000 		.4byte	0
 4070 002c 00000000 		.4byte	0
 4071 0030 0C000000 		.4byte	.LBB34
 4072 0034 0E000000 		.4byte	.LBE34
 4073 0038 10000000 		.4byte	.LBB37
 4074 003c 16000000 		.4byte	.LBE37
 4075 0040 00000000 		.4byte	0
 4076 0044 00000000 		.4byte	0
 4077 0048 00000000 		.4byte	.LFB122
 4078 004c 14000000 		.4byte	.LFE122
 4079 0050 00000000 		.4byte	.LFB123
 4080 0054 14000000 		.4byte	.LFE123
 4081 0058 00000000 		.4byte	.LFB121
 4082 005c F6000000 		.4byte	.LFE121
 4083 0060 00000000 		.4byte	.LFB124
 4084 0064 14000000 		.4byte	.LFE124
 4085 0068 00000000 		.4byte	.LFB125
ARM GAS  /tmp/ccVOA2uB.s 			page 73


 4086 006c 14000000 		.4byte	.LFE125
 4087 0070 00000000 		.4byte	.LFB126
 4088 0074 3C000000 		.4byte	.LFE126
 4089 0078 00000000 		.4byte	.LFB127
 4090 007c B8000000 		.4byte	.LFE127
 4091 0080 00000000 		.4byte	.LFB128
 4092 0084 4C000000 		.4byte	.LFE128
 4093 0088 00000000 		.4byte	0
 4094 008c 00000000 		.4byte	0
 4095              		.section	.debug_line,"",%progbits
 4096              	.Ldebug_line0:
 4097 0000 9C030000 		.section	.debug_str,"MS",%progbits,1
 4097      02007C02 
 4097      00000201 
 4097      FB0E0D00 
 4097      01010101 
 4098              	.LASF2:
 4099 0000 73697A65 		.ascii	"size_t\000"
 4099      5F7400
 4100              	.LASF130:
 4101 0007 54494D38 		.ascii	"TIM8_UP_TIM13_IRQn\000"
 4101      5F55505F 
 4101      54494D31 
 4101      335F4952 
 4101      516E00
 4102              	.LASF49:
 4103 001a 73697A65 		.ascii	"sizetype\000"
 4103      74797065 
 4103      00
 4104              	.LASF23:
 4105 0023 73797374 		.ascii	"systime_t\000"
 4105      696D655F 
 4105      7400
 4106              	.LASF201:
 4107 002d 504C4C49 		.ascii	"PLLI2SCFGR\000"
 4107      32534346 
 4107      475200
 4108              	.LASF28:
 4109 0038 705F6374 		.ascii	"p_ctx\000"
 4109      7800
 4110              	.LASF19:
 4111 003e 74707269 		.ascii	"tprio_t\000"
 4111      6F5F7400 
 4112              	.LASF38:
 4113 0046 705F6D73 		.ascii	"p_msgqueue\000"
 4113      67717565 
 4113      756500
 4114              	.LASF8:
 4115 0051 696E7433 		.ascii	"int32_t\000"
 4115      325F7400 
 4116              	.LASF218:
 4117 0059 53657269 		.ascii	"SerialConfig\000"
 4117      616C436F 
 4117      6E666967 
 4117      00
 4118              	.LASF224:
 4119 0066 77726974 		.ascii	"writet\000"
ARM GAS  /tmp/ccVOA2uB.s 			page 74


 4119      657400
 4120              	.LASF205:
 4121 006d 47545052 		.ascii	"GTPR\000"
 4121      00
 4122              	.LASF220:
 4123 0072 77726974 		.ascii	"write\000"
 4123      6500
 4124              	.LASF143:
 4125 0078 444D4132 		.ascii	"DMA2_Stream1_IRQn\000"
 4125      5F537472 
 4125      65616D31 
 4125      5F495251 
 4125      6E00
 4126              	.LASF234:
 4127 008a 56656374 		.ascii	"VectorD8\000"
 4127      6F724438 
 4127      00
 4128              	.LASF137:
 4129 0093 53504933 		.ascii	"SPI3_IRQn\000"
 4129      5F495251 
 4129      6E00
 4130              	.LASF90:
 4131 009d 464C4153 		.ascii	"FLASH_IRQn\000"
 4131      485F4952 
 4131      516E00
 4132              	.LASF164:
 4133 00a8 44434D49 		.ascii	"DCMI_IRQn\000"
 4133      5F495251 
 4133      6E00
 4134              	.LASF58:
 4135 00b2 656C5F66 		.ascii	"el_flags\000"
 4135      6C616773 
 4135      00
 4136              	.LASF226:
 4137 00bb 636F6E66 		.ascii	"config\000"
 4137      696700
 4138              	.LASF213:
 4139 00c2 73746174 		.ascii	"state\000"
 4139      6500
 4140              	.LASF222:
 4141 00c8 70757474 		.ascii	"putt\000"
 4141      00
 4142              	.LASF114:
 4143 00cd 54494D32 		.ascii	"TIM2_IRQn\000"
 4143      5F495251 
 4143      6E00
 4144              	.LASF232:
 4145 00d7 73657276 		.ascii	"serve_interrupt\000"
 4145      655F696E 
 4145      74657272 
 4145      75707400 
 4146              	.LASF231:
 4147 00e7 7365745F 		.ascii	"set_error\000"
 4147      6572726F 
 4147      7200
 4148              	.LASF150:
 4149 00f1 43414E32 		.ascii	"CAN2_RX0_IRQn\000"
ARM GAS  /tmp/ccVOA2uB.s 			page 75


 4149      5F525830 
 4149      5F495251 
 4149      6E00
 4150              	.LASF157:
 4151 00ff 55534152 		.ascii	"USART6_IRQn\000"
 4151      54365F49 
 4151      52516E00 
 4152              	.LASF52:
 4153 010b 6D5F6F77 		.ascii	"m_owner\000"
 4153      6E657200 
 4154              	.LASF62:
 4155 0113 65786974 		.ascii	"exitcode\000"
 4155      636F6465 
 4155      00
 4156              	.LASF162:
 4157 011c 4F54475F 		.ascii	"OTG_HS_WKUP_IRQn\000"
 4157      48535F57 
 4157      4B55505F 
 4157      4952516E 
 4157      00
 4158              	.LASF70:
 4159 012d 715F746F 		.ascii	"q_top\000"
 4159      7000
 4160              	.LASF64:
 4161 0133 65776D61 		.ascii	"ewmask\000"
 4161      736B00
 4162              	.LASF129:
 4163 013a 54494D38 		.ascii	"TIM8_BRK_TIM12_IRQn\000"
 4163      5F42524B 
 4163      5F54494D 
 4163      31325F49 
 4163      52516E00 
 4164              	.LASF192:
 4165 014e 41484232 		.ascii	"AHB2LPENR\000"
 4165      4C50454E 
 4165      5200
 4166              	.LASF225:
 4167 0158 72656164 		.ascii	"readt\000"
 4167      7400
 4168              	.LASF236:
 4169 015e 73645F6C 		.ascii	"sd_lld_start\000"
 4169      6C645F73 
 4169      74617274 
 4169      00
 4170              	.LASF69:
 4171 016b 715F6275 		.ascii	"q_buffer\000"
 4171      66666572 
 4171      00
 4172              	.LASF73:
 4173 0174 715F6E6F 		.ascii	"q_notify\000"
 4173      74696679 
 4173      00
 4174              	.LASF242:
 4175 017d 73644F62 		.ascii	"sdObjectInit\000"
 4175      6A656374 
 4175      496E6974 
 4175      00
ARM GAS  /tmp/ccVOA2uB.s 			page 76


 4176              	.LASF244:
 4177 018a 474E5520 		.ascii	"GNU C 4.8.3 20131129 (release) [ARM/embedded-4_8-br"
 4177      4320342E 
 4177      382E3320 
 4177      32303133 
 4177      31313239 
 4178 01bd 616E6368 		.ascii	"anch revision 205641] -mcpu=cortex-m4 -mfloat-abi=s"
 4178      20726576 
 4178      6973696F 
 4178      6E203230 
 4178      35363431 
 4179 01f0 6F667466 		.ascii	"oftfp -mfpu=fpv4-sp-d16 -mno-thumb-interwork -mthum"
 4179      70202D6D 
 4179      6670753D 
 4179      66707634 
 4179      2D73702D 
 4180 0223 62202D67 		.ascii	"b -ggdb -O2 -fomit-frame-pointer -falign-functions="
 4180      67646220 
 4180      2D4F3220 
 4180      2D666F6D 
 4180      69742D66 
 4181 0256 3136202D 		.ascii	"16 -fsingle-precision-constant -ffunction-sections "
 4181      6673696E 
 4181      676C652D 
 4181      70726563 
 4181      6973696F 
 4182 0289 2D666461 		.ascii	"-fdata-sections -fno-common\000"
 4182      74612D73 
 4182      65637469 
 4182      6F6E7320 
 4182      2D666E6F 
 4183              	.LASF9:
 4184 02a5 6C6F6E67 		.ascii	"long int\000"
 4184      20696E74 
 4184      00
 4185              	.LASF25:
 4186 02ae 705F6E65 		.ascii	"p_next\000"
 4186      787400
 4187              	.LASF72:
 4188 02b5 715F7264 		.ascii	"q_rdptr\000"
 4188      70747200 
 4189              	.LASF26:
 4190 02bd 705F7072 		.ascii	"p_prev\000"
 4190      657600
 4191              	.LASF238:
 4192 02c4 64656661 		.ascii	"default_config\000"
 4192      756C745F 
 4192      636F6E66 
 4192      696700
 4193              	.LASF154:
 4194 02d3 444D4132 		.ascii	"DMA2_Stream5_IRQn\000"
 4194      5F537472 
 4194      65616D35 
 4194      5F495251 
 4194      6E00
 4195              	.LASF16:
 4196 02e5 74737461 		.ascii	"tstate_t\000"
ARM GAS  /tmp/ccVOA2uB.s 			page 77


 4196      74655F74 
 4196      00
 4197              	.LASF41:
 4198 02ee 705F6D74 		.ascii	"p_mtxlist\000"
 4198      786C6973 
 4198      7400
 4199              	.LASF112:
 4200 02f8 54494D31 		.ascii	"TIM1_TRG_COM_TIM11_IRQn\000"
 4200      5F545247 
 4200      5F434F4D 
 4200      5F54494D 
 4200      31315F49 
 4201              	.LASF215:
 4202 0310 6F717565 		.ascii	"oqueue\000"
 4202      756500
 4203              	.LASF46:
 4204 0317 72656761 		.ascii	"regarm_t\000"
 4204      726D5F74 
 4204      00
 4205              	.LASF189:
 4206 0320 41504232 		.ascii	"APB2ENR\000"
 4206      454E5200 
 4207              	.LASF191:
 4208 0328 41484231 		.ascii	"AHB1LPENR\000"
 4208      4C50454E 
 4208      5200
 4209              	.LASF85:
 4210 0332 53797354 		.ascii	"SysTick_IRQn\000"
 4210      69636B5F 
 4210      4952516E 
 4210      00
 4211              	.LASF125:
 4212 033f 55534152 		.ascii	"USART3_IRQn\000"
 4212      54335F49 
 4212      52516E00 
 4213              	.LASF203:
 4214 034b 44434B43 		.ascii	"DCKCFGR\000"
 4214      46475200 
 4215              	.LASF216:
 4216 0353 75736172 		.ascii	"usart\000"
 4216      7400
 4217              	.LASF1:
 4218 0359 7369676E 		.ascii	"signed char\000"
 4218      65642063 
 4218      68617200 
 4219              	.LASF35:
 4220 0365 705F7072 		.ascii	"p_preempt\000"
 4220      65656D70 
 4220      7400
 4221              	.LASF3:
 4222 036f 75696E74 		.ascii	"uint8_t\000"
 4222      385F7400 
 4223              	.LASF21:
 4224 0377 6576656E 		.ascii	"eventmask_t\000"
 4224      746D6173 
 4224      6B5F7400 
 4225              	.LASF48:
ARM GAS  /tmp/ccVOA2uB.s 			page 78


 4226 0383 636F6E74 		.ascii	"context\000"
 4226      65787400 
 4227              	.LASF99:
 4228 038b 444D4131 		.ascii	"DMA1_Stream2_IRQn\000"
 4228      5F537472 
 4228      65616D32 
 4228      5F495251 
 4228      6E00
 4229              	.LASF180:
 4230 039d 52455345 		.ascii	"RESERVED0\000"
 4230      52564544 
 4230      3000
 4231              	.LASF183:
 4232 03a7 52455345 		.ascii	"RESERVED1\000"
 4232      52564544 
 4232      3100
 4233              	.LASF4:
 4234 03b1 756E7369 		.ascii	"unsigned char\000"
 4234      676E6564 
 4234      20636861 
 4234      7200
 4235              	.LASF146:
 4236 03bf 444D4132 		.ascii	"DMA2_Stream4_IRQn\000"
 4236      5F537472 
 4236      65616D34 
 4236      5F495251 
 4236      6E00
 4237              	.LASF194:
 4238 03d1 52455345 		.ascii	"RESERVED4\000"
 4238      52564544 
 4238      3400
 4239              	.LASF74:
 4240 03db 715F6C69 		.ascii	"q_link\000"
 4240      6E6B00
 4241              	.LASF199:
 4242 03e2 52455345 		.ascii	"RESERVED6\000"
 4242      52564544 
 4242      3600
 4243              	.LASF172:
 4244 03ec 53504936 		.ascii	"SPI6_IRQn\000"
 4244      5F495251 
 4244      6E00
 4245              	.LASF118:
 4246 03f6 49324331 		.ascii	"I2C1_ER_IRQn\000"
 4246      5F45525F 
 4246      4952516E 
 4246      00
 4247              	.LASF152:
 4248 0403 43414E32 		.ascii	"CAN2_SCE_IRQn\000"
 4248      5F534345 
 4248      5F495251 
 4248      6E00
 4249              	.LASF207:
 4250 0411 53445F55 		.ascii	"SD_UNINIT\000"
 4250      4E494E49 
 4250      5400
 4251              	.LASF14:
ARM GAS  /tmp/ccVOA2uB.s 			page 79


 4252 041b 5F426F6F 		.ascii	"_Bool\000"
 4252      6C00
 4253              	.LASF187:
 4254 0421 52455345 		.ascii	"RESERVED2\000"
 4254      52564544 
 4254      3200
 4255              	.LASF190:
 4256 042b 52455345 		.ascii	"RESERVED3\000"
 4256      52564544 
 4256      3300
 4257              	.LASF136:
 4258 0435 54494D35 		.ascii	"TIM5_IRQn\000"
 4258      5F495251 
 4258      6E00
 4259              	.LASF197:
 4260 043f 52455345 		.ascii	"RESERVED5\000"
 4260      52564544 
 4260      3500
 4261              	.LASF81:
 4262 0449 55736167 		.ascii	"UsageFault_IRQn\000"
 4262      65466175 
 4262      6C745F49 
 4262      52516E00 
 4263              	.LASF65:
 4264 0459 63686172 		.ascii	"char\000"
 4264      00
 4265              	.LASF27:
 4266 045e 705F7072 		.ascii	"p_prio\000"
 4266      696F00
 4267              	.LASF185:
 4268 0465 41484232 		.ascii	"AHB2ENR\000"
 4268      454E5200 
 4269              	.LASF66:
 4270 046d 47656E65 		.ascii	"GenericQueue\000"
 4270      72696351 
 4270      75657565 
 4270      00
 4271              	.LASF63:
 4272 047a 77746F62 		.ascii	"wtobjp\000"
 4272      6A7000
 4273              	.LASF106:
 4274 0481 43414E31 		.ascii	"CAN1_RX0_IRQn\000"
 4274      5F525830 
 4274      5F495251 
 4274      6E00
 4275              	.LASF171:
 4276 048f 53504935 		.ascii	"SPI5_IRQn\000"
 4276      5F495251 
 4276      6E00
 4277              	.LASF223:
 4278 0499 67657474 		.ascii	"gett\000"
 4278      00
 4279              	.LASF206:
 4280 049e 55534152 		.ascii	"USART_TypeDef\000"
 4280      545F5479 
 4280      70654465 
 4280      6600
ARM GAS  /tmp/ccVOA2uB.s 			page 80


 4281              	.LASF77:
 4282 04ac 4F757470 		.ascii	"OutputQueue\000"
 4282      75745175 
 4282      65756500 
 4283              	.LASF173:
 4284 04b8 53414931 		.ascii	"SAI1_IRQn\000"
 4284      5F495251 
 4284      6E00
 4285              	.LASF116:
 4286 04c2 54494D34 		.ascii	"TIM4_IRQn\000"
 4286      5F495251 
 4286      6E00
 4287              	.LASF124:
 4288 04cc 55534152 		.ascii	"USART2_IRQn\000"
 4288      54325F49 
 4288      52516E00 
 4289              	.LASF169:
 4290 04d8 55415254 		.ascii	"UART8_IRQn\000"
 4290      385F4952 
 4290      516E00
 4291              	.LASF198:
 4292 04e3 42444352 		.ascii	"BDCR\000"
 4292      00
 4293              	.LASF117:
 4294 04e8 49324331 		.ascii	"I2C1_EV_IRQn\000"
 4294      5F45565F 
 4294      4952516E 
 4294      00
 4295              	.LASF47:
 4296 04f5 696E7463 		.ascii	"intctx\000"
 4296      747800
 4297              	.LASF217:
 4298 04fc 73706565 		.ascii	"speed\000"
 4298      6400
 4299              	.LASF40:
 4300 0502 705F6570 		.ascii	"p_epending\000"
 4300      656E6469 
 4300      6E6700
 4301              	.LASF176:
 4302 050d 43464752 		.ascii	"CFGR\000"
 4302      00
 4303              	.LASF113:
 4304 0512 54494D31 		.ascii	"TIM1_CC_IRQn\000"
 4304      5F43435F 
 4304      4952516E 
 4304      00
 4305              	.LASF166:
 4306 051f 48415348 		.ascii	"HASH_RNG_IRQn\000"
 4306      5F524E47 
 4306      5F495251 
 4306      6E00
 4307              	.LASF93:
 4308 052d 45585449 		.ascii	"EXTI1_IRQn\000"
 4308      315F4952 
 4308      516E00
 4309              	.LASF105:
 4310 0538 43414E31 		.ascii	"CAN1_TX_IRQn\000"
ARM GAS  /tmp/ccVOA2uB.s 			page 81


 4310      5F54585F 
 4310      4952516E 
 4310      00
 4311              	.LASF102:
 4312 0545 444D4131 		.ascii	"DMA1_Stream5_IRQn\000"
 4312      5F537472 
 4312      65616D35 
 4312      5F495251 
 4312      6E00
 4313              	.LASF131:
 4314 0557 54494D38 		.ascii	"TIM8_TRG_COM_TIM14_IRQn\000"
 4314      5F545247 
 4314      5F434F4D 
 4314      5F54494D 
 4314      31345F49 
 4315              	.LASF60:
 4316 056f 65735F6E 		.ascii	"es_next\000"
 4316      65787400 
 4317              	.LASF68:
 4318 0577 715F636F 		.ascii	"q_counter\000"
 4318      756E7465 
 4318      7200
 4319              	.LASF153:
 4320 0581 4F54475F 		.ascii	"OTG_FS_IRQn\000"
 4320      46535F49 
 4320      52516E00 
 4321              	.LASF78:
 4322 058d 4E6F6E4D 		.ascii	"NonMaskableInt_IRQn\000"
 4322      61736B61 
 4322      626C6549 
 4322      6E745F49 
 4322      52516E00 
 4323              	.LASF59:
 4324 05a1 4576656E 		.ascii	"EventSource\000"
 4324      74536F75 
 4324      72636500 
 4325              	.LASF86:
 4326 05ad 57574447 		.ascii	"WWDG_IRQn\000"
 4326      5F495251 
 4326      6E00
 4327              	.LASF11:
 4328 05b7 6C6F6E67 		.ascii	"long unsigned int\000"
 4328      20756E73 
 4328      69676E65 
 4328      6420696E 
 4328      7400
 4329              	.LASF79:
 4330 05c9 4D656D6F 		.ascii	"MemoryManagement_IRQn\000"
 4330      72794D61 
 4330      6E616765 
 4330      6D656E74 
 4330      5F495251 
 4331              	.LASF88:
 4332 05df 54414D50 		.ascii	"TAMP_STAMP_IRQn\000"
 4332      5F535441 
 4332      4D505F49 
 4332      52516E00 
ARM GAS  /tmp/ccVOA2uB.s 			page 82


 4333              	.LASF108:
 4334 05ef 43414E31 		.ascii	"CAN1_SCE_IRQn\000"
 4334      5F534345 
 4334      5F495251 
 4334      6E00
 4335              	.LASF55:
 4336 05fd 656C5F6E 		.ascii	"el_next\000"
 4336      65787400 
 4337              	.LASF71:
 4338 0605 715F7772 		.ascii	"q_wrptr\000"
 4338      70747200 
 4339              	.LASF219:
 4340 060d 53657269 		.ascii	"SerialDriverVMT\000"
 4340      616C4472 
 4340      69766572 
 4340      564D5400 
 4341              	.LASF228:
 4342 061d 75736172 		.ascii	"usart_deinit\000"
 4342      745F6465 
 4342      696E6974 
 4342      00
 4343              	.LASF120:
 4344 062a 49324332 		.ascii	"I2C2_ER_IRQn\000"
 4344      5F45525F 
 4344      4952516E 
 4344      00
 4345              	.LASF80:
 4346 0637 42757346 		.ascii	"BusFault_IRQn\000"
 4346      61756C74 
 4346      5F495251 
 4346      6E00
 4347              	.LASF235:
 4348 0645 73645F6C 		.ascii	"sd_lld_init\000"
 4348      6C645F69 
 4348      6E697400 
 4349              	.LASF175:
 4350 0651 504C4C43 		.ascii	"PLLCFGR\000"
 4350      46475200 
 4351              	.LASF139:
 4352 0659 55415254 		.ascii	"UART5_IRQn\000"
 4352      355F4952 
 4352      516E00
 4353              	.LASF110:
 4354 0664 54494D31 		.ascii	"TIM1_BRK_TIM9_IRQn\000"
 4354      5F42524B 
 4354      5F54494D 
 4354      395F4952 
 4354      516E00
 4355              	.LASF50:
 4356 0677 4D757465 		.ascii	"Mutex\000"
 4356      7800
 4357              	.LASF241:
 4358 067d 7364496E 		.ascii	"sdIncomingDataI\000"
 4358      636F6D69 
 4358      6E674461 
 4358      74614900 
 4359              	.LASF141:
ARM GAS  /tmp/ccVOA2uB.s 			page 83


 4360 068d 54494D37 		.ascii	"TIM7_IRQn\000"
 4360      5F495251 
 4360      6E00
 4361              	.LASF12:
 4362 0697 6C6F6E67 		.ascii	"long long int\000"
 4362      206C6F6E 
 4362      6720696E 
 4362      7400
 4363              	.LASF148:
 4364 06a5 4554485F 		.ascii	"ETH_WKUP_IRQn\000"
 4364      574B5550 
 4364      5F495251 
 4364      6E00
 4365              	.LASF122:
 4366 06b3 53504932 		.ascii	"SPI2_IRQn\000"
 4366      5F495251 
 4366      6E00
 4367              	.LASF163:
 4368 06bd 4F54475F 		.ascii	"OTG_HS_IRQn\000"
 4368      48535F49 
 4368      52516E00 
 4369              	.LASF51:
 4370 06c9 6D5F7175 		.ascii	"m_queue\000"
 4370      65756500 
 4371              	.LASF200:
 4372 06d1 53534347 		.ascii	"SSCGR\000"
 4372      5200
 4373              	.LASF121:
 4374 06d7 53504931 		.ascii	"SPI1_IRQn\000"
 4374      5F495251 
 4374      6E00
 4375              	.LASF82:
 4376 06e1 53564361 		.ascii	"SVCall_IRQn\000"
 4376      6C6C5F49 
 4376      52516E00 
 4377              	.LASF182:
 4378 06ed 41504232 		.ascii	"APB2RSTR\000"
 4378      52535452 
 4378      00
 4379              	.LASF167:
 4380 06f6 4650555F 		.ascii	"FPU_IRQn\000"
 4380      4952516E 
 4380      00
 4381              	.LASF138:
 4382 06ff 55415254 		.ascii	"UART4_IRQn\000"
 4382      345F4952 
 4382      516E00
 4383              	.LASF196:
 4384 070a 41504232 		.ascii	"APB2LPENR\000"
 4384      4C50454E 
 4384      5200
 4385              	.LASF75:
 4386 0714 716E6F74 		.ascii	"qnotify_t\000"
 4386      6966795F 
 4386      7400
 4387              	.LASF37:
 4388 071e 705F7761 		.ascii	"p_waiting\000"
ARM GAS  /tmp/ccVOA2uB.s 			page 84


 4388      6974696E 
 4388      6700
 4389              	.LASF142:
 4390 0728 444D4132 		.ascii	"DMA2_Stream0_IRQn\000"
 4390      5F537472 
 4390      65616D30 
 4390      5F495251 
 4390      6E00
 4391              	.LASF212:
 4392 073a 6576656E 		.ascii	"event\000"
 4392      7400
 4393              	.LASF128:
 4394 0740 4F54475F 		.ascii	"OTG_FS_WKUP_IRQn\000"
 4394      46535F57 
 4394      4B55505F 
 4394      4952516E 
 4394      00
 4395              	.LASF33:
 4396 0751 705F666C 		.ascii	"p_flags\000"
 4396      61677300 
 4397              	.LASF221:
 4398 0759 72656164 		.ascii	"read\000"
 4398      00
 4399              	.LASF0:
 4400 075e 756E7369 		.ascii	"unsigned int\000"
 4400      676E6564 
 4400      20696E74 
 4400      00
 4401              	.LASF140:
 4402 076b 54494D36 		.ascii	"TIM6_DAC_IRQn\000"
 4402      5F444143 
 4402      5F495251 
 4402      6E00
 4403              	.LASF174:
 4404 0779 444D4132 		.ascii	"DMA2D_IRQn\000"
 4404      445F4952 
 4404      516E00
 4405              	.LASF43:
 4406 0784 705F6D70 		.ascii	"p_mpool\000"
 4406      6F6F6C00 
 4407              	.LASF119:
 4408 078c 49324332 		.ascii	"I2C2_EV_IRQn\000"
 4408      5F45565F 
 4408      4952516E 
 4408      00
 4409              	.LASF34:
 4410 0799 705F7265 		.ascii	"p_refs\000"
 4410      667300
 4411              	.LASF248:
 4412 07a0 63684F51 		.ascii	"chOQGetI\000"
 4412      47657449 
 4412      00
 4413              	.LASF249:
 4414 07a9 5F706F72 		.ascii	"_port_irq_epilogue\000"
 4414      745F6972 
 4414      715F6570 
 4414      696C6F67 
ARM GAS  /tmp/ccVOA2uB.s 			page 85


 4414      756500
 4415              	.LASF45:
 4416 07bc 54687265 		.ascii	"ThreadsList\000"
 4416      6164734C 
 4416      69737400 
 4417              	.LASF195:
 4418 07c8 41504231 		.ascii	"APB1LPENR\000"
 4418      4C50454E 
 4418      5200
 4419              	.LASF98:
 4420 07d2 444D4131 		.ascii	"DMA1_Stream1_IRQn\000"
 4420      5F537472 
 4420      65616D31 
 4420      5F495251 
 4420      6E00
 4421              	.LASF22:
 4422 07e4 666C6167 		.ascii	"flagsmask_t\000"
 4422      736D6173 
 4422      6B5F7400 
 4423              	.LASF145:
 4424 07f0 444D4132 		.ascii	"DMA2_Stream3_IRQn\000"
 4424      5F537472 
 4424      65616D33 
 4424      5F495251 
 4424      6E00
 4425              	.LASF149:
 4426 0802 43414E32 		.ascii	"CAN2_TX_IRQn\000"
 4426      5F54585F 
 4426      4952516E 
 4426      00
 4427              	.LASF36:
 4428 080f 705F7469 		.ascii	"p_time\000"
 4428      6D6500
 4429              	.LASF247:
 4430 0816 4952516E 		.ascii	"IRQn\000"
 4430      00
 4431              	.LASF103:
 4432 081b 444D4131 		.ascii	"DMA1_Stream6_IRQn\000"
 4432      5F537472 
 4432      65616D36 
 4432      5F495251 
 4432      6E00
 4433              	.LASF240:
 4434 082d 63684576 		.ascii	"chEvtBroadcastFlagsI\000"
 4434      7442726F 
 4434      61646361 
 4434      7374466C 
 4434      61677349 
 4435              	.LASF179:
 4436 0842 41484233 		.ascii	"AHB3RSTR\000"
 4436      52535452 
 4436      00
 4437              	.LASF250:
 4438 084b 6E766963 		.ascii	"nvicDisableVector\000"
 4438      44697361 
 4438      626C6556 
 4438      6563746F 
ARM GAS  /tmp/ccVOA2uB.s 			page 86


 4438      7200
 4439              	.LASF42:
 4440 085d 705F7265 		.ascii	"p_realprio\000"
 4440      616C7072 
 4440      696F00
 4441              	.LASF156:
 4442 0868 444D4132 		.ascii	"DMA2_Stream7_IRQn\000"
 4442      5F537472 
 4442      65616D37 
 4442      5F495251 
 4442      6E00
 4443              	.LASF97:
 4444 087a 444D4131 		.ascii	"DMA1_Stream0_IRQn\000"
 4444      5F537472 
 4444      65616D30 
 4444      5F495251 
 4444      6E00
 4445              	.LASF181:
 4446 088c 41504231 		.ascii	"APB1RSTR\000"
 4446      52535452 
 4446      00
 4447              	.LASF227:
 4448 0895 75736172 		.ascii	"usart_init\000"
 4448      745F696E 
 4448      697400
 4449              	.LASF127:
 4450 08a0 5254435F 		.ascii	"RTC_Alarm_IRQn\000"
 4450      416C6172 
 4450      6D5F4952 
 4450      516E00
 4451              	.LASF188:
 4452 08af 41504231 		.ascii	"APB1ENR\000"
 4452      454E5200 
 4453              	.LASF170:
 4454 08b7 53504934 		.ascii	"SPI4_IRQn\000"
 4454      5F495251 
 4454      6E00
 4455              	.LASF134:
 4456 08c1 464D435F 		.ascii	"FMC_IRQn\000"
 4456      4952516E 
 4456      00
 4457              	.LASF159:
 4458 08ca 49324333 		.ascii	"I2C3_ER_IRQn\000"
 4458      5F45525F 
 4458      4952516E 
 4458      00
 4459              	.LASF165:
 4460 08d7 43525950 		.ascii	"CRYP_IRQn\000"
 4460      5F495251 
 4460      6E00
 4461              	.LASF126:
 4462 08e1 45585449 		.ascii	"EXTI15_10_IRQn\000"
 4462      31355F31 
 4462      305F4952 
 4462      516E00
 4463              	.LASF13:
 4464 08f0 6C6F6E67 		.ascii	"long long unsigned int\000"
ARM GAS  /tmp/ccVOA2uB.s 			page 87


 4464      206C6F6E 
 4464      6720756E 
 4464      7369676E 
 4464      65642069 
 4465              	.LASF30:
 4466 0907 705F6F6C 		.ascii	"p_older\000"
 4466      64657200 
 4467              	.LASF6:
 4468 090f 75696E74 		.ascii	"uint16_t\000"
 4468      31365F74 
 4468      00
 4469              	.LASF20:
 4470 0918 6D73675F 		.ascii	"msg_t\000"
 4470      7400
 4471              	.LASF115:
 4472 091e 54494D33 		.ascii	"TIM3_IRQn\000"
 4472      5F495251 
 4472      6E00
 4473              	.LASF123:
 4474 0928 55534152 		.ascii	"USART1_IRQn\000"
 4474      54315F49 
 4474      52516E00 
 4475              	.LASF168:
 4476 0934 55415254 		.ascii	"UART7_IRQn\000"
 4476      375F4952 
 4476      516E00
 4477              	.LASF18:
 4478 093f 74736C69 		.ascii	"tslices_t\000"
 4478      6365735F 
 4478      7400
 4479              	.LASF94:
 4480 0949 45585449 		.ascii	"EXTI2_IRQn\000"
 4480      325F4952 
 4480      516E00
 4481              	.LASF151:
 4482 0954 43414E32 		.ascii	"CAN2_RX1_IRQn\000"
 4482      5F525831 
 4482      5F495251 
 4482      6E00
 4483              	.LASF104:
 4484 0962 4144435F 		.ascii	"ADC_IRQn\000"
 4484      4952516E 
 4484      00
 4485              	.LASF193:
 4486 096b 41484233 		.ascii	"AHB3LPENR\000"
 4486      4C50454E 
 4486      5200
 4487              	.LASF245:
 4488 0975 2E2E2F41 		.ascii	"../AithonLibrary/ChibiOS/os/hal/platforms/STM32/USA"
 4488      6974686F 
 4488      6E4C6962 
 4488      72617279 
 4488      2F436869 
 4489 09a8 52547631 		.ascii	"RTv1/serial_lld.c\000"
 4489      2F736572 
 4489      69616C5F 
 4489      6C6C642E 
ARM GAS  /tmp/ccVOA2uB.s 			page 88


 4489      6300
 4490              	.LASF87:
 4491 09ba 5056445F 		.ascii	"PVD_IRQn\000"
 4491      4952516E 
 4491      00
 4492              	.LASF211:
 4493 09c3 53657269 		.ascii	"SerialDriver\000"
 4493      616C4472 
 4493      69766572 
 4493      00
 4494              	.LASF67:
 4495 09d0 715F7761 		.ascii	"q_waiting\000"
 4495      6974696E 
 4495      6700
 4496              	.LASF92:
 4497 09da 45585449 		.ascii	"EXTI0_IRQn\000"
 4497      305F4952 
 4497      516E00
 4498              	.LASF15:
 4499 09e5 746D6F64 		.ascii	"tmode_t\000"
 4499      655F7400 
 4500              	.LASF101:
 4501 09ed 444D4131 		.ascii	"DMA1_Stream4_IRQn\000"
 4501      5F537472 
 4501      65616D34 
 4501      5F495251 
 4501      6E00
 4502              	.LASF210:
 4503 09ff 73647374 		.ascii	"sdstate_t\000"
 4503      6174655F 
 4503      7400
 4504              	.LASF155:
 4505 0a09 444D4132 		.ascii	"DMA2_Stream6_IRQn\000"
 4505      5F537472 
 4505      65616D36 
 4505      5F495251 
 4505      6E00
 4506              	.LASF184:
 4507 0a1b 41484231 		.ascii	"AHB1ENR\000"
 4507      454E5200 
 4508              	.LASF83:
 4509 0a23 44656275 		.ascii	"DebugMonitor_IRQn\000"
 4509      674D6F6E 
 4509      69746F72 
 4509      5F495251 
 4509      6E00
 4510              	.LASF209:
 4511 0a35 53445F52 		.ascii	"SD_READY\000"
 4511      45414459 
 4511      00
 4512              	.LASF158:
 4513 0a3e 49324333 		.ascii	"I2C3_EV_IRQn\000"
 4513      5F45565F 
 4513      4952516E 
 4513      00
 4514              	.LASF178:
 4515 0a4b 41484232 		.ascii	"AHB2RSTR\000"
ARM GAS  /tmp/ccVOA2uB.s 			page 89


 4515      52535452 
 4515      00
 4516              	.LASF147:
 4517 0a54 4554485F 		.ascii	"ETH_IRQn\000"
 4517      4952516E 
 4517      00
 4518              	.LASF229:
 4519 0a5d 6E6F7469 		.ascii	"notify1\000"
 4519      66793100 
 4520              	.LASF230:
 4521 0a65 6E6F7469 		.ascii	"notify2\000"
 4521      66793200 
 4522              	.LASF204:
 4523 0a6d 5243435F 		.ascii	"RCC_TypeDef\000"
 4523      54797065 
 4523      44656600 
 4524              	.LASF5:
 4525 0a79 73686F72 		.ascii	"short int\000"
 4525      7420696E 
 4525      7400
 4526              	.LASF91:
 4527 0a83 5243435F 		.ascii	"RCC_IRQn\000"
 4527      4952516E 
 4527      00
 4528              	.LASF214:
 4529 0a8c 69717565 		.ascii	"iqueue\000"
 4529      756500
 4530              	.LASF100:
 4531 0a93 444D4131 		.ascii	"DMA1_Stream3_IRQn\000"
 4531      5F537472 
 4531      65616D33 
 4531      5F495251 
 4531      6E00
 4532              	.LASF24:
 4533 0aa5 54687265 		.ascii	"Thread\000"
 4533      616400
 4534              	.LASF111:
 4535 0aac 54494D31 		.ascii	"TIM1_UP_TIM10_IRQn\000"
 4535      5F55505F 
 4535      54494D31 
 4535      305F4952 
 4535      516E00
 4536              	.LASF239:
 4537 0abf 49544D5F 		.ascii	"ITM_RxBuffer\000"
 4537      52784275 
 4537      66666572 
 4537      00
 4538              	.LASF246:
 4539 0acc 2F686F6D 		.ascii	"/home/brian/aithon/ProjectTemplate\000"
 4539      652F6272 
 4539      69616E2F 
 4539      61697468 
 4539      6F6E2F50 
 4540              	.LASF17:
 4541 0aef 74726566 		.ascii	"trefs_t\000"
 4541      735F7400 
 4542              	.LASF160:
ARM GAS  /tmp/ccVOA2uB.s 			page 90


 4543 0af7 4F54475F 		.ascii	"OTG_HS_EP1_OUT_IRQn\000"
 4543      48535F45 
 4543      50315F4F 
 4543      55545F49 
 4543      52516E00 
 4544              	.LASF89:
 4545 0b0b 5254435F 		.ascii	"RTC_WKUP_IRQn\000"
 4545      574B5550 
 4545      5F495251 
 4545      6E00
 4546              	.LASF54:
 4547 0b19 4576656E 		.ascii	"EventListener\000"
 4547      744C6973 
 4547      74656E65 
 4547      7200
 4548              	.LASF243:
 4549 0b27 6E766963 		.ascii	"nvicEnableVector\000"
 4549      456E6162 
 4549      6C655665 
 4549      63746F72 
 4549      00
 4550              	.LASF10:
 4551 0b38 75696E74 		.ascii	"uint32_t\000"
 4551      33325F74 
 4551      00
 4552              	.LASF233:
 4553 0b41 56656374 		.ascii	"VectorD4\000"
 4553      6F724434 
 4553      00
 4554              	.LASF107:
 4555 0b4a 43414E31 		.ascii	"CAN1_RX1_IRQn\000"
 4555      5F525831 
 4555      5F495251 
 4555      6E00
 4556              	.LASF44:
 4557 0b58 54687265 		.ascii	"ThreadsQueue\000"
 4557      61647351 
 4557      75657565 
 4557      00
 4558              	.LASF109:
 4559 0b65 45585449 		.ascii	"EXTI9_5_IRQn\000"
 4559      395F355F 
 4559      4952516E 
 4559      00
 4560              	.LASF202:
 4561 0b72 504C4C53 		.ascii	"PLLSAICFGR\000"
 4561      41494346 
 4561      475200
 4562              	.LASF61:
 4563 0b7d 7264796D 		.ascii	"rdymsg\000"
 4563      736700
 4564              	.LASF96:
 4565 0b84 45585449 		.ascii	"EXTI4_IRQn\000"
 4565      345F4952 
 4565      516E00
 4566              	.LASF7:
 4567 0b8f 73686F72 		.ascii	"short unsigned int\000"
ARM GAS  /tmp/ccVOA2uB.s 			page 91


 4567      7420756E 
 4567      7369676E 
 4567      65642069 
 4567      6E7400
 4568              	.LASF237:
 4569 0ba2 73645F6C 		.ascii	"sd_lld_stop\000"
 4569      6C645F73 
 4569      746F7000 
 4570              	.LASF132:
 4571 0bae 54494D38 		.ascii	"TIM8_CC_IRQn\000"
 4571      5F43435F 
 4571      4952516E 
 4571      00
 4572              	.LASF135:
 4573 0bbb 5344494F 		.ascii	"SDIO_IRQn\000"
 4573      5F495251 
 4573      6E00
 4574              	.LASF76:
 4575 0bc5 496E7075 		.ascii	"InputQueue\000"
 4575      74517565 
 4575      756500
 4576              	.LASF95:
 4577 0bd0 45585449 		.ascii	"EXTI3_IRQn\000"
 4577      335F4952 
 4577      516E00
 4578              	.LASF84:
 4579 0bdb 50656E64 		.ascii	"PendSV_IRQn\000"
 4579      53565F49 
 4579      52516E00 
 4580              	.LASF161:
 4581 0be7 4F54475F 		.ascii	"OTG_HS_EP1_IN_IRQn\000"
 4581      48535F45 
 4581      50315F49 
 4581      4E5F4952 
 4581      516E00
 4582              	.LASF133:
 4583 0bfa 444D4131 		.ascii	"DMA1_Stream7_IRQn\000"
 4583      5F537472 
 4583      65616D37 
 4583      5F495251 
 4583      6E00
 4584              	.LASF177:
 4585 0c0c 41484231 		.ascii	"AHB1RSTR\000"
 4585      52535452 
 4585      00
 4586              	.LASF208:
 4587 0c15 53445F53 		.ascii	"SD_STOP\000"
 4587      544F5000 
 4588              	.LASF57:
 4589 0c1d 656C5F6D 		.ascii	"el_mask\000"
 4589      61736B00 
 4590              	.LASF29:
 4591 0c25 705F6E65 		.ascii	"p_newer\000"
 4591      77657200 
 4592              	.LASF31:
 4593 0c2d 705F6E61 		.ascii	"p_name\000"
 4593      6D6500
ARM GAS  /tmp/ccVOA2uB.s 			page 92


 4594              	.LASF53:
 4595 0c34 6D5F6E65 		.ascii	"m_next\000"
 4595      787400
 4596              	.LASF186:
 4597 0c3b 41484233 		.ascii	"AHB3ENR\000"
 4597      454E5200 
 4598              	.LASF144:
 4599 0c43 444D4132 		.ascii	"DMA2_Stream2_IRQn\000"
 4599      5F537472 
 4599      65616D32 
 4599      5F495251 
 4599      6E00
 4600              	.LASF39:
 4601 0c55 705F6D73 		.ascii	"p_msg\000"
 4601      6700
 4602              	.LASF56:
 4603 0c5b 656C5F6C 		.ascii	"el_listener\000"
 4603      69737465 
 4603      6E657200 
 4604              	.LASF32:
 4605 0c67 705F7374 		.ascii	"p_state\000"
 4605      61746500 
 4606              		.ident	"GCC: (GNU Tools for ARM Embedded Processors) 4.8.3 20131129 (release) [ARM/embedded-4_8-br
ARM GAS  /tmp/ccVOA2uB.s 			page 93


DEFINED SYMBOLS
                            *ABS*:0000000000000000 serial_lld.c
     /tmp/ccVOA2uB.s:20     .text.notify1:0000000000000000 $t
     /tmp/ccVOA2uB.s:25     .text.notify1:0000000000000000 notify1
     /tmp/ccVOA2uB.s:44     .text.notify1:0000000000000010 $d
     /tmp/ccVOA2uB.s:49     .text.notify2:0000000000000000 $t
     /tmp/ccVOA2uB.s:54     .text.notify2:0000000000000000 notify2
     /tmp/ccVOA2uB.s:72     .text.notify2:0000000000000010 $d
     /tmp/ccVOA2uB.s:77     .text.serve_interrupt:0000000000000000 $t
     /tmp/ccVOA2uB.s:82     .text.serve_interrupt:0000000000000000 serve_interrupt
     /tmp/ccVOA2uB.s:319    .text.VectorD4:0000000000000000 $t
     /tmp/ccVOA2uB.s:325    .text.VectorD4:0000000000000000 VectorD4
     /tmp/ccVOA2uB.s:347    .text.VectorD4:0000000000000010 $d
     /tmp/ccVOA2uB.s:352    .text.VectorD8:0000000000000000 $t
     /tmp/ccVOA2uB.s:358    .text.VectorD8:0000000000000000 VectorD8
     /tmp/ccVOA2uB.s:380    .text.VectorD8:0000000000000010 $d
     /tmp/ccVOA2uB.s:385    .text.sd_lld_init:0000000000000000 $t
     /tmp/ccVOA2uB.s:391    .text.sd_lld_init:0000000000000000 sd_lld_init
     /tmp/ccVOA2uB.s:431    .text.sd_lld_init:0000000000000024 $d
     /tmp/ccVOA2uB.s:441    .text.sd_lld_start:0000000000000000 $t
     /tmp/ccVOA2uB.s:447    .text.sd_lld_start:0000000000000000 sd_lld_start
     /tmp/ccVOA2uB.s:587    .text.sd_lld_start:000000000000009c $d
     /tmp/ccVOA2uB.s:598    .text.sd_lld_stop:0000000000000000 $t
     /tmp/ccVOA2uB.s:604    .text.sd_lld_stop:0000000000000000 sd_lld_stop
     /tmp/ccVOA2uB.s:674    .text.sd_lld_stop:0000000000000040 $d
     /tmp/ccVOA2uB.s:705    .bss.SD2:0000000000000000 SD2
     /tmp/ccVOA2uB.s:698    .bss.SD1:0000000000000000 SD1
     /tmp/ccVOA2uB.s:683    .rodata.default_config:0000000000000000 $d
     /tmp/ccVOA2uB.s:687    .rodata.default_config:0000000000000000 default_config
     /tmp/ccVOA2uB.s:694    .bss.SD1:0000000000000000 $d
     /tmp/ccVOA2uB.s:701    .bss.SD2:0000000000000000 $d
                     .debug_frame:0000000000000010 $d
     /tmp/ccVOA2uB.s:48     .text.notify1:0000000000000014 $t
     /tmp/ccVOA2uB.s:76     .text.notify2:0000000000000014 $t
     /tmp/ccVOA2uB.s:351    .text.VectorD4:0000000000000014 $t
     /tmp/ccVOA2uB.s:384    .text.VectorD8:0000000000000014 $t
     /tmp/ccVOA2uB.s:440    .text.sd_lld_init:000000000000003c $t
     /tmp/ccVOA2uB.s:597    .text.sd_lld_start:00000000000000b8 $t
     /tmp/ccVOA2uB.s:682    .text.sd_lld_stop:000000000000004c $t

UNDEFINED SYMBOLS
sdIncomingDataI
chEvtBroadcastFlagsI
chOQGetI
_port_irq_epilogue
sdObjectInit
nvicEnableVector
nvicDisableVector
