ARM GAS  /tmp/ccVOA2uB.s 			page 1


   1              		.syntax unified
   2              		.cpu cortex-m4
   3              		.eabi_attribute 27, 3
   4              		.fpu fpv4-sp-d16
   5              		.eabi_attribute 20, 1
   6              		.eabi_attribute 21, 1
   7              		.eabi_attribute 23, 3
   8              		.eabi_attribute 24, 1
   9              		.eabi_attribute 25, 1
  10              		.eabi_attribute 26, 1
  11              		.eabi_attribute 30, 2
  12              		.eabi_attribute 34, 1
  13              		.eabi_attribute 18, 4
  14              		.thumb
  15              		.file	"serial_lld.c"
  16              		.text
  17              	.Ltext0:
  18              		.cfi_sections	.debug_frame
  19              		.section	.text.notify1,"ax",%progbits
  20              		.align	2
  21              		.p2align 4,,15
  22              		.thumb
  23              		.thumb_func
  24              		.type	notify1, %function
  25              	notify1:
  26              	.LFB122:
  27              		.file 1 "../AithonLibrary/ChibiOS/os/hal/platforms/STM32/USARTv1/serial_lld.c"
  28              		.loc 1 203 0
  29              		.cfi_startproc
  30              		@ args = 0, pretend = 0, frame = 0
  31              		@ frame_needed = 0, uses_anonymous_args = 0
  32              		@ link register save eliminated.
  33              	.LVL0:
  34              		.loc 1 206 0
  35 0000 034B     		ldr	r3, .L2
  36 0002 9A89     		ldrh	r2, [r3, #12]
  37 0004 92B2     		uxth	r2, r2
  38 0006 42F08002 		orr	r2, r2, #128
  39 000a 9A81     		strh	r2, [r3, #12]	@ movhi
  40 000c 7047     		bx	lr
  41              	.L3:
  42 000e 00BF     		.align	2
  43              	.L2:
  44 0010 00100140 		.word	1073811456
  45              		.cfi_endproc
  46              	.LFE122:
  47              		.size	notify1, .-notify1
  48 0014 AFF30080 		.section	.text.notify2,"ax",%progbits
  48      AFF30080 
  48      AFF30080 
  49              		.align	2
  50              		.p2align 4,,15
  51              		.thumb
  52              		.thumb_func
  53              		.type	notify2, %function
  54              	notify2:
  55              	.LFB123:
ARM GAS  /tmp/ccVOA2uB.s 			page 2


  56              		.loc 1 211 0
  57              		.cfi_startproc
  58              		@ args = 0, pretend = 0, frame = 0
  59              		@ frame_needed = 0, uses_anonymous_args = 0
  60              		@ link register save eliminated.
  61              	.LVL1:
  62              		.loc 1 214 0
  63 0000 034B     		ldr	r3, .L5
  64 0002 9A89     		ldrh	r2, [r3, #12]
  65 0004 92B2     		uxth	r2, r2
  66 0006 42F08002 		orr	r2, r2, #128
  67 000a 9A81     		strh	r2, [r3, #12]	@ movhi
  68 000c 7047     		bx	lr
  69              	.L6:
  70 000e 00BF     		.align	2
  71              	.L5:
  72 0010 00440040 		.word	1073759232
  73              		.cfi_endproc
  74              	.LFE123:
  75              		.size	notify2, .-notify2
  76 0014 AFF30080 		.section	.text.serve_interrupt,"ax",%progbits
  76      AFF30080 
  76      AFF30080 
  77              		.align	2
  78              		.p2align 4,,15
  79              		.thumb
  80              		.thumb_func
  81              		.type	serve_interrupt, %function
  82              	serve_interrupt:
  83              	.LFB121:
  84              		.loc 1 154 0
  85              		.cfi_startproc
  86              		@ args = 0, pretend = 0, frame = 0
  87              		@ frame_needed = 0, uses_anonymous_args = 0
  88              	.LVL2:
  89 0000 2DE9F041 		push	{r4, r5, r6, r7, r8, lr}
  90              		.cfi_def_cfa_offset 24
  91              		.cfi_offset 4, -24
  92              		.cfi_offset 5, -20
  93              		.cfi_offset 6, -16
  94              		.cfi_offset 7, -12
  95              		.cfi_offset 8, -8
  96              		.cfi_offset 14, -4
  97              		.loc 1 155 0
  98 0004 456F     		ldr	r5, [r0, #116]
  99              	.LVL3:
 100              		.loc 1 156 0
 101 0006 B5F80C80 		ldrh	r8, [r5, #12]
 102              		.loc 1 157 0
 103 000a 2C88     		ldrh	r4, [r5]
 104 000c A4B2     		uxth	r4, r4
 105              		.loc 1 154 0
 106 000e 0646     		mov	r6, r0
 107              		.loc 1 160 0
 108 0010 E005     		lsls	r0, r4, #23
 109              	.LVL4:
 110              		.loc 1 156 0
ARM GAS  /tmp/ccVOA2uB.s 			page 3


 111 0012 1FFA88F8 		uxth	r8, r8
 112              	.LVL5:
 113              		.loc 1 160 0
 114 0016 46D4     		bmi	.L52
 115              	.L8:
 116              	.LBB15:
 117              		.loc 1 168 0
 118 0018 2023     		movs	r3, #32
 119              	@ 168 "../AithonLibrary/ChibiOS/os/hal/platforms/STM32/USARTv1/serial_lld.c" 1
 120 001a 83F31188 		msr     BASEPRI, r3
 121              	@ 0 "" 2
 122              		.thumb
 123              	.LBE15:
 124              		.loc 1 169 0
 125 001e A106     		lsls	r1, r4, #26
 126 0020 22D5     		bpl	.L9
 127              	.LBB16:
 128              	.LBB17:
 129              		.loc 1 146 0
 130 0022 371D     		adds	r7, r6, #4
 131 0024 08E0     		b	.L15
 132              	.LVL6:
 133              	.L10:
 134              	.LBE17:
 135              	.LBE16:
 136              		.loc 1 173 0
 137 0026 A988     		ldrh	r1, [r5, #4]
 138 0028 3046     		mov	r0, r6
 139 002a C9B2     		uxtb	r1, r1
 140 002c FFF7FEFF 		bl	sdIncomingDataI
 141              	.LVL7:
 142              		.loc 1 174 0
 143 0030 2C88     		ldrh	r4, [r5]
 144 0032 A4B2     		uxth	r4, r4
 145              	.LVL8:
 146              		.loc 1 169 0
 147 0034 A106     		lsls	r1, r4, #26
 148 0036 17D5     		bpl	.L9
 149              	.LVL9:
 150              	.L15:
 151              		.loc 1 171 0
 152 0038 2207     		lsls	r2, r4, #28
 153 003a F4D0     		beq	.L10
 154              	.LVL10:
 155              	.LBB19:
 156              	.LBB18:
 157              		.loc 1 136 0
 158 003c 14F0080F 		tst	r4, #8
 159 0040 14BF     		ite	ne
 160 0042 8021     		movne	r1, #128
 161 0044 0021     		moveq	r1, #0
 162              	.LVL11:
 163              		.loc 1 140 0
 164 0046 14F0010F 		tst	r4, #1
 165              		.loc 1 141 0
 166 004a 18BF     		it	ne
 167 004c 41F02001 		orrne	r1, r1, #32
ARM GAS  /tmp/ccVOA2uB.s 			page 4


 168              	.LVL12:
 169              		.loc 1 142 0
 170 0050 A307     		lsls	r3, r4, #30
 171              		.loc 1 143 0
 172 0052 48BF     		it	mi
 173 0054 41F04001 		orrmi	r1, r1, #64
 174              	.LVL13:
 175              		.loc 1 144 0
 176 0058 6407     		lsls	r4, r4, #29
 177              	.LVL14:
 178              		.loc 1 146 0
 179 005a 3846     		mov	r0, r7
 180              		.loc 1 145 0
 181 005c 48BF     		it	mi
 182 005e 41F48071 		orrmi	r1, r1, #256
 183              	.LVL15:
 184              		.loc 1 146 0
 185 0062 FFF7FEFF 		bl	chEvtBroadcastFlagsI
 186              	.LVL16:
 187 0066 DEE7     		b	.L10
 188              	.L9:
 189              	.LBE18:
 190              	.LBE19:
 191              	.LBB20:
 192              		.loc 1 176 0
 193 0068 0023     		movs	r3, #0
 194              	@ 176 "../AithonLibrary/ChibiOS/os/hal/platforms/STM32/USARTv1/serial_lld.c" 1
 195 006a 83F31188 		msr     BASEPRI, r3
 196              	@ 0 "" 2
 197              		.thumb
 198              	.LBE20:
 199              		.loc 1 179 0
 200 006e 18F0800F 		tst	r8, #128
 201 0072 01D0     		beq	.L16
 202              		.loc 1 179 0 is_stmt 0 discriminator 1
 203 0074 2206     		lsls	r2, r4, #24
 204 0076 25D4     		bmi	.L53
 205              	.L16:
 206              		.loc 1 193 0 is_stmt 1
 207 0078 6306     		lsls	r3, r4, #25
 208 007a 12D5     		bpl	.L7
 209              	.LBB21:
 210              		.loc 1 194 0
 211 007c 2023     		movs	r3, #32
 212              	@ 194 "../AithonLibrary/ChibiOS/os/hal/platforms/STM32/USARTv1/serial_lld.c" 1
 213 007e 83F31188 		msr     BASEPRI, r3
 214              	@ 0 "" 2
 215              		.thumb
 216              	.LBE21:
 217              		.loc 1 195 0
 218 0082 1021     		movs	r1, #16
 219 0084 301D     		adds	r0, r6, #4
 220 0086 FFF7FEFF 		bl	chEvtBroadcastFlagsI
 221              	.LVL17:
 222              	.LBB22:
 223              		.loc 1 196 0
 224 008a 0023     		movs	r3, #0
ARM GAS  /tmp/ccVOA2uB.s 			page 5


 225              	@ 196 "../AithonLibrary/ChibiOS/os/hal/platforms/STM32/USARTv1/serial_lld.c" 1
 226 008c 83F31188 		msr     BASEPRI, r3
 227              	@ 0 "" 2
 228              		.thumb
 229              	.LBE22:
 230              		.loc 1 197 0
 231 0090 28F0C008 		bic	r8, r8, #192
 232              	.LVL18:
 233 0094 1FFA88F8 		uxth	r8, r8
 234              		.loc 1 198 0
 235 0098 4FF6BF73 		movw	r3, #65471
 236              		.loc 1 197 0
 237 009c A5F80C80 		strh	r8, [r5, #12]	@ movhi
 238              		.loc 1 198 0
 239 00a0 2B80     		strh	r3, [r5]	@ movhi
 240              	.L7:
 241 00a2 BDE8F081 		pop	{r4, r5, r6, r7, r8, pc}
 242              	.LVL19:
 243              	.L52:
 244              	.LBB23:
 245              		.loc 1 161 0
 246 00a6 2023     		movs	r3, #32
 247              	@ 161 "../AithonLibrary/ChibiOS/os/hal/platforms/STM32/USARTv1/serial_lld.c" 1
 248 00a8 83F31188 		msr     BASEPRI, r3
 249              	@ 0 "" 2
 250              		.thumb
 251              	.LBE23:
 252              		.loc 1 162 0
 253 00ac 4FF40071 		mov	r1, #512
 254 00b0 301D     		adds	r0, r6, #4
 255 00b2 FFF7FEFF 		bl	chEvtBroadcastFlagsI
 256              	.LVL20:
 257              	.LBB24:
 258              		.loc 1 163 0
 259 00b6 0023     		movs	r3, #0
 260              	@ 163 "../AithonLibrary/ChibiOS/os/hal/platforms/STM32/USARTv1/serial_lld.c" 1
 261 00b8 83F31188 		msr     BASEPRI, r3
 262              	@ 0 "" 2
 263              		.thumb
 264              	.LBE24:
 265              		.loc 1 164 0
 266 00bc 4FF6FF63 		movw	r3, #65279
 267 00c0 2B80     		strh	r3, [r5]	@ movhi
 268 00c2 A9E7     		b	.L8
 269              	.LVL21:
 270              	.L53:
 271              	.LBB25:
 272              	.LBB26:
 273              		.loc 1 181 0
 274 00c4 2023     		movs	r3, #32
 275              	@ 181 "../AithonLibrary/ChibiOS/os/hal/platforms/STM32/USARTv1/serial_lld.c" 1
 276 00c6 83F31188 		msr     BASEPRI, r3
 277              	@ 0 "" 2
 278              		.thumb
 279              	.LBE26:
 280              		.loc 1 182 0
 281 00ca 06F13000 		add	r0, r6, #48
ARM GAS  /tmp/ccVOA2uB.s 			page 6


 282 00ce FFF7FEFF 		bl	chOQGetI
 283              	.LVL22:
 284              		.loc 1 183 0
 285 00d2 0028     		cmp	r0, #0
 286 00d4 05DB     		blt	.L54
 287              		.loc 1 188 0
 288 00d6 80B2     		uxth	r0, r0
 289              	.LVL23:
 290 00d8 A880     		strh	r0, [r5, #4]	@ movhi
 291              	.L18:
 292              	.LBB27:
 293              		.loc 1 189 0
 294 00da 0023     		movs	r3, #0
 295              	@ 189 "../AithonLibrary/ChibiOS/os/hal/platforms/STM32/USARTv1/serial_lld.c" 1
 296 00dc 83F31188 		msr     BASEPRI, r3
 297              	@ 0 "" 2
 298              		.thumb
 299 00e0 CAE7     		b	.L16
 300              	.LVL24:
 301              	.L54:
 302              	.LBE27:
 303              		.loc 1 184 0
 304 00e2 301D     		adds	r0, r6, #4
 305              	.LVL25:
 306 00e4 0821     		movs	r1, #8
 307 00e6 FFF7FEFF 		bl	chEvtBroadcastFlagsI
 308              	.LVL26:
 309              		.loc 1 185 0
 310 00ea 28F0C003 		bic	r3, r8, #192
 311 00ee 43F04003 		orr	r3, r3, #64
 312 00f2 AB81     		strh	r3, [r5, #12]	@ movhi
 313 00f4 F1E7     		b	.L18
 314              	.LBE25:
 315              		.cfi_endproc
 316              	.LFE121:
 317              		.size	serve_interrupt, .-serve_interrupt
 318 00f6 00BFAFF3 		.section	.text.VectorD4,"ax",%progbits
 318      0080AFF3 
 318      0080
 319              		.align	2
 320              		.p2align 4,,15
 321              		.global	VectorD4
 322              		.thumb
 323              		.thumb_func
 324              		.type	VectorD4, %function
 325              	VectorD4:
 326              	.LFB124:
 327              		.loc 1 263 0
 328              		.cfi_startproc
 329              		@ args = 0, pretend = 0, frame = 0
 330              		@ frame_needed = 0, uses_anonymous_args = 0
 331 0000 08B5     		push	{r3, lr}
 332              		.cfi_def_cfa_offset 8
 333              		.cfi_offset 3, -8
 334              		.cfi_offset 14, -4
 335              		.loc 1 267 0
 336 0002 0348     		ldr	r0, .L56
ARM GAS  /tmp/ccVOA2uB.s 			page 7


 337 0004 FFF7FEFF 		bl	serve_interrupt
 338              	.LVL27:
 339              		.loc 1 270 0
 340 0008 BDE80840 		pop	{r3, lr}
 341              		.loc 1 269 0
 342 000c FFF7FEBF 		b	_port_irq_epilogue
 343              	.LVL28:
 344              	.L57:
 345              		.align	2
 346              	.L56:
 347 0010 00000000 		.word	.LANCHOR0
 348              		.cfi_endproc
 349              	.LFE124:
 350              		.size	VectorD4, .-VectorD4
 351 0014 AFF30080 		.section	.text.VectorD8,"ax",%progbits
 351      AFF30080 
 351      AFF30080 
 352              		.align	2
 353              		.p2align 4,,15
 354              		.global	VectorD8
 355              		.thumb
 356              		.thumb_func
 357              		.type	VectorD8, %function
 358              	VectorD8:
 359              	.LFB125:
 360              		.loc 1 282 0
 361              		.cfi_startproc
 362              		@ args = 0, pretend = 0, frame = 0
 363              		@ frame_needed = 0, uses_anonymous_args = 0
 364 0000 08B5     		push	{r3, lr}
 365              		.cfi_def_cfa_offset 8
 366              		.cfi_offset 3, -8
 367              		.cfi_offset 14, -4
 368              		.loc 1 286 0
 369 0002 0348     		ldr	r0, .L59
 370 0004 FFF7FEFF 		bl	serve_interrupt
 371              	.LVL29:
 372              		.loc 1 289 0
 373 0008 BDE80840 		pop	{r3, lr}
 374              		.loc 1 288 0
 375 000c FFF7FEBF 		b	_port_irq_epilogue
 376              	.LVL30:
 377              	.L60:
 378              		.align	2
 379              	.L59:
 380 0010 00000000 		.word	.LANCHOR1
 381              		.cfi_endproc
 382              	.LFE125:
 383              		.size	VectorD8, .-VectorD8
 384 0014 AFF30080 		.section	.text.sd_lld_init,"ax",%progbits
 384      AFF30080 
 384      AFF30080 
 385              		.align	2
 386              		.p2align 4,,15
 387              		.global	sd_lld_init
 388              		.thumb
 389              		.thumb_func
ARM GAS  /tmp/ccVOA2uB.s 			page 8


 390              		.type	sd_lld_init, %function
 391              	sd_lld_init:
 392              	.LFB126:
 393              		.loc 1 377 0
 394              		.cfi_startproc
 395              		@ args = 0, pretend = 0, frame = 0
 396              		@ frame_needed = 0, uses_anonymous_args = 0
 397 0000 38B5     		push	{r3, r4, r5, lr}
 398              		.cfi_def_cfa_offset 16
 399              		.cfi_offset 3, -16
 400              		.cfi_offset 4, -12
 401              		.cfi_offset 5, -8
 402              		.cfi_offset 14, -4
 403              		.loc 1 380 0
 404 0002 084D     		ldr	r5, .L62
 405              		.loc 1 385 0
 406 0004 084C     		ldr	r4, .L62+4
 407              		.loc 1 380 0
 408 0006 094A     		ldr	r2, .L62+8
 409 0008 2846     		mov	r0, r5
 410 000a 0021     		movs	r1, #0
 411 000c FFF7FEFF 		bl	sdObjectInit
 412              	.LVL31:
 413              		.loc 1 381 0
 414 0010 074B     		ldr	r3, .L62+12
 415              		.loc 1 385 0
 416 0012 084A     		ldr	r2, .L62+16
 417              		.loc 1 381 0
 418 0014 6B67     		str	r3, [r5, #116]
 419              		.loc 1 385 0
 420 0016 2046     		mov	r0, r4
 421 0018 0021     		movs	r1, #0
 422 001a FFF7FEFF 		bl	sdObjectInit
 423              	.LVL32:
 424              		.loc 1 386 0
 425 001e 064B     		ldr	r3, .L62+20
 426 0020 6367     		str	r3, [r4, #116]
 427 0022 38BD     		pop	{r3, r4, r5, pc}
 428              	.L63:
 429              		.align	2
 430              	.L62:
 431 0024 00000000 		.word	.LANCHOR0
 432 0028 00000000 		.word	.LANCHOR1
 433 002c 00000000 		.word	notify1
 434 0030 00100140 		.word	1073811456
 435 0034 00000000 		.word	notify2
 436 0038 00440040 		.word	1073759232
 437              		.cfi_endproc
 438              	.LFE126:
 439              		.size	sd_lld_init, .-sd_lld_init
 440 003c AFF30080 		.section	.text.sd_lld_start,"ax",%progbits
 441              		.align	2
 442              		.p2align 4,,15
 443              		.global	sd_lld_start
 444              		.thumb
 445              		.thumb_func
 446              		.type	sd_lld_start, %function
ARM GAS  /tmp/ccVOA2uB.s 			page 9


 447              	sd_lld_start:
 448              	.LFB127:
 449              		.loc 1 420 0
 450              		.cfi_startproc
 451              		@ args = 0, pretend = 0, frame = 0
 452              		@ frame_needed = 0, uses_anonymous_args = 0
 453              	.LVL33:
 454 0000 38B5     		push	{r3, r4, r5, lr}
 455              		.cfi_def_cfa_offset 16
 456              		.cfi_offset 3, -16
 457              		.cfi_offset 4, -12
 458              		.cfi_offset 5, -8
 459              		.cfi_offset 14, -4
 460              		.loc 1 423 0
 461 0002 264C     		ldr	r4, .L74
 462              		.loc 1 425 0
 463 0004 037A     		ldrb	r3, [r0, #8]	@ zero_extendqisi2
 464              		.loc 1 423 0
 465 0006 0029     		cmp	r1, #0
 466 0008 18BF     		it	ne
 467 000a 0C46     		movne	r4, r1
 468              	.LVL34:
 469              		.loc 1 425 0
 470 000c 012B     		cmp	r3, #1
 471              		.loc 1 420 0
 472 000e 0546     		mov	r5, r0
 473              		.loc 1 425 0
 474 0010 23D0     		beq	.L72
 475              	.LVL35:
 476              	.L66:
 477              		.loc 1 420 0
 478 0012 6B6F     		ldr	r3, [r5, #116]
 479              	.LVL36:
 480              	.LBB30:
 481              	.LBB31:
 482              		.loc 1 97 0
 483 0014 224A     		ldr	r2, .L74+4
 484 0016 9342     		cmp	r3, r2
 485 0018 2FD0     		beq	.L68
 486 001a 02F58062 		add	r2, r2, #1024
 487 001e 9342     		cmp	r3, r2
 488 0020 2BD0     		beq	.L68
 489              		.loc 1 103 0
 490 0022 2268     		ldr	r2, [r4]
 491 0024 1F49     		ldr	r1, .L74+8
 492 0026 B1FBF2F2 		udiv	r2, r1, r2
 493 002a 92B2     		uxth	r2, r2
 494 002c 1A81     		strh	r2, [r3, #8]	@ movhi
 495              	.L70:
 496              		.loc 1 108 0
 497 002e A288     		ldrh	r2, [r4, #4]
 498              		.loc 1 106 0
 499 0030 E188     		ldrh	r1, [r4, #6]
 500              		.loc 1 107 0
 501 0032 2089     		ldrh	r0, [r4, #8]
 502              		.loc 1 108 0
 503 0034 42F40452 		orr	r2, r2, #8448
ARM GAS  /tmp/ccVOA2uB.s 			page 10


 504              		.loc 1 106 0
 505 0038 41F04004 		orr	r4, r1, #64
 506              	.LVL37:
 507              		.loc 1 108 0
 508 003c 42F02C02 		orr	r2, r2, #44
 509              		.loc 1 107 0
 510 0040 40F00100 		orr	r0, r0, #1
 511              		.loc 1 108 0
 512 0044 92B2     		uxth	r2, r2
 513              		.loc 1 106 0
 514 0046 A4B2     		uxth	r4, r4
 515              		.loc 1 107 0
 516 0048 80B2     		uxth	r0, r0
 517              		.loc 1 111 0
 518 004a 0021     		movs	r1, #0
 519              		.loc 1 106 0
 520 004c 1C82     		strh	r4, [r3, #16]	@ movhi
 521              		.loc 1 107 0
 522 004e 9882     		strh	r0, [r3, #20]	@ movhi
 523              		.loc 1 108 0
 524 0050 9A81     		strh	r2, [r3, #12]	@ movhi
 525              		.loc 1 111 0
 526 0052 1980     		strh	r1, [r3]	@ movhi
 527              		.loc 1 112 0
 528 0054 1A88     		ldrh	r2, [r3]
 529              		.loc 1 113 0
 530 0056 9B88     		ldrh	r3, [r3, #4]
 531              	.LVL38:
 532 0058 38BD     		pop	{r3, r4, r5, pc}
 533              	.LVL39:
 534              	.L72:
 535              	.LBE31:
 536              	.LBE30:
 537              		.loc 1 427 0
 538 005a 134B     		ldr	r3, .L74+12
 539 005c 9842     		cmp	r0, r3
 540 005e 13D0     		beq	.L73
 541              		.loc 1 434 0
 542 0060 124B     		ldr	r3, .L74+16
 543 0062 9842     		cmp	r0, r3
 544 0064 D5D1     		bne	.L66
 545              		.loc 1 435 0
 546 0066 124B     		ldr	r3, .L74+20
 547 0068 1A6C     		ldr	r2, [r3, #64]
 548 006a 42F40032 		orr	r2, r2, #131072
 549 006e 1A64     		str	r2, [r3, #64]
 550              		.loc 1 436 0
 551 0070 2620     		movs	r0, #38
 552              	.LVL40:
 553 0072 C021     		movs	r1, #192
 554 0074 FFF7FEFF 		bl	nvicEnableVector
 555              	.LVL41:
 556 0078 CBE7     		b	.L66
 557              	.LVL42:
 558              	.L68:
 559              	.LBB33:
 560              	.LBB32:
ARM GAS  /tmp/ccVOA2uB.s 			page 11


 561              		.loc 1 101 0
 562 007a 2268     		ldr	r2, [r4]
 563 007c 0D49     		ldr	r1, .L74+24
 564 007e B1FBF2F2 		udiv	r2, r1, r2
 565 0082 92B2     		uxth	r2, r2
 566 0084 1A81     		strh	r2, [r3, #8]	@ movhi
 567 0086 D2E7     		b	.L70
 568              	.LVL43:
 569              	.L73:
 570              	.LBE32:
 571              	.LBE33:
 572              		.loc 1 428 0
 573 0088 094B     		ldr	r3, .L74+20
 574 008a 5A6C     		ldr	r2, [r3, #68]
 575 008c 42F01002 		orr	r2, r2, #16
 576 0090 5A64     		str	r2, [r3, #68]
 577              		.loc 1 429 0
 578 0092 2520     		movs	r0, #37
 579              	.LVL44:
 580 0094 C021     		movs	r1, #192
 581 0096 FFF7FEFF 		bl	nvicEnableVector
 582              	.LVL45:
 583 009a BAE7     		b	.L66
 584              	.L75:
 585              		.align	2
 586              	.L74:
 587 009c 00000000 		.word	.LANCHOR2
 588 00a0 00100140 		.word	1073811456
 589 00a4 80DE8002 		.word	42000000
 590 00a8 00000000 		.word	.LANCHOR0
 591 00ac 00000000 		.word	.LANCHOR1
 592 00b0 00380240 		.word	1073887232
 593 00b4 00BD0105 		.word	84000000
 594              		.cfi_endproc
 595              	.LFE127:
 596              		.size	sd_lld_start, .-sd_lld_start
 597 00b8 AFF30080 		.section	.text.sd_lld_stop,"ax",%progbits
 597      AFF30080 
 598              		.align	2
 599              		.p2align 4,,15
 600              		.global	sd_lld_stop
 601              		.thumb
 602              		.thumb_func
 603              		.type	sd_lld_stop, %function
 604              	sd_lld_stop:
 605              	.LFB128:
 606              		.loc 1 481 0
 607              		.cfi_startproc
 608              		@ args = 0, pretend = 0, frame = 0
 609              		@ frame_needed = 0, uses_anonymous_args = 0
 610              		@ link register save eliminated.
 611              	.LVL46:
 612              		.loc 1 483 0
 613 0000 037A     		ldrb	r3, [r0, #8]	@ zero_extendqisi2
 614 0002 022B     		cmp	r3, #2
 615 0004 00D0     		beq	.L81
 616              	.L76:
ARM GAS  /tmp/ccVOA2uB.s 			page 12


 617 0006 7047     		bx	lr
 618              	.L81:
 619              		.loc 1 486 0
 620 0008 0D49     		ldr	r1, .L83
 621              		.loc 1 484 0
 622 000a 436F     		ldr	r3, [r0, #116]
 623              	.LVL47:
 624              	.LBB34:
 625              	.LBB35:
 626              		.loc 1 124 0
 627 000c 0022     		movs	r2, #0
 628              	.LBE35:
 629              	.LBE34:
 630              		.loc 1 486 0
 631 000e 8842     		cmp	r0, r1
 632              	.LBB37:
 633              	.LBB36:
 634              		.loc 1 124 0
 635 0010 9A81     		strh	r2, [r3, #12]	@ movhi
 636              		.loc 1 125 0
 637 0012 1A82     		strh	r2, [r3, #16]	@ movhi
 638              		.loc 1 126 0
 639 0014 9A82     		strh	r2, [r3, #20]	@ movhi
 640              	.LBE36:
 641              	.LBE37:
 642              		.loc 1 486 0
 643 0016 0AD0     		beq	.L82
 644              		.loc 1 493 0
 645 0018 0A4B     		ldr	r3, .L83+4
 646              	.LVL48:
 647 001a 9842     		cmp	r0, r3
 648 001c F3D1     		bne	.L76
 649              		.loc 1 494 0
 650 001e 0A4B     		ldr	r3, .L83+8
 651 0020 1A6C     		ldr	r2, [r3, #64]
 652 0022 22F40032 		bic	r2, r2, #131072
 653 0026 1A64     		str	r2, [r3, #64]
 654              		.loc 1 495 0
 655 0028 2620     		movs	r0, #38
 656              	.LVL49:
 657 002a FFF7FEBF 		b	nvicDisableVector
 658              	.LVL50:
 659              	.L82:
 660              		.loc 1 487 0
 661 002e 064B     		ldr	r3, .L83+8
 662              	.LVL51:
 663 0030 5A6C     		ldr	r2, [r3, #68]
 664 0032 22F01002 		bic	r2, r2, #16
 665 0036 5A64     		str	r2, [r3, #68]
 666              		.loc 1 488 0
 667 0038 2520     		movs	r0, #37
 668              	.LVL52:
 669 003a FFF7FEBF 		b	nvicDisableVector
 670              	.LVL53:
 671              	.L84:
 672 003e 00BF     		.align	2
 673              	.L83:
ARM GAS  /tmp/ccVOA2uB.s 			page 13


 674 0040 00000000 		.word	.LANCHOR0
 675 0044 00000000 		.word	.LANCHOR1
 676 0048 00380240 		.word	1073887232
 677              		.cfi_endproc
 678              	.LFE128:
 679              		.size	sd_lld_stop, .-sd_lld_stop
 680              		.global	SD2
 681              		.global	SD1
 682 004c AFF30080 		.section	.rodata.default_config,"a",%progbits
 683              		.align	2
 684              		.set	.LANCHOR2,. + 0
 685              		.type	default_config, %object
 686              		.size	default_config, 12
 687              	default_config:
 688 0000 00C20100 		.word	115200
 689 0004 0000     		.short	0
 690 0006 0040     		.short	16384
 691 0008 0000     		.short	0
 692 000a 0000     		.space	2
 693              		.section	.bss.SD1,"aw",%nobits
 694              		.align	2
 695              		.set	.LANCHOR0,. + 0
 696              		.type	SD1, %object
 697              		.size	SD1, 120
 698              	SD1:
 699 0000 00000000 		.space	120
 699      00000000 
 699      00000000 
 699      00000000 
 699      00000000 
 700              		.section	.bss.SD2,"aw",%nobits
 701              		.align	2
 702              		.set	.LANCHOR1,. + 0
 703              		.type	SD2, %object
 704              		.size	SD2, 120
 705              	SD2:
 706 0000 00000000 		.space	120
 706      00000000 
 706      00000000 
 706      00000000 
 706      00000000 
 707              		.text
 708              	.Letext0:
 709              		.file 2 "/usr/lib/gcc/arm-none-eabi/4.8.3/include/stddef.h"
 710              		.file 3 "/usr/arm-none-eabi/include/stdint.h"
 711              		.file 4 "../AithonLibrary/ChibiOS/os/ports/GCC/ARMCMx/chtypes.h"
 712              		.file 5 "../AithonLibrary/ChibiOS/os/kernel/include/chlists.h"
 713              		.file 6 "../AithonLibrary/ChibiOS/os/kernel/include/chthreads.h"
 714              		.file 7 "../AithonLibrary/ChibiOS/os/ports/GCC/ARMCMx/chcore_v7m.h"
 715              		.file 8 "../AithonLibrary/ChibiOS/os/kernel/include/chmtx.h"
 716              		.file 9 "../AithonLibrary/ChibiOS/os/kernel/include/chevents.h"
 717              		.file 10 "../AithonLibrary/ChibiOS/os/kernel/include/chqueues.h"
 718              		.file 11 "../AithonLibrary/ChibiOS/os/hal/platforms/STM32F4xx/stm32f4xx.h"
 719              		.file 12 "../AithonLibrary/ChibiOS/os/hal/include/serial.h"
 720              		.file 13 "../AithonLibrary/ChibiOS/os/hal/platforms/STM32/USARTv1/serial_lld.h"
 721              		.file 14 "../AithonLibrary/ChibiOS/os/ports/common/ARMCMx/nvic.h"
 722              		.file 15 "../AithonLibrary/ChibiOS/os/ports/common/ARMCMx/CMSIS/include/core_cm4.h"
ARM GAS  /tmp/ccVOA2uB.s 			page 14

