ARM GAS  /tmp/ccaNnm5w.s 			page 1


   1              		.syntax unified
   2              		.cpu cortex-m4
   3              		.eabi_attribute 27, 3
   4              		.fpu fpv4-sp-d16
   5              		.eabi_attribute 20, 1
   6              		.eabi_attribute 21, 1
   7              		.eabi_attribute 23, 3
   8              		.eabi_attribute 24, 1
   9              		.eabi_attribute 25, 1
  10              		.eabi_attribute 26, 1
  11              		.eabi_attribute 30, 2
  12              		.eabi_attribute 34, 1
  13              		.eabi_attribute 18, 4
  14              		.thumb
  15              		.file	"servos.c"
  16              		.text
  17              	.Ltext0:
  18              		.cfi_sections	.debug_frame
  19              		.section	.text.servo_enableAll,"ax",%progbits
  20              		.align	2
  21              		.p2align 4,,15
  22              		.global	servo_enableAll
  23              		.thumb
  24              		.thumb_func
  25              		.type	servo_enableAll, %function
  26              	servo_enableAll:
  27              	.LFB120:
  28              		.file 1 "../AithonLibrary/servos.c"
  29              		.loc 1 39 0
  30              		.cfi_startproc
  31              		@ args = 0, pretend = 0, frame = 0
  32              		@ frame_needed = 0, uses_anonymous_args = 0
  33 0000 08B5     		push	{r3, lr}
  34              		.cfi_def_cfa_offset 8
  35              		.cfi_offset 3, -8
  36              		.cfi_offset 14, -4
  37              		.loc 1 40 0
  38 0002 0548     		ldr	r0, .L2
  39 0004 0549     		ldr	r1, .L2+4
  40 0006 FFF7FEFF 		bl	pwmStart
  41              	.LVL0:
  42              		.loc 1 41 0
  43 000a 0548     		ldr	r0, .L2+8
  44 000c 0549     		ldr	r1, .L2+12
  45              		.loc 1 42 0
  46 000e BDE80840 		pop	{r3, lr}
  47              		.loc 1 41 0
  48 0012 FFF7FEBF 		b	pwmStart
  49              	.LVL1:
  50              	.L3:
  51 0016 00BF     		.align	2
  52              	.L2:
  53 0018 00000000 		.word	PWMD4
  54 001c 00000000 		.word	.LANCHOR0
  55 0020 00000000 		.word	PWMD8
  56 0024 00000000 		.word	.LANCHOR1
  57              		.cfi_endproc
ARM GAS  /tmp/ccaNnm5w.s 			page 2


  58              	.LFE120:
  59              		.size	servo_enableAll, .-servo_enableAll
  60 0028 AFF30080 		.section	.text._servo_init,"ax",%progbits
  60      AFF30080 
  61              		.align	2
  62              		.p2align 4,,15
  63              		.global	_servo_init
  64              		.thumb
  65              		.thumb_func
  66              		.type	_servo_init, %function
  67              	_servo_init:
  68              	.LFB119:
  69              		.loc 1 34 0
  70              		.cfi_startproc
  71              		@ args = 0, pretend = 0, frame = 0
  72              		@ frame_needed = 0, uses_anonymous_args = 0
  73              		@ link register save eliminated.
  74              		.loc 1 35 0
  75 0000 FFF7FEBF 		b	servo_enableAll
  76              	.LVL2:
  77              		.cfi_endproc
  78              	.LFE119:
  79              		.size	_servo_init, .-_servo_init
  80 0004 AFF30080 		.section	.text.servo_disableAll,"ax",%progbits
  80      AFF30080 
  80      AFF30080 
  81              		.align	2
  82              		.p2align 4,,15
  83              		.global	servo_disableAll
  84              		.thumb
  85              		.thumb_func
  86              		.type	servo_disableAll, %function
  87              	servo_disableAll:
  88              	.LFB121:
  89              		.loc 1 45 0
  90              		.cfi_startproc
  91              		@ args = 0, pretend = 0, frame = 0
  92              		@ frame_needed = 0, uses_anonymous_args = 0
  93 0000 08B5     		push	{r3, lr}
  94              		.cfi_def_cfa_offset 8
  95              		.cfi_offset 3, -8
  96              		.cfi_offset 14, -4
  97              		.loc 1 46 0
  98 0002 0448     		ldr	r0, .L6
  99 0004 FFF7FEFF 		bl	pwmStop
 100              	.LVL3:
 101              		.loc 1 47 0
 102 0008 0348     		ldr	r0, .L6+4
 103              		.loc 1 48 0
 104 000a BDE80840 		pop	{r3, lr}
 105              		.loc 1 47 0
 106 000e FFF7FEBF 		b	pwmStop
 107              	.LVL4:
 108              	.L7:
 109 0012 00BF     		.align	2
 110              	.L6:
 111 0014 00000000 		.word	PWMD4
ARM GAS  /tmp/ccaNnm5w.s 			page 3


 112 0018 00000000 		.word	PWMD8
 113              		.cfi_endproc
 114              	.LFE121:
 115              		.size	servo_disableAll, .-servo_disableAll
 116 001c AFF30080 		.section	.text.servo_set,"ax",%progbits
 117              		.align	2
 118              		.p2align 4,,15
 119              		.global	servo_set
 120              		.thumb
 121              		.thumb_func
 122              		.type	servo_set, %function
 123              	servo_set:
 124              	.LFB122:
 125              		.loc 1 51 0
 126              		.cfi_startproc
 127              		@ args = 0, pretend = 0, frame = 0
 128              		@ frame_needed = 0, uses_anonymous_args = 0
 129              		@ link register save eliminated.
 130              	.LVL5:
 131              		.loc 1 59 0
 132 0000 0328     		cmp	r0, #3
 133 0002 0CD9     		bls	.L12
 134              		.loc 1 63 0
 135 0004 0728     		cmp	r0, #7
 136 0006 00DD     		ble	.L13
 137 0008 7047     		bx	lr
 138              	.L13:
 139              		.loc 1 65 0
 140 000a 4B31     		adds	r1, r1, #75
 141              	.LVL6:
 142 000c 01EB8101 		add	r1, r1, r1, lsl #2
 143              	.LVL7:
 144 0010 4A00     		lsls	r2, r1, #1
 145 0012 011F     		subs	r1, r0, #4
 146 0014 92B2     		uxth	r2, r2
 147 0016 C9B2     		uxtb	r1, r1
 148 0018 0548     		ldr	r0, .L14
 149              	.LVL8:
 150 001a FFF7FEBF 		b	pwmEnableChannel
 151              	.LVL9:
 152              	.L12:
 153              		.loc 1 61 0
 154 001e 4B31     		adds	r1, r1, #75
 155              	.LVL10:
 156 0020 01EB8101 		add	r1, r1, r1, lsl #2
 157              	.LVL11:
 158 0024 4A00     		lsls	r2, r1, #1
 159 0026 92B2     		uxth	r2, r2
 160 0028 C1B2     		uxtb	r1, r0
 161 002a 0248     		ldr	r0, .L14+4
 162              	.LVL12:
 163 002c FFF7FEBF 		b	pwmEnableChannel
 164              	.LVL13:
 165              	.L15:
 166              		.align	2
 167              	.L14:
 168 0030 00000000 		.word	PWMD8
ARM GAS  /tmp/ccaNnm5w.s 			page 4


 169 0034 00000000 		.word	PWMD4
 170              		.cfi_endproc
 171              	.LFE122:
 172              		.size	servo_set, .-servo_set
 173 0038 AFF30080 		.section	.rodata._pwmcfg4,"a",%progbits
 173      AFF30080 
 174              		.align	2
 175              		.set	.LANCHOR0,. + 0
 176              		.type	_pwmcfg4, %object
 177              		.size	_pwmcfg4, 56
 178              	_pwmcfg4:
 179 0000 40420F00 		.word	1000000
 180 0004 204E     		.short	20000
 181 0006 0000     		.space	2
 182 0008 00000000 		.word	0
 183 000c 01000000 		.word	1
 184 0010 00000000 		.word	0
 185 0014 01000000 		.word	1
 186 0018 00000000 		.word	0
 187 001c 01000000 		.word	1
 188 0020 00000000 		.word	0
 189 0024 01000000 		.word	1
 190 0028 00000000 		.word	0
 191 002c 00000000 		.word	0
 192 0030 00000000 		.word	0
 193 0034 00000000 		.word	0
 194              		.section	.rodata._pwmcfg8,"a",%progbits
 195              		.align	2
 196              		.set	.LANCHOR1,. + 0
 197              		.type	_pwmcfg8, %object
 198              		.size	_pwmcfg8, 56
 199              	_pwmcfg8:
 200 0000 40420F00 		.word	1000000
 201 0004 204E     		.short	20000
 202 0006 0000     		.space	2
 203 0008 00000000 		.word	0
 204 000c 01000000 		.word	1
 205 0010 00000000 		.word	0
 206 0014 01000000 		.word	1
 207 0018 00000000 		.word	0
 208 001c 01000000 		.word	1
 209 0020 00000000 		.word	0
 210 0024 01000000 		.word	1
 211 0028 00000000 		.word	0
 212 002c 00000000 		.word	0
 213 0030 00000000 		.word	0
 214 0034 00000000 		.word	0
 215              		.text
 216              	.Letext0:
 217              		.file 2 "/usr/arm-none-eabi/include/stdint.h"
 218              		.file 3 "../AithonLibrary/ChibiOS/os/hal/include/pwm.h"
 219              		.file 4 "../AithonLibrary/ChibiOS/os/hal/platforms/STM32/TIMv1/pwm_lld.h"
 220              		.file 5 "../AithonLibrary/ChibiOS/os/hal/platforms/STM32/TIMv1/stm32_tim.h"
 221              		.file 6 "../AithonLibrary/ChibiOS/os/ports/common/ARMCMx/CMSIS/include/core_cm4.h"
 222              		.section	.debug_info,"",%progbits
 223              	.Ldebug_info0:
 224 0000 EF040000 		.4byte	0x4ef
ARM GAS  /tmp/ccaNnm5w.s 			page 5


 225 0004 0400     		.2byte	0x4
 226 0006 00000000 		.4byte	.Ldebug_abbrev0
 227 000a 04       		.byte	0x4
 228 000b 01       		.uleb128 0x1
 229 000c C2010000 		.4byte	.LASF61
 230 0010 01       		.byte	0x1
 231 0011 80000000 		.4byte	.LASF62
 232 0015 BE000000 		.4byte	.LASF63
 233 0019 00000000 		.4byte	.Ldebug_ranges0+0
 234 001d 00000000 		.4byte	0
 235 0021 00000000 		.4byte	.Ldebug_line0
 236 0025 02       		.uleb128 0x2
 237 0026 04       		.byte	0x4
 238 0027 05       		.byte	0x5
 239 0028 696E7400 		.ascii	"int\000"
 240 002c 03       		.uleb128 0x3
 241 002d 04       		.byte	0x4
 242 002e 07       		.byte	0x7
 243 002f 8A010000 		.4byte	.LASF0
 244 0033 03       		.uleb128 0x3
 245 0034 01       		.byte	0x1
 246 0035 06       		.byte	0x6
 247 0036 5E010000 		.4byte	.LASF1
 248 003a 04       		.uleb128 0x4
 249 003b 78000000 		.4byte	.LASF4
 250 003f 02       		.byte	0x2
 251 0040 2A       		.byte	0x2a
 252 0041 45000000 		.4byte	0x45
 253 0045 03       		.uleb128 0x3
 254 0046 01       		.byte	0x1
 255 0047 08       		.byte	0x8
 256 0048 36010000 		.4byte	.LASF2
 257 004c 03       		.uleb128 0x3
 258 004d 02       		.byte	0x2
 259 004e 05       		.byte	0x5
 260 004f 34000000 		.4byte	.LASF3
 261 0053 04       		.uleb128 0x4
 262 0054 97010000 		.4byte	.LASF5
 263 0058 02       		.byte	0x2
 264 0059 36       		.byte	0x36
 265 005a 5E000000 		.4byte	0x5e
 266 005e 03       		.uleb128 0x3
 267 005f 02       		.byte	0x2
 268 0060 07       		.byte	0x7
 269 0061 AF010000 		.4byte	.LASF6
 270 0065 04       		.uleb128 0x4
 271 0066 EE020000 		.4byte	.LASF7
 272 006a 02       		.byte	0x2
 273 006b 4F       		.byte	0x4f
 274 006c 70000000 		.4byte	0x70
 275 0070 03       		.uleb128 0x3
 276 0071 04       		.byte	0x4
 277 0072 05       		.byte	0x5
 278 0073 F4000000 		.4byte	.LASF8
 279 0077 04       		.uleb128 0x4
 280 0078 81010000 		.4byte	.LASF9
 281 007c 02       		.byte	0x2
ARM GAS  /tmp/ccaNnm5w.s 			page 6


 282 007d 50       		.byte	0x50
 283 007e 82000000 		.4byte	0x82
 284 0082 03       		.uleb128 0x3
 285 0083 04       		.byte	0x4
 286 0084 07       		.byte	0x7
 287 0085 06030000 		.4byte	.LASF10
 288 0089 03       		.uleb128 0x3
 289 008a 08       		.byte	0x8
 290 008b 05       		.byte	0x5
 291 008c E1000000 		.4byte	.LASF11
 292 0090 03       		.uleb128 0x3
 293 0091 08       		.byte	0x8
 294 0092 07       		.byte	0x7
 295 0093 6A010000 		.4byte	.LASF12
 296 0097 03       		.uleb128 0x3
 297 0098 01       		.byte	0x1
 298 0099 02       		.byte	0x2
 299 009a 00030000 		.4byte	.LASF13
 300 009e 05       		.uleb128 0x5
 301 009f 77000000 		.4byte	0x77
 302 00a3 03       		.uleb128 0x3
 303 00a4 04       		.byte	0x4
 304 00a5 07       		.byte	0x7
 305 00a6 4D000000 		.4byte	.LASF14
 306 00aa 03       		.uleb128 0x3
 307 00ab 01       		.byte	0x1
 308 00ac 08       		.byte	0x8
 309 00ad EF000000 		.4byte	.LASF15
 310 00b1 06       		.uleb128 0x6
 311 00b2 77000000 		.4byte	0x77
 312 00b6 C1000000 		.4byte	0xc1
 313 00ba 07       		.uleb128 0x7
 314 00bb A3000000 		.4byte	0xa3
 315 00bf 03       		.byte	0x3
 316 00c0 00       		.byte	0
 317 00c1 05       		.uleb128 0x5
 318 00c2 65000000 		.4byte	0x65
 319 00c6 08       		.uleb128 0x8
 320 00c7 01       		.byte	0x1
 321 00c8 03       		.byte	0x3
 322 00c9 55       		.byte	0x55
 323 00ca E1000000 		.4byte	0xe1
 324 00ce 09       		.uleb128 0x9
 325 00cf 2B010000 		.4byte	.LASF16
 326 00d3 00       		.sleb128 0
 327 00d4 09       		.uleb128 0x9
 328 00d5 2D030000 		.4byte	.LASF17
 329 00d9 01       		.sleb128 1
 330 00da 09       		.uleb128 0x9
 331 00db 23030000 		.4byte	.LASF18
 332 00df 02       		.sleb128 2
 333 00e0 00       		.byte	0
 334 00e1 04       		.uleb128 0x4
 335 00e2 18030000 		.4byte	.LASF19
 336 00e6 03       		.byte	0x3
 337 00e7 59       		.byte	0x59
 338 00e8 C6000000 		.4byte	0xc6
ARM GAS  /tmp/ccaNnm5w.s 			page 7


 339 00ec 04       		.uleb128 0x4
 340 00ed A0010000 		.4byte	.LASF20
 341 00f1 03       		.byte	0x3
 342 00f2 5E       		.byte	0x5e
 343 00f3 F7000000 		.4byte	0xf7
 344 00f7 0A       		.uleb128 0xa
 345 00f8 A0010000 		.4byte	.LASF20
 346 00fc 14       		.byte	0x14
 347 00fd 04       		.byte	0x4
 348 00fe 6F01     		.2byte	0x16f
 349 0100 46010000 		.4byte	0x146
 350 0104 0B       		.uleb128 0xb
 351 0105 1C000000 		.4byte	.LASF21
 352 0109 04       		.byte	0x4
 353 010a 7301     		.2byte	0x173
 354 010c E1000000 		.4byte	0xe1
 355 0110 00       		.byte	0
 356 0111 0B       		.uleb128 0xb
 357 0112 71000000 		.4byte	.LASF22
 358 0116 04       		.byte	0x4
 359 0117 7701     		.2byte	0x177
 360 0119 67030000 		.4byte	0x367
 361 011d 04       		.byte	0x4
 362 011e 0B       		.uleb128 0xb
 363 011f 08010000 		.4byte	.LASF23
 364 0123 04       		.byte	0x4
 365 0124 7B01     		.2byte	0x17b
 366 0126 AA020000 		.4byte	0x2aa
 367 012a 08       		.byte	0x8
 368 012b 0B       		.uleb128 0xb
 369 012c FD000000 		.4byte	.LASF24
 370 0130 04       		.byte	0x4
 371 0131 8301     		.2byte	0x183
 372 0133 77000000 		.4byte	0x77
 373 0137 0C       		.byte	0xc
 374 0138 0C       		.uleb128 0xc
 375 0139 74696D00 		.ascii	"tim\000"
 376 013d 04       		.byte	0x4
 377 013e 8701     		.2byte	0x187
 378 0140 72030000 		.4byte	0x372
 379 0144 10       		.byte	0x10
 380 0145 00       		.byte	0
 381 0146 04       		.uleb128 0x4
 382 0147 93030000 		.4byte	.LASF25
 383 014b 03       		.byte	0x3
 384 014c 65       		.byte	0x65
 385 014d 51010000 		.4byte	0x151
 386 0151 0D       		.uleb128 0xd
 387 0152 04       		.byte	0x4
 388 0153 57010000 		.4byte	0x157
 389 0157 0E       		.uleb128 0xe
 390 0158 62010000 		.4byte	0x162
 391 015c 0F       		.uleb128 0xf
 392 015d 62010000 		.4byte	0x162
 393 0161 00       		.byte	0
 394 0162 0D       		.uleb128 0xd
 395 0163 04       		.byte	0x4
ARM GAS  /tmp/ccaNnm5w.s 			page 8


 396 0164 EC000000 		.4byte	0xec
 397 0168 10       		.uleb128 0x10
 398 0169 60       		.byte	0x60
 399 016a 05       		.byte	0x5
 400 016b 9E01     		.2byte	0x19e
 401 016d 81020000 		.4byte	0x281
 402 0171 0C       		.uleb128 0xc
 403 0172 43523100 		.ascii	"CR1\000"
 404 0176 05       		.byte	0x5
 405 0177 9F01     		.2byte	0x19f
 406 0179 9E000000 		.4byte	0x9e
 407 017d 00       		.byte	0
 408 017e 0C       		.uleb128 0xc
 409 017f 43523200 		.ascii	"CR2\000"
 410 0183 05       		.byte	0x5
 411 0184 A001     		.2byte	0x1a0
 412 0186 9E000000 		.4byte	0x9e
 413 018a 04       		.byte	0x4
 414 018b 0B       		.uleb128 0xb
 415 018c 26010000 		.4byte	.LASF26
 416 0190 05       		.byte	0x5
 417 0191 A101     		.2byte	0x1a1
 418 0193 9E000000 		.4byte	0x9e
 419 0197 08       		.byte	0x8
 420 0198 0B       		.uleb128 0xb
 421 0199 AA010000 		.4byte	.LASF27
 422 019d 05       		.byte	0x5
 423 019e A201     		.2byte	0x1a2
 424 01a0 9E000000 		.4byte	0x9e
 425 01a4 0C       		.byte	0xc
 426 01a5 0C       		.uleb128 0xc
 427 01a6 535200   		.ascii	"SR\000"
 428 01a9 05       		.byte	0x5
 429 01aa A301     		.2byte	0x1a3
 430 01ac 9E000000 		.4byte	0x9e
 431 01b0 10       		.byte	0x10
 432 01b1 0C       		.uleb128 0xc
 433 01b2 45475200 		.ascii	"EGR\000"
 434 01b6 05       		.byte	0x5
 435 01b7 A401     		.2byte	0x1a4
 436 01b9 9E000000 		.4byte	0x9e
 437 01bd 14       		.byte	0x14
 438 01be 0B       		.uleb128 0xb
 439 01bf 20010000 		.4byte	.LASF28
 440 01c3 05       		.byte	0x5
 441 01c4 A501     		.2byte	0x1a5
 442 01c6 9E000000 		.4byte	0x9e
 443 01ca 18       		.byte	0x18
 444 01cb 0B       		.uleb128 0xb
 445 01cc 22000000 		.4byte	.LASF29
 446 01d0 05       		.byte	0x5
 447 01d1 A601     		.2byte	0x1a6
 448 01d3 9E000000 		.4byte	0x9e
 449 01d7 1C       		.byte	0x1c
 450 01d8 0B       		.uleb128 0xb
 451 01d9 00000000 		.4byte	.LASF30
 452 01dd 05       		.byte	0x5
ARM GAS  /tmp/ccaNnm5w.s 			page 9


 453 01de A701     		.2byte	0x1a7
 454 01e0 9E000000 		.4byte	0x9e
 455 01e4 20       		.byte	0x20
 456 01e5 0C       		.uleb128 0xc
 457 01e6 434E5400 		.ascii	"CNT\000"
 458 01ea 05       		.byte	0x5
 459 01eb A801     		.2byte	0x1a8
 460 01ed 9E000000 		.4byte	0x9e
 461 01f1 24       		.byte	0x24
 462 01f2 0C       		.uleb128 0xc
 463 01f3 50534300 		.ascii	"PSC\000"
 464 01f7 05       		.byte	0x5
 465 01f8 A901     		.2byte	0x1a9
 466 01fa 9E000000 		.4byte	0x9e
 467 01fe 28       		.byte	0x28
 468 01ff 0C       		.uleb128 0xc
 469 0200 41525200 		.ascii	"ARR\000"
 470 0204 05       		.byte	0x5
 471 0205 AA01     		.2byte	0x1aa
 472 0207 9E000000 		.4byte	0x9e
 473 020b 2C       		.byte	0x2c
 474 020c 0C       		.uleb128 0xc
 475 020d 52435200 		.ascii	"RCR\000"
 476 0211 05       		.byte	0x5
 477 0212 AB01     		.2byte	0x1ab
 478 0214 9E000000 		.4byte	0x9e
 479 0218 30       		.byte	0x30
 480 0219 0C       		.uleb128 0xc
 481 021a 43435200 		.ascii	"CCR\000"
 482 021e 05       		.byte	0x5
 483 021f AC01     		.2byte	0x1ac
 484 0221 81020000 		.4byte	0x281
 485 0225 34       		.byte	0x34
 486 0226 0B       		.uleb128 0xb
 487 0227 E9020000 		.4byte	.LASF31
 488 022b 05       		.byte	0x5
 489 022c AD01     		.2byte	0x1ad
 490 022e 9E000000 		.4byte	0x9e
 491 0232 44       		.byte	0x44
 492 0233 0C       		.uleb128 0xc
 493 0234 44435200 		.ascii	"DCR\000"
 494 0238 05       		.byte	0x5
 495 0239 AE01     		.2byte	0x1ae
 496 023b 9E000000 		.4byte	0x9e
 497 023f 48       		.byte	0x48
 498 0240 0B       		.uleb128 0xb
 499 0241 0E000000 		.4byte	.LASF32
 500 0245 05       		.byte	0x5
 501 0246 AF01     		.2byte	0x1af
 502 0248 9E000000 		.4byte	0x9e
 503 024c 4C       		.byte	0x4c
 504 024d 0C       		.uleb128 0xc
 505 024e 4F5200   		.ascii	"OR\000"
 506 0251 05       		.byte	0x5
 507 0252 B001     		.2byte	0x1b0
 508 0254 9E000000 		.4byte	0x9e
 509 0258 50       		.byte	0x50
ARM GAS  /tmp/ccaNnm5w.s 			page 10


 510 0259 0B       		.uleb128 0xb
 511 025a 28000000 		.4byte	.LASF33
 512 025e 05       		.byte	0x5
 513 025f B101     		.2byte	0x1b1
 514 0261 9E000000 		.4byte	0x9e
 515 0265 54       		.byte	0x54
 516 0266 0B       		.uleb128 0xb
 517 0267 4D010000 		.4byte	.LASF34
 518 026b 05       		.byte	0x5
 519 026c B201     		.2byte	0x1b2
 520 026e 9E000000 		.4byte	0x9e
 521 0272 58       		.byte	0x58
 522 0273 0B       		.uleb128 0xb
 523 0274 03010000 		.4byte	.LASF35
 524 0278 05       		.byte	0x5
 525 0279 B301     		.2byte	0x1b3
 526 027b 9E000000 		.4byte	0x9e
 527 027f 5C       		.byte	0x5c
 528 0280 00       		.byte	0
 529 0281 05       		.uleb128 0x5
 530 0282 B1000000 		.4byte	0xb1
 531 0286 11       		.uleb128 0x11
 532 0287 DD020000 		.4byte	.LASF36
 533 028b 05       		.byte	0x5
 534 028c B401     		.2byte	0x1b4
 535 028e 68010000 		.4byte	0x168
 536 0292 11       		.uleb128 0x11
 537 0293 67030000 		.4byte	.LASF37
 538 0297 04       		.byte	0x4
 539 0298 2001     		.2byte	0x120
 540 029a 77000000 		.4byte	0x77
 541 029e 11       		.uleb128 0x11
 542 029f 56000000 		.4byte	.LASF38
 543 02a3 04       		.byte	0x4
 544 02a4 2501     		.2byte	0x125
 545 02a6 3A000000 		.4byte	0x3a
 546 02aa 11       		.uleb128 0x11
 547 02ab 3E000000 		.4byte	.LASF39
 548 02af 04       		.byte	0x4
 549 02b0 2A01     		.2byte	0x12a
 550 02b2 53000000 		.4byte	0x53
 551 02b6 10       		.uleb128 0x10
 552 02b7 08       		.byte	0x8
 553 02b8 04       		.byte	0x4
 554 02b9 2F01     		.2byte	0x12f
 555 02bb DA020000 		.4byte	0x2da
 556 02bf 0B       		.uleb128 0xb
 557 02c0 63000000 		.4byte	.LASF40
 558 02c4 04       		.byte	0x4
 559 02c5 3301     		.2byte	0x133
 560 02c7 92020000 		.4byte	0x292
 561 02cb 00       		.byte	0
 562 02cc 0B       		.uleb128 0xb
 563 02cd A1030000 		.4byte	.LASF41
 564 02d1 04       		.byte	0x4
 565 02d2 3901     		.2byte	0x139
 566 02d4 46010000 		.4byte	0x146
ARM GAS  /tmp/ccaNnm5w.s 			page 11


 567 02d8 04       		.byte	0x4
 568 02d9 00       		.byte	0
 569 02da 11       		.uleb128 0x11
 570 02db 4D030000 		.4byte	.LASF42
 571 02df 04       		.byte	0x4
 572 02e0 3B01     		.2byte	0x13b
 573 02e2 B6020000 		.4byte	0x2b6
 574 02e6 10       		.uleb128 0x10
 575 02e7 38       		.byte	0x38
 576 02e8 04       		.byte	0x4
 577 02e9 4001     		.2byte	0x140
 578 02eb 4B030000 		.4byte	0x34b
 579 02ef 0B       		.uleb128 0xb
 580 02f0 43030000 		.4byte	.LASF43
 581 02f4 04       		.byte	0x4
 582 02f5 4601     		.2byte	0x146
 583 02f7 77000000 		.4byte	0x77
 584 02fb 00       		.byte	0
 585 02fc 0B       		.uleb128 0xb
 586 02fd 08010000 		.4byte	.LASF23
 587 0301 04       		.byte	0x4
 588 0302 4C01     		.2byte	0x14c
 589 0304 AA020000 		.4byte	0x2aa
 590 0308 04       		.byte	0x4
 591 0309 0B       		.uleb128 0xb
 592 030a A1030000 		.4byte	.LASF41
 593 030e 04       		.byte	0x4
 594 030f 5201     		.2byte	0x152
 595 0311 46010000 		.4byte	0x146
 596 0315 08       		.byte	0x8
 597 0316 0B       		.uleb128 0xb
 598 0317 68000000 		.4byte	.LASF44
 599 031b 04       		.byte	0x4
 600 031c 5601     		.2byte	0x156
 601 031e 4B030000 		.4byte	0x34b
 602 0322 0C       		.byte	0xc
 603 0323 0C       		.uleb128 0xc
 604 0324 63723200 		.ascii	"cr2\000"
 605 0328 04       		.byte	0x4
 606 0329 5C01     		.2byte	0x15c
 607 032b 77000000 		.4byte	0x77
 608 032f 2C       		.byte	0x2c
 609 0330 0B       		.uleb128 0xb
 610 0331 71030000 		.4byte	.LASF45
 611 0335 04       		.byte	0x4
 612 0336 6201     		.2byte	0x162
 613 0338 77000000 		.4byte	0x77
 614 033c 30       		.byte	0x30
 615 033d 0B       		.uleb128 0xb
 616 033e 36030000 		.4byte	.LASF46
 617 0342 04       		.byte	0x4
 618 0343 6901     		.2byte	0x169
 619 0345 77000000 		.4byte	0x77
 620 0349 34       		.byte	0x34
 621 034a 00       		.byte	0
 622 034b 06       		.uleb128 0x6
 623 034c DA020000 		.4byte	0x2da
ARM GAS  /tmp/ccaNnm5w.s 			page 12


 624 0350 5B030000 		.4byte	0x35b
 625 0354 07       		.uleb128 0x7
 626 0355 A3000000 		.4byte	0xa3
 627 0359 03       		.byte	0x3
 628 035a 00       		.byte	0
 629 035b 11       		.uleb128 0x11
 630 035c AB000000 		.4byte	.LASF47
 631 0360 04       		.byte	0x4
 632 0361 6A01     		.2byte	0x16a
 633 0363 E6020000 		.4byte	0x2e6
 634 0367 0D       		.uleb128 0xd
 635 0368 04       		.byte	0x4
 636 0369 6D030000 		.4byte	0x36d
 637 036d 12       		.uleb128 0x12
 638 036e 5B030000 		.4byte	0x35b
 639 0372 0D       		.uleb128 0xd
 640 0373 04       		.byte	0x4
 641 0374 86020000 		.4byte	0x286
 642 0378 13       		.uleb128 0x13
 643 0379 83030000 		.4byte	.LASF48
 644 037d 01       		.byte	0x1
 645 037e 26       		.byte	0x26
 646 037f 00000000 		.4byte	.LFB120
 647 0383 28000000 		.4byte	.LFE120-.LFB120
 648 0387 01       		.uleb128 0x1
 649 0388 9C       		.byte	0x9c
 650 0389 B8030000 		.4byte	0x3b8
 651 038d 14       		.uleb128 0x14
 652 038e 0A000000 		.4byte	.LVL0
 653 0392 B4040000 		.4byte	0x4b4
 654 0396 A4030000 		.4byte	0x3a4
 655 039a 15       		.uleb128 0x15
 656 039b 01       		.uleb128 0x1
 657 039c 51       		.byte	0x51
 658 039d 05       		.uleb128 0x5
 659 039e 03       		.byte	0x3
 660 039f 00000000 		.4byte	.LANCHOR0
 661 03a3 00       		.byte	0
 662 03a4 16       		.uleb128 0x16
 663 03a5 16000000 		.4byte	.LVL1
 664 03a9 B4040000 		.4byte	0x4b4
 665 03ad 15       		.uleb128 0x15
 666 03ae 01       		.uleb128 0x1
 667 03af 51       		.byte	0x51
 668 03b0 05       		.uleb128 0x5
 669 03b1 03       		.byte	0x3
 670 03b2 00000000 		.4byte	.LANCHOR1
 671 03b6 00       		.byte	0
 672 03b7 00       		.byte	0
 673 03b8 13       		.uleb128 0x13
 674 03b9 52010000 		.4byte	.LASF49
 675 03bd 01       		.byte	0x1
 676 03be 21       		.byte	0x21
 677 03bf 00000000 		.4byte	.LFB119
 678 03c3 04000000 		.4byte	.LFE119-.LFB119
 679 03c7 01       		.uleb128 0x1
 680 03c8 9C       		.byte	0x9c
ARM GAS  /tmp/ccaNnm5w.s 			page 13


 681 03c9 D7030000 		.4byte	0x3d7
 682 03cd 17       		.uleb128 0x17
 683 03ce 04000000 		.4byte	.LVL2
 684 03d2 78030000 		.4byte	0x378
 685 03d6 00       		.byte	0
 686 03d7 13       		.uleb128 0x13
 687 03d8 0F010000 		.4byte	.LASF50
 688 03dc 01       		.byte	0x1
 689 03dd 2C       		.byte	0x2c
 690 03de 00000000 		.4byte	.LFB121
 691 03e2 1C000000 		.4byte	.LFE121-.LFB121
 692 03e6 01       		.uleb128 0x1
 693 03e7 9C       		.byte	0x9c
 694 03e8 FF030000 		.4byte	0x3ff
 695 03ec 18       		.uleb128 0x18
 696 03ed 08000000 		.4byte	.LVL3
 697 03f1 CA040000 		.4byte	0x4ca
 698 03f5 17       		.uleb128 0x17
 699 03f6 12000000 		.4byte	.LVL4
 700 03fa CA040000 		.4byte	0x4ca
 701 03fe 00       		.byte	0
 702 03ff 13       		.uleb128 0x13
 703 0400 F6020000 		.4byte	.LASF51
 704 0404 01       		.byte	0x1
 705 0405 32       		.byte	0x32
 706 0406 00000000 		.4byte	.LFB122
 707 040a 38000000 		.4byte	.LFE122-.LFB122
 708 040e 01       		.uleb128 0x1
 709 040f 9C       		.byte	0x9c
 710 0410 6E040000 		.4byte	0x46e
 711 0414 19       		.uleb128 0x19
 712 0415 44010000 		.4byte	.LASF52
 713 0419 01       		.byte	0x1
 714 041a 32       		.byte	0x32
 715 041b 25000000 		.4byte	0x25
 716 041f 00000000 		.4byte	.LLST0
 717 0423 19       		.uleb128 0x19
 718 0424 5E030000 		.4byte	.LASF53
 719 0428 01       		.byte	0x1
 720 0429 32       		.byte	0x32
 721 042a 25000000 		.4byte	0x25
 722 042e 3A000000 		.4byte	.LLST1
 723 0432 1A       		.uleb128 0x1a
 724 0433 1E000000 		.4byte	.LVL9
 725 0437 DB040000 		.4byte	0x4db
 726 043b 56040000 		.4byte	0x456
 727 043f 15       		.uleb128 0x15
 728 0440 01       		.uleb128 0x1
 729 0441 52       		.byte	0x52
 730 0442 09       		.uleb128 0x9
 731 0443 F3       		.byte	0xf3
 732 0444 01       		.uleb128 0x1
 733 0445 51       		.byte	0x51
 734 0446 23       		.byte	0x23
 735 0447 4B       		.uleb128 0x4b
 736 0448 35       		.byte	0x35
 737 0449 1E       		.byte	0x1e
ARM GAS  /tmp/ccaNnm5w.s 			page 14


 738 044a 31       		.byte	0x31
 739 044b 24       		.byte	0x24
 740 044c 15       		.uleb128 0x15
 741 044d 01       		.uleb128 0x1
 742 044e 51       		.byte	0x51
 743 044f 05       		.uleb128 0x5
 744 0450 F3       		.byte	0xf3
 745 0451 01       		.uleb128 0x1
 746 0452 50       		.byte	0x50
 747 0453 34       		.byte	0x34
 748 0454 1C       		.byte	0x1c
 749 0455 00       		.byte	0
 750 0456 16       		.uleb128 0x16
 751 0457 30000000 		.4byte	.LVL13
 752 045b DB040000 		.4byte	0x4db
 753 045f 15       		.uleb128 0x15
 754 0460 01       		.uleb128 0x1
 755 0461 52       		.byte	0x52
 756 0462 09       		.uleb128 0x9
 757 0463 F3       		.byte	0xf3
 758 0464 01       		.uleb128 0x1
 759 0465 51       		.byte	0x51
 760 0466 23       		.byte	0x23
 761 0467 4B       		.uleb128 0x4b
 762 0468 35       		.byte	0x35
 763 0469 1E       		.byte	0x1e
 764 046a 31       		.byte	0x31
 765 046b 24       		.byte	0x24
 766 046c 00       		.byte	0
 767 046d 00       		.byte	0
 768 046e 1B       		.uleb128 0x1b
 769 046f 05000000 		.4byte	.LASF54
 770 0473 01       		.byte	0x1
 771 0474 03       		.byte	0x3
 772 0475 6D030000 		.4byte	0x36d
 773 0479 05       		.uleb128 0x5
 774 047a 03       		.byte	0x3
 775 047b 00000000 		.4byte	_pwmcfg4
 776 047f 1B       		.uleb128 0x1b
 777 0480 13000000 		.4byte	.LASF55
 778 0484 01       		.byte	0x1
 779 0485 12       		.byte	0x12
 780 0486 6D030000 		.4byte	0x36d
 781 048a 05       		.uleb128 0x5
 782 048b 03       		.byte	0x3
 783 048c 00000000 		.4byte	_pwmcfg8
 784 0490 1C       		.uleb128 0x1c
 785 0491 76030000 		.4byte	.LASF56
 786 0495 06       		.byte	0x6
 787 0496 9806     		.2byte	0x698
 788 0498 C1000000 		.4byte	0xc1
 789 049c 1C       		.uleb128 0x1c
 790 049d 2E000000 		.4byte	.LASF57
 791 04a1 04       		.byte	0x4
 792 04a2 BF01     		.2byte	0x1bf
 793 04a4 EC000000 		.4byte	0xec
 794 04a8 1C       		.uleb128 0x1c
ARM GAS  /tmp/ccaNnm5w.s 			page 15


 795 04a9 47000000 		.4byte	.LASF58
 796 04ad 04       		.byte	0x4
 797 04ae C701     		.2byte	0x1c7
 798 04b0 EC000000 		.4byte	0xec
 799 04b4 1D       		.uleb128 0x1d
 800 04b5 B5000000 		.4byte	.LASF59
 801 04b9 03       		.byte	0x3
 802 04ba F4       		.byte	0xf4
 803 04bb CA040000 		.4byte	0x4ca
 804 04bf 0F       		.uleb128 0xf
 805 04c0 62010000 		.4byte	0x162
 806 04c4 0F       		.uleb128 0xf
 807 04c5 67030000 		.4byte	0x367
 808 04c9 00       		.byte	0
 809 04ca 1D       		.uleb128 0x1d
 810 04cb 3B030000 		.4byte	.LASF60
 811 04cf 03       		.byte	0x3
 812 04d0 F5       		.byte	0xf5
 813 04d1 DB040000 		.4byte	0x4db
 814 04d5 0F       		.uleb128 0xf
 815 04d6 62010000 		.4byte	0x162
 816 04da 00       		.byte	0
 817 04db 1E       		.uleb128 0x1e
 818 04dc 9A000000 		.4byte	.LASF64
 819 04e0 03       		.byte	0x3
 820 04e1 F7       		.byte	0xf7
 821 04e2 0F       		.uleb128 0xf
 822 04e3 62010000 		.4byte	0x162
 823 04e7 0F       		.uleb128 0xf
 824 04e8 9E020000 		.4byte	0x29e
 825 04ec 0F       		.uleb128 0xf
 826 04ed AA020000 		.4byte	0x2aa
 827 04f1 00       		.byte	0
 828 04f2 00       		.byte	0
 829              		.section	.debug_abbrev,"",%progbits
 830              	.Ldebug_abbrev0:
 831 0000 01       		.uleb128 0x1
 832 0001 11       		.uleb128 0x11
 833 0002 01       		.byte	0x1
 834 0003 25       		.uleb128 0x25
 835 0004 0E       		.uleb128 0xe
 836 0005 13       		.uleb128 0x13
 837 0006 0B       		.uleb128 0xb
 838 0007 03       		.uleb128 0x3
 839 0008 0E       		.uleb128 0xe
 840 0009 1B       		.uleb128 0x1b
 841 000a 0E       		.uleb128 0xe
 842 000b 55       		.uleb128 0x55
 843 000c 17       		.uleb128 0x17
 844 000d 11       		.uleb128 0x11
 845 000e 01       		.uleb128 0x1
 846 000f 10       		.uleb128 0x10
 847 0010 17       		.uleb128 0x17
 848 0011 00       		.byte	0
 849 0012 00       		.byte	0
 850 0013 02       		.uleb128 0x2
 851 0014 24       		.uleb128 0x24
ARM GAS  /tmp/ccaNnm5w.s 			page 16


 852 0015 00       		.byte	0
 853 0016 0B       		.uleb128 0xb
 854 0017 0B       		.uleb128 0xb
 855 0018 3E       		.uleb128 0x3e
 856 0019 0B       		.uleb128 0xb
 857 001a 03       		.uleb128 0x3
 858 001b 08       		.uleb128 0x8
 859 001c 00       		.byte	0
 860 001d 00       		.byte	0
 861 001e 03       		.uleb128 0x3
 862 001f 24       		.uleb128 0x24
 863 0020 00       		.byte	0
 864 0021 0B       		.uleb128 0xb
 865 0022 0B       		.uleb128 0xb
 866 0023 3E       		.uleb128 0x3e
 867 0024 0B       		.uleb128 0xb
 868 0025 03       		.uleb128 0x3
 869 0026 0E       		.uleb128 0xe
 870 0027 00       		.byte	0
 871 0028 00       		.byte	0
 872 0029 04       		.uleb128 0x4
 873 002a 16       		.uleb128 0x16
 874 002b 00       		.byte	0
 875 002c 03       		.uleb128 0x3
 876 002d 0E       		.uleb128 0xe
 877 002e 3A       		.uleb128 0x3a
 878 002f 0B       		.uleb128 0xb
 879 0030 3B       		.uleb128 0x3b
 880 0031 0B       		.uleb128 0xb
 881 0032 49       		.uleb128 0x49
 882 0033 13       		.uleb128 0x13
 883 0034 00       		.byte	0
 884 0035 00       		.byte	0
 885 0036 05       		.uleb128 0x5
 886 0037 35       		.uleb128 0x35
 887 0038 00       		.byte	0
 888 0039 49       		.uleb128 0x49
 889 003a 13       		.uleb128 0x13
 890 003b 00       		.byte	0
 891 003c 00       		.byte	0
 892 003d 06       		.uleb128 0x6
 893 003e 01       		.uleb128 0x1
 894 003f 01       		.byte	0x1
 895 0040 49       		.uleb128 0x49
 896 0041 13       		.uleb128 0x13
 897 0042 01       		.uleb128 0x1
 898 0043 13       		.uleb128 0x13
 899 0044 00       		.byte	0
 900 0045 00       		.byte	0
 901 0046 07       		.uleb128 0x7
 902 0047 21       		.uleb128 0x21
 903 0048 00       		.byte	0
 904 0049 49       		.uleb128 0x49
 905 004a 13       		.uleb128 0x13
 906 004b 2F       		.uleb128 0x2f
 907 004c 0B       		.uleb128 0xb
 908 004d 00       		.byte	0
ARM GAS  /tmp/ccaNnm5w.s 			page 17


 909 004e 00       		.byte	0
 910 004f 08       		.uleb128 0x8
 911 0050 04       		.uleb128 0x4
 912 0051 01       		.byte	0x1
 913 0052 0B       		.uleb128 0xb
 914 0053 0B       		.uleb128 0xb
 915 0054 3A       		.uleb128 0x3a
 916 0055 0B       		.uleb128 0xb
 917 0056 3B       		.uleb128 0x3b
 918 0057 0B       		.uleb128 0xb
 919 0058 01       		.uleb128 0x1
 920 0059 13       		.uleb128 0x13
 921 005a 00       		.byte	0
 922 005b 00       		.byte	0
 923 005c 09       		.uleb128 0x9
 924 005d 28       		.uleb128 0x28
 925 005e 00       		.byte	0
 926 005f 03       		.uleb128 0x3
 927 0060 0E       		.uleb128 0xe
 928 0061 1C       		.uleb128 0x1c
 929 0062 0D       		.uleb128 0xd
 930 0063 00       		.byte	0
 931 0064 00       		.byte	0
 932 0065 0A       		.uleb128 0xa
 933 0066 13       		.uleb128 0x13
 934 0067 01       		.byte	0x1
 935 0068 03       		.uleb128 0x3
 936 0069 0E       		.uleb128 0xe
 937 006a 0B       		.uleb128 0xb
 938 006b 0B       		.uleb128 0xb
 939 006c 3A       		.uleb128 0x3a
 940 006d 0B       		.uleb128 0xb
 941 006e 3B       		.uleb128 0x3b
 942 006f 05       		.uleb128 0x5
 943 0070 01       		.uleb128 0x1
 944 0071 13       		.uleb128 0x13
 945 0072 00       		.byte	0
 946 0073 00       		.byte	0
 947 0074 0B       		.uleb128 0xb
 948 0075 0D       		.uleb128 0xd
 949 0076 00       		.byte	0
 950 0077 03       		.uleb128 0x3
 951 0078 0E       		.uleb128 0xe
 952 0079 3A       		.uleb128 0x3a
 953 007a 0B       		.uleb128 0xb
 954 007b 3B       		.uleb128 0x3b
 955 007c 05       		.uleb128 0x5
 956 007d 49       		.uleb128 0x49
 957 007e 13       		.uleb128 0x13
 958 007f 38       		.uleb128 0x38
 959 0080 0B       		.uleb128 0xb
 960 0081 00       		.byte	0
 961 0082 00       		.byte	0
 962 0083 0C       		.uleb128 0xc
 963 0084 0D       		.uleb128 0xd
 964 0085 00       		.byte	0
 965 0086 03       		.uleb128 0x3
ARM GAS  /tmp/ccaNnm5w.s 			page 18


 966 0087 08       		.uleb128 0x8
 967 0088 3A       		.uleb128 0x3a
 968 0089 0B       		.uleb128 0xb
 969 008a 3B       		.uleb128 0x3b
 970 008b 05       		.uleb128 0x5
 971 008c 49       		.uleb128 0x49
 972 008d 13       		.uleb128 0x13
 973 008e 38       		.uleb128 0x38
 974 008f 0B       		.uleb128 0xb
 975 0090 00       		.byte	0
 976 0091 00       		.byte	0
 977 0092 0D       		.uleb128 0xd
 978 0093 0F       		.uleb128 0xf
 979 0094 00       		.byte	0
 980 0095 0B       		.uleb128 0xb
 981 0096 0B       		.uleb128 0xb
 982 0097 49       		.uleb128 0x49
 983 0098 13       		.uleb128 0x13
 984 0099 00       		.byte	0
 985 009a 00       		.byte	0
 986 009b 0E       		.uleb128 0xe
 987 009c 15       		.uleb128 0x15
 988 009d 01       		.byte	0x1
 989 009e 27       		.uleb128 0x27
 990 009f 19       		.uleb128 0x19
 991 00a0 01       		.uleb128 0x1
 992 00a1 13       		.uleb128 0x13
 993 00a2 00       		.byte	0
 994 00a3 00       		.byte	0
 995 00a4 0F       		.uleb128 0xf
 996 00a5 05       		.uleb128 0x5
 997 00a6 00       		.byte	0
 998 00a7 49       		.uleb128 0x49
 999 00a8 13       		.uleb128 0x13
 1000 00a9 00       		.byte	0
 1001 00aa 00       		.byte	0
 1002 00ab 10       		.uleb128 0x10
 1003 00ac 13       		.uleb128 0x13
 1004 00ad 01       		.byte	0x1
 1005 00ae 0B       		.uleb128 0xb
 1006 00af 0B       		.uleb128 0xb
 1007 00b0 3A       		.uleb128 0x3a
 1008 00b1 0B       		.uleb128 0xb
 1009 00b2 3B       		.uleb128 0x3b
 1010 00b3 05       		.uleb128 0x5
 1011 00b4 01       		.uleb128 0x1
 1012 00b5 13       		.uleb128 0x13
 1013 00b6 00       		.byte	0
 1014 00b7 00       		.byte	0
 1015 00b8 11       		.uleb128 0x11
 1016 00b9 16       		.uleb128 0x16
 1017 00ba 00       		.byte	0
 1018 00bb 03       		.uleb128 0x3
 1019 00bc 0E       		.uleb128 0xe
 1020 00bd 3A       		.uleb128 0x3a
 1021 00be 0B       		.uleb128 0xb
 1022 00bf 3B       		.uleb128 0x3b
ARM GAS  /tmp/ccaNnm5w.s 			page 19


 1023 00c0 05       		.uleb128 0x5
 1024 00c1 49       		.uleb128 0x49
 1025 00c2 13       		.uleb128 0x13
 1026 00c3 00       		.byte	0
 1027 00c4 00       		.byte	0
 1028 00c5 12       		.uleb128 0x12
 1029 00c6 26       		.uleb128 0x26
 1030 00c7 00       		.byte	0
 1031 00c8 49       		.uleb128 0x49
 1032 00c9 13       		.uleb128 0x13
 1033 00ca 00       		.byte	0
 1034 00cb 00       		.byte	0
 1035 00cc 13       		.uleb128 0x13
 1036 00cd 2E       		.uleb128 0x2e
 1037 00ce 01       		.byte	0x1
 1038 00cf 3F       		.uleb128 0x3f
 1039 00d0 19       		.uleb128 0x19
 1040 00d1 03       		.uleb128 0x3
 1041 00d2 0E       		.uleb128 0xe
 1042 00d3 3A       		.uleb128 0x3a
 1043 00d4 0B       		.uleb128 0xb
 1044 00d5 3B       		.uleb128 0x3b
 1045 00d6 0B       		.uleb128 0xb
 1046 00d7 27       		.uleb128 0x27
 1047 00d8 19       		.uleb128 0x19
 1048 00d9 11       		.uleb128 0x11
 1049 00da 01       		.uleb128 0x1
 1050 00db 12       		.uleb128 0x12
 1051 00dc 06       		.uleb128 0x6
 1052 00dd 40       		.uleb128 0x40
 1053 00de 18       		.uleb128 0x18
 1054 00df 9742     		.uleb128 0x2117
 1055 00e1 19       		.uleb128 0x19
 1056 00e2 01       		.uleb128 0x1
 1057 00e3 13       		.uleb128 0x13
 1058 00e4 00       		.byte	0
 1059 00e5 00       		.byte	0
 1060 00e6 14       		.uleb128 0x14
 1061 00e7 898201   		.uleb128 0x4109
 1062 00ea 01       		.byte	0x1
 1063 00eb 11       		.uleb128 0x11
 1064 00ec 01       		.uleb128 0x1
 1065 00ed 31       		.uleb128 0x31
 1066 00ee 13       		.uleb128 0x13
 1067 00ef 01       		.uleb128 0x1
 1068 00f0 13       		.uleb128 0x13
 1069 00f1 00       		.byte	0
 1070 00f2 00       		.byte	0
 1071 00f3 15       		.uleb128 0x15
 1072 00f4 8A8201   		.uleb128 0x410a
 1073 00f7 00       		.byte	0
 1074 00f8 02       		.uleb128 0x2
 1075 00f9 18       		.uleb128 0x18
 1076 00fa 9142     		.uleb128 0x2111
 1077 00fc 18       		.uleb128 0x18
 1078 00fd 00       		.byte	0
 1079 00fe 00       		.byte	0
ARM GAS  /tmp/ccaNnm5w.s 			page 20


 1080 00ff 16       		.uleb128 0x16
 1081 0100 898201   		.uleb128 0x4109
 1082 0103 01       		.byte	0x1
 1083 0104 11       		.uleb128 0x11
 1084 0105 01       		.uleb128 0x1
 1085 0106 9542     		.uleb128 0x2115
 1086 0108 19       		.uleb128 0x19
 1087 0109 31       		.uleb128 0x31
 1088 010a 13       		.uleb128 0x13
 1089 010b 00       		.byte	0
 1090 010c 00       		.byte	0
 1091 010d 17       		.uleb128 0x17
 1092 010e 898201   		.uleb128 0x4109
 1093 0111 00       		.byte	0
 1094 0112 11       		.uleb128 0x11
 1095 0113 01       		.uleb128 0x1
 1096 0114 9542     		.uleb128 0x2115
 1097 0116 19       		.uleb128 0x19
 1098 0117 31       		.uleb128 0x31
 1099 0118 13       		.uleb128 0x13
 1100 0119 00       		.byte	0
 1101 011a 00       		.byte	0
 1102 011b 18       		.uleb128 0x18
 1103 011c 898201   		.uleb128 0x4109
 1104 011f 00       		.byte	0
 1105 0120 11       		.uleb128 0x11
 1106 0121 01       		.uleb128 0x1
 1107 0122 31       		.uleb128 0x31
 1108 0123 13       		.uleb128 0x13
 1109 0124 00       		.byte	0
 1110 0125 00       		.byte	0
 1111 0126 19       		.uleb128 0x19
 1112 0127 05       		.uleb128 0x5
 1113 0128 00       		.byte	0
 1114 0129 03       		.uleb128 0x3
 1115 012a 0E       		.uleb128 0xe
 1116 012b 3A       		.uleb128 0x3a
 1117 012c 0B       		.uleb128 0xb
 1118 012d 3B       		.uleb128 0x3b
 1119 012e 0B       		.uleb128 0xb
 1120 012f 49       		.uleb128 0x49
 1121 0130 13       		.uleb128 0x13
 1122 0131 02       		.uleb128 0x2
 1123 0132 17       		.uleb128 0x17
 1124 0133 00       		.byte	0
 1125 0134 00       		.byte	0
 1126 0135 1A       		.uleb128 0x1a
 1127 0136 898201   		.uleb128 0x4109
 1128 0139 01       		.byte	0x1
 1129 013a 11       		.uleb128 0x11
 1130 013b 01       		.uleb128 0x1
 1131 013c 9542     		.uleb128 0x2115
 1132 013e 19       		.uleb128 0x19
 1133 013f 31       		.uleb128 0x31
 1134 0140 13       		.uleb128 0x13
 1135 0141 01       		.uleb128 0x1
 1136 0142 13       		.uleb128 0x13
ARM GAS  /tmp/ccaNnm5w.s 			page 21


 1137 0143 00       		.byte	0
 1138 0144 00       		.byte	0
 1139 0145 1B       		.uleb128 0x1b
 1140 0146 34       		.uleb128 0x34
 1141 0147 00       		.byte	0
 1142 0148 03       		.uleb128 0x3
 1143 0149 0E       		.uleb128 0xe
 1144 014a 3A       		.uleb128 0x3a
 1145 014b 0B       		.uleb128 0xb
 1146 014c 3B       		.uleb128 0x3b
 1147 014d 0B       		.uleb128 0xb
 1148 014e 49       		.uleb128 0x49
 1149 014f 13       		.uleb128 0x13
 1150 0150 02       		.uleb128 0x2
 1151 0151 18       		.uleb128 0x18
 1152 0152 00       		.byte	0
 1153 0153 00       		.byte	0
 1154 0154 1C       		.uleb128 0x1c
 1155 0155 34       		.uleb128 0x34
 1156 0156 00       		.byte	0
 1157 0157 03       		.uleb128 0x3
 1158 0158 0E       		.uleb128 0xe
 1159 0159 3A       		.uleb128 0x3a
 1160 015a 0B       		.uleb128 0xb
 1161 015b 3B       		.uleb128 0x3b
 1162 015c 05       		.uleb128 0x5
 1163 015d 49       		.uleb128 0x49
 1164 015e 13       		.uleb128 0x13
 1165 015f 3F       		.uleb128 0x3f
 1166 0160 19       		.uleb128 0x19
 1167 0161 3C       		.uleb128 0x3c
 1168 0162 19       		.uleb128 0x19
 1169 0163 00       		.byte	0
 1170 0164 00       		.byte	0
 1171 0165 1D       		.uleb128 0x1d
 1172 0166 2E       		.uleb128 0x2e
 1173 0167 01       		.byte	0x1
 1174 0168 3F       		.uleb128 0x3f
 1175 0169 19       		.uleb128 0x19
 1176 016a 03       		.uleb128 0x3
 1177 016b 0E       		.uleb128 0xe
 1178 016c 3A       		.uleb128 0x3a
 1179 016d 0B       		.uleb128 0xb
 1180 016e 3B       		.uleb128 0x3b
 1181 016f 0B       		.uleb128 0xb
 1182 0170 27       		.uleb128 0x27
 1183 0171 19       		.uleb128 0x19
 1184 0172 3C       		.uleb128 0x3c
 1185 0173 19       		.uleb128 0x19
 1186 0174 01       		.uleb128 0x1
 1187 0175 13       		.uleb128 0x13
 1188 0176 00       		.byte	0
 1189 0177 00       		.byte	0
 1190 0178 1E       		.uleb128 0x1e
 1191 0179 2E       		.uleb128 0x2e
 1192 017a 01       		.byte	0x1
 1193 017b 3F       		.uleb128 0x3f
ARM GAS  /tmp/ccaNnm5w.s 			page 22


 1194 017c 19       		.uleb128 0x19
 1195 017d 03       		.uleb128 0x3
 1196 017e 0E       		.uleb128 0xe
 1197 017f 3A       		.uleb128 0x3a
 1198 0180 0B       		.uleb128 0xb
 1199 0181 3B       		.uleb128 0x3b
 1200 0182 0B       		.uleb128 0xb
 1201 0183 27       		.uleb128 0x27
 1202 0184 19       		.uleb128 0x19
 1203 0185 3C       		.uleb128 0x3c
 1204 0186 19       		.uleb128 0x19
 1205 0187 00       		.byte	0
 1206 0188 00       		.byte	0
 1207 0189 00       		.byte	0
 1208              		.section	.debug_loc,"",%progbits
 1209              	.Ldebug_loc0:
 1210              	.LLST0:
 1211 0000 00000000 		.4byte	.LVL5
 1212 0004 1A000000 		.4byte	.LVL8
 1213 0008 0100     		.2byte	0x1
 1214 000a 50       		.byte	0x50
 1215 000b 1A000000 		.4byte	.LVL8
 1216 000f 1E000000 		.4byte	.LVL9
 1217 0013 0400     		.2byte	0x4
 1218 0015 F3       		.byte	0xf3
 1219 0016 01       		.uleb128 0x1
 1220 0017 50       		.byte	0x50
 1221 0018 9F       		.byte	0x9f
 1222 0019 1E000000 		.4byte	.LVL9
 1223 001d 2C000000 		.4byte	.LVL12
 1224 0021 0100     		.2byte	0x1
 1225 0023 50       		.byte	0x50
 1226 0024 2C000000 		.4byte	.LVL12
 1227 0028 38000000 		.4byte	.LFE122
 1228 002c 0400     		.2byte	0x4
 1229 002e F3       		.byte	0xf3
 1230 002f 01       		.uleb128 0x1
 1231 0030 50       		.byte	0x50
 1232 0031 9F       		.byte	0x9f
 1233 0032 00000000 		.4byte	0
 1234 0036 00000000 		.4byte	0
 1235              	.LLST1:
 1236 003a 00000000 		.4byte	.LVL5
 1237 003e 0C000000 		.4byte	.LVL6
 1238 0042 0100     		.2byte	0x1
 1239 0044 51       		.byte	0x51
 1240 0045 0C000000 		.4byte	.LVL6
 1241 0049 10000000 		.4byte	.LVL7
 1242 004d 0400     		.2byte	0x4
 1243 004f 71       		.byte	0x71
 1244 0050 B57F     		.sleb128 -75
 1245 0052 9F       		.byte	0x9f
 1246 0053 10000000 		.4byte	.LVL7
 1247 0057 1E000000 		.4byte	.LVL9
 1248 005b 0400     		.2byte	0x4
 1249 005d F3       		.byte	0xf3
 1250 005e 01       		.uleb128 0x1
ARM GAS  /tmp/ccaNnm5w.s 			page 23


 1251 005f 51       		.byte	0x51
 1252 0060 9F       		.byte	0x9f
 1253 0061 1E000000 		.4byte	.LVL9
 1254 0065 20000000 		.4byte	.LVL10
 1255 0069 0100     		.2byte	0x1
 1256 006b 51       		.byte	0x51
 1257 006c 20000000 		.4byte	.LVL10
 1258 0070 24000000 		.4byte	.LVL11
 1259 0074 0400     		.2byte	0x4
 1260 0076 71       		.byte	0x71
 1261 0077 B57F     		.sleb128 -75
 1262 0079 9F       		.byte	0x9f
 1263 007a 24000000 		.4byte	.LVL11
 1264 007e 38000000 		.4byte	.LFE122
 1265 0082 0400     		.2byte	0x4
 1266 0084 F3       		.byte	0xf3
 1267 0085 01       		.uleb128 0x1
 1268 0086 51       		.byte	0x51
 1269 0087 9F       		.byte	0x9f
 1270 0088 00000000 		.4byte	0
 1271 008c 00000000 		.4byte	0
 1272              		.section	.debug_aranges,"",%progbits
 1273 0000 34000000 		.4byte	0x34
 1274 0004 0200     		.2byte	0x2
 1275 0006 00000000 		.4byte	.Ldebug_info0
 1276 000a 04       		.byte	0x4
 1277 000b 00       		.byte	0
 1278 000c 0000     		.2byte	0
 1279 000e 0000     		.2byte	0
 1280 0010 00000000 		.4byte	.LFB120
 1281 0014 28000000 		.4byte	.LFE120-.LFB120
 1282 0018 00000000 		.4byte	.LFB119
 1283 001c 04000000 		.4byte	.LFE119-.LFB119
 1284 0020 00000000 		.4byte	.LFB121
 1285 0024 1C000000 		.4byte	.LFE121-.LFB121
 1286 0028 00000000 		.4byte	.LFB122
 1287 002c 38000000 		.4byte	.LFE122-.LFB122
 1288 0030 00000000 		.4byte	0
 1289 0034 00000000 		.4byte	0
 1290              		.section	.debug_ranges,"",%progbits
 1291              	.Ldebug_ranges0:
 1292 0000 00000000 		.4byte	.LFB120
 1293 0004 28000000 		.4byte	.LFE120
 1294 0008 00000000 		.4byte	.LFB119
 1295 000c 04000000 		.4byte	.LFE119
 1296 0010 00000000 		.4byte	.LFB121
 1297 0014 1C000000 		.4byte	.LFE121
 1298 0018 00000000 		.4byte	.LFB122
 1299 001c 38000000 		.4byte	.LFE122
 1300 0020 00000000 		.4byte	0
 1301 0024 00000000 		.4byte	0
 1302              		.section	.debug_line,"",%progbits
 1303              	.Ldebug_line0:
 1304 0000 75010000 		.section	.debug_str,"MS",%progbits,1
 1304      02002601 
 1304      00000201 
 1304      FB0E0D00 
ARM GAS  /tmp/ccaNnm5w.s 			page 24


 1304      01010101 
 1305              	.LASF30:
 1306 0000 43434552 		.ascii	"CCER\000"
 1306      00
 1307              	.LASF54:
 1308 0005 5F70776D 		.ascii	"_pwmcfg4\000"
 1308      63666734 
 1308      00
 1309              	.LASF32:
 1310 000e 444D4152 		.ascii	"DMAR\000"
 1310      00
 1311              	.LASF55:
 1312 0013 5F70776D 		.ascii	"_pwmcfg8\000"
 1312      63666738 
 1312      00
 1313              	.LASF21:
 1314 001c 73746174 		.ascii	"state\000"
 1314      6500
 1315              	.LASF29:
 1316 0022 43434D52 		.ascii	"CCMR2\000"
 1316      3200
 1317              	.LASF33:
 1318 0028 43434D52 		.ascii	"CCMR3\000"
 1318      3300
 1319              	.LASF57:
 1320 002e 50574D44 		.ascii	"PWMD4\000"
 1320      3400
 1321              	.LASF3:
 1322 0034 73686F72 		.ascii	"short int\000"
 1322      7420696E 
 1322      7400
 1323              	.LASF39:
 1324 003e 70776D63 		.ascii	"pwmcnt_t\000"
 1324      6E745F74 
 1324      00
 1325              	.LASF58:
 1326 0047 50574D44 		.ascii	"PWMD8\000"
 1326      3800
 1327              	.LASF14:
 1328 004d 73697A65 		.ascii	"sizetype\000"
 1328      74797065 
 1328      00
 1329              	.LASF38:
 1330 0056 70776D63 		.ascii	"pwmchannel_t\000"
 1330      68616E6E 
 1330      656C5F74 
 1330      00
 1331              	.LASF40:
 1332 0063 6D6F6465 		.ascii	"mode\000"
 1332      00
 1333              	.LASF44:
 1334 0068 6368616E 		.ascii	"channels\000"
 1334      6E656C73 
 1334      00
 1335              	.LASF22:
 1336 0071 636F6E66 		.ascii	"config\000"
 1336      696700
ARM GAS  /tmp/ccaNnm5w.s 			page 25


 1337              	.LASF4:
 1338 0078 75696E74 		.ascii	"uint8_t\000"
 1338      385F7400 
 1339              	.LASF62:
 1340 0080 2E2E2F41 		.ascii	"../AithonLibrary/servos.c\000"
 1340      6974686F 
 1340      6E4C6962 
 1340      72617279 
 1340      2F736572 
 1341              	.LASF64:
 1342 009a 70776D45 		.ascii	"pwmEnableChannel\000"
 1342      6E61626C 
 1342      65436861 
 1342      6E6E656C 
 1342      00
 1343              	.LASF47:
 1344 00ab 50574D43 		.ascii	"PWMConfig\000"
 1344      6F6E6669 
 1344      6700
 1345              	.LASF59:
 1346 00b5 70776D53 		.ascii	"pwmStart\000"
 1346      74617274 
 1346      00
 1347              	.LASF63:
 1348 00be 2F686F6D 		.ascii	"/home/brian/aithon/ProjectTemplate\000"
 1348      652F6272 
 1348      69616E2F 
 1348      61697468 
 1348      6F6E2F50 
 1349              	.LASF11:
 1350 00e1 6C6F6E67 		.ascii	"long long int\000"
 1350      206C6F6E 
 1350      6720696E 
 1350      7400
 1351              	.LASF15:
 1352 00ef 63686172 		.ascii	"char\000"
 1352      00
 1353              	.LASF8:
 1354 00f4 6C6F6E67 		.ascii	"long int\000"
 1354      20696E74 
 1354      00
 1355              	.LASF24:
 1356 00fd 636C6F63 		.ascii	"clock\000"
 1356      6B00
 1357              	.LASF35:
 1358 0103 43435236 		.ascii	"CCR6\000"
 1358      00
 1359              	.LASF23:
 1360 0108 70657269 		.ascii	"period\000"
 1360      6F6400
 1361              	.LASF50:
 1362 010f 73657276 		.ascii	"servo_disableAll\000"
 1362      6F5F6469 
 1362      7361626C 
 1362      65416C6C 
 1362      00
 1363              	.LASF28:
ARM GAS  /tmp/ccaNnm5w.s 			page 26


 1364 0120 43434D52 		.ascii	"CCMR1\000"
 1364      3100
 1365              	.LASF26:
 1366 0126 534D4352 		.ascii	"SMCR\000"
 1366      00
 1367              	.LASF16:
 1368 012b 50574D5F 		.ascii	"PWM_UNINIT\000"
 1368      554E494E 
 1368      495400
 1369              	.LASF2:
 1370 0136 756E7369 		.ascii	"unsigned char\000"
 1370      676E6564 
 1370      20636861 
 1370      7200
 1371              	.LASF52:
 1372 0144 73657276 		.ascii	"servoNum\000"
 1372      6F4E756D 
 1372      00
 1373              	.LASF34:
 1374 014d 43435235 		.ascii	"CCR5\000"
 1374      00
 1375              	.LASF49:
 1376 0152 5F736572 		.ascii	"_servo_init\000"
 1376      766F5F69 
 1376      6E697400 
 1377              	.LASF1:
 1378 015e 7369676E 		.ascii	"signed char\000"
 1378      65642063 
 1378      68617200 
 1379              	.LASF12:
 1380 016a 6C6F6E67 		.ascii	"long long unsigned int\000"
 1380      206C6F6E 
 1380      6720756E 
 1380      7369676E 
 1380      65642069 
 1381              	.LASF9:
 1382 0181 75696E74 		.ascii	"uint32_t\000"
 1382      33325F74 
 1382      00
 1383              	.LASF0:
 1384 018a 756E7369 		.ascii	"unsigned int\000"
 1384      676E6564 
 1384      20696E74 
 1384      00
 1385              	.LASF5:
 1386 0197 75696E74 		.ascii	"uint16_t\000"
 1386      31365F74 
 1386      00
 1387              	.LASF20:
 1388 01a0 50574D44 		.ascii	"PWMDriver\000"
 1388      72697665 
 1388      7200
 1389              	.LASF27:
 1390 01aa 44494552 		.ascii	"DIER\000"
 1390      00
 1391              	.LASF6:
 1392 01af 73686F72 		.ascii	"short unsigned int\000"
ARM GAS  /tmp/ccaNnm5w.s 			page 27


 1392      7420756E 
 1392      7369676E 
 1392      65642069 
 1392      6E7400
 1393              	.LASF61:
 1394 01c2 474E5520 		.ascii	"GNU C 4.8.3 20131129 (release) [ARM/embedded-4_8-br"
 1394      4320342E 
 1394      382E3320 
 1394      32303133 
 1394      31313239 
 1395 01f5 616E6368 		.ascii	"anch revision 205641] -mcpu=cortex-m4 -mfloat-abi=s"
 1395      20726576 
 1395      6973696F 
 1395      6E203230 
 1395      35363431 
 1396 0228 6F667466 		.ascii	"oftfp -mfpu=fpv4-sp-d16 -mno-thumb-interwork -mthum"
 1396      70202D6D 
 1396      6670753D 
 1396      66707634 
 1396      2D73702D 
 1397 025b 62202D67 		.ascii	"b -ggdb -O2 -fomit-frame-pointer -falign-functions="
 1397      67646220 
 1397      2D4F3220 
 1397      2D666F6D 
 1397      69742D66 
 1398 028e 3136202D 		.ascii	"16 -fsingle-precision-constant -ffunction-sections "
 1398      6673696E 
 1398      676C652D 
 1398      70726563 
 1398      6973696F 
 1399 02c1 2D666461 		.ascii	"-fdata-sections -fno-common\000"
 1399      74612D73 
 1399      65637469 
 1399      6F6E7320 
 1399      2D666E6F 
 1400              	.LASF36:
 1401 02dd 73746D33 		.ascii	"stm32_tim_t\000"
 1401      325F7469 
 1401      6D5F7400 
 1402              	.LASF31:
 1403 02e9 42445452 		.ascii	"BDTR\000"
 1403      00
 1404              	.LASF7:
 1405 02ee 696E7433 		.ascii	"int32_t\000"
 1405      325F7400 
 1406              	.LASF51:
 1407 02f6 73657276 		.ascii	"servo_set\000"
 1407      6F5F7365 
 1407      7400
 1408              	.LASF13:
 1409 0300 5F426F6F 		.ascii	"_Bool\000"
 1409      6C00
 1410              	.LASF10:
 1411 0306 6C6F6E67 		.ascii	"long unsigned int\000"
 1411      20756E73 
 1411      69676E65 
 1411      6420696E 
ARM GAS  /tmp/ccaNnm5w.s 			page 28


 1411      7400
 1412              	.LASF19:
 1413 0318 70776D73 		.ascii	"pwmstate_t\000"
 1413      74617465 
 1413      5F7400
 1414              	.LASF18:
 1415 0323 50574D5F 		.ascii	"PWM_READY\000"
 1415      52454144 
 1415      5900
 1416              	.LASF17:
 1417 032d 50574D5F 		.ascii	"PWM_STOP\000"
 1417      53544F50 
 1417      00
 1418              	.LASF46:
 1419 0336 64696572 		.ascii	"dier\000"
 1419      00
 1420              	.LASF60:
 1421 033b 70776D53 		.ascii	"pwmStop\000"
 1421      746F7000 
 1422              	.LASF43:
 1423 0343 66726571 		.ascii	"frequency\000"
 1423      75656E63 
 1423      7900
 1424              	.LASF42:
 1425 034d 50574D43 		.ascii	"PWMChannelConfig\000"
 1425      68616E6E 
 1425      656C436F 
 1425      6E666967 
 1425      00
 1426              	.LASF53:
 1427 035e 706F7369 		.ascii	"position\000"
 1427      74696F6E 
 1427      00
 1428              	.LASF37:
 1429 0367 70776D6D 		.ascii	"pwmmode_t\000"
 1429      6F64655F 
 1429      7400
 1430              	.LASF45:
 1431 0371 62647472 		.ascii	"bdtr\000"
 1431      00
 1432              	.LASF56:
 1433 0376 49544D5F 		.ascii	"ITM_RxBuffer\000"
 1433      52784275 
 1433      66666572 
 1433      00
 1434              	.LASF48:
 1435 0383 73657276 		.ascii	"servo_enableAll\000"
 1435      6F5F656E 
 1435      61626C65 
 1435      416C6C00 
 1436              	.LASF25:
 1437 0393 70776D63 		.ascii	"pwmcallback_t\000"
 1437      616C6C62 
 1437      61636B5F 
 1437      7400
 1438              	.LASF41:
 1439 03a1 63616C6C 		.ascii	"callback\000"
ARM GAS  /tmp/ccaNnm5w.s 			page 29


 1439      6261636B 
 1439      00
 1440              		.ident	"GCC: (GNU Tools for ARM Embedded Processors) 4.8.3 20131129 (release) [ARM/embedded-4_8-br
ARM GAS  /tmp/ccaNnm5w.s 			page 30


DEFINED SYMBOLS
                            *ABS*:0000000000000000 servos.c
     /tmp/ccaNnm5w.s:20     .text.servo_enableAll:0000000000000000 $t
     /tmp/ccaNnm5w.s:26     .text.servo_enableAll:0000000000000000 servo_enableAll
     /tmp/ccaNnm5w.s:53     .text.servo_enableAll:0000000000000018 $d
     /tmp/ccaNnm5w.s:61     .text._servo_init:0000000000000000 $t
     /tmp/ccaNnm5w.s:67     .text._servo_init:0000000000000000 _servo_init
     /tmp/ccaNnm5w.s:81     .text.servo_disableAll:0000000000000000 $t
     /tmp/ccaNnm5w.s:87     .text.servo_disableAll:0000000000000000 servo_disableAll
     /tmp/ccaNnm5w.s:111    .text.servo_disableAll:0000000000000014 $d
     /tmp/ccaNnm5w.s:117    .text.servo_set:0000000000000000 $t
     /tmp/ccaNnm5w.s:123    .text.servo_set:0000000000000000 servo_set
     /tmp/ccaNnm5w.s:168    .text.servo_set:0000000000000030 $d
     /tmp/ccaNnm5w.s:174    .rodata._pwmcfg4:0000000000000000 $d
     /tmp/ccaNnm5w.s:178    .rodata._pwmcfg4:0000000000000000 _pwmcfg4
     /tmp/ccaNnm5w.s:195    .rodata._pwmcfg8:0000000000000000 $d
     /tmp/ccaNnm5w.s:199    .rodata._pwmcfg8:0000000000000000 _pwmcfg8
                     .debug_frame:0000000000000010 $d
     /tmp/ccaNnm5w.s:60     .text.servo_enableAll:0000000000000028 $t
     /tmp/ccaNnm5w.s:116    .text.servo_disableAll:000000000000001c $t
     /tmp/ccaNnm5w.s:173    .text.servo_set:0000000000000038 $t

UNDEFINED SYMBOLS
pwmStart
PWMD4
PWMD8
pwmStop
pwmEnableChannel
