ARM GAS  /tmp/ccaNnm5w.s 			page 1


   1              		.syntax unified
   2              		.cpu cortex-m4
   3              		.eabi_attribute 27, 3
   4              		.fpu fpv4-sp-d16
   5              		.eabi_attribute 20, 1
   6              		.eabi_attribute 21, 1
   7              		.eabi_attribute 23, 3
   8              		.eabi_attribute 24, 1
   9              		.eabi_attribute 25, 1
  10              		.eabi_attribute 26, 1
  11              		.eabi_attribute 30, 2
  12              		.eabi_attribute 34, 1
  13              		.eabi_attribute 18, 4
  14              		.thumb
  15              		.file	"servos.c"
  16              		.text
  17              	.Ltext0:
  18              		.cfi_sections	.debug_frame
  19              		.section	.text.servo_enableAll,"ax",%progbits
  20              		.align	2
  21              		.p2align 4,,15
  22              		.global	servo_enableAll
  23              		.thumb
  24              		.thumb_func
  25              		.type	servo_enableAll, %function
  26              	servo_enableAll:
  27              	.LFB120:
  28              		.file 1 "../AithonLibrary/servos.c"
  29              		.loc 1 39 0
  30              		.cfi_startproc
  31              		@ args = 0, pretend = 0, frame = 0
  32              		@ frame_needed = 0, uses_anonymous_args = 0
  33 0000 08B5     		push	{r3, lr}
  34              		.cfi_def_cfa_offset 8
  35              		.cfi_offset 3, -8
  36              		.cfi_offset 14, -4
  37              		.loc 1 40 0
  38 0002 0548     		ldr	r0, .L2
  39 0004 0549     		ldr	r1, .L2+4
  40 0006 FFF7FEFF 		bl	pwmStart
  41              	.LVL0:
  42              		.loc 1 41 0
  43 000a 0548     		ldr	r0, .L2+8
  44 000c 0549     		ldr	r1, .L2+12
  45              		.loc 1 42 0
  46 000e BDE80840 		pop	{r3, lr}
  47              		.loc 1 41 0
  48 0012 FFF7FEBF 		b	pwmStart
  49              	.LVL1:
  50              	.L3:
  51 0016 00BF     		.align	2
  52              	.L2:
  53 0018 00000000 		.word	PWMD4
  54 001c 00000000 		.word	.LANCHOR0
  55 0020 00000000 		.word	PWMD8
  56 0024 00000000 		.word	.LANCHOR1
  57              		.cfi_endproc
ARM GAS  /tmp/ccaNnm5w.s 			page 2


  58              	.LFE120:
  59              		.size	servo_enableAll, .-servo_enableAll
  60 0028 AFF30080 		.section	.text._servo_init,"ax",%progbits
  60      AFF30080 
  61              		.align	2
  62              		.p2align 4,,15
  63              		.global	_servo_init
  64              		.thumb
  65              		.thumb_func
  66              		.type	_servo_init, %function
  67              	_servo_init:
  68              	.LFB119:
  69              		.loc 1 34 0
  70              		.cfi_startproc
  71              		@ args = 0, pretend = 0, frame = 0
  72              		@ frame_needed = 0, uses_anonymous_args = 0
  73              		@ link register save eliminated.
  74              		.loc 1 35 0
  75 0000 FFF7FEBF 		b	servo_enableAll
  76              	.LVL2:
  77              		.cfi_endproc
  78              	.LFE119:
  79              		.size	_servo_init, .-_servo_init
  80 0004 AFF30080 		.section	.text.servo_disableAll,"ax",%progbits
  80      AFF30080 
  80      AFF30080 
  81              		.align	2
  82              		.p2align 4,,15
  83              		.global	servo_disableAll
  84              		.thumb
  85              		.thumb_func
  86              		.type	servo_disableAll, %function
  87              	servo_disableAll:
  88              	.LFB121:
  89              		.loc 1 45 0
  90              		.cfi_startproc
  91              		@ args = 0, pretend = 0, frame = 0
  92              		@ frame_needed = 0, uses_anonymous_args = 0
  93 0000 08B5     		push	{r3, lr}
  94              		.cfi_def_cfa_offset 8
  95              		.cfi_offset 3, -8
  96              		.cfi_offset 14, -4
  97              		.loc 1 46 0
  98 0002 0448     		ldr	r0, .L6
  99 0004 FFF7FEFF 		bl	pwmStop
 100              	.LVL3:
 101              		.loc 1 47 0
 102 0008 0348     		ldr	r0, .L6+4
 103              		.loc 1 48 0
 104 000a BDE80840 		pop	{r3, lr}
 105              		.loc 1 47 0
 106 000e FFF7FEBF 		b	pwmStop
 107              	.LVL4:
 108              	.L7:
 109 0012 00BF     		.align	2
 110              	.L6:
 111 0014 00000000 		.word	PWMD4
ARM GAS  /tmp/ccaNnm5w.s 			page 3


 112 0018 00000000 		.word	PWMD8
 113              		.cfi_endproc
 114              	.LFE121:
 115              		.size	servo_disableAll, .-servo_disableAll
 116 001c AFF30080 		.section	.text.servo_set,"ax",%progbits
 117              		.align	2
 118              		.p2align 4,,15
 119              		.global	servo_set
 120              		.thumb
 121              		.thumb_func
 122              		.type	servo_set, %function
 123              	servo_set:
 124              	.LFB122:
 125              		.loc 1 51 0
 126              		.cfi_startproc
 127              		@ args = 0, pretend = 0, frame = 0
 128              		@ frame_needed = 0, uses_anonymous_args = 0
 129              		@ link register save eliminated.
 130              	.LVL5:
 131              		.loc 1 59 0
 132 0000 0328     		cmp	r0, #3
 133 0002 0CD9     		bls	.L12
 134              		.loc 1 63 0
 135 0004 0728     		cmp	r0, #7
 136 0006 00DD     		ble	.L13
 137 0008 7047     		bx	lr
 138              	.L13:
 139              		.loc 1 65 0
 140 000a 4B31     		adds	r1, r1, #75
 141              	.LVL6:
 142 000c 01EB8101 		add	r1, r1, r1, lsl #2
 143              	.LVL7:
 144 0010 4A00     		lsls	r2, r1, #1
 145 0012 011F     		subs	r1, r0, #4
 146 0014 92B2     		uxth	r2, r2
 147 0016 C9B2     		uxtb	r1, r1
 148 0018 0548     		ldr	r0, .L14
 149              	.LVL8:
 150 001a FFF7FEBF 		b	pwmEnableChannel
 151              	.LVL9:
 152              	.L12:
 153              		.loc 1 61 0
 154 001e 4B31     		adds	r1, r1, #75
 155              	.LVL10:
 156 0020 01EB8101 		add	r1, r1, r1, lsl #2
 157              	.LVL11:
 158 0024 4A00     		lsls	r2, r1, #1
 159 0026 92B2     		uxth	r2, r2
 160 0028 C1B2     		uxtb	r1, r0
 161 002a 0248     		ldr	r0, .L14+4
 162              	.LVL12:
 163 002c FFF7FEBF 		b	pwmEnableChannel
 164              	.LVL13:
 165              	.L15:
 166              		.align	2
 167              	.L14:
 168 0030 00000000 		.word	PWMD8
ARM GAS  /tmp/ccaNnm5w.s 			page 4


 169 0034 00000000 		.word	PWMD4
 170              		.cfi_endproc
 171              	.LFE122:
 172              		.size	servo_set, .-servo_set
 173 0038 AFF30080 		.section	.rodata._pwmcfg4,"a",%progbits
 173      AFF30080 
 174              		.align	2
 175              		.set	.LANCHOR0,. + 0
 176              		.type	_pwmcfg4, %object
 177              		.size	_pwmcfg4, 56
 178              	_pwmcfg4:
 179 0000 40420F00 		.word	1000000
 180 0004 204E     		.short	20000
 181 0006 0000     		.space	2
 182 0008 00000000 		.word	0
 183 000c 01000000 		.word	1
 184 0010 00000000 		.word	0
 185 0014 01000000 		.word	1
 186 0018 00000000 		.word	0
 187 001c 01000000 		.word	1
 188 0020 00000000 		.word	0
 189 0024 01000000 		.word	1
 190 0028 00000000 		.word	0
 191 002c 00000000 		.word	0
 192 0030 00000000 		.word	0
 193 0034 00000000 		.word	0
 194              		.section	.rodata._pwmcfg8,"a",%progbits
 195              		.align	2
 196              		.set	.LANCHOR1,. + 0
 197              		.type	_pwmcfg8, %object
 198              		.size	_pwmcfg8, 56
 199              	_pwmcfg8:
 200 0000 40420F00 		.word	1000000
 201 0004 204E     		.short	20000
 202 0006 0000     		.space	2
 203 0008 00000000 		.word	0
 204 000c 01000000 		.word	1
 205 0010 00000000 		.word	0
 206 0014 01000000 		.word	1
 207 0018 00000000 		.word	0
 208 001c 01000000 		.word	1
 209 0020 00000000 		.word	0
 210 0024 01000000 		.word	1
 211 0028 00000000 		.word	0
 212 002c 00000000 		.word	0
 213 0030 00000000 		.word	0
 214 0034 00000000 		.word	0
 215              		.text
 216              	.Letext0:
 217              		.file 2 "/usr/arm-none-eabi/include/stdint.h"
 218              		.file 3 "../AithonLibrary/ChibiOS/os/hal/include/pwm.h"
 219              		.file 4 "../AithonLibrary/ChibiOS/os/hal/platforms/STM32/TIMv1/pwm_lld.h"
 220              		.file 5 "../AithonLibrary/ChibiOS/os/hal/platforms/STM32/TIMv1/stm32_tim.h"
 221              		.file 6 "../AithonLibrary/ChibiOS/os/ports/common/ARMCMx/CMSIS/include/core_cm4.h"