ARM GAS  /tmp/ccMkPyf9.s 			page 1


   1              		.syntax unified
   2              		.cpu cortex-m4
   3              		.eabi_attribute 27, 3
   4              		.fpu fpv4-sp-d16
   5              		.eabi_attribute 20, 1
   6              		.eabi_attribute 21, 1
   7              		.eabi_attribute 23, 3
   8              		.eabi_attribute 24, 1
   9              		.eabi_attribute 25, 1
  10              		.eabi_attribute 26, 1
  11              		.eabi_attribute 30, 2
  12              		.eabi_attribute 34, 1
  13              		.eabi_attribute 18, 4
  14              		.thumb
  15              		.file	"spi_lld.c"
  16              		.text
  17              	.Ltext0:
  18              		.cfi_sections	.debug_frame
  19              		.section	.text.spi_lld_serve_tx_interrupt,"ax",%progbits
  20              		.align	2
  21              		.p2align 4,,15
  22              		.thumb
  23              		.thumb_func
  24              		.type	spi_lld_serve_tx_interrupt, %function
  25              	spi_lld_serve_tx_interrupt:
  26              	.LFB119:
  27              		.file 1 "../AithonLibrary/ChibiOS/os/hal/platforms/STM32/SPIv1/spi_lld.c"
  28              		.loc 1 159 0
  29              		.cfi_startproc
  30              		@ args = 0, pretend = 0, frame = 0
  31              		@ frame_needed = 0, uses_anonymous_args = 0
  32              		@ link register save eliminated.
  33              	.LVL0:
  34              		.loc 1 164 0
  35 0000 11F00C0F 		tst	r1, #12
  36 0004 00D1     		bne	.L4
  37 0006 7047     		bx	lr
  38              	.L4:
  39              		.loc 1 165 0
  40 0008 FFF7FEBF 		b	port_halt
  41              	.LVL1:
  42              		.cfi_endproc
  43              	.LFE119:
  44              		.size	spi_lld_serve_tx_interrupt, .-spi_lld_serve_tx_interrupt
  45 000c AFF30080 		.section	.text.spi_lld_serve_rx_interrupt,"ax",%progbits
  46              		.align	2
  47              		.p2align 4,,15
  48              		.thumb
  49              		.thumb_func
  50              		.type	spi_lld_serve_rx_interrupt, %function
  51              	spi_lld_serve_rx_interrupt:
  52              	.LFB118:
  53              		.loc 1 133 0
  54              		.cfi_startproc
  55              		@ args = 0, pretend = 0, frame = 0
  56              		@ frame_needed = 0, uses_anonymous_args = 0
  57              	.LVL2:
ARM GAS  /tmp/ccMkPyf9.s 			page 2


  58              		.loc 1 137 0
  59 0000 11F00C0F 		tst	r1, #12
  60              		.loc 1 133 0
  61 0004 38B5     		push	{r3, r4, r5, lr}
  62              		.cfi_def_cfa_offset 16
  63              		.cfi_offset 3, -16
  64              		.cfi_offset 4, -12
  65              		.cfi_offset 5, -8
  66              		.cfi_offset 14, -4
  67              		.loc 1 133 0
  68 0006 0446     		mov	r4, r0
  69              		.loc 1 137 0
  70 0008 37D1     		bne	.L20
  71              	.LVL3:
  72              	.L6:
  73              		.loc 1 145 0
  74 000a 606A     		ldr	r0, [r4, #36]
  75 000c 0268     		ldr	r2, [r0]
  76 000e 1368     		ldr	r3, [r2]
  77 0010 23F01F03 		bic	r3, r3, #31
  78 0014 1360     		str	r3, [r2]
  79              	.L8:
  80              		.loc 1 145 0 is_stmt 0 discriminator 1
  81 0016 1368     		ldr	r3, [r2]
  82 0018 D907     		lsls	r1, r3, #31
  83 001a FCD4     		bmi	.L8
  84              		.loc 1 145 0 discriminator 2
  85 001c 057A     		ldrb	r5, [r0, #8]	@ zero_extendqisi2
  86              		.loc 1 146 0 is_stmt 1 discriminator 2
  87 001e 216A     		ldr	r1, [r4, #32]
  88              		.loc 1 145 0 discriminator 2
  89 0020 4368     		ldr	r3, [r0, #4]
  90              		.loc 1 146 0 discriminator 2
  91 0022 0A68     		ldr	r2, [r1]
  92              		.loc 1 145 0 discriminator 2
  93 0024 3D20     		movs	r0, #61
  94 0026 A840     		lsls	r0, r0, r5
  95 0028 1860     		str	r0, [r3]
  96              		.loc 1 146 0 discriminator 2
  97 002a 1368     		ldr	r3, [r2]
  98 002c 23F01F03 		bic	r3, r3, #31
  99 0030 1360     		str	r3, [r2]
 100              	.L10:
 101              		.loc 1 146 0 is_stmt 0 discriminator 1
 102 0032 1368     		ldr	r3, [r2]
 103 0034 DB07     		lsls	r3, r3, #31
 104 0036 FCD4     		bmi	.L10
 105              		.loc 1 150 0 is_stmt 1 discriminator 2
 106 0038 6368     		ldr	r3, [r4, #4]
 107              		.loc 1 146 0 discriminator 2
 108 003a 087A     		ldrb	r0, [r1, #8]	@ zero_extendqisi2
 109 003c 4A68     		ldr	r2, [r1, #4]
 110              		.loc 1 150 0 discriminator 2
 111 003e 1B68     		ldr	r3, [r3]
 112              		.loc 1 146 0 discriminator 2
 113 0040 3D21     		movs	r1, #61
 114 0042 8140     		lsls	r1, r1, r0
ARM GAS  /tmp/ccMkPyf9.s 			page 3


 115 0044 1160     		str	r1, [r2]
 116              		.loc 1 150 0 discriminator 2
 117 0046 ABB1     		cbz	r3, .L11
 118              		.loc 1 150 0 is_stmt 0 discriminator 1
 119 0048 0422     		movs	r2, #4
 120 004a 2270     		strb	r2, [r4]
 121 004c 2046     		mov	r0, r4
 122 004e 9847     		blx	r3
 123              	.LVL4:
 124 0050 2378     		ldrb	r3, [r4]	@ zero_extendqisi2
 125 0052 042B     		cmp	r3, #4
 126 0054 0ED0     		beq	.L11
 127              	.L12:
 128              	.LBB2:
 129 0056 2023     		movs	r3, #32
 130              	@ 150 "../AithonLibrary/ChibiOS/os/hal/platforms/STM32/SPIv1/spi_lld.c" 1
 131 0058 83F31188 		msr     BASEPRI, r3
 132              	@ 0 "" 2
 133              		.thumb
 134              	.LBE2:
 135 005c A368     		ldr	r3, [r4, #8]
 136 005e 2BB1     		cbz	r3, .L13
 137              	.LVL5:
 138              	.LBB3:
 139 0060 0022     		movs	r2, #0
 140 0062 A260     		str	r2, [r4, #8]
 141 0064 1846     		mov	r0, r3
 142 0066 5A62     		str	r2, [r3, #36]
 143 0068 FFF7FEFF 		bl	chSchReadyI
 144              	.LVL6:
 145              	.L13:
 146              	.LBE3:
 147              	.LBB4:
 148              		.loc 1 150 0 discriminator 2
 149 006c 0023     		movs	r3, #0
 150              	@ 150 "../AithonLibrary/ChibiOS/os/hal/platforms/STM32/SPIv1/spi_lld.c" 1
 151 006e 83F31188 		msr     BASEPRI, r3
 152              	@ 0 "" 2
 153              		.thumb
 154 0072 38BD     		pop	{r3, r4, r5, pc}
 155              	.LVL7:
 156              	.L11:
 157              	.LBE4:
 158 0074 0223     		movs	r3, #2
 159 0076 2370     		strb	r3, [r4]
 160 0078 EDE7     		b	.L12
 161              	.LVL8:
 162              	.L20:
 163              		.loc 1 138 0 is_stmt 1
 164 007a FFF7FEFF 		bl	port_halt
 165              	.LVL9:
 166 007e C4E7     		b	.L6
 167              		.cfi_endproc
 168              	.LFE118:
 169              		.size	spi_lld_serve_rx_interrupt, .-spi_lld_serve_rx_interrupt
 170              		.section	.text.spi_lld_init,"ax",%progbits
 171              		.align	2
ARM GAS  /tmp/ccMkPyf9.s 			page 4


 172              		.p2align 4,,15
 173              		.global	spi_lld_init
 174              		.thumb
 175              		.thumb_func
 176              		.type	spi_lld_init, %function
 177              	spi_lld_init:
 178              	.LFB120:
 179              		.loc 1 186 0
 180              		.cfi_startproc
 181              		@ args = 0, pretend = 0, frame = 0
 182              		@ frame_needed = 0, uses_anonymous_args = 0
 183 0000 70B5     		push	{r4, r5, r6, lr}
 184              		.cfi_def_cfa_offset 16
 185              		.cfi_offset 4, -16
 186              		.cfi_offset 5, -12
 187              		.cfi_offset 6, -8
 188              		.cfi_offset 14, -4
 189              		.loc 1 191 0
 190 0002 114D     		ldr	r5, .L22
 191              		.loc 1 188 0
 192 0004 114B     		ldr	r3, .L22+4
 193              		.loc 1 227 0
 194 0006 124C     		ldr	r4, .L22+8
 195              		.loc 1 193 0
 196 0008 124E     		ldr	r6, .L22+12
 197              		.loc 1 188 0
 198 000a 4FF6FF72 		movw	r2, #65535
 199              		.loc 1 191 0
 200 000e 2846     		mov	r0, r5
 201              		.loc 1 188 0
 202 0010 1A80     		strh	r2, [r3]	@ movhi
 203              		.loc 1 191 0
 204 0012 FFF7FEFF 		bl	spiObjectInit
 205              	.LVL10:
 206              		.loc 1 192 0
 207 0016 1049     		ldr	r1, .L22+16
 208              		.loc 1 195 0
 209 0018 104A     		ldr	r2, .L22+20
 210              		.loc 1 201 0
 211 001a 114B     		ldr	r3, .L22+24
 212              		.loc 1 192 0
 213 001c E961     		str	r1, [r5, #28]
 214              		.loc 1 227 0
 215 001e 2046     		mov	r0, r4
 216              		.loc 1 194 0
 217 0020 06F12401 		add	r1, r6, #36
 218              		.loc 1 193 0
 219 0024 2E62     		str	r6, [r5, #32]
 220              		.loc 1 194 0
 221 0026 6962     		str	r1, [r5, #36]
 222              		.loc 1 195 0
 223 0028 AA62     		str	r2, [r5, #40]
 224              		.loc 1 201 0
 225 002a EB62     		str	r3, [r5, #44]
 226              		.loc 1 227 0
 227 002c FFF7FEFF 		bl	spiObjectInit
 228              	.LVL11:
ARM GAS  /tmp/ccMkPyf9.s 			page 5


 229              		.loc 1 228 0
 230 0030 0C49     		ldr	r1, .L22+28
 231              		.loc 1 231 0
 232 0032 0D4A     		ldr	r2, .L22+32
 233              		.loc 1 237 0
 234 0034 0D4B     		ldr	r3, .L22+36
 235              		.loc 1 228 0
 236 0036 E161     		str	r1, [r4, #28]
 237              		.loc 1 229 0
 238 0038 A6F14801 		sub	r1, r6, #72
 239              		.loc 1 230 0
 240 003c 0C3E     		subs	r6, r6, #12
 241              		.loc 1 229 0
 242 003e 2162     		str	r1, [r4, #32]
 243              		.loc 1 230 0
 244 0040 6662     		str	r6, [r4, #36]
 245              		.loc 1 231 0
 246 0042 A262     		str	r2, [r4, #40]
 247              		.loc 1 237 0
 248 0044 E362     		str	r3, [r4, #44]
 249 0046 70BD     		pop	{r4, r5, r6, pc}
 250              	.L23:
 251              		.align	2
 252              	.L22:
 253 0048 00000000 		.word	.LANCHOR1
 254 004c 00000000 		.word	.LANCHOR0
 255 0050 00000000 		.word	.LANCHOR2
 256 0054 60000000 		.word	_stm32_dma_streams+96
 257 0058 00300140 		.word	1073819648
 258 005c 16000106 		.word	100728854
 259 0060 46000106 		.word	100728902
 260 0064 003C0040 		.word	1073757184
 261 0068 16000100 		.word	65558
 262 006c 46000100 		.word	65606
 263              		.cfi_endproc
 264              	.LFE120:
 265              		.size	spi_lld_init, .-spi_lld_init
 266              		.section	.text.spi_lld_start,"ax",%progbits
 267              		.align	2
 268              		.p2align 4,,15
 269              		.global	spi_lld_start
 270              		.thumb
 271              		.thumb_func
 272              		.type	spi_lld_start, %function
 273              	spi_lld_start:
 274              	.LFB121:
 275              		.loc 1 306 0
 276              		.cfi_startproc
 277              		@ args = 0, pretend = 0, frame = 0
 278              		@ frame_needed = 0, uses_anonymous_args = 0
 279              	.LVL12:
 280              		.loc 1 309 0
 281 0000 0378     		ldrb	r3, [r0]	@ zero_extendqisi2
 282 0002 012B     		cmp	r3, #1
 283              		.loc 1 306 0
 284 0004 10B5     		push	{r4, lr}
 285              		.cfi_def_cfa_offset 8
ARM GAS  /tmp/ccMkPyf9.s 			page 6


 286              		.cfi_offset 4, -8
 287              		.cfi_offset 14, -4
 288              		.loc 1 306 0
 289 0006 0446     		mov	r4, r0
 290              		.loc 1 309 0
 291 0008 1ED0     		beq	.L31
 292 000a C369     		ldr	r3, [r0, #28]
 293              	.LVL13:
 294              	.L25:
 295              		.loc 1 413 0
 296 000c 6268     		ldr	r2, [r4, #4]
 297              		.loc 1 416 0
 298 000e A06A     		ldr	r0, [r4, #40]
 299              		.loc 1 413 0
 300 0010 5289     		ldrh	r2, [r2, #10]
 301              		.loc 1 418 0
 302 0012 E16A     		ldr	r1, [r4, #44]
 303              		.loc 1 416 0
 304 0014 20F4F040 		bic	r0, r0, #30720
 305              		.loc 1 418 0
 306 0018 21F4F041 		bic	r1, r1, #30720
 307              		.loc 1 413 0
 308 001c 12F4006F 		tst	r2, #2048
 309              		.loc 1 423 0
 310 0020 1CBF     		itt	ne
 311 0022 40F42050 		orrne	r0, r0, #10240
 312              		.loc 1 425 0
 313 0026 41F42051 		orrne	r1, r1, #10240
 314              		.loc 1 422 0
 315 002a A062     		str	r0, [r4, #40]
 316              		.loc 1 424 0
 317 002c E162     		str	r1, [r4, #44]
 318              		.loc 1 429 0
 319 002e 42F44172 		orr	r2, r2, #772
 320              		.loc 1 428 0
 321 0032 0020     		movs	r0, #0
 322              		.loc 1 431 0
 323 0034 0721     		movs	r1, #7
 324              		.loc 1 428 0
 325 0036 1880     		strh	r0, [r3]	@ movhi
 326              		.loc 1 429 0
 327 0038 1A80     		strh	r2, [r3]	@ movhi
 328              		.loc 1 431 0
 329 003a 9980     		strh	r1, [r3, #4]	@ movhi
 330              		.loc 1 432 0
 331 003c 1A88     		ldrh	r2, [r3]
 332 003e 92B2     		uxth	r2, r2
 333 0040 42F04002 		orr	r2, r2, #64
 334 0044 1A80     		strh	r2, [r3]	@ movhi
 335 0046 10BD     		pop	{r4, pc}
 336              	.LVL14:
 337              	.L31:
 338              		.loc 1 311 0
 339 0048 194B     		ldr	r3, .L35
 340 004a 9842     		cmp	r0, r3
 341 004c 0CD0     		beq	.L33
 342              		.loc 1 343 0
ARM GAS  /tmp/ccMkPyf9.s 			page 7


 343 004e 194B     		ldr	r3, .L35+4
 344 0050 9842     		cmp	r0, r3
 345 0052 1BD0     		beq	.L34
 346              	.LVL15:
 347              	.L27:
 348              		.loc 1 408 0
 349 0054 216A     		ldr	r1, [r4, #32]
 350              		.loc 1 409 0
 351 0056 626A     		ldr	r2, [r4, #36]
 352              		.loc 1 408 0
 353 0058 E369     		ldr	r3, [r4, #28]
 354 005a 0868     		ldr	r0, [r1]
 355              		.loc 1 409 0
 356 005c 1168     		ldr	r1, [r2]
 357              		.loc 1 408 0
 358 005e 03F10C02 		add	r2, r3, #12
 359 0062 8260     		str	r2, [r0, #8]
 360              		.loc 1 409 0
 361 0064 8A60     		str	r2, [r1, #8]
 362 0066 D1E7     		b	.L25
 363              	.LVL16:
 364              	.L33:
 365              	.LBB5:
 366              		.loc 1 313 0
 367 0068 134A     		ldr	r2, .L35+8
 368 006a 006A     		ldr	r0, [r0, #32]
 369              	.LVL17:
 370 006c 0A21     		movs	r1, #10
 371 006e 2346     		mov	r3, r4
 372 0070 FFF7FEFF 		bl	dmaStreamAllocate
 373              	.LVL18:
 374              		.loc 1 318 0
 375 0074 114A     		ldr	r2, .L35+12
 376 0076 606A     		ldr	r0, [r4, #36]
 377 0078 2346     		mov	r3, r4
 378 007a 0A21     		movs	r1, #10
 379 007c FFF7FEFF 		bl	dmaStreamAllocate
 380              	.LVL19:
 381              		.loc 1 323 0
 382 0080 0F4B     		ldr	r3, .L35+16
 383 0082 5A6C     		ldr	r2, [r3, #68]
 384 0084 42F48052 		orr	r2, r2, #4096
 385 0088 5A64     		str	r2, [r3, #68]
 386 008a E3E7     		b	.L27
 387              	.LVL20:
 388              	.L34:
 389              	.LBE5:
 390              	.LBB6:
 391              		.loc 1 345 0
 392 008c 0A4A     		ldr	r2, .L35+8
 393 008e 006A     		ldr	r0, [r0, #32]
 394              	.LVL21:
 395 0090 0A21     		movs	r1, #10
 396 0092 2346     		mov	r3, r4
 397 0094 FFF7FEFF 		bl	dmaStreamAllocate
 398              	.LVL22:
 399              		.loc 1 350 0
ARM GAS  /tmp/ccMkPyf9.s 			page 8


 400 0098 084A     		ldr	r2, .L35+12
 401 009a 606A     		ldr	r0, [r4, #36]
 402 009c 2346     		mov	r3, r4
 403 009e 0A21     		movs	r1, #10
 404 00a0 FFF7FEFF 		bl	dmaStreamAllocate
 405              	.LVL23:
 406              		.loc 1 355 0
 407 00a4 064B     		ldr	r3, .L35+16
 408 00a6 1A6C     		ldr	r2, [r3, #64]
 409 00a8 42F40042 		orr	r2, r2, #32768
 410 00ac 1A64     		str	r2, [r3, #64]
 411 00ae D1E7     		b	.L27
 412              	.L36:
 413              		.align	2
 414              	.L35:
 415 00b0 00000000 		.word	.LANCHOR1
 416 00b4 00000000 		.word	.LANCHOR2
 417 00b8 00000000 		.word	spi_lld_serve_rx_interrupt
 418 00bc 00000000 		.word	spi_lld_serve_tx_interrupt
 419 00c0 00380240 		.word	1073887232
 420              	.LBE6:
 421              		.cfi_endproc
 422              	.LFE121:
 423              		.size	spi_lld_start, .-spi_lld_start
 424 00c4 AFF30080 		.section	.text.spi_lld_stop,"ax",%progbits
 424      AFF30080 
 424      AFF30080 
 425              		.align	2
 426              		.p2align 4,,15
 427              		.global	spi_lld_stop
 428              		.thumb
 429              		.thumb_func
 430              		.type	spi_lld_stop, %function
 431              	spi_lld_stop:
 432              	.LFB122:
 433              		.loc 1 442 0
 434              		.cfi_startproc
 435              		@ args = 0, pretend = 0, frame = 0
 436              		@ frame_needed = 0, uses_anonymous_args = 0
 437              	.LVL24:
 438              		.loc 1 445 0
 439 0000 0378     		ldrb	r3, [r0]	@ zero_extendqisi2
 440 0002 022B     		cmp	r3, #2
 441              		.loc 1 442 0
 442 0004 10B5     		push	{r4, lr}
 443              		.cfi_def_cfa_offset 8
 444              		.cfi_offset 4, -8
 445              		.cfi_offset 14, -4
 446              		.loc 1 442 0
 447 0006 0446     		mov	r4, r0
 448              		.loc 1 445 0
 449 0008 00D0     		beq	.L42
 450              	.LVL25:
 451              	.L37:
 452 000a 10BD     		pop	{r4, pc}
 453              	.LVL26:
 454              	.L42:
ARM GAS  /tmp/ccMkPyf9.s 			page 9


 455              		.loc 1 448 0
 456 000c C369     		ldr	r3, [r0, #28]
 457              		.loc 1 450 0
 458 000e 006A     		ldr	r0, [r0, #32]
 459              	.LVL27:
 460              		.loc 1 448 0
 461 0010 0022     		movs	r2, #0
 462 0012 1A80     		strh	r2, [r3]	@ movhi
 463              		.loc 1 449 0
 464 0014 9A80     		strh	r2, [r3, #4]	@ movhi
 465              		.loc 1 450 0
 466 0016 FFF7FEFF 		bl	dmaStreamRelease
 467              	.LVL28:
 468              		.loc 1 451 0
 469 001a 606A     		ldr	r0, [r4, #36]
 470 001c FFF7FEFF 		bl	dmaStreamRelease
 471              	.LVL29:
 472              		.loc 1 454 0
 473 0020 084B     		ldr	r3, .L44
 474 0022 9C42     		cmp	r4, r3
 475 0024 08D0     		beq	.L43
 476              		.loc 1 462 0
 477 0026 084B     		ldr	r3, .L44+4
 478 0028 9C42     		cmp	r4, r3
 479 002a EED1     		bne	.L37
 480              		.loc 1 463 0
 481 002c 074B     		ldr	r3, .L44+8
 482 002e 1A6C     		ldr	r2, [r3, #64]
 483 0030 22F40042 		bic	r2, r2, #32768
 484 0034 1A64     		str	r2, [r3, #64]
 485 0036 E8E7     		b	.L37
 486              	.L43:
 487              		.loc 1 455 0
 488 0038 044B     		ldr	r3, .L44+8
 489 003a 5A6C     		ldr	r2, [r3, #68]
 490 003c 22F48052 		bic	r2, r2, #4096
 491 0040 5A64     		str	r2, [r3, #68]
 492 0042 10BD     		pop	{r4, pc}
 493              	.LVL30:
 494              	.L45:
 495              		.align	2
 496              	.L44:
 497 0044 00000000 		.word	.LANCHOR1
 498 0048 00000000 		.word	.LANCHOR2
 499 004c 00380240 		.word	1073887232
 500              		.cfi_endproc
 501              	.LFE122:
 502              		.size	spi_lld_stop, .-spi_lld_stop
 503              		.section	.text.spi_lld_select,"ax",%progbits
 504              		.align	2
 505              		.p2align 4,,15
 506              		.global	spi_lld_select
 507              		.thumb
 508              		.thumb_func
 509              		.type	spi_lld_select, %function
 510              	spi_lld_select:
 511              	.LFB123:
ARM GAS  /tmp/ccMkPyf9.s 			page 10


 512              		.loc 1 487 0
 513              		.cfi_startproc
 514              		@ args = 0, pretend = 0, frame = 0
 515              		@ frame_needed = 0, uses_anonymous_args = 0
 516              		@ link register save eliminated.
 517              	.LVL31:
 518              		.loc 1 489 0
 519 0000 4368     		ldr	r3, [r0, #4]
 520 0002 1A89     		ldrh	r2, [r3, #8]
 521 0004 5B68     		ldr	r3, [r3, #4]
 522 0006 0121     		movs	r1, #1
 523 0008 01FA02F2 		lsl	r2, r1, r2
 524 000c 92B2     		uxth	r2, r2
 525 000e 5A83     		strh	r2, [r3, #26]	@ movhi
 526 0010 7047     		bx	lr
 527              		.cfi_endproc
 528              	.LFE123:
 529              		.size	spi_lld_select, .-spi_lld_select
 530 0012 00BFAFF3 		.section	.text.spi_lld_unselect,"ax",%progbits
 530      0080AFF3 
 530      0080AFF3 
 530      0080
 531              		.align	2
 532              		.p2align 4,,15
 533              		.global	spi_lld_unselect
 534              		.thumb
 535              		.thumb_func
 536              		.type	spi_lld_unselect, %function
 537              	spi_lld_unselect:
 538              	.LFB124:
 539              		.loc 1 500 0
 540              		.cfi_startproc
 541              		@ args = 0, pretend = 0, frame = 0
 542              		@ frame_needed = 0, uses_anonymous_args = 0
 543              		@ link register save eliminated.
 544              	.LVL32:
 545              		.loc 1 502 0
 546 0000 4368     		ldr	r3, [r0, #4]
 547 0002 1A89     		ldrh	r2, [r3, #8]
 548 0004 5B68     		ldr	r3, [r3, #4]
 549 0006 0121     		movs	r1, #1
 550 0008 01FA02F2 		lsl	r2, r1, r2
 551 000c 92B2     		uxth	r2, r2
 552 000e 1A83     		strh	r2, [r3, #24]	@ movhi
 553 0010 7047     		bx	lr
 554              		.cfi_endproc
 555              	.LFE124:
 556              		.size	spi_lld_unselect, .-spi_lld_unselect
 557 0012 00BFAFF3 		.section	.text.spi_lld_ignore,"ax",%progbits
 557      0080AFF3 
 557      0080AFF3 
 557      0080
 558              		.align	2
 559              		.p2align 4,,15
 560              		.global	spi_lld_ignore
 561              		.thumb
 562              		.thumb_func
ARM GAS  /tmp/ccMkPyf9.s 			page 11


 563              		.type	spi_lld_ignore, %function
 564              	spi_lld_ignore:
 565              	.LFB125:
 566              		.loc 1 516 0
 567              		.cfi_startproc
 568              		@ args = 0, pretend = 0, frame = 0
 569              		@ frame_needed = 0, uses_anonymous_args = 0
 570              		@ link register save eliminated.
 571              	.LVL33:
 572              		.loc 1 518 0
 573 0000 026A     		ldr	r2, [r0, #32]
 574              		.loc 1 522 0
 575 0002 436A     		ldr	r3, [r0, #36]
 576              		.loc 1 518 0
 577 0004 1268     		ldr	r2, [r2]
 578              		.loc 1 522 0
 579 0006 1B68     		ldr	r3, [r3]
 580              		.loc 1 516 0
 581 0008 70B4     		push	{r4, r5, r6}
 582              		.cfi_def_cfa_offset 12
 583              		.cfi_offset 4, -12
 584              		.cfi_offset 5, -8
 585              		.cfi_offset 6, -4
 586              		.loc 1 520 0
 587 000a 856A     		ldr	r5, [r0, #40]
 588              		.loc 1 518 0
 589 000c 094E     		ldr	r6, .L49
 590              		.loc 1 524 0
 591 000e C06A     		ldr	r0, [r0, #44]
 592              	.LVL34:
 593              		.loc 1 522 0
 594 0010 094C     		ldr	r4, .L49+4
 595              		.loc 1 518 0
 596 0012 D660     		str	r6, [r2, #12]
 597              		.loc 1 519 0
 598 0014 5160     		str	r1, [r2, #4]
 599              		.loc 1 520 0
 600 0016 1560     		str	r5, [r2]
 601              		.loc 1 522 0
 602 0018 DC60     		str	r4, [r3, #12]
 603              		.loc 1 523 0
 604 001a 5960     		str	r1, [r3, #4]
 605              		.loc 1 524 0
 606 001c 1860     		str	r0, [r3]
 607              		.loc 1 526 0
 608 001e 1168     		ldr	r1, [r2]
 609              	.LVL35:
 610 0020 41F00101 		orr	r1, r1, #1
 611 0024 1160     		str	r1, [r2]
 612              		.loc 1 527 0
 613 0026 1A68     		ldr	r2, [r3]
 614 0028 42F00102 		orr	r2, r2, #1
 615 002c 1A60     		str	r2, [r3]
 616              		.loc 1 528 0
 617 002e 70BC     		pop	{r4, r5, r6}
 618 0030 7047     		bx	lr
 619              	.L50:
ARM GAS  /tmp/ccMkPyf9.s 			page 12


 620 0032 00BF     		.align	2
 621              	.L49:
 622 0034 00000000 		.word	.LANCHOR3
 623 0038 00000000 		.word	.LANCHOR0
 624              		.cfi_endproc
 625              	.LFE125:
 626              		.size	spi_lld_ignore, .-spi_lld_ignore
 627 003c AFF30080 		.section	.text.spi_lld_exchange,"ax",%progbits
 628              		.align	2
 629              		.p2align 4,,15
 630              		.global	spi_lld_exchange
 631              		.thumb
 632              		.thumb_func
 633              		.type	spi_lld_exchange, %function
 634              	spi_lld_exchange:
 635              	.LFB126:
 636              		.loc 1 546 0
 637              		.cfi_startproc
 638              		@ args = 0, pretend = 0, frame = 0
 639              		@ frame_needed = 0, uses_anonymous_args = 0
 640              		@ link register save eliminated.
 641              	.LVL36:
 642 0000 F0B4     		push	{r4, r5, r6, r7}
 643              		.cfi_def_cfa_offset 16
 644              		.cfi_offset 4, -16
 645              		.cfi_offset 5, -12
 646              		.cfi_offset 6, -8
 647              		.cfi_offset 7, -4
 648              		.loc 1 548 0
 649 0002 046A     		ldr	r4, [r0, #32]
 650              		.loc 1 552 0
 651 0004 476A     		ldr	r7, [r0, #36]
 652              		.loc 1 550 0
 653 0006 866A     		ldr	r6, [r0, #40]
 654              		.loc 1 554 0
 655 0008 C56A     		ldr	r5, [r0, #44]
 656              		.loc 1 548 0
 657 000a 2468     		ldr	r4, [r4]
 658              		.loc 1 552 0
 659 000c 3868     		ldr	r0, [r7]
 660              	.LVL37:
 661              		.loc 1 548 0
 662 000e E360     		str	r3, [r4, #12]
 663              		.loc 1 550 0
 664 0010 46F48066 		orr	r6, r6, #1024
 665              		.loc 1 554 0
 666 0014 45F48065 		orr	r5, r5, #1024
 667              		.loc 1 549 0
 668 0018 6160     		str	r1, [r4, #4]
 669              		.loc 1 550 0
 670 001a 2660     		str	r6, [r4]
 671              		.loc 1 552 0
 672 001c C260     		str	r2, [r0, #12]
 673              		.loc 1 553 0
 674 001e 4160     		str	r1, [r0, #4]
 675              		.loc 1 554 0
 676 0020 0560     		str	r5, [r0]
ARM GAS  /tmp/ccMkPyf9.s 			page 13


 677              		.loc 1 556 0
 678 0022 2368     		ldr	r3, [r4]
 679              	.LVL38:
 680 0024 43F00103 		orr	r3, r3, #1
 681 0028 2360     		str	r3, [r4]
 682              		.loc 1 557 0
 683 002a 0368     		ldr	r3, [r0]
 684 002c 43F00103 		orr	r3, r3, #1
 685 0030 0360     		str	r3, [r0]
 686              		.loc 1 558 0
 687 0032 F0BC     		pop	{r4, r5, r6, r7}
 688 0034 7047     		bx	lr
 689              		.cfi_endproc
 690              	.LFE126:
 691              		.size	spi_lld_exchange, .-spi_lld_exchange
 692              		.section	.text.spi_lld_send,"ax",%progbits
 693              		.align	2
 694              		.p2align 4,,15
 695              		.global	spi_lld_send
 696              		.thumb
 697              		.thumb_func
 698              		.type	spi_lld_send, %function
 699              	spi_lld_send:
 700              	.LFB127:
 701              		.loc 1 573 0
 702              		.cfi_startproc
 703              		@ args = 0, pretend = 0, frame = 0
 704              		@ frame_needed = 0, uses_anonymous_args = 0
 705              		@ link register save eliminated.
 706              	.LVL39:
 707 0000 70B4     		push	{r4, r5, r6}
 708              		.cfi_def_cfa_offset 12
 709              		.cfi_offset 4, -12
 710              		.cfi_offset 5, -8
 711              		.cfi_offset 6, -4
 712              		.loc 1 579 0
 713 0002 436A     		ldr	r3, [r0, #36]
 714              		.loc 1 575 0
 715 0004 046A     		ldr	r4, [r0, #32]
 716              		.loc 1 581 0
 717 0006 C56A     		ldr	r5, [r0, #44]
 718              		.loc 1 575 0
 719 0008 2468     		ldr	r4, [r4]
 720              		.loc 1 579 0
 721 000a 1B68     		ldr	r3, [r3]
 722              		.loc 1 577 0
 723 000c 806A     		ldr	r0, [r0, #40]
 724              	.LVL40:
 725              		.loc 1 575 0
 726 000e 094E     		ldr	r6, .L53
 727 0010 E660     		str	r6, [r4, #12]
 728              		.loc 1 581 0
 729 0012 45F48065 		orr	r5, r5, #1024
 730              		.loc 1 576 0
 731 0016 6160     		str	r1, [r4, #4]
 732              		.loc 1 577 0
 733 0018 2060     		str	r0, [r4]
ARM GAS  /tmp/ccMkPyf9.s 			page 14


 734              		.loc 1 579 0
 735 001a DA60     		str	r2, [r3, #12]
 736              		.loc 1 580 0
 737 001c 5960     		str	r1, [r3, #4]
 738              		.loc 1 581 0
 739 001e 1D60     		str	r5, [r3]
 740              		.loc 1 583 0
 741 0020 2268     		ldr	r2, [r4]
 742              	.LVL41:
 743 0022 42F00102 		orr	r2, r2, #1
 744 0026 2260     		str	r2, [r4]
 745              		.loc 1 584 0
 746 0028 1A68     		ldr	r2, [r3]
 747 002a 42F00102 		orr	r2, r2, #1
 748 002e 1A60     		str	r2, [r3]
 749              		.loc 1 585 0
 750 0030 70BC     		pop	{r4, r5, r6}
 751 0032 7047     		bx	lr
 752              	.L54:
 753              		.align	2
 754              	.L53:
 755 0034 00000000 		.word	.LANCHOR3
 756              		.cfi_endproc
 757              	.LFE127:
 758              		.size	spi_lld_send, .-spi_lld_send
 759 0038 AFF30080 		.section	.text.spi_lld_receive,"ax",%progbits
 759      AFF30080 
 760              		.align	2
 761              		.p2align 4,,15
 762              		.global	spi_lld_receive
 763              		.thumb
 764              		.thumb_func
 765              		.type	spi_lld_receive, %function
 766              	spi_lld_receive:
 767              	.LFB128:
 768              		.loc 1 600 0
 769              		.cfi_startproc
 770              		@ args = 0, pretend = 0, frame = 0
 771              		@ frame_needed = 0, uses_anonymous_args = 0
 772              		@ link register save eliminated.
 773              	.LVL42:
 774 0000 70B4     		push	{r4, r5, r6}
 775              		.cfi_def_cfa_offset 12
 776              		.cfi_offset 4, -12
 777              		.cfi_offset 5, -8
 778              		.cfi_offset 6, -4
 779              		.loc 1 606 0
 780 0002 436A     		ldr	r3, [r0, #36]
 781              		.loc 1 602 0
 782 0004 046A     		ldr	r4, [r0, #32]
 783              		.loc 1 604 0
 784 0006 866A     		ldr	r6, [r0, #40]
 785              		.loc 1 602 0
 786 0008 2468     		ldr	r4, [r4]
 787              		.loc 1 606 0
 788 000a 1B68     		ldr	r3, [r3]
 789              		.loc 1 608 0
ARM GAS  /tmp/ccMkPyf9.s 			page 15


 790 000c C06A     		ldr	r0, [r0, #44]
 791              	.LVL43:
 792              		.loc 1 606 0
 793 000e 094D     		ldr	r5, .L56
 794              		.loc 1 602 0
 795 0010 E260     		str	r2, [r4, #12]
 796              		.loc 1 604 0
 797 0012 46F48066 		orr	r6, r6, #1024
 798              		.loc 1 603 0
 799 0016 6160     		str	r1, [r4, #4]
 800              		.loc 1 604 0
 801 0018 2660     		str	r6, [r4]
 802              		.loc 1 606 0
 803 001a DD60     		str	r5, [r3, #12]
 804              		.loc 1 607 0
 805 001c 5960     		str	r1, [r3, #4]
 806              		.loc 1 608 0
 807 001e 1860     		str	r0, [r3]
 808              		.loc 1 610 0
 809 0020 2268     		ldr	r2, [r4]
 810              	.LVL44:
 811 0022 42F00102 		orr	r2, r2, #1
 812 0026 2260     		str	r2, [r4]
 813              		.loc 1 611 0
 814 0028 1A68     		ldr	r2, [r3]
 815 002a 42F00102 		orr	r2, r2, #1
 816 002e 1A60     		str	r2, [r3]
 817              		.loc 1 612 0
 818 0030 70BC     		pop	{r4, r5, r6}
 819 0032 7047     		bx	lr
 820              	.L57:
 821              		.align	2
 822              	.L56:
 823 0034 00000000 		.word	.LANCHOR0
 824              		.cfi_endproc
 825              	.LFE128:
 826              		.size	spi_lld_receive, .-spi_lld_receive
 827 0038 AFF30080 		.section	.text.spi_lld_polled_exchange,"ax",%progbits
 827      AFF30080 
 828              		.align	2
 829              		.p2align 4,,15
 830              		.global	spi_lld_polled_exchange
 831              		.thumb
 832              		.thumb_func
 833              		.type	spi_lld_polled_exchange, %function
 834              	spi_lld_polled_exchange:
 835              	.LFB129:
 836              		.loc 1 626 0
 837              		.cfi_startproc
 838              		@ args = 0, pretend = 0, frame = 0
 839              		@ frame_needed = 0, uses_anonymous_args = 0
 840              		@ link register save eliminated.
 841              	.LVL45:
 842              		.loc 1 628 0
 843 0000 C269     		ldr	r2, [r0, #28]
 844 0002 9181     		strh	r1, [r2, #12]	@ movhi
 845              	.L60:
ARM GAS  /tmp/ccMkPyf9.s 			page 16


 846              		.loc 1 629 0 discriminator 1
 847 0004 1389     		ldrh	r3, [r2, #8]
 848 0006 DB07     		lsls	r3, r3, #31
 849 0008 FCD5     		bpl	.L60
 850              		.loc 1 631 0
 851 000a 9089     		ldrh	r0, [r2, #12]
 852              	.LVL46:
 853              		.loc 1 632 0
 854 000c 80B2     		uxth	r0, r0
 855 000e 7047     		bx	lr
 856              		.cfi_endproc
 857              	.LFE129:
 858              		.size	spi_lld_polled_exchange, .-spi_lld_polled_exchange
 859              		.global	SPID3
 860              		.global	SPID1
 861              		.section	.bss.dummytx,"aw",%nobits
 862              		.align	1
 863              		.set	.LANCHOR0,. + 0
 864              		.type	dummytx, %object
 865              		.size	dummytx, 2
 866              	dummytx:
 867 0000 0000     		.space	2
 868              		.section	.bss.SPID1,"aw",%nobits
 869              		.align	2
 870              		.set	.LANCHOR1,. + 0
 871              		.type	SPID1, %object
 872              		.size	SPID1, 48
 873              	SPID1:
 874 0000 00000000 		.space	48
 874      00000000 
 874      00000000 
 874      00000000 
 874      00000000 
 875              		.section	.bss.SPID3,"aw",%nobits
 876              		.align	2
 877              		.set	.LANCHOR2,. + 0
 878              		.type	SPID3, %object
 879              		.size	SPID3, 48
 880              	SPID3:
 881 0000 00000000 		.space	48
 881      00000000 
 881      00000000 
 881      00000000 
 881      00000000 
 882              		.section	.bss.dummyrx,"aw",%nobits
 883              		.align	1
 884              		.set	.LANCHOR3,. + 0
 885              		.type	dummyrx, %object
 886              		.size	dummyrx, 2
 887              	dummyrx:
 888 0000 0000     		.space	2
 889              		.text
 890              	.Letext0:
 891              		.file 2 "/usr/lib/gcc/arm-none-eabi/4.8.3/include/stddef.h"
 892              		.file 3 "/usr/arm-none-eabi/include/stdint.h"
 893              		.file 4 "../AithonLibrary/ChibiOS/os/ports/GCC/ARMCMx/chtypes.h"
 894              		.file 5 "../AithonLibrary/ChibiOS/os/kernel/include/chlists.h"
ARM GAS  /tmp/ccMkPyf9.s 			page 17


 895              		.file 6 "../AithonLibrary/ChibiOS/os/kernel/include/chthreads.h"
 896              		.file 7 "../AithonLibrary/ChibiOS/os/ports/GCC/ARMCMx/chcore_v7m.h"
 897              		.file 8 "../AithonLibrary/ChibiOS/os/kernel/include/chmtx.h"
 898              		.file 9 "../AithonLibrary/ChibiOS/os/hal/platforms/STM32F4xx/stm32f4xx.h"
 899              		.file 10 "../AithonLibrary/ChibiOS/os/hal/platforms/STM32F4xx/stm32_dma.h"
 900              		.file 11 "../AithonLibrary/ChibiOS/os/hal/platforms/STM32/GPIOv2/pal_lld.h"
 901              		.file 12 "../AithonLibrary/ChibiOS/os/hal/include/spi.h"
 902              		.file 13 "../AithonLibrary/ChibiOS/os/hal/platforms/STM32/SPIv1/spi_lld.h"
 903              		.file 14 "../AithonLibrary/ChibiOS/os/ports/common/ARMCMx/CMSIS/include/core_cm4.h"
 904              		.file 15 "../AithonLibrary/ChibiOS/os/kernel/include/chschd.h"