ARM GAS  /tmp/ccSjQRSH.s 			page 1


   1              		.syntax unified
   2              		.cpu cortex-m4
   3              		.eabi_attribute 27, 3
   4              		.fpu fpv4-sp-d16
   5              		.eabi_attribute 20, 1
   6              		.eabi_attribute 21, 1
   7              		.eabi_attribute 23, 3
   8              		.eabi_attribute 24, 1
   9              		.eabi_attribute 25, 1
  10              		.eabi_attribute 26, 1
  11              		.eabi_attribute 30, 2
  12              		.eabi_attribute 34, 1
  13              		.eabi_attribute 18, 4
  14              		.thumb
  15              		.file	"stm_flash.c"
  16              		.text
  17              	.Ltext0:
  18              		.cfi_sections	.debug_frame
  19              		.section	.text.FLASH_SetLatency,"ax",%progbits
  20              		.align	2
  21              		.p2align 4,,15
  22              		.global	FLASH_SetLatency
  23              		.thumb
  24              		.thumb_func
  25              		.type	FLASH_SetLatency, %function
  26              	FLASH_SetLatency:
  27              	.LFB111:
  28              		.file 1 "../AithonLibrary/stm_flash.c"
  29              		.loc 1 167 0
  30              		.cfi_startproc
  31              		@ args = 0, pretend = 0, frame = 0
  32              		@ frame_needed = 0, uses_anonymous_args = 0
  33              		@ link register save eliminated.
  34              	.LVL0:
  35              		.loc 1 170 0
  36 0000 014B     		ldr	r3, .L2
  37 0002 C0B2     		uxtb	r0, r0
  38              	.LVL1:
  39 0004 1870     		strb	r0, [r3]
  40 0006 7047     		bx	lr
  41              	.L3:
  42              		.align	2
  43              	.L2:
  44 0008 003C0240 		.word	1073888256
  45              		.cfi_endproc
  46              	.LFE111:
  47              		.size	FLASH_SetLatency, .-FLASH_SetLatency
  48 000c AFF30080 		.section	.text.FLASH_PrefetchBufferCmd,"ax",%progbits
  49              		.align	2
  50              		.p2align 4,,15
  51              		.global	FLASH_PrefetchBufferCmd
  52              		.thumb
  53              		.thumb_func
  54              		.type	FLASH_PrefetchBufferCmd, %function
  55              	FLASH_PrefetchBufferCmd:
  56              	.LFB112:
  57              		.loc 1 180 0
ARM GAS  /tmp/ccSjQRSH.s 			page 2


  58              		.cfi_startproc
  59              		@ args = 0, pretend = 0, frame = 0
  60              		@ frame_needed = 0, uses_anonymous_args = 0
  61              		@ link register save eliminated.
  62              	.LVL2:
  63              		.loc 1 185 0
  64 0000 054B     		ldr	r3, .L9
  65 0002 1A68     		ldr	r2, [r3]
  66              		.loc 1 183 0
  67 0004 18B9     		cbnz	r0, .L8
  68              		.loc 1 189 0
  69 0006 22F48072 		bic	r2, r2, #256
  70 000a 1A60     		str	r2, [r3]
  71 000c 7047     		bx	lr
  72              	.L8:
  73              		.loc 1 185 0
  74 000e 42F48072 		orr	r2, r2, #256
  75 0012 1A60     		str	r2, [r3]
  76 0014 7047     		bx	lr
  77              	.L10:
  78 0016 00BF     		.align	2
  79              	.L9:
  80 0018 003C0240 		.word	1073888256
  81              		.cfi_endproc
  82              	.LFE112:
  83              		.size	FLASH_PrefetchBufferCmd, .-FLASH_PrefetchBufferCmd
  84 001c AFF30080 		.section	.text.FLASH_InstructionCacheCmd,"ax",%progbits
  85              		.align	2
  86              		.p2align 4,,15
  87              		.global	FLASH_InstructionCacheCmd
  88              		.thumb
  89              		.thumb_func
  90              		.type	FLASH_InstructionCacheCmd, %function
  91              	FLASH_InstructionCacheCmd:
  92              	.LFB113:
  93              		.loc 1 200 0
  94              		.cfi_startproc
  95              		@ args = 0, pretend = 0, frame = 0
  96              		@ frame_needed = 0, uses_anonymous_args = 0
  97              		@ link register save eliminated.
  98              	.LVL3:
  99              		.loc 1 204 0
 100 0000 054B     		ldr	r3, .L15
 101 0002 1A68     		ldr	r2, [r3]
 102              		.loc 1 202 0
 103 0004 18B9     		cbnz	r0, .L14
 104              		.loc 1 208 0
 105 0006 22F40072 		bic	r2, r2, #512
 106 000a 1A60     		str	r2, [r3]
 107 000c 7047     		bx	lr
 108              	.L14:
 109              		.loc 1 204 0
 110 000e 42F40072 		orr	r2, r2, #512
 111 0012 1A60     		str	r2, [r3]
 112 0014 7047     		bx	lr
 113              	.L16:
 114 0016 00BF     		.align	2
ARM GAS  /tmp/ccSjQRSH.s 			page 3


 115              	.L15:
 116 0018 003C0240 		.word	1073888256
 117              		.cfi_endproc
 118              	.LFE113:
 119              		.size	FLASH_InstructionCacheCmd, .-FLASH_InstructionCacheCmd
 120 001c AFF30080 		.section	.text.FLASH_DataCacheCmd,"ax",%progbits
 121              		.align	2
 122              		.p2align 4,,15
 123              		.global	FLASH_DataCacheCmd
 124              		.thumb
 125              		.thumb_func
 126              		.type	FLASH_DataCacheCmd, %function
 127              	FLASH_DataCacheCmd:
 128              	.LFB114:
 129              		.loc 1 219 0
 130              		.cfi_startproc
 131              		@ args = 0, pretend = 0, frame = 0
 132              		@ frame_needed = 0, uses_anonymous_args = 0
 133              		@ link register save eliminated.
 134              	.LVL4:
 135              		.loc 1 223 0
 136 0000 054B     		ldr	r3, .L21
 137 0002 1A68     		ldr	r2, [r3]
 138              		.loc 1 221 0
 139 0004 18B9     		cbnz	r0, .L20
 140              		.loc 1 227 0
 141 0006 22F48062 		bic	r2, r2, #1024
 142 000a 1A60     		str	r2, [r3]
 143 000c 7047     		bx	lr
 144              	.L20:
 145              		.loc 1 223 0
 146 000e 42F48062 		orr	r2, r2, #1024
 147 0012 1A60     		str	r2, [r3]
 148 0014 7047     		bx	lr
 149              	.L22:
 150 0016 00BF     		.align	2
 151              	.L21:
 152 0018 003C0240 		.word	1073888256
 153              		.cfi_endproc
 154              	.LFE114:
 155              		.size	FLASH_DataCacheCmd, .-FLASH_DataCacheCmd
 156 001c AFF30080 		.section	.text.FLASH_InstructionCacheReset,"ax",%progbits
 157              		.align	2
 158              		.p2align 4,,15
 159              		.global	FLASH_InstructionCacheReset
 160              		.thumb
 161              		.thumb_func
 162              		.type	FLASH_InstructionCacheReset, %function
 163              	FLASH_InstructionCacheReset:
 164              	.LFB115:
 165              		.loc 1 238 0
 166              		.cfi_startproc
 167              		@ args = 0, pretend = 0, frame = 0
 168              		@ frame_needed = 0, uses_anonymous_args = 0
 169              		@ link register save eliminated.
 170              		.loc 1 239 0
 171 0000 024B     		ldr	r3, .L24
ARM GAS  /tmp/ccSjQRSH.s 			page 4


 172 0002 1A68     		ldr	r2, [r3]
 173 0004 42F40062 		orr	r2, r2, #2048
 174 0008 1A60     		str	r2, [r3]
 175 000a 7047     		bx	lr
 176              	.L25:
 177              		.align	2
 178              	.L24:
 179 000c 003C0240 		.word	1073888256
 180              		.cfi_endproc
 181              	.LFE115:
 182              		.size	FLASH_InstructionCacheReset, .-FLASH_InstructionCacheReset
 183              		.section	.text.FLASH_DataCacheReset,"ax",%progbits
 184              		.align	2
 185              		.p2align 4,,15
 186              		.global	FLASH_DataCacheReset
 187              		.thumb
 188              		.thumb_func
 189              		.type	FLASH_DataCacheReset, %function
 190              	FLASH_DataCacheReset:
 191              	.LFB116:
 192              		.loc 1 249 0
 193              		.cfi_startproc
 194              		@ args = 0, pretend = 0, frame = 0
 195              		@ frame_needed = 0, uses_anonymous_args = 0
 196              		@ link register save eliminated.
 197              		.loc 1 250 0
 198 0000 024B     		ldr	r3, .L27
 199 0002 1A68     		ldr	r2, [r3]
 200 0004 42F48052 		orr	r2, r2, #4096
 201 0008 1A60     		str	r2, [r3]
 202 000a 7047     		bx	lr
 203              	.L28:
 204              		.align	2
 205              	.L27:
 206 000c 003C0240 		.word	1073888256
 207              		.cfi_endproc
 208              	.LFE116:
 209              		.size	FLASH_DataCacheReset, .-FLASH_DataCacheReset
 210              		.section	.text.FLASH_Unlock,"ax",%progbits
 211              		.align	2
 212              		.p2align 4,,15
 213              		.global	FLASH_Unlock
 214              		.thumb
 215              		.thumb_func
 216              		.type	FLASH_Unlock, %function
 217              	FLASH_Unlock:
 218              	.LFB117:
 219              		.loc 1 293 0
 220              		.cfi_startproc
 221              		@ args = 0, pretend = 0, frame = 0
 222              		@ frame_needed = 0, uses_anonymous_args = 0
 223              		@ link register save eliminated.
 224              		.loc 1 294 0
 225 0000 044B     		ldr	r3, .L31
 226 0002 1A69     		ldr	r2, [r3, #16]
 227 0004 002A     		cmp	r2, #0
 228 0006 03DA     		bge	.L29
ARM GAS  /tmp/ccSjQRSH.s 			page 5


 229              		.loc 1 297 0
 230 0008 0349     		ldr	r1, .L31+4
 231              		.loc 1 298 0
 232 000a 044A     		ldr	r2, .L31+8
 233              		.loc 1 297 0
 234 000c 5960     		str	r1, [r3, #4]
 235              		.loc 1 298 0
 236 000e 5A60     		str	r2, [r3, #4]
 237              	.L29:
 238 0010 7047     		bx	lr
 239              	.L32:
 240 0012 00BF     		.align	2
 241              	.L31:
 242 0014 003C0240 		.word	1073888256
 243 0018 23016745 		.word	1164378403
 244 001c AB89EFCD 		.word	-839939669
 245              		.cfi_endproc
 246              	.LFE117:
 247              		.size	FLASH_Unlock, .-FLASH_Unlock
 248              		.section	.text.FLASH_Lock,"ax",%progbits
 249              		.align	2
 250              		.p2align 4,,15
 251              		.global	FLASH_Lock
 252              		.thumb
 253              		.thumb_func
 254              		.type	FLASH_Lock, %function
 255              	FLASH_Lock:
 256              	.LFB118:
 257              		.loc 1 308 0
 258              		.cfi_startproc
 259              		@ args = 0, pretend = 0, frame = 0
 260              		@ frame_needed = 0, uses_anonymous_args = 0
 261              		@ link register save eliminated.
 262              		.loc 1 310 0
 263 0000 024B     		ldr	r3, .L34
 264 0002 1A69     		ldr	r2, [r3, #16]
 265 0004 42F00042 		orr	r2, r2, #-2147483648
 266 0008 1A61     		str	r2, [r3, #16]
 267 000a 7047     		bx	lr
 268              	.L35:
 269              		.align	2
 270              	.L34:
 271 000c 003C0240 		.word	1073888256
 272              		.cfi_endproc
 273              	.LFE118:
 274              		.size	FLASH_Lock, .-FLASH_Lock
 275              		.section	.text.FLASH_OB_Unlock,"ax",%progbits
 276              		.align	2
 277              		.p2align 4,,15
 278              		.global	FLASH_OB_Unlock
 279              		.thumb
 280              		.thumb_func
 281              		.type	FLASH_OB_Unlock, %function
 282              	FLASH_OB_Unlock:
 283              	.LFB125:
 284              		.loc 1 637 0
 285              		.cfi_startproc
ARM GAS  /tmp/ccSjQRSH.s 			page 6


 286              		@ args = 0, pretend = 0, frame = 0
 287              		@ frame_needed = 0, uses_anonymous_args = 0
 288              		@ link register save eliminated.
 289              		.loc 1 638 0
 290 0000 044B     		ldr	r3, .L41
 291 0002 5A69     		ldr	r2, [r3, #20]
 292 0004 D207     		lsls	r2, r2, #31
 293 0006 03D5     		bpl	.L36
 294              		.loc 1 641 0
 295 0008 0349     		ldr	r1, .L41+4
 296              		.loc 1 642 0
 297 000a 044A     		ldr	r2, .L41+8
 298              		.loc 1 641 0
 299 000c 9960     		str	r1, [r3, #8]
 300              		.loc 1 642 0
 301 000e 9A60     		str	r2, [r3, #8]
 302              	.L36:
 303 0010 7047     		bx	lr
 304              	.L42:
 305 0012 00BF     		.align	2
 306              	.L41:
 307 0014 003C0240 		.word	1073888256
 308 0018 3B2A1908 		.word	135866939
 309 001c 7F6E5D4C 		.word	1281191551
 310              		.cfi_endproc
 311              	.LFE125:
 312              		.size	FLASH_OB_Unlock, .-FLASH_OB_Unlock
 313              		.section	.text.FLASH_OB_Lock,"ax",%progbits
 314              		.align	2
 315              		.p2align 4,,15
 316              		.global	FLASH_OB_Lock
 317              		.thumb
 318              		.thumb_func
 319              		.type	FLASH_OB_Lock, %function
 320              	FLASH_OB_Lock:
 321              	.LFB126:
 322              		.loc 1 652 0
 323              		.cfi_startproc
 324              		@ args = 0, pretend = 0, frame = 0
 325              		@ frame_needed = 0, uses_anonymous_args = 0
 326              		@ link register save eliminated.
 327              		.loc 1 654 0
 328 0000 024B     		ldr	r3, .L44
 329 0002 5A69     		ldr	r2, [r3, #20]
 330 0004 42F00102 		orr	r2, r2, #1
 331 0008 5A61     		str	r2, [r3, #20]
 332 000a 7047     		bx	lr
 333              	.L45:
 334              		.align	2
 335              	.L44:
 336 000c 003C0240 		.word	1073888256
 337              		.cfi_endproc
 338              	.LFE126:
 339              		.size	FLASH_OB_Lock, .-FLASH_OB_Lock
 340              		.section	.text.FLASH_OB_BORConfig,"ax",%progbits
 341              		.align	2
 342              		.p2align 4,,15
ARM GAS  /tmp/ccSjQRSH.s 			page 7


 343              		.global	FLASH_OB_BORConfig
 344              		.thumb
 345              		.thumb_func
 346              		.type	FLASH_OB_BORConfig, %function
 347              	FLASH_OB_BORConfig:
 348              	.LFB130:
 349              		.loc 1 759 0
 350              		.cfi_startproc
 351              		@ args = 0, pretend = 0, frame = 0
 352              		@ frame_needed = 0, uses_anonymous_args = 0
 353              		@ link register save eliminated.
 354              	.LVL5:
 355              		.loc 1 762 0
 356 0000 044B     		ldr	r3, .L47
 357 0002 1A78     		ldrb	r2, [r3]	@ zero_extendqisi2
 358 0004 02F0F302 		and	r2, r2, #243
 359 0008 1A70     		strb	r2, [r3]
 360              		.loc 1 763 0
 361 000a 1A78     		ldrb	r2, [r3]	@ zero_extendqisi2
 362 000c 1043     		orrs	r0, r0, r2
 363              	.LVL6:
 364 000e 1870     		strb	r0, [r3]
 365 0010 7047     		bx	lr
 366              	.L48:
 367 0012 00BF     		.align	2
 368              	.L47:
 369 0014 143C0240 		.word	1073888276
 370              		.cfi_endproc
 371              	.LFE130:
 372              		.size	FLASH_OB_BORConfig, .-FLASH_OB_BORConfig
 373 0018 AFF30080 		.section	.text.FLASH_OB_GetUser,"ax",%progbits
 373      AFF30080 
 374              		.align	2
 375              		.p2align 4,,15
 376              		.global	FLASH_OB_GetUser
 377              		.thumb
 378              		.thumb_func
 379              		.type	FLASH_OB_GetUser, %function
 380              	FLASH_OB_GetUser:
 381              	.LFB132:
 382              		.loc 1 793 0
 383              		.cfi_startproc
 384              		@ args = 0, pretend = 0, frame = 0
 385              		@ frame_needed = 0, uses_anonymous_args = 0
 386              		@ link register save eliminated.
 387              		.loc 1 795 0
 388 0000 024B     		ldr	r3, .L50
 389 0002 5869     		ldr	r0, [r3, #20]
 390              		.loc 1 796 0
 391 0004 C0F34710 		ubfx	r0, r0, #5, #8
 392 0008 7047     		bx	lr
 393              	.L51:
 394 000a 00BF     		.align	2
 395              	.L50:
 396 000c 003C0240 		.word	1073888256
 397              		.cfi_endproc
 398              	.LFE132:
ARM GAS  /tmp/ccSjQRSH.s 			page 8


 399              		.size	FLASH_OB_GetUser, .-FLASH_OB_GetUser
 400              		.section	.text.FLASH_OB_GetWRP,"ax",%progbits
 401              		.align	2
 402              		.p2align 4,,15
 403              		.global	FLASH_OB_GetWRP
 404              		.thumb
 405              		.thumb_func
 406              		.type	FLASH_OB_GetWRP, %function
 407              	FLASH_OB_GetWRP:
 408              	.LFB133:
 409              		.loc 1 804 0
 410              		.cfi_startproc
 411              		@ args = 0, pretend = 0, frame = 0
 412              		@ frame_needed = 0, uses_anonymous_args = 0
 413              		@ link register save eliminated.
 414              		.loc 1 806 0
 415 0000 014B     		ldr	r3, .L53
 416 0002 1888     		ldrh	r0, [r3]
 417              		.loc 1 807 0
 418 0004 80B2     		uxth	r0, r0
 419 0006 7047     		bx	lr
 420              	.L54:
 421              		.align	2
 422              	.L53:
 423 0008 163C0240 		.word	1073888278
 424              		.cfi_endproc
 425              	.LFE133:
 426              		.size	FLASH_OB_GetWRP, .-FLASH_OB_GetWRP
 427 000c AFF30080 		.section	.text.FLASH_OB_GetRDP,"ax",%progbits
 428              		.align	2
 429              		.p2align 4,,15
 430              		.global	FLASH_OB_GetRDP
 431              		.thumb
 432              		.thumb_func
 433              		.type	FLASH_OB_GetRDP, %function
 434              	FLASH_OB_GetRDP:
 435              	.LFB134:
 436              		.loc 1 817 0
 437              		.cfi_startproc
 438              		@ args = 0, pretend = 0, frame = 0
 439              		@ frame_needed = 0, uses_anonymous_args = 0
 440              		@ link register save eliminated.
 441              	.LVL7:
 442              		.loc 1 820 0
 443 0000 024B     		ldr	r3, .L56
 444 0002 1878     		ldrb	r0, [r3]	@ zero_extendqisi2
 445              	.LVL8:
 446              		.loc 1 829 0
 447 0004 AA38     		subs	r0, r0, #170
 448              	.LVL9:
 449 0006 18BF     		it	ne
 450 0008 0120     		movne	r0, #1
 451              	.LVL10:
 452 000a 7047     		bx	lr
 453              	.L57:
 454              		.align	2
 455              	.L56:
ARM GAS  /tmp/ccSjQRSH.s 			page 9


 456 000c 153C0240 		.word	1073888277
 457              		.cfi_endproc
 458              	.LFE134:
 459              		.size	FLASH_OB_GetRDP, .-FLASH_OB_GetRDP
 460              		.section	.text.FLASH_OB_GetBOR,"ax",%progbits
 461              		.align	2
 462              		.p2align 4,,15
 463              		.global	FLASH_OB_GetBOR
 464              		.thumb
 465              		.thumb_func
 466              		.type	FLASH_OB_GetBOR, %function
 467              	FLASH_OB_GetBOR:
 468              	.LFB135:
 469              		.loc 1 841 0
 470              		.cfi_startproc
 471              		@ args = 0, pretend = 0, frame = 0
 472              		@ frame_needed = 0, uses_anonymous_args = 0
 473              		@ link register save eliminated.
 474              		.loc 1 843 0
 475 0000 024B     		ldr	r3, .L59
 476 0002 1878     		ldrb	r0, [r3]	@ zero_extendqisi2
 477              		.loc 1 844 0
 478 0004 00F00C00 		and	r0, r0, #12
 479 0008 7047     		bx	lr
 480              	.L60:
 481 000a 00BF     		.align	2
 482              	.L59:
 483 000c 143C0240 		.word	1073888276
 484              		.cfi_endproc
 485              	.LFE135:
 486              		.size	FLASH_OB_GetBOR, .-FLASH_OB_GetBOR
 487              		.section	.text.FLASH_ITConfig,"ax",%progbits
 488              		.align	2
 489              		.p2align 4,,15
 490              		.global	FLASH_ITConfig
 491              		.thumb
 492              		.thumb_func
 493              		.type	FLASH_ITConfig, %function
 494              	FLASH_ITConfig:
 495              	.LFB136:
 496              		.loc 1 871 0
 497              		.cfi_startproc
 498              		@ args = 0, pretend = 0, frame = 0
 499              		@ frame_needed = 0, uses_anonymous_args = 0
 500              		@ link register save eliminated.
 501              	.LVL11:
 502              		.loc 1 876 0
 503 0000 044B     		ldr	r3, .L65
 504 0002 1A69     		ldr	r2, [r3, #16]
 505              		.loc 1 873 0
 506 0004 19B9     		cbnz	r1, .L64
 507              		.loc 1 881 0
 508 0006 22EA0000 		bic	r0, r2, r0
 509              	.LVL12:
 510 000a 1861     		str	r0, [r3, #16]
 511 000c 7047     		bx	lr
 512              	.LVL13:
ARM GAS  /tmp/ccSjQRSH.s 			page 10


 513              	.L64:
 514              		.loc 1 876 0
 515 000e 1043     		orrs	r0, r0, r2
 516              	.LVL14:
 517 0010 1861     		str	r0, [r3, #16]
 518 0012 7047     		bx	lr
 519              	.L66:
 520              		.align	2
 521              	.L65:
 522 0014 003C0240 		.word	1073888256
 523              		.cfi_endproc
 524              	.LFE136:
 525              		.size	FLASH_ITConfig, .-FLASH_ITConfig
 526 0018 AFF30080 		.section	.text.FLASH_GetFlagStatus,"ax",%progbits
 526      AFF30080 
 527              		.align	2
 528              		.p2align 4,,15
 529              		.global	FLASH_GetFlagStatus
 530              		.thumb
 531              		.thumb_func
 532              		.type	FLASH_GetFlagStatus, %function
 533              	FLASH_GetFlagStatus:
 534              	.LFB137:
 535              		.loc 1 899 0
 536              		.cfi_startproc
 537              		@ args = 0, pretend = 0, frame = 0
 538              		@ frame_needed = 0, uses_anonymous_args = 0
 539              		@ link register save eliminated.
 540              	.LVL15:
 541              		.loc 1 902 0
 542 0000 034B     		ldr	r3, .L68
 543 0002 DB68     		ldr	r3, [r3, #12]
 544              	.LVL16:
 545 0004 1842     		tst	r0, r3
 546              		.loc 1 912 0
 547 0006 0CBF     		ite	eq
 548 0008 0020     		moveq	r0, #0
 549 000a 0120     		movne	r0, #1
 550              	.LVL17:
 551 000c 7047     		bx	lr
 552              	.L69:
 553 000e 00BF     		.align	2
 554              	.L68:
 555 0010 003C0240 		.word	1073888256
 556              		.cfi_endproc
 557              	.LFE137:
 558              		.size	FLASH_GetFlagStatus, .-FLASH_GetFlagStatus
 559 0014 AFF30080 		.section	.text.FLASH_ClearFlag,"ax",%progbits
 559      AFF30080 
 559      AFF30080 
 560              		.align	2
 561              		.p2align 4,,15
 562              		.global	FLASH_ClearFlag
 563              		.thumb
 564              		.thumb_func
 565              		.type	FLASH_ClearFlag, %function
 566              	FLASH_ClearFlag:
ARM GAS  /tmp/ccSjQRSH.s 			page 11


 567              	.LFB138:
 568              		.loc 1 927 0
 569              		.cfi_startproc
 570              		@ args = 0, pretend = 0, frame = 0
 571              		@ frame_needed = 0, uses_anonymous_args = 0
 572              		@ link register save eliminated.
 573              	.LVL18:
 574              		.loc 1 930 0
 575 0000 014B     		ldr	r3, .L71
 576 0002 D860     		str	r0, [r3, #12]
 577 0004 7047     		bx	lr
 578              	.L72:
 579 0006 00BF     		.align	2
 580              	.L71:
 581 0008 003C0240 		.word	1073888256
 582              		.cfi_endproc
 583              	.LFE138:
 584              		.size	FLASH_ClearFlag, .-FLASH_ClearFlag
 585 000c AFF30080 		.section	.text.FLASH_GetStatus,"ax",%progbits
 586              		.align	2
 587              		.p2align 4,,15
 588              		.global	FLASH_GetStatus
 589              		.thumb
 590              		.thumb_func
 591              		.type	FLASH_GetStatus, %function
 592              	FLASH_GetStatus:
 593              	.LFB139:
 594              		.loc 1 940 0
 595              		.cfi_startproc
 596              		@ args = 0, pretend = 0, frame = 0
 597              		@ frame_needed = 0, uses_anonymous_args = 0
 598              		@ link register save eliminated.
 599              	.LVL19:
 600              		.loc 1 943 0
 601 0000 0B4B     		ldr	r3, .L82
 602 0002 DA68     		ldr	r2, [r3, #12]
 603 0004 D103     		lsls	r1, r2, #15
 604 0006 0AD4     		bmi	.L76
 605              		.loc 1 949 0
 606 0008 DA68     		ldr	r2, [r3, #12]
 607 000a D206     		lsls	r2, r2, #27
 608 000c 01D5     		bpl	.L80
 609              		.loc 1 951 0
 610 000e 0520     		movs	r0, #5
 611 0010 7047     		bx	lr
 612              	.L80:
 613              		.loc 1 955 0
 614 0012 DA68     		ldr	r2, [r3, #12]
 615 0014 12F0EF0F 		tst	r2, #239
 616 0018 03D0     		beq	.L81
 617              		.loc 1 957 0
 618 001a 0620     		movs	r0, #6
 619              	.LVL20:
 620              		.loc 1 974 0
 621 001c 7047     		bx	lr
 622              	.LVL21:
 623              	.L76:
ARM GAS  /tmp/ccSjQRSH.s 			page 12


 624              		.loc 1 945 0
 625 001e 0120     		movs	r0, #1
 626 0020 7047     		bx	lr
 627              	.L81:
 628              	.LBB4:
 629              	.LBB5:
 630              		.loc 1 961 0
 631 0022 DB68     		ldr	r3, [r3, #12]
 632 0024 13F0020F 		tst	r3, #2
 633              		.loc 1 963 0
 634 0028 0CBF     		ite	eq
 635 002a 0820     		moveq	r0, #8
 636 002c 0720     		movne	r0, #7
 637 002e 7047     		bx	lr
 638              	.L83:
 639              		.align	2
 640              	.L82:
 641 0030 003C0240 		.word	1073888256
 642              	.LBE5:
 643              	.LBE4:
 644              		.cfi_endproc
 645              	.LFE139:
 646              		.size	FLASH_GetStatus, .-FLASH_GetStatus
 647 0034 AFF30080 		.section	.text.FLASH_WaitForLastOperation,"ax",%progbits
 647      AFF30080 
 647      AFF30080 
 648              		.align	2
 649              		.p2align 4,,15
 650              		.global	FLASH_WaitForLastOperation
 651              		.thumb
 652              		.thumb_func
 653              		.type	FLASH_WaitForLastOperation, %function
 654              	FLASH_WaitForLastOperation:
 655              	.LFB140:
 656              		.loc 1 983 0
 657              		.cfi_startproc
 658              		@ args = 0, pretend = 0, frame = 8
 659              		@ frame_needed = 0, uses_anonymous_args = 0
 660 0000 00B5     		push	{lr}
 661              		.cfi_def_cfa_offset 4
 662              		.cfi_offset 14, -4
 663 0002 83B0     		sub	sp, sp, #12
 664              		.cfi_def_cfa_offset 16
 665              		.loc 1 984 0
 666 0004 0823     		movs	r3, #8
 667 0006 8DF80730 		strb	r3, [sp, #7]
 668              	.L91:
 669              		.loc 1 987 0
 670 000a FFF7FEFF 		bl	FLASH_GetStatus
 671              	.LVL22:
 672 000e 8DF80700 		strb	r0, [sp, #7]
 673              		.loc 1 992 0
 674 0012 9DF80730 		ldrb	r3, [sp, #7]	@ zero_extendqisi2
 675 0016 012B     		cmp	r3, #1
 676 0018 F7D0     		beq	.L91
 677              		.loc 1 997 0
 678 001a 9DF80700 		ldrb	r0, [sp, #7]	@ zero_extendqisi2
ARM GAS  /tmp/ccSjQRSH.s 			page 13


 679 001e C0B2     		uxtb	r0, r0
 680              		.loc 1 998 0
 681 0020 03B0     		add	sp, sp, #12
 682              		@ sp needed
 683 0022 5DF804FB 		ldr	pc, [sp], #4
 684              		.cfi_endproc
 685              	.LFE140:
 686              		.size	FLASH_WaitForLastOperation, .-FLASH_WaitForLastOperation
 687 0026 00BFAFF3 		.section	.text.FLASH_EraseSector,"ax",%progbits
 687      0080AFF3 
 687      0080
 688              		.align	2
 689              		.p2align 4,,15
 690              		.global	FLASH_EraseSector
 691              		.thumb
 692              		.thumb_func
 693              		.type	FLASH_EraseSector, %function
 694              	FLASH_EraseSector:
 695              	.LFB119:
 696              		.loc 1 334 0
 697              		.cfi_startproc
 698              		@ args = 0, pretend = 0, frame = 0
 699              		@ frame_needed = 0, uses_anonymous_args = 0
 700              	.LVL23:
 701 0000 70B5     		push	{r4, r5, r6, lr}
 702              		.cfi_def_cfa_offset 16
 703              		.cfi_offset 4, -16
 704              		.cfi_offset 5, -12
 705              		.cfi_offset 6, -8
 706              		.cfi_offset 14, -4
 707              		.loc 1 334 0
 708 0002 0546     		mov	r5, r0
 709              		.loc 1 339 0
 710 0004 59B3     		cbz	r1, .L95
 711              		.loc 1 343 0
 712 0006 0129     		cmp	r1, #1
 713 0008 2FD0     		beq	.L96
 714              		.loc 1 347 0
 715 000a 0229     		cmp	r1, #2
 716              		.loc 1 349 0
 717 000c 14BF     		ite	ne
 718 000e 4FF44076 		movne	r6, #768
 719 0012 4FF40076 		moveq	r6, #512
 720              	.LVL24:
 721              		.loc 1 356 0
 722 0016 FFF7FEFF 		bl	FLASH_WaitForLastOperation
 723              	.LVL25:
 724              		.loc 1 358 0
 725 001a 0828     		cmp	r0, #8
 726 001c 24D1     		bne	.L94
 727              	.LVL26:
 728              	.L98:
 729              		.loc 1 361 0
 730 001e 144C     		ldr	r4, .L99
 731 0020 2369     		ldr	r3, [r4, #16]
 732 0022 23F44073 		bic	r3, r3, #768
 733 0026 2361     		str	r3, [r4, #16]
ARM GAS  /tmp/ccSjQRSH.s 			page 14


 734              		.loc 1 362 0
 735 0028 2169     		ldr	r1, [r4, #16]
 736 002a 0E43     		orrs	r6, r6, r1
 737              	.LVL27:
 738 002c 2661     		str	r6, [r4, #16]
 739              		.loc 1 363 0
 740 002e 2369     		ldr	r3, [r4, #16]
 741 0030 23F0F803 		bic	r3, r3, #248
 742 0034 2361     		str	r3, [r4, #16]
 743              		.loc 1 364 0
 744 0036 2369     		ldr	r3, [r4, #16]
 745 0038 43F00203 		orr	r3, r3, #2
 746 003c 1D43     		orrs	r5, r5, r3
 747              	.LVL28:
 748 003e 2561     		str	r5, [r4, #16]
 749              		.loc 1 365 0
 750 0040 2369     		ldr	r3, [r4, #16]
 751 0042 43F48033 		orr	r3, r3, #65536
 752 0046 2361     		str	r3, [r4, #16]
 753              		.loc 1 368 0
 754 0048 FFF7FEFF 		bl	FLASH_WaitForLastOperation
 755              	.LVL29:
 756              		.loc 1 371 0
 757 004c 2369     		ldr	r3, [r4, #16]
 758 004e 23F00203 		bic	r3, r3, #2
 759 0052 2361     		str	r3, [r4, #16]
 760              		.loc 1 372 0
 761 0054 2369     		ldr	r3, [r4, #16]
 762 0056 23F0F803 		bic	r3, r3, #248
 763 005a 2361     		str	r3, [r4, #16]
 764              		.loc 1 376 0
 765 005c 70BD     		pop	{r4, r5, r6, pc}
 766              	.LVL30:
 767              	.L95:
 768              		.loc 1 341 0
 769 005e 0E46     		mov	r6, r1
 770              	.L93:
 771              	.LVL31:
 772              		.loc 1 356 0
 773 0060 FFF7FEFF 		bl	FLASH_WaitForLastOperation
 774              	.LVL32:
 775              		.loc 1 358 0
 776 0064 0828     		cmp	r0, #8
 777 0066 DAD0     		beq	.L98
 778              	.LVL33:
 779              	.L94:
 780              		.loc 1 376 0
 781 0068 70BD     		pop	{r4, r5, r6, pc}
 782              	.LVL34:
 783              	.L96:
 784              		.loc 1 345 0
 785 006a 4FF48076 		mov	r6, #256
 786 006e F7E7     		b	.L93
 787              	.L100:
 788              		.align	2
 789              	.L99:
 790 0070 003C0240 		.word	1073888256
ARM GAS  /tmp/ccSjQRSH.s 			page 15


 791              		.cfi_endproc
 792              	.LFE119:
 793              		.size	FLASH_EraseSector, .-FLASH_EraseSector
 794 0074 AFF30080 		.section	.text.FLASH_EraseAllSectors,"ax",%progbits
 794      AFF30080 
 794      AFF30080 
 795              		.align	2
 796              		.p2align 4,,15
 797              		.global	FLASH_EraseAllSectors
 798              		.thumb
 799              		.thumb_func
 800              		.type	FLASH_EraseAllSectors, %function
 801              	FLASH_EraseAllSectors:
 802              	.LFB120:
 803              		.loc 1 396 0
 804              		.cfi_startproc
 805              		@ args = 0, pretend = 0, frame = 0
 806              		@ frame_needed = 0, uses_anonymous_args = 0
 807              	.LVL35:
 808 0000 10B5     		push	{r4, lr}
 809              		.cfi_def_cfa_offset 8
 810              		.cfi_offset 4, -8
 811              		.cfi_offset 14, -4
 812              		.loc 1 401 0
 813 0002 38B1     		cbz	r0, .L102
 814              		.loc 1 405 0
 815 0004 0128     		cmp	r0, #1
 816 0006 1CD0     		beq	.L104
 817              		.loc 1 409 0
 818 0008 0228     		cmp	r0, #2
 819              		.loc 1 411 0
 820 000a 14BF     		ite	ne
 821 000c 4FF44070 		movne	r0, #768
 822 0010 4FF40070 		moveq	r0, #512
 823              	.LVL36:
 824              	.L102:
 825              		.loc 1 420 0
 826 0014 0C4C     		ldr	r4, .L106
 827 0016 2369     		ldr	r3, [r4, #16]
 828 0018 23F44073 		bic	r3, r3, #768
 829 001c 2361     		str	r3, [r4, #16]
 830              		.loc 1 421 0
 831 001e 2369     		ldr	r3, [r4, #16]
 832 0020 1843     		orrs	r0, r0, r3
 833              	.LVL37:
 834 0022 2061     		str	r0, [r4, #16]
 835              		.loc 1 422 0
 836 0024 2369     		ldr	r3, [r4, #16]
 837 0026 43F00403 		orr	r3, r3, #4
 838 002a 2361     		str	r3, [r4, #16]
 839              		.loc 1 423 0
 840 002c 2369     		ldr	r3, [r4, #16]
 841 002e 43F48033 		orr	r3, r3, #65536
 842 0032 2361     		str	r3, [r4, #16]
 843              		.loc 1 426 0
 844 0034 FFF7FEFF 		bl	FLASH_WaitForLastOperation
 845              	.LVL38:
ARM GAS  /tmp/ccSjQRSH.s 			page 16


 846              		.loc 1 429 0
 847 0038 2369     		ldr	r3, [r4, #16]
 848 003a 23F00403 		bic	r3, r3, #4
 849 003e 2361     		str	r3, [r4, #16]
 850              		.loc 1 434 0
 851 0040 10BD     		pop	{r4, pc}
 852              	.LVL39:
 853              	.L104:
 854              		.loc 1 407 0
 855 0042 4FF48070 		mov	r0, #256
 856              	.LVL40:
 857 0046 E5E7     		b	.L102
 858              	.L107:
 859              		.align	2
 860              	.L106:
 861 0048 003C0240 		.word	1073888256
 862              		.cfi_endproc
 863              	.LFE120:
 864              		.size	FLASH_EraseAllSectors, .-FLASH_EraseAllSectors
 865 004c AFF30080 		.section	.text.FLASH_ProgramDoubleWord,"ax",%progbits
 866              		.align	2
 867              		.p2align 4,,15
 868              		.global	FLASH_ProgramDoubleWord
 869              		.thumb
 870              		.thumb_func
 871              		.type	FLASH_ProgramDoubleWord, %function
 872              	FLASH_ProgramDoubleWord:
 873              	.LFB121:
 874              		.loc 1 446 0
 875              		.cfi_startproc
 876              		@ args = 0, pretend = 0, frame = 0
 877              		@ frame_needed = 0, uses_anonymous_args = 0
 878              	.LVL41:
 879 0000 F8B5     		push	{r3, r4, r5, r6, r7, lr}
 880              		.cfi_def_cfa_offset 24
 881              		.cfi_offset 3, -24
 882              		.cfi_offset 4, -20
 883              		.cfi_offset 5, -16
 884              		.cfi_offset 6, -12
 885              		.cfi_offset 7, -8
 886              		.cfi_offset 14, -4
 887              		.loc 1 446 0
 888 0002 0746     		mov	r7, r0
 889 0004 1446     		mov	r4, r2
 890 0006 1D46     		mov	r5, r3
 891              		.loc 1 451 0
 892 0008 FFF7FEFF 		bl	FLASH_WaitForLastOperation
 893              	.LVL42:
 894              		.loc 1 453 0
 895 000c 0828     		cmp	r0, #8
 896 000e 00D0     		beq	.L110
 897              		.loc 1 470 0
 898 0010 F8BD     		pop	{r3, r4, r5, r6, r7, pc}
 899              	.LVL43:
 900              	.L110:
 901              		.loc 1 456 0
 902 0012 0B4E     		ldr	r6, .L111
ARM GAS  /tmp/ccSjQRSH.s 			page 17


 903 0014 3369     		ldr	r3, [r6, #16]
 904 0016 23F44073 		bic	r3, r3, #768
 905 001a 3361     		str	r3, [r6, #16]
 906              		.loc 1 457 0
 907 001c 3369     		ldr	r3, [r6, #16]
 908 001e 43F44073 		orr	r3, r3, #768
 909 0022 3361     		str	r3, [r6, #16]
 910              		.loc 1 458 0
 911 0024 3369     		ldr	r3, [r6, #16]
 912 0026 43F00103 		orr	r3, r3, #1
 913 002a 3361     		str	r3, [r6, #16]
 914              		.loc 1 460 0
 915 002c C7E90045 		strd	r4, [r7]
 916              		.loc 1 463 0
 917 0030 FFF7FEFF 		bl	FLASH_WaitForLastOperation
 918              	.LVL44:
 919              		.loc 1 466 0
 920 0034 3369     		ldr	r3, [r6, #16]
 921 0036 23F00103 		bic	r3, r3, #1
 922 003a 3361     		str	r3, [r6, #16]
 923              		.loc 1 470 0
 924 003c F8BD     		pop	{r3, r4, r5, r6, r7, pc}
 925              	.LVL45:
 926              	.L112:
 927 003e 00BF     		.align	2
 928              	.L111:
 929 0040 003C0240 		.word	1073888256
 930              		.cfi_endproc
 931              	.LFE121:
 932              		.size	FLASH_ProgramDoubleWord, .-FLASH_ProgramDoubleWord
 933 0044 AFF30080 		.section	.text.FLASH_ProgramWord,"ax",%progbits
 933      AFF30080 
 933      AFF30080 
 934              		.align	2
 935              		.p2align 4,,15
 936              		.global	FLASH_ProgramWord
 937              		.thumb
 938              		.thumb_func
 939              		.type	FLASH_ProgramWord, %function
 940              	FLASH_ProgramWord:
 941              	.LFB122:
 942              		.loc 1 482 0
 943              		.cfi_startproc
 944              		@ args = 0, pretend = 0, frame = 0
 945              		@ frame_needed = 0, uses_anonymous_args = 0
 946              	.LVL46:
 947 0000 70B5     		push	{r4, r5, r6, lr}
 948              		.cfi_def_cfa_offset 16
 949              		.cfi_offset 4, -16
 950              		.cfi_offset 5, -12
 951              		.cfi_offset 6, -8
 952              		.cfi_offset 14, -4
 953              		.loc 1 482 0
 954 0002 0546     		mov	r5, r0
 955 0004 0E46     		mov	r6, r1
 956              		.loc 1 487 0
 957 0006 FFF7FEFF 		bl	FLASH_WaitForLastOperation
ARM GAS  /tmp/ccSjQRSH.s 			page 18


 958              	.LVL47:
 959              		.loc 1 489 0
 960 000a 0828     		cmp	r0, #8
 961 000c 00D0     		beq	.L115
 962              		.loc 1 506 0
 963 000e 70BD     		pop	{r4, r5, r6, pc}
 964              	.LVL48:
 965              	.L115:
 966              		.loc 1 492 0
 967 0010 0A4C     		ldr	r4, .L116
 968 0012 2369     		ldr	r3, [r4, #16]
 969 0014 23F44073 		bic	r3, r3, #768
 970 0018 2361     		str	r3, [r4, #16]
 971              		.loc 1 493 0
 972 001a 2369     		ldr	r3, [r4, #16]
 973 001c 43F40073 		orr	r3, r3, #512
 974 0020 2361     		str	r3, [r4, #16]
 975              		.loc 1 494 0
 976 0022 2369     		ldr	r3, [r4, #16]
 977 0024 43F00103 		orr	r3, r3, #1
 978 0028 2361     		str	r3, [r4, #16]
 979              		.loc 1 496 0
 980 002a 2E60     		str	r6, [r5]
 981              		.loc 1 499 0
 982 002c FFF7FEFF 		bl	FLASH_WaitForLastOperation
 983              	.LVL49:
 984              		.loc 1 502 0
 985 0030 2369     		ldr	r3, [r4, #16]
 986 0032 23F00103 		bic	r3, r3, #1
 987 0036 2361     		str	r3, [r4, #16]
 988              		.loc 1 506 0
 989 0038 70BD     		pop	{r4, r5, r6, pc}
 990              	.LVL50:
 991              	.L117:
 992 003a 00BF     		.align	2
 993              	.L116:
 994 003c 003C0240 		.word	1073888256
 995              		.cfi_endproc
 996              	.LFE122:
 997              		.size	FLASH_ProgramWord, .-FLASH_ProgramWord
 998              		.section	.text.FLASH_ProgramHalfWord,"ax",%progbits
 999              		.align	2
 1000              		.p2align 4,,15
 1001              		.global	FLASH_ProgramHalfWord
 1002              		.thumb
 1003              		.thumb_func
 1004              		.type	FLASH_ProgramHalfWord, %function
 1005              	FLASH_ProgramHalfWord:
 1006              	.LFB123:
 1007              		.loc 1 518 0
 1008              		.cfi_startproc
 1009              		@ args = 0, pretend = 0, frame = 0
 1010              		@ frame_needed = 0, uses_anonymous_args = 0
 1011              	.LVL51:
 1012 0000 70B5     		push	{r4, r5, r6, lr}
 1013              		.cfi_def_cfa_offset 16
 1014              		.cfi_offset 4, -16
ARM GAS  /tmp/ccSjQRSH.s 			page 19


 1015              		.cfi_offset 5, -12
 1016              		.cfi_offset 6, -8
 1017              		.cfi_offset 14, -4
 1018              		.loc 1 518 0
 1019 0002 0546     		mov	r5, r0
 1020 0004 0E46     		mov	r6, r1
 1021              		.loc 1 523 0
 1022 0006 FFF7FEFF 		bl	FLASH_WaitForLastOperation
 1023              	.LVL52:
 1024              		.loc 1 525 0
 1025 000a 0828     		cmp	r0, #8
 1026 000c 00D0     		beq	.L120
 1027              		.loc 1 542 0
 1028 000e 70BD     		pop	{r4, r5, r6, pc}
 1029              	.LVL53:
 1030              	.L120:
 1031              		.loc 1 528 0
 1032 0010 0A4C     		ldr	r4, .L121
 1033 0012 2369     		ldr	r3, [r4, #16]
 1034 0014 23F44073 		bic	r3, r3, #768
 1035 0018 2361     		str	r3, [r4, #16]
 1036              		.loc 1 529 0
 1037 001a 2369     		ldr	r3, [r4, #16]
 1038 001c 43F48073 		orr	r3, r3, #256
 1039 0020 2361     		str	r3, [r4, #16]
 1040              		.loc 1 530 0
 1041 0022 2369     		ldr	r3, [r4, #16]
 1042 0024 43F00103 		orr	r3, r3, #1
 1043 0028 2361     		str	r3, [r4, #16]
 1044              		.loc 1 532 0
 1045 002a 2E80     		strh	r6, [r5]	@ movhi
 1046              		.loc 1 535 0
 1047 002c FFF7FEFF 		bl	FLASH_WaitForLastOperation
 1048              	.LVL54:
 1049              		.loc 1 538 0
 1050 0030 2369     		ldr	r3, [r4, #16]
 1051 0032 23F00103 		bic	r3, r3, #1
 1052 0036 2361     		str	r3, [r4, #16]
 1053              		.loc 1 542 0
 1054 0038 70BD     		pop	{r4, r5, r6, pc}
 1055              	.LVL55:
 1056              	.L122:
 1057 003a 00BF     		.align	2
 1058              	.L121:
 1059 003c 003C0240 		.word	1073888256
 1060              		.cfi_endproc
 1061              	.LFE123:
 1062              		.size	FLASH_ProgramHalfWord, .-FLASH_ProgramHalfWord
 1063              		.section	.text.FLASH_ProgramByte,"ax",%progbits
 1064              		.align	2
 1065              		.p2align 4,,15
 1066              		.global	FLASH_ProgramByte
 1067              		.thumb
 1068              		.thumb_func
 1069              		.type	FLASH_ProgramByte, %function
 1070              	FLASH_ProgramByte:
 1071              	.LFB124:
ARM GAS  /tmp/ccSjQRSH.s 			page 20


 1072              		.loc 1 554 0
 1073              		.cfi_startproc
 1074              		@ args = 0, pretend = 0, frame = 0
 1075              		@ frame_needed = 0, uses_anonymous_args = 0
 1076              	.LVL56:
 1077 0000 70B5     		push	{r4, r5, r6, lr}
 1078              		.cfi_def_cfa_offset 16
 1079              		.cfi_offset 4, -16
 1080              		.cfi_offset 5, -12
 1081              		.cfi_offset 6, -8
 1082              		.cfi_offset 14, -4
 1083              		.loc 1 554 0
 1084 0002 0546     		mov	r5, r0
 1085 0004 0E46     		mov	r6, r1
 1086              		.loc 1 559 0
 1087 0006 FFF7FEFF 		bl	FLASH_WaitForLastOperation
 1088              	.LVL57:
 1089              		.loc 1 561 0
 1090 000a 0828     		cmp	r0, #8
 1091 000c 00D0     		beq	.L125
 1092              		.loc 1 579 0
 1093 000e 70BD     		pop	{r4, r5, r6, pc}
 1094              	.LVL58:
 1095              	.L125:
 1096              		.loc 1 564 0
 1097 0010 094C     		ldr	r4, .L126
 1098 0012 2369     		ldr	r3, [r4, #16]
 1099 0014 23F44073 		bic	r3, r3, #768
 1100 0018 2361     		str	r3, [r4, #16]
 1101              		.loc 1 565 0
 1102 001a 2369     		ldr	r3, [r4, #16]
 1103 001c 2361     		str	r3, [r4, #16]
 1104              		.loc 1 566 0
 1105 001e 2369     		ldr	r3, [r4, #16]
 1106 0020 43F00103 		orr	r3, r3, #1
 1107 0024 2361     		str	r3, [r4, #16]
 1108              		.loc 1 568 0
 1109 0026 2E70     		strb	r6, [r5]
 1110              		.loc 1 571 0
 1111 0028 FFF7FEFF 		bl	FLASH_WaitForLastOperation
 1112              	.LVL59:
 1113              		.loc 1 574 0
 1114 002c 2369     		ldr	r3, [r4, #16]
 1115 002e 23F00103 		bic	r3, r3, #1
 1116 0032 2361     		str	r3, [r4, #16]
 1117              		.loc 1 579 0
 1118 0034 70BD     		pop	{r4, r5, r6, pc}
 1119              	.LVL60:
 1120              	.L127:
 1121 0036 00BF     		.align	2
 1122              	.L126:
 1123 0038 003C0240 		.word	1073888256
 1124              		.cfi_endproc
 1125              	.LFE124:
 1126              		.size	FLASH_ProgramByte, .-FLASH_ProgramByte
 1127 003c AFF30080 		.section	.text.FLASH_OB_WRPConfig,"ax",%progbits
 1128              		.align	2
ARM GAS  /tmp/ccSjQRSH.s 			page 21


 1129              		.p2align 4,,15
 1130              		.global	FLASH_OB_WRPConfig
 1131              		.thumb
 1132              		.thumb_func
 1133              		.type	FLASH_OB_WRPConfig, %function
 1134              	FLASH_OB_WRPConfig:
 1135              	.LFB127:
 1136              		.loc 1 668 0
 1137              		.cfi_startproc
 1138              		@ args = 0, pretend = 0, frame = 0
 1139              		@ frame_needed = 0, uses_anonymous_args = 0
 1140              	.LVL61:
 1141 0000 38B5     		push	{r3, r4, r5, lr}
 1142              		.cfi_def_cfa_offset 16
 1143              		.cfi_offset 3, -16
 1144              		.cfi_offset 4, -12
 1145              		.cfi_offset 5, -8
 1146              		.cfi_offset 14, -4
 1147              		.loc 1 668 0
 1148 0002 0546     		mov	r5, r0
 1149 0004 0C46     		mov	r4, r1
 1150              		.loc 1 672 0
 1151 0006 FFF7FEFF 		bl	FLASH_WaitForLastOperation
 1152              	.LVL62:
 1153              		.loc 1 674 0
 1154 000a 0828     		cmp	r0, #8
 1155 000c 00D0     		beq	.L131
 1156 000e 38BD     		pop	{r3, r4, r5, pc}
 1157              	.LVL63:
 1158              	.L131:
 1159              		.loc 1 678 0
 1160 0010 054B     		ldr	r3, .L133
 1161 0012 1A88     		ldrh	r2, [r3]
 1162              		.loc 1 676 0
 1163 0014 1CB9     		cbnz	r4, .L132
 1164              		.loc 1 682 0
 1165 0016 1543     		orrs	r5, r5, r2
 1166              	.LVL64:
 1167 0018 ADB2     		uxth	r5, r5
 1168 001a 1D80     		strh	r5, [r3]	@ movhi
 1169 001c 38BD     		pop	{r3, r4, r5, pc}
 1170              	.LVL65:
 1171              	.L132:
 1172              		.loc 1 678 0
 1173 001e 92B2     		uxth	r2, r2
 1174 0020 22EA0505 		bic	r5, r2, r5
 1175              	.LVL66:
 1176 0024 1D80     		strh	r5, [r3]	@ movhi
 1177 0026 38BD     		pop	{r3, r4, r5, pc}
 1178              	.L134:
 1179              		.align	2
 1180              	.L133:
 1181 0028 163C0240 		.word	1073888278
 1182              		.cfi_endproc
 1183              	.LFE127:
 1184              		.size	FLASH_OB_WRPConfig, .-FLASH_OB_WRPConfig
 1185 002c AFF30080 		.section	.text.FLASH_OB_RDPConfig,"ax",%progbits
ARM GAS  /tmp/ccSjQRSH.s 			page 22


 1186              		.align	2
 1187              		.p2align 4,,15
 1188              		.global	FLASH_OB_RDPConfig
 1189              		.thumb
 1190              		.thumb_func
 1191              		.type	FLASH_OB_RDPConfig, %function
 1192              	FLASH_OB_RDPConfig:
 1193              	.LFB128:
 1194              		.loc 1 700 0
 1195              		.cfi_startproc
 1196              		@ args = 0, pretend = 0, frame = 0
 1197              		@ frame_needed = 0, uses_anonymous_args = 0
 1198              	.LVL67:
 1199 0000 10B5     		push	{r4, lr}
 1200              		.cfi_def_cfa_offset 8
 1201              		.cfi_offset 4, -8
 1202              		.cfi_offset 14, -4
 1203              		.loc 1 700 0
 1204 0002 0446     		mov	r4, r0
 1205              		.loc 1 704 0
 1206 0004 FFF7FEFF 		bl	FLASH_WaitForLastOperation
 1207              	.LVL68:
 1208              		.loc 1 706 0
 1209 0008 0828     		cmp	r0, #8
 1210              		.loc 1 708 0
 1211 000a 04BF     		itt	eq
 1212 000c 014B     		ldreq	r3, .L137
 1213 000e 1C70     		strbeq	r4, [r3]
 1214 0010 10BD     		pop	{r4, pc}
 1215              	.L138:
 1216 0012 00BF     		.align	2
 1217              	.L137:
 1218 0014 153C0240 		.word	1073888277
 1219              		.cfi_endproc
 1220              	.LFE128:
 1221              		.size	FLASH_OB_RDPConfig, .-FLASH_OB_RDPConfig
 1222 0018 AFF30080 		.section	.text.FLASH_OB_UserConfig,"ax",%progbits
 1222      AFF30080 
 1223              		.align	2
 1224              		.p2align 4,,15
 1225              		.global	FLASH_OB_UserConfig
 1226              		.thumb
 1227              		.thumb_func
 1228              		.type	FLASH_OB_UserConfig, %function
 1229              	FLASH_OB_UserConfig:
 1230              	.LFB129:
 1231              		.loc 1 730 0
 1232              		.cfi_startproc
 1233              		@ args = 0, pretend = 0, frame = 0
 1234              		@ frame_needed = 0, uses_anonymous_args = 0
 1235              	.LVL69:
 1236 0000 70B5     		push	{r4, r5, r6, lr}
 1237              		.cfi_def_cfa_offset 16
 1238              		.cfi_offset 4, -16
 1239              		.cfi_offset 5, -12
 1240              		.cfi_offset 6, -8
 1241              		.cfi_offset 14, -4
ARM GAS  /tmp/ccSjQRSH.s 			page 23


 1242              		.loc 1 730 0
 1243 0002 0646     		mov	r6, r0
 1244 0004 0C46     		mov	r4, r1
 1245 0006 1546     		mov	r5, r2
 1246              		.loc 1 736 0
 1247 0008 FFF7FEFF 		bl	FLASH_WaitForLastOperation
 1248              	.LVL70:
 1249              		.loc 1 738 0
 1250 000c 0828     		cmp	r0, #8
 1251 000e 07D1     		bne	.L139
 1252              		.loc 1 741 0
 1253 0010 044B     		ldr	r3, .L141
 1254 0012 1A78     		ldrb	r2, [r3]	@ zero_extendqisi2
 1255              	.LVL71:
 1256 0014 02F00F02 		and	r2, r2, #15
 1257              	.LVL72:
 1258              		.loc 1 744 0
 1259 0018 1643     		orrs	r6, r6, r2
 1260 001a 3543     		orrs	r5, r5, r6
 1261 001c 2C43     		orrs	r4, r4, r5
 1262 001e 1C70     		strb	r4, [r3]
 1263              	.L139:
 1264 0020 70BD     		pop	{r4, r5, r6, pc}
 1265              	.L142:
 1266 0022 00BF     		.align	2
 1267              	.L141:
 1268 0024 143C0240 		.word	1073888276
 1269              		.cfi_endproc
 1270              	.LFE129:
 1271              		.size	FLASH_OB_UserConfig, .-FLASH_OB_UserConfig
 1272 0028 AFF30080 		.section	.text.FLASH_OB_Launch,"ax",%progbits
 1272      AFF30080 
 1273              		.align	2
 1274              		.p2align 4,,15
 1275              		.global	FLASH_OB_Launch
 1276              		.thumb
 1277              		.thumb_func
 1278              		.type	FLASH_OB_Launch, %function
 1279              	FLASH_OB_Launch:
 1280              	.LFB131:
 1281              		.loc 1 774 0
 1282              		.cfi_startproc
 1283              		@ args = 0, pretend = 0, frame = 0
 1284              		@ frame_needed = 0, uses_anonymous_args = 0
 1285              		@ link register save eliminated.
 1286              	.LVL73:
 1287              		.loc 1 778 0
 1288 0000 034B     		ldr	r3, .L144
 1289 0002 1A78     		ldrb	r2, [r3]	@ zero_extendqisi2
 1290 0004 42F00202 		orr	r2, r2, #2
 1291 0008 1A70     		strb	r2, [r3]
 1292              		.loc 1 781 0
 1293 000a FFF7FEBF 		b	FLASH_WaitForLastOperation
 1294              	.LVL74:
 1295              	.L145:
 1296 000e 00BF     		.align	2
 1297              	.L144:
ARM GAS  /tmp/ccSjQRSH.s 			page 24


 1298 0010 143C0240 		.word	1073888276
 1299              		.cfi_endproc
 1300              	.LFE131:
 1301              		.size	FLASH_OB_Launch, .-FLASH_OB_Launch
 1302 0014 AFF30080 		.text
 1302      AFF30080 
 1302      AFF30080 
 1303              	.Letext0:
 1304              		.file 2 "/usr/arm-none-eabi/include/stdint.h"
 1305              		.file 3 "../AithonLibrary/ChibiOS/os/hal/platforms/STM32F4xx/stm32f4xx.h"
 1306              		.file 4 "../AithonLibrary/stm_flash.h"
 1307              		.file 5 "../AithonLibrary/ChibiOS/os/ports/common/ARMCMx/CMSIS/include/core_cm4.h"