ARM GAS  /tmp/ccvaFkTF.s 			page 1


   1              		.syntax unified
   2              		.cpu cortex-m4
   3              		.eabi_attribute 27, 3
   4              		.fpu fpv4-sp-d16
   5              		.eabi_attribute 20, 1
   6              		.eabi_attribute 21, 1
   7              		.eabi_attribute 23, 3
   8              		.eabi_attribute 24, 1
   9              		.eabi_attribute 25, 1
  10              		.eabi_attribute 26, 1
  11              		.eabi_attribute 30, 2
  12              		.eabi_attribute 34, 1
  13              		.eabi_attribute 18, 4
  14              		.thumb
  15              		.file	"usb_lld.c"
  16              		.text
  17              	.Ltext0:
  18              		.cfi_sections	.debug_frame
  19              		.section	.text.otg_epout_handler,"ax",%progbits
  20              		.align	2
  21              		.p2align 4,,15
  22              		.thumb
  23              		.thumb_func
  24              		.type	otg_epout_handler, %function
  25              	otg_epout_handler:
  26              	.LFB134:
  27              		.file 1 "../AithonLibrary/ChibiOS/os/hal/platforms/STM32/OTGv1/usb_lld.c"
  28              		.loc 1 580 0
  29              		.cfi_startproc
  30              		@ args = 0, pretend = 0, frame = 0
  31              		@ frame_needed = 0, uses_anonymous_args = 0
  32              	.LVL0:
  33 0000 F8B5     		push	{r3, r4, r5, r6, r7, lr}
  34              		.cfi_def_cfa_offset 24
  35              		.cfi_offset 3, -24
  36              		.cfi_offset 4, -20
  37              		.cfi_offset 5, -16
  38              		.cfi_offset 6, -12
  39              		.cfi_offset 7, -8
  40              		.cfi_offset 14, -4
  41              		.loc 1 581 0
  42 0002 056D     		ldr	r5, [r0, #80]
  43              	.LVL1:
  44              		.loc 1 582 0
  45 0004 05EB4113 		add	r3, r5, r1, lsl #5
  46              		.loc 1 580 0
  47 0008 0646     		mov	r6, r0
  48              		.loc 1 582 0
  49 000a D3F8084B 		ldr	r4, [r3, #2824]
  50              	.LVL2:
  51              		.loc 1 585 0
  52 000e C3F8084B 		str	r4, [r3, #2824]
  53              		.loc 1 587 0
  54 0012 2207     		lsls	r2, r4, #28
  55              		.loc 1 580 0
  56 0014 0F46     		mov	r7, r1
  57              		.loc 1 587 0
ARM GAS  /tmp/ccvaFkTF.s 			page 2


  58 0016 03D5     		bpl	.L2
  59              		.loc 1 587 0 is_stmt 0 discriminator 1
  60 0018 D5F81438 		ldr	r3, [r5, #2068]
  61 001c 1B07     		lsls	r3, r3, #28
  62 001e 14D4     		bmi	.L17
  63              	.LVL3:
  64              	.L2:
  65              		.loc 1 593 0 is_stmt 1
  66 0020 E207     		lsls	r2, r4, #31
  67 0022 03D5     		bpl	.L1
  68              		.loc 1 593 0 is_stmt 0 discriminator 1
  69 0024 D5F81438 		ldr	r3, [r5, #2068]
  70 0028 DB07     		lsls	r3, r3, #31
  71 002a 00D4     		bmi	.L18
  72              	.L1:
  73 002c F8BD     		pop	{r3, r4, r5, r6, r7, pc}
  74              	.LVL4:
  75              	.L18:
  76              		.loc 1 595 0 is_stmt 1
  77 002e 06EB8703 		add	r3, r6, r7, lsl #2
  78 0032 7189     		ldrh	r1, [r6, #10]
  79 0034 DB68     		ldr	r3, [r3, #12]
  80 0036 0122     		movs	r2, #1
  81 0038 BA40     		lsls	r2, r2, r7
  82 003a 21EA0202 		bic	r2, r1, r2
  83 003e 7281     		strh	r2, [r6, #10]	@ movhi
  84 0040 DB68     		ldr	r3, [r3, #12]
  85 0042 3046     		mov	r0, r6
  86 0044 3946     		mov	r1, r7
  87 0046 9847     		blx	r3
  88              	.LVL5:
  89 0048 F8BD     		pop	{r3, r4, r5, r6, r7, pc}
  90              	.LVL6:
  91              	.L17:
  92              		.loc 1 590 0
  93 004a 00EB8103 		add	r3, r0, r1, lsl #2
  94 004e DB68     		ldr	r3, [r3, #12]
  95 0050 5B68     		ldr	r3, [r3, #4]
  96 0052 9847     		blx	r3
  97              	.LVL7:
  98 0054 E4E7     		b	.L2
  99              		.cfi_endproc
 100              	.LFE134:
 101              		.size	otg_epout_handler, .-otg_epout_handler
 102 0056 00BFAFF3 		.section	.text.otg_epin_handler,"ax",%progbits
 102      0080AFF3 
 102      0080
 103              		.align	2
 104              		.p2align 4,,15
 105              		.thumb
 106              		.thumb_func
 107              		.type	otg_epin_handler, %function
 108              	otg_epin_handler:
 109              	.LFB133:
 110              		.loc 1 548 0
 111              		.cfi_startproc
 112              		@ args = 0, pretend = 0, frame = 0
ARM GAS  /tmp/ccvaFkTF.s 			page 3


 113              		@ frame_needed = 0, uses_anonymous_args = 0
 114              	.LVL8:
 115 0000 F8B5     		push	{r3, r4, r5, r6, r7, lr}
 116              		.cfi_def_cfa_offset 24
 117              		.cfi_offset 3, -24
 118              		.cfi_offset 4, -20
 119              		.cfi_offset 5, -16
 120              		.cfi_offset 6, -12
 121              		.cfi_offset 7, -8
 122              		.cfi_offset 14, -4
 123              		.loc 1 549 0
 124 0002 056D     		ldr	r5, [r0, #80]
 125              	.LVL9:
 126              		.loc 1 550 0
 127 0004 05EB4113 		add	r3, r5, r1, lsl #5
 128              		.loc 1 548 0
 129 0008 0646     		mov	r6, r0
 130              		.loc 1 550 0
 131 000a D3F80849 		ldr	r4, [r3, #2312]
 132              	.LVL10:
 133              		.loc 1 552 0
 134 000e C3F80849 		str	r4, [r3, #2312]
 135              		.loc 1 557 0
 136 0012 E307     		lsls	r3, r4, #31
 137              		.loc 1 548 0
 138 0014 0F46     		mov	r7, r1
 139              		.loc 1 557 0
 140 0016 03D5     		bpl	.L20
 141              		.loc 1 557 0 is_stmt 0 discriminator 1
 142 0018 D5F81038 		ldr	r3, [r5, #2064]
 143 001c DA07     		lsls	r2, r3, #31
 144 001e 20D4     		bmi	.L38
 145              	.LVL11:
 146              	.L20:
 147              		.loc 1 561 0 is_stmt 1
 148 0020 2306     		lsls	r3, r4, #24
 149 0022 1DD5     		bpl	.L19
 150              		.loc 1 562 0 discriminator 1
 151 0024 0122     		movs	r2, #1
 152 0026 D5F83438 		ldr	r3, [r5, #2100]
 153 002a BA40     		lsls	r2, r2, r7
 154              		.loc 1 561 0 discriminator 1
 155 002c 1A42     		tst	r2, r3
 156 002e 17D0     		beq	.L19
 157              	.LBB60:
 158              		.loc 1 564 0
 159 0030 2023     		movs	r3, #32
 160              	@ 564 "../AithonLibrary/ChibiOS/os/hal/platforms/STM32/OTGv1/usb_lld.c" 1
 161 0032 83F31188 		msr     BASEPRI, r3
 162              	@ 0 "" 2
 163              		.thumb
 164              	.LBE60:
 165              		.loc 1 565 0
 166 0036 0121     		movs	r1, #1
 167 0038 F36D     		ldr	r3, [r6, #92]
 168              		.loc 1 566 0
 169 003a D5F83428 		ldr	r2, [r5, #2100]
ARM GAS  /tmp/ccvaFkTF.s 			page 4


 170              	.LBB61:
 171              	.LBB62:
 172              		.loc 1 122 0
 173 003e 706E     		ldr	r0, [r6, #100]
 174              	.LBE62:
 175              	.LBE61:
 176              		.loc 1 565 0
 177 0040 01FA07F7 		lsl	r7, r1, r7
 178 0044 3B43     		orrs	r3, r3, r7
 179              		.loc 1 566 0
 180 0046 22EA0707 		bic	r7, r2, r7
 181              		.loc 1 565 0
 182 004a F365     		str	r3, [r6, #92]
 183              		.loc 1 566 0
 184 004c C5F83478 		str	r7, [r5, #2100]
 185              	.LVL12:
 186              	.LBB64:
 187              	.LBB63:
 188              		.loc 1 122 0
 189 0050 18B1     		cbz	r0, .L22
 190              		.loc 1 123 0
 191 0052 FFF7FEFF 		bl	chSchReadyI
 192              	.LVL13:
 193              		.loc 1 124 0
 194 0056 0023     		movs	r3, #0
 195 0058 7366     		str	r3, [r6, #100]
 196              	.L22:
 197              	.LBE63:
 198              	.LBE64:
 199              	.LBB65:
 200              		.loc 1 568 0
 201 005a 0023     		movs	r3, #0
 202              	@ 568 "../AithonLibrary/ChibiOS/os/hal/platforms/STM32/OTGv1/usb_lld.c" 1
 203 005c 83F31188 		msr     BASEPRI, r3
 204              	@ 0 "" 2
 205              	.LVL14:
 206              		.thumb
 207              	.L19:
 208 0060 F8BD     		pop	{r3, r4, r5, r6, r7, pc}
 209              	.LVL15:
 210              	.L38:
 211              	.LBE65:
 212              		.loc 1 559 0
 213 0062 00EB8103 		add	r3, r0, r1, lsl #2
 214 0066 B0F808E0 		ldrh	lr, [r0, #8]
 215 006a DB68     		ldr	r3, [r3, #12]
 216 006c 0122     		movs	r2, #1
 217 006e 8A40     		lsls	r2, r2, r1
 218 0070 2EEA0202 		bic	r2, lr, r2
 219 0074 0281     		strh	r2, [r0, #8]	@ movhi
 220 0076 9B68     		ldr	r3, [r3, #8]
 221 0078 9847     		blx	r3
 222              	.LVL16:
 223 007a D1E7     		b	.L20
 224              		.cfi_endproc
 225              	.LFE133:
 226              		.size	otg_epin_handler, .-otg_epin_handler
ARM GAS  /tmp/ccvaFkTF.s 			page 5


 227 007c AFF30080 		.section	.text.usb_lld_pump,"ax",%progbits
 228              		.align	2
 229              		.p2align 4,,15
 230              		.thumb
 231              		.thumb_func
 232              		.type	usb_lld_pump, %function
 233              	usb_lld_pump:
 234              	.LFB136:
 235              		.loc 1 679 0
 236              		.cfi_startproc
 237              		@ args = 0, pretend = 0, frame = 16
 238              		@ frame_needed = 0, uses_anonymous_args = 0
 239              	.LVL17:
 240 0000 2DE9F04F 		push	{r4, r5, r6, r7, r8, r9, r10, fp, lr}
 241              		.cfi_def_cfa_offset 36
 242              		.cfi_offset 4, -36
 243              		.cfi_offset 5, -32
 244              		.cfi_offset 6, -28
 245              		.cfi_offset 7, -24
 246              		.cfi_offset 8, -20
 247              		.cfi_offset 9, -16
 248              		.cfi_offset 10, -12
 249              		.cfi_offset 11, -8
 250              		.cfi_offset 14, -4
 251              		.loc 1 683 0
 252 0004 AE4B     		ldr	r3, .L164
 253 0006 AF49     		ldr	r1, .L164+4
 254 0008 9A69     		ldr	r2, [r3, #24]
 255              		.loc 1 681 0
 256 000a D0F85090 		ldr	r9, [r0, #80]
 257              		.loc 1 683 0
 258 000e 9161     		str	r1, [r2, #24]
 259              		.loc 1 679 0
 260 0010 85B0     		sub	sp, sp, #20
 261              		.cfi_def_cfa_offset 56
 262              		.loc 1 679 0
 263 0012 8346     		mov	fp, r0
 264              	.LVL18:
 265              	.LBB109:
 266              		.loc 1 684 0
 267 0014 2023     		movs	r3, #32
 268              	@ 684 "../AithonLibrary/ChibiOS/os/hal/platforms/STM32/OTGv1/usb_lld.c" 1
 269 0016 83F31188 		msr     BASEPRI, r3
 270              	@ 0 "" 2
 271              		.thumb
 272              	.LBE109:
 273              	.LBB110:
 274              	.LBB111:
 275              		.loc 1 696 0
 276 001a 0026     		movs	r6, #0
 277 001c 4F46     		mov	r7, r9
 278              	.LVL19:
 279              	.L101:
 280              	.LBE111:
 281              		.loc 1 690 0
 282 001e 9BF80030 		ldrb	r3, [fp]	@ zero_extendqisi2
 283 0022 012B     		cmp	r3, #1
ARM GAS  /tmp/ccvaFkTF.s 			page 6


 284 0024 05D0     		beq	.L40
 285              		.loc 1 690 0 is_stmt 0 discriminator 1
 286 0026 DBF85C30 		ldr	r3, [fp, #92]
 287 002a 6BB9     		cbnz	r3, .L41
 288              		.loc 1 691 0 is_stmt 1
 289 002c 7B69     		ldr	r3, [r7, #20]
 290 002e DA06     		lsls	r2, r3, #27
 291 0030 0AD4     		bmi	.L41
 292              	.L40:
 293              		.loc 1 692 0
 294 0032 BA69     		ldr	r2, [r7, #24]
 295              		.loc 1 693 0
 296 0034 A24D     		ldr	r5, .L164
 297              		.loc 1 692 0
 298 0036 42F01002 		orr	r2, r2, #16
 299              		.loc 1 693 0
 300 003a AB69     		ldr	r3, [r5, #24]
 301              		.loc 1 692 0
 302 003c BA61     		str	r2, [r7, #24]
 303              		.loc 1 694 0
 304 003e 0220     		movs	r0, #2
 305              		.loc 1 693 0
 306 0040 CBF86430 		str	r3, [fp, #100]
 307              		.loc 1 694 0
 308 0044 FFF7FEFF 		bl	chSchGoSleepS
 309              	.LVL20:
 310              	.L41:
 311              	.LBB112:
 312              		.loc 1 696 0
 313 0048 0023     		movs	r3, #0
 314              	@ 696 "../AithonLibrary/ChibiOS/os/hal/platforms/STM32/OTGv1/usb_lld.c" 1
 315 004a 83F31188 		msr     BASEPRI, r3
 316              	@ 0 "" 2
 317              	.LVL21:
 318              		.thumb
 319              	.LBE112:
 320              		.loc 1 699 0
 321 004e 4FF0000A 		mov	r10, #0
 322              	.LVL22:
 323              	.L46:
 324              		.loc 1 702 0 discriminator 1
 325 0052 7B69     		ldr	r3, [r7, #20]
 326 0054 DB06     		lsls	r3, r3, #27
 327 0056 22D5     		bpl	.L157
 328              	.L68:
 329              	.LVL23:
 330              	.LBB113:
 331              	.LBB114:
 332              		.loc 1 452 0
 333 0058 DBF85000 		ldr	r0, [fp, #80]
 334 005c 056A     		ldr	r5, [r0, #32]
 335              	.LVL24:
 336              		.loc 1 453 0
 337 005e 05F4F013 		and	r3, r5, #1966080
 338 0062 B3F5802F 		cmp	r3, #262144
 339 0066 2FD0     		beq	.L44
 340 0068 B3F5402F 		cmp	r3, #786432
ARM GAS  /tmp/ccvaFkTF.s 			page 7


 341 006c F1D1     		bne	.L46
 342              	.LVL25:
 343              		.loc 1 458 0
 344 006e 05F00F03 		and	r3, r5, #15
 345              	.LVL26:
 346              		.loc 1 459 0
 347 0072 0BEB8303 		add	r3, fp, r3, lsl #2
 348              	.LVL27:
 349              		.loc 1 457 0
 350 0076 C5F30A15 		ubfx	r5, r5, #4, #11
 351              	.LVL28:
 352              		.loc 1 459 0
 353 007a DA68     		ldr	r2, [r3, #12]
 354              	.LBB115:
 355              	.LBB116:
 356              		.loc 1 370 0
 357 007c EB1C     		adds	r3, r5, #3
 358              		.loc 1 372 0
 359 007e 9B08     		lsrs	r3, r3, #2
 360              	.LBE116:
 361              	.LBE115:
 362              		.loc 1 459 0
 363 0080 146A     		ldr	r4, [r2, #32]
 364              	.LVL29:
 365              	.LBB119:
 366              	.LBB118:
 367              		.loc 1 372 0
 368 0082 E6D0     		beq	.L46
 369 0084 00F58050 		add	r0, r0, #4096
 370              	.LVL30:
 371              		.loc 1 371 0
 372 0088 0222     		movs	r2, #2
 373              	.LVL31:
 374              	.L51:
 375              	.LBB117:
 376              		.loc 1 373 0
 377 008a 0168     		ldr	r1, [r0]
 378              	.LVL32:
 379              		.loc 1 374 0
 380 008c 12B1     		cbz	r2, .L49
 381              		.loc 1 377 0
 382 008e 44F8041B 		str	r1, [r4], #4
 383              	.LVL33:
 384              		.loc 1 379 0
 385 0092 013A     		subs	r2, r2, #1
 386              	.LVL34:
 387              	.L49:
 388              	.LBE117:
 389              		.loc 1 372 0
 390 0094 013B     		subs	r3, r3, #1
 391              	.LVL35:
 392 0096 F8D1     		bne	.L51
 393              	.LBE118:
 394              	.LBE119:
 395              	.LBE114:
 396              	.LBE113:
 397              		.loc 1 702 0
ARM GAS  /tmp/ccvaFkTF.s 			page 8


 398 0098 7B69     		ldr	r3, [r7, #20]
 399              	.LVL36:
 400 009a DB06     		lsls	r3, r3, #27
 401 009c DCD4     		bmi	.L68
 402              	.LVL37:
 403              	.L157:
 404              		.loc 1 706 0
 405 009e 0122     		movs	r2, #1
 406              		.loc 1 707 0
 407 00a0 DBF85C30 		ldr	r3, [fp, #92]
 408              		.loc 1 706 0
 409 00a4 02FA0AF2 		lsl	r2, r2, r10
 410              		.loc 1 707 0
 411 00a8 1A42     		tst	r2, r3
 412              		.loc 1 706 0
 413 00aa 0192     		str	r2, [sp, #4]
 414              	.LVL38:
 415              		.loc 1 707 0
 416 00ac 78D1     		bne	.L149
 417 00ae 0AF1010A 		add	r10, r10, #1
 418              	.LVL39:
 419              	.L69:
 420              		.loc 1 699 0
 421 00b2 DBF85430 		ldr	r3, [fp, #84]
 422 00b6 9B68     		ldr	r3, [r3, #8]
 423 00b8 5FFA8AFA 		uxtb	r10, r10
 424              	.LVL40:
 425 00bc 9A45     		cmp	r10, r3
 426 00be C8D9     		bls	.L46
 427              	.LBB132:
 428              		.loc 1 731 0
 429 00c0 2023     		movs	r3, #32
 430              	@ 731 "../AithonLibrary/ChibiOS/os/hal/platforms/STM32/OTGv1/usb_lld.c" 1
 431 00c2 83F31188 		msr     BASEPRI, r3
 432              	@ 0 "" 2
 433              		.thumb
 434              	.LBE132:
 435              	.LBE110:
 436              		.loc 1 732 0
 437 00c6 AAE7     		b	.L101
 438              	.LVL41:
 439              	.L44:
 440              	.LBB166:
 441              	.LBB133:
 442              	.LBB131:
 443              		.loc 1 464 0
 444 00c8 05F00F08 		and	r8, r5, #15
 445 00cc 0BEB8808 		add	r8, fp, r8, lsl #2
 446              		.loc 1 463 0
 447 00d0 C5F30A15 		ubfx	r5, r5, #4, #11
 448              	.LVL42:
 449              		.loc 1 465 0
 450 00d4 D8F80C30 		ldr	r3, [r8, #12]
 451 00d8 9969     		ldr	r1, [r3, #24]
 452 00da 0B78     		ldrb	r3, [r1]	@ zero_extendqisi2
 453 00dc EBB9     		cbnz	r3, .L158
 454              		.loc 1 472 0
ARM GAS  /tmp/ccvaFkTF.s 			page 9


 455 00de 0A1D     		adds	r2, r1, #4
 456 00e0 92E80C40 		ldmia	r2, {r2, r3, lr}
 457              	.LVL43:
 458 00e4 0332     		adds	r2, r2, #3
 459              	.LVL44:
 460              	.LBB120:
 461              	.LBB121:
 462              		.loc 1 371 0
 463 00e6 D21A     		subs	r2, r2, r3
 464              		.loc 1 370 0
 465 00e8 EB1C     		adds	r3, r5, #3
 466              	.LVL45:
 467              		.loc 1 372 0
 468 00ea 9B08     		lsrs	r3, r3, #2
 469              		.loc 1 371 0
 470 00ec 4FEA9202 		lsr	r2, r2, #2
 471              	.LVL46:
 472              		.loc 1 372 0
 473 00f0 09D0     		beq	.L66
 474 00f2 00F58050 		add	r0, r0, #4096
 475              	.LVL47:
 476 00f6 F446     		mov	ip, lr
 477              	.LVL48:
 478              	.L67:
 479              	.LBB122:
 480              		.loc 1 373 0
 481 00f8 0468     		ldr	r4, [r0]
 482              	.LVL49:
 483              		.loc 1 374 0
 484 00fa 12B1     		cbz	r2, .L65
 485              		.loc 1 377 0
 486 00fc 4CF8044B 		str	r4, [ip], #4
 487              	.LVL50:
 488              		.loc 1 379 0
 489 0100 013A     		subs	r2, r2, #1
 490              	.LVL51:
 491              	.L65:
 492              	.LBE122:
 493              		.loc 1 372 0
 494 0102 013B     		subs	r3, r3, #1
 495              	.LVL52:
 496 0104 F8D1     		bne	.L67
 497              	.LVL53:
 498              	.L66:
 499              	.LBE121:
 500              	.LBE120:
 501              		.loc 1 477 0
 502 0106 0EEB0504 		add	r4, lr, r5
 503 010a CC60     		str	r4, [r1, #12]
 504              	.LVL54:
 505              	.L61:
 506              		.loc 1 479 0
 507 010c D8F80C30 		ldr	r3, [r8, #12]
 508 0110 9B69     		ldr	r3, [r3, #24]
 509 0112 9A68     		ldr	r2, [r3, #8]
 510 0114 1544     		add	r5, r5, r2
 511              	.LVL55:
ARM GAS  /tmp/ccvaFkTF.s 			page 10


 512 0116 9D60     		str	r5, [r3, #8]
 513 0118 9BE7     		b	.L46
 514              	.LVL56:
 515              	.L158:
 516              		.loc 1 467 0
 517 011a CC68     		ldr	r4, [r1, #12]
 518              	.LVL57:
 519              	.LBB123:
 520              	.LBB124:
 521              		.loc 1 400 0
 522 011c 45B3     		cbz	r5, .L53
 523 011e 6269     		ldr	r2, [r4, #20]
 524 0120 00F58050 		add	r0, r0, #4096
 525              	.LVL58:
 526 0124 AE46     		mov	lr, r5
 527              	.LVL59:
 528              	.L54:
 529              	.LBB125:
 530              		.loc 1 404 0
 531 0126 BEF1030F 		cmp	lr, #3
 532 012a 07D9     		bls	.L55
 533              	.LVL60:
 534              	.L159:
 535              	.LBB126:
 536              		.loc 1 410 0
 537 012c 2369     		ldr	r3, [r4, #16]
 538 012e 9A42     		cmp	r2, r3
 539 0130 04D3     		bcc	.L55
 540              		.loc 1 411 0
 541 0132 E268     		ldr	r2, [r4, #12]
 542              	.LVL61:
 543 0134 6261     		str	r2, [r4, #20]
 544              	.LVL62:
 545              	.LBE126:
 546              		.loc 1 404 0
 547 0136 BEF1030F 		cmp	lr, #3
 548 013a F7D8     		bhi	.L159
 549              	.LVL63:
 550              	.L55:
 551              		.loc 1 422 0
 552 013c D0F800C0 		ldr	ip, [r0]
 553              	.LVL64:
 554 0140 0023     		movs	r3, #0
 555              	.LVL65:
 556              	.L59:
 557              		.loc 1 425 0
 558 0142 02F10109 		add	r9, r2, #1
 559 0146 2CFA03F1 		lsr	r1, ip, r3
 560 014a C4F81490 		str	r9, [r4, #20]
 561 014e 1170     		strb	r1, [r2]
 562              		.loc 1 426 0
 563 0150 2269     		ldr	r2, [r4, #16]
 564 0152 6169     		ldr	r1, [r4, #20]
 565 0154 9142     		cmp	r1, r2
 566              		.loc 1 427 0
 567 0156 24BF     		itt	cs
 568 0158 E268     		ldrcs	r2, [r4, #12]
ARM GAS  /tmp/ccvaFkTF.s 			page 11


 569 015a 6261     		strcs	r2, [r4, #20]
 570              		.loc 1 424 0
 571 015c BEF1010E 		subs	lr, lr, #1
 572              	.LVL66:
 573 0160 06D0     		beq	.L53
 574 0162 182B     		cmp	r3, #24
 575 0164 02D0     		beq	.L160
 576 0166 0833     		adds	r3, r3, #8
 577 0168 6269     		ldr	r2, [r4, #20]
 578 016a EAE7     		b	.L59
 579              	.L160:
 580 016c 6269     		ldr	r2, [r4, #20]
 581 016e DAE7     		b	.L54
 582              	.LVL67:
 583              	.L53:
 584              	.LBE125:
 585              	.LBB127:
 586              		.loc 1 434 0
 587 0170 2023     		movs	r3, #32
 588              	@ 434 "../AithonLibrary/ChibiOS/os/hal/platforms/STM32/OTGv1/usb_lld.c" 1
 589 0172 83F31188 		msr     BASEPRI, r3
 590              	@ 0 "" 2
 591              		.thumb
 592              	.LBE127:
 593              		.loc 1 435 0
 594 0176 A368     		ldr	r3, [r4, #8]
 595              		.loc 1 436 0
 596 0178 2068     		ldr	r0, [r4]
 597              		.loc 1 435 0
 598 017a 2B44     		add	r3, r3, r5
 599              		.loc 1 436 0
 600 017c A042     		cmp	r0, r4
 601              		.loc 1 435 0
 602 017e A360     		str	r3, [r4, #8]
 603              		.loc 1 436 0
 604 0180 08D0     		beq	.L62
 605              	.L63:
 606              	.LVL68:
 607              	.LBB128:
 608              	.LBB129:
 609              		.file 2 "../AithonLibrary/ChibiOS/os/kernel/include/chinline.h"
 610              		.loc 2 62 0
 611 0182 0368     		ldr	r3, [r0]
 612 0184 2360     		str	r3, [r4]
 613 0186 5C60     		str	r4, [r3, #4]
 614              	.LBE129:
 615              	.LBE128:
 616              		.loc 1 437 0
 617 0188 FFF7FEFF 		bl	chSchReadyI
 618              	.LVL69:
 619 018c 4662     		str	r6, [r0, #36]
 620              		.loc 1 436 0
 621 018e 2068     		ldr	r0, [r4]
 622 0190 A042     		cmp	r0, r4
 623 0192 F6D1     		bne	.L63
 624              	.LVL70:
 625              	.L62:
ARM GAS  /tmp/ccvaFkTF.s 			page 12


 626              		.loc 1 438 0
 627 0194 FFF7FEFF 		bl	chSchRescheduleS
 628              	.LVL71:
 629              	.LBB130:
 630              		.loc 1 439 0
 631 0198 0023     		movs	r3, #0
 632              	@ 439 "../AithonLibrary/ChibiOS/os/hal/platforms/STM32/OTGv1/usb_lld.c" 1
 633 019a 83F31188 		msr     BASEPRI, r3
 634              	@ 0 "" 2
 635              		.thumb
 636 019e B5E7     		b	.L61
 637              	.LVL72:
 638              	.L149:
 639              	.LBE130:
 640              	.LBE124:
 641              	.LBE123:
 642              	.LBE131:
 643              	.LBE133:
 644              	.LBB134:
 645              	.LBB135:
 646              		.loc 1 710 0
 647 01a0 2023     		movs	r3, #32
 648              	@ 710 "../AithonLibrary/ChibiOS/os/hal/platforms/STM32/OTGv1/usb_lld.c" 1
 649 01a2 83F31188 		msr     BASEPRI, r3
 650              	@ 0 "" 2
 651              		.thumb
 652              	.LBE135:
 653              		.loc 1 719 0
 654 01a6 DBF85C30 		ldr	r3, [fp, #92]
 655              		.loc 1 718 0
 656 01aa B968     		ldr	r1, [r7, #8]
 657              		.loc 1 719 0
 658 01ac 019D     		ldr	r5, [sp, #4]
 659              		.loc 1 718 0
 660 01ae 21F00101 		bic	r1, r1, #1
 661              		.loc 1 719 0
 662 01b2 23EA0502 		bic	r2, r3, r5
 663              	.LVL73:
 664              		.loc 1 718 0
 665 01b6 B960     		str	r1, [r7, #8]
 666              	.LBB136:
 667              		.loc 1 720 0
 668 01b8 0023     		movs	r3, #0
 669              	.LBE136:
 670              		.loc 1 719 0
 671 01ba CBF85C20 		str	r2, [fp, #92]
 672              	.LBB137:
 673              		.loc 1 720 0
 674              	@ 720 "../AithonLibrary/ChibiOS/os/hal/platforms/STM32/OTGv1/usb_lld.c" 1
 675 01be 83F31188 		msr     BASEPRI, r3
 676              	@ 0 "" 2
 677              	.LVL74:
 678              		.thumb
 679 01c2 0BEB8A0C 		add	ip, fp, r10, lsl #2
 680              	.LBE137:
 681              	.LBB138:
 682              	.LBB139:
ARM GAS  /tmp/ccvaFkTF.s 			page 13


 683              		.loc 1 503 0
 684 01c6 DCF80C40 		ldr	r4, [ip, #12]
 685 01ca 6069     		ldr	r0, [r4, #20]
 686 01cc 8368     		ldr	r3, [r0, #8]
 687 01ce 4168     		ldr	r1, [r0, #4]
 688 01d0 8B42     		cmp	r3, r1
 689 01d2 80F0BB80 		bcs	.L161
 690              		.loc 1 513 0
 691 01d6 DBF85020 		ldr	r2, [fp, #80]
 692              		.loc 1 508 0
 693 01da 248A     		ldrh	r4, [r4, #16]
 694              		.loc 1 513 0
 695 01dc 4FEA4A15 		lsl	r5, r10, #5
 696 01e0 0095     		str	r5, [sp]
 697 01e2 1544     		add	r5, r5, r2
 698              		.loc 1 507 0
 699 01e4 C91A     		subs	r1, r1, r3
 700              	.LVL75:
 701              		.loc 1 513 0
 702 01e6 D5F81839 		ldr	r3, [r5, #2328]
 703 01ea A142     		cmp	r1, r4
 704 01ec 34BF     		ite	cc
 705 01ee 0D46     		movcc	r5, r1
 706 01f0 2546     		movcs	r5, r4
 707              	.LVL76:
 708 01f2 9BB2     		uxth	r3, r3
 709 01f4 B5EB830F 		cmp	r5, r3, lsl #2
 710 01f8 0AF1010A 		add	r10, r10, #1
 711              	.LVL77:
 712 01fc 2ED8     		bhi	.L72
 713 01fe 0397     		str	r7, [sp, #12]
 714 0200 6746     		mov	r7, ip
 715              	.L73:
 716              		.loc 1 520 0
 717 0202 0378     		ldrb	r3, [r0]	@ zero_extendqisi2
 718 0204 002B     		cmp	r3, #0
 719 0206 3CD1     		bne	.L162
 720              	.LBB140:
 721              	.LBB141:
 722              		.loc 1 269 0
 723 0208 EB1C     		adds	r3, r5, #3
 724              	.LBE141:
 725              	.LBE140:
 726              		.loc 1 528 0
 727 020a C468     		ldr	r4, [r0, #12]
 728              	.LBB148:
 729              	.LBB146:
 730              	.LBB142:
 731              	.LBB143:
 732              		.loc 1 246 0
 733 020c 9B08     		lsrs	r3, r3, #2
 734              	.LBE143:
 735              	.LBE142:
 736              	.LBE146:
 737              	.LBE148:
 738              		.loc 1 528 0
 739 020e 02EB0A3E 		add	lr, r2, r10, lsl #12
ARM GAS  /tmp/ccvaFkTF.s 			page 14


 740              	.LVL78:
 741              	.LBB149:
 742              	.LBB147:
 743              	.LBB145:
 744              	.LBB144:
 745              		.loc 1 246 0
 746 0212 18BF     		it	ne
 747 0214 2246     		movne	r2, r4
 748 0216 05D0     		beq	.L94
 749              	.LVL79:
 750              	.L95:
 751              		.loc 1 249 0
 752 0218 52F8041B 		ldr	r1, [r2], #4
 753              	.LVL80:
 754 021c CEF80010 		str	r1, [lr]
 755              	.LVL81:
 756              		.loc 1 246 0
 757 0220 013B     		subs	r3, r3, #1
 758              	.LVL82:
 759 0222 F9D1     		bne	.L95
 760              	.LVL83:
 761              	.L94:
 762              	.LBE144:
 763              	.LBE145:
 764              	.LBE147:
 765              	.LBE149:
 766              		.loc 1 531 0
 767 0224 2C44     		add	r4, r4, r5
 768              	.LVL84:
 769 0226 C460     		str	r4, [r0, #12]
 770              	.LVL85:
 771              	.L91:
 772              		.loc 1 533 0
 773 0228 FC68     		ldr	r4, [r7, #12]
 774 022a 6069     		ldr	r0, [r4, #20]
 775 022c 8368     		ldr	r3, [r0, #8]
 776              		.loc 1 503 0
 777 022e 4168     		ldr	r1, [r0, #4]
 778              		.loc 1 533 0
 779 0230 2B44     		add	r3, r3, r5
 780              		.loc 1 503 0
 781 0232 9942     		cmp	r1, r3
 782              		.loc 1 533 0
 783 0234 8360     		str	r3, [r0, #8]
 784              		.loc 1 503 0
 785 0236 40F28680 		bls	.L163
 786              		.loc 1 513 0
 787 023a DBF85020 		ldr	r2, [fp, #80]
 788 023e DDF800E0 		ldr	lr, [sp]
 789              		.loc 1 508 0
 790 0242 248A     		ldrh	r4, [r4, #16]
 791              		.loc 1 513 0
 792 0244 9644     		add	lr, lr, r2
 793              		.loc 1 507 0
 794 0246 CD1A     		subs	r5, r1, r3
 795              	.LVL86:
 796              		.loc 1 513 0
ARM GAS  /tmp/ccvaFkTF.s 			page 15


 797 0248 DEF81839 		ldr	r3, [lr, #2328]
 798 024c A542     		cmp	r5, r4
 799 024e 28BF     		it	cs
 800 0250 2546     		movcs	r5, r4
 801              	.LVL87:
 802 0252 9BB2     		uxth	r3, r3
 803 0254 B5EB830F 		cmp	r5, r3, lsl #2
 804 0258 D3D9     		bls	.L73
 805 025a 039F     		ldr	r7, [sp, #12]
 806              	.L72:
 807              		.loc 1 514 0
 808 025c 0022     		movs	r2, #0
 809              	.LVL88:
 810              	.L71:
 811              	.LBE139:
 812              	.LBE138:
 813              	.LBB163:
 814              		.loc 1 724 0
 815 025e 2023     		movs	r3, #32
 816              	@ 724 "../AithonLibrary/ChibiOS/os/hal/platforms/STM32/OTGv1/usb_lld.c" 1
 817 0260 83F31188 		msr     BASEPRI, r3
 818              	@ 0 "" 2
 819              		.thumb
 820              	.LBE163:
 821              		.loc 1 725 0
 822 0264 BB68     		ldr	r3, [r7, #8]
 823 0266 43F00103 		orr	r3, r3, #1
 824 026a BB60     		str	r3, [r7, #8]
 825              		.loc 1 726 0
 826 026c 2AB9     		cbnz	r2, .L98
 827              		.loc 1 727 0
 828 026e D7F83438 		ldr	r3, [r7, #2100]
 829 0272 0199     		ldr	r1, [sp, #4]
 830 0274 0B43     		orrs	r3, r3, r1
 831 0276 C7F83438 		str	r3, [r7, #2100]
 832              	.L98:
 833              	.LBB164:
 834              		.loc 1 728 0
 835 027a 0023     		movs	r3, #0
 836              	@ 728 "../AithonLibrary/ChibiOS/os/hal/platforms/STM32/OTGv1/usb_lld.c" 1
 837 027c 83F31188 		msr     BASEPRI, r3
 838              	@ 0 "" 2
 839              		.thumb
 840 0280 17E7     		b	.L69
 841              	.LVL89:
 842              	.L162:
 843              	.LBE164:
 844              	.LBB165:
 845              	.LBB162:
 846              		.loc 1 522 0
 847 0282 02EB0A3E 		add	lr, r2, r10, lsl #12
 848 0286 C468     		ldr	r4, [r0, #12]
 849              	.LVL90:
 850              	.LBB150:
 851              	.LBB151:
 852              		.loc 1 287 0
 853 0288 1DB3     		cbz	r5, .L86
ARM GAS  /tmp/ccvaFkTF.s 			page 16


 854 028a D4F81080 		ldr	r8, [r4, #16]
 855 028e 0295     		str	r5, [sp, #8]
 856 0290 2A46     		mov	r2, r5
 857              	.LVL91:
 858              	.L90:
 859              	.LBB152:
 860              		.loc 1 291 0
 861 0292 9108     		lsrs	r1, r2, #2
 862              	.LVL92:
 863 0294 35D1     		bne	.L78
 864 0296 A369     		ldr	r3, [r4, #24]
 865              	.LVL93:
 866              	.L79:
 867              		.loc 1 305 0
 868 0298 0021     		movs	r1, #0
 869 029a 8C46     		mov	ip, r1
 870              	.LVL94:
 871              	.L89:
 872              		.loc 1 312 0
 873 029c 581C     		adds	r0, r3, #1
 874 029e A061     		str	r0, [r4, #24]
 875 02a0 1B78     		ldrb	r3, [r3]	@ zero_extendqisi2
 876              		.loc 1 313 0
 877 02a2 8045     		cmp	r8, r0
 878              		.loc 1 312 0
 879 02a4 03FA01F3 		lsl	r3, r3, r1
 880 02a8 4CEA030C 		orr	ip, ip, r3
 881              	.LVL95:
 882              		.loc 1 314 0
 883 02ac 9CBF     		itt	ls
 884 02ae E368     		ldrls	r3, [r4, #12]
 885 02b0 A361     		strls	r3, [r4, #24]
 886              		.loc 1 311 0
 887 02b2 013A     		subs	r2, r2, #1
 888              	.LVL96:
 889 02b4 08D0     		beq	.L88
 890 02b6 1829     		cmp	r1, #24
 891 02b8 06D0     		beq	.L88
 892 02ba 0831     		adds	r1, r1, #8
 893 02bc A369     		ldr	r3, [r4, #24]
 894 02be EDE7     		b	.L89
 895              	.L165:
 896              		.align	2
 897              	.L164:
 898 02c0 00000000 		.word	rlist
 899 02c4 00000000 		.word	.LC0
 900              	.L88:
 901              		.loc 1 318 0
 902 02c8 CEF800C0 		str	ip, [lr]
 903              	.LBE152:
 904              		.loc 1 287 0
 905 02cc 002A     		cmp	r2, #0
 906 02ce E0D1     		bne	.L90
 907              	.LVL97:
 908              	.L156:
 909 02d0 029D     		ldr	r5, [sp, #8]
 910              	.LVL98:
ARM GAS  /tmp/ccvaFkTF.s 			page 17


 911              	.L86:
 912              	.LBB156:
 913              		.loc 1 322 0
 914 02d2 2023     		movs	r3, #32
 915              	@ 322 "../AithonLibrary/ChibiOS/os/hal/platforms/STM32/OTGv1/usb_lld.c" 1
 916 02d4 83F31188 		msr     BASEPRI, r3
 917              	@ 0 "" 2
 918              		.thumb
 919              	.LBE156:
 920              		.loc 1 323 0
 921 02d8 A368     		ldr	r3, [r4, #8]
 922              		.loc 1 324 0
 923 02da 2068     		ldr	r0, [r4]
 924              		.loc 1 323 0
 925 02dc 2B44     		add	r3, r3, r5
 926              		.loc 1 324 0
 927 02de A042     		cmp	r0, r4
 928              		.loc 1 323 0
 929 02e0 A360     		str	r3, [r4, #8]
 930              		.loc 1 324 0
 931 02e2 08D0     		beq	.L77
 932              	.LVL99:
 933              	.L92:
 934              	.LBB157:
 935              	.LBB158:
 936              		.loc 2 62 0
 937 02e4 0368     		ldr	r3, [r0]
 938 02e6 2360     		str	r3, [r4]
 939 02e8 5C60     		str	r4, [r3, #4]
 940              	.LBE158:
 941              	.LBE157:
 942              		.loc 1 325 0
 943 02ea FFF7FEFF 		bl	chSchReadyI
 944              	.LVL100:
 945 02ee 4662     		str	r6, [r0, #36]
 946              		.loc 1 324 0
 947 02f0 2068     		ldr	r0, [r4]
 948 02f2 A042     		cmp	r0, r4
 949 02f4 F6D1     		bne	.L92
 950              	.LVL101:
 951              	.L77:
 952              		.loc 1 326 0
 953 02f6 FFF7FEFF 		bl	chSchRescheduleS
 954              	.LVL102:
 955              	.LBB159:
 956              		.loc 1 327 0
 957 02fa 0023     		movs	r3, #0
 958              	@ 327 "../AithonLibrary/ChibiOS/os/hal/platforms/STM32/OTGv1/usb_lld.c" 1
 959 02fc 83F31188 		msr     BASEPRI, r3
 960              	@ 0 "" 2
 961              		.thumb
 962 0300 92E7     		b	.L91
 963              	.LVL103:
 964              	.L78:
 965              	.LBE159:
 966              	.LBB160:
 967              	.LBB153:
ARM GAS  /tmp/ccvaFkTF.s 			page 18


 968              		.loc 1 293 0
 969 0302 A569     		ldr	r5, [r4, #24]
 970              	.LVL104:
 971 0304 B8EB0503 		subs	r3, r8, r5
 972 0308 48BF     		it	mi
 973 030a 0333     		addmi	r3, r3, #3
 974 030c 9B10     		asrs	r3, r3, #2
 975              		.loc 1 295 0
 976 030e 9942     		cmp	r1, r3
 977 0310 38BF     		it	cc
 978 0312 0B46     		movcc	r3, r1
 979              	.LVL105:
 980 0314 4FEA8309 		lsl	r9, r3, #2
 981 0318 C9EB0202 		rsb	r2, r9, r2
 982              	.LVL106:
 983              	.LBB154:
 984              	.LBB155:
 985              		.loc 1 246 0
 986 031c 3BB1     		cbz	r3, .L81
 987 031e 2946     		mov	r1, r5
 988              	.LVL107:
 989              	.L83:
 990              		.loc 1 249 0
 991 0320 51F8040B 		ldr	r0, [r1], #4
 992              	.LVL108:
 993 0324 CEF80000 		str	r0, [lr]
 994              	.LVL109:
 995              		.loc 1 246 0
 996 0328 013B     		subs	r3, r3, #1
 997              	.LVL110:
 998 032a F9D1     		bne	.L83
 999 032c 4D44     		add	r5, r5, r9
 1000              	.LVL111:
 1001              	.L81:
 1002              	.LBE155:
 1003              	.LBE154:
 1004              		.loc 1 297 0
 1005 032e 4545     		cmp	r5, r8
 1006              		.loc 1 296 0
 1007 0330 A561     		str	r5, [r4, #24]
 1008              	.LVL112:
 1009              		.loc 1 297 0
 1010 0332 04D3     		bcc	.L84
 1011              		.loc 1 298 0
 1012 0334 E368     		ldr	r3, [r4, #12]
 1013              	.LVL113:
 1014 0336 A361     		str	r3, [r4, #24]
 1015              	.LBE153:
 1016              	.LBE160:
 1017              		.loc 1 287 0
 1018 0338 002A     		cmp	r2, #0
 1019 033a AAD1     		bne	.L90
 1020 033c C8E7     		b	.L156
 1021              	.LVL114:
 1022              	.L84:
 1023              	.LBB161:
 1024              		.loc 1 305 0
ARM GAS  /tmp/ccvaFkTF.s 			page 19


 1025 033e 002A     		cmp	r2, #0
 1026 0340 C6D0     		beq	.L156
 1027 0342 2B46     		mov	r3, r5
 1028              	.LVL115:
 1029 0344 A8E7     		b	.L79
 1030              	.LVL116:
 1031              	.L163:
 1032 0346 039F     		ldr	r7, [sp, #12]
 1033              	.LVL117:
 1034              	.L96:
 1035              	.LBE161:
 1036              	.LBE151:
 1037              	.LBE150:
 1038              		.loc 1 504 0
 1039 0348 0122     		movs	r2, #1
 1040 034a 88E7     		b	.L71
 1041              	.LVL118:
 1042              	.L161:
 1043 034c 0AF1010A 		add	r10, r10, #1
 1044              	.LVL119:
 1045 0350 FAE7     		b	.L96
 1046              	.LBE162:
 1047              	.LBE165:
 1048              	.LBE134:
 1049              	.LBE166:
 1050              		.cfi_endproc
 1051              	.LFE136:
 1052              		.size	usb_lld_pump, .-usb_lld_pump
 1053              		.section	.text.otg_disable_ep.isra.0,"ax",%progbits
 1054              		.align	2
 1055              		.p2align 4,,15
 1056              		.thumb
 1057              		.thumb_func
 1058              		.type	otg_disable_ep.isra.0, %function
 1059              	otg_disable_ep.isra.0:
 1060              	.LFB156:
 1061              		.loc 1 145 0
 1062              		.cfi_startproc
 1063              		@ args = 0, pretend = 0, frame = 0
 1064              		@ frame_needed = 0, uses_anonymous_args = 0
 1065              		@ link register save eliminated.
 1066              	.LVL120:
 1067 0000 D1F808C0 		ldr	ip, [r1, #8]
 1068              		.loc 1 149 0
 1069 0004 0021     		movs	r1, #0
 1070              	.LVL121:
 1071              		.loc 1 145 0
 1072 0006 2DE9F001 		push	{r4, r5, r6, r7, r8}
 1073              		.cfi_def_cfa_offset 20
 1074              		.cfi_offset 4, -20
 1075              		.cfi_offset 5, -16
 1076              		.cfi_offset 6, -12
 1077              		.cfi_offset 7, -8
 1078              		.cfi_offset 8, -4
 1079              		.loc 1 160 0
 1080 000a 0D46     		mov	r5, r1
 1081              		.loc 1 154 0
ARM GAS  /tmp/ccvaFkTF.s 			page 20


 1082 000c 4FF08048 		mov	r8, #1073741824
 1083              		.loc 1 162 0
 1084 0010 4FF0FF37 		mov	r7, #-1
 1085 0014 14E0     		b	.L174
 1086              	.LVL122:
 1087              	.L167:
 1088              		.loc 1 160 0
 1089 0016 C2F80059 		str	r5, [r2, #2304]
 1090              	.L168:
 1091              		.loc 1 161 0
 1092 001a 0319     		adds	r3, r0, r4
 1093 001c C3F81059 		str	r5, [r3, #2320]
 1094              		.loc 1 162 0
 1095 0020 C3F80879 		str	r7, [r3, #2312]
 1096              		.loc 1 168 0
 1097 0024 D2F8006B 		ldr	r6, [r2, #2816]
 1098 0028 002E     		cmp	r6, #0
 1099 002a 17DB     		blt	.L175
 1100              		.loc 1 175 0
 1101 002c C2F8005B 		str	r5, [r2, #2816]
 1102              	.L171:
 1103              		.loc 1 176 0
 1104 0030 0444     		add	r4, r4, r0
 1105              		.loc 1 149 0
 1106 0032 0131     		adds	r1, r1, #1
 1107              	.LVL123:
 1108 0034 6145     		cmp	r1, ip
 1109              		.loc 1 176 0
 1110 0036 C4F8105B 		str	r5, [r4, #2832]
 1111              		.loc 1 177 0
 1112 003a C4F8087B 		str	r7, [r4, #2824]
 1113              		.loc 1 149 0
 1114 003e 15D8     		bhi	.L176
 1115              	.LVL124:
 1116              	.L174:
 1117 0040 4C01     		lsls	r4, r1, #5
 1118 0042 0219     		adds	r2, r0, r4
 1119              		.loc 1 153 0
 1120 0044 D2F80039 		ldr	r3, [r2, #2304]
 1121 0048 002B     		cmp	r3, #0
 1122 004a E4DA     		bge	.L167
 1123              		.loc 1 154 0
 1124 004c C2F80089 		str	r8, [r2, #2304]
 1125              		.loc 1 156 0
 1126 0050 1646     		mov	r6, r2
 1127              	.L169:
 1128 0052 D6F80839 		ldr	r3, [r6, #2312]
 1129 0056 9B07     		lsls	r3, r3, #30
 1130 0058 FBD5     		bpl	.L169
 1131 005a DEE7     		b	.L168
 1132              	.L175:
 1133              		.loc 1 169 0
 1134 005c C2F8008B 		str	r8, [r2, #2816]
 1135              		.loc 1 171 0
 1136 0060 1A46     		mov	r2, r3
 1137              	.L172:
 1138 0062 D2F8083B 		ldr	r3, [r2, #2824]
ARM GAS  /tmp/ccvaFkTF.s 			page 21


 1139 0066 DB06     		lsls	r3, r3, #27
 1140 0068 FBD5     		bpl	.L172
 1141 006a E1E7     		b	.L171
 1142              	.L176:
 1143              		.loc 1 179 0
 1144 006c 4FF00113 		mov	r3, #65537
 1145 0070 C0F81C38 		str	r3, [r0, #2076]
 1146              		.loc 1 180 0
 1147 0074 BDE8F001 		pop	{r4, r5, r6, r7, r8}
 1148 0078 7047     		bx	lr
 1149              		.cfi_endproc
 1150              	.LFE156:
 1151              		.size	otg_disable_ep.isra.0, .-otg_disable_ep.isra.0
 1152 007a 00BFAFF3 		.section	.text.Vector14C,"ax",%progbits
 1152      0080
 1153              		.align	2
 1154              		.p2align 4,,15
 1155              		.global	Vector14C
 1156              		.thumb
 1157              		.thumb_func
 1158              		.type	Vector14C, %function
 1159              	Vector14C:
 1160              	.LFB137:
 1161              		.loc 1 746 0
 1162              		.cfi_startproc
 1163              		@ args = 0, pretend = 0, frame = 0
 1164              		@ frame_needed = 0, uses_anonymous_args = 0
 1165              	.LVL125:
 1166 0000 70B5     		push	{r4, r5, r6, lr}
 1167              		.cfi_def_cfa_offset 16
 1168              		.cfi_offset 4, -16
 1169              		.cfi_offset 5, -12
 1170              		.cfi_offset 6, -8
 1171              		.cfi_offset 14, -4
 1172              	.LBB173:
 1173              	.LBB174:
 1174              		.loc 1 607 0
 1175 0002 3F4E     		ldr	r6, .L248
 1176 0004 356D     		ldr	r5, [r6, #80]
 1177              	.LVL126:
 1178              		.loc 1 610 0
 1179 0006 6B69     		ldr	r3, [r5, #20]
 1180 0008 AC69     		ldr	r4, [r5, #24]
 1181 000a 1C40     		ands	r4, r4, r3
 1182              	.LVL127:
 1183              		.loc 1 614 0
 1184 000c E004     		lsls	r0, r4, #19
 1185              		.loc 1 611 0
 1186 000e 6C61     		str	r4, [r5, #20]
 1187              		.loc 1 614 0
 1188 0010 3FD4     		bmi	.L239
 1189              	.L179:
 1190              		.loc 1 620 0
 1191 0012 A104     		lsls	r1, r4, #18
 1192              		.loc 1 621 0
 1193 0014 48BF     		it	mi
 1194 0016 D5F80838 		ldrmi	r3, [r5, #2056]
ARM GAS  /tmp/ccvaFkTF.s 			page 22


 1195              		.loc 1 625 0
 1196 001a 2207     		lsls	r2, r4, #28
 1197 001c 04D5     		bpl	.L182
 1198              		.loc 1 626 0
 1199 001e 7368     		ldr	r3, [r6, #4]
 1200 0020 DB68     		ldr	r3, [r3, #12]
 1201 0022 0BB1     		cbz	r3, .L182
 1202 0024 3648     		ldr	r0, .L248
 1203 0026 9847     		blx	r3
 1204              	.LVL128:
 1205              	.L182:
 1206              		.loc 1 630 0
 1207 0028 E306     		lsls	r3, r4, #27
 1208 002a 10D5     		bpl	.L183
 1209              	.LBB175:
 1210              		.loc 1 633 0
 1211 002c 2023     		movs	r3, #32
 1212              	@ 633 "../AithonLibrary/ChibiOS/os/hal/platforms/STM32/OTGv1/usb_lld.c" 1
 1213 002e 83F31188 		msr     BASEPRI, r3
 1214              	@ 0 "" 2
 1215              		.thumb
 1216              	.LBE175:
 1217              		.loc 1 634 0
 1218 0032 AB69     		ldr	r3, [r5, #24]
 1219              	.LBB176:
 1220              	.LBB177:
 1221              		.loc 1 122 0
 1222 0034 706E     		ldr	r0, [r6, #100]
 1223 0036 324E     		ldr	r6, .L248
 1224              	.LBE177:
 1225              	.LBE176:
 1226              		.loc 1 634 0
 1227 0038 23F01003 		bic	r3, r3, #16
 1228 003c AB61     		str	r3, [r5, #24]
 1229              	.LVL129:
 1230              	.LBB179:
 1231              	.LBB178:
 1232              		.loc 1 122 0
 1233 003e 18B1     		cbz	r0, .L184
 1234              		.loc 1 123 0
 1235 0040 FFF7FEFF 		bl	chSchReadyI
 1236              	.LVL130:
 1237              		.loc 1 124 0
 1238 0044 0023     		movs	r3, #0
 1239 0046 7366     		str	r3, [r6, #100]
 1240              	.L184:
 1241              	.LBE178:
 1242              	.LBE179:
 1243              	.LBB180:
 1244              		.loc 1 636 0
 1245 0048 0023     		movs	r3, #0
 1246              	@ 636 "../AithonLibrary/ChibiOS/os/hal/platforms/STM32/OTGv1/usb_lld.c" 1
 1247 004a 83F31188 		msr     BASEPRI, r3
 1248              	@ 0 "" 2
 1249              		.thumb
 1250              	.L183:
 1251              	.LBE180:
ARM GAS  /tmp/ccvaFkTF.s 			page 23


 1252              		.loc 1 641 0
 1253 004e 6003     		lsls	r0, r4, #13
 1254              		.loc 1 640 0
 1255 0050 D5F81858 		ldr	r5, [r5, #2072]
 1256              	.LVL131:
 1257              		.loc 1 641 0
 1258 0054 07D5     		bpl	.L186
 1259              		.loc 1 642 0
 1260 0056 E907     		lsls	r1, r5, #31
 1261 0058 3AD4     		bmi	.L240
 1262              		.loc 1 644 0
 1263 005a AA07     		lsls	r2, r5, #30
 1264 005c 3ED4     		bmi	.L241
 1265              	.L188:
 1266              		.loc 1 646 0
 1267 005e 6B07     		lsls	r3, r5, #29
 1268 0060 42D4     		bmi	.L242
 1269              	.L189:
 1270              		.loc 1 648 0
 1271 0062 2E07     		lsls	r6, r5, #28
 1272 0064 46D4     		bmi	.L243
 1273              	.L186:
 1274              		.loc 1 657 0
 1275 0066 2403     		lsls	r4, r4, #12
 1276              	.LVL132:
 1277 0068 07D5     		bpl	.L192
 1278              		.loc 1 658 0
 1279 006a E803     		lsls	r0, r5, #15
 1280 006c 23D4     		bmi	.L244
 1281              		.loc 1 660 0
 1282 006e A903     		lsls	r1, r5, #14
 1283 0070 27D4     		bmi	.L245
 1284              	.L194:
 1285              		.loc 1 662 0
 1286 0072 6A03     		lsls	r2, r5, #13
 1287 0074 18D4     		bmi	.L246
 1288              	.L195:
 1289              		.loc 1 664 0
 1290 0076 2B03     		lsls	r3, r5, #12
 1291 0078 03D4     		bmi	.L247
 1292              	.L192:
 1293              	.LBE174:
 1294              	.LBE173:
 1295              		.loc 1 753 0
 1296 007a BDE87040 		pop	{r4, r5, r6, lr}
 1297              	.LVL133:
 1298              		.loc 1 752 0
 1299 007e FFF7FEBF 		b	_port_irq_epilogue
 1300              	.LVL134:
 1301              	.L247:
 1302              	.LBB183:
 1303              	.LBB181:
 1304              		.loc 1 665 0
 1305 0082 1F48     		ldr	r0, .L248
 1306 0084 0321     		movs	r1, #3
 1307 0086 FFF7FEFF 		bl	otg_epout_handler
 1308              	.LVL135:
ARM GAS  /tmp/ccvaFkTF.s 			page 24


 1309              	.LBE181:
 1310              	.LBE183:
 1311              		.loc 1 753 0
 1312 008a BDE87040 		pop	{r4, r5, r6, lr}
 1313              	.LVL136:
 1314              		.loc 1 752 0
 1315 008e FFF7FEBF 		b	_port_irq_epilogue
 1316              	.LVL137:
 1317              	.L239:
 1318              	.LBB184:
 1319              	.LBB182:
 1320              		.loc 1 615 0
 1321 0092 3046     		mov	r0, r6
 1322 0094 FFF7FEFF 		bl	_usb_reset
 1323              	.LVL138:
 1324              		.loc 1 616 0
 1325 0098 7368     		ldr	r3, [r6, #4]
 1326 009a 1B68     		ldr	r3, [r3]
 1327 009c 002B     		cmp	r3, #0
 1328 009e B8D0     		beq	.L179
 1329 00a0 3046     		mov	r0, r6
 1330 00a2 0021     		movs	r1, #0
 1331 00a4 9847     		blx	r3
 1332              	.LVL139:
 1333 00a6 B4E7     		b	.L179
 1334              	.LVL140:
 1335              	.L246:
 1336              		.loc 1 663 0
 1337 00a8 1548     		ldr	r0, .L248
 1338 00aa 0221     		movs	r1, #2
 1339 00ac FFF7FEFF 		bl	otg_epout_handler
 1340              	.LVL141:
 1341              		.loc 1 664 0
 1342 00b0 2B03     		lsls	r3, r5, #12
 1343 00b2 E2D5     		bpl	.L192
 1344 00b4 E5E7     		b	.L247
 1345              	.L244:
 1346              		.loc 1 659 0
 1347 00b6 0021     		movs	r1, #0
 1348 00b8 1148     		ldr	r0, .L248
 1349 00ba FFF7FEFF 		bl	otg_epout_handler
 1350              	.LVL142:
 1351              		.loc 1 660 0
 1352 00be A903     		lsls	r1, r5, #14
 1353 00c0 D7D5     		bpl	.L194
 1354              	.L245:
 1355              		.loc 1 661 0
 1356 00c2 0F48     		ldr	r0, .L248
 1357 00c4 0121     		movs	r1, #1
 1358 00c6 FFF7FEFF 		bl	otg_epout_handler
 1359              	.LVL143:
 1360              		.loc 1 662 0
 1361 00ca 6A03     		lsls	r2, r5, #13
 1362 00cc D3D5     		bpl	.L195
 1363 00ce EBE7     		b	.L246
 1364              	.LVL144:
 1365              	.L240:
ARM GAS  /tmp/ccvaFkTF.s 			page 25


 1366              		.loc 1 643 0
 1367 00d0 0B48     		ldr	r0, .L248
 1368 00d2 0021     		movs	r1, #0
 1369 00d4 FFF7FEFF 		bl	otg_epin_handler
 1370              	.LVL145:
 1371              		.loc 1 644 0
 1372 00d8 AA07     		lsls	r2, r5, #30
 1373 00da C0D5     		bpl	.L188
 1374              	.L241:
 1375              		.loc 1 645 0
 1376 00dc 0848     		ldr	r0, .L248
 1377 00de 0121     		movs	r1, #1
 1378 00e0 FFF7FEFF 		bl	otg_epin_handler
 1379              	.LVL146:
 1380              		.loc 1 646 0
 1381 00e4 6B07     		lsls	r3, r5, #29
 1382 00e6 BCD5     		bpl	.L189
 1383              	.L242:
 1384              		.loc 1 647 0
 1385 00e8 0548     		ldr	r0, .L248
 1386 00ea 0221     		movs	r1, #2
 1387 00ec FFF7FEFF 		bl	otg_epin_handler
 1388              	.LVL147:
 1389              		.loc 1 648 0
 1390 00f0 2E07     		lsls	r6, r5, #28
 1391 00f2 B8D5     		bpl	.L186
 1392              	.L243:
 1393              		.loc 1 649 0
 1394 00f4 0248     		ldr	r0, .L248
 1395 00f6 0321     		movs	r1, #3
 1396 00f8 FFF7FEFF 		bl	otg_epin_handler
 1397              	.LVL148:
 1398 00fc B3E7     		b	.L186
 1399              	.L249:
 1400 00fe 00BF     		.align	2
 1401              	.L248:
 1402 0100 00000000 		.word	.LANCHOR0
 1403              	.LBE182:
 1404              	.LBE184:
 1405              		.cfi_endproc
 1406              	.LFE137:
 1407              		.size	Vector14C, .-Vector14C
 1408 0104 AFF30080 		.section	.text.usb_lld_init,"ax",%progbits
 1408      AFF30080 
 1408      AFF30080 
 1409              		.align	2
 1410              		.p2align 4,,15
 1411              		.global	usb_lld_init
 1412              		.thumb
 1413              		.thumb_func
 1414              		.type	usb_lld_init, %function
 1415              	usb_lld_init:
 1416              	.LFB138:
 1417              		.loc 1 784 0
 1418              		.cfi_startproc
 1419              		@ args = 0, pretend = 0, frame = 0
 1420              		@ frame_needed = 0, uses_anonymous_args = 0
ARM GAS  /tmp/ccvaFkTF.s 			page 26


 1421 0000 10B5     		push	{r4, lr}
 1422              		.cfi_def_cfa_offset 8
 1423              		.cfi_offset 4, -8
 1424              		.cfi_offset 14, -4
 1425              		.loc 1 788 0
 1426 0002 064C     		ldr	r4, .L251
 1427 0004 2046     		mov	r0, r4
 1428 0006 FFF7FEFF 		bl	usbObjectInit
 1429              	.LVL149:
 1430              		.loc 1 791 0
 1431 000a 4FF0A043 		mov	r3, #1342177280
 1432              		.loc 1 792 0
 1433 000e 044A     		ldr	r2, .L251+4
 1434              		.loc 1 791 0
 1435 0010 2365     		str	r3, [r4, #80]
 1436              		.loc 1 789 0
 1437 0012 0023     		movs	r3, #0
 1438              		.loc 1 792 0
 1439 0014 6265     		str	r2, [r4, #84]
 1440              		.loc 1 789 0
 1441 0016 2366     		str	r3, [r4, #96]
 1442              		.loc 1 790 0
 1443 0018 6366     		str	r3, [r4, #100]
 1444 001a 10BD     		pop	{r4, pc}
 1445              	.L252:
 1446              		.align	2
 1447              	.L251:
 1448 001c 00000000 		.word	.LANCHOR0
 1449 0020 00000000 		.word	.LANCHOR1
 1450              		.cfi_endproc
 1451              	.LFE138:
 1452              		.size	usb_lld_init, .-usb_lld_init
 1453 0024 AFF30080 		.section	.text.usb_lld_start,"ax",%progbits
 1453      AFF30080 
 1453      AFF30080 
 1454              		.align	2
 1455              		.p2align 4,,15
 1456              		.global	usb_lld_start
 1457              		.thumb
 1458              		.thumb_func
 1459              		.type	usb_lld_start, %function
 1460              	usb_lld_start:
 1461              	.LFB139:
 1462              		.loc 1 842 0
 1463              		.cfi_startproc
 1464              		@ args = 0, pretend = 0, frame = 0
 1465              		@ frame_needed = 0, uses_anonymous_args = 0
 1466              	.LVL150:
 1467 0000 70B5     		push	{r4, r5, r6, lr}
 1468              		.cfi_def_cfa_offset 16
 1469              		.cfi_offset 4, -16
 1470              		.cfi_offset 5, -12
 1471              		.cfi_offset 6, -8
 1472              		.cfi_offset 14, -4
 1473              		.loc 1 845 0
 1474 0002 0378     		ldrb	r3, [r0]	@ zero_extendqisi2
 1475              		.loc 1 843 0
ARM GAS  /tmp/ccvaFkTF.s 			page 27


 1476 0004 066D     		ldr	r6, [r0, #80]
 1477              	.LVL151:
 1478              		.loc 1 845 0
 1479 0006 012B     		cmp	r3, #1
 1480              		.loc 1 842 0
 1481 0008 82B0     		sub	sp, sp, #8
 1482              		.cfi_def_cfa_offset 24
 1483              		.loc 1 842 0
 1484 000a 0546     		mov	r5, r0
 1485              		.loc 1 845 0
 1486 000c 01D0     		beq	.L263
 1487              		.loc 1 924 0
 1488 000e 02B0     		add	sp, sp, #8
 1489              		@ sp needed
 1490 0010 70BD     		pop	{r4, r5, r6, pc}
 1491              	.LVL152:
 1492              	.L263:
 1493              		.loc 1 848 0
 1494 0012 2E4B     		ldr	r3, .L267
 1495 0014 9842     		cmp	r0, r3
 1496 0016 49D0     		beq	.L264
 1497              	.LVL153:
 1498              	.L255:
 1499              		.loc 1 873 0
 1500 0018 2B6E     		ldr	r3, [r5, #96]
 1501              		.loc 1 872 0
 1502 001a 0022     		movs	r2, #0
 1503 001c EA65     		str	r2, [r5, #92]
 1504              		.loc 1 873 0
 1505 001e 002B     		cmp	r3, #0
 1506 0020 38D0     		beq	.L265
 1507              	.L256:
 1508              		.loc 1 883 0
 1509 0022 2B4B     		ldr	r3, .L267+4
 1510 0024 F360     		str	r3, [r6, #12]
 1511              		.loc 1 886 0
 1512 0026 2B49     		ldr	r1, .L267+8
 1513 0028 C6F80018 		str	r1, [r6, #2048]
 1514              		.loc 1 896 0
 1515 002c 4FF45023 		mov	r3, #851968
 1516              		.loc 1 889 0
 1517 0030 0022     		movs	r2, #0
 1518 0032 C6F8002E 		str	r2, [r6, #3584]
 1519              		.loc 1 896 0
 1520 0036 B363     		str	r3, [r6, #56]
 1521              		.loc 1 842 0
 1522 0038 2C6D     		ldr	r4, [r5, #80]
 1523              	.LVL154:
 1524              	.LBB187:
 1525              	.LBB188:
 1526              		.loc 1 131 0
 1527 003a 2020     		movs	r0, #32
 1528 003c FFF7FEFF 		bl	halPolledDelay
 1529              	.LVL155:
 1530              		.loc 1 134 0
 1531 0040 0123     		movs	r3, #1
 1532 0042 2361     		str	r3, [r4, #16]
ARM GAS  /tmp/ccvaFkTF.s 			page 28


 1533              	.L258:
 1534              		.loc 1 135 0
 1535 0044 2369     		ldr	r3, [r4, #16]
 1536 0046 DB07     		lsls	r3, r3, #31
 1537 0048 FCD4     		bmi	.L258
 1538              		.loc 1 138 0
 1539 004a 0C20     		movs	r0, #12
 1540 004c FFF7FEFF 		bl	halPolledDelay
 1541              	.LVL156:
 1542              	.L260:
 1543              		.loc 1 141 0
 1544 0050 2369     		ldr	r3, [r4, #16]
 1545 0052 002B     		cmp	r3, #0
 1546 0054 FCDA     		bge	.L260
 1547              	.LBE188:
 1548              	.LBE187:
 1549              		.loc 1 903 0
 1550 0056 0024     		movs	r4, #0
 1551              	.LVL157:
 1552 0058 B460     		str	r4, [r6, #8]
 1553              		.loc 1 906 0
 1554 005a 286D     		ldr	r0, [r5, #80]
 1555 005c 696D     		ldr	r1, [r5, #84]
 1556 005e FFF7FEFF 		bl	otg_disable_ep.isra.0
 1557              	.LVL158:
 1558              		.loc 1 913 0
 1559 0062 6B68     		ldr	r3, [r5, #4]
 1560              		.loc 1 910 0
 1561 0064 C6F81048 		str	r4, [r6, #2064]
 1562              		.loc 1 913 0
 1563 0068 DB68     		ldr	r3, [r3, #12]
 1564              		.loc 1 911 0
 1565 006a C6F81448 		str	r4, [r6, #2068]
 1566              		.loc 1 912 0
 1567 006e C6F81C48 		str	r4, [r6, #2076]
 1568              		.loc 1 913 0
 1569 0072 5BB1     		cbz	r3, .L266
 1570              		.loc 1 917 0
 1571 0074 43F20803 		movw	r3, #12296
 1572 0078 B361     		str	r3, [r6, #24]
 1573              	.L262:
 1574              		.loc 1 919 0
 1575 007a 4FF0FF33 		mov	r3, #-1
 1576 007e 7361     		str	r3, [r6, #20]
 1577              		.loc 1 922 0
 1578 0080 B368     		ldr	r3, [r6, #8]
 1579 0082 43F00103 		orr	r3, r3, #1
 1580 0086 B360     		str	r3, [r6, #8]
 1581              		.loc 1 924 0
 1582 0088 02B0     		add	sp, sp, #8
 1583              		@ sp needed
 1584 008a 70BD     		pop	{r4, r5, r6, pc}
 1585              	.LVL159:
 1586              	.L266:
 1587              		.loc 1 914 0
 1588 008c 4FF44053 		mov	r3, #12288
 1589 0090 B361     		str	r3, [r6, #24]
ARM GAS  /tmp/ccvaFkTF.s 			page 29


 1590 0092 F2E7     		b	.L262
 1591              	.LVL160:
 1592              	.L265:
 1593              		.loc 1 874 0
 1594 0094 0095     		str	r5, [sp]
 1595 0096 05F16800 		add	r0, r5, #104
 1596 009a 4FF4DC71 		mov	r1, #440
 1597 009e 0222     		movs	r2, #2
 1598 00a0 0D4B     		ldr	r3, .L267+12
 1599 00a2 FFF7FEFF 		bl	chThdCreateI
 1600              	.LVL161:
 1601 00a6 6866     		str	r0, [r5, #100]
 1602 00a8 2866     		str	r0, [r5, #96]
 1603 00aa BAE7     		b	.L256
 1604              	.LVL162:
 1605              	.L264:
 1606              		.loc 1 850 0
 1607 00ac 0B4B     		ldr	r3, .L267+16
 1608 00ae 5A6B     		ldr	r2, [r3, #52]
 1609 00b0 42F08002 		orr	r2, r2, #128
 1610 00b4 5A63     		str	r2, [r3, #52]
 1611              		.loc 1 851 0
 1612 00b6 5969     		ldr	r1, [r3, #20]
 1613 00b8 0022     		movs	r2, #0
 1614 00ba 41F08001 		orr	r1, r1, #128
 1615 00be 5961     		str	r1, [r3, #20]
 1616              		.loc 1 854 0
 1617 00c0 4320     		movs	r0, #67
 1618              	.LVL163:
 1619              		.loc 1 851 0
 1620 00c2 5A61     		str	r2, [r3, #20]
 1621              		.loc 1 854 0
 1622 00c4 E021     		movs	r1, #224
 1623 00c6 FFF7FEFF 		bl	nvicEnableVector
 1624              	.LVL164:
 1625 00ca A5E7     		b	.L255
 1626              	.L268:
 1627              		.align	2
 1628              	.L267:
 1629 00cc 00000000 		.word	.LANCHOR0
 1630 00d0 40140040 		.word	1073747008
 1631 00d4 03002002 		.word	35651587
 1632 00d8 00000000 		.word	usb_lld_pump
 1633 00dc 00380240 		.word	1073887232
 1634              		.cfi_endproc
 1635              	.LFE139:
 1636              		.size	usb_lld_start, .-usb_lld_start
 1637              		.section	.text.usb_lld_stop,"ax",%progbits
 1638              		.align	2
 1639              		.p2align 4,,15
 1640              		.global	usb_lld_stop
 1641              		.thumb
 1642              		.thumb_func
 1643              		.type	usb_lld_stop, %function
 1644              	usb_lld_stop:
 1645              	.LFB140:
 1646              		.loc 1 933 0
ARM GAS  /tmp/ccvaFkTF.s 			page 30


 1647              		.cfi_startproc
 1648              		@ args = 0, pretend = 0, frame = 0
 1649              		@ frame_needed = 0, uses_anonymous_args = 0
 1650              	.LVL165:
 1651 0000 38B5     		push	{r3, r4, r5, lr}
 1652              		.cfi_def_cfa_offset 16
 1653              		.cfi_offset 3, -16
 1654              		.cfi_offset 4, -12
 1655              		.cfi_offset 5, -8
 1656              		.cfi_offset 14, -4
 1657              		.loc 1 937 0
 1658 0002 0378     		ldrb	r3, [r0]	@ zero_extendqisi2
 1659              		.loc 1 934 0
 1660 0004 056D     		ldr	r5, [r0, #80]
 1661              	.LVL166:
 1662              		.loc 1 937 0
 1663 0006 012B     		cmp	r3, #1
 1664              		.loc 1 933 0
 1665 0008 0446     		mov	r4, r0
 1666              		.loc 1 937 0
 1667 000a 09D0     		beq	.L269
 1668              		.loc 1 941 0
 1669 000c 2846     		mov	r0, r5
 1670              	.LVL167:
 1671 000e 616D     		ldr	r1, [r4, #84]
 1672 0010 FFF7FEFF 		bl	otg_disable_ep.isra.0
 1673              	.LVL168:
 1674              		.loc 1 943 0
 1675 0014 0023     		movs	r3, #0
 1676 0016 E365     		str	r3, [r4, #92]
 1677              		.loc 1 945 0
 1678 0018 C5F81C38 		str	r3, [r5, #2076]
 1679              		.loc 1 946 0
 1680 001c AB60     		str	r3, [r5, #8]
 1681              		.loc 1 947 0
 1682 001e AB63     		str	r3, [r5, #56]
 1683              	.L269:
 1684 0020 38BD     		pop	{r3, r4, r5, pc}
 1685              		.cfi_endproc
 1686              	.LFE140:
 1687              		.size	usb_lld_stop, .-usb_lld_stop
 1688 0022 00BFAFF3 		.section	.text.usb_lld_reset,"ax",%progbits
 1688      0080AFF3 
 1688      0080AFF3 
 1688      0080
 1689              		.align	2
 1690              		.p2align 4,,15
 1691              		.global	usb_lld_reset
 1692              		.thumb
 1693              		.thumb_func
 1694              		.type	usb_lld_reset, %function
 1695              	usb_lld_reset:
 1696              	.LFB141:
 1697              		.loc 1 972 0
 1698              		.cfi_startproc
 1699              		@ args = 0, pretend = 0, frame = 0
 1700              		@ frame_needed = 0, uses_anonymous_args = 0
ARM GAS  /tmp/ccvaFkTF.s 			page 31


 1701              	.LVL169:
 1702 0000 F8B5     		push	{r3, r4, r5, r6, r7, lr}
 1703              		.cfi_def_cfa_offset 24
 1704              		.cfi_offset 3, -24
 1705              		.cfi_offset 4, -20
 1706              		.cfi_offset 5, -16
 1707              		.cfi_offset 6, -12
 1708              		.cfi_offset 7, -8
 1709              		.cfi_offset 14, -4
 1710              		.loc 1 974 0
 1711 0002 046D     		ldr	r4, [r0, #80]
 1712              	.LVL170:
 1713              	.LBB189:
 1714              	.LBB190:
 1715              		.loc 1 195 0
 1716 0004 2023     		movs	r3, #32
 1717              	.LBE190:
 1718              	.LBE189:
 1719              		.loc 1 972 0
 1720 0006 0746     		mov	r7, r0
 1721              	.LBB192:
 1722              	.LBB191:
 1723              		.loc 1 195 0
 1724 0008 2361     		str	r3, [r4, #16]
 1725              	.L276:
 1726              		.loc 1 196 0
 1727 000a 2269     		ldr	r2, [r4, #16]
 1728 000c 12F02005 		ands	r5, r2, #32
 1729 0010 FBD1     		bne	.L276
 1730              		.loc 1 199 0
 1731 0012 0C20     		movs	r0, #12
 1732              	.LVL171:
 1733 0014 FFF7FEFF 		bl	halPolledDelay
 1734              	.LVL172:
 1735 0018 7B6D     		ldr	r3, [r7, #84]
 1736 001a 9E68     		ldr	r6, [r3, #8]
 1737              	.LBE191:
 1738              	.LBE192:
 1739              		.loc 1 980 0
 1740 001c 2A46     		mov	r2, r5
 1741              		.loc 1 983 0
 1742 001e FF21     		movs	r1, #255
 1743              		.loc 1 981 0
 1744 0020 4FF00065 		mov	r5, #134217728
 1745              	.LVL173:
 1746              	.L278:
 1747 0024 04EB4213 		add	r3, r4, r2, lsl #5
 1748              		.loc 1 980 0 discriminator 2
 1749 0028 0132     		adds	r2, r2, #1
 1750              	.LVL174:
 1751 002a B242     		cmp	r2, r6
 1752              		.loc 1 981 0 discriminator 2
 1753 002c C3F80059 		str	r5, [r3, #2304]
 1754              		.loc 1 982 0 discriminator 2
 1755 0030 C3F8005B 		str	r5, [r3, #2816]
 1756              		.loc 1 983 0 discriminator 2
 1757 0034 C3F80819 		str	r1, [r3, #2312]
ARM GAS  /tmp/ccvaFkTF.s 			page 32


 1758              		.loc 1 984 0 discriminator 2
 1759 0038 C3F8081B 		str	r1, [r3, #2824]
 1760              		.loc 1 980 0 discriminator 2
 1761 003c F2D9     		bls	.L278
 1762              		.loc 1 988 0
 1763 003e 4FF0FF32 		mov	r2, #-1
 1764              	.LVL175:
 1765              		.loc 1 989 0
 1766 0042 4FF00113 		mov	r3, #65537
 1767              		.loc 1 988 0
 1768 0046 C4F81828 		str	r2, [r4, #2072]
 1769              		.loc 1 989 0
 1770 004a C4F81C38 		str	r3, [r4, #2076]
 1771              		.loc 1 972 0
 1772 004e 7B6D     		ldr	r3, [r7, #84]
 1773              	.LVL176:
 1774              	.LBB193:
 1775              	.LBB194:
 1776              		.loc 1 211 0
 1777 0050 1A68     		ldr	r2, [r3]
 1778 0052 BA65     		str	r2, [r7, #88]
 1779              	.LBE194:
 1780              	.LBE193:
 1781              		.loc 1 995 0
 1782 0054 1B68     		ldr	r3, [r3]
 1783 0056 6362     		str	r3, [r4, #36]
 1784              		.loc 1 972 0
 1785 0058 3A6D     		ldr	r2, [r7, #80]
 1786              	.LVL177:
 1787              	.LBB195:
 1788              	.LBB196:
 1789              		.loc 1 185 0
 1790 005a 1023     		movs	r3, #16
 1791 005c 1361     		str	r3, [r2, #16]
 1792              	.L280:
 1793              		.loc 1 186 0
 1794 005e 1369     		ldr	r3, [r2, #16]
 1795 0060 13F01005 		ands	r5, r3, #16
 1796 0064 FBD1     		bne	.L280
 1797              		.loc 1 189 0
 1798 0066 0C20     		movs	r0, #12
 1799 0068 FFF7FEFF 		bl	halPolledDelay
 1800              	.LVL178:
 1801              	.LBE196:
 1802              	.LBE195:
 1803              		.loc 1 999 0
 1804 006c D4F80038 		ldr	r3, [r4, #2048]
 1805              		.loc 1 1009 0
 1806 0070 104A     		ldr	r2, .L281
 1807              		.loc 1 1007 0
 1808 0072 1148     		ldr	r0, .L281+4
 1809              		.loc 1 999 0
 1810 0074 23F4FE63 		bic	r3, r3, #2032
 1811 0078 C4F80038 		str	r3, [r4, #2048]
 1812              		.loc 1 1002 0
 1813 007c A369     		ldr	r3, [r4, #24]
 1814 007e 43F44023 		orr	r3, r3, #786432
ARM GAS  /tmp/ccvaFkTF.s 			page 33


 1815 0082 43F01003 		orr	r3, r3, #16
 1816              		.loc 1 1003 0
 1817 0086 0921     		movs	r1, #9
 1818              		.loc 1 1002 0
 1819 0088 A361     		str	r3, [r4, #24]
 1820              		.loc 1 1003 0
 1821 008a C4F81018 		str	r1, [r4, #2064]
 1822              		.loc 1 1004 0
 1823 008e C4F81418 		str	r1, [r4, #2068]
 1824              		.loc 1 1007 0
 1825 0092 F860     		str	r0, [r7, #12]
 1826              		.loc 1 1008 0
 1827 0094 C4F8105B 		str	r5, [r4, #2832]
 1828              		.loc 1 1009 0
 1829 0098 C4F8002B 		str	r2, [r4, #2816]
 1830              		.loc 1 1011 0
 1831 009c C4F81059 		str	r5, [r4, #2320]
 1832              		.loc 1 1012 0
 1833 00a0 C4F80029 		str	r2, [r4, #2304]
 1834              	.LVL179:
 1835              	.LBB197:
 1836              	.LBB198:
 1837              		.loc 1 225 0
 1838 00a4 BB6D     		ldr	r3, [r7, #88]
 1839              	.LVL180:
 1840              		.loc 1 226 0
 1841 00a6 03F11002 		add	r2, r3, #16
 1842              	.LBE198:
 1843              	.LBE197:
 1844              		.loc 1 1014 0
 1845 00aa 43F48013 		orr	r3, r3, #1048576
 1846              	.LVL181:
 1847              	.LBB200:
 1848              	.LBB199:
 1849              		.loc 1 226 0
 1850 00ae BA65     		str	r2, [r7, #88]
 1851              	.LVL182:
 1852              	.LBE199:
 1853              	.LBE200:
 1854              		.loc 1 1014 0
 1855 00b0 A362     		str	r3, [r4, #40]
 1856 00b2 F8BD     		pop	{r3, r4, r5, r6, r7, pc}
 1857              	.LVL183:
 1858              	.L282:
 1859              		.align	2
 1860              	.L281:
 1861 00b4 40800010 		.word	268468288
 1862 00b8 00000000 		.word	.LANCHOR2
 1863              		.cfi_endproc
 1864              	.LFE141:
 1865              		.size	usb_lld_reset, .-usb_lld_reset
 1866 00bc AFF30080 		.section	.text.usb_lld_set_address,"ax",%progbits
 1867              		.align	2
 1868              		.p2align 4,,15
 1869              		.global	usb_lld_set_address
 1870              		.thumb
 1871              		.thumb_func
ARM GAS  /tmp/ccvaFkTF.s 			page 34


 1872              		.type	usb_lld_set_address, %function
 1873              	usb_lld_set_address:
 1874              	.LFB142:
 1875              		.loc 1 1026 0
 1876              		.cfi_startproc
 1877              		@ args = 0, pretend = 0, frame = 0
 1878              		@ frame_needed = 0, uses_anonymous_args = 0
 1879              		@ link register save eliminated.
 1880              	.LVL184:
 1881              		.loc 1 1027 0
 1882 0000 036D     		ldr	r3, [r0, #80]
 1883              	.LVL185:
 1884              		.loc 1 1029 0
 1885 0002 90F84E10 		ldrb	r1, [r0, #78]	@ zero_extendqisi2
 1886 0006 D3F80028 		ldr	r2, [r3, #2048]
 1887 000a 22F4FE62 		bic	r2, r2, #2032
 1888 000e 42EA0112 		orr	r2, r2, r1, lsl #4
 1889 0012 C3F80028 		str	r2, [r3, #2048]
 1890 0016 7047     		bx	lr
 1891              		.cfi_endproc
 1892              	.LFE142:
 1893              		.size	usb_lld_set_address, .-usb_lld_set_address
 1894 0018 AFF30080 		.section	.text.usb_lld_init_endpoint,"ax",%progbits
 1894      AFF30080 
 1895              		.align	2
 1896              		.p2align 4,,15
 1897              		.global	usb_lld_init_endpoint
 1898              		.thumb
 1899              		.thumb_func
 1900              		.type	usb_lld_init_endpoint, %function
 1901              	usb_lld_init_endpoint:
 1902              	.LFB143:
 1903              		.loc 1 1040 0
 1904              		.cfi_startproc
 1905              		@ args = 0, pretend = 0, frame = 0
 1906              		@ frame_needed = 0, uses_anonymous_args = 0
 1907              	.LVL186:
 1908 0000 2DE9F041 		push	{r4, r5, r6, r7, r8, lr}
 1909              		.cfi_def_cfa_offset 24
 1910              		.cfi_offset 4, -24
 1911              		.cfi_offset 5, -20
 1912              		.cfi_offset 6, -16
 1913              		.cfi_offset 7, -12
 1914              		.cfi_offset 8, -8
 1915              		.cfi_offset 14, -4
 1916 0004 0FFA81F8 		sxth	r8, r1
 1917 0008 00EB8806 		add	r6, r0, r8, lsl #2
 1918              		.loc 1 1040 0
 1919 000c 0D46     		mov	r5, r1
 1920              		.loc 1 1045 0
 1921 000e F368     		ldr	r3, [r6, #12]
 1922              		.loc 1 1042 0
 1923 0010 046D     		ldr	r4, [r0, #80]
 1924              	.LVL187:
 1925              		.loc 1 1045 0
 1926 0012 1A68     		ldr	r2, [r3]
 1927 0014 02F00302 		and	r2, r2, #3
ARM GAS  /tmp/ccvaFkTF.s 			page 35


 1928 0018 022A     		cmp	r2, #2
 1929 001a 5ED0     		beq	.L286
 1930 001c 032A     		cmp	r2, #3
 1931 001e 5ED0     		beq	.L287
 1932              		.loc 1 1047 0
 1933 0020 4C4F     		ldr	r7, .L299
 1934 0022 4D49     		ldr	r1, .L299+4
 1935              	.LVL188:
 1936 0024 012A     		cmp	r2, #1
 1937 0026 18BF     		it	ne
 1938 0028 0F46     		movne	r7, r1
 1939              	.L288:
 1940              	.LVL189:
 1941              		.loc 1 1063 0
 1942 002a 6901     		lsls	r1, r5, #5
 1943 002c 04EB010E 		add	lr, r4, r1
 1944              		.loc 1 1064 0
 1945 0030 DA68     		ldr	r2, [r3, #12]
 1946              		.loc 1 1063 0
 1947 0032 4FF0000C 		mov	ip, #0
 1948 0036 CEF810CB 		str	ip, [lr, #2832]
 1949              		.loc 1 1064 0
 1950 003a 002A     		cmp	r2, #0
 1951 003c 75D0     		beq	.L289
 1952              		.loc 1 1065 0
 1953 003e B3F812E0 		ldrh	lr, [r3, #18]
 1954 0042 05F15802 		add	r2, r5, #88
 1955 0046 5201     		lsls	r2, r2, #5
 1956 0048 47EA0E0E 		orr	lr, r7, lr
 1957 004c 44F802E0 		str	lr, [r4, r2]
 1958              		.loc 1 1066 0
 1959 0050 4FF0010C 		mov	ip, #1
 1960 0054 D4F81C28 		ldr	r2, [r4, #2076]
 1961 0058 05F1100E 		add	lr, r5, #16
 1962 005c 0CFA0EFE 		lsl	lr, ip, lr
 1963 0060 4EEA0202 		orr	r2, lr, r2
 1964 0064 C4F81C28 		str	r2, [r4, #2076]
 1965              	.L290:
 1966              		.loc 1 1074 0
 1967 0068 2144     		add	r1, r1, r4
 1968              		.loc 1 1075 0
 1969 006a 9A68     		ldr	r2, [r3, #8]
 1970              		.loc 1 1074 0
 1971 006c 4FF0000E 		mov	lr, #0
 1972 0070 C1F810E9 		str	lr, [r1, #2320]
 1973              		.loc 1 1075 0
 1974 0074 002A     		cmp	r2, #0
 1975 0076 34D0     		beq	.L291
 1976              		.loc 1 1078 0
 1977 0078 9A8B     		ldrh	r2, [r3, #28]
 1978              		.loc 1 1077 0
 1979 007a 198A     		ldrh	r1, [r3, #16]
 1980              		.loc 1 1078 0
 1981 007c 012A     		cmp	r2, #1
 1982              		.loc 1 1077 0
 1983 007e 4FEA9103 		lsr	r3, r1, #2
 1984              	.LVL190:
ARM GAS  /tmp/ccvaFkTF.s 			page 36


 1985              		.loc 1 1079 0
 1986 0082 88BF     		it	hi
 1987 0084 5343     		mulhi	r3, r2, r3
 1988              	.LVL191:
 1989              		.loc 1 1080 0
 1990 0086 05F13F01 		add	r1, r5, #63
 1991              	.LBB201:
 1992              	.LBB202:
 1993              		.loc 1 225 0
 1994 008a 826D     		ldr	r2, [r0, #88]
 1995              	.LVL192:
 1996              	.LBE202:
 1997              	.LBE201:
 1998              		.loc 1 1080 0
 1999 008c 04EB8101 		add	r1, r4, r1, lsl #2
 2000              	.LBB205:
 2001              	.LBB203:
 2002              		.loc 1 226 0
 2003 0090 03EB020E 		add	lr, r3, r2
 2004              	.LBE203:
 2005              	.LBE205:
 2006              		.loc 1 1080 0
 2007 0094 42EA0343 		orr	r3, r2, r3, lsl #16
 2008              	.LVL193:
 2009              	.LBB206:
 2010              	.LBB204:
 2011              		.loc 1 226 0
 2012 0098 C0F858E0 		str	lr, [r0, #88]
 2013              	.LBE204:
 2014              	.LBE206:
 2015              		.loc 1 1080 0
 2016 009c 4B60     		str	r3, [r1, #4]
 2017              		.loc 1 1040 0
 2018 009e 026D     		ldr	r2, [r0, #80]
 2019              	.LVL194:
 2020              	.LBB207:
 2021              	.LBB208:
 2022              		.loc 1 195 0
 2023 00a0 AB01     		lsls	r3, r5, #6
 2024 00a2 43F02003 		orr	r3, r3, #32
 2025 00a6 1361     		str	r3, [r2, #16]
 2026              	.L294:
 2027              		.loc 1 196 0
 2028 00a8 1369     		ldr	r3, [r2, #16]
 2029 00aa 9906     		lsls	r1, r3, #26
 2030 00ac FCD4     		bmi	.L294
 2031              		.loc 1 199 0
 2032 00ae 0C20     		movs	r0, #12
 2033              	.LVL195:
 2034 00b0 FFF7FEFF 		bl	halPolledDelay
 2035              	.LVL196:
 2036              	.LBE208:
 2037              	.LBE207:
 2038              		.loc 1 1086 0
 2039 00b4 F368     		ldr	r3, [r6, #12]
 2040              		.loc 1 1085 0
 2041 00b6 1A8A     		ldrh	r2, [r3, #16]
ARM GAS  /tmp/ccvaFkTF.s 			page 37


 2042              		.loc 1 1084 0
 2043 00b8 05F14803 		add	r3, r5, #72
 2044 00bc 42EA8552 		orr	r2, r2, r5, lsl #22
 2045 00c0 5B01     		lsls	r3, r3, #5
 2046              		.loc 1 1085 0
 2047 00c2 1743     		orrs	r7, r7, r2
 2048              	.LVL197:
 2049              		.loc 1 1084 0
 2050 00c4 E750     		str	r7, [r4, r3]
 2051              		.loc 1 1087 0
 2052 00c6 0122     		movs	r2, #1
 2053 00c8 D4F81C38 		ldr	r3, [r4, #2076]
 2054 00cc 02FA05F5 		lsl	r5, r2, r5
 2055              	.LVL198:
 2056 00d0 1D43     		orrs	r5, r5, r3
 2057 00d2 C4F81C58 		str	r5, [r4, #2076]
 2058 00d6 BDE8F081 		pop	{r4, r5, r6, r7, r8, pc}
 2059              	.LVL199:
 2060              	.L286:
 2061              		.loc 1 1053 0
 2062 00da 204F     		ldr	r7, .L299+8
 2063              		.loc 1 1054 0
 2064 00dc A5E7     		b	.L288
 2065              	.LVL200:
 2066              	.L287:
 2067              		.loc 1 1056 0
 2068 00de 204F     		ldr	r7, .L299+12
 2069              		.loc 1 1057 0
 2070 00e0 A3E7     		b	.L288
 2071              	.LVL201:
 2072              	.L291:
 2073              		.loc 1 1090 0
 2074 00e2 05F13F03 		add	r3, r5, #63
 2075 00e6 04EB8303 		add	r3, r4, r3, lsl #2
 2076 00ea 1E4A     		ldr	r2, .L299+16
 2077 00ec 5A60     		str	r2, [r3, #4]
 2078              		.loc 1 1040 0
 2079 00ee 026D     		ldr	r2, [r0, #80]
 2080              	.LVL202:
 2081              	.LBB209:
 2082              	.LBB210:
 2083              		.loc 1 195 0
 2084 00f0 AB01     		lsls	r3, r5, #6
 2085 00f2 43F02003 		orr	r3, r3, #32
 2086 00f6 1361     		str	r3, [r2, #16]
 2087              	.L297:
 2088              		.loc 1 196 0
 2089 00f8 1369     		ldr	r3, [r2, #16]
 2090 00fa 9B06     		lsls	r3, r3, #26
 2091 00fc FCD4     		bmi	.L297
 2092 00fe 04EB4818 		add	r8, r4, r8, lsl #5
 2093              		.loc 1 199 0
 2094 0102 0C20     		movs	r0, #12
 2095              	.LVL203:
 2096 0104 FFF7FEFF 		bl	halPolledDelay
 2097              	.LVL204:
 2098              	.LBE210:
ARM GAS  /tmp/ccvaFkTF.s 			page 38


 2099              	.LBE209:
 2100              		.loc 1 1092 0
 2101 0108 D8F80039 		ldr	r3, [r8, #2304]
 2102 010c 23F40043 		bic	r3, r3, #32768
 2103 0110 C8F80039 		str	r3, [r8, #2304]
 2104              		.loc 1 1093 0
 2105 0114 D4F81C38 		ldr	r3, [r4, #2076]
 2106 0118 0122     		movs	r2, #1
 2107 011a 02FA05F5 		lsl	r5, r2, r5
 2108              	.LVL205:
 2109 011e 23EA0503 		bic	r3, r3, r5
 2110 0122 C4F81C38 		str	r3, [r4, #2076]
 2111 0126 BDE8F081 		pop	{r4, r5, r6, r7, r8, pc}
 2112              	.LVL206:
 2113              	.L289:
 2114 012a 04EB4812 		add	r2, r4, r8, lsl #5
 2115              		.loc 1 1070 0
 2116 012e 05F1100E 		add	lr, r5, #16
 2117              		.loc 1 1069 0
 2118 0132 D2F800CB 		ldr	ip, [r2, #2816]
 2119 0136 2CF4004C 		bic	ip, ip, #32768
 2120 013a C2F800CB 		str	ip, [r2, #2816]
 2121              		.loc 1 1070 0
 2122 013e D4F81C28 		ldr	r2, [r4, #2076]
 2123 0142 4FF0010C 		mov	ip, #1
 2124 0146 0CFA0EFE 		lsl	lr, ip, lr
 2125 014a 22EA0E02 		bic	r2, r2, lr
 2126 014e C4F81C28 		str	r2, [r4, #2076]
 2127 0152 89E7     		b	.L290
 2128              	.L300:
 2129              		.align	2
 2130              	.L299:
 2131 0154 00800410 		.word	268730368
 2132 0158 00800010 		.word	268468224
 2133 015c 00800810 		.word	268992512
 2134 0160 00800C10 		.word	269254656
 2135 0164 00040002 		.word	33555456
 2136              		.cfi_endproc
 2137              	.LFE143:
 2138              		.size	usb_lld_init_endpoint, .-usb_lld_init_endpoint
 2139 0168 AFF30080 		.section	.text.usb_lld_disable_endpoints,"ax",%progbits
 2139      AFF30080 
 2140              		.align	2
 2141              		.p2align 4,,15
 2142              		.global	usb_lld_disable_endpoints
 2143              		.thumb
 2144              		.thumb_func
 2145              		.type	usb_lld_disable_endpoints, %function
 2146              	usb_lld_disable_endpoints:
 2147              	.LFB144:
 2148              		.loc 1 1104 0
 2149              		.cfi_startproc
 2150              		@ args = 0, pretend = 0, frame = 0
 2151              		@ frame_needed = 0, uses_anonymous_args = 0
 2152              		@ link register save eliminated.
 2153              	.LVL207:
 2154              		.loc 1 1104 0
ARM GAS  /tmp/ccvaFkTF.s 			page 39


 2155 0000 416D     		ldr	r1, [r0, #84]
 2156              	.LVL208:
 2157 0002 0346     		mov	r3, r0
 2158              	.LBB211:
 2159              	.LBB212:
 2160              		.loc 1 211 0
 2161 0004 0A68     		ldr	r2, [r1]
 2162              	.LBE212:
 2163              	.LBE211:
 2164              		.loc 1 1110 0
 2165 0006 006D     		ldr	r0, [r0, #80]
 2166              	.LVL209:
 2167              	.LBB214:
 2168              	.LBB213:
 2169              		.loc 1 211 0
 2170 0008 9A65     		str	r2, [r3, #88]
 2171              	.LBE213:
 2172              	.LBE214:
 2173              		.loc 1 1110 0
 2174 000a FFF7FEBF 		b	otg_disable_ep.isra.0
 2175              	.LVL210:
 2176              		.cfi_endproc
 2177              	.LFE144:
 2178              		.size	usb_lld_disable_endpoints, .-usb_lld_disable_endpoints
 2179 000e 00BF     		.section	.text.usb_lld_get_status_out,"ax",%progbits
 2180              		.align	2
 2181              		.p2align 4,,15
 2182              		.global	usb_lld_get_status_out
 2183              		.thumb
 2184              		.thumb_func
 2185              		.type	usb_lld_get_status_out, %function
 2186              	usb_lld_get_status_out:
 2187              	.LFB145:
 2188              		.loc 1 1125 0
 2189              		.cfi_startproc
 2190              		@ args = 0, pretend = 0, frame = 0
 2191              		@ frame_needed = 0, uses_anonymous_args = 0
 2192              		@ link register save eliminated.
 2193              	.LVL211:
 2194              		.loc 1 1130 0
 2195 0000 5831     		adds	r1, r1, #88
 2196              	.LVL212:
 2197 0002 036D     		ldr	r3, [r0, #80]
 2198 0004 4901     		lsls	r1, r1, #5
 2199 0006 5B58     		ldr	r3, [r3, r1]
 2200              	.LVL213:
 2201              		.loc 1 1131 0
 2202 0008 13F40040 		ands	r0, r3, #32768
 2203              	.LVL214:
 2204 000c 04D0     		beq	.L303
 2205              		.loc 1 1133 0
 2206 000e 13F4001F 		tst	r3, #2097152
 2207              		.loc 1 1134 0
 2208 0012 0CBF     		ite	eq
 2209 0014 0220     		moveq	r0, #2
 2210 0016 0120     		movne	r0, #1
 2211              	.L303:
ARM GAS  /tmp/ccvaFkTF.s 			page 40


 2212              		.loc 1 1136 0
 2213 0018 7047     		bx	lr
 2214              		.cfi_endproc
 2215              	.LFE145:
 2216              		.size	usb_lld_get_status_out, .-usb_lld_get_status_out
 2217 001a 00BFAFF3 		.section	.text.usb_lld_get_status_in,"ax",%progbits
 2217      0080
 2218              		.align	2
 2219              		.p2align 4,,15
 2220              		.global	usb_lld_get_status_in
 2221              		.thumb
 2222              		.thumb_func
 2223              		.type	usb_lld_get_status_in, %function
 2224              	usb_lld_get_status_in:
 2225              	.LFB146:
 2226              		.loc 1 1150 0
 2227              		.cfi_startproc
 2228              		@ args = 0, pretend = 0, frame = 0
 2229              		@ frame_needed = 0, uses_anonymous_args = 0
 2230              		@ link register save eliminated.
 2231              	.LVL215:
 2232              		.loc 1 1155 0
 2233 0000 4831     		adds	r1, r1, #72
 2234              	.LVL216:
 2235 0002 036D     		ldr	r3, [r0, #80]
 2236 0004 4901     		lsls	r1, r1, #5
 2237 0006 5B58     		ldr	r3, [r3, r1]
 2238              	.LVL217:
 2239              		.loc 1 1156 0
 2240 0008 13F40040 		ands	r0, r3, #32768
 2241              	.LVL218:
 2242 000c 04D0     		beq	.L307
 2243              		.loc 1 1158 0
 2244 000e 13F4001F 		tst	r3, #2097152
 2245              		.loc 1 1159 0
 2246 0012 0CBF     		ite	eq
 2247 0014 0220     		moveq	r0, #2
 2248 0016 0120     		movne	r0, #1
 2249              	.L307:
 2250              		.loc 1 1161 0
 2251 0018 7047     		bx	lr
 2252              		.cfi_endproc
 2253              	.LFE146:
 2254              		.size	usb_lld_get_status_in, .-usb_lld_get_status_in
 2255 001a 00BFAFF3 		.section	.text.usb_lld_read_setup,"ax",%progbits
 2255      0080
 2256              		.align	2
 2257              		.p2align 4,,15
 2258              		.global	usb_lld_read_setup
 2259              		.thumb
 2260              		.thumb_func
 2261              		.type	usb_lld_read_setup, %function
 2262              	usb_lld_read_setup:
 2263              	.LFB147:
 2264              		.loc 1 1177 0
 2265              		.cfi_startproc
 2266              		@ args = 0, pretend = 0, frame = 0
ARM GAS  /tmp/ccvaFkTF.s 			page 41


 2267              		@ frame_needed = 0, uses_anonymous_args = 0
 2268              		@ link register save eliminated.
 2269              	.LVL219:
 2270              		.loc 1 1179 0
 2271 0000 00EB8101 		add	r1, r0, r1, lsl #2
 2272              	.LVL220:
 2273 0004 CB68     		ldr	r3, [r1, #12]
 2274 0006 1B6A     		ldr	r3, [r3, #32]
 2275 0008 1968     		ldr	r1, [r3]	@ unaligned
 2276 000a 5B68     		ldr	r3, [r3, #4]	@ unaligned
 2277 000c 5360     		str	r3, [r2, #4]	@ unaligned
 2278 000e 1160     		str	r1, [r2]	@ unaligned
 2279 0010 7047     		bx	lr
 2280              		.cfi_endproc
 2281              	.LFE147:
 2282              		.size	usb_lld_read_setup, .-usb_lld_read_setup
 2283 0012 00BFAFF3 		.section	.text.usb_lld_prepare_receive,"ax",%progbits
 2283      0080AFF3 
 2283      0080AFF3 
 2283      0080
 2284              		.align	2
 2285              		.p2align 4,,15
 2286              		.global	usb_lld_prepare_receive
 2287              		.thumb
 2288              		.thumb_func
 2289              		.type	usb_lld_prepare_receive, %function
 2290              	usb_lld_prepare_receive:
 2291              	.LFB148:
 2292              		.loc 1 1190 0
 2293              		.cfi_startproc
 2294              		@ args = 0, pretend = 0, frame = 0
 2295              		@ frame_needed = 0, uses_anonymous_args = 0
 2296              		@ link register save eliminated.
 2297              	.LVL221:
 2298              		.loc 1 1192 0
 2299 0000 00EB8103 		add	r3, r0, r1, lsl #2
 2300              		.loc 1 1197 0
 2301 0004 006D     		ldr	r0, [r0, #80]
 2302              	.LVL222:
 2303              		.loc 1 1192 0
 2304 0006 DB68     		ldr	r3, [r3, #12]
 2305              	.LVL223:
 2306              		.loc 1 1195 0
 2307 0008 9A69     		ldr	r2, [r3, #24]
 2308 000a 5B8A     		ldrh	r3, [r3, #18]
 2309              	.LVL224:
 2310 000c 5268     		ldr	r2, [r2, #4]
 2311              	.LVL225:
 2312 000e 013A     		subs	r2, r2, #1
 2313 0010 1A44     		add	r2, r2, r3
 2314 0012 B2FBF3F2 		udiv	r2, r2, r3
 2315              		.loc 1 1197 0
 2316 0016 00EB4111 		add	r1, r0, r1, lsl #5
 2317              	.LVL226:
 2318 001a 43F0C043 		orr	r3, r3, #1610612736
 2319 001e 43EAC243 		orr	r3, r3, r2, lsl #19
 2320 0022 C1F8103B 		str	r3, [r1, #2832]
ARM GAS  /tmp/ccvaFkTF.s 			page 42


 2321 0026 7047     		bx	lr
 2322              		.cfi_endproc
 2323              	.LFE148:
 2324              		.size	usb_lld_prepare_receive, .-usb_lld_prepare_receive
 2325 0028 AFF30080 		.section	.text.usb_lld_prepare_transmit,"ax",%progbits
 2325      AFF30080 
 2326              		.align	2
 2327              		.p2align 4,,15
 2328              		.global	usb_lld_prepare_transmit
 2329              		.thumb
 2330              		.thumb_func
 2331              		.type	usb_lld_prepare_transmit, %function
 2332              	usb_lld_prepare_transmit:
 2333              	.LFB149:
 2334              		.loc 1 1210 0
 2335              		.cfi_startproc
 2336              		@ args = 0, pretend = 0, frame = 0
 2337              		@ frame_needed = 0, uses_anonymous_args = 0
 2338              		@ link register save eliminated.
 2339              	.LVL227:
 2340              		.loc 1 1211 0
 2341 0000 00EB8103 		add	r3, r0, r1, lsl #2
 2342              		.loc 1 1210 0
 2343 0004 10B4     		push	{r4}
 2344              		.cfi_def_cfa_offset 4
 2345              		.cfi_offset 4, -4
 2346              		.loc 1 1211 0
 2347 0006 DA68     		ldr	r2, [r3, #12]
 2348              	.LVL228:
 2349              		.loc 1 1214 0
 2350 0008 5369     		ldr	r3, [r2, #20]
 2351 000a 5B68     		ldr	r3, [r3, #4]
 2352 000c 73B1     		cbz	r3, .L315
 2353              	.LBB215:
 2354              		.loc 1 1220 0
 2355 000e 128A     		ldrh	r2, [r2, #16]
 2356              	.LVL229:
 2357              		.loc 1 1222 0
 2358 0010 046D     		ldr	r4, [r0, #80]
 2359              		.loc 1 1220 0
 2360 0012 581E     		subs	r0, r3, #1
 2361              	.LVL230:
 2362 0014 1044     		add	r0, r0, r2
 2363              		.loc 1 1222 0
 2364 0016 04EB4111 		add	r1, r4, r1, lsl #5
 2365              	.LVL231:
 2366              		.loc 1 1220 0
 2367 001a B0FBF2F2 		udiv	r2, r0, r2
 2368              	.LVL232:
 2369              		.loc 1 1222 0
 2370 001e 43EAC243 		orr	r3, r3, r2, lsl #19
 2371 0022 C1F81039 		str	r3, [r1, #2320]
 2372              	.LBE215:
 2373              		.loc 1 1226 0
 2374 0026 5DF8044B 		ldr	r4, [sp], #4
 2375 002a 7047     		bx	lr
 2376              	.LVL233:
ARM GAS  /tmp/ccvaFkTF.s 			page 43


 2377              	.L315:
 2378              		.loc 1 1216 0
 2379 002c 036D     		ldr	r3, [r0, #80]
 2380              		.loc 1 1226 0
 2381 002e 5DF8044B 		ldr	r4, [sp], #4
 2382              		.loc 1 1216 0
 2383 0032 03EB4111 		add	r1, r3, r1, lsl #5
 2384              	.LVL234:
 2385 0036 4FF40023 		mov	r3, #524288
 2386 003a C1F81039 		str	r3, [r1, #2320]
 2387              	.LVL235:
 2388              		.loc 1 1226 0
 2389 003e 7047     		bx	lr
 2390              		.cfi_endproc
 2391              	.LFE149:
 2392              		.size	usb_lld_prepare_transmit, .-usb_lld_prepare_transmit
 2393              		.section	.text.usb_lld_start_out,"ax",%progbits
 2394              		.align	2
 2395              		.p2align 4,,15
 2396              		.global	usb_lld_start_out
 2397              		.thumb
 2398              		.thumb_func
 2399              		.type	usb_lld_start_out, %function
 2400              	usb_lld_start_out:
 2401              	.LFB150:
 2402              		.loc 1 1236 0
 2403              		.cfi_startproc
 2404              		@ args = 0, pretend = 0, frame = 0
 2405              		@ frame_needed = 0, uses_anonymous_args = 0
 2406              		@ link register save eliminated.
 2407              	.LVL236:
 2408 0000 036D     		ldr	r3, [r0, #80]
 2409 0002 03EB4111 		add	r1, r3, r1, lsl #5
 2410              	.LVL237:
 2411              		.loc 1 1238 0
 2412 0006 D1F8003B 		ldr	r3, [r1, #2816]
 2413 000a 43F08063 		orr	r3, r3, #67108864
 2414 000e C1F8003B 		str	r3, [r1, #2816]
 2415 0012 7047     		bx	lr
 2416              		.cfi_endproc
 2417              	.LFE150:
 2418              		.size	usb_lld_start_out, .-usb_lld_start_out
 2419 0014 AFF30080 		.section	.text.usb_lld_start_in,"ax",%progbits
 2419      AFF30080 
 2419      AFF30080 
 2420              		.align	2
 2421              		.p2align 4,,15
 2422              		.global	usb_lld_start_in
 2423              		.thumb
 2424              		.thumb_func
 2425              		.type	usb_lld_start_in, %function
 2426              	usb_lld_start_in:
 2427              	.LFB151:
 2428              		.loc 1 1249 0
 2429              		.cfi_startproc
 2430              		@ args = 0, pretend = 0, frame = 0
 2431              		@ frame_needed = 0, uses_anonymous_args = 0
ARM GAS  /tmp/ccvaFkTF.s 			page 44


 2432              		@ link register save eliminated.
 2433              	.LVL238:
 2434              		.loc 1 1251 0
 2435 0000 036D     		ldr	r3, [r0, #80]
 2436 0002 03EB4112 		add	r2, r3, r1, lsl #5
 2437              		.loc 1 1249 0
 2438 0006 10B4     		push	{r4}
 2439              		.cfi_def_cfa_offset 4
 2440              		.cfi_offset 4, -4
 2441              		.loc 1 1251 0
 2442 0008 D2F80049 		ldr	r4, [r2, #2304]
 2443 000c 44F00444 		orr	r4, r4, #-2080374784
 2444 0010 C2F80049 		str	r4, [r2, #2304]
 2445              		.loc 1 1252 0
 2446 0014 D3F83428 		ldr	r2, [r3, #2100]
 2447              		.loc 1 1253 0
 2448 0018 5DF8044B 		ldr	r4, [sp], #4
 2449              		.loc 1 1252 0
 2450 001c 0120     		movs	r0, #1
 2451              	.LVL239:
 2452 001e 00FA01F1 		lsl	r1, r0, r1
 2453              	.LVL240:
 2454 0022 1143     		orrs	r1, r1, r2
 2455 0024 C3F83418 		str	r1, [r3, #2100]
 2456              		.loc 1 1253 0
 2457 0028 7047     		bx	lr
 2458              		.cfi_endproc
 2459              	.LFE151:
 2460              		.size	usb_lld_start_in, .-usb_lld_start_in
 2461 002a 00BFAFF3 		.section	.text.usb_lld_stall_out,"ax",%progbits
 2461      0080
 2462              		.align	2
 2463              		.p2align 4,,15
 2464              		.global	usb_lld_stall_out
 2465              		.thumb
 2466              		.thumb_func
 2467              		.type	usb_lld_stall_out, %function
 2468              	usb_lld_stall_out:
 2469              	.LFB152:
 2470              		.loc 1 1263 0
 2471              		.cfi_startproc
 2472              		@ args = 0, pretend = 0, frame = 0
 2473              		@ frame_needed = 0, uses_anonymous_args = 0
 2474              		@ link register save eliminated.
 2475              	.LVL241:
 2476 0000 036D     		ldr	r3, [r0, #80]
 2477 0002 03EB4111 		add	r1, r3, r1, lsl #5
 2478              	.LVL242:
 2479              		.loc 1 1265 0
 2480 0006 D1F8003B 		ldr	r3, [r1, #2816]
 2481 000a 43F40013 		orr	r3, r3, #2097152
 2482 000e C1F8003B 		str	r3, [r1, #2816]
 2483 0012 7047     		bx	lr
 2484              		.cfi_endproc
 2485              	.LFE152:
 2486              		.size	usb_lld_stall_out, .-usb_lld_stall_out
 2487 0014 AFF30080 		.section	.text.usb_lld_stall_in,"ax",%progbits
ARM GAS  /tmp/ccvaFkTF.s 			page 45


 2487      AFF30080 
 2487      AFF30080 
 2488              		.align	2
 2489              		.p2align 4,,15
 2490              		.global	usb_lld_stall_in
 2491              		.thumb
 2492              		.thumb_func
 2493              		.type	usb_lld_stall_in, %function
 2494              	usb_lld_stall_in:
 2495              	.LFB153:
 2496              		.loc 1 1276 0
 2497              		.cfi_startproc
 2498              		@ args = 0, pretend = 0, frame = 0
 2499              		@ frame_needed = 0, uses_anonymous_args = 0
 2500              		@ link register save eliminated.
 2501              	.LVL243:
 2502 0000 036D     		ldr	r3, [r0, #80]
 2503 0002 03EB4111 		add	r1, r3, r1, lsl #5
 2504              	.LVL244:
 2505              		.loc 1 1278 0
 2506 0006 D1F80039 		ldr	r3, [r1, #2304]
 2507 000a 43F40013 		orr	r3, r3, #2097152
 2508 000e C1F80039 		str	r3, [r1, #2304]
 2509 0012 7047     		bx	lr
 2510              		.cfi_endproc
 2511              	.LFE153:
 2512              		.size	usb_lld_stall_in, .-usb_lld_stall_in
 2513 0014 AFF30080 		.section	.text.usb_lld_clear_out,"ax",%progbits
 2513      AFF30080 
 2513      AFF30080 
 2514              		.align	2
 2515              		.p2align 4,,15
 2516              		.global	usb_lld_clear_out
 2517              		.thumb
 2518              		.thumb_func
 2519              		.type	usb_lld_clear_out, %function
 2520              	usb_lld_clear_out:
 2521              	.LFB154:
 2522              		.loc 1 1289 0
 2523              		.cfi_startproc
 2524              		@ args = 0, pretend = 0, frame = 0
 2525              		@ frame_needed = 0, uses_anonymous_args = 0
 2526              		@ link register save eliminated.
 2527              	.LVL245:
 2528 0000 036D     		ldr	r3, [r0, #80]
 2529 0002 03EB4111 		add	r1, r3, r1, lsl #5
 2530              	.LVL246:
 2531              		.loc 1 1291 0
 2532 0006 D1F8003B 		ldr	r3, [r1, #2816]
 2533 000a 23F40013 		bic	r3, r3, #2097152
 2534 000e C1F8003B 		str	r3, [r1, #2816]
 2535 0012 7047     		bx	lr
 2536              		.cfi_endproc
 2537              	.LFE154:
 2538              		.size	usb_lld_clear_out, .-usb_lld_clear_out
 2539 0014 AFF30080 		.section	.text.usb_lld_clear_in,"ax",%progbits
 2539      AFF30080 
ARM GAS  /tmp/ccvaFkTF.s 			page 46


 2539      AFF30080 
 2540              		.align	2
 2541              		.p2align 4,,15
 2542              		.global	usb_lld_clear_in
 2543              		.thumb
 2544              		.thumb_func
 2545              		.type	usb_lld_clear_in, %function
 2546              	usb_lld_clear_in:
 2547              	.LFB155:
 2548              		.loc 1 1302 0
 2549              		.cfi_startproc
 2550              		@ args = 0, pretend = 0, frame = 0
 2551              		@ frame_needed = 0, uses_anonymous_args = 0
 2552              		@ link register save eliminated.
 2553              	.LVL247:
 2554 0000 036D     		ldr	r3, [r0, #80]
 2555 0002 03EB4111 		add	r1, r3, r1, lsl #5
 2556              	.LVL248:
 2557              		.loc 1 1304 0
 2558 0006 D1F80039 		ldr	r3, [r1, #2304]
 2559 000a 23F40013 		bic	r3, r3, #2097152
 2560 000e C1F80039 		str	r3, [r1, #2304]
 2561 0012 7047     		bx	lr
 2562              		.cfi_endproc
 2563              	.LFE155:
 2564              		.size	usb_lld_clear_in, .-usb_lld_clear_in
 2565              		.global	USBD1
 2566 0014 AFF30080 		.section	.rodata.fsparams,"a",%progbits
 2566      AFF30080 
 2566      AFF30080 
 2567              		.align	2
 2568              		.set	.LANCHOR1,. + 0
 2569              		.type	fsparams, %object
 2570              		.size	fsparams, 12
 2571              	fsparams:
 2572 0000 80000000 		.word	128
 2573 0004 40010000 		.word	320
 2574 0008 03000000 		.word	3
 2575              		.section	.bss.USBD1,"aw",%nobits
 2576              		.align	3
 2577              		.set	.LANCHOR0,. + 0
 2578              		.type	USBD1, %object
 2579              		.size	USBD1, 544
 2580              	USBD1:
 2581 0000 00000000 		.space	544
 2581      00000000 
 2581      00000000 
 2581      00000000 
 2581      00000000 
 2582              		.section	.rodata.str1.4,"aMS",%progbits,1
 2583              		.align	2
 2584              	.LC0:
 2585 0000 7573625F 		.ascii	"usb_lld_pump\000"
 2585      6C6C645F 
 2585      70756D70 
 2585      00
 2586 000d 000000   		.section	.rodata.ep0config,"a",%progbits
ARM GAS  /tmp/ccvaFkTF.s 			page 47


 2587              		.align	2
 2588              		.set	.LANCHOR2,. + 0
 2589              		.type	ep0config, %object
 2590              		.size	ep0config, 36
 2591              	ep0config:
 2592 0000 00000000 		.word	0
 2593 0004 00000000 		.word	_usb_ep0setup
 2594 0008 00000000 		.word	_usb_ep0in
 2595 000c 00000000 		.word	_usb_ep0out
 2596 0010 4000     		.short	64
 2597 0012 4000     		.short	64
 2598 0014 00000000 		.word	ep0_state
 2599 0018 00000000 		.word	ep0_state
 2600 001c 0100     		.short	1
 2601 001e 0000     		.space	2
 2602 0020 00000000 		.word	ep0setup_buffer
 2603              		.section	.bss.ep0_state,"aw",%nobits
 2604              		.align	2
 2605              		.type	ep0_state, %object
 2606              		.size	ep0_state, 16
 2607              	ep0_state:
 2608 0000 00000000 		.space	16
 2608      00000000 
 2608      00000000 
 2608      00000000 
 2609              		.section	.bss.ep0setup_buffer,"aw",%nobits
 2610              		.align	2
 2611              		.type	ep0setup_buffer, %object
 2612              		.size	ep0setup_buffer, 8
 2613              	ep0setup_buffer:
 2614 0000 00000000 		.space	8
 2614      00000000 
 2615              		.text
 2616              	.Letext0:
 2617              		.file 3 "/usr/lib/gcc/arm-none-eabi/4.8.3/include/stddef.h"
 2618              		.file 4 "/usr/arm-none-eabi/include/stdint.h"
 2619              		.file 5 "../AithonLibrary/ChibiOS/os/ports/GCC/ARMCMx/chtypes.h"
 2620              		.file 6 "../AithonLibrary/ChibiOS/os/kernel/include/chlists.h"
 2621              		.file 7 "../AithonLibrary/ChibiOS/os/kernel/include/chthreads.h"
 2622              		.file 8 "../AithonLibrary/ChibiOS/os/ports/GCC/ARMCMx/chcore_v7m.h"
 2623              		.file 9 "../AithonLibrary/ChibiOS/os/kernel/include/chschd.h"
 2624              		.file 10 "../AithonLibrary/ChibiOS/os/kernel/include/chmtx.h"
 2625              		.file 11 "../AithonLibrary/ChibiOS/os/kernel/include/chqueues.h"
 2626              		.file 12 "../AithonLibrary/ChibiOS/os/hal/platforms/STM32F4xx/stm32f4xx.h"
 2627              		.file 13 "../AithonLibrary/ChibiOS/os/hal/platforms/STM32F4xx/hal_lld.h"
 2628              		.file 14 "../AithonLibrary/ChibiOS/os/hal/include/usb.h"
 2629              		.file 15 "../AithonLibrary/ChibiOS/os/hal/platforms/STM32/OTGv1/usb_lld.h"
 2630              		.file 16 "../AithonLibrary/ChibiOS/os/hal/platforms/STM32/OTGv1/stm32_otg.h"
 2631              		.file 17 "../AithonLibrary/ChibiOS/os/ports/common/ARMCMx/CMSIS/include/core_cm4.h"
 2632              		.file 18 "../AithonLibrary/ChibiOS/os/hal/include/hal.h"
 2633              		.file 19 "../AithonLibrary/ChibiOS/os/ports/common/ARMCMx/nvic.h"