ARM GAS  /tmp/ccWTay1T.s 			page 1


   1              		.syntax unified
   2              		.cpu cortex-m4
   3              		.eabi_attribute 27, 3
   4              		.fpu fpv4-sp-d16
   5              		.eabi_attribute 20, 1
   6              		.eabi_attribute 21, 1
   7              		.eabi_attribute 23, 3
   8              		.eabi_attribute 24, 1
   9              		.eabi_attribute 25, 1
  10              		.eabi_attribute 26, 1
  11              		.eabi_attribute 30, 2
  12              		.eabi_attribute 34, 1
  13              		.eabi_attribute 18, 4
  14              		.thumb
  15              		.file	"usbCDC.c"
  16              		.text
  17              	.Ltext0:
  18              		.cfi_sections	.debug_frame
  19              		.section	.text._get_descriptor,"ax",%progbits
  20              		.align	2
  21              		.p2align 4,,15
  22              		.thumb
  23              		.thumb_func
  24              		.type	_get_descriptor, %function
  25              	_get_descriptor:
  26              	.LFB119:
  27              		.file 1 "../AithonLibrary/usbCDC.c"
  28              		.loc 1 181 0
  29              		.cfi_startproc
  30              		@ args = 0, pretend = 0, frame = 0
  31              		@ frame_needed = 0, uses_anonymous_args = 0
  32              		@ link register save eliminated.
  33              	.LVL0:
  34              		.loc 1 184 0
  35 0000 0229     		cmp	r1, #2
  36 0002 06D0     		beq	.L6
  37 0004 0329     		cmp	r1, #3
  38 0006 06D0     		beq	.L4
  39              		.loc 1 193 0
  40 0008 0748     		ldr	r0, .L9
  41              	.LVL1:
  42              		.loc 1 184 0
  43 000a 0129     		cmp	r1, #1
  44              		.loc 1 193 0
  45 000c 18BF     		it	ne
  46 000e 0020     		movne	r0, #0
  47 0010 7047     		bx	lr
  48              	.LVL2:
  49              	.L6:
  50              		.loc 1 188 0
  51 0012 0648     		ldr	r0, .L9+4
  52              	.LVL3:
  53 0014 7047     		bx	lr
  54              	.LVL4:
  55              	.L4:
  56              		.loc 1 190 0
  57 0016 032A     		cmp	r2, #3
ARM GAS  /tmp/ccWTay1T.s 			page 2


  58 0018 03D8     		bhi	.L7
  59              		.loc 1 191 0
  60 001a 0548     		ldr	r0, .L9+8
  61              	.LVL5:
  62 001c 00EBC200 		add	r0, r0, r2, lsl #3
  63 0020 7047     		bx	lr
  64              	.LVL6:
  65              	.L7:
  66              		.loc 1 193 0
  67 0022 0020     		movs	r0, #0
  68              	.LVL7:
  69              		.loc 1 194 0
  70 0024 7047     		bx	lr
  71              	.L10:
  72 0026 00BF     		.align	2
  73              	.L9:
  74 0028 00000000 		.word	.LANCHOR0
  75 002c 00000000 		.word	.LANCHOR1
  76 0030 00000000 		.word	.LANCHOR2
  77              		.cfi_endproc
  78              	.LFE119:
  79              		.size	_get_descriptor, .-_get_descriptor
  80 0034 AFF30080 		.section	.text._request_hook,"ax",%progbits
  80      AFF30080 
  80      AFF30080 
  81              		.align	2
  82              		.p2align 4,,15
  83              		.thumb
  84              		.thumb_func
  85              		.type	_request_hook, %function
  86              	_request_hook:
  87              	.LFB121:
  88              		.loc 1 284 0
  89              		.cfi_startproc
  90              		@ args = 0, pretend = 0, frame = 0
  91              		@ frame_needed = 0, uses_anonymous_args = 0
  92              	.LVL8:
  93 0000 10B5     		push	{r4, lr}
  94              		.cfi_def_cfa_offset 8
  95              		.cfi_offset 4, -8
  96              		.cfi_offset 14, -4
  97              		.loc 1 287 0
  98 0002 90F84430 		ldrb	r3, [r0, #68]	@ zero_extendqisi2
  99 0006 03F06003 		and	r3, r3, #96
 100 000a 202B     		cmp	r3, #32
 101              		.loc 1 284 0
 102 000c 0446     		mov	r4, r0
 103              		.loc 1 287 0
 104 000e 04D0     		beq	.L17
 105              	.LVL9:
 106              	.L13:
 107              		.loc 1 296 0
 108 0010 2046     		mov	r0, r4
 109              		.loc 1 297 0
 110 0012 BDE81040 		pop	{r4, lr}
 111              	.LVL10:
 112              		.loc 1 296 0
ARM GAS  /tmp/ccWTay1T.s 			page 3


 113 0016 FFF7FEBF 		b	sduRequestsHook
 114              	.LVL11:
 115              	.L17:
 116              		.loc 1 287 0 discriminator 1
 117 001a 90F84530 		ldrb	r3, [r0, #69]	@ zero_extendqisi2
 118 001e 222B     		cmp	r3, #34
 119 0020 F6D1     		bne	.L13
 120              		.loc 1 289 0
 121 0022 0E4B     		ldr	r3, .L19
 122 0024 0E48     		ldr	r0, .L19+4
 123              	.LVL12:
 124 0026 1A78     		ldrb	r2, [r3]	@ zero_extendqisi2
 125 0028 94F84610 		ldrb	r1, [r4, #70]	@ zero_extendqisi2
 126 002c 805C     		ldrb	r0, [r0, r2]	@ zero_extendqisi2
 127 002e 01F00301 		and	r1, r1, #3
 128 0032 8842     		cmp	r0, r1
 129 0034 06D0     		beq	.L18
 130              		.loc 1 292 0
 131 0036 0022     		movs	r2, #0
 132 0038 1A70     		strb	r2, [r3]
 133              		.loc 1 296 0
 134 003a 2046     		mov	r0, r4
 135              		.loc 1 297 0
 136 003c BDE81040 		pop	{r4, lr}
 137              	.LVL13:
 138              		.loc 1 296 0
 139 0040 FFF7FEBF 		b	sduRequestsHook
 140              	.LVL14:
 141              	.L18:
 142              		.loc 1 290 0
 143 0044 0132     		adds	r2, r2, #1
 144 0046 D2B2     		uxtb	r2, r2
 145              		.loc 1 293 0
 146 0048 032A     		cmp	r2, #3
 147              		.loc 1 290 0
 148 004a 1A70     		strb	r2, [r3]
 149              		.loc 1 293 0
 150 004c E0D1     		bne	.L13
 151              		.loc 1 294 0
 152 004e 054B     		ldr	r3, .L19+8
 153 0050 0121     		movs	r1, #1
 154 0052 1868     		ldr	r0, [r3]
 155 0054 FFF7FEFF 		bl	chEvtSignal
 156              	.LVL15:
 157 0058 DAE7     		b	.L13
 158              	.L20:
 159 005a 00BF     		.align	2
 160              	.L19:
 161 005c 00000000 		.word	.LANCHOR3
 162 0060 00000000 		.word	.LANCHOR4
 163 0064 00000000 		.word	_aithon_thd
 164              		.cfi_endproc
 165              	.LFE121:
 166              		.size	_request_hook, .-_request_hook
 167 0068 AFF30080 		.section	.text._usb_event,"ax",%progbits
 167      AFF30080 
 168              		.align	2
ARM GAS  /tmp/ccWTay1T.s 			page 4


 169              		.p2align 4,,15
 170              		.thumb
 171              		.thumb_func
 172              		.type	_usb_event, %function
 173              	_usb_event:
 174              	.LFB120:
 175              		.loc 1 246 0
 176              		.cfi_startproc
 177              		@ args = 0, pretend = 0, frame = 0
 178              		@ frame_needed = 0, uses_anonymous_args = 0
 179              	.LVL16:
 180              		.loc 1 247 0
 181 0000 0229     		cmp	r1, #2
 182              		.loc 1 246 0
 183 0002 10B5     		push	{r4, lr}
 184              		.cfi_def_cfa_offset 8
 185              		.cfi_offset 4, -8
 186              		.cfi_offset 14, -4
 187              		.loc 1 246 0
 188 0004 0446     		mov	r4, r0
 189              		.loc 1 247 0
 190 0006 11D1     		bne	.L21
 191              	.LVL17:
 192              	.LBB8:
 193              	.LBB9:
 194              	.LBB10:
 195              		.loc 1 249 0
 196 0008 2023     		movs	r3, #32
 197              	@ 249 "../AithonLibrary/usbCDC.c" 1
 198 000a 83F31188 		msr     BASEPRI, r3
 199              	@ 0 "" 2
 200              		.thumb
 201              	.LBE10:
 202              		.loc 1 254 0
 203 000e 0121     		movs	r1, #1
 204              	.LVL18:
 205 0010 074A     		ldr	r2, .L24
 206 0012 FFF7FEFF 		bl	usbInitEndpointI
 207              	.LVL19:
 208              		.loc 1 255 0
 209 0016 2046     		mov	r0, r4
 210 0018 0221     		movs	r1, #2
 211 001a 064A     		ldr	r2, .L24+4
 212 001c FFF7FEFF 		bl	usbInitEndpointI
 213              	.LVL20:
 214              		.loc 1 258 0
 215 0020 0548     		ldr	r0, .L24+8
 216 0022 FFF7FEFF 		bl	sduConfigureHookI
 217              	.LVL21:
 218              	.LBB11:
 219              		.loc 1 260 0
 220 0026 0023     		movs	r3, #0
 221              	@ 260 "../AithonLibrary/usbCDC.c" 1
 222 0028 83F31188 		msr     BASEPRI, r3
 223              	@ 0 "" 2
 224              	.LVL22:
 225              		.thumb
ARM GAS  /tmp/ccWTay1T.s 			page 5


 226              	.L21:
 227 002c 10BD     		pop	{r4, pc}
 228              	.LVL23:
 229              	.L25:
 230 002e 00BF     		.align	2
 231              	.L24:
 232 0030 00000000 		.word	.LANCHOR5
 233 0034 00000000 		.word	.LANCHOR6
 234 0038 00000000 		.word	.LANCHOR7
 235              	.LBE11:
 236              	.LBE9:
 237              	.LBE8:
 238              		.cfi_endproc
 239              	.LFE120:
 240              		.size	_usb_event, .-_usb_event
 241 003c AFF30080 		.section	.text._usbcdc_init,"ax",%progbits
 242              		.align	2
 243              		.p2align 4,,15
 244              		.global	_usbcdc_init
 245              		.thumb
 246              		.thumb_func
 247              		.type	_usbcdc_init, %function
 248              	_usbcdc_init:
 249              	.LFB122:
 250              		.loc 1 310 0
 251              		.cfi_startproc
 252              		@ args = 0, pretend = 0, frame = 0
 253              		@ frame_needed = 0, uses_anonymous_args = 0
 254 0000 38B5     		push	{r3, r4, r5, lr}
 255              		.cfi_def_cfa_offset 16
 256              		.cfi_offset 3, -16
 257              		.cfi_offset 4, -12
 258              		.cfi_offset 5, -8
 259              		.cfi_offset 14, -4
 260              		.loc 1 311 0
 261 0002 0D4D     		ldr	r5, .L27
 262              		.loc 1 313 0
 263 0004 0D4C     		ldr	r4, .L27+4
 264              		.loc 1 311 0
 265 0006 2846     		mov	r0, r5
 266 0008 FFF7FEFF 		bl	sduObjectInit
 267              	.LVL24:
 268              		.loc 1 312 0
 269 000c 0C49     		ldr	r1, .L27+8
 270 000e 2846     		mov	r0, r5
 271 0010 FFF7FEFF 		bl	sduStart
 272              	.LVL25:
 273              		.loc 1 313 0
 274 0014 236D     		ldr	r3, [r4, #80]
 275 0016 9A6B     		ldr	r2, [r3, #56]
 276 0018 22F40022 		bic	r2, r2, #524288
 277 001c 9A63     		str	r2, [r3, #56]
 278              		.loc 1 314 0
 279 001e 0A20     		movs	r0, #10
 280 0020 FFF7FEFF 		bl	chThdSleep
 281              	.LVL26:
 282              		.loc 1 315 0
ARM GAS  /tmp/ccWTay1T.s 			page 6


 283 0024 2046     		mov	r0, r4
 284 0026 0749     		ldr	r1, .L27+12
 285 0028 FFF7FEFF 		bl	usbStart
 286              	.LVL27:
 287              		.loc 1 316 0
 288 002c 236D     		ldr	r3, [r4, #80]
 289 002e 9A6B     		ldr	r2, [r3, #56]
 290 0030 42F40022 		orr	r2, r2, #524288
 291 0034 9A63     		str	r2, [r3, #56]
 292 0036 38BD     		pop	{r3, r4, r5, pc}
 293              	.L28:
 294              		.align	2
 295              	.L27:
 296 0038 00000000 		.word	.LANCHOR7
 297 003c 00000000 		.word	USBD1
 298 0040 00000000 		.word	.LANCHOR8
 299 0044 00000000 		.word	.LANCHOR9
 300              		.cfi_endproc
 301              	.LFE122:
 302              		.size	_usbcdc_init, .-_usbcdc_init
 303 0048 AFF30080 		.section	.text._usb_stop,"ax",%progbits
 303      AFF30080 
 304              		.align	2
 305              		.p2align 4,,15
 306              		.global	_usb_stop
 307              		.thumb
 308              		.thumb_func
 309              		.type	_usb_stop, %function
 310              	_usb_stop:
 311              	.LFB123:
 312              		.loc 1 320 0
 313              		.cfi_startproc
 314              		@ args = 0, pretend = 0, frame = 0
 315              		@ frame_needed = 0, uses_anonymous_args = 0
 316 0000 10B5     		push	{r4, lr}
 317              		.cfi_def_cfa_offset 8
 318              		.cfi_offset 4, -8
 319              		.cfi_offset 14, -4
 320              		.loc 1 321 0
 321 0002 074C     		ldr	r4, .L30
 322              		.loc 1 323 0
 323 0004 0748     		ldr	r0, .L30+4
 324              		.loc 1 321 0
 325 0006 236D     		ldr	r3, [r4, #80]
 326 0008 9A6B     		ldr	r2, [r3, #56]
 327 000a 22F40022 		bic	r2, r2, #524288
 328 000e 9A63     		str	r2, [r3, #56]
 329              		.loc 1 323 0
 330 0010 FFF7FEFF 		bl	sduStop
 331              	.LVL28:
 332              		.loc 1 324 0
 333 0014 2046     		mov	r0, r4
 334              		.loc 1 325 0
 335 0016 BDE81040 		pop	{r4, lr}
 336              		.loc 1 324 0
 337 001a FFF7FEBF 		b	usbStop
 338              	.LVL29:
ARM GAS  /tmp/ccWTay1T.s 			page 7


 339              	.L31:
 340 001e 00BF     		.align	2
 341              	.L30:
 342 0020 00000000 		.word	USBD1
 343 0024 00000000 		.word	.LANCHOR7
 344              		.cfi_endproc
 345              	.LFE123:
 346              		.size	_usb_stop, .-_usb_stop
 347              		.global	_usbcfg
 348              		.global	_resetIndex
 349              		.global	_resetSequence
 350              		.global	_serusbcfg
 351              		.global	SDU1
 352 0028 AFF30080 		.section	.rodata.ep1config,"a",%progbits
 352      AFF30080 
 353              		.align	2
 354              		.set	.LANCHOR5,. + 0
 355              		.type	ep1config, %object
 356              		.size	ep1config, 36
 357              	ep1config:
 358 0000 02000000 		.word	2
 359 0004 00000000 		.word	0
 360 0008 00000000 		.word	sduDataTransmitted
 361 000c 00000000 		.word	sduDataReceived
 362 0010 4000     		.short	64
 363 0012 4000     		.short	64
 364 0014 00000000 		.word	ep1instate
 365 0018 00000000 		.word	ep1outstate
 366 001c 0200     		.short	2
 367 001e 0000     		.space	2
 368 0020 00000000 		.word	0
 369              		.section	.data._resetSequence,"aw",%progbits
 370              		.align	2
 371              		.set	.LANCHOR4,. + 0
 372              		.type	_resetSequence, %object
 373              		.size	_resetSequence, 3
 374              	_resetSequence:
 375 0000 00       		.byte	0
 376 0001 02       		.byte	2
 377 0002 03       		.byte	3
 378 0003 00       		.section	.bss.ep2instate,"aw",%nobits
 379              		.align	2
 380              		.type	ep2instate, %object
 381              		.size	ep2instate, 16
 382              	ep2instate:
 383 0000 00000000 		.space	16
 383      00000000 
 383      00000000 
 383      00000000 
 384              		.section	.bss._resetIndex,"aw",%nobits
 385              		.set	.LANCHOR3,. + 0
 386              		.type	_resetIndex, %object
 387              		.size	_resetIndex, 1
 388              	_resetIndex:
 389 0000 00       		.space	1
 390              		.section	.bss.ep1instate,"aw",%nobits
 391              		.align	2
ARM GAS  /tmp/ccWTay1T.s 			page 8


 392              		.type	ep1instate, %object
 393              		.size	ep1instate, 16
 394              	ep1instate:
 395 0000 00000000 		.space	16
 395      00000000 
 395      00000000 
 395      00000000 
 396              		.section	.rodata._vcom_string0,"a",%progbits
 397              		.align	2
 398              		.type	_vcom_string0, %object
 399              		.size	_vcom_string0, 4
 400              	_vcom_string0:
 401 0000 04       		.byte	4
 402 0001 03       		.byte	3
 403 0002 09       		.byte	9
 404 0003 04       		.byte	4
 405              		.section	.bss.ep1outstate,"aw",%nobits
 406              		.align	2
 407              		.type	ep1outstate, %object
 408              		.size	ep1outstate, 16
 409              	ep1outstate:
 410 0000 00000000 		.space	16
 410      00000000 
 410      00000000 
 410      00000000 
 411              		.section	.rodata.ep2config,"a",%progbits
 412              		.align	2
 413              		.set	.LANCHOR6,. + 0
 414              		.type	ep2config, %object
 415              		.size	ep2config, 36
 416              	ep2config:
 417 0000 03000000 		.word	3
 418 0004 00000000 		.word	0
 419 0008 00000000 		.word	sduInterruptTransmitted
 420 000c 00000000 		.word	0
 421 0010 1000     		.short	16
 422 0012 0000     		.short	0
 423 0014 00000000 		.word	ep2instate
 424 0018 00000000 		.word	0
 425 001c 0100     		.short	1
 426 001e 0000     		.space	2
 427 0020 00000000 		.word	0
 428              		.section	.rodata._vcom_string3,"a",%progbits
 429              		.align	2
 430              		.type	_vcom_string3, %object
 431              		.size	_vcom_string3, 8
 432              	_vcom_string3:
 433 0000 08       		.byte	8
 434 0001 03       		.byte	3
 435 0002 32       		.byte	50
 436 0003 00       		.byte	0
 437 0004 36       		.byte	54
 438 0005 00       		.byte	0
 439 0006 32       		.byte	50
 440 0007 00       		.byte	0
 441              		.section	.rodata._serusbcfg,"a",%progbits
 442              		.align	2
ARM GAS  /tmp/ccWTay1T.s 			page 9


 443              		.set	.LANCHOR8,. + 0
 444              		.type	_serusbcfg, %object
 445              		.size	_serusbcfg, 8
 446              	_serusbcfg:
 447 0000 00000000 		.word	USBD1
 448 0004 01       		.byte	1
 449 0005 01       		.byte	1
 450 0006 02       		.byte	2
 451 0007 00       		.space	1
 452              		.section	.rodata._vcom_strings,"a",%progbits
 453              		.align	2
 454              		.set	.LANCHOR2,. + 0
 455              		.type	_vcom_strings, %object
 456              		.size	_vcom_strings, 32
 457              	_vcom_strings:
 458 0000 04000000 		.word	4
 459 0004 00000000 		.word	_vcom_string0
 460 0008 26000000 		.word	38
 461 000c 00000000 		.word	_vcom_string1
 462 0010 38000000 		.word	56
 463 0014 00000000 		.word	_vcom_string2
 464 0018 08000000 		.word	8
 465 001c 00000000 		.word	_vcom_string3
 466              		.section	.rodata._vcom_string1,"a",%progbits
 467              		.align	2
 468              		.type	_vcom_string1, %object
 469              		.size	_vcom_string1, 38
 470              	_vcom_string1:
 471 0000 26       		.byte	38
 472 0001 03       		.byte	3
 473 0002 53       		.byte	83
 474 0003 00       		.byte	0
 475 0004 54       		.byte	84
 476 0005 00       		.byte	0
 477 0006 4D       		.byte	77
 478 0007 00       		.byte	0
 479 0008 69       		.byte	105
 480 0009 00       		.byte	0
 481 000a 63       		.byte	99
 482 000b 00       		.byte	0
 483 000c 72       		.byte	114
 484 000d 00       		.byte	0
 485 000e 6F       		.byte	111
 486 000f 00       		.byte	0
 487 0010 65       		.byte	101
 488 0011 00       		.byte	0
 489 0012 6C       		.byte	108
 490 0013 00       		.byte	0
 491 0014 65       		.byte	101
 492 0015 00       		.byte	0
 493 0016 63       		.byte	99
 494 0017 00       		.byte	0
 495 0018 74       		.byte	116
 496 0019 00       		.byte	0
 497 001a 72       		.byte	114
 498 001b 00       		.byte	0
 499 001c 6F       		.byte	111
ARM GAS  /tmp/ccWTay1T.s 			page 10


 500 001d 00       		.byte	0
 501 001e 6E       		.byte	110
 502 001f 00       		.byte	0
 503 0020 69       		.byte	105
 504 0021 00       		.byte	0
 505 0022 63       		.byte	99
 506 0023 00       		.byte	0
 507 0024 73       		.byte	115
 508 0025 00       		.byte	0
 509 0026 0000     		.section	.rodata._vcom_string2,"a",%progbits
 510              		.align	2
 511              		.type	_vcom_string2, %object
 512              		.size	_vcom_string2, 56
 513              	_vcom_string2:
 514 0000 38       		.byte	56
 515 0001 03       		.byte	3
 516 0002 43       		.byte	67
 517 0003 00       		.byte	0
 518 0004 68       		.byte	104
 519 0005 00       		.byte	0
 520 0006 69       		.byte	105
 521 0007 00       		.byte	0
 522 0008 62       		.byte	98
 523 0009 00       		.byte	0
 524 000a 69       		.byte	105
 525 000b 00       		.byte	0
 526 000c 4F       		.byte	79
 527 000d 00       		.byte	0
 528 000e 53       		.byte	83
 529 000f 00       		.byte	0
 530 0010 2F       		.byte	47
 531 0011 00       		.byte	0
 532 0012 52       		.byte	82
 533 0013 00       		.byte	0
 534 0014 54       		.byte	84
 535 0015 00       		.byte	0
 536 0016 20       		.byte	32
 537 0017 00       		.byte	0
 538 0018 56       		.byte	86
 539 0019 00       		.byte	0
 540 001a 69       		.byte	105
 541 001b 00       		.byte	0
 542 001c 72       		.byte	114
 543 001d 00       		.byte	0
 544 001e 74       		.byte	116
 545 001f 00       		.byte	0
 546 0020 75       		.byte	117
 547 0021 00       		.byte	0
 548 0022 61       		.byte	97
 549 0023 00       		.byte	0
 550 0024 6C       		.byte	108
 551 0025 00       		.byte	0
 552 0026 20       		.byte	32
 553 0027 00       		.byte	0
 554 0028 43       		.byte	67
 555 0029 00       		.byte	0
 556 002a 4F       		.byte	79
ARM GAS  /tmp/ccWTay1T.s 			page 11


 557 002b 00       		.byte	0
 558 002c 4D       		.byte	77
 559 002d 00       		.byte	0
 560 002e 20       		.byte	32
 561 002f 00       		.byte	0
 562 0030 50       		.byte	80
 563 0031 00       		.byte	0
 564 0032 6F       		.byte	111
 565 0033 00       		.byte	0
 566 0034 72       		.byte	114
 567 0035 00       		.byte	0
 568 0036 74       		.byte	116
 569 0037 00       		.byte	0
 570              		.section	.rodata._vcom_device_descriptor,"a",%progbits
 571              		.align	2
 572              		.set	.LANCHOR0,. + 0
 573              		.type	_vcom_device_descriptor, %object
 574              		.size	_vcom_device_descriptor, 8
 575              	_vcom_device_descriptor:
 576 0000 12000000 		.word	18
 577 0004 00000000 		.word	_vcom_device_descriptor_data
 578              		.section	.rodata._usbcfg,"a",%progbits
 579              		.align	2
 580              		.set	.LANCHOR9,. + 0
 581              		.type	_usbcfg, %object
 582              		.size	_usbcfg, 16
 583              	_usbcfg:
 584 0000 00000000 		.word	_usb_event
 585 0004 00000000 		.word	_get_descriptor
 586 0008 00000000 		.word	_request_hook
 587 000c 00000000 		.word	0
 588              		.section	.rodata._vcom_device_descriptor_data,"a",%progbits
 589              		.align	2
 590              		.type	_vcom_device_descriptor_data, %object
 591              		.size	_vcom_device_descriptor_data, 18
 592              	_vcom_device_descriptor_data:
 593 0000 12       		.byte	18
 594 0001 01       		.byte	1
 595 0002 10       		.byte	16
 596 0003 01       		.byte	1
 597 0004 02       		.byte	2
 598 0005 00       		.byte	0
 599 0006 00       		.byte	0
 600 0007 40       		.byte	64
 601 0008 83       		.byte	-125
 602 0009 04       		.byte	4
 603 000a 40       		.byte	64
 604 000b 57       		.byte	87
 605 000c 00       		.byte	0
 606 000d 02       		.byte	2
 607 000e 01       		.byte	1
 608 000f 02       		.byte	2
 609 0010 03       		.byte	3
 610 0011 01       		.byte	1
 611 0012 0000     		.section	.rodata._vcom_configuration_descriptor_data,"a",%progbits
 612              		.align	2
 613              		.type	_vcom_configuration_descriptor_data, %object
ARM GAS  /tmp/ccWTay1T.s 			page 12


 614              		.size	_vcom_configuration_descriptor_data, 67
 615              	_vcom_configuration_descriptor_data:
 616 0000 09       		.byte	9
 617 0001 02       		.byte	2
 618 0002 43       		.byte	67
 619 0003 00       		.byte	0
 620 0004 02       		.byte	2
 621 0005 01       		.byte	1
 622 0006 00       		.byte	0
 623 0007 C0       		.byte	-64
 624 0008 32       		.byte	50
 625 0009 09       		.byte	9
 626 000a 04       		.byte	4
 627 000b 00       		.byte	0
 628 000c 00       		.byte	0
 629 000d 01       		.byte	1
 630 000e 02       		.byte	2
 631 000f 02       		.byte	2
 632 0010 01       		.byte	1
 633 0011 00       		.byte	0
 634 0012 05       		.byte	5
 635 0013 24       		.byte	36
 636 0014 00       		.byte	0
 637 0015 10       		.byte	16
 638 0016 01       		.byte	1
 639 0017 05       		.byte	5
 640 0018 24       		.byte	36
 641 0019 01       		.byte	1
 642 001a 00       		.byte	0
 643 001b 01       		.byte	1
 644 001c 04       		.byte	4
 645 001d 24       		.byte	36
 646 001e 02       		.byte	2
 647 001f 02       		.byte	2
 648 0020 05       		.byte	5
 649 0021 24       		.byte	36
 650 0022 06       		.byte	6
 651 0023 00       		.byte	0
 652 0024 01       		.byte	1
 653 0025 07       		.byte	7
 654 0026 05       		.byte	5
 655 0027 82       		.byte	-126
 656 0028 03       		.byte	3
 657 0029 08       		.byte	8
 658 002a 00       		.byte	0
 659 002b FF       		.byte	-1
 660 002c 09       		.byte	9
 661 002d 04       		.byte	4
 662 002e 01       		.byte	1
 663 002f 00       		.byte	0
 664 0030 02       		.byte	2
 665 0031 0A       		.byte	10
 666 0032 00       		.byte	0
 667 0033 00       		.byte	0
 668 0034 00       		.byte	0
 669 0035 07       		.byte	7
 670 0036 05       		.byte	5
ARM GAS  /tmp/ccWTay1T.s 			page 13


 671 0037 01       		.byte	1
 672 0038 02       		.byte	2
 673 0039 40       		.byte	64
 674 003a 00       		.byte	0
 675 003b 00       		.byte	0
 676 003c 07       		.byte	7
 677 003d 05       		.byte	5
 678 003e 81       		.byte	-127
 679 003f 02       		.byte	2
 680 0040 40       		.byte	64
 681 0041 00       		.byte	0
 682 0042 00       		.byte	0
 683 0043 00       		.section	.bss.SDU1,"aw",%nobits
 684              		.align	2
 685              		.set	.LANCHOR7,. + 0
 686              		.type	SDU1, %object
 687              		.size	SDU1, 600
 688              	SDU1:
 689 0000 00000000 		.space	600
 689      00000000 
 689      00000000 
 689      00000000 
 689      00000000 
 690              		.section	.rodata._vcom_configuration_descriptor,"a",%progbits
 691              		.align	2
 692              		.set	.LANCHOR1,. + 0
 693              		.type	_vcom_configuration_descriptor, %object
 694              		.size	_vcom_configuration_descriptor, 8
 695              	_vcom_configuration_descriptor:
 696 0000 43000000 		.word	67
 697 0004 00000000 		.word	_vcom_configuration_descriptor_data
 698              		.text
 699              	.Letext0:
 700              		.file 2 "/usr/lib/gcc/arm-none-eabi/4.8.3/include/stddef.h"
 701              		.file 3 "/usr/arm-none-eabi/include/stdint.h"
 702              		.file 4 "../AithonLibrary/ChibiOS/os/ports/GCC/ARMCMx/chtypes.h"
 703              		.file 5 "../AithonLibrary/ChibiOS/os/kernel/include/chlists.h"
 704              		.file 6 "../AithonLibrary/ChibiOS/os/kernel/include/chthreads.h"
 705              		.file 7 "../AithonLibrary/ChibiOS/os/ports/GCC/ARMCMx/chcore_v7m.h"
 706              		.file 8 "../AithonLibrary/ChibiOS/os/kernel/include/chmtx.h"
 707              		.file 9 "../AithonLibrary/ChibiOS/os/kernel/include/chevents.h"
 708              		.file 10 "../AithonLibrary/ChibiOS/os/kernel/include/chqueues.h"
 709              		.file 11 "../AithonLibrary/ChibiOS/os/hal/include/usb.h"
 710              		.file 12 "../AithonLibrary/ChibiOS/os/hal/platforms/STM32/OTGv1/usb_lld.h"
 711              		.file 13 "../AithonLibrary/ChibiOS/os/hal/platforms/STM32/OTGv1/stm32_otg.h"
 712              		.file 14 "../AithonLibrary/ChibiOS/os/hal/include/serial_usb.h"
 713              		.file 15 "../AithonLibrary/ChibiOS/os/ports/common/ARMCMx/CMSIS/include/core_cm4.h"
 714              		.file 16 "../AithonLibrary/aithon_private.h"